ARM GAS  C:\Users\user\AppData\Local\Temp\ccsJwa9Q.s 			page 1


   1              		.cpu cortex-m4
   2              		.eabi_attribute 27, 1
   3              		.eabi_attribute 28, 1
   4              		.eabi_attribute 20, 1
   5              		.eabi_attribute 21, 1
   6              		.eabi_attribute 23, 3
   7              		.eabi_attribute 24, 1
   8              		.eabi_attribute 25, 1
   9              		.eabi_attribute 26, 1
  10              		.eabi_attribute 30, 6
  11              		.eabi_attribute 34, 1
  12              		.eabi_attribute 18, 4
  13              		.file	"stm32l4xx_hal_rcc_ex.c"
  14              		.text
  15              	.Ltext0:
  16              		.cfi_sections	.debug_frame
  17              		.section	.text.HAL_RCCEx_PeriphCLKConfig,"ax",%progbits
  18              		.align	1
  19              		.global	HAL_RCCEx_PeriphCLKConfig
  20              		.syntax unified
  21              		.thumb
  22              		.thumb_func
  23              		.fpu fpv4-sp-d16
  25              	HAL_RCCEx_PeriphCLKConfig:
  26              	.LFB133:
  27              		.file 1 "E:/LiteOS/LiteOS_Lab/drivers/third_party/ST/STM32L4xx_HAL_Driver/Src/stm32l4xx_hal_rcc_ex
   1:E:/LiteOS/LiteOS_Lab/drivers/third_party/ST/STM32L4xx_HAL_Driver/Src\stm32l4xx_hal_rcc_ex.c **** /**
   2:E:/LiteOS/LiteOS_Lab/drivers/third_party/ST/STM32L4xx_HAL_Driver/Src\stm32l4xx_hal_rcc_ex.c ****   ******************************************************************************
   3:E:/LiteOS/LiteOS_Lab/drivers/third_party/ST/STM32L4xx_HAL_Driver/Src\stm32l4xx_hal_rcc_ex.c ****   * @file    stm32l4xx_hal_rcc_ex.c
   4:E:/LiteOS/LiteOS_Lab/drivers/third_party/ST/STM32L4xx_HAL_Driver/Src\stm32l4xx_hal_rcc_ex.c ****   * @author  MCD Application Team
   5:E:/LiteOS/LiteOS_Lab/drivers/third_party/ST/STM32L4xx_HAL_Driver/Src\stm32l4xx_hal_rcc_ex.c ****   * @brief   Extended RCC HAL module driver.
   6:E:/LiteOS/LiteOS_Lab/drivers/third_party/ST/STM32L4xx_HAL_Driver/Src\stm32l4xx_hal_rcc_ex.c ****   *          This file provides firmware functions to manage the following
   7:E:/LiteOS/LiteOS_Lab/drivers/third_party/ST/STM32L4xx_HAL_Driver/Src\stm32l4xx_hal_rcc_ex.c ****   *          functionalities RCC extended peripheral:
   8:E:/LiteOS/LiteOS_Lab/drivers/third_party/ST/STM32L4xx_HAL_Driver/Src\stm32l4xx_hal_rcc_ex.c ****   *           + Extended Peripheral Control functions
   9:E:/LiteOS/LiteOS_Lab/drivers/third_party/ST/STM32L4xx_HAL_Driver/Src\stm32l4xx_hal_rcc_ex.c ****   *           + Extended Clock management functions
  10:E:/LiteOS/LiteOS_Lab/drivers/third_party/ST/STM32L4xx_HAL_Driver/Src\stm32l4xx_hal_rcc_ex.c ****   *           + Extended Clock Recovery System Control functions
  11:E:/LiteOS/LiteOS_Lab/drivers/third_party/ST/STM32L4xx_HAL_Driver/Src\stm32l4xx_hal_rcc_ex.c ****   *
  12:E:/LiteOS/LiteOS_Lab/drivers/third_party/ST/STM32L4xx_HAL_Driver/Src\stm32l4xx_hal_rcc_ex.c ****   ******************************************************************************
  13:E:/LiteOS/LiteOS_Lab/drivers/third_party/ST/STM32L4xx_HAL_Driver/Src\stm32l4xx_hal_rcc_ex.c ****   * @attention
  14:E:/LiteOS/LiteOS_Lab/drivers/third_party/ST/STM32L4xx_HAL_Driver/Src\stm32l4xx_hal_rcc_ex.c ****   *
  15:E:/LiteOS/LiteOS_Lab/drivers/third_party/ST/STM32L4xx_HAL_Driver/Src\stm32l4xx_hal_rcc_ex.c ****   * <h2><center>&copy; COPYRIGHT(c) 2017 STMicroelectronics</center></h2>
  16:E:/LiteOS/LiteOS_Lab/drivers/third_party/ST/STM32L4xx_HAL_Driver/Src\stm32l4xx_hal_rcc_ex.c ****   *
  17:E:/LiteOS/LiteOS_Lab/drivers/third_party/ST/STM32L4xx_HAL_Driver/Src\stm32l4xx_hal_rcc_ex.c ****   * Redistribution and use in source and binary forms, with or without modification,
  18:E:/LiteOS/LiteOS_Lab/drivers/third_party/ST/STM32L4xx_HAL_Driver/Src\stm32l4xx_hal_rcc_ex.c ****   * are permitted provided that the following conditions are met:
  19:E:/LiteOS/LiteOS_Lab/drivers/third_party/ST/STM32L4xx_HAL_Driver/Src\stm32l4xx_hal_rcc_ex.c ****   *   1. Redistributions of source code must retain the above copyright notice,
  20:E:/LiteOS/LiteOS_Lab/drivers/third_party/ST/STM32L4xx_HAL_Driver/Src\stm32l4xx_hal_rcc_ex.c ****   *      this list of conditions and the following disclaimer.
  21:E:/LiteOS/LiteOS_Lab/drivers/third_party/ST/STM32L4xx_HAL_Driver/Src\stm32l4xx_hal_rcc_ex.c ****   *   2. Redistributions in binary form must reproduce the above copyright notice,
  22:E:/LiteOS/LiteOS_Lab/drivers/third_party/ST/STM32L4xx_HAL_Driver/Src\stm32l4xx_hal_rcc_ex.c ****   *      this list of conditions and the following disclaimer in the documentation
  23:E:/LiteOS/LiteOS_Lab/drivers/third_party/ST/STM32L4xx_HAL_Driver/Src\stm32l4xx_hal_rcc_ex.c ****   *      and/or other materials provided with the distribution.
  24:E:/LiteOS/LiteOS_Lab/drivers/third_party/ST/STM32L4xx_HAL_Driver/Src\stm32l4xx_hal_rcc_ex.c ****   *   3. Neither the name of STMicroelectronics nor the names of its contributors
  25:E:/LiteOS/LiteOS_Lab/drivers/third_party/ST/STM32L4xx_HAL_Driver/Src\stm32l4xx_hal_rcc_ex.c ****   *      may be used to endorse or promote products derived from this software
  26:E:/LiteOS/LiteOS_Lab/drivers/third_party/ST/STM32L4xx_HAL_Driver/Src\stm32l4xx_hal_rcc_ex.c ****   *      without specific prior written permission.
  27:E:/LiteOS/LiteOS_Lab/drivers/third_party/ST/STM32L4xx_HAL_Driver/Src\stm32l4xx_hal_rcc_ex.c ****   *
  28:E:/LiteOS/LiteOS_Lab/drivers/third_party/ST/STM32L4xx_HAL_Driver/Src\stm32l4xx_hal_rcc_ex.c ****   * THIS SOFTWARE IS PROVIDED BY THE COPYRIGHT HOLDERS AND CONTRIBUTORS "AS IS"
  29:E:/LiteOS/LiteOS_Lab/drivers/third_party/ST/STM32L4xx_HAL_Driver/Src\stm32l4xx_hal_rcc_ex.c ****   * AND ANY EXPRESS OR IMPLIED WARRANTIES, INCLUDING, BUT NOT LIMITED TO, THE
  30:E:/LiteOS/LiteOS_Lab/drivers/third_party/ST/STM32L4xx_HAL_Driver/Src\stm32l4xx_hal_rcc_ex.c ****   * IMPLIED WARRANTIES OF MERCHANTABILITY AND FITNESS FOR A PARTICULAR PURPOSE ARE
  31:E:/LiteOS/LiteOS_Lab/drivers/third_party/ST/STM32L4xx_HAL_Driver/Src\stm32l4xx_hal_rcc_ex.c ****   * DISCLAIMED. IN NO EVENT SHALL THE COPYRIGHT HOLDER OR CONTRIBUTORS BE LIABLE
ARM GAS  C:\Users\user\AppData\Local\Temp\ccsJwa9Q.s 			page 2


  32:E:/LiteOS/LiteOS_Lab/drivers/third_party/ST/STM32L4xx_HAL_Driver/Src\stm32l4xx_hal_rcc_ex.c ****   * FOR ANY DIRECT, INDIRECT, INCIDENTAL, SPECIAL, EXEMPLARY, OR CONSEQUENTIAL
  33:E:/LiteOS/LiteOS_Lab/drivers/third_party/ST/STM32L4xx_HAL_Driver/Src\stm32l4xx_hal_rcc_ex.c ****   * DAMAGES (INCLUDING, BUT NOT LIMITED TO, PROCUREMENT OF SUBSTITUTE GOODS OR
  34:E:/LiteOS/LiteOS_Lab/drivers/third_party/ST/STM32L4xx_HAL_Driver/Src\stm32l4xx_hal_rcc_ex.c ****   * SERVICES; LOSS OF USE, DATA, OR PROFITS; OR BUSINESS INTERRUPTION) HOWEVER
  35:E:/LiteOS/LiteOS_Lab/drivers/third_party/ST/STM32L4xx_HAL_Driver/Src\stm32l4xx_hal_rcc_ex.c ****   * CAUSED AND ON ANY THEORY OF LIABILITY, WHETHER IN CONTRACT, STRICT LIABILITY,
  36:E:/LiteOS/LiteOS_Lab/drivers/third_party/ST/STM32L4xx_HAL_Driver/Src\stm32l4xx_hal_rcc_ex.c ****   * OR TORT (INCLUDING NEGLIGENCE OR OTHERWISE) ARISING IN ANY WAY OUT OF THE USE
  37:E:/LiteOS/LiteOS_Lab/drivers/third_party/ST/STM32L4xx_HAL_Driver/Src\stm32l4xx_hal_rcc_ex.c ****   * OF THIS SOFTWARE, EVEN IF ADVISED OF THE POSSIBILITY OF SUCH DAMAGE.
  38:E:/LiteOS/LiteOS_Lab/drivers/third_party/ST/STM32L4xx_HAL_Driver/Src\stm32l4xx_hal_rcc_ex.c ****   *
  39:E:/LiteOS/LiteOS_Lab/drivers/third_party/ST/STM32L4xx_HAL_Driver/Src\stm32l4xx_hal_rcc_ex.c ****   ******************************************************************************
  40:E:/LiteOS/LiteOS_Lab/drivers/third_party/ST/STM32L4xx_HAL_Driver/Src\stm32l4xx_hal_rcc_ex.c ****   */
  41:E:/LiteOS/LiteOS_Lab/drivers/third_party/ST/STM32L4xx_HAL_Driver/Src\stm32l4xx_hal_rcc_ex.c **** 
  42:E:/LiteOS/LiteOS_Lab/drivers/third_party/ST/STM32L4xx_HAL_Driver/Src\stm32l4xx_hal_rcc_ex.c **** /* Includes ------------------------------------------------------------------*/
  43:E:/LiteOS/LiteOS_Lab/drivers/third_party/ST/STM32L4xx_HAL_Driver/Src\stm32l4xx_hal_rcc_ex.c **** #include "stm32l4xx_hal.h"
  44:E:/LiteOS/LiteOS_Lab/drivers/third_party/ST/STM32L4xx_HAL_Driver/Src\stm32l4xx_hal_rcc_ex.c **** 
  45:E:/LiteOS/LiteOS_Lab/drivers/third_party/ST/STM32L4xx_HAL_Driver/Src\stm32l4xx_hal_rcc_ex.c **** /** @addtogroup STM32L4xx_HAL_Driver
  46:E:/LiteOS/LiteOS_Lab/drivers/third_party/ST/STM32L4xx_HAL_Driver/Src\stm32l4xx_hal_rcc_ex.c ****   * @{
  47:E:/LiteOS/LiteOS_Lab/drivers/third_party/ST/STM32L4xx_HAL_Driver/Src\stm32l4xx_hal_rcc_ex.c ****   */
  48:E:/LiteOS/LiteOS_Lab/drivers/third_party/ST/STM32L4xx_HAL_Driver/Src\stm32l4xx_hal_rcc_ex.c **** 
  49:E:/LiteOS/LiteOS_Lab/drivers/third_party/ST/STM32L4xx_HAL_Driver/Src\stm32l4xx_hal_rcc_ex.c **** /** @defgroup RCCEx RCCEx
  50:E:/LiteOS/LiteOS_Lab/drivers/third_party/ST/STM32L4xx_HAL_Driver/Src\stm32l4xx_hal_rcc_ex.c ****   * @brief RCC Extended HAL module driver
  51:E:/LiteOS/LiteOS_Lab/drivers/third_party/ST/STM32L4xx_HAL_Driver/Src\stm32l4xx_hal_rcc_ex.c ****   * @{
  52:E:/LiteOS/LiteOS_Lab/drivers/third_party/ST/STM32L4xx_HAL_Driver/Src\stm32l4xx_hal_rcc_ex.c ****   */
  53:E:/LiteOS/LiteOS_Lab/drivers/third_party/ST/STM32L4xx_HAL_Driver/Src\stm32l4xx_hal_rcc_ex.c **** 
  54:E:/LiteOS/LiteOS_Lab/drivers/third_party/ST/STM32L4xx_HAL_Driver/Src\stm32l4xx_hal_rcc_ex.c **** #ifdef HAL_RCC_MODULE_ENABLED
  55:E:/LiteOS/LiteOS_Lab/drivers/third_party/ST/STM32L4xx_HAL_Driver/Src\stm32l4xx_hal_rcc_ex.c **** 
  56:E:/LiteOS/LiteOS_Lab/drivers/third_party/ST/STM32L4xx_HAL_Driver/Src\stm32l4xx_hal_rcc_ex.c **** /* Private typedef -----------------------------------------------------------*/
  57:E:/LiteOS/LiteOS_Lab/drivers/third_party/ST/STM32L4xx_HAL_Driver/Src\stm32l4xx_hal_rcc_ex.c **** /* Private defines -----------------------------------------------------------*/
  58:E:/LiteOS/LiteOS_Lab/drivers/third_party/ST/STM32L4xx_HAL_Driver/Src\stm32l4xx_hal_rcc_ex.c **** /** @defgroup RCCEx_Private_Constants RCCEx Private Constants
  59:E:/LiteOS/LiteOS_Lab/drivers/third_party/ST/STM32L4xx_HAL_Driver/Src\stm32l4xx_hal_rcc_ex.c ****  * @{
  60:E:/LiteOS/LiteOS_Lab/drivers/third_party/ST/STM32L4xx_HAL_Driver/Src\stm32l4xx_hal_rcc_ex.c ****  */
  61:E:/LiteOS/LiteOS_Lab/drivers/third_party/ST/STM32L4xx_HAL_Driver/Src\stm32l4xx_hal_rcc_ex.c **** #define PLLSAI1_TIMEOUT_VALUE     2U    /* 2 ms (minimum Tick + 1) */
  62:E:/LiteOS/LiteOS_Lab/drivers/third_party/ST/STM32L4xx_HAL_Driver/Src\stm32l4xx_hal_rcc_ex.c **** #define PLLSAI2_TIMEOUT_VALUE     2U    /* 2 ms (minimum Tick + 1) */
  63:E:/LiteOS/LiteOS_Lab/drivers/third_party/ST/STM32L4xx_HAL_Driver/Src\stm32l4xx_hal_rcc_ex.c **** #define PLL_TIMEOUT_VALUE         2U    /* 2 ms (minimum Tick + 1) */
  64:E:/LiteOS/LiteOS_Lab/drivers/third_party/ST/STM32L4xx_HAL_Driver/Src\stm32l4xx_hal_rcc_ex.c **** 
  65:E:/LiteOS/LiteOS_Lab/drivers/third_party/ST/STM32L4xx_HAL_Driver/Src\stm32l4xx_hal_rcc_ex.c **** #define DIVIDER_P_UPDATE          0U
  66:E:/LiteOS/LiteOS_Lab/drivers/third_party/ST/STM32L4xx_HAL_Driver/Src\stm32l4xx_hal_rcc_ex.c **** #define DIVIDER_Q_UPDATE          1U
  67:E:/LiteOS/LiteOS_Lab/drivers/third_party/ST/STM32L4xx_HAL_Driver/Src\stm32l4xx_hal_rcc_ex.c **** #define DIVIDER_R_UPDATE          2U
  68:E:/LiteOS/LiteOS_Lab/drivers/third_party/ST/STM32L4xx_HAL_Driver/Src\stm32l4xx_hal_rcc_ex.c **** 
  69:E:/LiteOS/LiteOS_Lab/drivers/third_party/ST/STM32L4xx_HAL_Driver/Src\stm32l4xx_hal_rcc_ex.c **** #define __LSCO_CLK_ENABLE()       __HAL_RCC_GPIOA_CLK_ENABLE()
  70:E:/LiteOS/LiteOS_Lab/drivers/third_party/ST/STM32L4xx_HAL_Driver/Src\stm32l4xx_hal_rcc_ex.c **** #define LSCO_GPIO_PORT            GPIOA
  71:E:/LiteOS/LiteOS_Lab/drivers/third_party/ST/STM32L4xx_HAL_Driver/Src\stm32l4xx_hal_rcc_ex.c **** #define LSCO_PIN                  GPIO_PIN_2
  72:E:/LiteOS/LiteOS_Lab/drivers/third_party/ST/STM32L4xx_HAL_Driver/Src\stm32l4xx_hal_rcc_ex.c **** /**
  73:E:/LiteOS/LiteOS_Lab/drivers/third_party/ST/STM32L4xx_HAL_Driver/Src\stm32l4xx_hal_rcc_ex.c ****   * @}
  74:E:/LiteOS/LiteOS_Lab/drivers/third_party/ST/STM32L4xx_HAL_Driver/Src\stm32l4xx_hal_rcc_ex.c ****   */
  75:E:/LiteOS/LiteOS_Lab/drivers/third_party/ST/STM32L4xx_HAL_Driver/Src\stm32l4xx_hal_rcc_ex.c **** 
  76:E:/LiteOS/LiteOS_Lab/drivers/third_party/ST/STM32L4xx_HAL_Driver/Src\stm32l4xx_hal_rcc_ex.c **** /* Private macros ------------------------------------------------------------*/
  77:E:/LiteOS/LiteOS_Lab/drivers/third_party/ST/STM32L4xx_HAL_Driver/Src\stm32l4xx_hal_rcc_ex.c **** /* Private variables ---------------------------------------------------------*/
  78:E:/LiteOS/LiteOS_Lab/drivers/third_party/ST/STM32L4xx_HAL_Driver/Src\stm32l4xx_hal_rcc_ex.c **** /* Private function prototypes -----------------------------------------------*/
  79:E:/LiteOS/LiteOS_Lab/drivers/third_party/ST/STM32L4xx_HAL_Driver/Src\stm32l4xx_hal_rcc_ex.c **** /** @defgroup RCCEx_Private_Functions RCCEx Private Functions
  80:E:/LiteOS/LiteOS_Lab/drivers/third_party/ST/STM32L4xx_HAL_Driver/Src\stm32l4xx_hal_rcc_ex.c ****  * @{
  81:E:/LiteOS/LiteOS_Lab/drivers/third_party/ST/STM32L4xx_HAL_Driver/Src\stm32l4xx_hal_rcc_ex.c ****  */
  82:E:/LiteOS/LiteOS_Lab/drivers/third_party/ST/STM32L4xx_HAL_Driver/Src\stm32l4xx_hal_rcc_ex.c **** static HAL_StatusTypeDef RCCEx_PLLSAI1_Config(RCC_PLLSAI1InitTypeDef *PllSai1, uint32_t Divider);
  83:E:/LiteOS/LiteOS_Lab/drivers/third_party/ST/STM32L4xx_HAL_Driver/Src\stm32l4xx_hal_rcc_ex.c **** 
  84:E:/LiteOS/LiteOS_Lab/drivers/third_party/ST/STM32L4xx_HAL_Driver/Src\stm32l4xx_hal_rcc_ex.c **** #if defined(RCC_PLLSAI2_SUPPORT)
  85:E:/LiteOS/LiteOS_Lab/drivers/third_party/ST/STM32L4xx_HAL_Driver/Src\stm32l4xx_hal_rcc_ex.c **** 
  86:E:/LiteOS/LiteOS_Lab/drivers/third_party/ST/STM32L4xx_HAL_Driver/Src\stm32l4xx_hal_rcc_ex.c **** static HAL_StatusTypeDef RCCEx_PLLSAI2_Config(RCC_PLLSAI2InitTypeDef *PllSai2, uint32_t Divider);
  87:E:/LiteOS/LiteOS_Lab/drivers/third_party/ST/STM32L4xx_HAL_Driver/Src\stm32l4xx_hal_rcc_ex.c **** 
  88:E:/LiteOS/LiteOS_Lab/drivers/third_party/ST/STM32L4xx_HAL_Driver/Src\stm32l4xx_hal_rcc_ex.c **** #endif /* RCC_PLLSAI2_SUPPORT */
ARM GAS  C:\Users\user\AppData\Local\Temp\ccsJwa9Q.s 			page 3


  89:E:/LiteOS/LiteOS_Lab/drivers/third_party/ST/STM32L4xx_HAL_Driver/Src\stm32l4xx_hal_rcc_ex.c **** 
  90:E:/LiteOS/LiteOS_Lab/drivers/third_party/ST/STM32L4xx_HAL_Driver/Src\stm32l4xx_hal_rcc_ex.c **** /**
  91:E:/LiteOS/LiteOS_Lab/drivers/third_party/ST/STM32L4xx_HAL_Driver/Src\stm32l4xx_hal_rcc_ex.c ****   * @}
  92:E:/LiteOS/LiteOS_Lab/drivers/third_party/ST/STM32L4xx_HAL_Driver/Src\stm32l4xx_hal_rcc_ex.c ****   */
  93:E:/LiteOS/LiteOS_Lab/drivers/third_party/ST/STM32L4xx_HAL_Driver/Src\stm32l4xx_hal_rcc_ex.c **** 
  94:E:/LiteOS/LiteOS_Lab/drivers/third_party/ST/STM32L4xx_HAL_Driver/Src\stm32l4xx_hal_rcc_ex.c **** /* Exported functions --------------------------------------------------------*/
  95:E:/LiteOS/LiteOS_Lab/drivers/third_party/ST/STM32L4xx_HAL_Driver/Src\stm32l4xx_hal_rcc_ex.c **** 
  96:E:/LiteOS/LiteOS_Lab/drivers/third_party/ST/STM32L4xx_HAL_Driver/Src\stm32l4xx_hal_rcc_ex.c **** /** @defgroup RCCEx_Exported_Functions RCCEx Exported Functions
  97:E:/LiteOS/LiteOS_Lab/drivers/third_party/ST/STM32L4xx_HAL_Driver/Src\stm32l4xx_hal_rcc_ex.c ****   * @{
  98:E:/LiteOS/LiteOS_Lab/drivers/third_party/ST/STM32L4xx_HAL_Driver/Src\stm32l4xx_hal_rcc_ex.c ****   */
  99:E:/LiteOS/LiteOS_Lab/drivers/third_party/ST/STM32L4xx_HAL_Driver/Src\stm32l4xx_hal_rcc_ex.c **** 
 100:E:/LiteOS/LiteOS_Lab/drivers/third_party/ST/STM32L4xx_HAL_Driver/Src\stm32l4xx_hal_rcc_ex.c **** /** @defgroup RCCEx_Exported_Functions_Group1 Extended Peripheral Control functions
 101:E:/LiteOS/LiteOS_Lab/drivers/third_party/ST/STM32L4xx_HAL_Driver/Src\stm32l4xx_hal_rcc_ex.c ****  *  @brief  Extended Peripheral Control functions
 102:E:/LiteOS/LiteOS_Lab/drivers/third_party/ST/STM32L4xx_HAL_Driver/Src\stm32l4xx_hal_rcc_ex.c ****  *
 103:E:/LiteOS/LiteOS_Lab/drivers/third_party/ST/STM32L4xx_HAL_Driver/Src\stm32l4xx_hal_rcc_ex.c **** @verbatim
 104:E:/LiteOS/LiteOS_Lab/drivers/third_party/ST/STM32L4xx_HAL_Driver/Src\stm32l4xx_hal_rcc_ex.c ****  ===============================================================================
 105:E:/LiteOS/LiteOS_Lab/drivers/third_party/ST/STM32L4xx_HAL_Driver/Src\stm32l4xx_hal_rcc_ex.c ****                 ##### Extended Peripheral Control functions  #####
 106:E:/LiteOS/LiteOS_Lab/drivers/third_party/ST/STM32L4xx_HAL_Driver/Src\stm32l4xx_hal_rcc_ex.c ****  ===============================================================================
 107:E:/LiteOS/LiteOS_Lab/drivers/third_party/ST/STM32L4xx_HAL_Driver/Src\stm32l4xx_hal_rcc_ex.c ****     [..]
 108:E:/LiteOS/LiteOS_Lab/drivers/third_party/ST/STM32L4xx_HAL_Driver/Src\stm32l4xx_hal_rcc_ex.c ****     This subsection provides a set of functions allowing to control the RCC Clocks
 109:E:/LiteOS/LiteOS_Lab/drivers/third_party/ST/STM32L4xx_HAL_Driver/Src\stm32l4xx_hal_rcc_ex.c ****     frequencies.
 110:E:/LiteOS/LiteOS_Lab/drivers/third_party/ST/STM32L4xx_HAL_Driver/Src\stm32l4xx_hal_rcc_ex.c ****     [..]
 111:E:/LiteOS/LiteOS_Lab/drivers/third_party/ST/STM32L4xx_HAL_Driver/Src\stm32l4xx_hal_rcc_ex.c ****     (@) Important note: Care must be taken when HAL_RCCEx_PeriphCLKConfig() is used to
 112:E:/LiteOS/LiteOS_Lab/drivers/third_party/ST/STM32L4xx_HAL_Driver/Src\stm32l4xx_hal_rcc_ex.c ****         select the RTC clock source; in this case the Backup domain will be reset in
 113:E:/LiteOS/LiteOS_Lab/drivers/third_party/ST/STM32L4xx_HAL_Driver/Src\stm32l4xx_hal_rcc_ex.c ****         order to modify the RTC Clock source, as consequence RTC registers (including
 114:E:/LiteOS/LiteOS_Lab/drivers/third_party/ST/STM32L4xx_HAL_Driver/Src\stm32l4xx_hal_rcc_ex.c ****         the backup registers) are set to their reset values.
 115:E:/LiteOS/LiteOS_Lab/drivers/third_party/ST/STM32L4xx_HAL_Driver/Src\stm32l4xx_hal_rcc_ex.c **** 
 116:E:/LiteOS/LiteOS_Lab/drivers/third_party/ST/STM32L4xx_HAL_Driver/Src\stm32l4xx_hal_rcc_ex.c **** @endverbatim
 117:E:/LiteOS/LiteOS_Lab/drivers/third_party/ST/STM32L4xx_HAL_Driver/Src\stm32l4xx_hal_rcc_ex.c ****   * @{
 118:E:/LiteOS/LiteOS_Lab/drivers/third_party/ST/STM32L4xx_HAL_Driver/Src\stm32l4xx_hal_rcc_ex.c ****   */
 119:E:/LiteOS/LiteOS_Lab/drivers/third_party/ST/STM32L4xx_HAL_Driver/Src\stm32l4xx_hal_rcc_ex.c **** /**
 120:E:/LiteOS/LiteOS_Lab/drivers/third_party/ST/STM32L4xx_HAL_Driver/Src\stm32l4xx_hal_rcc_ex.c ****   * @brief  Initialize the RCC extended peripherals clocks according to the specified
 121:E:/LiteOS/LiteOS_Lab/drivers/third_party/ST/STM32L4xx_HAL_Driver/Src\stm32l4xx_hal_rcc_ex.c ****   *         parameters in the RCC_PeriphCLKInitTypeDef.
 122:E:/LiteOS/LiteOS_Lab/drivers/third_party/ST/STM32L4xx_HAL_Driver/Src\stm32l4xx_hal_rcc_ex.c ****   * @param  PeriphClkInit  pointer to an RCC_PeriphCLKInitTypeDef structure that
 123:E:/LiteOS/LiteOS_Lab/drivers/third_party/ST/STM32L4xx_HAL_Driver/Src\stm32l4xx_hal_rcc_ex.c ****   *         contains a field PeriphClockSelection which can be a combination of the following value
 124:E:/LiteOS/LiteOS_Lab/drivers/third_party/ST/STM32L4xx_HAL_Driver/Src\stm32l4xx_hal_rcc_ex.c ****   *            @arg @ref RCC_PERIPHCLK_RTC  RTC peripheral clock
 125:E:/LiteOS/LiteOS_Lab/drivers/third_party/ST/STM32L4xx_HAL_Driver/Src\stm32l4xx_hal_rcc_ex.c ****   *            @arg @ref RCC_PERIPHCLK_ADC  ADC peripheral clock
 126:E:/LiteOS/LiteOS_Lab/drivers/third_party/ST/STM32L4xx_HAL_Driver/Src\stm32l4xx_hal_rcc_ex.c ****   @if STM32L462xx
 127:E:/LiteOS/LiteOS_Lab/drivers/third_party/ST/STM32L4xx_HAL_Driver/Src\stm32l4xx_hal_rcc_ex.c ****   *            @arg @ref RCC_PERIPHCLK_DFSDM1  DFSDM1 peripheral clock (only for devices with DFSDM
 128:E:/LiteOS/LiteOS_Lab/drivers/third_party/ST/STM32L4xx_HAL_Driver/Src\stm32l4xx_hal_rcc_ex.c ****   @endif
 129:E:/LiteOS/LiteOS_Lab/drivers/third_party/ST/STM32L4xx_HAL_Driver/Src\stm32l4xx_hal_rcc_ex.c ****   @if STM32L486xx
 130:E:/LiteOS/LiteOS_Lab/drivers/third_party/ST/STM32L4xx_HAL_Driver/Src\stm32l4xx_hal_rcc_ex.c ****   *            @arg @ref RCC_PERIPHCLK_DFSDM1  DFSDM1 peripheral clock (only for devices with DFSDM
 131:E:/LiteOS/LiteOS_Lab/drivers/third_party/ST/STM32L4xx_HAL_Driver/Src\stm32l4xx_hal_rcc_ex.c ****   @endif
 132:E:/LiteOS/LiteOS_Lab/drivers/third_party/ST/STM32L4xx_HAL_Driver/Src\stm32l4xx_hal_rcc_ex.c ****   @if STM32L4A6xx
 133:E:/LiteOS/LiteOS_Lab/drivers/third_party/ST/STM32L4xx_HAL_Driver/Src\stm32l4xx_hal_rcc_ex.c ****   *            @arg @ref RCC_PERIPHCLK_DFSDM1  DFSDM1 peripheral clock (only for devices with DFSDM
 134:E:/LiteOS/LiteOS_Lab/drivers/third_party/ST/STM32L4xx_HAL_Driver/Src\stm32l4xx_hal_rcc_ex.c ****   @endif
 135:E:/LiteOS/LiteOS_Lab/drivers/third_party/ST/STM32L4xx_HAL_Driver/Src\stm32l4xx_hal_rcc_ex.c ****   *            @arg @ref RCC_PERIPHCLK_I2C1  I2C1 peripheral clock
 136:E:/LiteOS/LiteOS_Lab/drivers/third_party/ST/STM32L4xx_HAL_Driver/Src\stm32l4xx_hal_rcc_ex.c ****   *            @arg @ref RCC_PERIPHCLK_I2C2  I2C2 peripheral clock
 137:E:/LiteOS/LiteOS_Lab/drivers/third_party/ST/STM32L4xx_HAL_Driver/Src\stm32l4xx_hal_rcc_ex.c ****   *            @arg @ref RCC_PERIPHCLK_I2C3  I2C3 peripheral clock
 138:E:/LiteOS/LiteOS_Lab/drivers/third_party/ST/STM32L4xx_HAL_Driver/Src\stm32l4xx_hal_rcc_ex.c ****   @if STM32L462xx
 139:E:/LiteOS/LiteOS_Lab/drivers/third_party/ST/STM32L4xx_HAL_Driver/Src\stm32l4xx_hal_rcc_ex.c ****   *            @arg @ref RCC_PERIPHCLK_I2C4  I2C4 peripheral clock (only for devices with I2C4)
 140:E:/LiteOS/LiteOS_Lab/drivers/third_party/ST/STM32L4xx_HAL_Driver/Src\stm32l4xx_hal_rcc_ex.c ****   @endif
 141:E:/LiteOS/LiteOS_Lab/drivers/third_party/ST/STM32L4xx_HAL_Driver/Src\stm32l4xx_hal_rcc_ex.c ****   @if STM32L4A6xx
 142:E:/LiteOS/LiteOS_Lab/drivers/third_party/ST/STM32L4xx_HAL_Driver/Src\stm32l4xx_hal_rcc_ex.c ****   *            @arg @ref RCC_PERIPHCLK_I2C4  I2C4 peripheral clock (only for devices with I2C4)
 143:E:/LiteOS/LiteOS_Lab/drivers/third_party/ST/STM32L4xx_HAL_Driver/Src\stm32l4xx_hal_rcc_ex.c ****   @endif
 144:E:/LiteOS/LiteOS_Lab/drivers/third_party/ST/STM32L4xx_HAL_Driver/Src\stm32l4xx_hal_rcc_ex.c ****   @if STM32L4S9xx
 145:E:/LiteOS/LiteOS_Lab/drivers/third_party/ST/STM32L4xx_HAL_Driver/Src\stm32l4xx_hal_rcc_ex.c ****   *            @arg @ref RCC_PERIPHCLK_I2C4  I2C4 peripheral clock (only for devices with I2C4)
ARM GAS  C:\Users\user\AppData\Local\Temp\ccsJwa9Q.s 			page 4


 146:E:/LiteOS/LiteOS_Lab/drivers/third_party/ST/STM32L4xx_HAL_Driver/Src\stm32l4xx_hal_rcc_ex.c ****   @endif
 147:E:/LiteOS/LiteOS_Lab/drivers/third_party/ST/STM32L4xx_HAL_Driver/Src\stm32l4xx_hal_rcc_ex.c ****   *            @arg @ref RCC_PERIPHCLK_LPTIM1  LPTIM1 peripheral clock
 148:E:/LiteOS/LiteOS_Lab/drivers/third_party/ST/STM32L4xx_HAL_Driver/Src\stm32l4xx_hal_rcc_ex.c ****   *            @arg @ref RCC_PERIPHCLK_LPTIM2  LPTIM2 peripheral clock
 149:E:/LiteOS/LiteOS_Lab/drivers/third_party/ST/STM32L4xx_HAL_Driver/Src\stm32l4xx_hal_rcc_ex.c ****   *            @arg @ref RCC_PERIPHCLK_LPUART1  LPUART1 peripheral clock
 150:E:/LiteOS/LiteOS_Lab/drivers/third_party/ST/STM32L4xx_HAL_Driver/Src\stm32l4xx_hal_rcc_ex.c ****   *            @arg @ref RCC_PERIPHCLK_RNG  RNG peripheral clock
 151:E:/LiteOS/LiteOS_Lab/drivers/third_party/ST/STM32L4xx_HAL_Driver/Src\stm32l4xx_hal_rcc_ex.c ****   *            @arg @ref RCC_PERIPHCLK_SAI1  SAI1 peripheral clock
 152:E:/LiteOS/LiteOS_Lab/drivers/third_party/ST/STM32L4xx_HAL_Driver/Src\stm32l4xx_hal_rcc_ex.c ****   @if STM32L486xx
 153:E:/LiteOS/LiteOS_Lab/drivers/third_party/ST/STM32L4xx_HAL_Driver/Src\stm32l4xx_hal_rcc_ex.c ****   *            @arg @ref RCC_PERIPHCLK_SAI2  SAI2 peripheral clock (only for devices with SAI2)
 154:E:/LiteOS/LiteOS_Lab/drivers/third_party/ST/STM32L4xx_HAL_Driver/Src\stm32l4xx_hal_rcc_ex.c ****   @endif
 155:E:/LiteOS/LiteOS_Lab/drivers/third_party/ST/STM32L4xx_HAL_Driver/Src\stm32l4xx_hal_rcc_ex.c ****   @if STM32L4A6xx
 156:E:/LiteOS/LiteOS_Lab/drivers/third_party/ST/STM32L4xx_HAL_Driver/Src\stm32l4xx_hal_rcc_ex.c ****   *            @arg @ref RCC_PERIPHCLK_SAI2  SAI2 peripheral clock (only for devices with SAI2)
 157:E:/LiteOS/LiteOS_Lab/drivers/third_party/ST/STM32L4xx_HAL_Driver/Src\stm32l4xx_hal_rcc_ex.c ****   @endif
 158:E:/LiteOS/LiteOS_Lab/drivers/third_party/ST/STM32L4xx_HAL_Driver/Src\stm32l4xx_hal_rcc_ex.c ****   @if STM32L4S9xx
 159:E:/LiteOS/LiteOS_Lab/drivers/third_party/ST/STM32L4xx_HAL_Driver/Src\stm32l4xx_hal_rcc_ex.c ****   *            @arg @ref RCC_PERIPHCLK_SAI2  SAI2 peripheral clock (only for devices with SAI2)
 160:E:/LiteOS/LiteOS_Lab/drivers/third_party/ST/STM32L4xx_HAL_Driver/Src\stm32l4xx_hal_rcc_ex.c ****   @endif
 161:E:/LiteOS/LiteOS_Lab/drivers/third_party/ST/STM32L4xx_HAL_Driver/Src\stm32l4xx_hal_rcc_ex.c ****   *            @arg @ref RCC_PERIPHCLK_SDMMC1  SDMMC1 peripheral clock
 162:E:/LiteOS/LiteOS_Lab/drivers/third_party/ST/STM32L4xx_HAL_Driver/Src\stm32l4xx_hal_rcc_ex.c ****   @if STM32L443xx
 163:E:/LiteOS/LiteOS_Lab/drivers/third_party/ST/STM32L4xx_HAL_Driver/Src\stm32l4xx_hal_rcc_ex.c ****   *            @arg @ref RCC_PERIPHCLK_SWPMI1  SWPMI1 peripheral clock (only for devices with SWPMI
 164:E:/LiteOS/LiteOS_Lab/drivers/third_party/ST/STM32L4xx_HAL_Driver/Src\stm32l4xx_hal_rcc_ex.c ****   @endif
 165:E:/LiteOS/LiteOS_Lab/drivers/third_party/ST/STM32L4xx_HAL_Driver/Src\stm32l4xx_hal_rcc_ex.c ****   @if STM32L486xx
 166:E:/LiteOS/LiteOS_Lab/drivers/third_party/ST/STM32L4xx_HAL_Driver/Src\stm32l4xx_hal_rcc_ex.c ****   *            @arg @ref RCC_PERIPHCLK_SWPMI1  SWPMI1 peripheral clock (only for devices with SWPMI
 167:E:/LiteOS/LiteOS_Lab/drivers/third_party/ST/STM32L4xx_HAL_Driver/Src\stm32l4xx_hal_rcc_ex.c ****   @endif
 168:E:/LiteOS/LiteOS_Lab/drivers/third_party/ST/STM32L4xx_HAL_Driver/Src\stm32l4xx_hal_rcc_ex.c ****   @if STM32L4A6xx
 169:E:/LiteOS/LiteOS_Lab/drivers/third_party/ST/STM32L4xx_HAL_Driver/Src\stm32l4xx_hal_rcc_ex.c ****   *            @arg @ref RCC_PERIPHCLK_SWPMI1  SWPMI1 peripheral clock (only for devices with SWPMI
 170:E:/LiteOS/LiteOS_Lab/drivers/third_party/ST/STM32L4xx_HAL_Driver/Src\stm32l4xx_hal_rcc_ex.c ****   @endif
 171:E:/LiteOS/LiteOS_Lab/drivers/third_party/ST/STM32L4xx_HAL_Driver/Src\stm32l4xx_hal_rcc_ex.c ****   *            @arg @ref RCC_PERIPHCLK_USART1  USART1 peripheral clock
 172:E:/LiteOS/LiteOS_Lab/drivers/third_party/ST/STM32L4xx_HAL_Driver/Src\stm32l4xx_hal_rcc_ex.c ****   *            @arg @ref RCC_PERIPHCLK_USART2  USART1 peripheral clock
 173:E:/LiteOS/LiteOS_Lab/drivers/third_party/ST/STM32L4xx_HAL_Driver/Src\stm32l4xx_hal_rcc_ex.c ****   *            @arg @ref RCC_PERIPHCLK_USART3  USART1 peripheral clock
 174:E:/LiteOS/LiteOS_Lab/drivers/third_party/ST/STM32L4xx_HAL_Driver/Src\stm32l4xx_hal_rcc_ex.c ****   @if STM32L462xx
 175:E:/LiteOS/LiteOS_Lab/drivers/third_party/ST/STM32L4xx_HAL_Driver/Src\stm32l4xx_hal_rcc_ex.c ****   *            @arg @ref RCC_PERIPHCLK_UART4  USART1 peripheral clock (only for devices with UART4)
 176:E:/LiteOS/LiteOS_Lab/drivers/third_party/ST/STM32L4xx_HAL_Driver/Src\stm32l4xx_hal_rcc_ex.c ****   @endif
 177:E:/LiteOS/LiteOS_Lab/drivers/third_party/ST/STM32L4xx_HAL_Driver/Src\stm32l4xx_hal_rcc_ex.c ****   @if STM32L486xx
 178:E:/LiteOS/LiteOS_Lab/drivers/third_party/ST/STM32L4xx_HAL_Driver/Src\stm32l4xx_hal_rcc_ex.c ****   *            @arg @ref RCC_PERIPHCLK_UART4  USART1 peripheral clock (only for devices with UART4)
 179:E:/LiteOS/LiteOS_Lab/drivers/third_party/ST/STM32L4xx_HAL_Driver/Src\stm32l4xx_hal_rcc_ex.c ****   *            @arg @ref RCC_PERIPHCLK_UART5  USART1 peripheral clock (only for devices with UART5)
 180:E:/LiteOS/LiteOS_Lab/drivers/third_party/ST/STM32L4xx_HAL_Driver/Src\stm32l4xx_hal_rcc_ex.c ****   *            @arg @ref RCC_PERIPHCLK_USB  USB peripheral clock (only for devices with USB)
 181:E:/LiteOS/LiteOS_Lab/drivers/third_party/ST/STM32L4xx_HAL_Driver/Src\stm32l4xx_hal_rcc_ex.c ****   @endif
 182:E:/LiteOS/LiteOS_Lab/drivers/third_party/ST/STM32L4xx_HAL_Driver/Src\stm32l4xx_hal_rcc_ex.c ****   @if STM32L4A6xx
 183:E:/LiteOS/LiteOS_Lab/drivers/third_party/ST/STM32L4xx_HAL_Driver/Src\stm32l4xx_hal_rcc_ex.c ****   *            @arg @ref RCC_PERIPHCLK_UART4  USART1 peripheral clock (only for devices with UART4)
 184:E:/LiteOS/LiteOS_Lab/drivers/third_party/ST/STM32L4xx_HAL_Driver/Src\stm32l4xx_hal_rcc_ex.c ****   *            @arg @ref RCC_PERIPHCLK_UART5  USART1 peripheral clock (only for devices with UART5)
 185:E:/LiteOS/LiteOS_Lab/drivers/third_party/ST/STM32L4xx_HAL_Driver/Src\stm32l4xx_hal_rcc_ex.c ****   *            @arg @ref RCC_PERIPHCLK_USB  USB peripheral clock (only for devices with USB)
 186:E:/LiteOS/LiteOS_Lab/drivers/third_party/ST/STM32L4xx_HAL_Driver/Src\stm32l4xx_hal_rcc_ex.c ****   @endif
 187:E:/LiteOS/LiteOS_Lab/drivers/third_party/ST/STM32L4xx_HAL_Driver/Src\stm32l4xx_hal_rcc_ex.c ****   @if STM32L4S9xx
 188:E:/LiteOS/LiteOS_Lab/drivers/third_party/ST/STM32L4xx_HAL_Driver/Src\stm32l4xx_hal_rcc_ex.c ****   *            @arg @ref RCC_PERIPHCLK_UART4  USART1 peripheral clock (only for devices with UART4)
 189:E:/LiteOS/LiteOS_Lab/drivers/third_party/ST/STM32L4xx_HAL_Driver/Src\stm32l4xx_hal_rcc_ex.c ****   *            @arg @ref RCC_PERIPHCLK_UART5  USART1 peripheral clock (only for devices with UART5)
 190:E:/LiteOS/LiteOS_Lab/drivers/third_party/ST/STM32L4xx_HAL_Driver/Src\stm32l4xx_hal_rcc_ex.c ****   *            @arg @ref RCC_PERIPHCLK_USB  USB peripheral clock (only for devices with USB)
 191:E:/LiteOS/LiteOS_Lab/drivers/third_party/ST/STM32L4xx_HAL_Driver/Src\stm32l4xx_hal_rcc_ex.c ****   *            @arg @ref RCC_PERIPHCLK_DFSDM1  DFSDM1 peripheral kernel clock (only for devices wit
 192:E:/LiteOS/LiteOS_Lab/drivers/third_party/ST/STM32L4xx_HAL_Driver/Src\stm32l4xx_hal_rcc_ex.c ****   *            @arg @ref RCC_PERIPHCLK_DFSDM1AUDIO  DFSDM1 peripheral audio clock (only for devices
 193:E:/LiteOS/LiteOS_Lab/drivers/third_party/ST/STM32L4xx_HAL_Driver/Src\stm32l4xx_hal_rcc_ex.c ****   *            @arg @ref RCC_PERIPHCLK_LTDC  LTDC peripheral clock (only for devices with LTDC)
 194:E:/LiteOS/LiteOS_Lab/drivers/third_party/ST/STM32L4xx_HAL_Driver/Src\stm32l4xx_hal_rcc_ex.c ****   *            @arg @ref RCC_PERIPHCLK_DSI  DSI peripheral clock (only for devices with DSI)
 195:E:/LiteOS/LiteOS_Lab/drivers/third_party/ST/STM32L4xx_HAL_Driver/Src\stm32l4xx_hal_rcc_ex.c ****   *            @arg @ref RCC_PERIPHCLK_OSPI  OctoSPI peripheral clock (only for devices with OctoSP
 196:E:/LiteOS/LiteOS_Lab/drivers/third_party/ST/STM32L4xx_HAL_Driver/Src\stm32l4xx_hal_rcc_ex.c ****   @endif
 197:E:/LiteOS/LiteOS_Lab/drivers/third_party/ST/STM32L4xx_HAL_Driver/Src\stm32l4xx_hal_rcc_ex.c ****   *
 198:E:/LiteOS/LiteOS_Lab/drivers/third_party/ST/STM32L4xx_HAL_Driver/Src\stm32l4xx_hal_rcc_ex.c ****   * @note   Care must be taken when HAL_RCCEx_PeriphCLKConfig() is used to select
 199:E:/LiteOS/LiteOS_Lab/drivers/third_party/ST/STM32L4xx_HAL_Driver/Src\stm32l4xx_hal_rcc_ex.c ****   *         the RTC clock source: in this case the access to Backup domain is enabled.
 200:E:/LiteOS/LiteOS_Lab/drivers/third_party/ST/STM32L4xx_HAL_Driver/Src\stm32l4xx_hal_rcc_ex.c ****   *
 201:E:/LiteOS/LiteOS_Lab/drivers/third_party/ST/STM32L4xx_HAL_Driver/Src\stm32l4xx_hal_rcc_ex.c ****   * @retval HAL status
 202:E:/LiteOS/LiteOS_Lab/drivers/third_party/ST/STM32L4xx_HAL_Driver/Src\stm32l4xx_hal_rcc_ex.c ****   */
ARM GAS  C:\Users\user\AppData\Local\Temp\ccsJwa9Q.s 			page 5


 203:E:/LiteOS/LiteOS_Lab/drivers/third_party/ST/STM32L4xx_HAL_Driver/Src\stm32l4xx_hal_rcc_ex.c **** HAL_StatusTypeDef HAL_RCCEx_PeriphCLKConfig(RCC_PeriphCLKInitTypeDef  *PeriphClkInit)
 204:E:/LiteOS/LiteOS_Lab/drivers/third_party/ST/STM32L4xx_HAL_Driver/Src\stm32l4xx_hal_rcc_ex.c **** {
  28              		.loc 1 204 0
  29              		.cfi_startproc
  30              		@ args = 0, pretend = 0, frame = 24
  31              		@ frame_needed = 1, uses_anonymous_args = 0
  32 0000 80B5     		push	{r7, lr}
  33              	.LCFI0:
  34              		.cfi_def_cfa_offset 8
  35              		.cfi_offset 7, -8
  36              		.cfi_offset 14, -4
  37 0002 86B0     		sub	sp, sp, #24
  38              	.LCFI1:
  39              		.cfi_def_cfa_offset 32
  40 0004 00AF     		add	r7, sp, #0
  41              	.LCFI2:
  42              		.cfi_def_cfa_register 7
  43 0006 7860     		str	r0, [r7, #4]
 205:E:/LiteOS/LiteOS_Lab/drivers/third_party/ST/STM32L4xx_HAL_Driver/Src\stm32l4xx_hal_rcc_ex.c ****   uint32_t tmpregister = 0;
  44              		.loc 1 205 0
  45 0008 0023     		movs	r3, #0
  46 000a 7B61     		str	r3, [r7, #20]
 206:E:/LiteOS/LiteOS_Lab/drivers/third_party/ST/STM32L4xx_HAL_Driver/Src\stm32l4xx_hal_rcc_ex.c ****   uint32_t tickstart = 0U;
  47              		.loc 1 206 0
  48 000c 0023     		movs	r3, #0
  49 000e FB60     		str	r3, [r7, #12]
 207:E:/LiteOS/LiteOS_Lab/drivers/third_party/ST/STM32L4xx_HAL_Driver/Src\stm32l4xx_hal_rcc_ex.c ****   HAL_StatusTypeDef ret = HAL_OK;      /* Intermediate status */
  50              		.loc 1 207 0
  51 0010 0023     		movs	r3, #0
  52 0012 FB74     		strb	r3, [r7, #19]
 208:E:/LiteOS/LiteOS_Lab/drivers/third_party/ST/STM32L4xx_HAL_Driver/Src\stm32l4xx_hal_rcc_ex.c ****   HAL_StatusTypeDef status = HAL_OK;   /* Final status */
  53              		.loc 1 208 0
  54 0014 0023     		movs	r3, #0
  55 0016 BB74     		strb	r3, [r7, #18]
 209:E:/LiteOS/LiteOS_Lab/drivers/third_party/ST/STM32L4xx_HAL_Driver/Src\stm32l4xx_hal_rcc_ex.c **** 
 210:E:/LiteOS/LiteOS_Lab/drivers/third_party/ST/STM32L4xx_HAL_Driver/Src\stm32l4xx_hal_rcc_ex.c ****   /* Check the parameters */
 211:E:/LiteOS/LiteOS_Lab/drivers/third_party/ST/STM32L4xx_HAL_Driver/Src\stm32l4xx_hal_rcc_ex.c ****   assert_param(IS_RCC_PERIPHCLOCK(PeriphClkInit->PeriphClockSelection));
 212:E:/LiteOS/LiteOS_Lab/drivers/third_party/ST/STM32L4xx_HAL_Driver/Src\stm32l4xx_hal_rcc_ex.c **** 
 213:E:/LiteOS/LiteOS_Lab/drivers/third_party/ST/STM32L4xx_HAL_Driver/Src\stm32l4xx_hal_rcc_ex.c ****   /*-------------------------- SAI1 clock source configuration ---------------------*/
 214:E:/LiteOS/LiteOS_Lab/drivers/third_party/ST/STM32L4xx_HAL_Driver/Src\stm32l4xx_hal_rcc_ex.c ****   if((((PeriphClkInit->PeriphClockSelection) & RCC_PERIPHCLK_SAI1) == RCC_PERIPHCLK_SAI1))
  56              		.loc 1 214 0
  57 0018 7B68     		ldr	r3, [r7, #4]
  58 001a 1B68     		ldr	r3, [r3]
  59 001c 03F40063 		and	r3, r3, #2048
  60 0020 002B     		cmp	r3, #0
  61 0022 2FD0     		beq	.L2
 215:E:/LiteOS/LiteOS_Lab/drivers/third_party/ST/STM32L4xx_HAL_Driver/Src\stm32l4xx_hal_rcc_ex.c ****   {
 216:E:/LiteOS/LiteOS_Lab/drivers/third_party/ST/STM32L4xx_HAL_Driver/Src\stm32l4xx_hal_rcc_ex.c ****     /* Check the parameters */
 217:E:/LiteOS/LiteOS_Lab/drivers/third_party/ST/STM32L4xx_HAL_Driver/Src\stm32l4xx_hal_rcc_ex.c ****     assert_param(IS_RCC_SAI1CLK(PeriphClkInit->Sai1ClockSelection));
 218:E:/LiteOS/LiteOS_Lab/drivers/third_party/ST/STM32L4xx_HAL_Driver/Src\stm32l4xx_hal_rcc_ex.c **** 
 219:E:/LiteOS/LiteOS_Lab/drivers/third_party/ST/STM32L4xx_HAL_Driver/Src\stm32l4xx_hal_rcc_ex.c ****     switch(PeriphClkInit->Sai1ClockSelection)
  62              		.loc 1 219 0
  63 0024 7B68     		ldr	r3, [r7, #4]
  64 0026 5B6C     		ldr	r3, [r3, #68]
  65 0028 B3F5000F 		cmp	r3, #8388608
  66 002c 05D0     		beq	.L4
  67 002e B3F5400F 		cmp	r3, #12582912
ARM GAS  C:\Users\user\AppData\Local\Temp\ccsJwa9Q.s 			page 6


  68 0032 15D0     		beq	.L39
  69 0034 002B     		cmp	r3, #0
  70 0036 07D0     		beq	.L6
  71 0038 0FE0     		b	.L38
  72              	.L4:
 220:E:/LiteOS/LiteOS_Lab/drivers/third_party/ST/STM32L4xx_HAL_Driver/Src\stm32l4xx_hal_rcc_ex.c ****     {
 221:E:/LiteOS/LiteOS_Lab/drivers/third_party/ST/STM32L4xx_HAL_Driver/Src\stm32l4xx_hal_rcc_ex.c ****     case RCC_SAI1CLKSOURCE_PLL:      /* PLL is used as clock source for SAI1*/
 222:E:/LiteOS/LiteOS_Lab/drivers/third_party/ST/STM32L4xx_HAL_Driver/Src\stm32l4xx_hal_rcc_ex.c ****       /* Enable SAI Clock output generated form System PLL . */
 223:E:/LiteOS/LiteOS_Lab/drivers/third_party/ST/STM32L4xx_HAL_Driver/Src\stm32l4xx_hal_rcc_ex.c **** #if defined(RCC_PLLSAI2_SUPPORT)
 224:E:/LiteOS/LiteOS_Lab/drivers/third_party/ST/STM32L4xx_HAL_Driver/Src\stm32l4xx_hal_rcc_ex.c ****       __HAL_RCC_PLLCLKOUT_ENABLE(RCC_PLL_SAI3CLK);
 225:E:/LiteOS/LiteOS_Lab/drivers/third_party/ST/STM32L4xx_HAL_Driver/Src\stm32l4xx_hal_rcc_ex.c **** #else
 226:E:/LiteOS/LiteOS_Lab/drivers/third_party/ST/STM32L4xx_HAL_Driver/Src\stm32l4xx_hal_rcc_ex.c ****       __HAL_RCC_PLLCLKOUT_ENABLE(RCC_PLL_SAI2CLK);
  73              		.loc 1 226 0
  74 003a 5A4B     		ldr	r3, .L40
  75 003c DB68     		ldr	r3, [r3, #12]
  76 003e 594A     		ldr	r2, .L40
  77 0040 43F48033 		orr	r3, r3, #65536
  78 0044 D360     		str	r3, [r2, #12]
 227:E:/LiteOS/LiteOS_Lab/drivers/third_party/ST/STM32L4xx_HAL_Driver/Src\stm32l4xx_hal_rcc_ex.c **** #endif /* RCC_PLLSAI2_SUPPORT */
 228:E:/LiteOS/LiteOS_Lab/drivers/third_party/ST/STM32L4xx_HAL_Driver/Src\stm32l4xx_hal_rcc_ex.c ****       /* SAI1 clock source config set later after clock selection check */
 229:E:/LiteOS/LiteOS_Lab/drivers/third_party/ST/STM32L4xx_HAL_Driver/Src\stm32l4xx_hal_rcc_ex.c ****       break;
  79              		.loc 1 229 0
  80 0046 0CE0     		b	.L7
  81              	.L6:
 230:E:/LiteOS/LiteOS_Lab/drivers/third_party/ST/STM32L4xx_HAL_Driver/Src\stm32l4xx_hal_rcc_ex.c **** 
 231:E:/LiteOS/LiteOS_Lab/drivers/third_party/ST/STM32L4xx_HAL_Driver/Src\stm32l4xx_hal_rcc_ex.c ****     case RCC_SAI1CLKSOURCE_PLLSAI1:  /* PLLSAI1 is used as clock source for SAI1*/
 232:E:/LiteOS/LiteOS_Lab/drivers/third_party/ST/STM32L4xx_HAL_Driver/Src\stm32l4xx_hal_rcc_ex.c ****       /* PLLSAI1 input clock, parameters M, N & P configuration and clock output (PLLSAI1ClockOut) 
 233:E:/LiteOS/LiteOS_Lab/drivers/third_party/ST/STM32L4xx_HAL_Driver/Src\stm32l4xx_hal_rcc_ex.c ****       ret = RCCEx_PLLSAI1_Config(&(PeriphClkInit->PLLSAI1), DIVIDER_P_UPDATE);
  82              		.loc 1 233 0
  83 0048 7B68     		ldr	r3, [r7, #4]
  84 004a 0433     		adds	r3, r3, #4
  85 004c 0021     		movs	r1, #0
  86 004e 1846     		mov	r0, r3
  87 0050 FFF7FEFF 		bl	RCCEx_PLLSAI1_Config
  88 0054 0346     		mov	r3, r0
  89 0056 FB74     		strb	r3, [r7, #19]
 234:E:/LiteOS/LiteOS_Lab/drivers/third_party/ST/STM32L4xx_HAL_Driver/Src\stm32l4xx_hal_rcc_ex.c ****       /* SAI1 clock source config set later after clock selection check */
 235:E:/LiteOS/LiteOS_Lab/drivers/third_party/ST/STM32L4xx_HAL_Driver/Src\stm32l4xx_hal_rcc_ex.c ****       break;
  90              		.loc 1 235 0
  91 0058 03E0     		b	.L7
  92              	.L38:
 236:E:/LiteOS/LiteOS_Lab/drivers/third_party/ST/STM32L4xx_HAL_Driver/Src\stm32l4xx_hal_rcc_ex.c **** 
 237:E:/LiteOS/LiteOS_Lab/drivers/third_party/ST/STM32L4xx_HAL_Driver/Src\stm32l4xx_hal_rcc_ex.c **** #if defined(RCC_PLLSAI2_SUPPORT)
 238:E:/LiteOS/LiteOS_Lab/drivers/third_party/ST/STM32L4xx_HAL_Driver/Src\stm32l4xx_hal_rcc_ex.c **** 
 239:E:/LiteOS/LiteOS_Lab/drivers/third_party/ST/STM32L4xx_HAL_Driver/Src\stm32l4xx_hal_rcc_ex.c ****     case RCC_SAI1CLKSOURCE_PLLSAI2:  /* PLLSAI2 is used as clock source for SAI1*/
 240:E:/LiteOS/LiteOS_Lab/drivers/third_party/ST/STM32L4xx_HAL_Driver/Src\stm32l4xx_hal_rcc_ex.c ****       /* PLLSAI2 input clock, parameters M, N & P configuration clock output (PLLSAI2ClockOut) */
 241:E:/LiteOS/LiteOS_Lab/drivers/third_party/ST/STM32L4xx_HAL_Driver/Src\stm32l4xx_hal_rcc_ex.c ****       ret = RCCEx_PLLSAI2_Config(&(PeriphClkInit->PLLSAI2), DIVIDER_P_UPDATE);
 242:E:/LiteOS/LiteOS_Lab/drivers/third_party/ST/STM32L4xx_HAL_Driver/Src\stm32l4xx_hal_rcc_ex.c ****       /* SAI1 clock source config set later after clock selection check */
 243:E:/LiteOS/LiteOS_Lab/drivers/third_party/ST/STM32L4xx_HAL_Driver/Src\stm32l4xx_hal_rcc_ex.c ****       break;
 244:E:/LiteOS/LiteOS_Lab/drivers/third_party/ST/STM32L4xx_HAL_Driver/Src\stm32l4xx_hal_rcc_ex.c **** 
 245:E:/LiteOS/LiteOS_Lab/drivers/third_party/ST/STM32L4xx_HAL_Driver/Src\stm32l4xx_hal_rcc_ex.c **** #endif /* RCC_PLLSAI2_SUPPORT */
 246:E:/LiteOS/LiteOS_Lab/drivers/third_party/ST/STM32L4xx_HAL_Driver/Src\stm32l4xx_hal_rcc_ex.c **** 
 247:E:/LiteOS/LiteOS_Lab/drivers/third_party/ST/STM32L4xx_HAL_Driver/Src\stm32l4xx_hal_rcc_ex.c ****     case RCC_SAI1CLKSOURCE_PIN:      /* External clock is used as source of SAI1 clock*/
 248:E:/LiteOS/LiteOS_Lab/drivers/third_party/ST/STM32L4xx_HAL_Driver/Src\stm32l4xx_hal_rcc_ex.c **** #if defined(STM32L4R5xx) || defined(STM32L4R7xx) || defined(STM32L4R9xx) || defined(STM32L4S5xx) ||
 249:E:/LiteOS/LiteOS_Lab/drivers/third_party/ST/STM32L4xx_HAL_Driver/Src\stm32l4xx_hal_rcc_ex.c ****     case RCC_SAI1CLKSOURCE_HSI:      /* HSI is used as source of SAI1 clock*/
 250:E:/LiteOS/LiteOS_Lab/drivers/third_party/ST/STM32L4xx_HAL_Driver/Src\stm32l4xx_hal_rcc_ex.c **** #endif /* STM32L4R5xx || STM32L4R7xx || STM32L4R9xx || STM32L4S5xx || STM32L4S7xx || STM32L4S9xx */
 251:E:/LiteOS/LiteOS_Lab/drivers/third_party/ST/STM32L4xx_HAL_Driver/Src\stm32l4xx_hal_rcc_ex.c ****       /* SAI1 clock source config set later after clock selection check */
ARM GAS  C:\Users\user\AppData\Local\Temp\ccsJwa9Q.s 			page 7


 252:E:/LiteOS/LiteOS_Lab/drivers/third_party/ST/STM32L4xx_HAL_Driver/Src\stm32l4xx_hal_rcc_ex.c ****       break;
 253:E:/LiteOS/LiteOS_Lab/drivers/third_party/ST/STM32L4xx_HAL_Driver/Src\stm32l4xx_hal_rcc_ex.c **** 
 254:E:/LiteOS/LiteOS_Lab/drivers/third_party/ST/STM32L4xx_HAL_Driver/Src\stm32l4xx_hal_rcc_ex.c ****     default:
 255:E:/LiteOS/LiteOS_Lab/drivers/third_party/ST/STM32L4xx_HAL_Driver/Src\stm32l4xx_hal_rcc_ex.c ****       ret = HAL_ERROR;
  93              		.loc 1 255 0
  94 005a 0123     		movs	r3, #1
  95 005c FB74     		strb	r3, [r7, #19]
 256:E:/LiteOS/LiteOS_Lab/drivers/third_party/ST/STM32L4xx_HAL_Driver/Src\stm32l4xx_hal_rcc_ex.c ****       break;
  96              		.loc 1 256 0
  97 005e 00E0     		b	.L7
  98              	.L39:
 252:E:/LiteOS/LiteOS_Lab/drivers/third_party/ST/STM32L4xx_HAL_Driver/Src\stm32l4xx_hal_rcc_ex.c **** 
  99              		.loc 1 252 0
 100 0060 00BF     		nop
 101              	.L7:
 257:E:/LiteOS/LiteOS_Lab/drivers/third_party/ST/STM32L4xx_HAL_Driver/Src\stm32l4xx_hal_rcc_ex.c ****     }
 258:E:/LiteOS/LiteOS_Lab/drivers/third_party/ST/STM32L4xx_HAL_Driver/Src\stm32l4xx_hal_rcc_ex.c **** 
 259:E:/LiteOS/LiteOS_Lab/drivers/third_party/ST/STM32L4xx_HAL_Driver/Src\stm32l4xx_hal_rcc_ex.c ****     if(ret == HAL_OK)
 102              		.loc 1 259 0
 103 0062 FB7C     		ldrb	r3, [r7, #19]	@ zero_extendqisi2
 104 0064 002B     		cmp	r3, #0
 105 0066 0BD1     		bne	.L8
 260:E:/LiteOS/LiteOS_Lab/drivers/third_party/ST/STM32L4xx_HAL_Driver/Src\stm32l4xx_hal_rcc_ex.c ****     {
 261:E:/LiteOS/LiteOS_Lab/drivers/third_party/ST/STM32L4xx_HAL_Driver/Src\stm32l4xx_hal_rcc_ex.c ****       /* Set the source of SAI1 clock*/
 262:E:/LiteOS/LiteOS_Lab/drivers/third_party/ST/STM32L4xx_HAL_Driver/Src\stm32l4xx_hal_rcc_ex.c ****       __HAL_RCC_SAI1_CONFIG(PeriphClkInit->Sai1ClockSelection);
 106              		.loc 1 262 0
 107 0068 4E4B     		ldr	r3, .L40
 108 006a D3F88830 		ldr	r3, [r3, #136]
 109 006e 23F44002 		bic	r2, r3, #12582912
 110 0072 7B68     		ldr	r3, [r7, #4]
 111 0074 5B6C     		ldr	r3, [r3, #68]
 112 0076 4B49     		ldr	r1, .L40
 113 0078 1343     		orrs	r3, r3, r2
 114 007a C1F88830 		str	r3, [r1, #136]
 115 007e 01E0     		b	.L2
 116              	.L8:
 263:E:/LiteOS/LiteOS_Lab/drivers/third_party/ST/STM32L4xx_HAL_Driver/Src\stm32l4xx_hal_rcc_ex.c ****     }
 264:E:/LiteOS/LiteOS_Lab/drivers/third_party/ST/STM32L4xx_HAL_Driver/Src\stm32l4xx_hal_rcc_ex.c ****     else
 265:E:/LiteOS/LiteOS_Lab/drivers/third_party/ST/STM32L4xx_HAL_Driver/Src\stm32l4xx_hal_rcc_ex.c ****     {
 266:E:/LiteOS/LiteOS_Lab/drivers/third_party/ST/STM32L4xx_HAL_Driver/Src\stm32l4xx_hal_rcc_ex.c ****       /* set overall return value */
 267:E:/LiteOS/LiteOS_Lab/drivers/third_party/ST/STM32L4xx_HAL_Driver/Src\stm32l4xx_hal_rcc_ex.c ****       status = ret;
 117              		.loc 1 267 0
 118 0080 FB7C     		ldrb	r3, [r7, #19]
 119 0082 BB74     		strb	r3, [r7, #18]
 120              	.L2:
 268:E:/LiteOS/LiteOS_Lab/drivers/third_party/ST/STM32L4xx_HAL_Driver/Src\stm32l4xx_hal_rcc_ex.c ****     }
 269:E:/LiteOS/LiteOS_Lab/drivers/third_party/ST/STM32L4xx_HAL_Driver/Src\stm32l4xx_hal_rcc_ex.c ****   }
 270:E:/LiteOS/LiteOS_Lab/drivers/third_party/ST/STM32L4xx_HAL_Driver/Src\stm32l4xx_hal_rcc_ex.c **** 
 271:E:/LiteOS/LiteOS_Lab/drivers/third_party/ST/STM32L4xx_HAL_Driver/Src\stm32l4xx_hal_rcc_ex.c **** #if defined(SAI2)
 272:E:/LiteOS/LiteOS_Lab/drivers/third_party/ST/STM32L4xx_HAL_Driver/Src\stm32l4xx_hal_rcc_ex.c **** 
 273:E:/LiteOS/LiteOS_Lab/drivers/third_party/ST/STM32L4xx_HAL_Driver/Src\stm32l4xx_hal_rcc_ex.c ****   /*-------------------------- SAI2 clock source configuration ---------------------*/
 274:E:/LiteOS/LiteOS_Lab/drivers/third_party/ST/STM32L4xx_HAL_Driver/Src\stm32l4xx_hal_rcc_ex.c ****   if((((PeriphClkInit->PeriphClockSelection) & RCC_PERIPHCLK_SAI2) == RCC_PERIPHCLK_SAI2))
 275:E:/LiteOS/LiteOS_Lab/drivers/third_party/ST/STM32L4xx_HAL_Driver/Src\stm32l4xx_hal_rcc_ex.c ****   {
 276:E:/LiteOS/LiteOS_Lab/drivers/third_party/ST/STM32L4xx_HAL_Driver/Src\stm32l4xx_hal_rcc_ex.c ****     /* Check the parameters */
 277:E:/LiteOS/LiteOS_Lab/drivers/third_party/ST/STM32L4xx_HAL_Driver/Src\stm32l4xx_hal_rcc_ex.c ****     assert_param(IS_RCC_SAI2CLK(PeriphClkInit->Sai2ClockSelection));
 278:E:/LiteOS/LiteOS_Lab/drivers/third_party/ST/STM32L4xx_HAL_Driver/Src\stm32l4xx_hal_rcc_ex.c **** 
 279:E:/LiteOS/LiteOS_Lab/drivers/third_party/ST/STM32L4xx_HAL_Driver/Src\stm32l4xx_hal_rcc_ex.c ****     switch(PeriphClkInit->Sai2ClockSelection)
ARM GAS  C:\Users\user\AppData\Local\Temp\ccsJwa9Q.s 			page 8


 280:E:/LiteOS/LiteOS_Lab/drivers/third_party/ST/STM32L4xx_HAL_Driver/Src\stm32l4xx_hal_rcc_ex.c ****     {
 281:E:/LiteOS/LiteOS_Lab/drivers/third_party/ST/STM32L4xx_HAL_Driver/Src\stm32l4xx_hal_rcc_ex.c ****     case RCC_SAI2CLKSOURCE_PLL:      /* PLL is used as clock source for SAI2*/
 282:E:/LiteOS/LiteOS_Lab/drivers/third_party/ST/STM32L4xx_HAL_Driver/Src\stm32l4xx_hal_rcc_ex.c ****       /* Enable SAI Clock output generated form System PLL . */
 283:E:/LiteOS/LiteOS_Lab/drivers/third_party/ST/STM32L4xx_HAL_Driver/Src\stm32l4xx_hal_rcc_ex.c ****       __HAL_RCC_PLLCLKOUT_ENABLE(RCC_PLL_SAI3CLK);
 284:E:/LiteOS/LiteOS_Lab/drivers/third_party/ST/STM32L4xx_HAL_Driver/Src\stm32l4xx_hal_rcc_ex.c ****       /* SAI2 clock source config set later after clock selection check */
 285:E:/LiteOS/LiteOS_Lab/drivers/third_party/ST/STM32L4xx_HAL_Driver/Src\stm32l4xx_hal_rcc_ex.c ****       break;
 286:E:/LiteOS/LiteOS_Lab/drivers/third_party/ST/STM32L4xx_HAL_Driver/Src\stm32l4xx_hal_rcc_ex.c **** 
 287:E:/LiteOS/LiteOS_Lab/drivers/third_party/ST/STM32L4xx_HAL_Driver/Src\stm32l4xx_hal_rcc_ex.c ****     case RCC_SAI2CLKSOURCE_PLLSAI1: /* PLLSAI1 is used as clock source for SAI2*/
 288:E:/LiteOS/LiteOS_Lab/drivers/third_party/ST/STM32L4xx_HAL_Driver/Src\stm32l4xx_hal_rcc_ex.c ****       /* PLLSAI1 input clock, parameters M, N & P configuration and clock output (PLLSAI1ClockOut) 
 289:E:/LiteOS/LiteOS_Lab/drivers/third_party/ST/STM32L4xx_HAL_Driver/Src\stm32l4xx_hal_rcc_ex.c ****       ret = RCCEx_PLLSAI1_Config(&(PeriphClkInit->PLLSAI1), DIVIDER_P_UPDATE);
 290:E:/LiteOS/LiteOS_Lab/drivers/third_party/ST/STM32L4xx_HAL_Driver/Src\stm32l4xx_hal_rcc_ex.c ****       /* SAI2 clock source config set later after clock selection check */
 291:E:/LiteOS/LiteOS_Lab/drivers/third_party/ST/STM32L4xx_HAL_Driver/Src\stm32l4xx_hal_rcc_ex.c ****       break;
 292:E:/LiteOS/LiteOS_Lab/drivers/third_party/ST/STM32L4xx_HAL_Driver/Src\stm32l4xx_hal_rcc_ex.c **** 
 293:E:/LiteOS/LiteOS_Lab/drivers/third_party/ST/STM32L4xx_HAL_Driver/Src\stm32l4xx_hal_rcc_ex.c ****     case RCC_SAI2CLKSOURCE_PLLSAI2:  /* PLLSAI2 is used as clock source for SAI2*/
 294:E:/LiteOS/LiteOS_Lab/drivers/third_party/ST/STM32L4xx_HAL_Driver/Src\stm32l4xx_hal_rcc_ex.c ****       /* PLLSAI2 input clock, parameters M, N & P configuration and clock output (PLLSAI2ClockOut) 
 295:E:/LiteOS/LiteOS_Lab/drivers/third_party/ST/STM32L4xx_HAL_Driver/Src\stm32l4xx_hal_rcc_ex.c ****       ret = RCCEx_PLLSAI2_Config(&(PeriphClkInit->PLLSAI2), DIVIDER_P_UPDATE);
 296:E:/LiteOS/LiteOS_Lab/drivers/third_party/ST/STM32L4xx_HAL_Driver/Src\stm32l4xx_hal_rcc_ex.c ****       /* SAI2 clock source config set later after clock selection check */
 297:E:/LiteOS/LiteOS_Lab/drivers/third_party/ST/STM32L4xx_HAL_Driver/Src\stm32l4xx_hal_rcc_ex.c ****       break;
 298:E:/LiteOS/LiteOS_Lab/drivers/third_party/ST/STM32L4xx_HAL_Driver/Src\stm32l4xx_hal_rcc_ex.c **** 
 299:E:/LiteOS/LiteOS_Lab/drivers/third_party/ST/STM32L4xx_HAL_Driver/Src\stm32l4xx_hal_rcc_ex.c ****     case RCC_SAI2CLKSOURCE_PIN:      /* External clock is used as source of SAI2 clock*/
 300:E:/LiteOS/LiteOS_Lab/drivers/third_party/ST/STM32L4xx_HAL_Driver/Src\stm32l4xx_hal_rcc_ex.c **** #if defined(STM32L4R5xx) || defined(STM32L4R7xx) || defined(STM32L4R9xx) || defined(STM32L4S5xx) ||
 301:E:/LiteOS/LiteOS_Lab/drivers/third_party/ST/STM32L4xx_HAL_Driver/Src\stm32l4xx_hal_rcc_ex.c ****     case RCC_SAI2CLKSOURCE_HSI:      /* HSI is used as source of SAI2 clock*/
 302:E:/LiteOS/LiteOS_Lab/drivers/third_party/ST/STM32L4xx_HAL_Driver/Src\stm32l4xx_hal_rcc_ex.c **** #endif /* STM32L4R5xx || STM32L4R7xx || STM32L4R9xx || STM32L4S5xx || STM32L4S7xx || STM32L4S9xx */
 303:E:/LiteOS/LiteOS_Lab/drivers/third_party/ST/STM32L4xx_HAL_Driver/Src\stm32l4xx_hal_rcc_ex.c ****       /* SAI2 clock source config set later after clock selection check */
 304:E:/LiteOS/LiteOS_Lab/drivers/third_party/ST/STM32L4xx_HAL_Driver/Src\stm32l4xx_hal_rcc_ex.c ****       break;
 305:E:/LiteOS/LiteOS_Lab/drivers/third_party/ST/STM32L4xx_HAL_Driver/Src\stm32l4xx_hal_rcc_ex.c **** 
 306:E:/LiteOS/LiteOS_Lab/drivers/third_party/ST/STM32L4xx_HAL_Driver/Src\stm32l4xx_hal_rcc_ex.c ****     default:
 307:E:/LiteOS/LiteOS_Lab/drivers/third_party/ST/STM32L4xx_HAL_Driver/Src\stm32l4xx_hal_rcc_ex.c ****       ret = HAL_ERROR;
 308:E:/LiteOS/LiteOS_Lab/drivers/third_party/ST/STM32L4xx_HAL_Driver/Src\stm32l4xx_hal_rcc_ex.c ****       break;
 309:E:/LiteOS/LiteOS_Lab/drivers/third_party/ST/STM32L4xx_HAL_Driver/Src\stm32l4xx_hal_rcc_ex.c ****     }
 310:E:/LiteOS/LiteOS_Lab/drivers/third_party/ST/STM32L4xx_HAL_Driver/Src\stm32l4xx_hal_rcc_ex.c **** 
 311:E:/LiteOS/LiteOS_Lab/drivers/third_party/ST/STM32L4xx_HAL_Driver/Src\stm32l4xx_hal_rcc_ex.c ****     if(ret == HAL_OK)
 312:E:/LiteOS/LiteOS_Lab/drivers/third_party/ST/STM32L4xx_HAL_Driver/Src\stm32l4xx_hal_rcc_ex.c ****     {
 313:E:/LiteOS/LiteOS_Lab/drivers/third_party/ST/STM32L4xx_HAL_Driver/Src\stm32l4xx_hal_rcc_ex.c ****       /* Set the source of SAI2 clock*/
 314:E:/LiteOS/LiteOS_Lab/drivers/third_party/ST/STM32L4xx_HAL_Driver/Src\stm32l4xx_hal_rcc_ex.c ****       __HAL_RCC_SAI2_CONFIG(PeriphClkInit->Sai2ClockSelection);
 315:E:/LiteOS/LiteOS_Lab/drivers/third_party/ST/STM32L4xx_HAL_Driver/Src\stm32l4xx_hal_rcc_ex.c ****     }
 316:E:/LiteOS/LiteOS_Lab/drivers/third_party/ST/STM32L4xx_HAL_Driver/Src\stm32l4xx_hal_rcc_ex.c ****     else
 317:E:/LiteOS/LiteOS_Lab/drivers/third_party/ST/STM32L4xx_HAL_Driver/Src\stm32l4xx_hal_rcc_ex.c ****     {
 318:E:/LiteOS/LiteOS_Lab/drivers/third_party/ST/STM32L4xx_HAL_Driver/Src\stm32l4xx_hal_rcc_ex.c ****       /* set overall return value */
 319:E:/LiteOS/LiteOS_Lab/drivers/third_party/ST/STM32L4xx_HAL_Driver/Src\stm32l4xx_hal_rcc_ex.c ****       status = ret;
 320:E:/LiteOS/LiteOS_Lab/drivers/third_party/ST/STM32L4xx_HAL_Driver/Src\stm32l4xx_hal_rcc_ex.c ****     }
 321:E:/LiteOS/LiteOS_Lab/drivers/third_party/ST/STM32L4xx_HAL_Driver/Src\stm32l4xx_hal_rcc_ex.c ****   }
 322:E:/LiteOS/LiteOS_Lab/drivers/third_party/ST/STM32L4xx_HAL_Driver/Src\stm32l4xx_hal_rcc_ex.c **** #endif /* SAI2 */
 323:E:/LiteOS/LiteOS_Lab/drivers/third_party/ST/STM32L4xx_HAL_Driver/Src\stm32l4xx_hal_rcc_ex.c **** 
 324:E:/LiteOS/LiteOS_Lab/drivers/third_party/ST/STM32L4xx_HAL_Driver/Src\stm32l4xx_hal_rcc_ex.c ****   /*-------------------------- RTC clock source configuration ----------------------*/
 325:E:/LiteOS/LiteOS_Lab/drivers/third_party/ST/STM32L4xx_HAL_Driver/Src\stm32l4xx_hal_rcc_ex.c ****   if((PeriphClkInit->PeriphClockSelection & RCC_PERIPHCLK_RTC) == RCC_PERIPHCLK_RTC)
 121              		.loc 1 325 0
 122 0084 7B68     		ldr	r3, [r7, #4]
 123 0086 1B68     		ldr	r3, [r3]
 124 0088 03F40033 		and	r3, r3, #131072
 125 008c 002B     		cmp	r3, #0
 126 008e 00F09880 		beq	.L9
 127              	.LBB2:
 326:E:/LiteOS/LiteOS_Lab/drivers/third_party/ST/STM32L4xx_HAL_Driver/Src\stm32l4xx_hal_rcc_ex.c ****   {
 327:E:/LiteOS/LiteOS_Lab/drivers/third_party/ST/STM32L4xx_HAL_Driver/Src\stm32l4xx_hal_rcc_ex.c ****     FlagStatus       pwrclkchanged = RESET;
 128              		.loc 1 327 0
 129 0092 0023     		movs	r3, #0
ARM GAS  C:\Users\user\AppData\Local\Temp\ccsJwa9Q.s 			page 9


 130 0094 7B74     		strb	r3, [r7, #17]
 328:E:/LiteOS/LiteOS_Lab/drivers/third_party/ST/STM32L4xx_HAL_Driver/Src\stm32l4xx_hal_rcc_ex.c **** 
 329:E:/LiteOS/LiteOS_Lab/drivers/third_party/ST/STM32L4xx_HAL_Driver/Src\stm32l4xx_hal_rcc_ex.c ****     /* Check for RTC Parameters used to output RTCCLK */
 330:E:/LiteOS/LiteOS_Lab/drivers/third_party/ST/STM32L4xx_HAL_Driver/Src\stm32l4xx_hal_rcc_ex.c ****     assert_param(IS_RCC_RTCCLKSOURCE(PeriphClkInit->RTCClockSelection));
 331:E:/LiteOS/LiteOS_Lab/drivers/third_party/ST/STM32L4xx_HAL_Driver/Src\stm32l4xx_hal_rcc_ex.c **** 
 332:E:/LiteOS/LiteOS_Lab/drivers/third_party/ST/STM32L4xx_HAL_Driver/Src\stm32l4xx_hal_rcc_ex.c ****     /* Enable Power Clock */
 333:E:/LiteOS/LiteOS_Lab/drivers/third_party/ST/STM32L4xx_HAL_Driver/Src\stm32l4xx_hal_rcc_ex.c ****     if(__HAL_RCC_PWR_IS_CLK_DISABLED())
 131              		.loc 1 333 0
 132 0096 434B     		ldr	r3, .L40
 133 0098 9B6D     		ldr	r3, [r3, #88]
 134 009a 03F08053 		and	r3, r3, #268435456
 135 009e 002B     		cmp	r3, #0
 136 00a0 0DD1     		bne	.L10
 137              	.LBB3:
 334:E:/LiteOS/LiteOS_Lab/drivers/third_party/ST/STM32L4xx_HAL_Driver/Src\stm32l4xx_hal_rcc_ex.c ****     {
 335:E:/LiteOS/LiteOS_Lab/drivers/third_party/ST/STM32L4xx_HAL_Driver/Src\stm32l4xx_hal_rcc_ex.c ****       __HAL_RCC_PWR_CLK_ENABLE();
 138              		.loc 1 335 0
 139 00a2 404B     		ldr	r3, .L40
 140 00a4 9B6D     		ldr	r3, [r3, #88]
 141 00a6 3F4A     		ldr	r2, .L40
 142 00a8 43F08053 		orr	r3, r3, #268435456
 143 00ac 9365     		str	r3, [r2, #88]
 144 00ae 3D4B     		ldr	r3, .L40
 145 00b0 9B6D     		ldr	r3, [r3, #88]
 146 00b2 03F08053 		and	r3, r3, #268435456
 147 00b6 BB60     		str	r3, [r7, #8]
 148 00b8 BB68     		ldr	r3, [r7, #8]
 149              	.LBE3:
 336:E:/LiteOS/LiteOS_Lab/drivers/third_party/ST/STM32L4xx_HAL_Driver/Src\stm32l4xx_hal_rcc_ex.c ****       pwrclkchanged = SET;
 150              		.loc 1 336 0
 151 00ba 0123     		movs	r3, #1
 152 00bc 7B74     		strb	r3, [r7, #17]
 153              	.L10:
 337:E:/LiteOS/LiteOS_Lab/drivers/third_party/ST/STM32L4xx_HAL_Driver/Src\stm32l4xx_hal_rcc_ex.c ****     }
 338:E:/LiteOS/LiteOS_Lab/drivers/third_party/ST/STM32L4xx_HAL_Driver/Src\stm32l4xx_hal_rcc_ex.c **** 
 339:E:/LiteOS/LiteOS_Lab/drivers/third_party/ST/STM32L4xx_HAL_Driver/Src\stm32l4xx_hal_rcc_ex.c ****     /* Enable write access to Backup domain */
 340:E:/LiteOS/LiteOS_Lab/drivers/third_party/ST/STM32L4xx_HAL_Driver/Src\stm32l4xx_hal_rcc_ex.c ****     SET_BIT(PWR->CR1, PWR_CR1_DBP);
 154              		.loc 1 340 0
 155 00be 3A4B     		ldr	r3, .L40+4
 156 00c0 1B68     		ldr	r3, [r3]
 157 00c2 394A     		ldr	r2, .L40+4
 158 00c4 43F48073 		orr	r3, r3, #256
 159 00c8 1360     		str	r3, [r2]
 341:E:/LiteOS/LiteOS_Lab/drivers/third_party/ST/STM32L4xx_HAL_Driver/Src\stm32l4xx_hal_rcc_ex.c **** 
 342:E:/LiteOS/LiteOS_Lab/drivers/third_party/ST/STM32L4xx_HAL_Driver/Src\stm32l4xx_hal_rcc_ex.c ****     /* Wait for Backup domain Write protection disable */
 343:E:/LiteOS/LiteOS_Lab/drivers/third_party/ST/STM32L4xx_HAL_Driver/Src\stm32l4xx_hal_rcc_ex.c ****     tickstart = HAL_GetTick();
 160              		.loc 1 343 0
 161 00ca FFF7FEFF 		bl	HAL_GetTick
 162 00ce F860     		str	r0, [r7, #12]
 344:E:/LiteOS/LiteOS_Lab/drivers/third_party/ST/STM32L4xx_HAL_Driver/Src\stm32l4xx_hal_rcc_ex.c **** 
 345:E:/LiteOS/LiteOS_Lab/drivers/third_party/ST/STM32L4xx_HAL_Driver/Src\stm32l4xx_hal_rcc_ex.c ****     while(READ_BIT(PWR->CR1, PWR_CR1_DBP) == RESET)
 163              		.loc 1 345 0
 164 00d0 09E0     		b	.L11
 165              	.L13:
 346:E:/LiteOS/LiteOS_Lab/drivers/third_party/ST/STM32L4xx_HAL_Driver/Src\stm32l4xx_hal_rcc_ex.c ****     {
 347:E:/LiteOS/LiteOS_Lab/drivers/third_party/ST/STM32L4xx_HAL_Driver/Src\stm32l4xx_hal_rcc_ex.c ****       if((HAL_GetTick() - tickstart) > RCC_DBP_TIMEOUT_VALUE)
 166              		.loc 1 347 0
ARM GAS  C:\Users\user\AppData\Local\Temp\ccsJwa9Q.s 			page 10


 167 00d2 FFF7FEFF 		bl	HAL_GetTick
 168 00d6 0246     		mov	r2, r0
 169 00d8 FB68     		ldr	r3, [r7, #12]
 170 00da D31A     		subs	r3, r2, r3
 171 00dc 022B     		cmp	r3, #2
 172 00de 02D9     		bls	.L11
 348:E:/LiteOS/LiteOS_Lab/drivers/third_party/ST/STM32L4xx_HAL_Driver/Src\stm32l4xx_hal_rcc_ex.c ****       {
 349:E:/LiteOS/LiteOS_Lab/drivers/third_party/ST/STM32L4xx_HAL_Driver/Src\stm32l4xx_hal_rcc_ex.c ****         ret = HAL_TIMEOUT;
 173              		.loc 1 349 0
 174 00e0 0323     		movs	r3, #3
 175 00e2 FB74     		strb	r3, [r7, #19]
 350:E:/LiteOS/LiteOS_Lab/drivers/third_party/ST/STM32L4xx_HAL_Driver/Src\stm32l4xx_hal_rcc_ex.c ****         break;
 176              		.loc 1 350 0
 177 00e4 05E0     		b	.L12
 178              	.L11:
 345:E:/LiteOS/LiteOS_Lab/drivers/third_party/ST/STM32L4xx_HAL_Driver/Src\stm32l4xx_hal_rcc_ex.c ****     {
 179              		.loc 1 345 0
 180 00e6 304B     		ldr	r3, .L40+4
 181 00e8 1B68     		ldr	r3, [r3]
 182 00ea 03F48073 		and	r3, r3, #256
 183 00ee 002B     		cmp	r3, #0
 184 00f0 EFD0     		beq	.L13
 185              	.L12:
 351:E:/LiteOS/LiteOS_Lab/drivers/third_party/ST/STM32L4xx_HAL_Driver/Src\stm32l4xx_hal_rcc_ex.c ****       }
 352:E:/LiteOS/LiteOS_Lab/drivers/third_party/ST/STM32L4xx_HAL_Driver/Src\stm32l4xx_hal_rcc_ex.c ****     }
 353:E:/LiteOS/LiteOS_Lab/drivers/third_party/ST/STM32L4xx_HAL_Driver/Src\stm32l4xx_hal_rcc_ex.c **** 
 354:E:/LiteOS/LiteOS_Lab/drivers/third_party/ST/STM32L4xx_HAL_Driver/Src\stm32l4xx_hal_rcc_ex.c ****     if(ret == HAL_OK)
 186              		.loc 1 354 0
 187 00f2 FB7C     		ldrb	r3, [r7, #19]	@ zero_extendqisi2
 188 00f4 002B     		cmp	r3, #0
 189 00f6 59D1     		bne	.L14
 355:E:/LiteOS/LiteOS_Lab/drivers/third_party/ST/STM32L4xx_HAL_Driver/Src\stm32l4xx_hal_rcc_ex.c ****     {
 356:E:/LiteOS/LiteOS_Lab/drivers/third_party/ST/STM32L4xx_HAL_Driver/Src\stm32l4xx_hal_rcc_ex.c ****       /* Reset the Backup domain only if the RTC Clock source selection is modified from default */
 357:E:/LiteOS/LiteOS_Lab/drivers/third_party/ST/STM32L4xx_HAL_Driver/Src\stm32l4xx_hal_rcc_ex.c ****       tmpregister = READ_BIT(RCC->BDCR, RCC_BDCR_RTCSEL);
 190              		.loc 1 357 0
 191 00f8 2A4B     		ldr	r3, .L40
 192 00fa D3F89030 		ldr	r3, [r3, #144]
 193 00fe 03F44073 		and	r3, r3, #768
 194 0102 7B61     		str	r3, [r7, #20]
 358:E:/LiteOS/LiteOS_Lab/drivers/third_party/ST/STM32L4xx_HAL_Driver/Src\stm32l4xx_hal_rcc_ex.c **** 
 359:E:/LiteOS/LiteOS_Lab/drivers/third_party/ST/STM32L4xx_HAL_Driver/Src\stm32l4xx_hal_rcc_ex.c ****       if((tmpregister != RCC_RTCCLKSOURCE_NONE) && (tmpregister != PeriphClkInit->RTCClockSelection
 195              		.loc 1 359 0
 196 0104 7B69     		ldr	r3, [r7, #20]
 197 0106 002B     		cmp	r3, #0
 198 0108 1ED0     		beq	.L15
 199              		.loc 1 359 0 is_stmt 0 discriminator 1
 200 010a 7B68     		ldr	r3, [r7, #4]
 201 010c 9B6D     		ldr	r3, [r3, #88]
 202 010e 7A69     		ldr	r2, [r7, #20]
 203 0110 9A42     		cmp	r2, r3
 204 0112 19D0     		beq	.L15
 360:E:/LiteOS/LiteOS_Lab/drivers/third_party/ST/STM32L4xx_HAL_Driver/Src\stm32l4xx_hal_rcc_ex.c ****       {
 361:E:/LiteOS/LiteOS_Lab/drivers/third_party/ST/STM32L4xx_HAL_Driver/Src\stm32l4xx_hal_rcc_ex.c ****         /* Store the content of BDCR register before the reset of Backup Domain */
 362:E:/LiteOS/LiteOS_Lab/drivers/third_party/ST/STM32L4xx_HAL_Driver/Src\stm32l4xx_hal_rcc_ex.c ****         tmpregister = READ_BIT(RCC->BDCR, ~(RCC_BDCR_RTCSEL));
 205              		.loc 1 362 0 is_stmt 1
 206 0114 234B     		ldr	r3, .L40
 207 0116 D3F89030 		ldr	r3, [r3, #144]
ARM GAS  C:\Users\user\AppData\Local\Temp\ccsJwa9Q.s 			page 11


 208 011a 23F44073 		bic	r3, r3, #768
 209 011e 7B61     		str	r3, [r7, #20]
 363:E:/LiteOS/LiteOS_Lab/drivers/third_party/ST/STM32L4xx_HAL_Driver/Src\stm32l4xx_hal_rcc_ex.c ****         /* RTC Clock selection can be changed only if the Backup Domain is reset */
 364:E:/LiteOS/LiteOS_Lab/drivers/third_party/ST/STM32L4xx_HAL_Driver/Src\stm32l4xx_hal_rcc_ex.c ****         __HAL_RCC_BACKUPRESET_FORCE();
 210              		.loc 1 364 0
 211 0120 204B     		ldr	r3, .L40
 212 0122 D3F89030 		ldr	r3, [r3, #144]
 213 0126 1F4A     		ldr	r2, .L40
 214 0128 43F48033 		orr	r3, r3, #65536
 215 012c C2F89030 		str	r3, [r2, #144]
 365:E:/LiteOS/LiteOS_Lab/drivers/third_party/ST/STM32L4xx_HAL_Driver/Src\stm32l4xx_hal_rcc_ex.c ****         __HAL_RCC_BACKUPRESET_RELEASE();
 216              		.loc 1 365 0
 217 0130 1C4B     		ldr	r3, .L40
 218 0132 D3F89030 		ldr	r3, [r3, #144]
 219 0136 1B4A     		ldr	r2, .L40
 220 0138 23F48033 		bic	r3, r3, #65536
 221 013c C2F89030 		str	r3, [r2, #144]
 366:E:/LiteOS/LiteOS_Lab/drivers/third_party/ST/STM32L4xx_HAL_Driver/Src\stm32l4xx_hal_rcc_ex.c ****         /* Restore the Content of BDCR register */
 367:E:/LiteOS/LiteOS_Lab/drivers/third_party/ST/STM32L4xx_HAL_Driver/Src\stm32l4xx_hal_rcc_ex.c ****         RCC->BDCR = tmpregister;
 222              		.loc 1 367 0
 223 0140 184A     		ldr	r2, .L40
 224 0142 7B69     		ldr	r3, [r7, #20]
 225 0144 C2F89030 		str	r3, [r2, #144]
 226              	.L15:
 368:E:/LiteOS/LiteOS_Lab/drivers/third_party/ST/STM32L4xx_HAL_Driver/Src\stm32l4xx_hal_rcc_ex.c ****       }
 369:E:/LiteOS/LiteOS_Lab/drivers/third_party/ST/STM32L4xx_HAL_Driver/Src\stm32l4xx_hal_rcc_ex.c **** 
 370:E:/LiteOS/LiteOS_Lab/drivers/third_party/ST/STM32L4xx_HAL_Driver/Src\stm32l4xx_hal_rcc_ex.c ****       /* Wait for LSE reactivation if LSE was enable prior to Backup Domain reset */
 371:E:/LiteOS/LiteOS_Lab/drivers/third_party/ST/STM32L4xx_HAL_Driver/Src\stm32l4xx_hal_rcc_ex.c ****       if (HAL_IS_BIT_SET(tmpregister, RCC_BDCR_LSEON))
 227              		.loc 1 371 0
 228 0148 7B69     		ldr	r3, [r7, #20]
 229 014a 03F00103 		and	r3, r3, #1
 230 014e 002B     		cmp	r3, #0
 231 0150 16D0     		beq	.L16
 372:E:/LiteOS/LiteOS_Lab/drivers/third_party/ST/STM32L4xx_HAL_Driver/Src\stm32l4xx_hal_rcc_ex.c ****       {
 373:E:/LiteOS/LiteOS_Lab/drivers/third_party/ST/STM32L4xx_HAL_Driver/Src\stm32l4xx_hal_rcc_ex.c ****         /* Get Start Tick*/
 374:E:/LiteOS/LiteOS_Lab/drivers/third_party/ST/STM32L4xx_HAL_Driver/Src\stm32l4xx_hal_rcc_ex.c ****         tickstart = HAL_GetTick();
 232              		.loc 1 374 0
 233 0152 FFF7FEFF 		bl	HAL_GetTick
 234 0156 F860     		str	r0, [r7, #12]
 375:E:/LiteOS/LiteOS_Lab/drivers/third_party/ST/STM32L4xx_HAL_Driver/Src\stm32l4xx_hal_rcc_ex.c **** 
 376:E:/LiteOS/LiteOS_Lab/drivers/third_party/ST/STM32L4xx_HAL_Driver/Src\stm32l4xx_hal_rcc_ex.c ****         /* Wait till LSE is ready */
 377:E:/LiteOS/LiteOS_Lab/drivers/third_party/ST/STM32L4xx_HAL_Driver/Src\stm32l4xx_hal_rcc_ex.c ****         while(READ_BIT(RCC->BDCR, RCC_BDCR_LSERDY) == RESET)
 235              		.loc 1 377 0
 236 0158 0BE0     		b	.L17
 237              	.L18:
 378:E:/LiteOS/LiteOS_Lab/drivers/third_party/ST/STM32L4xx_HAL_Driver/Src\stm32l4xx_hal_rcc_ex.c ****         {
 379:E:/LiteOS/LiteOS_Lab/drivers/third_party/ST/STM32L4xx_HAL_Driver/Src\stm32l4xx_hal_rcc_ex.c ****           if((HAL_GetTick() - tickstart) > RCC_LSE_TIMEOUT_VALUE)
 238              		.loc 1 379 0
 239 015a FFF7FEFF 		bl	HAL_GetTick
 240 015e 0246     		mov	r2, r0
 241 0160 FB68     		ldr	r3, [r7, #12]
 242 0162 D31A     		subs	r3, r2, r3
 243 0164 41F28832 		movw	r2, #5000
 244 0168 9342     		cmp	r3, r2
 245 016a 02D9     		bls	.L17
 380:E:/LiteOS/LiteOS_Lab/drivers/third_party/ST/STM32L4xx_HAL_Driver/Src\stm32l4xx_hal_rcc_ex.c ****           {
 381:E:/LiteOS/LiteOS_Lab/drivers/third_party/ST/STM32L4xx_HAL_Driver/Src\stm32l4xx_hal_rcc_ex.c ****             ret = HAL_TIMEOUT;
ARM GAS  C:\Users\user\AppData\Local\Temp\ccsJwa9Q.s 			page 12


 246              		.loc 1 381 0
 247 016c 0323     		movs	r3, #3
 248 016e FB74     		strb	r3, [r7, #19]
 382:E:/LiteOS/LiteOS_Lab/drivers/third_party/ST/STM32L4xx_HAL_Driver/Src\stm32l4xx_hal_rcc_ex.c ****             break;
 249              		.loc 1 382 0
 250 0170 06E0     		b	.L16
 251              	.L17:
 377:E:/LiteOS/LiteOS_Lab/drivers/third_party/ST/STM32L4xx_HAL_Driver/Src\stm32l4xx_hal_rcc_ex.c ****         {
 252              		.loc 1 377 0
 253 0172 0C4B     		ldr	r3, .L40
 254 0174 D3F89030 		ldr	r3, [r3, #144]
 255 0178 03F00203 		and	r3, r3, #2
 256 017c 002B     		cmp	r3, #0
 257 017e ECD0     		beq	.L18
 258              	.L16:
 383:E:/LiteOS/LiteOS_Lab/drivers/third_party/ST/STM32L4xx_HAL_Driver/Src\stm32l4xx_hal_rcc_ex.c ****           }
 384:E:/LiteOS/LiteOS_Lab/drivers/third_party/ST/STM32L4xx_HAL_Driver/Src\stm32l4xx_hal_rcc_ex.c ****         }
 385:E:/LiteOS/LiteOS_Lab/drivers/third_party/ST/STM32L4xx_HAL_Driver/Src\stm32l4xx_hal_rcc_ex.c ****       }
 386:E:/LiteOS/LiteOS_Lab/drivers/third_party/ST/STM32L4xx_HAL_Driver/Src\stm32l4xx_hal_rcc_ex.c **** 
 387:E:/LiteOS/LiteOS_Lab/drivers/third_party/ST/STM32L4xx_HAL_Driver/Src\stm32l4xx_hal_rcc_ex.c ****       if(ret == HAL_OK)
 259              		.loc 1 387 0
 260 0180 FB7C     		ldrb	r3, [r7, #19]	@ zero_extendqisi2
 261 0182 002B     		cmp	r3, #0
 262 0184 0BD1     		bne	.L19
 388:E:/LiteOS/LiteOS_Lab/drivers/third_party/ST/STM32L4xx_HAL_Driver/Src\stm32l4xx_hal_rcc_ex.c ****       {
 389:E:/LiteOS/LiteOS_Lab/drivers/third_party/ST/STM32L4xx_HAL_Driver/Src\stm32l4xx_hal_rcc_ex.c ****         /* Apply new RTC clock source selection */
 390:E:/LiteOS/LiteOS_Lab/drivers/third_party/ST/STM32L4xx_HAL_Driver/Src\stm32l4xx_hal_rcc_ex.c ****         __HAL_RCC_RTC_CONFIG(PeriphClkInit->RTCClockSelection);
 263              		.loc 1 390 0
 264 0186 074B     		ldr	r3, .L40
 265 0188 D3F89030 		ldr	r3, [r3, #144]
 266 018c 23F44072 		bic	r2, r3, #768
 267 0190 7B68     		ldr	r3, [r7, #4]
 268 0192 9B6D     		ldr	r3, [r3, #88]
 269 0194 0349     		ldr	r1, .L40
 270 0196 1343     		orrs	r3, r3, r2
 271 0198 C1F89030 		str	r3, [r1, #144]
 272 019c 08E0     		b	.L21
 273              	.L19:
 391:E:/LiteOS/LiteOS_Lab/drivers/third_party/ST/STM32L4xx_HAL_Driver/Src\stm32l4xx_hal_rcc_ex.c ****       }
 392:E:/LiteOS/LiteOS_Lab/drivers/third_party/ST/STM32L4xx_HAL_Driver/Src\stm32l4xx_hal_rcc_ex.c ****       else
 393:E:/LiteOS/LiteOS_Lab/drivers/third_party/ST/STM32L4xx_HAL_Driver/Src\stm32l4xx_hal_rcc_ex.c ****       {
 394:E:/LiteOS/LiteOS_Lab/drivers/third_party/ST/STM32L4xx_HAL_Driver/Src\stm32l4xx_hal_rcc_ex.c ****         /* set overall return value */
 395:E:/LiteOS/LiteOS_Lab/drivers/third_party/ST/STM32L4xx_HAL_Driver/Src\stm32l4xx_hal_rcc_ex.c ****         status = ret;
 274              		.loc 1 395 0
 275 019e FB7C     		ldrb	r3, [r7, #19]
 276 01a0 BB74     		strb	r3, [r7, #18]
 277 01a2 05E0     		b	.L21
 278              	.L41:
 279              		.align	2
 280              	.L40:
 281 01a4 00100240 		.word	1073876992
 282 01a8 00700040 		.word	1073770496
 283              	.L14:
 396:E:/LiteOS/LiteOS_Lab/drivers/third_party/ST/STM32L4xx_HAL_Driver/Src\stm32l4xx_hal_rcc_ex.c ****       }
 397:E:/LiteOS/LiteOS_Lab/drivers/third_party/ST/STM32L4xx_HAL_Driver/Src\stm32l4xx_hal_rcc_ex.c ****     }
 398:E:/LiteOS/LiteOS_Lab/drivers/third_party/ST/STM32L4xx_HAL_Driver/Src\stm32l4xx_hal_rcc_ex.c ****     else
 399:E:/LiteOS/LiteOS_Lab/drivers/third_party/ST/STM32L4xx_HAL_Driver/Src\stm32l4xx_hal_rcc_ex.c ****     {
ARM GAS  C:\Users\user\AppData\Local\Temp\ccsJwa9Q.s 			page 13


 400:E:/LiteOS/LiteOS_Lab/drivers/third_party/ST/STM32L4xx_HAL_Driver/Src\stm32l4xx_hal_rcc_ex.c ****       /* set overall return value */
 401:E:/LiteOS/LiteOS_Lab/drivers/third_party/ST/STM32L4xx_HAL_Driver/Src\stm32l4xx_hal_rcc_ex.c ****       status = ret;
 284              		.loc 1 401 0
 285 01ac FB7C     		ldrb	r3, [r7, #19]
 286 01ae BB74     		strb	r3, [r7, #18]
 287              	.L21:
 402:E:/LiteOS/LiteOS_Lab/drivers/third_party/ST/STM32L4xx_HAL_Driver/Src\stm32l4xx_hal_rcc_ex.c ****     }
 403:E:/LiteOS/LiteOS_Lab/drivers/third_party/ST/STM32L4xx_HAL_Driver/Src\stm32l4xx_hal_rcc_ex.c **** 
 404:E:/LiteOS/LiteOS_Lab/drivers/third_party/ST/STM32L4xx_HAL_Driver/Src\stm32l4xx_hal_rcc_ex.c ****     /* Restore clock configuration if changed */
 405:E:/LiteOS/LiteOS_Lab/drivers/third_party/ST/STM32L4xx_HAL_Driver/Src\stm32l4xx_hal_rcc_ex.c ****     if(pwrclkchanged == SET)
 288              		.loc 1 405 0
 289 01b0 7B7C     		ldrb	r3, [r7, #17]	@ zero_extendqisi2
 290 01b2 012B     		cmp	r3, #1
 291 01b4 05D1     		bne	.L9
 406:E:/LiteOS/LiteOS_Lab/drivers/third_party/ST/STM32L4xx_HAL_Driver/Src\stm32l4xx_hal_rcc_ex.c ****     {
 407:E:/LiteOS/LiteOS_Lab/drivers/third_party/ST/STM32L4xx_HAL_Driver/Src\stm32l4xx_hal_rcc_ex.c ****       __HAL_RCC_PWR_CLK_DISABLE();
 292              		.loc 1 407 0
 293 01b6 9B4B     		ldr	r3, .L42
 294 01b8 9B6D     		ldr	r3, [r3, #88]
 295 01ba 9A4A     		ldr	r2, .L42
 296 01bc 23F08053 		bic	r3, r3, #268435456
 297 01c0 9365     		str	r3, [r2, #88]
 298              	.L9:
 299              	.LBE2:
 408:E:/LiteOS/LiteOS_Lab/drivers/third_party/ST/STM32L4xx_HAL_Driver/Src\stm32l4xx_hal_rcc_ex.c ****     }
 409:E:/LiteOS/LiteOS_Lab/drivers/third_party/ST/STM32L4xx_HAL_Driver/Src\stm32l4xx_hal_rcc_ex.c ****   }
 410:E:/LiteOS/LiteOS_Lab/drivers/third_party/ST/STM32L4xx_HAL_Driver/Src\stm32l4xx_hal_rcc_ex.c **** 
 411:E:/LiteOS/LiteOS_Lab/drivers/third_party/ST/STM32L4xx_HAL_Driver/Src\stm32l4xx_hal_rcc_ex.c ****   /*-------------------------- USART1 clock source configuration -------------------*/
 412:E:/LiteOS/LiteOS_Lab/drivers/third_party/ST/STM32L4xx_HAL_Driver/Src\stm32l4xx_hal_rcc_ex.c ****   if(((PeriphClkInit->PeriphClockSelection) & RCC_PERIPHCLK_USART1) == RCC_PERIPHCLK_USART1)
 300              		.loc 1 412 0
 301 01c2 7B68     		ldr	r3, [r7, #4]
 302 01c4 1B68     		ldr	r3, [r3]
 303 01c6 03F00103 		and	r3, r3, #1
 304 01ca 002B     		cmp	r3, #0
 305 01cc 0AD0     		beq	.L22
 413:E:/LiteOS/LiteOS_Lab/drivers/third_party/ST/STM32L4xx_HAL_Driver/Src\stm32l4xx_hal_rcc_ex.c ****   {
 414:E:/LiteOS/LiteOS_Lab/drivers/third_party/ST/STM32L4xx_HAL_Driver/Src\stm32l4xx_hal_rcc_ex.c ****     /* Check the parameters */
 415:E:/LiteOS/LiteOS_Lab/drivers/third_party/ST/STM32L4xx_HAL_Driver/Src\stm32l4xx_hal_rcc_ex.c ****     assert_param(IS_RCC_USART1CLKSOURCE(PeriphClkInit->Usart1ClockSelection));
 416:E:/LiteOS/LiteOS_Lab/drivers/third_party/ST/STM32L4xx_HAL_Driver/Src\stm32l4xx_hal_rcc_ex.c **** 
 417:E:/LiteOS/LiteOS_Lab/drivers/third_party/ST/STM32L4xx_HAL_Driver/Src\stm32l4xx_hal_rcc_ex.c ****     /* Configure the USART1 clock source */
 418:E:/LiteOS/LiteOS_Lab/drivers/third_party/ST/STM32L4xx_HAL_Driver/Src\stm32l4xx_hal_rcc_ex.c ****     __HAL_RCC_USART1_CONFIG(PeriphClkInit->Usart1ClockSelection);
 306              		.loc 1 418 0
 307 01ce 954B     		ldr	r3, .L42
 308 01d0 D3F88830 		ldr	r3, [r3, #136]
 309 01d4 23F00302 		bic	r2, r3, #3
 310 01d8 7B68     		ldr	r3, [r7, #4]
 311 01da 1B6A     		ldr	r3, [r3, #32]
 312 01dc 9149     		ldr	r1, .L42
 313 01de 1343     		orrs	r3, r3, r2
 314 01e0 C1F88830 		str	r3, [r1, #136]
 315              	.L22:
 419:E:/LiteOS/LiteOS_Lab/drivers/third_party/ST/STM32L4xx_HAL_Driver/Src\stm32l4xx_hal_rcc_ex.c ****   }
 420:E:/LiteOS/LiteOS_Lab/drivers/third_party/ST/STM32L4xx_HAL_Driver/Src\stm32l4xx_hal_rcc_ex.c **** 
 421:E:/LiteOS/LiteOS_Lab/drivers/third_party/ST/STM32L4xx_HAL_Driver/Src\stm32l4xx_hal_rcc_ex.c ****   /*-------------------------- USART2 clock source configuration -------------------*/
 422:E:/LiteOS/LiteOS_Lab/drivers/third_party/ST/STM32L4xx_HAL_Driver/Src\stm32l4xx_hal_rcc_ex.c ****   if(((PeriphClkInit->PeriphClockSelection) & RCC_PERIPHCLK_USART2) == RCC_PERIPHCLK_USART2)
 316              		.loc 1 422 0
 317 01e4 7B68     		ldr	r3, [r7, #4]
ARM GAS  C:\Users\user\AppData\Local\Temp\ccsJwa9Q.s 			page 14


 318 01e6 1B68     		ldr	r3, [r3]
 319 01e8 03F00203 		and	r3, r3, #2
 320 01ec 002B     		cmp	r3, #0
 321 01ee 0AD0     		beq	.L23
 423:E:/LiteOS/LiteOS_Lab/drivers/third_party/ST/STM32L4xx_HAL_Driver/Src\stm32l4xx_hal_rcc_ex.c ****   {
 424:E:/LiteOS/LiteOS_Lab/drivers/third_party/ST/STM32L4xx_HAL_Driver/Src\stm32l4xx_hal_rcc_ex.c ****     /* Check the parameters */
 425:E:/LiteOS/LiteOS_Lab/drivers/third_party/ST/STM32L4xx_HAL_Driver/Src\stm32l4xx_hal_rcc_ex.c ****     assert_param(IS_RCC_USART2CLKSOURCE(PeriphClkInit->Usart2ClockSelection));
 426:E:/LiteOS/LiteOS_Lab/drivers/third_party/ST/STM32L4xx_HAL_Driver/Src\stm32l4xx_hal_rcc_ex.c **** 
 427:E:/LiteOS/LiteOS_Lab/drivers/third_party/ST/STM32L4xx_HAL_Driver/Src\stm32l4xx_hal_rcc_ex.c ****     /* Configure the USART2 clock source */
 428:E:/LiteOS/LiteOS_Lab/drivers/third_party/ST/STM32L4xx_HAL_Driver/Src\stm32l4xx_hal_rcc_ex.c ****     __HAL_RCC_USART2_CONFIG(PeriphClkInit->Usart2ClockSelection);
 322              		.loc 1 428 0
 323 01f0 8C4B     		ldr	r3, .L42
 324 01f2 D3F88830 		ldr	r3, [r3, #136]
 325 01f6 23F00C02 		bic	r2, r3, #12
 326 01fa 7B68     		ldr	r3, [r7, #4]
 327 01fc 5B6A     		ldr	r3, [r3, #36]
 328 01fe 8949     		ldr	r1, .L42
 329 0200 1343     		orrs	r3, r3, r2
 330 0202 C1F88830 		str	r3, [r1, #136]
 331              	.L23:
 429:E:/LiteOS/LiteOS_Lab/drivers/third_party/ST/STM32L4xx_HAL_Driver/Src\stm32l4xx_hal_rcc_ex.c ****   }
 430:E:/LiteOS/LiteOS_Lab/drivers/third_party/ST/STM32L4xx_HAL_Driver/Src\stm32l4xx_hal_rcc_ex.c **** 
 431:E:/LiteOS/LiteOS_Lab/drivers/third_party/ST/STM32L4xx_HAL_Driver/Src\stm32l4xx_hal_rcc_ex.c **** #if defined(USART3)
 432:E:/LiteOS/LiteOS_Lab/drivers/third_party/ST/STM32L4xx_HAL_Driver/Src\stm32l4xx_hal_rcc_ex.c **** 
 433:E:/LiteOS/LiteOS_Lab/drivers/third_party/ST/STM32L4xx_HAL_Driver/Src\stm32l4xx_hal_rcc_ex.c ****   /*-------------------------- USART3 clock source configuration -------------------*/
 434:E:/LiteOS/LiteOS_Lab/drivers/third_party/ST/STM32L4xx_HAL_Driver/Src\stm32l4xx_hal_rcc_ex.c ****   if(((PeriphClkInit->PeriphClockSelection) & RCC_PERIPHCLK_USART3) == RCC_PERIPHCLK_USART3)
 332              		.loc 1 434 0
 333 0206 7B68     		ldr	r3, [r7, #4]
 334 0208 1B68     		ldr	r3, [r3]
 335 020a 03F00403 		and	r3, r3, #4
 336 020e 002B     		cmp	r3, #0
 337 0210 0AD0     		beq	.L24
 435:E:/LiteOS/LiteOS_Lab/drivers/third_party/ST/STM32L4xx_HAL_Driver/Src\stm32l4xx_hal_rcc_ex.c ****   {
 436:E:/LiteOS/LiteOS_Lab/drivers/third_party/ST/STM32L4xx_HAL_Driver/Src\stm32l4xx_hal_rcc_ex.c ****     /* Check the parameters */
 437:E:/LiteOS/LiteOS_Lab/drivers/third_party/ST/STM32L4xx_HAL_Driver/Src\stm32l4xx_hal_rcc_ex.c ****     assert_param(IS_RCC_USART3CLKSOURCE(PeriphClkInit->Usart3ClockSelection));
 438:E:/LiteOS/LiteOS_Lab/drivers/third_party/ST/STM32L4xx_HAL_Driver/Src\stm32l4xx_hal_rcc_ex.c **** 
 439:E:/LiteOS/LiteOS_Lab/drivers/third_party/ST/STM32L4xx_HAL_Driver/Src\stm32l4xx_hal_rcc_ex.c ****     /* Configure the USART3 clock source */
 440:E:/LiteOS/LiteOS_Lab/drivers/third_party/ST/STM32L4xx_HAL_Driver/Src\stm32l4xx_hal_rcc_ex.c ****     __HAL_RCC_USART3_CONFIG(PeriphClkInit->Usart3ClockSelection);
 338              		.loc 1 440 0
 339 0212 844B     		ldr	r3, .L42
 340 0214 D3F88830 		ldr	r3, [r3, #136]
 341 0218 23F03002 		bic	r2, r3, #48
 342 021c 7B68     		ldr	r3, [r7, #4]
 343 021e 9B6A     		ldr	r3, [r3, #40]
 344 0220 8049     		ldr	r1, .L42
 345 0222 1343     		orrs	r3, r3, r2
 346 0224 C1F88830 		str	r3, [r1, #136]
 347              	.L24:
 441:E:/LiteOS/LiteOS_Lab/drivers/third_party/ST/STM32L4xx_HAL_Driver/Src\stm32l4xx_hal_rcc_ex.c ****   }
 442:E:/LiteOS/LiteOS_Lab/drivers/third_party/ST/STM32L4xx_HAL_Driver/Src\stm32l4xx_hal_rcc_ex.c **** 
 443:E:/LiteOS/LiteOS_Lab/drivers/third_party/ST/STM32L4xx_HAL_Driver/Src\stm32l4xx_hal_rcc_ex.c **** #endif /* USART3 */
 444:E:/LiteOS/LiteOS_Lab/drivers/third_party/ST/STM32L4xx_HAL_Driver/Src\stm32l4xx_hal_rcc_ex.c **** 
 445:E:/LiteOS/LiteOS_Lab/drivers/third_party/ST/STM32L4xx_HAL_Driver/Src\stm32l4xx_hal_rcc_ex.c **** #if defined(UART4)
 446:E:/LiteOS/LiteOS_Lab/drivers/third_party/ST/STM32L4xx_HAL_Driver/Src\stm32l4xx_hal_rcc_ex.c **** 
 447:E:/LiteOS/LiteOS_Lab/drivers/third_party/ST/STM32L4xx_HAL_Driver/Src\stm32l4xx_hal_rcc_ex.c ****   /*-------------------------- UART4 clock source configuration --------------------*/
 448:E:/LiteOS/LiteOS_Lab/drivers/third_party/ST/STM32L4xx_HAL_Driver/Src\stm32l4xx_hal_rcc_ex.c ****   if(((PeriphClkInit->PeriphClockSelection) & RCC_PERIPHCLK_UART4) == RCC_PERIPHCLK_UART4)
 449:E:/LiteOS/LiteOS_Lab/drivers/third_party/ST/STM32L4xx_HAL_Driver/Src\stm32l4xx_hal_rcc_ex.c ****   {
ARM GAS  C:\Users\user\AppData\Local\Temp\ccsJwa9Q.s 			page 15


 450:E:/LiteOS/LiteOS_Lab/drivers/third_party/ST/STM32L4xx_HAL_Driver/Src\stm32l4xx_hal_rcc_ex.c ****     /* Check the parameters */
 451:E:/LiteOS/LiteOS_Lab/drivers/third_party/ST/STM32L4xx_HAL_Driver/Src\stm32l4xx_hal_rcc_ex.c ****     assert_param(IS_RCC_UART4CLKSOURCE(PeriphClkInit->Uart4ClockSelection));
 452:E:/LiteOS/LiteOS_Lab/drivers/third_party/ST/STM32L4xx_HAL_Driver/Src\stm32l4xx_hal_rcc_ex.c **** 
 453:E:/LiteOS/LiteOS_Lab/drivers/third_party/ST/STM32L4xx_HAL_Driver/Src\stm32l4xx_hal_rcc_ex.c ****     /* Configure the UART4 clock source */
 454:E:/LiteOS/LiteOS_Lab/drivers/third_party/ST/STM32L4xx_HAL_Driver/Src\stm32l4xx_hal_rcc_ex.c ****     __HAL_RCC_UART4_CONFIG(PeriphClkInit->Uart4ClockSelection);
 455:E:/LiteOS/LiteOS_Lab/drivers/third_party/ST/STM32L4xx_HAL_Driver/Src\stm32l4xx_hal_rcc_ex.c ****   }
 456:E:/LiteOS/LiteOS_Lab/drivers/third_party/ST/STM32L4xx_HAL_Driver/Src\stm32l4xx_hal_rcc_ex.c **** 
 457:E:/LiteOS/LiteOS_Lab/drivers/third_party/ST/STM32L4xx_HAL_Driver/Src\stm32l4xx_hal_rcc_ex.c **** #endif /* UART4 */
 458:E:/LiteOS/LiteOS_Lab/drivers/third_party/ST/STM32L4xx_HAL_Driver/Src\stm32l4xx_hal_rcc_ex.c **** 
 459:E:/LiteOS/LiteOS_Lab/drivers/third_party/ST/STM32L4xx_HAL_Driver/Src\stm32l4xx_hal_rcc_ex.c **** #if defined(UART5)
 460:E:/LiteOS/LiteOS_Lab/drivers/third_party/ST/STM32L4xx_HAL_Driver/Src\stm32l4xx_hal_rcc_ex.c **** 
 461:E:/LiteOS/LiteOS_Lab/drivers/third_party/ST/STM32L4xx_HAL_Driver/Src\stm32l4xx_hal_rcc_ex.c ****   /*-------------------------- UART5 clock source configuration --------------------*/
 462:E:/LiteOS/LiteOS_Lab/drivers/third_party/ST/STM32L4xx_HAL_Driver/Src\stm32l4xx_hal_rcc_ex.c ****   if(((PeriphClkInit->PeriphClockSelection) & RCC_PERIPHCLK_UART5) == RCC_PERIPHCLK_UART5)
 463:E:/LiteOS/LiteOS_Lab/drivers/third_party/ST/STM32L4xx_HAL_Driver/Src\stm32l4xx_hal_rcc_ex.c ****   {
 464:E:/LiteOS/LiteOS_Lab/drivers/third_party/ST/STM32L4xx_HAL_Driver/Src\stm32l4xx_hal_rcc_ex.c ****     /* Check the parameters */
 465:E:/LiteOS/LiteOS_Lab/drivers/third_party/ST/STM32L4xx_HAL_Driver/Src\stm32l4xx_hal_rcc_ex.c ****     assert_param(IS_RCC_UART5CLKSOURCE(PeriphClkInit->Uart5ClockSelection));
 466:E:/LiteOS/LiteOS_Lab/drivers/third_party/ST/STM32L4xx_HAL_Driver/Src\stm32l4xx_hal_rcc_ex.c **** 
 467:E:/LiteOS/LiteOS_Lab/drivers/third_party/ST/STM32L4xx_HAL_Driver/Src\stm32l4xx_hal_rcc_ex.c ****     /* Configure the UART5 clock source */
 468:E:/LiteOS/LiteOS_Lab/drivers/third_party/ST/STM32L4xx_HAL_Driver/Src\stm32l4xx_hal_rcc_ex.c ****     __HAL_RCC_UART5_CONFIG(PeriphClkInit->Uart5ClockSelection);
 469:E:/LiteOS/LiteOS_Lab/drivers/third_party/ST/STM32L4xx_HAL_Driver/Src\stm32l4xx_hal_rcc_ex.c ****   }
 470:E:/LiteOS/LiteOS_Lab/drivers/third_party/ST/STM32L4xx_HAL_Driver/Src\stm32l4xx_hal_rcc_ex.c **** 
 471:E:/LiteOS/LiteOS_Lab/drivers/third_party/ST/STM32L4xx_HAL_Driver/Src\stm32l4xx_hal_rcc_ex.c **** #endif /* UART5 */
 472:E:/LiteOS/LiteOS_Lab/drivers/third_party/ST/STM32L4xx_HAL_Driver/Src\stm32l4xx_hal_rcc_ex.c **** 
 473:E:/LiteOS/LiteOS_Lab/drivers/third_party/ST/STM32L4xx_HAL_Driver/Src\stm32l4xx_hal_rcc_ex.c ****   /*-------------------------- LPUART1 clock source configuration ------------------*/
 474:E:/LiteOS/LiteOS_Lab/drivers/third_party/ST/STM32L4xx_HAL_Driver/Src\stm32l4xx_hal_rcc_ex.c ****   if(((PeriphClkInit->PeriphClockSelection) & RCC_PERIPHCLK_LPUART1) == RCC_PERIPHCLK_LPUART1)
 348              		.loc 1 474 0
 349 0228 7B68     		ldr	r3, [r7, #4]
 350 022a 1B68     		ldr	r3, [r3]
 351 022c 03F02003 		and	r3, r3, #32
 352 0230 002B     		cmp	r3, #0
 353 0232 0AD0     		beq	.L25
 475:E:/LiteOS/LiteOS_Lab/drivers/third_party/ST/STM32L4xx_HAL_Driver/Src\stm32l4xx_hal_rcc_ex.c ****   {
 476:E:/LiteOS/LiteOS_Lab/drivers/third_party/ST/STM32L4xx_HAL_Driver/Src\stm32l4xx_hal_rcc_ex.c ****     /* Check the parameters */
 477:E:/LiteOS/LiteOS_Lab/drivers/third_party/ST/STM32L4xx_HAL_Driver/Src\stm32l4xx_hal_rcc_ex.c ****     assert_param(IS_RCC_LPUART1CLKSOURCE(PeriphClkInit->Lpuart1ClockSelection));
 478:E:/LiteOS/LiteOS_Lab/drivers/third_party/ST/STM32L4xx_HAL_Driver/Src\stm32l4xx_hal_rcc_ex.c **** 
 479:E:/LiteOS/LiteOS_Lab/drivers/third_party/ST/STM32L4xx_HAL_Driver/Src\stm32l4xx_hal_rcc_ex.c ****     /* Configure the LPUAR1 clock source */
 480:E:/LiteOS/LiteOS_Lab/drivers/third_party/ST/STM32L4xx_HAL_Driver/Src\stm32l4xx_hal_rcc_ex.c ****     __HAL_RCC_LPUART1_CONFIG(PeriphClkInit->Lpuart1ClockSelection);
 354              		.loc 1 480 0
 355 0234 7B4B     		ldr	r3, .L42
 356 0236 D3F88830 		ldr	r3, [r3, #136]
 357 023a 23F44062 		bic	r2, r3, #3072
 358 023e 7B68     		ldr	r3, [r7, #4]
 359 0240 DB6A     		ldr	r3, [r3, #44]
 360 0242 7849     		ldr	r1, .L42
 361 0244 1343     		orrs	r3, r3, r2
 362 0246 C1F88830 		str	r3, [r1, #136]
 363              	.L25:
 481:E:/LiteOS/LiteOS_Lab/drivers/third_party/ST/STM32L4xx_HAL_Driver/Src\stm32l4xx_hal_rcc_ex.c ****   }
 482:E:/LiteOS/LiteOS_Lab/drivers/third_party/ST/STM32L4xx_HAL_Driver/Src\stm32l4xx_hal_rcc_ex.c **** 
 483:E:/LiteOS/LiteOS_Lab/drivers/third_party/ST/STM32L4xx_HAL_Driver/Src\stm32l4xx_hal_rcc_ex.c ****   /*-------------------------- LPTIM1 clock source configuration -------------------*/
 484:E:/LiteOS/LiteOS_Lab/drivers/third_party/ST/STM32L4xx_HAL_Driver/Src\stm32l4xx_hal_rcc_ex.c ****   if(((PeriphClkInit->PeriphClockSelection) & RCC_PERIPHCLK_LPTIM1) == (RCC_PERIPHCLK_LPTIM1))
 364              		.loc 1 484 0
 365 024a 7B68     		ldr	r3, [r7, #4]
 366 024c 1B68     		ldr	r3, [r3]
 367 024e 03F40073 		and	r3, r3, #512
 368 0252 002B     		cmp	r3, #0
 369 0254 0AD0     		beq	.L26
ARM GAS  C:\Users\user\AppData\Local\Temp\ccsJwa9Q.s 			page 16


 485:E:/LiteOS/LiteOS_Lab/drivers/third_party/ST/STM32L4xx_HAL_Driver/Src\stm32l4xx_hal_rcc_ex.c ****   {
 486:E:/LiteOS/LiteOS_Lab/drivers/third_party/ST/STM32L4xx_HAL_Driver/Src\stm32l4xx_hal_rcc_ex.c ****     assert_param(IS_RCC_LPTIM1CLK(PeriphClkInit->Lptim1ClockSelection));
 487:E:/LiteOS/LiteOS_Lab/drivers/third_party/ST/STM32L4xx_HAL_Driver/Src\stm32l4xx_hal_rcc_ex.c ****     __HAL_RCC_LPTIM1_CONFIG(PeriphClkInit->Lptim1ClockSelection);
 370              		.loc 1 487 0
 371 0256 734B     		ldr	r3, .L42
 372 0258 D3F88830 		ldr	r3, [r3, #136]
 373 025c 23F44022 		bic	r2, r3, #786432
 374 0260 7B68     		ldr	r3, [r7, #4]
 375 0262 DB6B     		ldr	r3, [r3, #60]
 376 0264 6F49     		ldr	r1, .L42
 377 0266 1343     		orrs	r3, r3, r2
 378 0268 C1F88830 		str	r3, [r1, #136]
 379              	.L26:
 488:E:/LiteOS/LiteOS_Lab/drivers/third_party/ST/STM32L4xx_HAL_Driver/Src\stm32l4xx_hal_rcc_ex.c ****   }
 489:E:/LiteOS/LiteOS_Lab/drivers/third_party/ST/STM32L4xx_HAL_Driver/Src\stm32l4xx_hal_rcc_ex.c **** 
 490:E:/LiteOS/LiteOS_Lab/drivers/third_party/ST/STM32L4xx_HAL_Driver/Src\stm32l4xx_hal_rcc_ex.c ****   /*-------------------------- LPTIM2 clock source configuration -------------------*/
 491:E:/LiteOS/LiteOS_Lab/drivers/third_party/ST/STM32L4xx_HAL_Driver/Src\stm32l4xx_hal_rcc_ex.c ****   if(((PeriphClkInit->PeriphClockSelection) & RCC_PERIPHCLK_LPTIM2) == (RCC_PERIPHCLK_LPTIM2))
 380              		.loc 1 491 0
 381 026c 7B68     		ldr	r3, [r7, #4]
 382 026e 1B68     		ldr	r3, [r3]
 383 0270 03F48063 		and	r3, r3, #1024
 384 0274 002B     		cmp	r3, #0
 385 0276 0AD0     		beq	.L27
 492:E:/LiteOS/LiteOS_Lab/drivers/third_party/ST/STM32L4xx_HAL_Driver/Src\stm32l4xx_hal_rcc_ex.c ****   {
 493:E:/LiteOS/LiteOS_Lab/drivers/third_party/ST/STM32L4xx_HAL_Driver/Src\stm32l4xx_hal_rcc_ex.c ****     assert_param(IS_RCC_LPTIM2CLK(PeriphClkInit->Lptim2ClockSelection));
 494:E:/LiteOS/LiteOS_Lab/drivers/third_party/ST/STM32L4xx_HAL_Driver/Src\stm32l4xx_hal_rcc_ex.c ****     __HAL_RCC_LPTIM2_CONFIG(PeriphClkInit->Lptim2ClockSelection);
 386              		.loc 1 494 0
 387 0278 6A4B     		ldr	r3, .L42
 388 027a D3F88830 		ldr	r3, [r3, #136]
 389 027e 23F44012 		bic	r2, r3, #3145728
 390 0282 7B68     		ldr	r3, [r7, #4]
 391 0284 1B6C     		ldr	r3, [r3, #64]
 392 0286 6749     		ldr	r1, .L42
 393 0288 1343     		orrs	r3, r3, r2
 394 028a C1F88830 		str	r3, [r1, #136]
 395              	.L27:
 495:E:/LiteOS/LiteOS_Lab/drivers/third_party/ST/STM32L4xx_HAL_Driver/Src\stm32l4xx_hal_rcc_ex.c ****   }
 496:E:/LiteOS/LiteOS_Lab/drivers/third_party/ST/STM32L4xx_HAL_Driver/Src\stm32l4xx_hal_rcc_ex.c **** 
 497:E:/LiteOS/LiteOS_Lab/drivers/third_party/ST/STM32L4xx_HAL_Driver/Src\stm32l4xx_hal_rcc_ex.c ****   /*-------------------------- I2C1 clock source configuration ---------------------*/
 498:E:/LiteOS/LiteOS_Lab/drivers/third_party/ST/STM32L4xx_HAL_Driver/Src\stm32l4xx_hal_rcc_ex.c ****   if(((PeriphClkInit->PeriphClockSelection) & RCC_PERIPHCLK_I2C1) == RCC_PERIPHCLK_I2C1)
 396              		.loc 1 498 0
 397 028e 7B68     		ldr	r3, [r7, #4]
 398 0290 1B68     		ldr	r3, [r3]
 399 0292 03F04003 		and	r3, r3, #64
 400 0296 002B     		cmp	r3, #0
 401 0298 0AD0     		beq	.L28
 499:E:/LiteOS/LiteOS_Lab/drivers/third_party/ST/STM32L4xx_HAL_Driver/Src\stm32l4xx_hal_rcc_ex.c ****   {
 500:E:/LiteOS/LiteOS_Lab/drivers/third_party/ST/STM32L4xx_HAL_Driver/Src\stm32l4xx_hal_rcc_ex.c ****     /* Check the parameters */
 501:E:/LiteOS/LiteOS_Lab/drivers/third_party/ST/STM32L4xx_HAL_Driver/Src\stm32l4xx_hal_rcc_ex.c ****     assert_param(IS_RCC_I2C1CLKSOURCE(PeriphClkInit->I2c1ClockSelection));
 502:E:/LiteOS/LiteOS_Lab/drivers/third_party/ST/STM32L4xx_HAL_Driver/Src\stm32l4xx_hal_rcc_ex.c **** 
 503:E:/LiteOS/LiteOS_Lab/drivers/third_party/ST/STM32L4xx_HAL_Driver/Src\stm32l4xx_hal_rcc_ex.c ****     /* Configure the I2C1 clock source */
 504:E:/LiteOS/LiteOS_Lab/drivers/third_party/ST/STM32L4xx_HAL_Driver/Src\stm32l4xx_hal_rcc_ex.c ****     __HAL_RCC_I2C1_CONFIG(PeriphClkInit->I2c1ClockSelection);
 402              		.loc 1 504 0
 403 029a 624B     		ldr	r3, .L42
 404 029c D3F88830 		ldr	r3, [r3, #136]
 405 02a0 23F44052 		bic	r2, r3, #12288
 406 02a4 7B68     		ldr	r3, [r7, #4]
ARM GAS  C:\Users\user\AppData\Local\Temp\ccsJwa9Q.s 			page 17


 407 02a6 1B6B     		ldr	r3, [r3, #48]
 408 02a8 5E49     		ldr	r1, .L42
 409 02aa 1343     		orrs	r3, r3, r2
 410 02ac C1F88830 		str	r3, [r1, #136]
 411              	.L28:
 505:E:/LiteOS/LiteOS_Lab/drivers/third_party/ST/STM32L4xx_HAL_Driver/Src\stm32l4xx_hal_rcc_ex.c ****   }
 506:E:/LiteOS/LiteOS_Lab/drivers/third_party/ST/STM32L4xx_HAL_Driver/Src\stm32l4xx_hal_rcc_ex.c **** 
 507:E:/LiteOS/LiteOS_Lab/drivers/third_party/ST/STM32L4xx_HAL_Driver/Src\stm32l4xx_hal_rcc_ex.c **** #if defined(I2C2)
 508:E:/LiteOS/LiteOS_Lab/drivers/third_party/ST/STM32L4xx_HAL_Driver/Src\stm32l4xx_hal_rcc_ex.c **** 
 509:E:/LiteOS/LiteOS_Lab/drivers/third_party/ST/STM32L4xx_HAL_Driver/Src\stm32l4xx_hal_rcc_ex.c ****   /*-------------------------- I2C2 clock source configuration ---------------------*/
 510:E:/LiteOS/LiteOS_Lab/drivers/third_party/ST/STM32L4xx_HAL_Driver/Src\stm32l4xx_hal_rcc_ex.c ****   if(((PeriphClkInit->PeriphClockSelection) & RCC_PERIPHCLK_I2C2) == RCC_PERIPHCLK_I2C2)
 412              		.loc 1 510 0
 413 02b0 7B68     		ldr	r3, [r7, #4]
 414 02b2 1B68     		ldr	r3, [r3]
 415 02b4 03F08003 		and	r3, r3, #128
 416 02b8 002B     		cmp	r3, #0
 417 02ba 0AD0     		beq	.L29
 511:E:/LiteOS/LiteOS_Lab/drivers/third_party/ST/STM32L4xx_HAL_Driver/Src\stm32l4xx_hal_rcc_ex.c ****   {
 512:E:/LiteOS/LiteOS_Lab/drivers/third_party/ST/STM32L4xx_HAL_Driver/Src\stm32l4xx_hal_rcc_ex.c ****     /* Check the parameters */
 513:E:/LiteOS/LiteOS_Lab/drivers/third_party/ST/STM32L4xx_HAL_Driver/Src\stm32l4xx_hal_rcc_ex.c ****     assert_param(IS_RCC_I2C2CLKSOURCE(PeriphClkInit->I2c2ClockSelection));
 514:E:/LiteOS/LiteOS_Lab/drivers/third_party/ST/STM32L4xx_HAL_Driver/Src\stm32l4xx_hal_rcc_ex.c **** 
 515:E:/LiteOS/LiteOS_Lab/drivers/third_party/ST/STM32L4xx_HAL_Driver/Src\stm32l4xx_hal_rcc_ex.c ****     /* Configure the I2C2 clock source */
 516:E:/LiteOS/LiteOS_Lab/drivers/third_party/ST/STM32L4xx_HAL_Driver/Src\stm32l4xx_hal_rcc_ex.c ****     __HAL_RCC_I2C2_CONFIG(PeriphClkInit->I2c2ClockSelection);
 418              		.loc 1 516 0
 419 02bc 594B     		ldr	r3, .L42
 420 02be D3F88830 		ldr	r3, [r3, #136]
 421 02c2 23F44042 		bic	r2, r3, #49152
 422 02c6 7B68     		ldr	r3, [r7, #4]
 423 02c8 5B6B     		ldr	r3, [r3, #52]
 424 02ca 5649     		ldr	r1, .L42
 425 02cc 1343     		orrs	r3, r3, r2
 426 02ce C1F88830 		str	r3, [r1, #136]
 427              	.L29:
 517:E:/LiteOS/LiteOS_Lab/drivers/third_party/ST/STM32L4xx_HAL_Driver/Src\stm32l4xx_hal_rcc_ex.c ****   }
 518:E:/LiteOS/LiteOS_Lab/drivers/third_party/ST/STM32L4xx_HAL_Driver/Src\stm32l4xx_hal_rcc_ex.c **** 
 519:E:/LiteOS/LiteOS_Lab/drivers/third_party/ST/STM32L4xx_HAL_Driver/Src\stm32l4xx_hal_rcc_ex.c **** #endif /* I2C2 */
 520:E:/LiteOS/LiteOS_Lab/drivers/third_party/ST/STM32L4xx_HAL_Driver/Src\stm32l4xx_hal_rcc_ex.c **** 
 521:E:/LiteOS/LiteOS_Lab/drivers/third_party/ST/STM32L4xx_HAL_Driver/Src\stm32l4xx_hal_rcc_ex.c ****   /*-------------------------- I2C3 clock source configuration ---------------------*/
 522:E:/LiteOS/LiteOS_Lab/drivers/third_party/ST/STM32L4xx_HAL_Driver/Src\stm32l4xx_hal_rcc_ex.c ****   if(((PeriphClkInit->PeriphClockSelection) & RCC_PERIPHCLK_I2C3) == RCC_PERIPHCLK_I2C3)
 428              		.loc 1 522 0
 429 02d2 7B68     		ldr	r3, [r7, #4]
 430 02d4 1B68     		ldr	r3, [r3]
 431 02d6 03F48073 		and	r3, r3, #256
 432 02da 002B     		cmp	r3, #0
 433 02dc 0AD0     		beq	.L30
 523:E:/LiteOS/LiteOS_Lab/drivers/third_party/ST/STM32L4xx_HAL_Driver/Src\stm32l4xx_hal_rcc_ex.c ****   {
 524:E:/LiteOS/LiteOS_Lab/drivers/third_party/ST/STM32L4xx_HAL_Driver/Src\stm32l4xx_hal_rcc_ex.c ****     /* Check the parameters */
 525:E:/LiteOS/LiteOS_Lab/drivers/third_party/ST/STM32L4xx_HAL_Driver/Src\stm32l4xx_hal_rcc_ex.c ****     assert_param(IS_RCC_I2C3CLKSOURCE(PeriphClkInit->I2c3ClockSelection));
 526:E:/LiteOS/LiteOS_Lab/drivers/third_party/ST/STM32L4xx_HAL_Driver/Src\stm32l4xx_hal_rcc_ex.c **** 
 527:E:/LiteOS/LiteOS_Lab/drivers/third_party/ST/STM32L4xx_HAL_Driver/Src\stm32l4xx_hal_rcc_ex.c ****     /* Configure the I2C3 clock source */
 528:E:/LiteOS/LiteOS_Lab/drivers/third_party/ST/STM32L4xx_HAL_Driver/Src\stm32l4xx_hal_rcc_ex.c ****     __HAL_RCC_I2C3_CONFIG(PeriphClkInit->I2c3ClockSelection);
 434              		.loc 1 528 0
 435 02de 514B     		ldr	r3, .L42
 436 02e0 D3F88830 		ldr	r3, [r3, #136]
 437 02e4 23F44032 		bic	r2, r3, #196608
 438 02e8 7B68     		ldr	r3, [r7, #4]
 439 02ea 9B6B     		ldr	r3, [r3, #56]
ARM GAS  C:\Users\user\AppData\Local\Temp\ccsJwa9Q.s 			page 18


 440 02ec 4D49     		ldr	r1, .L42
 441 02ee 1343     		orrs	r3, r3, r2
 442 02f0 C1F88830 		str	r3, [r1, #136]
 443              	.L30:
 529:E:/LiteOS/LiteOS_Lab/drivers/third_party/ST/STM32L4xx_HAL_Driver/Src\stm32l4xx_hal_rcc_ex.c ****   }
 530:E:/LiteOS/LiteOS_Lab/drivers/third_party/ST/STM32L4xx_HAL_Driver/Src\stm32l4xx_hal_rcc_ex.c **** 
 531:E:/LiteOS/LiteOS_Lab/drivers/third_party/ST/STM32L4xx_HAL_Driver/Src\stm32l4xx_hal_rcc_ex.c **** #if defined(I2C4)
 532:E:/LiteOS/LiteOS_Lab/drivers/third_party/ST/STM32L4xx_HAL_Driver/Src\stm32l4xx_hal_rcc_ex.c **** 
 533:E:/LiteOS/LiteOS_Lab/drivers/third_party/ST/STM32L4xx_HAL_Driver/Src\stm32l4xx_hal_rcc_ex.c ****   /*-------------------------- I2C4 clock source configuration ---------------------*/
 534:E:/LiteOS/LiteOS_Lab/drivers/third_party/ST/STM32L4xx_HAL_Driver/Src\stm32l4xx_hal_rcc_ex.c ****   if(((PeriphClkInit->PeriphClockSelection) & RCC_PERIPHCLK_I2C4) == RCC_PERIPHCLK_I2C4)
 535:E:/LiteOS/LiteOS_Lab/drivers/third_party/ST/STM32L4xx_HAL_Driver/Src\stm32l4xx_hal_rcc_ex.c ****   {
 536:E:/LiteOS/LiteOS_Lab/drivers/third_party/ST/STM32L4xx_HAL_Driver/Src\stm32l4xx_hal_rcc_ex.c ****     /* Check the parameters */
 537:E:/LiteOS/LiteOS_Lab/drivers/third_party/ST/STM32L4xx_HAL_Driver/Src\stm32l4xx_hal_rcc_ex.c ****     assert_param(IS_RCC_I2C4CLKSOURCE(PeriphClkInit->I2c4ClockSelection));
 538:E:/LiteOS/LiteOS_Lab/drivers/third_party/ST/STM32L4xx_HAL_Driver/Src\stm32l4xx_hal_rcc_ex.c **** 
 539:E:/LiteOS/LiteOS_Lab/drivers/third_party/ST/STM32L4xx_HAL_Driver/Src\stm32l4xx_hal_rcc_ex.c ****     /* Configure the I2C4 clock source */
 540:E:/LiteOS/LiteOS_Lab/drivers/third_party/ST/STM32L4xx_HAL_Driver/Src\stm32l4xx_hal_rcc_ex.c ****     __HAL_RCC_I2C4_CONFIG(PeriphClkInit->I2c4ClockSelection);
 541:E:/LiteOS/LiteOS_Lab/drivers/third_party/ST/STM32L4xx_HAL_Driver/Src\stm32l4xx_hal_rcc_ex.c ****   }
 542:E:/LiteOS/LiteOS_Lab/drivers/third_party/ST/STM32L4xx_HAL_Driver/Src\stm32l4xx_hal_rcc_ex.c **** 
 543:E:/LiteOS/LiteOS_Lab/drivers/third_party/ST/STM32L4xx_HAL_Driver/Src\stm32l4xx_hal_rcc_ex.c **** #endif /* I2C4 */
 544:E:/LiteOS/LiteOS_Lab/drivers/third_party/ST/STM32L4xx_HAL_Driver/Src\stm32l4xx_hal_rcc_ex.c **** 
 545:E:/LiteOS/LiteOS_Lab/drivers/third_party/ST/STM32L4xx_HAL_Driver/Src\stm32l4xx_hal_rcc_ex.c **** #if defined(USB_OTG_FS) || defined(USB)
 546:E:/LiteOS/LiteOS_Lab/drivers/third_party/ST/STM32L4xx_HAL_Driver/Src\stm32l4xx_hal_rcc_ex.c **** 
 547:E:/LiteOS/LiteOS_Lab/drivers/third_party/ST/STM32L4xx_HAL_Driver/Src\stm32l4xx_hal_rcc_ex.c ****   /*-------------------------- USB clock source configuration ----------------------*/
 548:E:/LiteOS/LiteOS_Lab/drivers/third_party/ST/STM32L4xx_HAL_Driver/Src\stm32l4xx_hal_rcc_ex.c ****   if(((PeriphClkInit->PeriphClockSelection) & RCC_PERIPHCLK_USB) == (RCC_PERIPHCLK_USB))
 549:E:/LiteOS/LiteOS_Lab/drivers/third_party/ST/STM32L4xx_HAL_Driver/Src\stm32l4xx_hal_rcc_ex.c ****   {
 550:E:/LiteOS/LiteOS_Lab/drivers/third_party/ST/STM32L4xx_HAL_Driver/Src\stm32l4xx_hal_rcc_ex.c ****     assert_param(IS_RCC_USBCLKSOURCE(PeriphClkInit->UsbClockSelection));
 551:E:/LiteOS/LiteOS_Lab/drivers/third_party/ST/STM32L4xx_HAL_Driver/Src\stm32l4xx_hal_rcc_ex.c ****     __HAL_RCC_USB_CONFIG(PeriphClkInit->UsbClockSelection);
 552:E:/LiteOS/LiteOS_Lab/drivers/third_party/ST/STM32L4xx_HAL_Driver/Src\stm32l4xx_hal_rcc_ex.c **** 
 553:E:/LiteOS/LiteOS_Lab/drivers/third_party/ST/STM32L4xx_HAL_Driver/Src\stm32l4xx_hal_rcc_ex.c ****     if(PeriphClkInit->UsbClockSelection == RCC_USBCLKSOURCE_PLL)
 554:E:/LiteOS/LiteOS_Lab/drivers/third_party/ST/STM32L4xx_HAL_Driver/Src\stm32l4xx_hal_rcc_ex.c ****     {
 555:E:/LiteOS/LiteOS_Lab/drivers/third_party/ST/STM32L4xx_HAL_Driver/Src\stm32l4xx_hal_rcc_ex.c ****       /* Enable PLL48M1CLK output */
 556:E:/LiteOS/LiteOS_Lab/drivers/third_party/ST/STM32L4xx_HAL_Driver/Src\stm32l4xx_hal_rcc_ex.c ****       __HAL_RCC_PLLCLKOUT_ENABLE(RCC_PLL_48M1CLK);
 557:E:/LiteOS/LiteOS_Lab/drivers/third_party/ST/STM32L4xx_HAL_Driver/Src\stm32l4xx_hal_rcc_ex.c ****     }
 558:E:/LiteOS/LiteOS_Lab/drivers/third_party/ST/STM32L4xx_HAL_Driver/Src\stm32l4xx_hal_rcc_ex.c ****     else
 559:E:/LiteOS/LiteOS_Lab/drivers/third_party/ST/STM32L4xx_HAL_Driver/Src\stm32l4xx_hal_rcc_ex.c ****     {
 560:E:/LiteOS/LiteOS_Lab/drivers/third_party/ST/STM32L4xx_HAL_Driver/Src\stm32l4xx_hal_rcc_ex.c ****       if(PeriphClkInit->UsbClockSelection == RCC_USBCLKSOURCE_PLLSAI1)
 561:E:/LiteOS/LiteOS_Lab/drivers/third_party/ST/STM32L4xx_HAL_Driver/Src\stm32l4xx_hal_rcc_ex.c ****       {
 562:E:/LiteOS/LiteOS_Lab/drivers/third_party/ST/STM32L4xx_HAL_Driver/Src\stm32l4xx_hal_rcc_ex.c ****         /* PLLSAI1 input clock, parameters M, N & Q configuration and clock output (PLLSAI1ClockOut
 563:E:/LiteOS/LiteOS_Lab/drivers/third_party/ST/STM32L4xx_HAL_Driver/Src\stm32l4xx_hal_rcc_ex.c ****         ret = RCCEx_PLLSAI1_Config(&(PeriphClkInit->PLLSAI1), DIVIDER_Q_UPDATE);
 564:E:/LiteOS/LiteOS_Lab/drivers/third_party/ST/STM32L4xx_HAL_Driver/Src\stm32l4xx_hal_rcc_ex.c **** 
 565:E:/LiteOS/LiteOS_Lab/drivers/third_party/ST/STM32L4xx_HAL_Driver/Src\stm32l4xx_hal_rcc_ex.c ****         if(ret != HAL_OK)
 566:E:/LiteOS/LiteOS_Lab/drivers/third_party/ST/STM32L4xx_HAL_Driver/Src\stm32l4xx_hal_rcc_ex.c ****         {
 567:E:/LiteOS/LiteOS_Lab/drivers/third_party/ST/STM32L4xx_HAL_Driver/Src\stm32l4xx_hal_rcc_ex.c ****           /* set overall return value */
 568:E:/LiteOS/LiteOS_Lab/drivers/third_party/ST/STM32L4xx_HAL_Driver/Src\stm32l4xx_hal_rcc_ex.c ****           status = ret;
 569:E:/LiteOS/LiteOS_Lab/drivers/third_party/ST/STM32L4xx_HAL_Driver/Src\stm32l4xx_hal_rcc_ex.c ****         }
 570:E:/LiteOS/LiteOS_Lab/drivers/third_party/ST/STM32L4xx_HAL_Driver/Src\stm32l4xx_hal_rcc_ex.c ****       }
 571:E:/LiteOS/LiteOS_Lab/drivers/third_party/ST/STM32L4xx_HAL_Driver/Src\stm32l4xx_hal_rcc_ex.c ****     }
 572:E:/LiteOS/LiteOS_Lab/drivers/third_party/ST/STM32L4xx_HAL_Driver/Src\stm32l4xx_hal_rcc_ex.c ****   }
 573:E:/LiteOS/LiteOS_Lab/drivers/third_party/ST/STM32L4xx_HAL_Driver/Src\stm32l4xx_hal_rcc_ex.c **** 
 574:E:/LiteOS/LiteOS_Lab/drivers/third_party/ST/STM32L4xx_HAL_Driver/Src\stm32l4xx_hal_rcc_ex.c **** #endif /* USB_OTG_FS || USB */
 575:E:/LiteOS/LiteOS_Lab/drivers/third_party/ST/STM32L4xx_HAL_Driver/Src\stm32l4xx_hal_rcc_ex.c **** 
 576:E:/LiteOS/LiteOS_Lab/drivers/third_party/ST/STM32L4xx_HAL_Driver/Src\stm32l4xx_hal_rcc_ex.c **** #if defined(SDMMC1)
 577:E:/LiteOS/LiteOS_Lab/drivers/third_party/ST/STM32L4xx_HAL_Driver/Src\stm32l4xx_hal_rcc_ex.c **** 
 578:E:/LiteOS/LiteOS_Lab/drivers/third_party/ST/STM32L4xx_HAL_Driver/Src\stm32l4xx_hal_rcc_ex.c ****   /*-------------------------- SDMMC1 clock source configuration -------------------*/
 579:E:/LiteOS/LiteOS_Lab/drivers/third_party/ST/STM32L4xx_HAL_Driver/Src\stm32l4xx_hal_rcc_ex.c ****   if(((PeriphClkInit->PeriphClockSelection) & RCC_PERIPHCLK_SDMMC1) == (RCC_PERIPHCLK_SDMMC1))
 444              		.loc 1 579 0
 445 02f4 7B68     		ldr	r3, [r7, #4]
ARM GAS  C:\Users\user\AppData\Local\Temp\ccsJwa9Q.s 			page 19


 446 02f6 1B68     		ldr	r3, [r3]
 447 02f8 03F40023 		and	r3, r3, #524288
 448 02fc 002B     		cmp	r3, #0
 449 02fe 28D0     		beq	.L31
 580:E:/LiteOS/LiteOS_Lab/drivers/third_party/ST/STM32L4xx_HAL_Driver/Src\stm32l4xx_hal_rcc_ex.c ****   {
 581:E:/LiteOS/LiteOS_Lab/drivers/third_party/ST/STM32L4xx_HAL_Driver/Src\stm32l4xx_hal_rcc_ex.c ****     assert_param(IS_RCC_SDMMC1CLKSOURCE(PeriphClkInit->Sdmmc1ClockSelection));
 582:E:/LiteOS/LiteOS_Lab/drivers/third_party/ST/STM32L4xx_HAL_Driver/Src\stm32l4xx_hal_rcc_ex.c ****     __HAL_RCC_SDMMC1_CONFIG(PeriphClkInit->Sdmmc1ClockSelection);
 450              		.loc 1 582 0
 451 0300 484B     		ldr	r3, .L42
 452 0302 D3F88830 		ldr	r3, [r3, #136]
 453 0306 23F04062 		bic	r2, r3, #201326592
 454 030a 7B68     		ldr	r3, [r7, #4]
 455 030c 9B6C     		ldr	r3, [r3, #72]
 456 030e 4549     		ldr	r1, .L42
 457 0310 1343     		orrs	r3, r3, r2
 458 0312 C1F88830 		str	r3, [r1, #136]
 583:E:/LiteOS/LiteOS_Lab/drivers/third_party/ST/STM32L4xx_HAL_Driver/Src\stm32l4xx_hal_rcc_ex.c **** 
 584:E:/LiteOS/LiteOS_Lab/drivers/third_party/ST/STM32L4xx_HAL_Driver/Src\stm32l4xx_hal_rcc_ex.c ****     if(PeriphClkInit->Sdmmc1ClockSelection == RCC_SDMMC1CLKSOURCE_PLL)   /* PLL "Q" ? */
 459              		.loc 1 584 0
 460 0316 7B68     		ldr	r3, [r7, #4]
 461 0318 9B6C     		ldr	r3, [r3, #72]
 462 031a B3F1006F 		cmp	r3, #134217728
 463 031e 06D1     		bne	.L32
 585:E:/LiteOS/LiteOS_Lab/drivers/third_party/ST/STM32L4xx_HAL_Driver/Src\stm32l4xx_hal_rcc_ex.c ****     {
 586:E:/LiteOS/LiteOS_Lab/drivers/third_party/ST/STM32L4xx_HAL_Driver/Src\stm32l4xx_hal_rcc_ex.c ****       /* Enable PLL48M1CLK output */
 587:E:/LiteOS/LiteOS_Lab/drivers/third_party/ST/STM32L4xx_HAL_Driver/Src\stm32l4xx_hal_rcc_ex.c ****       __HAL_RCC_PLLCLKOUT_ENABLE(RCC_PLL_48M1CLK);
 464              		.loc 1 587 0
 465 0320 404B     		ldr	r3, .L42
 466 0322 DB68     		ldr	r3, [r3, #12]
 467 0324 3F4A     		ldr	r2, .L42
 468 0326 43F48013 		orr	r3, r3, #1048576
 469 032a D360     		str	r3, [r2, #12]
 470 032c 11E0     		b	.L31
 471              	.L32:
 588:E:/LiteOS/LiteOS_Lab/drivers/third_party/ST/STM32L4xx_HAL_Driver/Src\stm32l4xx_hal_rcc_ex.c ****     }
 589:E:/LiteOS/LiteOS_Lab/drivers/third_party/ST/STM32L4xx_HAL_Driver/Src\stm32l4xx_hal_rcc_ex.c **** #if defined(RCC_CCIPR2_SDMMCSEL)
 590:E:/LiteOS/LiteOS_Lab/drivers/third_party/ST/STM32L4xx_HAL_Driver/Src\stm32l4xx_hal_rcc_ex.c ****     else if(PeriphClkInit->Sdmmc1ClockSelection == RCC_SDMMC1CLKSOURCE_PLLP) /* PLL "P" ? */
 591:E:/LiteOS/LiteOS_Lab/drivers/third_party/ST/STM32L4xx_HAL_Driver/Src\stm32l4xx_hal_rcc_ex.c ****     {
 592:E:/LiteOS/LiteOS_Lab/drivers/third_party/ST/STM32L4xx_HAL_Driver/Src\stm32l4xx_hal_rcc_ex.c ****       /* Enable PLLSAI3CLK output */
 593:E:/LiteOS/LiteOS_Lab/drivers/third_party/ST/STM32L4xx_HAL_Driver/Src\stm32l4xx_hal_rcc_ex.c ****       __HAL_RCC_PLLCLKOUT_ENABLE(RCC_PLL_SAI3CLK);
 594:E:/LiteOS/LiteOS_Lab/drivers/third_party/ST/STM32L4xx_HAL_Driver/Src\stm32l4xx_hal_rcc_ex.c ****     }
 595:E:/LiteOS/LiteOS_Lab/drivers/third_party/ST/STM32L4xx_HAL_Driver/Src\stm32l4xx_hal_rcc_ex.c **** #endif
 596:E:/LiteOS/LiteOS_Lab/drivers/third_party/ST/STM32L4xx_HAL_Driver/Src\stm32l4xx_hal_rcc_ex.c ****     else if(PeriphClkInit->Sdmmc1ClockSelection == RCC_SDMMC1CLKSOURCE_PLLSAI1)
 472              		.loc 1 596 0
 473 032e 7B68     		ldr	r3, [r7, #4]
 474 0330 9B6C     		ldr	r3, [r3, #72]
 475 0332 B3F1806F 		cmp	r3, #67108864
 476 0336 0CD1     		bne	.L31
 597:E:/LiteOS/LiteOS_Lab/drivers/third_party/ST/STM32L4xx_HAL_Driver/Src\stm32l4xx_hal_rcc_ex.c ****     {
 598:E:/LiteOS/LiteOS_Lab/drivers/third_party/ST/STM32L4xx_HAL_Driver/Src\stm32l4xx_hal_rcc_ex.c ****       /* PLLSAI1 input clock, parameters M, N & Q configuration and clock output (PLLSAI1ClockOut) 
 599:E:/LiteOS/LiteOS_Lab/drivers/third_party/ST/STM32L4xx_HAL_Driver/Src\stm32l4xx_hal_rcc_ex.c ****       ret = RCCEx_PLLSAI1_Config(&(PeriphClkInit->PLLSAI1), DIVIDER_Q_UPDATE);
 477              		.loc 1 599 0
 478 0338 7B68     		ldr	r3, [r7, #4]
 479 033a 0433     		adds	r3, r3, #4
 480 033c 0121     		movs	r1, #1
 481 033e 1846     		mov	r0, r3
 482 0340 FFF7FEFF 		bl	RCCEx_PLLSAI1_Config
ARM GAS  C:\Users\user\AppData\Local\Temp\ccsJwa9Q.s 			page 20


 483 0344 0346     		mov	r3, r0
 484 0346 FB74     		strb	r3, [r7, #19]
 600:E:/LiteOS/LiteOS_Lab/drivers/third_party/ST/STM32L4xx_HAL_Driver/Src\stm32l4xx_hal_rcc_ex.c **** 
 601:E:/LiteOS/LiteOS_Lab/drivers/third_party/ST/STM32L4xx_HAL_Driver/Src\stm32l4xx_hal_rcc_ex.c ****       if(ret != HAL_OK)
 485              		.loc 1 601 0
 486 0348 FB7C     		ldrb	r3, [r7, #19]	@ zero_extendqisi2
 487 034a 002B     		cmp	r3, #0
 488 034c 01D0     		beq	.L31
 602:E:/LiteOS/LiteOS_Lab/drivers/third_party/ST/STM32L4xx_HAL_Driver/Src\stm32l4xx_hal_rcc_ex.c ****       {
 603:E:/LiteOS/LiteOS_Lab/drivers/third_party/ST/STM32L4xx_HAL_Driver/Src\stm32l4xx_hal_rcc_ex.c ****         /* set overall return value */
 604:E:/LiteOS/LiteOS_Lab/drivers/third_party/ST/STM32L4xx_HAL_Driver/Src\stm32l4xx_hal_rcc_ex.c ****         status = ret;
 489              		.loc 1 604 0
 490 034e FB7C     		ldrb	r3, [r7, #19]
 491 0350 BB74     		strb	r3, [r7, #18]
 492              	.L31:
 605:E:/LiteOS/LiteOS_Lab/drivers/third_party/ST/STM32L4xx_HAL_Driver/Src\stm32l4xx_hal_rcc_ex.c ****       }
 606:E:/LiteOS/LiteOS_Lab/drivers/third_party/ST/STM32L4xx_HAL_Driver/Src\stm32l4xx_hal_rcc_ex.c ****     }
 607:E:/LiteOS/LiteOS_Lab/drivers/third_party/ST/STM32L4xx_HAL_Driver/Src\stm32l4xx_hal_rcc_ex.c ****   }
 608:E:/LiteOS/LiteOS_Lab/drivers/third_party/ST/STM32L4xx_HAL_Driver/Src\stm32l4xx_hal_rcc_ex.c **** 
 609:E:/LiteOS/LiteOS_Lab/drivers/third_party/ST/STM32L4xx_HAL_Driver/Src\stm32l4xx_hal_rcc_ex.c **** #endif /* SDMMC1 */
 610:E:/LiteOS/LiteOS_Lab/drivers/third_party/ST/STM32L4xx_HAL_Driver/Src\stm32l4xx_hal_rcc_ex.c **** 
 611:E:/LiteOS/LiteOS_Lab/drivers/third_party/ST/STM32L4xx_HAL_Driver/Src\stm32l4xx_hal_rcc_ex.c ****   /*-------------------------- RNG clock source configuration ----------------------*/
 612:E:/LiteOS/LiteOS_Lab/drivers/third_party/ST/STM32L4xx_HAL_Driver/Src\stm32l4xx_hal_rcc_ex.c ****   if(((PeriphClkInit->PeriphClockSelection) & RCC_PERIPHCLK_RNG) == (RCC_PERIPHCLK_RNG))
 493              		.loc 1 612 0
 494 0352 7B68     		ldr	r3, [r7, #4]
 495 0354 1B68     		ldr	r3, [r3]
 496 0356 03F48023 		and	r3, r3, #262144
 497 035a 002B     		cmp	r3, #0
 498 035c 28D0     		beq	.L33
 613:E:/LiteOS/LiteOS_Lab/drivers/third_party/ST/STM32L4xx_HAL_Driver/Src\stm32l4xx_hal_rcc_ex.c ****   {
 614:E:/LiteOS/LiteOS_Lab/drivers/third_party/ST/STM32L4xx_HAL_Driver/Src\stm32l4xx_hal_rcc_ex.c ****     assert_param(IS_RCC_RNGCLKSOURCE(PeriphClkInit->RngClockSelection));
 615:E:/LiteOS/LiteOS_Lab/drivers/third_party/ST/STM32L4xx_HAL_Driver/Src\stm32l4xx_hal_rcc_ex.c ****     __HAL_RCC_RNG_CONFIG(PeriphClkInit->RngClockSelection);
 499              		.loc 1 615 0
 500 035e 314B     		ldr	r3, .L42
 501 0360 D3F88830 		ldr	r3, [r3, #136]
 502 0364 23F04062 		bic	r2, r3, #201326592
 503 0368 7B68     		ldr	r3, [r7, #4]
 504 036a DB6C     		ldr	r3, [r3, #76]
 505 036c 2D49     		ldr	r1, .L42
 506 036e 1343     		orrs	r3, r3, r2
 507 0370 C1F88830 		str	r3, [r1, #136]
 616:E:/LiteOS/LiteOS_Lab/drivers/third_party/ST/STM32L4xx_HAL_Driver/Src\stm32l4xx_hal_rcc_ex.c **** 
 617:E:/LiteOS/LiteOS_Lab/drivers/third_party/ST/STM32L4xx_HAL_Driver/Src\stm32l4xx_hal_rcc_ex.c ****     if(PeriphClkInit->RngClockSelection == RCC_RNGCLKSOURCE_PLL)
 508              		.loc 1 617 0
 509 0374 7B68     		ldr	r3, [r7, #4]
 510 0376 DB6C     		ldr	r3, [r3, #76]
 511 0378 B3F1006F 		cmp	r3, #134217728
 512 037c 06D1     		bne	.L34
 618:E:/LiteOS/LiteOS_Lab/drivers/third_party/ST/STM32L4xx_HAL_Driver/Src\stm32l4xx_hal_rcc_ex.c ****     {
 619:E:/LiteOS/LiteOS_Lab/drivers/third_party/ST/STM32L4xx_HAL_Driver/Src\stm32l4xx_hal_rcc_ex.c ****       /* Enable PLL48M1CLK output */
 620:E:/LiteOS/LiteOS_Lab/drivers/third_party/ST/STM32L4xx_HAL_Driver/Src\stm32l4xx_hal_rcc_ex.c ****       __HAL_RCC_PLLCLKOUT_ENABLE(RCC_PLL_48M1CLK);
 513              		.loc 1 620 0
 514 037e 294B     		ldr	r3, .L42
 515 0380 DB68     		ldr	r3, [r3, #12]
 516 0382 284A     		ldr	r2, .L42
 517 0384 43F48013 		orr	r3, r3, #1048576
 518 0388 D360     		str	r3, [r2, #12]
ARM GAS  C:\Users\user\AppData\Local\Temp\ccsJwa9Q.s 			page 21


 519 038a 11E0     		b	.L33
 520              	.L34:
 621:E:/LiteOS/LiteOS_Lab/drivers/third_party/ST/STM32L4xx_HAL_Driver/Src\stm32l4xx_hal_rcc_ex.c ****     }
 622:E:/LiteOS/LiteOS_Lab/drivers/third_party/ST/STM32L4xx_HAL_Driver/Src\stm32l4xx_hal_rcc_ex.c ****     else if(PeriphClkInit->RngClockSelection == RCC_RNGCLKSOURCE_PLLSAI1)
 521              		.loc 1 622 0
 522 038c 7B68     		ldr	r3, [r7, #4]
 523 038e DB6C     		ldr	r3, [r3, #76]
 524 0390 B3F1806F 		cmp	r3, #67108864
 525 0394 0CD1     		bne	.L33
 623:E:/LiteOS/LiteOS_Lab/drivers/third_party/ST/STM32L4xx_HAL_Driver/Src\stm32l4xx_hal_rcc_ex.c ****     {
 624:E:/LiteOS/LiteOS_Lab/drivers/third_party/ST/STM32L4xx_HAL_Driver/Src\stm32l4xx_hal_rcc_ex.c ****       /* PLLSAI1 input clock, parameters M, N & Q configuration and clock output (PLLSAI1ClockOut) 
 625:E:/LiteOS/LiteOS_Lab/drivers/third_party/ST/STM32L4xx_HAL_Driver/Src\stm32l4xx_hal_rcc_ex.c ****       ret = RCCEx_PLLSAI1_Config(&(PeriphClkInit->PLLSAI1), DIVIDER_Q_UPDATE);
 526              		.loc 1 625 0
 527 0396 7B68     		ldr	r3, [r7, #4]
 528 0398 0433     		adds	r3, r3, #4
 529 039a 0121     		movs	r1, #1
 530 039c 1846     		mov	r0, r3
 531 039e FFF7FEFF 		bl	RCCEx_PLLSAI1_Config
 532 03a2 0346     		mov	r3, r0
 533 03a4 FB74     		strb	r3, [r7, #19]
 626:E:/LiteOS/LiteOS_Lab/drivers/third_party/ST/STM32L4xx_HAL_Driver/Src\stm32l4xx_hal_rcc_ex.c **** 
 627:E:/LiteOS/LiteOS_Lab/drivers/third_party/ST/STM32L4xx_HAL_Driver/Src\stm32l4xx_hal_rcc_ex.c ****       if(ret != HAL_OK)
 534              		.loc 1 627 0
 535 03a6 FB7C     		ldrb	r3, [r7, #19]	@ zero_extendqisi2
 536 03a8 002B     		cmp	r3, #0
 537 03aa 01D0     		beq	.L33
 628:E:/LiteOS/LiteOS_Lab/drivers/third_party/ST/STM32L4xx_HAL_Driver/Src\stm32l4xx_hal_rcc_ex.c ****       {
 629:E:/LiteOS/LiteOS_Lab/drivers/third_party/ST/STM32L4xx_HAL_Driver/Src\stm32l4xx_hal_rcc_ex.c ****         /* set overall return value */
 630:E:/LiteOS/LiteOS_Lab/drivers/third_party/ST/STM32L4xx_HAL_Driver/Src\stm32l4xx_hal_rcc_ex.c ****         status = ret;
 538              		.loc 1 630 0
 539 03ac FB7C     		ldrb	r3, [r7, #19]
 540 03ae BB74     		strb	r3, [r7, #18]
 541              	.L33:
 631:E:/LiteOS/LiteOS_Lab/drivers/third_party/ST/STM32L4xx_HAL_Driver/Src\stm32l4xx_hal_rcc_ex.c ****       }
 632:E:/LiteOS/LiteOS_Lab/drivers/third_party/ST/STM32L4xx_HAL_Driver/Src\stm32l4xx_hal_rcc_ex.c ****     }
 633:E:/LiteOS/LiteOS_Lab/drivers/third_party/ST/STM32L4xx_HAL_Driver/Src\stm32l4xx_hal_rcc_ex.c ****   }
 634:E:/LiteOS/LiteOS_Lab/drivers/third_party/ST/STM32L4xx_HAL_Driver/Src\stm32l4xx_hal_rcc_ex.c **** 
 635:E:/LiteOS/LiteOS_Lab/drivers/third_party/ST/STM32L4xx_HAL_Driver/Src\stm32l4xx_hal_rcc_ex.c ****   /*-------------------------- ADC clock source configuration ----------------------*/
 636:E:/LiteOS/LiteOS_Lab/drivers/third_party/ST/STM32L4xx_HAL_Driver/Src\stm32l4xx_hal_rcc_ex.c ****   if(((PeriphClkInit->PeriphClockSelection) & RCC_PERIPHCLK_ADC) == RCC_PERIPHCLK_ADC)
 542              		.loc 1 636 0
 543 03b0 7B68     		ldr	r3, [r7, #4]
 544 03b2 1B68     		ldr	r3, [r3]
 545 03b4 03F48043 		and	r3, r3, #16384
 546 03b8 002B     		cmp	r3, #0
 547 03ba 1CD0     		beq	.L35
 637:E:/LiteOS/LiteOS_Lab/drivers/third_party/ST/STM32L4xx_HAL_Driver/Src\stm32l4xx_hal_rcc_ex.c ****   {
 638:E:/LiteOS/LiteOS_Lab/drivers/third_party/ST/STM32L4xx_HAL_Driver/Src\stm32l4xx_hal_rcc_ex.c ****     /* Check the parameters */
 639:E:/LiteOS/LiteOS_Lab/drivers/third_party/ST/STM32L4xx_HAL_Driver/Src\stm32l4xx_hal_rcc_ex.c ****     assert_param(IS_RCC_ADCCLKSOURCE(PeriphClkInit->AdcClockSelection));
 640:E:/LiteOS/LiteOS_Lab/drivers/third_party/ST/STM32L4xx_HAL_Driver/Src\stm32l4xx_hal_rcc_ex.c **** 
 641:E:/LiteOS/LiteOS_Lab/drivers/third_party/ST/STM32L4xx_HAL_Driver/Src\stm32l4xx_hal_rcc_ex.c ****     /* Configure the ADC interface clock source */
 642:E:/LiteOS/LiteOS_Lab/drivers/third_party/ST/STM32L4xx_HAL_Driver/Src\stm32l4xx_hal_rcc_ex.c ****     __HAL_RCC_ADC_CONFIG(PeriphClkInit->AdcClockSelection);
 548              		.loc 1 642 0
 549 03bc 194B     		ldr	r3, .L42
 550 03be D3F88830 		ldr	r3, [r3, #136]
 551 03c2 23F04052 		bic	r2, r3, #805306368
 552 03c6 7B68     		ldr	r3, [r7, #4]
 553 03c8 1B6D     		ldr	r3, [r3, #80]
ARM GAS  C:\Users\user\AppData\Local\Temp\ccsJwa9Q.s 			page 22


 554 03ca 1649     		ldr	r1, .L42
 555 03cc 1343     		orrs	r3, r3, r2
 556 03ce C1F88830 		str	r3, [r1, #136]
 643:E:/LiteOS/LiteOS_Lab/drivers/third_party/ST/STM32L4xx_HAL_Driver/Src\stm32l4xx_hal_rcc_ex.c **** 
 644:E:/LiteOS/LiteOS_Lab/drivers/third_party/ST/STM32L4xx_HAL_Driver/Src\stm32l4xx_hal_rcc_ex.c ****     if(PeriphClkInit->AdcClockSelection == RCC_ADCCLKSOURCE_PLLSAI1)
 557              		.loc 1 644 0
 558 03d2 7B68     		ldr	r3, [r7, #4]
 559 03d4 1B6D     		ldr	r3, [r3, #80]
 560 03d6 B3F1805F 		cmp	r3, #268435456
 561 03da 0CD1     		bne	.L35
 645:E:/LiteOS/LiteOS_Lab/drivers/third_party/ST/STM32L4xx_HAL_Driver/Src\stm32l4xx_hal_rcc_ex.c ****     {
 646:E:/LiteOS/LiteOS_Lab/drivers/third_party/ST/STM32L4xx_HAL_Driver/Src\stm32l4xx_hal_rcc_ex.c ****       /* PLLSAI1 input clock, parameters M, N & R configuration and clock output (PLLSAI1ClockOut) 
 647:E:/LiteOS/LiteOS_Lab/drivers/third_party/ST/STM32L4xx_HAL_Driver/Src\stm32l4xx_hal_rcc_ex.c ****       ret = RCCEx_PLLSAI1_Config(&(PeriphClkInit->PLLSAI1), DIVIDER_R_UPDATE);
 562              		.loc 1 647 0
 563 03dc 7B68     		ldr	r3, [r7, #4]
 564 03de 0433     		adds	r3, r3, #4
 565 03e0 0221     		movs	r1, #2
 566 03e2 1846     		mov	r0, r3
 567 03e4 FFF7FEFF 		bl	RCCEx_PLLSAI1_Config
 568 03e8 0346     		mov	r3, r0
 569 03ea FB74     		strb	r3, [r7, #19]
 648:E:/LiteOS/LiteOS_Lab/drivers/third_party/ST/STM32L4xx_HAL_Driver/Src\stm32l4xx_hal_rcc_ex.c **** 
 649:E:/LiteOS/LiteOS_Lab/drivers/third_party/ST/STM32L4xx_HAL_Driver/Src\stm32l4xx_hal_rcc_ex.c ****       if(ret != HAL_OK)
 570              		.loc 1 649 0
 571 03ec FB7C     		ldrb	r3, [r7, #19]	@ zero_extendqisi2
 572 03ee 002B     		cmp	r3, #0
 573 03f0 01D0     		beq	.L35
 650:E:/LiteOS/LiteOS_Lab/drivers/third_party/ST/STM32L4xx_HAL_Driver/Src\stm32l4xx_hal_rcc_ex.c ****       {
 651:E:/LiteOS/LiteOS_Lab/drivers/third_party/ST/STM32L4xx_HAL_Driver/Src\stm32l4xx_hal_rcc_ex.c ****         /* set overall return value */
 652:E:/LiteOS/LiteOS_Lab/drivers/third_party/ST/STM32L4xx_HAL_Driver/Src\stm32l4xx_hal_rcc_ex.c ****         status = ret;
 574              		.loc 1 652 0
 575 03f2 FB7C     		ldrb	r3, [r7, #19]
 576 03f4 BB74     		strb	r3, [r7, #18]
 577              	.L35:
 653:E:/LiteOS/LiteOS_Lab/drivers/third_party/ST/STM32L4xx_HAL_Driver/Src\stm32l4xx_hal_rcc_ex.c ****       }
 654:E:/LiteOS/LiteOS_Lab/drivers/third_party/ST/STM32L4xx_HAL_Driver/Src\stm32l4xx_hal_rcc_ex.c ****     }
 655:E:/LiteOS/LiteOS_Lab/drivers/third_party/ST/STM32L4xx_HAL_Driver/Src\stm32l4xx_hal_rcc_ex.c **** 
 656:E:/LiteOS/LiteOS_Lab/drivers/third_party/ST/STM32L4xx_HAL_Driver/Src\stm32l4xx_hal_rcc_ex.c **** #if defined(STM32L471xx) || defined(STM32L475xx) || defined(STM32L476xx) || defined(STM32L485xx) ||
 657:E:/LiteOS/LiteOS_Lab/drivers/third_party/ST/STM32L4xx_HAL_Driver/Src\stm32l4xx_hal_rcc_ex.c **** 
 658:E:/LiteOS/LiteOS_Lab/drivers/third_party/ST/STM32L4xx_HAL_Driver/Src\stm32l4xx_hal_rcc_ex.c ****     else if(PeriphClkInit->AdcClockSelection == RCC_ADCCLKSOURCE_PLLSAI2)
 659:E:/LiteOS/LiteOS_Lab/drivers/third_party/ST/STM32L4xx_HAL_Driver/Src\stm32l4xx_hal_rcc_ex.c ****     {
 660:E:/LiteOS/LiteOS_Lab/drivers/third_party/ST/STM32L4xx_HAL_Driver/Src\stm32l4xx_hal_rcc_ex.c ****       /* PLLSAI2 input clock, parameters M, N & R configuration and clock output (PLLSAI2ClockOut) 
 661:E:/LiteOS/LiteOS_Lab/drivers/third_party/ST/STM32L4xx_HAL_Driver/Src\stm32l4xx_hal_rcc_ex.c ****       ret = RCCEx_PLLSAI2_Config(&(PeriphClkInit->PLLSAI2), DIVIDER_R_UPDATE);
 662:E:/LiteOS/LiteOS_Lab/drivers/third_party/ST/STM32L4xx_HAL_Driver/Src\stm32l4xx_hal_rcc_ex.c **** 
 663:E:/LiteOS/LiteOS_Lab/drivers/third_party/ST/STM32L4xx_HAL_Driver/Src\stm32l4xx_hal_rcc_ex.c ****       if(ret != HAL_OK)
 664:E:/LiteOS/LiteOS_Lab/drivers/third_party/ST/STM32L4xx_HAL_Driver/Src\stm32l4xx_hal_rcc_ex.c ****       {
 665:E:/LiteOS/LiteOS_Lab/drivers/third_party/ST/STM32L4xx_HAL_Driver/Src\stm32l4xx_hal_rcc_ex.c ****         /* set overall return value */
 666:E:/LiteOS/LiteOS_Lab/drivers/third_party/ST/STM32L4xx_HAL_Driver/Src\stm32l4xx_hal_rcc_ex.c ****         status = ret;
 667:E:/LiteOS/LiteOS_Lab/drivers/third_party/ST/STM32L4xx_HAL_Driver/Src\stm32l4xx_hal_rcc_ex.c ****       }
 668:E:/LiteOS/LiteOS_Lab/drivers/third_party/ST/STM32L4xx_HAL_Driver/Src\stm32l4xx_hal_rcc_ex.c ****     }
 669:E:/LiteOS/LiteOS_Lab/drivers/third_party/ST/STM32L4xx_HAL_Driver/Src\stm32l4xx_hal_rcc_ex.c **** 
 670:E:/LiteOS/LiteOS_Lab/drivers/third_party/ST/STM32L4xx_HAL_Driver/Src\stm32l4xx_hal_rcc_ex.c **** #endif /* STM32L471xx || STM32L475xx || STM32L476xx || STM32L485xx || STM32L486xx || STM32L496xx ||
 671:E:/LiteOS/LiteOS_Lab/drivers/third_party/ST/STM32L4xx_HAL_Driver/Src\stm32l4xx_hal_rcc_ex.c **** 
 672:E:/LiteOS/LiteOS_Lab/drivers/third_party/ST/STM32L4xx_HAL_Driver/Src\stm32l4xx_hal_rcc_ex.c ****   }
 673:E:/LiteOS/LiteOS_Lab/drivers/third_party/ST/STM32L4xx_HAL_Driver/Src\stm32l4xx_hal_rcc_ex.c **** 
 674:E:/LiteOS/LiteOS_Lab/drivers/third_party/ST/STM32L4xx_HAL_Driver/Src\stm32l4xx_hal_rcc_ex.c **** #if defined(SWPMI1)
 675:E:/LiteOS/LiteOS_Lab/drivers/third_party/ST/STM32L4xx_HAL_Driver/Src\stm32l4xx_hal_rcc_ex.c **** 
ARM GAS  C:\Users\user\AppData\Local\Temp\ccsJwa9Q.s 			page 23


 676:E:/LiteOS/LiteOS_Lab/drivers/third_party/ST/STM32L4xx_HAL_Driver/Src\stm32l4xx_hal_rcc_ex.c ****   /*-------------------------- SWPMI1 clock source configuration -------------------*/
 677:E:/LiteOS/LiteOS_Lab/drivers/third_party/ST/STM32L4xx_HAL_Driver/Src\stm32l4xx_hal_rcc_ex.c ****   if(((PeriphClkInit->PeriphClockSelection) & RCC_PERIPHCLK_SWPMI1) == RCC_PERIPHCLK_SWPMI1)
 578              		.loc 1 677 0
 579 03f6 7B68     		ldr	r3, [r7, #4]
 580 03f8 1B68     		ldr	r3, [r3]
 581 03fa 03F40043 		and	r3, r3, #32768
 582 03fe 002B     		cmp	r3, #0
 583 0400 0AD0     		beq	.L36
 678:E:/LiteOS/LiteOS_Lab/drivers/third_party/ST/STM32L4xx_HAL_Driver/Src\stm32l4xx_hal_rcc_ex.c ****   {
 679:E:/LiteOS/LiteOS_Lab/drivers/third_party/ST/STM32L4xx_HAL_Driver/Src\stm32l4xx_hal_rcc_ex.c ****     /* Check the parameters */
 680:E:/LiteOS/LiteOS_Lab/drivers/third_party/ST/STM32L4xx_HAL_Driver/Src\stm32l4xx_hal_rcc_ex.c ****     assert_param(IS_RCC_SWPMI1CLKSOURCE(PeriphClkInit->Swpmi1ClockSelection));
 681:E:/LiteOS/LiteOS_Lab/drivers/third_party/ST/STM32L4xx_HAL_Driver/Src\stm32l4xx_hal_rcc_ex.c **** 
 682:E:/LiteOS/LiteOS_Lab/drivers/third_party/ST/STM32L4xx_HAL_Driver/Src\stm32l4xx_hal_rcc_ex.c ****     /* Configure the SWPMI1 clock source */
 683:E:/LiteOS/LiteOS_Lab/drivers/third_party/ST/STM32L4xx_HAL_Driver/Src\stm32l4xx_hal_rcc_ex.c ****     __HAL_RCC_SWPMI1_CONFIG(PeriphClkInit->Swpmi1ClockSelection);
 584              		.loc 1 683 0
 585 0402 084B     		ldr	r3, .L42
 586 0404 D3F88830 		ldr	r3, [r3, #136]
 587 0408 23F08042 		bic	r2, r3, #1073741824
 588 040c 7B68     		ldr	r3, [r7, #4]
 589 040e 5B6D     		ldr	r3, [r3, #84]
 590 0410 0449     		ldr	r1, .L42
 591 0412 1343     		orrs	r3, r3, r2
 592 0414 C1F88830 		str	r3, [r1, #136]
 593              	.L36:
 684:E:/LiteOS/LiteOS_Lab/drivers/third_party/ST/STM32L4xx_HAL_Driver/Src\stm32l4xx_hal_rcc_ex.c ****   }
 685:E:/LiteOS/LiteOS_Lab/drivers/third_party/ST/STM32L4xx_HAL_Driver/Src\stm32l4xx_hal_rcc_ex.c **** 
 686:E:/LiteOS/LiteOS_Lab/drivers/third_party/ST/STM32L4xx_HAL_Driver/Src\stm32l4xx_hal_rcc_ex.c **** #endif /* SWPMI1 */
 687:E:/LiteOS/LiteOS_Lab/drivers/third_party/ST/STM32L4xx_HAL_Driver/Src\stm32l4xx_hal_rcc_ex.c **** 
 688:E:/LiteOS/LiteOS_Lab/drivers/third_party/ST/STM32L4xx_HAL_Driver/Src\stm32l4xx_hal_rcc_ex.c **** #if defined(DFSDM1_Filter0)
 689:E:/LiteOS/LiteOS_Lab/drivers/third_party/ST/STM32L4xx_HAL_Driver/Src\stm32l4xx_hal_rcc_ex.c **** 
 690:E:/LiteOS/LiteOS_Lab/drivers/third_party/ST/STM32L4xx_HAL_Driver/Src\stm32l4xx_hal_rcc_ex.c ****   /*-------------------------- DFSDM1 clock source configuration -------------------*/
 691:E:/LiteOS/LiteOS_Lab/drivers/third_party/ST/STM32L4xx_HAL_Driver/Src\stm32l4xx_hal_rcc_ex.c ****   if(((PeriphClkInit->PeriphClockSelection) & RCC_PERIPHCLK_DFSDM1) == RCC_PERIPHCLK_DFSDM1)
 692:E:/LiteOS/LiteOS_Lab/drivers/third_party/ST/STM32L4xx_HAL_Driver/Src\stm32l4xx_hal_rcc_ex.c ****   {
 693:E:/LiteOS/LiteOS_Lab/drivers/third_party/ST/STM32L4xx_HAL_Driver/Src\stm32l4xx_hal_rcc_ex.c ****     /* Check the parameters */
 694:E:/LiteOS/LiteOS_Lab/drivers/third_party/ST/STM32L4xx_HAL_Driver/Src\stm32l4xx_hal_rcc_ex.c ****     assert_param(IS_RCC_DFSDM1CLKSOURCE(PeriphClkInit->Dfsdm1ClockSelection));
 695:E:/LiteOS/LiteOS_Lab/drivers/third_party/ST/STM32L4xx_HAL_Driver/Src\stm32l4xx_hal_rcc_ex.c **** 
 696:E:/LiteOS/LiteOS_Lab/drivers/third_party/ST/STM32L4xx_HAL_Driver/Src\stm32l4xx_hal_rcc_ex.c ****     /* Configure the DFSDM1 interface clock source */
 697:E:/LiteOS/LiteOS_Lab/drivers/third_party/ST/STM32L4xx_HAL_Driver/Src\stm32l4xx_hal_rcc_ex.c ****     __HAL_RCC_DFSDM1_CONFIG(PeriphClkInit->Dfsdm1ClockSelection);
 698:E:/LiteOS/LiteOS_Lab/drivers/third_party/ST/STM32L4xx_HAL_Driver/Src\stm32l4xx_hal_rcc_ex.c ****   }
 699:E:/LiteOS/LiteOS_Lab/drivers/third_party/ST/STM32L4xx_HAL_Driver/Src\stm32l4xx_hal_rcc_ex.c **** 
 700:E:/LiteOS/LiteOS_Lab/drivers/third_party/ST/STM32L4xx_HAL_Driver/Src\stm32l4xx_hal_rcc_ex.c **** #if defined(STM32L4R5xx) || defined(STM32L4R7xx) || defined(STM32L4R9xx) || defined(STM32L4S5xx) ||
 701:E:/LiteOS/LiteOS_Lab/drivers/third_party/ST/STM32L4xx_HAL_Driver/Src\stm32l4xx_hal_rcc_ex.c ****   /*-------------------------- DFSDM1 audio clock source configuration -------------*/
 702:E:/LiteOS/LiteOS_Lab/drivers/third_party/ST/STM32L4xx_HAL_Driver/Src\stm32l4xx_hal_rcc_ex.c ****   if(((PeriphClkInit->PeriphClockSelection) & RCC_PERIPHCLK_DFSDM1AUDIO) == RCC_PERIPHCLK_DFSDM1AUD
 703:E:/LiteOS/LiteOS_Lab/drivers/third_party/ST/STM32L4xx_HAL_Driver/Src\stm32l4xx_hal_rcc_ex.c ****   {
 704:E:/LiteOS/LiteOS_Lab/drivers/third_party/ST/STM32L4xx_HAL_Driver/Src\stm32l4xx_hal_rcc_ex.c ****     /* Check the parameters */
 705:E:/LiteOS/LiteOS_Lab/drivers/third_party/ST/STM32L4xx_HAL_Driver/Src\stm32l4xx_hal_rcc_ex.c ****     assert_param(IS_RCC_DFSDM1AUDIOCLKSOURCE(PeriphClkInit->Dfsdm1AudioClockSelection));
 706:E:/LiteOS/LiteOS_Lab/drivers/third_party/ST/STM32L4xx_HAL_Driver/Src\stm32l4xx_hal_rcc_ex.c **** 
 707:E:/LiteOS/LiteOS_Lab/drivers/third_party/ST/STM32L4xx_HAL_Driver/Src\stm32l4xx_hal_rcc_ex.c ****     /* Configure the DFSDM1 interface audio clock source */
 708:E:/LiteOS/LiteOS_Lab/drivers/third_party/ST/STM32L4xx_HAL_Driver/Src\stm32l4xx_hal_rcc_ex.c ****     __HAL_RCC_DFSDM1AUDIO_CONFIG(PeriphClkInit->Dfsdm1AudioClockSelection);
 709:E:/LiteOS/LiteOS_Lab/drivers/third_party/ST/STM32L4xx_HAL_Driver/Src\stm32l4xx_hal_rcc_ex.c ****   }
 710:E:/LiteOS/LiteOS_Lab/drivers/third_party/ST/STM32L4xx_HAL_Driver/Src\stm32l4xx_hal_rcc_ex.c **** 
 711:E:/LiteOS/LiteOS_Lab/drivers/third_party/ST/STM32L4xx_HAL_Driver/Src\stm32l4xx_hal_rcc_ex.c **** #endif /* STM32L4R5xx || STM32L4R7xx || STM32L4R9xx || STM32L4S5xx || STM32L4S7xx || STM32L4S9xx */
 712:E:/LiteOS/LiteOS_Lab/drivers/third_party/ST/STM32L4xx_HAL_Driver/Src\stm32l4xx_hal_rcc_ex.c **** 
 713:E:/LiteOS/LiteOS_Lab/drivers/third_party/ST/STM32L4xx_HAL_Driver/Src\stm32l4xx_hal_rcc_ex.c **** #endif /* DFSDM1_Filter0 */
 714:E:/LiteOS/LiteOS_Lab/drivers/third_party/ST/STM32L4xx_HAL_Driver/Src\stm32l4xx_hal_rcc_ex.c **** 
 715:E:/LiteOS/LiteOS_Lab/drivers/third_party/ST/STM32L4xx_HAL_Driver/Src\stm32l4xx_hal_rcc_ex.c **** #if defined(LTDC)
 716:E:/LiteOS/LiteOS_Lab/drivers/third_party/ST/STM32L4xx_HAL_Driver/Src\stm32l4xx_hal_rcc_ex.c **** 
ARM GAS  C:\Users\user\AppData\Local\Temp\ccsJwa9Q.s 			page 24


 717:E:/LiteOS/LiteOS_Lab/drivers/third_party/ST/STM32L4xx_HAL_Driver/Src\stm32l4xx_hal_rcc_ex.c ****   /*-------------------------- LTDC clock source configuration --------------------*/
 718:E:/LiteOS/LiteOS_Lab/drivers/third_party/ST/STM32L4xx_HAL_Driver/Src\stm32l4xx_hal_rcc_ex.c ****   if(((PeriphClkInit->PeriphClockSelection) & RCC_PERIPHCLK_LTDC) == RCC_PERIPHCLK_LTDC)
 719:E:/LiteOS/LiteOS_Lab/drivers/third_party/ST/STM32L4xx_HAL_Driver/Src\stm32l4xx_hal_rcc_ex.c ****   {
 720:E:/LiteOS/LiteOS_Lab/drivers/third_party/ST/STM32L4xx_HAL_Driver/Src\stm32l4xx_hal_rcc_ex.c ****     /* Check the parameters */
 721:E:/LiteOS/LiteOS_Lab/drivers/third_party/ST/STM32L4xx_HAL_Driver/Src\stm32l4xx_hal_rcc_ex.c ****     assert_param(IS_RCC_LTDCCLKSOURCE(PeriphClkInit->LtdcClockSelection));
 722:E:/LiteOS/LiteOS_Lab/drivers/third_party/ST/STM32L4xx_HAL_Driver/Src\stm32l4xx_hal_rcc_ex.c **** 
 723:E:/LiteOS/LiteOS_Lab/drivers/third_party/ST/STM32L4xx_HAL_Driver/Src\stm32l4xx_hal_rcc_ex.c ****     /* Disable the PLLSAI2 */
 724:E:/LiteOS/LiteOS_Lab/drivers/third_party/ST/STM32L4xx_HAL_Driver/Src\stm32l4xx_hal_rcc_ex.c ****     __HAL_RCC_PLLSAI2_DISABLE();
 725:E:/LiteOS/LiteOS_Lab/drivers/third_party/ST/STM32L4xx_HAL_Driver/Src\stm32l4xx_hal_rcc_ex.c **** 
 726:E:/LiteOS/LiteOS_Lab/drivers/third_party/ST/STM32L4xx_HAL_Driver/Src\stm32l4xx_hal_rcc_ex.c ****     /* Get Start Tick*/
 727:E:/LiteOS/LiteOS_Lab/drivers/third_party/ST/STM32L4xx_HAL_Driver/Src\stm32l4xx_hal_rcc_ex.c ****     tickstart = HAL_GetTick();
 728:E:/LiteOS/LiteOS_Lab/drivers/third_party/ST/STM32L4xx_HAL_Driver/Src\stm32l4xx_hal_rcc_ex.c **** 
 729:E:/LiteOS/LiteOS_Lab/drivers/third_party/ST/STM32L4xx_HAL_Driver/Src\stm32l4xx_hal_rcc_ex.c ****     /* Wait till PLLSAI2 is ready */
 730:E:/LiteOS/LiteOS_Lab/drivers/third_party/ST/STM32L4xx_HAL_Driver/Src\stm32l4xx_hal_rcc_ex.c ****     while(READ_BIT(RCC->CR, RCC_CR_PLLSAI2RDY) != RESET)
 731:E:/LiteOS/LiteOS_Lab/drivers/third_party/ST/STM32L4xx_HAL_Driver/Src\stm32l4xx_hal_rcc_ex.c ****     {
 732:E:/LiteOS/LiteOS_Lab/drivers/third_party/ST/STM32L4xx_HAL_Driver/Src\stm32l4xx_hal_rcc_ex.c ****       if((HAL_GetTick() - tickstart) > PLLSAI2_TIMEOUT_VALUE)
 733:E:/LiteOS/LiteOS_Lab/drivers/third_party/ST/STM32L4xx_HAL_Driver/Src\stm32l4xx_hal_rcc_ex.c ****       {
 734:E:/LiteOS/LiteOS_Lab/drivers/third_party/ST/STM32L4xx_HAL_Driver/Src\stm32l4xx_hal_rcc_ex.c ****         ret = HAL_TIMEOUT;
 735:E:/LiteOS/LiteOS_Lab/drivers/third_party/ST/STM32L4xx_HAL_Driver/Src\stm32l4xx_hal_rcc_ex.c ****         break;
 736:E:/LiteOS/LiteOS_Lab/drivers/third_party/ST/STM32L4xx_HAL_Driver/Src\stm32l4xx_hal_rcc_ex.c ****       }
 737:E:/LiteOS/LiteOS_Lab/drivers/third_party/ST/STM32L4xx_HAL_Driver/Src\stm32l4xx_hal_rcc_ex.c ****     }
 738:E:/LiteOS/LiteOS_Lab/drivers/third_party/ST/STM32L4xx_HAL_Driver/Src\stm32l4xx_hal_rcc_ex.c **** 
 739:E:/LiteOS/LiteOS_Lab/drivers/third_party/ST/STM32L4xx_HAL_Driver/Src\stm32l4xx_hal_rcc_ex.c ****     if(ret == HAL_OK)
 740:E:/LiteOS/LiteOS_Lab/drivers/third_party/ST/STM32L4xx_HAL_Driver/Src\stm32l4xx_hal_rcc_ex.c ****     {
 741:E:/LiteOS/LiteOS_Lab/drivers/third_party/ST/STM32L4xx_HAL_Driver/Src\stm32l4xx_hal_rcc_ex.c ****       /* Configure the LTDC clock source */
 742:E:/LiteOS/LiteOS_Lab/drivers/third_party/ST/STM32L4xx_HAL_Driver/Src\stm32l4xx_hal_rcc_ex.c ****       __HAL_RCC_LTDC_CONFIG(PeriphClkInit->LtdcClockSelection);
 743:E:/LiteOS/LiteOS_Lab/drivers/third_party/ST/STM32L4xx_HAL_Driver/Src\stm32l4xx_hal_rcc_ex.c **** 
 744:E:/LiteOS/LiteOS_Lab/drivers/third_party/ST/STM32L4xx_HAL_Driver/Src\stm32l4xx_hal_rcc_ex.c ****       /* PLLSAI2 input clock, parameters M, N & R configuration and clock output (PLLSAI2ClockOut) 
 745:E:/LiteOS/LiteOS_Lab/drivers/third_party/ST/STM32L4xx_HAL_Driver/Src\stm32l4xx_hal_rcc_ex.c ****       ret = RCCEx_PLLSAI2_Config(&(PeriphClkInit->PLLSAI2), DIVIDER_R_UPDATE);
 746:E:/LiteOS/LiteOS_Lab/drivers/third_party/ST/STM32L4xx_HAL_Driver/Src\stm32l4xx_hal_rcc_ex.c ****     }
 747:E:/LiteOS/LiteOS_Lab/drivers/third_party/ST/STM32L4xx_HAL_Driver/Src\stm32l4xx_hal_rcc_ex.c **** 
 748:E:/LiteOS/LiteOS_Lab/drivers/third_party/ST/STM32L4xx_HAL_Driver/Src\stm32l4xx_hal_rcc_ex.c ****     if(ret != HAL_OK)
 749:E:/LiteOS/LiteOS_Lab/drivers/third_party/ST/STM32L4xx_HAL_Driver/Src\stm32l4xx_hal_rcc_ex.c ****     {
 750:E:/LiteOS/LiteOS_Lab/drivers/third_party/ST/STM32L4xx_HAL_Driver/Src\stm32l4xx_hal_rcc_ex.c ****       /* set overall return value */
 751:E:/LiteOS/LiteOS_Lab/drivers/third_party/ST/STM32L4xx_HAL_Driver/Src\stm32l4xx_hal_rcc_ex.c ****       status = ret;
 752:E:/LiteOS/LiteOS_Lab/drivers/third_party/ST/STM32L4xx_HAL_Driver/Src\stm32l4xx_hal_rcc_ex.c ****     }
 753:E:/LiteOS/LiteOS_Lab/drivers/third_party/ST/STM32L4xx_HAL_Driver/Src\stm32l4xx_hal_rcc_ex.c ****   }
 754:E:/LiteOS/LiteOS_Lab/drivers/third_party/ST/STM32L4xx_HAL_Driver/Src\stm32l4xx_hal_rcc_ex.c **** 
 755:E:/LiteOS/LiteOS_Lab/drivers/third_party/ST/STM32L4xx_HAL_Driver/Src\stm32l4xx_hal_rcc_ex.c **** #endif /* LTDC */
 756:E:/LiteOS/LiteOS_Lab/drivers/third_party/ST/STM32L4xx_HAL_Driver/Src\stm32l4xx_hal_rcc_ex.c **** 
 757:E:/LiteOS/LiteOS_Lab/drivers/third_party/ST/STM32L4xx_HAL_Driver/Src\stm32l4xx_hal_rcc_ex.c **** #if defined(DSI)
 758:E:/LiteOS/LiteOS_Lab/drivers/third_party/ST/STM32L4xx_HAL_Driver/Src\stm32l4xx_hal_rcc_ex.c **** 
 759:E:/LiteOS/LiteOS_Lab/drivers/third_party/ST/STM32L4xx_HAL_Driver/Src\stm32l4xx_hal_rcc_ex.c ****   /*-------------------------- DSI clock source configuration ---------------------*/
 760:E:/LiteOS/LiteOS_Lab/drivers/third_party/ST/STM32L4xx_HAL_Driver/Src\stm32l4xx_hal_rcc_ex.c ****   if(((PeriphClkInit->PeriphClockSelection) & RCC_PERIPHCLK_DSI) == RCC_PERIPHCLK_DSI)
 761:E:/LiteOS/LiteOS_Lab/drivers/third_party/ST/STM32L4xx_HAL_Driver/Src\stm32l4xx_hal_rcc_ex.c ****   {
 762:E:/LiteOS/LiteOS_Lab/drivers/third_party/ST/STM32L4xx_HAL_Driver/Src\stm32l4xx_hal_rcc_ex.c ****     /* Check the parameters */
 763:E:/LiteOS/LiteOS_Lab/drivers/third_party/ST/STM32L4xx_HAL_Driver/Src\stm32l4xx_hal_rcc_ex.c ****     assert_param(IS_RCC_DSICLKSOURCE(PeriphClkInit->DsiClockSelection));
 764:E:/LiteOS/LiteOS_Lab/drivers/third_party/ST/STM32L4xx_HAL_Driver/Src\stm32l4xx_hal_rcc_ex.c **** 
 765:E:/LiteOS/LiteOS_Lab/drivers/third_party/ST/STM32L4xx_HAL_Driver/Src\stm32l4xx_hal_rcc_ex.c ****     /* Configure the DSI clock source */
 766:E:/LiteOS/LiteOS_Lab/drivers/third_party/ST/STM32L4xx_HAL_Driver/Src\stm32l4xx_hal_rcc_ex.c ****     __HAL_RCC_DSI_CONFIG(PeriphClkInit->DsiClockSelection);
 767:E:/LiteOS/LiteOS_Lab/drivers/third_party/ST/STM32L4xx_HAL_Driver/Src\stm32l4xx_hal_rcc_ex.c **** 
 768:E:/LiteOS/LiteOS_Lab/drivers/third_party/ST/STM32L4xx_HAL_Driver/Src\stm32l4xx_hal_rcc_ex.c ****     if(PeriphClkInit->DsiClockSelection == RCC_DSICLKSOURCE_PLLSAI2)
 769:E:/LiteOS/LiteOS_Lab/drivers/third_party/ST/STM32L4xx_HAL_Driver/Src\stm32l4xx_hal_rcc_ex.c ****     {
 770:E:/LiteOS/LiteOS_Lab/drivers/third_party/ST/STM32L4xx_HAL_Driver/Src\stm32l4xx_hal_rcc_ex.c ****       /* PLLSAI2 input clock, parameters M, N & Q configuration and clock output (PLLSAI2ClockOut) 
 771:E:/LiteOS/LiteOS_Lab/drivers/third_party/ST/STM32L4xx_HAL_Driver/Src\stm32l4xx_hal_rcc_ex.c ****       ret = RCCEx_PLLSAI2_Config(&(PeriphClkInit->PLLSAI2), DIVIDER_Q_UPDATE);
 772:E:/LiteOS/LiteOS_Lab/drivers/third_party/ST/STM32L4xx_HAL_Driver/Src\stm32l4xx_hal_rcc_ex.c **** 
 773:E:/LiteOS/LiteOS_Lab/drivers/third_party/ST/STM32L4xx_HAL_Driver/Src\stm32l4xx_hal_rcc_ex.c ****       if(ret != HAL_OK)
ARM GAS  C:\Users\user\AppData\Local\Temp\ccsJwa9Q.s 			page 25


 774:E:/LiteOS/LiteOS_Lab/drivers/third_party/ST/STM32L4xx_HAL_Driver/Src\stm32l4xx_hal_rcc_ex.c ****       {
 775:E:/LiteOS/LiteOS_Lab/drivers/third_party/ST/STM32L4xx_HAL_Driver/Src\stm32l4xx_hal_rcc_ex.c ****         /* set overall return value */
 776:E:/LiteOS/LiteOS_Lab/drivers/third_party/ST/STM32L4xx_HAL_Driver/Src\stm32l4xx_hal_rcc_ex.c ****         status = ret;
 777:E:/LiteOS/LiteOS_Lab/drivers/third_party/ST/STM32L4xx_HAL_Driver/Src\stm32l4xx_hal_rcc_ex.c ****       }
 778:E:/LiteOS/LiteOS_Lab/drivers/third_party/ST/STM32L4xx_HAL_Driver/Src\stm32l4xx_hal_rcc_ex.c ****     }
 779:E:/LiteOS/LiteOS_Lab/drivers/third_party/ST/STM32L4xx_HAL_Driver/Src\stm32l4xx_hal_rcc_ex.c ****   }
 780:E:/LiteOS/LiteOS_Lab/drivers/third_party/ST/STM32L4xx_HAL_Driver/Src\stm32l4xx_hal_rcc_ex.c **** 
 781:E:/LiteOS/LiteOS_Lab/drivers/third_party/ST/STM32L4xx_HAL_Driver/Src\stm32l4xx_hal_rcc_ex.c **** #endif /* DSI */
 782:E:/LiteOS/LiteOS_Lab/drivers/third_party/ST/STM32L4xx_HAL_Driver/Src\stm32l4xx_hal_rcc_ex.c **** 
 783:E:/LiteOS/LiteOS_Lab/drivers/third_party/ST/STM32L4xx_HAL_Driver/Src\stm32l4xx_hal_rcc_ex.c **** #if defined(OCTOSPI1) || defined(OCTOSPI2)
 784:E:/LiteOS/LiteOS_Lab/drivers/third_party/ST/STM32L4xx_HAL_Driver/Src\stm32l4xx_hal_rcc_ex.c **** 
 785:E:/LiteOS/LiteOS_Lab/drivers/third_party/ST/STM32L4xx_HAL_Driver/Src\stm32l4xx_hal_rcc_ex.c ****   /*-------------------------- OctoSPIx clock source configuration ----------------*/
 786:E:/LiteOS/LiteOS_Lab/drivers/third_party/ST/STM32L4xx_HAL_Driver/Src\stm32l4xx_hal_rcc_ex.c ****   if(((PeriphClkInit->PeriphClockSelection) & RCC_PERIPHCLK_OSPI) == RCC_PERIPHCLK_OSPI)
 787:E:/LiteOS/LiteOS_Lab/drivers/third_party/ST/STM32L4xx_HAL_Driver/Src\stm32l4xx_hal_rcc_ex.c ****   {
 788:E:/LiteOS/LiteOS_Lab/drivers/third_party/ST/STM32L4xx_HAL_Driver/Src\stm32l4xx_hal_rcc_ex.c ****     /* Check the parameters */
 789:E:/LiteOS/LiteOS_Lab/drivers/third_party/ST/STM32L4xx_HAL_Driver/Src\stm32l4xx_hal_rcc_ex.c ****     assert_param(IS_RCC_OSPICLKSOURCE(PeriphClkInit->OspiClockSelection));
 790:E:/LiteOS/LiteOS_Lab/drivers/third_party/ST/STM32L4xx_HAL_Driver/Src\stm32l4xx_hal_rcc_ex.c **** 
 791:E:/LiteOS/LiteOS_Lab/drivers/third_party/ST/STM32L4xx_HAL_Driver/Src\stm32l4xx_hal_rcc_ex.c ****     /* Configure the OctoSPI clock source */
 792:E:/LiteOS/LiteOS_Lab/drivers/third_party/ST/STM32L4xx_HAL_Driver/Src\stm32l4xx_hal_rcc_ex.c ****     __HAL_RCC_OSPI_CONFIG(PeriphClkInit->OspiClockSelection);
 793:E:/LiteOS/LiteOS_Lab/drivers/third_party/ST/STM32L4xx_HAL_Driver/Src\stm32l4xx_hal_rcc_ex.c **** 
 794:E:/LiteOS/LiteOS_Lab/drivers/third_party/ST/STM32L4xx_HAL_Driver/Src\stm32l4xx_hal_rcc_ex.c ****     if(PeriphClkInit->OspiClockSelection == RCC_OSPICLKSOURCE_PLL)
 795:E:/LiteOS/LiteOS_Lab/drivers/third_party/ST/STM32L4xx_HAL_Driver/Src\stm32l4xx_hal_rcc_ex.c ****     {
 796:E:/LiteOS/LiteOS_Lab/drivers/third_party/ST/STM32L4xx_HAL_Driver/Src\stm32l4xx_hal_rcc_ex.c ****       /* Enable PLL48M1CLK output */
 797:E:/LiteOS/LiteOS_Lab/drivers/third_party/ST/STM32L4xx_HAL_Driver/Src\stm32l4xx_hal_rcc_ex.c ****       __HAL_RCC_PLLCLKOUT_ENABLE(RCC_PLL_48M1CLK);
 798:E:/LiteOS/LiteOS_Lab/drivers/third_party/ST/STM32L4xx_HAL_Driver/Src\stm32l4xx_hal_rcc_ex.c ****     }
 799:E:/LiteOS/LiteOS_Lab/drivers/third_party/ST/STM32L4xx_HAL_Driver/Src\stm32l4xx_hal_rcc_ex.c ****   }
 800:E:/LiteOS/LiteOS_Lab/drivers/third_party/ST/STM32L4xx_HAL_Driver/Src\stm32l4xx_hal_rcc_ex.c **** 
 801:E:/LiteOS/LiteOS_Lab/drivers/third_party/ST/STM32L4xx_HAL_Driver/Src\stm32l4xx_hal_rcc_ex.c **** #endif /* OCTOSPI1 || OCTOSPI2 */
 802:E:/LiteOS/LiteOS_Lab/drivers/third_party/ST/STM32L4xx_HAL_Driver/Src\stm32l4xx_hal_rcc_ex.c **** 
 803:E:/LiteOS/LiteOS_Lab/drivers/third_party/ST/STM32L4xx_HAL_Driver/Src\stm32l4xx_hal_rcc_ex.c ****   return status;
 594              		.loc 1 803 0
 595 0418 BB7C     		ldrb	r3, [r7, #18]	@ zero_extendqisi2
 804:E:/LiteOS/LiteOS_Lab/drivers/third_party/ST/STM32L4xx_HAL_Driver/Src\stm32l4xx_hal_rcc_ex.c **** }
 596              		.loc 1 804 0
 597 041a 1846     		mov	r0, r3
 598 041c 1837     		adds	r7, r7, #24
 599              	.LCFI3:
 600              		.cfi_def_cfa_offset 8
 601 041e BD46     		mov	sp, r7
 602              	.LCFI4:
 603              		.cfi_def_cfa_register 13
 604              		@ sp needed
 605 0420 80BD     		pop	{r7, pc}
 606              	.L43:
 607 0422 00BF     		.align	2
 608              	.L42:
 609 0424 00100240 		.word	1073876992
 610              		.cfi_endproc
 611              	.LFE133:
 613              		.section	.text.HAL_RCCEx_GetPeriphCLKConfig,"ax",%progbits
 614              		.align	1
 615              		.global	HAL_RCCEx_GetPeriphCLKConfig
 616              		.syntax unified
 617              		.thumb
 618              		.thumb_func
 619              		.fpu fpv4-sp-d16
 621              	HAL_RCCEx_GetPeriphCLKConfig:
ARM GAS  C:\Users\user\AppData\Local\Temp\ccsJwa9Q.s 			page 26


 622              	.LFB134:
 805:E:/LiteOS/LiteOS_Lab/drivers/third_party/ST/STM32L4xx_HAL_Driver/Src\stm32l4xx_hal_rcc_ex.c **** 
 806:E:/LiteOS/LiteOS_Lab/drivers/third_party/ST/STM32L4xx_HAL_Driver/Src\stm32l4xx_hal_rcc_ex.c **** /**
 807:E:/LiteOS/LiteOS_Lab/drivers/third_party/ST/STM32L4xx_HAL_Driver/Src\stm32l4xx_hal_rcc_ex.c ****   * @brief  Get the RCC_ClkInitStruct according to the internal RCC configuration registers.
 808:E:/LiteOS/LiteOS_Lab/drivers/third_party/ST/STM32L4xx_HAL_Driver/Src\stm32l4xx_hal_rcc_ex.c ****   * @param  PeriphClkInit  pointer to an RCC_PeriphCLKInitTypeDef structure that
 809:E:/LiteOS/LiteOS_Lab/drivers/third_party/ST/STM32L4xx_HAL_Driver/Src\stm32l4xx_hal_rcc_ex.c ****   *         returns the configuration information for the Extended Peripherals
 810:E:/LiteOS/LiteOS_Lab/drivers/third_party/ST/STM32L4xx_HAL_Driver/Src\stm32l4xx_hal_rcc_ex.c ****   *         clocks(SAI1, SAI2, LPTIM1, LPTIM2, I2C1, I2C2, I2C3, I2C4, LPUART,
 811:E:/LiteOS/LiteOS_Lab/drivers/third_party/ST/STM32L4xx_HAL_Driver/Src\stm32l4xx_hal_rcc_ex.c ****   *         USART1, USART2, USART3, UART4, UART5, RTC, ADCx, DFSDMx, SWPMI1, USB, SDMMC1 and RNG).
 812:E:/LiteOS/LiteOS_Lab/drivers/third_party/ST/STM32L4xx_HAL_Driver/Src\stm32l4xx_hal_rcc_ex.c ****   * @retval None
 813:E:/LiteOS/LiteOS_Lab/drivers/third_party/ST/STM32L4xx_HAL_Driver/Src\stm32l4xx_hal_rcc_ex.c ****   */
 814:E:/LiteOS/LiteOS_Lab/drivers/third_party/ST/STM32L4xx_HAL_Driver/Src\stm32l4xx_hal_rcc_ex.c **** void HAL_RCCEx_GetPeriphCLKConfig(RCC_PeriphCLKInitTypeDef  *PeriphClkInit)
 815:E:/LiteOS/LiteOS_Lab/drivers/third_party/ST/STM32L4xx_HAL_Driver/Src\stm32l4xx_hal_rcc_ex.c **** {
 623              		.loc 1 815 0
 624              		.cfi_startproc
 625              		@ args = 0, pretend = 0, frame = 8
 626              		@ frame_needed = 1, uses_anonymous_args = 0
 627              		@ link register save eliminated.
 628 0000 80B4     		push	{r7}
 629              	.LCFI5:
 630              		.cfi_def_cfa_offset 4
 631              		.cfi_offset 7, -4
 632 0002 83B0     		sub	sp, sp, #12
 633              	.LCFI6:
 634              		.cfi_def_cfa_offset 16
 635 0004 00AF     		add	r7, sp, #0
 636              	.LCFI7:
 637              		.cfi_def_cfa_register 7
 638 0006 7860     		str	r0, [r7, #4]
 816:E:/LiteOS/LiteOS_Lab/drivers/third_party/ST/STM32L4xx_HAL_Driver/Src\stm32l4xx_hal_rcc_ex.c ****   /* Set all possible values for the extended clock type parameter------------*/
 817:E:/LiteOS/LiteOS_Lab/drivers/third_party/ST/STM32L4xx_HAL_Driver/Src\stm32l4xx_hal_rcc_ex.c **** 
 818:E:/LiteOS/LiteOS_Lab/drivers/third_party/ST/STM32L4xx_HAL_Driver/Src\stm32l4xx_hal_rcc_ex.c **** #if defined(STM32L431xx)
 819:E:/LiteOS/LiteOS_Lab/drivers/third_party/ST/STM32L4xx_HAL_Driver/Src\stm32l4xx_hal_rcc_ex.c **** 
 820:E:/LiteOS/LiteOS_Lab/drivers/third_party/ST/STM32L4xx_HAL_Driver/Src\stm32l4xx_hal_rcc_ex.c ****   PeriphClkInit->PeriphClockSelection = RCC_PERIPHCLK_USART1  | RCC_PERIPHCLK_USART2 | RCC_PERIPHCL
 639              		.loc 1 820 0
 640 0008 7B68     		ldr	r3, [r7, #4]
 641 000a 504A     		ldr	r2, .L45
 642 000c 1A60     		str	r2, [r3]
 821:E:/LiteOS/LiteOS_Lab/drivers/third_party/ST/STM32L4xx_HAL_Driver/Src\stm32l4xx_hal_rcc_ex.c ****                                         RCC_PERIPHCLK_LPUART1 | RCC_PERIPHCLK_I2C1   | RCC_PERIPHCL
 822:E:/LiteOS/LiteOS_Lab/drivers/third_party/ST/STM32L4xx_HAL_Driver/Src\stm32l4xx_hal_rcc_ex.c ****                                         RCC_PERIPHCLK_LPTIM1  | RCC_PERIPHCLK_LPTIM2 | RCC_PERIPHCL
 823:E:/LiteOS/LiteOS_Lab/drivers/third_party/ST/STM32L4xx_HAL_Driver/Src\stm32l4xx_hal_rcc_ex.c ****                                         RCC_PERIPHCLK_SDMMC1  | RCC_PERIPHCLK_RNG    | RCC_PERIPHCL
 824:E:/LiteOS/LiteOS_Lab/drivers/third_party/ST/STM32L4xx_HAL_Driver/Src\stm32l4xx_hal_rcc_ex.c ****                                         RCC_PERIPHCLK_RTC ;
 825:E:/LiteOS/LiteOS_Lab/drivers/third_party/ST/STM32L4xx_HAL_Driver/Src\stm32l4xx_hal_rcc_ex.c **** 
 826:E:/LiteOS/LiteOS_Lab/drivers/third_party/ST/STM32L4xx_HAL_Driver/Src\stm32l4xx_hal_rcc_ex.c **** #elif defined(STM32L432xx) || defined(STM32L442xx)
 827:E:/LiteOS/LiteOS_Lab/drivers/third_party/ST/STM32L4xx_HAL_Driver/Src\stm32l4xx_hal_rcc_ex.c **** 
 828:E:/LiteOS/LiteOS_Lab/drivers/third_party/ST/STM32L4xx_HAL_Driver/Src\stm32l4xx_hal_rcc_ex.c ****   PeriphClkInit->PeriphClockSelection = RCC_PERIPHCLK_USART1  | RCC_PERIPHCLK_USART2 |             
 829:E:/LiteOS/LiteOS_Lab/drivers/third_party/ST/STM32L4xx_HAL_Driver/Src\stm32l4xx_hal_rcc_ex.c ****                                         RCC_PERIPHCLK_LPUART1 | RCC_PERIPHCLK_I2C1   |             
 830:E:/LiteOS/LiteOS_Lab/drivers/third_party/ST/STM32L4xx_HAL_Driver/Src\stm32l4xx_hal_rcc_ex.c ****                                         RCC_PERIPHCLK_LPTIM1  | RCC_PERIPHCLK_LPTIM2 | RCC_PERIPHCL
 831:E:/LiteOS/LiteOS_Lab/drivers/third_party/ST/STM32L4xx_HAL_Driver/Src\stm32l4xx_hal_rcc_ex.c ****                                                                 RCC_PERIPHCLK_RNG    | RCC_PERIPHCL
 832:E:/LiteOS/LiteOS_Lab/drivers/third_party/ST/STM32L4xx_HAL_Driver/Src\stm32l4xx_hal_rcc_ex.c ****                                         RCC_PERIPHCLK_RTC ;
 833:E:/LiteOS/LiteOS_Lab/drivers/third_party/ST/STM32L4xx_HAL_Driver/Src\stm32l4xx_hal_rcc_ex.c **** 
 834:E:/LiteOS/LiteOS_Lab/drivers/third_party/ST/STM32L4xx_HAL_Driver/Src\stm32l4xx_hal_rcc_ex.c **** #elif defined(STM32L433xx) || defined(STM32L443xx)
 835:E:/LiteOS/LiteOS_Lab/drivers/third_party/ST/STM32L4xx_HAL_Driver/Src\stm32l4xx_hal_rcc_ex.c **** 
 836:E:/LiteOS/LiteOS_Lab/drivers/third_party/ST/STM32L4xx_HAL_Driver/Src\stm32l4xx_hal_rcc_ex.c ****   PeriphClkInit->PeriphClockSelection = RCC_PERIPHCLK_USART1  | RCC_PERIPHCLK_USART2 | RCC_PERIPHCL
 837:E:/LiteOS/LiteOS_Lab/drivers/third_party/ST/STM32L4xx_HAL_Driver/Src\stm32l4xx_hal_rcc_ex.c ****                                         RCC_PERIPHCLK_LPUART1 | RCC_PERIPHCLK_I2C1   | RCC_PERIPHCL
 838:E:/LiteOS/LiteOS_Lab/drivers/third_party/ST/STM32L4xx_HAL_Driver/Src\stm32l4xx_hal_rcc_ex.c ****                                         RCC_PERIPHCLK_LPTIM1  | RCC_PERIPHCLK_LPTIM2 | RCC_PERIPHCL
 839:E:/LiteOS/LiteOS_Lab/drivers/third_party/ST/STM32L4xx_HAL_Driver/Src\stm32l4xx_hal_rcc_ex.c ****                                         RCC_PERIPHCLK_SDMMC1  | RCC_PERIPHCLK_RNG    | RCC_PERIPHCL
 840:E:/LiteOS/LiteOS_Lab/drivers/third_party/ST/STM32L4xx_HAL_Driver/Src\stm32l4xx_hal_rcc_ex.c ****                                         RCC_PERIPHCLK_RTC ;
ARM GAS  C:\Users\user\AppData\Local\Temp\ccsJwa9Q.s 			page 27


 841:E:/LiteOS/LiteOS_Lab/drivers/third_party/ST/STM32L4xx_HAL_Driver/Src\stm32l4xx_hal_rcc_ex.c **** 
 842:E:/LiteOS/LiteOS_Lab/drivers/third_party/ST/STM32L4xx_HAL_Driver/Src\stm32l4xx_hal_rcc_ex.c **** #elif defined(STM32L451xx)
 843:E:/LiteOS/LiteOS_Lab/drivers/third_party/ST/STM32L4xx_HAL_Driver/Src\stm32l4xx_hal_rcc_ex.c **** 
 844:E:/LiteOS/LiteOS_Lab/drivers/third_party/ST/STM32L4xx_HAL_Driver/Src\stm32l4xx_hal_rcc_ex.c ****   PeriphClkInit->PeriphClockSelection = RCC_PERIPHCLK_USART1  | RCC_PERIPHCLK_USART2 | RCC_PERIPHCL
 845:E:/LiteOS/LiteOS_Lab/drivers/third_party/ST/STM32L4xx_HAL_Driver/Src\stm32l4xx_hal_rcc_ex.c ****                                         RCC_PERIPHCLK_LPUART1 | RCC_PERIPHCLK_I2C1   | RCC_PERIPHCL
 846:E:/LiteOS/LiteOS_Lab/drivers/third_party/ST/STM32L4xx_HAL_Driver/Src\stm32l4xx_hal_rcc_ex.c ****                                         RCC_PERIPHCLK_LPTIM1  | RCC_PERIPHCLK_LPTIM2 | RCC_PERIPHCL
 847:E:/LiteOS/LiteOS_Lab/drivers/third_party/ST/STM32L4xx_HAL_Driver/Src\stm32l4xx_hal_rcc_ex.c ****                                         RCC_PERIPHCLK_SDMMC1  | RCC_PERIPHCLK_RNG    | RCC_PERIPHCL
 848:E:/LiteOS/LiteOS_Lab/drivers/third_party/ST/STM32L4xx_HAL_Driver/Src\stm32l4xx_hal_rcc_ex.c ****                                         RCC_PERIPHCLK_RTC ;
 849:E:/LiteOS/LiteOS_Lab/drivers/third_party/ST/STM32L4xx_HAL_Driver/Src\stm32l4xx_hal_rcc_ex.c **** 
 850:E:/LiteOS/LiteOS_Lab/drivers/third_party/ST/STM32L4xx_HAL_Driver/Src\stm32l4xx_hal_rcc_ex.c **** #elif defined(STM32L452xx) || defined(STM32L462xx)
 851:E:/LiteOS/LiteOS_Lab/drivers/third_party/ST/STM32L4xx_HAL_Driver/Src\stm32l4xx_hal_rcc_ex.c **** 
 852:E:/LiteOS/LiteOS_Lab/drivers/third_party/ST/STM32L4xx_HAL_Driver/Src\stm32l4xx_hal_rcc_ex.c ****   PeriphClkInit->PeriphClockSelection = RCC_PERIPHCLK_USART1  | RCC_PERIPHCLK_USART2 | RCC_PERIPHCL
 853:E:/LiteOS/LiteOS_Lab/drivers/third_party/ST/STM32L4xx_HAL_Driver/Src\stm32l4xx_hal_rcc_ex.c ****                                         RCC_PERIPHCLK_LPUART1 | RCC_PERIPHCLK_I2C1   | RCC_PERIPHCL
 854:E:/LiteOS/LiteOS_Lab/drivers/third_party/ST/STM32L4xx_HAL_Driver/Src\stm32l4xx_hal_rcc_ex.c ****                                         RCC_PERIPHCLK_LPTIM1  | RCC_PERIPHCLK_LPTIM2 | RCC_PERIPHCL
 855:E:/LiteOS/LiteOS_Lab/drivers/third_party/ST/STM32L4xx_HAL_Driver/Src\stm32l4xx_hal_rcc_ex.c ****                                         RCC_PERIPHCLK_SDMMC1  | RCC_PERIPHCLK_RNG    | RCC_PERIPHCL
 856:E:/LiteOS/LiteOS_Lab/drivers/third_party/ST/STM32L4xx_HAL_Driver/Src\stm32l4xx_hal_rcc_ex.c ****                                         RCC_PERIPHCLK_RTC ;
 857:E:/LiteOS/LiteOS_Lab/drivers/third_party/ST/STM32L4xx_HAL_Driver/Src\stm32l4xx_hal_rcc_ex.c **** 
 858:E:/LiteOS/LiteOS_Lab/drivers/third_party/ST/STM32L4xx_HAL_Driver/Src\stm32l4xx_hal_rcc_ex.c **** #elif defined(STM32L471xx)
 859:E:/LiteOS/LiteOS_Lab/drivers/third_party/ST/STM32L4xx_HAL_Driver/Src\stm32l4xx_hal_rcc_ex.c **** 
 860:E:/LiteOS/LiteOS_Lab/drivers/third_party/ST/STM32L4xx_HAL_Driver/Src\stm32l4xx_hal_rcc_ex.c ****   PeriphClkInit->PeriphClockSelection = RCC_PERIPHCLK_USART1  | RCC_PERIPHCLK_USART2 | RCC_PERIPHCL
 861:E:/LiteOS/LiteOS_Lab/drivers/third_party/ST/STM32L4xx_HAL_Driver/Src\stm32l4xx_hal_rcc_ex.c ****                                         RCC_PERIPHCLK_LPUART1 | RCC_PERIPHCLK_I2C1   | RCC_PERIPHCL
 862:E:/LiteOS/LiteOS_Lab/drivers/third_party/ST/STM32L4xx_HAL_Driver/Src\stm32l4xx_hal_rcc_ex.c ****                                         RCC_PERIPHCLK_LPTIM1  | RCC_PERIPHCLK_LPTIM2 | RCC_PERIPHCL
 863:E:/LiteOS/LiteOS_Lab/drivers/third_party/ST/STM32L4xx_HAL_Driver/Src\stm32l4xx_hal_rcc_ex.c ****                                         RCC_PERIPHCLK_SDMMC1  | RCC_PERIPHCLK_RNG    | RCC_PERIPHCL
 864:E:/LiteOS/LiteOS_Lab/drivers/third_party/ST/STM32L4xx_HAL_Driver/Src\stm32l4xx_hal_rcc_ex.c ****                                         RCC_PERIPHCLK_RTC ;
 865:E:/LiteOS/LiteOS_Lab/drivers/third_party/ST/STM32L4xx_HAL_Driver/Src\stm32l4xx_hal_rcc_ex.c **** 
 866:E:/LiteOS/LiteOS_Lab/drivers/third_party/ST/STM32L4xx_HAL_Driver/Src\stm32l4xx_hal_rcc_ex.c **** #elif defined(STM32L475xx) || defined(STM32L476xx) || defined(STM32L485xx) || defined(STM32L486xx)
 867:E:/LiteOS/LiteOS_Lab/drivers/third_party/ST/STM32L4xx_HAL_Driver/Src\stm32l4xx_hal_rcc_ex.c **** 
 868:E:/LiteOS/LiteOS_Lab/drivers/third_party/ST/STM32L4xx_HAL_Driver/Src\stm32l4xx_hal_rcc_ex.c ****   PeriphClkInit->PeriphClockSelection = RCC_PERIPHCLK_USART1  | RCC_PERIPHCLK_USART2 | RCC_PERIPHCL
 869:E:/LiteOS/LiteOS_Lab/drivers/third_party/ST/STM32L4xx_HAL_Driver/Src\stm32l4xx_hal_rcc_ex.c ****                                         RCC_PERIPHCLK_LPUART1 | RCC_PERIPHCLK_I2C1   | RCC_PERIPHCL
 870:E:/LiteOS/LiteOS_Lab/drivers/third_party/ST/STM32L4xx_HAL_Driver/Src\stm32l4xx_hal_rcc_ex.c ****                                         RCC_PERIPHCLK_LPTIM1  | RCC_PERIPHCLK_LPTIM2 | RCC_PERIPHCL
 871:E:/LiteOS/LiteOS_Lab/drivers/third_party/ST/STM32L4xx_HAL_Driver/Src\stm32l4xx_hal_rcc_ex.c ****                                         RCC_PERIPHCLK_SDMMC1  | RCC_PERIPHCLK_RNG    | RCC_PERIPHCL
 872:E:/LiteOS/LiteOS_Lab/drivers/third_party/ST/STM32L4xx_HAL_Driver/Src\stm32l4xx_hal_rcc_ex.c ****                                         RCC_PERIPHCLK_RTC ;
 873:E:/LiteOS/LiteOS_Lab/drivers/third_party/ST/STM32L4xx_HAL_Driver/Src\stm32l4xx_hal_rcc_ex.c **** 
 874:E:/LiteOS/LiteOS_Lab/drivers/third_party/ST/STM32L4xx_HAL_Driver/Src\stm32l4xx_hal_rcc_ex.c **** #elif defined(STM32L496xx) || defined(STM32L4A6xx)
 875:E:/LiteOS/LiteOS_Lab/drivers/third_party/ST/STM32L4xx_HAL_Driver/Src\stm32l4xx_hal_rcc_ex.c **** 
 876:E:/LiteOS/LiteOS_Lab/drivers/third_party/ST/STM32L4xx_HAL_Driver/Src\stm32l4xx_hal_rcc_ex.c ****   PeriphClkInit->PeriphClockSelection = RCC_PERIPHCLK_USART1  | RCC_PERIPHCLK_USART2 | RCC_PERIPHCL
 877:E:/LiteOS/LiteOS_Lab/drivers/third_party/ST/STM32L4xx_HAL_Driver/Src\stm32l4xx_hal_rcc_ex.c ****                                         RCC_PERIPHCLK_LPUART1 | RCC_PERIPHCLK_I2C1   | RCC_PERIPHCL
 878:E:/LiteOS/LiteOS_Lab/drivers/third_party/ST/STM32L4xx_HAL_Driver/Src\stm32l4xx_hal_rcc_ex.c ****                                         RCC_PERIPHCLK_LPTIM1  | RCC_PERIPHCLK_LPTIM2 | RCC_PERIPHCL
 879:E:/LiteOS/LiteOS_Lab/drivers/third_party/ST/STM32L4xx_HAL_Driver/Src\stm32l4xx_hal_rcc_ex.c ****                                         RCC_PERIPHCLK_SDMMC1  | RCC_PERIPHCLK_RNG    | RCC_PERIPHCL
 880:E:/LiteOS/LiteOS_Lab/drivers/third_party/ST/STM32L4xx_HAL_Driver/Src\stm32l4xx_hal_rcc_ex.c ****                                         RCC_PERIPHCLK_RTC ;
 881:E:/LiteOS/LiteOS_Lab/drivers/third_party/ST/STM32L4xx_HAL_Driver/Src\stm32l4xx_hal_rcc_ex.c **** 
 882:E:/LiteOS/LiteOS_Lab/drivers/third_party/ST/STM32L4xx_HAL_Driver/Src\stm32l4xx_hal_rcc_ex.c **** #elif defined(STM32L4R5xx) || defined(STM32L4S5xx)
 883:E:/LiteOS/LiteOS_Lab/drivers/third_party/ST/STM32L4xx_HAL_Driver/Src\stm32l4xx_hal_rcc_ex.c **** 
 884:E:/LiteOS/LiteOS_Lab/drivers/third_party/ST/STM32L4xx_HAL_Driver/Src\stm32l4xx_hal_rcc_ex.c ****   PeriphClkInit->PeriphClockSelection = RCC_PERIPHCLK_USART1  | RCC_PERIPHCLK_USART2 | RCC_PERIPHCL
 885:E:/LiteOS/LiteOS_Lab/drivers/third_party/ST/STM32L4xx_HAL_Driver/Src\stm32l4xx_hal_rcc_ex.c ****                                         RCC_PERIPHCLK_LPUART1 | RCC_PERIPHCLK_I2C1   | RCC_PERIPHCL
 886:E:/LiteOS/LiteOS_Lab/drivers/third_party/ST/STM32L4xx_HAL_Driver/Src\stm32l4xx_hal_rcc_ex.c ****                                         RCC_PERIPHCLK_LPTIM1  | RCC_PERIPHCLK_LPTIM2 | RCC_PERIPHCL
 887:E:/LiteOS/LiteOS_Lab/drivers/third_party/ST/STM32L4xx_HAL_Driver/Src\stm32l4xx_hal_rcc_ex.c ****                                         RCC_PERIPHCLK_SDMMC1  | RCC_PERIPHCLK_RNG    | RCC_PERIPHCL
 888:E:/LiteOS/LiteOS_Lab/drivers/third_party/ST/STM32L4xx_HAL_Driver/Src\stm32l4xx_hal_rcc_ex.c ****                                         RCC_PERIPHCLK_DFSDM1AUDIO | RCC_PERIPHCLK_RTC | RCC_PERIPHC
 889:E:/LiteOS/LiteOS_Lab/drivers/third_party/ST/STM32L4xx_HAL_Driver/Src\stm32l4xx_hal_rcc_ex.c **** 
 890:E:/LiteOS/LiteOS_Lab/drivers/third_party/ST/STM32L4xx_HAL_Driver/Src\stm32l4xx_hal_rcc_ex.c **** #elif defined(STM32L4R7xx) || defined(STM32L4S7xx)
 891:E:/LiteOS/LiteOS_Lab/drivers/third_party/ST/STM32L4xx_HAL_Driver/Src\stm32l4xx_hal_rcc_ex.c **** 
 892:E:/LiteOS/LiteOS_Lab/drivers/third_party/ST/STM32L4xx_HAL_Driver/Src\stm32l4xx_hal_rcc_ex.c ****   PeriphClkInit->PeriphClockSelection = RCC_PERIPHCLK_USART1  | RCC_PERIPHCLK_USART2 | RCC_PERIPHCL
 893:E:/LiteOS/LiteOS_Lab/drivers/third_party/ST/STM32L4xx_HAL_Driver/Src\stm32l4xx_hal_rcc_ex.c ****                                         RCC_PERIPHCLK_LPUART1 | RCC_PERIPHCLK_I2C1   | RCC_PERIPHCL
 894:E:/LiteOS/LiteOS_Lab/drivers/third_party/ST/STM32L4xx_HAL_Driver/Src\stm32l4xx_hal_rcc_ex.c ****                                         RCC_PERIPHCLK_LPTIM1  | RCC_PERIPHCLK_LPTIM2 | RCC_PERIPHCL
 895:E:/LiteOS/LiteOS_Lab/drivers/third_party/ST/STM32L4xx_HAL_Driver/Src\stm32l4xx_hal_rcc_ex.c ****                                         RCC_PERIPHCLK_SDMMC1  | RCC_PERIPHCLK_RNG    | RCC_PERIPHCL
 896:E:/LiteOS/LiteOS_Lab/drivers/third_party/ST/STM32L4xx_HAL_Driver/Src\stm32l4xx_hal_rcc_ex.c ****                                         RCC_PERIPHCLK_DFSDM1AUDIO | RCC_PERIPHCLK_RTC | RCC_PERIPHC
 897:E:/LiteOS/LiteOS_Lab/drivers/third_party/ST/STM32L4xx_HAL_Driver/Src\stm32l4xx_hal_rcc_ex.c **** 
ARM GAS  C:\Users\user\AppData\Local\Temp\ccsJwa9Q.s 			page 28


 898:E:/LiteOS/LiteOS_Lab/drivers/third_party/ST/STM32L4xx_HAL_Driver/Src\stm32l4xx_hal_rcc_ex.c **** #elif defined(STM32L4R9xx) || defined(STM32L4S9xx)
 899:E:/LiteOS/LiteOS_Lab/drivers/third_party/ST/STM32L4xx_HAL_Driver/Src\stm32l4xx_hal_rcc_ex.c **** 
 900:E:/LiteOS/LiteOS_Lab/drivers/third_party/ST/STM32L4xx_HAL_Driver/Src\stm32l4xx_hal_rcc_ex.c ****   PeriphClkInit->PeriphClockSelection = RCC_PERIPHCLK_USART1  | RCC_PERIPHCLK_USART2 | RCC_PERIPHCL
 901:E:/LiteOS/LiteOS_Lab/drivers/third_party/ST/STM32L4xx_HAL_Driver/Src\stm32l4xx_hal_rcc_ex.c ****                                         RCC_PERIPHCLK_LPUART1 | RCC_PERIPHCLK_I2C1   | RCC_PERIPHCL
 902:E:/LiteOS/LiteOS_Lab/drivers/third_party/ST/STM32L4xx_HAL_Driver/Src\stm32l4xx_hal_rcc_ex.c ****                                         RCC_PERIPHCLK_LPTIM1  | RCC_PERIPHCLK_LPTIM2 | RCC_PERIPHCL
 903:E:/LiteOS/LiteOS_Lab/drivers/third_party/ST/STM32L4xx_HAL_Driver/Src\stm32l4xx_hal_rcc_ex.c ****                                         RCC_PERIPHCLK_SDMMC1  | RCC_PERIPHCLK_RNG    | RCC_PERIPHCL
 904:E:/LiteOS/LiteOS_Lab/drivers/third_party/ST/STM32L4xx_HAL_Driver/Src\stm32l4xx_hal_rcc_ex.c ****                                         RCC_PERIPHCLK_DFSDM1AUDIO | RCC_PERIPHCLK_RTC | RCC_PERIPHC
 905:E:/LiteOS/LiteOS_Lab/drivers/third_party/ST/STM32L4xx_HAL_Driver/Src\stm32l4xx_hal_rcc_ex.c **** 
 906:E:/LiteOS/LiteOS_Lab/drivers/third_party/ST/STM32L4xx_HAL_Driver/Src\stm32l4xx_hal_rcc_ex.c **** #endif /* STM32L431xx */
 907:E:/LiteOS/LiteOS_Lab/drivers/third_party/ST/STM32L4xx_HAL_Driver/Src\stm32l4xx_hal_rcc_ex.c **** 
 908:E:/LiteOS/LiteOS_Lab/drivers/third_party/ST/STM32L4xx_HAL_Driver/Src\stm32l4xx_hal_rcc_ex.c ****   /* Get the PLLSAI1 Clock configuration -----------------------------------------------*/
 909:E:/LiteOS/LiteOS_Lab/drivers/third_party/ST/STM32L4xx_HAL_Driver/Src\stm32l4xx_hal_rcc_ex.c **** 
 910:E:/LiteOS/LiteOS_Lab/drivers/third_party/ST/STM32L4xx_HAL_Driver/Src\stm32l4xx_hal_rcc_ex.c ****   PeriphClkInit->PLLSAI1.PLLSAI1Source = READ_BIT(RCC->PLLCFGR, RCC_PLLCFGR_PLLSRC) >> RCC_PLLCFGR_
 643              		.loc 1 910 0
 644 000e 504B     		ldr	r3, .L45+4
 645 0010 DB68     		ldr	r3, [r3, #12]
 646 0012 03F00302 		and	r2, r3, #3
 647 0016 7B68     		ldr	r3, [r7, #4]
 648 0018 5A60     		str	r2, [r3, #4]
 911:E:/LiteOS/LiteOS_Lab/drivers/third_party/ST/STM32L4xx_HAL_Driver/Src\stm32l4xx_hal_rcc_ex.c **** #if defined(RCC_PLLSAI1M_DIV_1_16_SUPPORT)
 912:E:/LiteOS/LiteOS_Lab/drivers/third_party/ST/STM32L4xx_HAL_Driver/Src\stm32l4xx_hal_rcc_ex.c ****   PeriphClkInit->PLLSAI1.PLLSAI1M = (READ_BIT(RCC->PLLSAI1CFGR, RCC_PLLSAI1CFGR_PLLSAI1M) >> RCC_PL
 913:E:/LiteOS/LiteOS_Lab/drivers/third_party/ST/STM32L4xx_HAL_Driver/Src\stm32l4xx_hal_rcc_ex.c **** #else
 914:E:/LiteOS/LiteOS_Lab/drivers/third_party/ST/STM32L4xx_HAL_Driver/Src\stm32l4xx_hal_rcc_ex.c ****   PeriphClkInit->PLLSAI1.PLLSAI1M = (READ_BIT(RCC->PLLCFGR, RCC_PLLCFGR_PLLM) >> RCC_PLLCFGR_PLLM_P
 649              		.loc 1 914 0
 650 001a 4D4B     		ldr	r3, .L45+4
 651 001c DB68     		ldr	r3, [r3, #12]
 652 001e 1B09     		lsrs	r3, r3, #4
 653 0020 03F00703 		and	r3, r3, #7
 654 0024 5A1C     		adds	r2, r3, #1
 655 0026 7B68     		ldr	r3, [r7, #4]
 656 0028 9A60     		str	r2, [r3, #8]
 915:E:/LiteOS/LiteOS_Lab/drivers/third_party/ST/STM32L4xx_HAL_Driver/Src\stm32l4xx_hal_rcc_ex.c **** #endif /* RCC_PLLSAI1M_DIV_1_16_SUPPORT */
 916:E:/LiteOS/LiteOS_Lab/drivers/third_party/ST/STM32L4xx_HAL_Driver/Src\stm32l4xx_hal_rcc_ex.c ****   PeriphClkInit->PLLSAI1.PLLSAI1N = READ_BIT(RCC->PLLSAI1CFGR, RCC_PLLSAI1CFGR_PLLSAI1N) >> RCC_PLL
 657              		.loc 1 916 0
 658 002a 494B     		ldr	r3, .L45+4
 659 002c 1B69     		ldr	r3, [r3, #16]
 660 002e 1B0A     		lsrs	r3, r3, #8
 661 0030 03F07F02 		and	r2, r3, #127
 662 0034 7B68     		ldr	r3, [r7, #4]
 663 0036 DA60     		str	r2, [r3, #12]
 917:E:/LiteOS/LiteOS_Lab/drivers/third_party/ST/STM32L4xx_HAL_Driver/Src\stm32l4xx_hal_rcc_ex.c ****   PeriphClkInit->PLLSAI1.PLLSAI1P = ((READ_BIT(RCC->PLLSAI1CFGR, RCC_PLLSAI1CFGR_PLLSAI1P) >> RCC_P
 664              		.loc 1 917 0
 665 0038 454B     		ldr	r3, .L45+4
 666 003a 1B69     		ldr	r3, [r3, #16]
 667 003c 5B0C     		lsrs	r3, r3, #17
 668 003e 1B01     		lsls	r3, r3, #4
 669 0040 03F01003 		and	r3, r3, #16
 670 0044 DA1D     		adds	r2, r3, #7
 671 0046 7B68     		ldr	r3, [r7, #4]
 672 0048 1A61     		str	r2, [r3, #16]
 918:E:/LiteOS/LiteOS_Lab/drivers/third_party/ST/STM32L4xx_HAL_Driver/Src\stm32l4xx_hal_rcc_ex.c ****   PeriphClkInit->PLLSAI1.PLLSAI1Q = ((READ_BIT(RCC->PLLSAI1CFGR, RCC_PLLSAI1CFGR_PLLSAI1Q) >> RCC_P
 673              		.loc 1 918 0
 674 004a 414B     		ldr	r3, .L45+4
 675 004c 1B69     		ldr	r3, [r3, #16]
 676 004e 5B0D     		lsrs	r3, r3, #21
 677 0050 03F00303 		and	r3, r3, #3
 678 0054 0133     		adds	r3, r3, #1
ARM GAS  C:\Users\user\AppData\Local\Temp\ccsJwa9Q.s 			page 29


 679 0056 5A00     		lsls	r2, r3, #1
 680 0058 7B68     		ldr	r3, [r7, #4]
 681 005a 5A61     		str	r2, [r3, #20]
 919:E:/LiteOS/LiteOS_Lab/drivers/third_party/ST/STM32L4xx_HAL_Driver/Src\stm32l4xx_hal_rcc_ex.c ****   PeriphClkInit->PLLSAI1.PLLSAI1R = ((READ_BIT(RCC->PLLSAI1CFGR, RCC_PLLSAI1CFGR_PLLSAI1R) >> RCC_P
 682              		.loc 1 919 0
 683 005c 3C4B     		ldr	r3, .L45+4
 684 005e 1B69     		ldr	r3, [r3, #16]
 685 0060 5B0E     		lsrs	r3, r3, #25
 686 0062 03F00303 		and	r3, r3, #3
 687 0066 0133     		adds	r3, r3, #1
 688 0068 5A00     		lsls	r2, r3, #1
 689 006a 7B68     		ldr	r3, [r7, #4]
 690 006c 9A61     		str	r2, [r3, #24]
 920:E:/LiteOS/LiteOS_Lab/drivers/third_party/ST/STM32L4xx_HAL_Driver/Src\stm32l4xx_hal_rcc_ex.c **** 
 921:E:/LiteOS/LiteOS_Lab/drivers/third_party/ST/STM32L4xx_HAL_Driver/Src\stm32l4xx_hal_rcc_ex.c **** #if defined(RCC_PLLSAI2_SUPPORT)
 922:E:/LiteOS/LiteOS_Lab/drivers/third_party/ST/STM32L4xx_HAL_Driver/Src\stm32l4xx_hal_rcc_ex.c **** 
 923:E:/LiteOS/LiteOS_Lab/drivers/third_party/ST/STM32L4xx_HAL_Driver/Src\stm32l4xx_hal_rcc_ex.c ****   /* Get the PLLSAI2 Clock configuration -----------------------------------------------*/
 924:E:/LiteOS/LiteOS_Lab/drivers/third_party/ST/STM32L4xx_HAL_Driver/Src\stm32l4xx_hal_rcc_ex.c **** 
 925:E:/LiteOS/LiteOS_Lab/drivers/third_party/ST/STM32L4xx_HAL_Driver/Src\stm32l4xx_hal_rcc_ex.c ****   PeriphClkInit->PLLSAI2.PLLSAI2Source = PeriphClkInit->PLLSAI1.PLLSAI1Source;
 926:E:/LiteOS/LiteOS_Lab/drivers/third_party/ST/STM32L4xx_HAL_Driver/Src\stm32l4xx_hal_rcc_ex.c **** #if defined(RCC_PLLSAI2M_DIV_1_16_SUPPORT)
 927:E:/LiteOS/LiteOS_Lab/drivers/third_party/ST/STM32L4xx_HAL_Driver/Src\stm32l4xx_hal_rcc_ex.c ****   PeriphClkInit->PLLSAI2.PLLSAI2M = (READ_BIT(RCC->PLLSAI2CFGR, RCC_PLLSAI2CFGR_PLLSAI2M) >> RCC_PL
 928:E:/LiteOS/LiteOS_Lab/drivers/third_party/ST/STM32L4xx_HAL_Driver/Src\stm32l4xx_hal_rcc_ex.c **** #else
 929:E:/LiteOS/LiteOS_Lab/drivers/third_party/ST/STM32L4xx_HAL_Driver/Src\stm32l4xx_hal_rcc_ex.c ****   PeriphClkInit->PLLSAI2.PLLSAI2M = PeriphClkInit->PLLSAI1.PLLSAI1M;
 930:E:/LiteOS/LiteOS_Lab/drivers/third_party/ST/STM32L4xx_HAL_Driver/Src\stm32l4xx_hal_rcc_ex.c **** #endif /* RCC_PLLSAI2M_DIV_1_16_SUPPORT */
 931:E:/LiteOS/LiteOS_Lab/drivers/third_party/ST/STM32L4xx_HAL_Driver/Src\stm32l4xx_hal_rcc_ex.c ****   PeriphClkInit->PLLSAI2.PLLSAI2N = READ_BIT(RCC->PLLSAI2CFGR, RCC_PLLSAI2CFGR_PLLSAI2N) >> RCC_PLL
 932:E:/LiteOS/LiteOS_Lab/drivers/third_party/ST/STM32L4xx_HAL_Driver/Src\stm32l4xx_hal_rcc_ex.c ****   PeriphClkInit->PLLSAI2.PLLSAI2P = ((READ_BIT(RCC->PLLSAI2CFGR, RCC_PLLSAI2CFGR_PLLSAI2P) >> RCC_P
 933:E:/LiteOS/LiteOS_Lab/drivers/third_party/ST/STM32L4xx_HAL_Driver/Src\stm32l4xx_hal_rcc_ex.c **** #if defined(RCC_PLLSAI2Q_DIV_SUPPORT)
 934:E:/LiteOS/LiteOS_Lab/drivers/third_party/ST/STM32L4xx_HAL_Driver/Src\stm32l4xx_hal_rcc_ex.c ****   PeriphClkInit->PLLSAI2.PLLSAI2Q = ((READ_BIT(RCC->PLLSAI2CFGR, RCC_PLLSAI2CFGR_PLLSAI2Q) >> RCC_P
 935:E:/LiteOS/LiteOS_Lab/drivers/third_party/ST/STM32L4xx_HAL_Driver/Src\stm32l4xx_hal_rcc_ex.c **** #endif /* RCC_PLLSAI2Q_DIV_SUPPORT */
 936:E:/LiteOS/LiteOS_Lab/drivers/third_party/ST/STM32L4xx_HAL_Driver/Src\stm32l4xx_hal_rcc_ex.c ****   PeriphClkInit->PLLSAI2.PLLSAI2R = ((READ_BIT(RCC->PLLSAI2CFGR, RCC_PLLSAI2CFGR_PLLSAI2R)>> RCC_PL
 937:E:/LiteOS/LiteOS_Lab/drivers/third_party/ST/STM32L4xx_HAL_Driver/Src\stm32l4xx_hal_rcc_ex.c **** 
 938:E:/LiteOS/LiteOS_Lab/drivers/third_party/ST/STM32L4xx_HAL_Driver/Src\stm32l4xx_hal_rcc_ex.c **** #endif /* RCC_PLLSAI2_SUPPORT */
 939:E:/LiteOS/LiteOS_Lab/drivers/third_party/ST/STM32L4xx_HAL_Driver/Src\stm32l4xx_hal_rcc_ex.c **** 
 940:E:/LiteOS/LiteOS_Lab/drivers/third_party/ST/STM32L4xx_HAL_Driver/Src\stm32l4xx_hal_rcc_ex.c ****   /* Get the USART1 clock source ---------------------------------------------*/
 941:E:/LiteOS/LiteOS_Lab/drivers/third_party/ST/STM32L4xx_HAL_Driver/Src\stm32l4xx_hal_rcc_ex.c ****   PeriphClkInit->Usart1ClockSelection  = __HAL_RCC_GET_USART1_SOURCE();
 691              		.loc 1 941 0
 692 006e 384B     		ldr	r3, .L45+4
 693 0070 D3F88830 		ldr	r3, [r3, #136]
 694 0074 03F00302 		and	r2, r3, #3
 695 0078 7B68     		ldr	r3, [r7, #4]
 696 007a 1A62     		str	r2, [r3, #32]
 942:E:/LiteOS/LiteOS_Lab/drivers/third_party/ST/STM32L4xx_HAL_Driver/Src\stm32l4xx_hal_rcc_ex.c ****   /* Get the USART2 clock source ---------------------------------------------*/
 943:E:/LiteOS/LiteOS_Lab/drivers/third_party/ST/STM32L4xx_HAL_Driver/Src\stm32l4xx_hal_rcc_ex.c ****   PeriphClkInit->Usart2ClockSelection  = __HAL_RCC_GET_USART2_SOURCE();
 697              		.loc 1 943 0
 698 007c 344B     		ldr	r3, .L45+4
 699 007e D3F88830 		ldr	r3, [r3, #136]
 700 0082 03F00C02 		and	r2, r3, #12
 701 0086 7B68     		ldr	r3, [r7, #4]
 702 0088 5A62     		str	r2, [r3, #36]
 944:E:/LiteOS/LiteOS_Lab/drivers/third_party/ST/STM32L4xx_HAL_Driver/Src\stm32l4xx_hal_rcc_ex.c **** 
 945:E:/LiteOS/LiteOS_Lab/drivers/third_party/ST/STM32L4xx_HAL_Driver/Src\stm32l4xx_hal_rcc_ex.c **** #if defined(USART3)
 946:E:/LiteOS/LiteOS_Lab/drivers/third_party/ST/STM32L4xx_HAL_Driver/Src\stm32l4xx_hal_rcc_ex.c ****   /* Get the USART3 clock source ---------------------------------------------*/
 947:E:/LiteOS/LiteOS_Lab/drivers/third_party/ST/STM32L4xx_HAL_Driver/Src\stm32l4xx_hal_rcc_ex.c ****   PeriphClkInit->Usart3ClockSelection  = __HAL_RCC_GET_USART3_SOURCE();
 703              		.loc 1 947 0
 704 008a 314B     		ldr	r3, .L45+4
 705 008c D3F88830 		ldr	r3, [r3, #136]
 706 0090 03F03002 		and	r2, r3, #48
ARM GAS  C:\Users\user\AppData\Local\Temp\ccsJwa9Q.s 			page 30


 707 0094 7B68     		ldr	r3, [r7, #4]
 708 0096 9A62     		str	r2, [r3, #40]
 948:E:/LiteOS/LiteOS_Lab/drivers/third_party/ST/STM32L4xx_HAL_Driver/Src\stm32l4xx_hal_rcc_ex.c **** #endif /* USART3 */
 949:E:/LiteOS/LiteOS_Lab/drivers/third_party/ST/STM32L4xx_HAL_Driver/Src\stm32l4xx_hal_rcc_ex.c **** 
 950:E:/LiteOS/LiteOS_Lab/drivers/third_party/ST/STM32L4xx_HAL_Driver/Src\stm32l4xx_hal_rcc_ex.c **** #if defined(UART4)
 951:E:/LiteOS/LiteOS_Lab/drivers/third_party/ST/STM32L4xx_HAL_Driver/Src\stm32l4xx_hal_rcc_ex.c ****   /* Get the UART4 clock source ----------------------------------------------*/
 952:E:/LiteOS/LiteOS_Lab/drivers/third_party/ST/STM32L4xx_HAL_Driver/Src\stm32l4xx_hal_rcc_ex.c ****   PeriphClkInit->Uart4ClockSelection   = __HAL_RCC_GET_UART4_SOURCE();
 953:E:/LiteOS/LiteOS_Lab/drivers/third_party/ST/STM32L4xx_HAL_Driver/Src\stm32l4xx_hal_rcc_ex.c **** #endif /* UART4 */
 954:E:/LiteOS/LiteOS_Lab/drivers/third_party/ST/STM32L4xx_HAL_Driver/Src\stm32l4xx_hal_rcc_ex.c **** 
 955:E:/LiteOS/LiteOS_Lab/drivers/third_party/ST/STM32L4xx_HAL_Driver/Src\stm32l4xx_hal_rcc_ex.c **** #if defined(UART5)
 956:E:/LiteOS/LiteOS_Lab/drivers/third_party/ST/STM32L4xx_HAL_Driver/Src\stm32l4xx_hal_rcc_ex.c ****   /* Get the UART5 clock source ----------------------------------------------*/
 957:E:/LiteOS/LiteOS_Lab/drivers/third_party/ST/STM32L4xx_HAL_Driver/Src\stm32l4xx_hal_rcc_ex.c ****   PeriphClkInit->Uart5ClockSelection   = __HAL_RCC_GET_UART5_SOURCE();
 958:E:/LiteOS/LiteOS_Lab/drivers/third_party/ST/STM32L4xx_HAL_Driver/Src\stm32l4xx_hal_rcc_ex.c **** #endif /* UART5 */
 959:E:/LiteOS/LiteOS_Lab/drivers/third_party/ST/STM32L4xx_HAL_Driver/Src\stm32l4xx_hal_rcc_ex.c **** 
 960:E:/LiteOS/LiteOS_Lab/drivers/third_party/ST/STM32L4xx_HAL_Driver/Src\stm32l4xx_hal_rcc_ex.c ****   /* Get the LPUART1 clock source --------------------------------------------*/
 961:E:/LiteOS/LiteOS_Lab/drivers/third_party/ST/STM32L4xx_HAL_Driver/Src\stm32l4xx_hal_rcc_ex.c ****   PeriphClkInit->Lpuart1ClockSelection = __HAL_RCC_GET_LPUART1_SOURCE();
 709              		.loc 1 961 0
 710 0098 2D4B     		ldr	r3, .L45+4
 711 009a D3F88830 		ldr	r3, [r3, #136]
 712 009e 03F44062 		and	r2, r3, #3072
 713 00a2 7B68     		ldr	r3, [r7, #4]
 714 00a4 DA62     		str	r2, [r3, #44]
 962:E:/LiteOS/LiteOS_Lab/drivers/third_party/ST/STM32L4xx_HAL_Driver/Src\stm32l4xx_hal_rcc_ex.c **** 
 963:E:/LiteOS/LiteOS_Lab/drivers/third_party/ST/STM32L4xx_HAL_Driver/Src\stm32l4xx_hal_rcc_ex.c ****   /* Get the I2C1 clock source -----------------------------------------------*/
 964:E:/LiteOS/LiteOS_Lab/drivers/third_party/ST/STM32L4xx_HAL_Driver/Src\stm32l4xx_hal_rcc_ex.c ****   PeriphClkInit->I2c1ClockSelection    = __HAL_RCC_GET_I2C1_SOURCE();
 715              		.loc 1 964 0
 716 00a6 2A4B     		ldr	r3, .L45+4
 717 00a8 D3F88830 		ldr	r3, [r3, #136]
 718 00ac 03F44052 		and	r2, r3, #12288
 719 00b0 7B68     		ldr	r3, [r7, #4]
 720 00b2 1A63     		str	r2, [r3, #48]
 965:E:/LiteOS/LiteOS_Lab/drivers/third_party/ST/STM32L4xx_HAL_Driver/Src\stm32l4xx_hal_rcc_ex.c **** 
 966:E:/LiteOS/LiteOS_Lab/drivers/third_party/ST/STM32L4xx_HAL_Driver/Src\stm32l4xx_hal_rcc_ex.c **** #if defined(I2C2)
 967:E:/LiteOS/LiteOS_Lab/drivers/third_party/ST/STM32L4xx_HAL_Driver/Src\stm32l4xx_hal_rcc_ex.c ****    /* Get the I2C2 clock source ----------------------------------------------*/
 968:E:/LiteOS/LiteOS_Lab/drivers/third_party/ST/STM32L4xx_HAL_Driver/Src\stm32l4xx_hal_rcc_ex.c ****   PeriphClkInit->I2c2ClockSelection    = __HAL_RCC_GET_I2C2_SOURCE();
 721              		.loc 1 968 0
 722 00b4 264B     		ldr	r3, .L45+4
 723 00b6 D3F88830 		ldr	r3, [r3, #136]
 724 00ba 03F44042 		and	r2, r3, #49152
 725 00be 7B68     		ldr	r3, [r7, #4]
 726 00c0 5A63     		str	r2, [r3, #52]
 969:E:/LiteOS/LiteOS_Lab/drivers/third_party/ST/STM32L4xx_HAL_Driver/Src\stm32l4xx_hal_rcc_ex.c **** #endif /* I2C2 */
 970:E:/LiteOS/LiteOS_Lab/drivers/third_party/ST/STM32L4xx_HAL_Driver/Src\stm32l4xx_hal_rcc_ex.c **** 
 971:E:/LiteOS/LiteOS_Lab/drivers/third_party/ST/STM32L4xx_HAL_Driver/Src\stm32l4xx_hal_rcc_ex.c ****   /* Get the I2C3 clock source -----------------------------------------------*/
 972:E:/LiteOS/LiteOS_Lab/drivers/third_party/ST/STM32L4xx_HAL_Driver/Src\stm32l4xx_hal_rcc_ex.c ****   PeriphClkInit->I2c3ClockSelection    = __HAL_RCC_GET_I2C3_SOURCE();
 727              		.loc 1 972 0
 728 00c2 234B     		ldr	r3, .L45+4
 729 00c4 D3F88830 		ldr	r3, [r3, #136]
 730 00c8 03F44032 		and	r2, r3, #196608
 731 00cc 7B68     		ldr	r3, [r7, #4]
 732 00ce 9A63     		str	r2, [r3, #56]
 973:E:/LiteOS/LiteOS_Lab/drivers/third_party/ST/STM32L4xx_HAL_Driver/Src\stm32l4xx_hal_rcc_ex.c **** 
 974:E:/LiteOS/LiteOS_Lab/drivers/third_party/ST/STM32L4xx_HAL_Driver/Src\stm32l4xx_hal_rcc_ex.c **** #if defined(I2C4)
 975:E:/LiteOS/LiteOS_Lab/drivers/third_party/ST/STM32L4xx_HAL_Driver/Src\stm32l4xx_hal_rcc_ex.c ****   /* Get the I2C4 clock source -----------------------------------------------*/
 976:E:/LiteOS/LiteOS_Lab/drivers/third_party/ST/STM32L4xx_HAL_Driver/Src\stm32l4xx_hal_rcc_ex.c ****   PeriphClkInit->I2c4ClockSelection    = __HAL_RCC_GET_I2C4_SOURCE();
 977:E:/LiteOS/LiteOS_Lab/drivers/third_party/ST/STM32L4xx_HAL_Driver/Src\stm32l4xx_hal_rcc_ex.c **** #endif /* I2C4 */
 978:E:/LiteOS/LiteOS_Lab/drivers/third_party/ST/STM32L4xx_HAL_Driver/Src\stm32l4xx_hal_rcc_ex.c **** 
ARM GAS  C:\Users\user\AppData\Local\Temp\ccsJwa9Q.s 			page 31


 979:E:/LiteOS/LiteOS_Lab/drivers/third_party/ST/STM32L4xx_HAL_Driver/Src\stm32l4xx_hal_rcc_ex.c ****   /* Get the LPTIM1 clock source ---------------------------------------------*/
 980:E:/LiteOS/LiteOS_Lab/drivers/third_party/ST/STM32L4xx_HAL_Driver/Src\stm32l4xx_hal_rcc_ex.c ****   PeriphClkInit->Lptim1ClockSelection  = __HAL_RCC_GET_LPTIM1_SOURCE();
 733              		.loc 1 980 0
 734 00d0 1F4B     		ldr	r3, .L45+4
 735 00d2 D3F88830 		ldr	r3, [r3, #136]
 736 00d6 03F44022 		and	r2, r3, #786432
 737 00da 7B68     		ldr	r3, [r7, #4]
 738 00dc DA63     		str	r2, [r3, #60]
 981:E:/LiteOS/LiteOS_Lab/drivers/third_party/ST/STM32L4xx_HAL_Driver/Src\stm32l4xx_hal_rcc_ex.c **** 
 982:E:/LiteOS/LiteOS_Lab/drivers/third_party/ST/STM32L4xx_HAL_Driver/Src\stm32l4xx_hal_rcc_ex.c ****   /* Get the LPTIM2 clock source ---------------------------------------------*/
 983:E:/LiteOS/LiteOS_Lab/drivers/third_party/ST/STM32L4xx_HAL_Driver/Src\stm32l4xx_hal_rcc_ex.c ****   PeriphClkInit->Lptim2ClockSelection  = __HAL_RCC_GET_LPTIM2_SOURCE();
 739              		.loc 1 983 0
 740 00de 1C4B     		ldr	r3, .L45+4
 741 00e0 D3F88830 		ldr	r3, [r3, #136]
 742 00e4 03F44012 		and	r2, r3, #3145728
 743 00e8 7B68     		ldr	r3, [r7, #4]
 744 00ea 1A64     		str	r2, [r3, #64]
 984:E:/LiteOS/LiteOS_Lab/drivers/third_party/ST/STM32L4xx_HAL_Driver/Src\stm32l4xx_hal_rcc_ex.c **** 
 985:E:/LiteOS/LiteOS_Lab/drivers/third_party/ST/STM32L4xx_HAL_Driver/Src\stm32l4xx_hal_rcc_ex.c ****   /* Get the SAI1 clock source -----------------------------------------------*/
 986:E:/LiteOS/LiteOS_Lab/drivers/third_party/ST/STM32L4xx_HAL_Driver/Src\stm32l4xx_hal_rcc_ex.c ****   PeriphClkInit->Sai1ClockSelection    = __HAL_RCC_GET_SAI1_SOURCE();
 745              		.loc 1 986 0
 746 00ec 184B     		ldr	r3, .L45+4
 747 00ee D3F88830 		ldr	r3, [r3, #136]
 748 00f2 03F44002 		and	r2, r3, #12582912
 749 00f6 7B68     		ldr	r3, [r7, #4]
 750 00f8 5A64     		str	r2, [r3, #68]
 987:E:/LiteOS/LiteOS_Lab/drivers/third_party/ST/STM32L4xx_HAL_Driver/Src\stm32l4xx_hal_rcc_ex.c **** 
 988:E:/LiteOS/LiteOS_Lab/drivers/third_party/ST/STM32L4xx_HAL_Driver/Src\stm32l4xx_hal_rcc_ex.c **** #if defined(SAI2)
 989:E:/LiteOS/LiteOS_Lab/drivers/third_party/ST/STM32L4xx_HAL_Driver/Src\stm32l4xx_hal_rcc_ex.c ****   /* Get the SAI2 clock source -----------------------------------------------*/
 990:E:/LiteOS/LiteOS_Lab/drivers/third_party/ST/STM32L4xx_HAL_Driver/Src\stm32l4xx_hal_rcc_ex.c ****   PeriphClkInit->Sai2ClockSelection    = __HAL_RCC_GET_SAI2_SOURCE();
 991:E:/LiteOS/LiteOS_Lab/drivers/third_party/ST/STM32L4xx_HAL_Driver/Src\stm32l4xx_hal_rcc_ex.c **** #endif /* SAI2 */
 992:E:/LiteOS/LiteOS_Lab/drivers/third_party/ST/STM32L4xx_HAL_Driver/Src\stm32l4xx_hal_rcc_ex.c **** 
 993:E:/LiteOS/LiteOS_Lab/drivers/third_party/ST/STM32L4xx_HAL_Driver/Src\stm32l4xx_hal_rcc_ex.c ****   /* Get the RTC clock source ------------------------------------------------*/
 994:E:/LiteOS/LiteOS_Lab/drivers/third_party/ST/STM32L4xx_HAL_Driver/Src\stm32l4xx_hal_rcc_ex.c ****   PeriphClkInit->RTCClockSelection     = __HAL_RCC_GET_RTC_SOURCE();
 751              		.loc 1 994 0
 752 00fa 154B     		ldr	r3, .L45+4
 753 00fc D3F89030 		ldr	r3, [r3, #144]
 754 0100 03F44072 		and	r2, r3, #768
 755 0104 7B68     		ldr	r3, [r7, #4]
 756 0106 9A65     		str	r2, [r3, #88]
 995:E:/LiteOS/LiteOS_Lab/drivers/third_party/ST/STM32L4xx_HAL_Driver/Src\stm32l4xx_hal_rcc_ex.c **** 
 996:E:/LiteOS/LiteOS_Lab/drivers/third_party/ST/STM32L4xx_HAL_Driver/Src\stm32l4xx_hal_rcc_ex.c **** #if defined(USB_OTG_FS) || defined(USB)
 997:E:/LiteOS/LiteOS_Lab/drivers/third_party/ST/STM32L4xx_HAL_Driver/Src\stm32l4xx_hal_rcc_ex.c ****   /* Get the USB clock source ------------------------------------------------*/
 998:E:/LiteOS/LiteOS_Lab/drivers/third_party/ST/STM32L4xx_HAL_Driver/Src\stm32l4xx_hal_rcc_ex.c ****   PeriphClkInit->UsbClockSelection   = __HAL_RCC_GET_USB_SOURCE();
 999:E:/LiteOS/LiteOS_Lab/drivers/third_party/ST/STM32L4xx_HAL_Driver/Src\stm32l4xx_hal_rcc_ex.c **** #endif /* USB_OTG_FS || USB */
1000:E:/LiteOS/LiteOS_Lab/drivers/third_party/ST/STM32L4xx_HAL_Driver/Src\stm32l4xx_hal_rcc_ex.c **** 
1001:E:/LiteOS/LiteOS_Lab/drivers/third_party/ST/STM32L4xx_HAL_Driver/Src\stm32l4xx_hal_rcc_ex.c **** #if defined(SDMMC1)
1002:E:/LiteOS/LiteOS_Lab/drivers/third_party/ST/STM32L4xx_HAL_Driver/Src\stm32l4xx_hal_rcc_ex.c ****   /* Get the SDMMC1 clock source ---------------------------------------------*/
1003:E:/LiteOS/LiteOS_Lab/drivers/third_party/ST/STM32L4xx_HAL_Driver/Src\stm32l4xx_hal_rcc_ex.c ****   PeriphClkInit->Sdmmc1ClockSelection   = __HAL_RCC_GET_SDMMC1_SOURCE();
 757              		.loc 1 1003 0
 758 0108 114B     		ldr	r3, .L45+4
 759 010a D3F88830 		ldr	r3, [r3, #136]
 760 010e 03F04062 		and	r2, r3, #201326592
 761 0112 7B68     		ldr	r3, [r7, #4]
 762 0114 9A64     		str	r2, [r3, #72]
1004:E:/LiteOS/LiteOS_Lab/drivers/third_party/ST/STM32L4xx_HAL_Driver/Src\stm32l4xx_hal_rcc_ex.c **** #endif /* SDMMC1 */
1005:E:/LiteOS/LiteOS_Lab/drivers/third_party/ST/STM32L4xx_HAL_Driver/Src\stm32l4xx_hal_rcc_ex.c **** 
ARM GAS  C:\Users\user\AppData\Local\Temp\ccsJwa9Q.s 			page 32


1006:E:/LiteOS/LiteOS_Lab/drivers/third_party/ST/STM32L4xx_HAL_Driver/Src\stm32l4xx_hal_rcc_ex.c ****   /* Get the RNG clock source ------------------------------------------------*/
1007:E:/LiteOS/LiteOS_Lab/drivers/third_party/ST/STM32L4xx_HAL_Driver/Src\stm32l4xx_hal_rcc_ex.c ****   PeriphClkInit->RngClockSelection   = __HAL_RCC_GET_RNG_SOURCE();
 763              		.loc 1 1007 0
 764 0116 0E4B     		ldr	r3, .L45+4
 765 0118 D3F88830 		ldr	r3, [r3, #136]
 766 011c 03F04062 		and	r2, r3, #201326592
 767 0120 7B68     		ldr	r3, [r7, #4]
 768 0122 DA64     		str	r2, [r3, #76]
1008:E:/LiteOS/LiteOS_Lab/drivers/third_party/ST/STM32L4xx_HAL_Driver/Src\stm32l4xx_hal_rcc_ex.c **** 
1009:E:/LiteOS/LiteOS_Lab/drivers/third_party/ST/STM32L4xx_HAL_Driver/Src\stm32l4xx_hal_rcc_ex.c ****   /* Get the ADC clock source ------------------------------------------------*/
1010:E:/LiteOS/LiteOS_Lab/drivers/third_party/ST/STM32L4xx_HAL_Driver/Src\stm32l4xx_hal_rcc_ex.c ****   PeriphClkInit->AdcClockSelection     = __HAL_RCC_GET_ADC_SOURCE();
 769              		.loc 1 1010 0
 770 0124 0A4B     		ldr	r3, .L45+4
 771 0126 D3F88830 		ldr	r3, [r3, #136]
 772 012a 03F04052 		and	r2, r3, #805306368
 773 012e 7B68     		ldr	r3, [r7, #4]
 774 0130 1A65     		str	r2, [r3, #80]
1011:E:/LiteOS/LiteOS_Lab/drivers/third_party/ST/STM32L4xx_HAL_Driver/Src\stm32l4xx_hal_rcc_ex.c **** 
1012:E:/LiteOS/LiteOS_Lab/drivers/third_party/ST/STM32L4xx_HAL_Driver/Src\stm32l4xx_hal_rcc_ex.c **** #if defined(SWPMI1)
1013:E:/LiteOS/LiteOS_Lab/drivers/third_party/ST/STM32L4xx_HAL_Driver/Src\stm32l4xx_hal_rcc_ex.c ****   /* Get the SWPMI1 clock source ---------------------------------------------*/
1014:E:/LiteOS/LiteOS_Lab/drivers/third_party/ST/STM32L4xx_HAL_Driver/Src\stm32l4xx_hal_rcc_ex.c ****   PeriphClkInit->Swpmi1ClockSelection  = __HAL_RCC_GET_SWPMI1_SOURCE();
 775              		.loc 1 1014 0
 776 0132 074B     		ldr	r3, .L45+4
 777 0134 D3F88830 		ldr	r3, [r3, #136]
 778 0138 03F08042 		and	r2, r3, #1073741824
 779 013c 7B68     		ldr	r3, [r7, #4]
 780 013e 5A65     		str	r2, [r3, #84]
1015:E:/LiteOS/LiteOS_Lab/drivers/third_party/ST/STM32L4xx_HAL_Driver/Src\stm32l4xx_hal_rcc_ex.c **** #endif /* SWPMI1 */
1016:E:/LiteOS/LiteOS_Lab/drivers/third_party/ST/STM32L4xx_HAL_Driver/Src\stm32l4xx_hal_rcc_ex.c **** 
1017:E:/LiteOS/LiteOS_Lab/drivers/third_party/ST/STM32L4xx_HAL_Driver/Src\stm32l4xx_hal_rcc_ex.c **** #if defined(DFSDM1_Filter0)
1018:E:/LiteOS/LiteOS_Lab/drivers/third_party/ST/STM32L4xx_HAL_Driver/Src\stm32l4xx_hal_rcc_ex.c ****   /* Get the DFSDM1 clock source ---------------------------------------------*/
1019:E:/LiteOS/LiteOS_Lab/drivers/third_party/ST/STM32L4xx_HAL_Driver/Src\stm32l4xx_hal_rcc_ex.c ****   PeriphClkInit->Dfsdm1ClockSelection  = __HAL_RCC_GET_DFSDM1_SOURCE();
1020:E:/LiteOS/LiteOS_Lab/drivers/third_party/ST/STM32L4xx_HAL_Driver/Src\stm32l4xx_hal_rcc_ex.c **** 
1021:E:/LiteOS/LiteOS_Lab/drivers/third_party/ST/STM32L4xx_HAL_Driver/Src\stm32l4xx_hal_rcc_ex.c **** #if defined(STM32L4R5xx) || defined(STM32L4R7xx) || defined(STM32L4R9xx) || defined(STM32L4S5xx) ||
1022:E:/LiteOS/LiteOS_Lab/drivers/third_party/ST/STM32L4xx_HAL_Driver/Src\stm32l4xx_hal_rcc_ex.c ****   /* Get the DFSDM1 audio clock source ---------------------------------------*/
1023:E:/LiteOS/LiteOS_Lab/drivers/third_party/ST/STM32L4xx_HAL_Driver/Src\stm32l4xx_hal_rcc_ex.c ****   PeriphClkInit->Dfsdm1AudioClockSelection  = __HAL_RCC_GET_DFSDM1AUDIO_SOURCE();
1024:E:/LiteOS/LiteOS_Lab/drivers/third_party/ST/STM32L4xx_HAL_Driver/Src\stm32l4xx_hal_rcc_ex.c **** #endif /* STM32L4R5xx || STM32L4R7xx || STM32L4R9xx || STM32L4S5xx || STM32L4S7xx || STM32L4S9xx */
1025:E:/LiteOS/LiteOS_Lab/drivers/third_party/ST/STM32L4xx_HAL_Driver/Src\stm32l4xx_hal_rcc_ex.c **** #endif /* DFSDM1_Filter0 */
1026:E:/LiteOS/LiteOS_Lab/drivers/third_party/ST/STM32L4xx_HAL_Driver/Src\stm32l4xx_hal_rcc_ex.c **** 
1027:E:/LiteOS/LiteOS_Lab/drivers/third_party/ST/STM32L4xx_HAL_Driver/Src\stm32l4xx_hal_rcc_ex.c **** #if defined(LTDC)
1028:E:/LiteOS/LiteOS_Lab/drivers/third_party/ST/STM32L4xx_HAL_Driver/Src\stm32l4xx_hal_rcc_ex.c ****   /* Get the LTDC clock source -----------------------------------------------*/
1029:E:/LiteOS/LiteOS_Lab/drivers/third_party/ST/STM32L4xx_HAL_Driver/Src\stm32l4xx_hal_rcc_ex.c ****   PeriphClkInit->LtdcClockSelection = __HAL_RCC_GET_LTDC_SOURCE();
1030:E:/LiteOS/LiteOS_Lab/drivers/third_party/ST/STM32L4xx_HAL_Driver/Src\stm32l4xx_hal_rcc_ex.c **** #endif /* LTDC */
1031:E:/LiteOS/LiteOS_Lab/drivers/third_party/ST/STM32L4xx_HAL_Driver/Src\stm32l4xx_hal_rcc_ex.c **** 
1032:E:/LiteOS/LiteOS_Lab/drivers/third_party/ST/STM32L4xx_HAL_Driver/Src\stm32l4xx_hal_rcc_ex.c **** #if defined(DSI)
1033:E:/LiteOS/LiteOS_Lab/drivers/third_party/ST/STM32L4xx_HAL_Driver/Src\stm32l4xx_hal_rcc_ex.c ****   /* Get the DSI clock source ------------------------------------------------*/
1034:E:/LiteOS/LiteOS_Lab/drivers/third_party/ST/STM32L4xx_HAL_Driver/Src\stm32l4xx_hal_rcc_ex.c ****   PeriphClkInit->DsiClockSelection = __HAL_RCC_GET_DSI_SOURCE();
1035:E:/LiteOS/LiteOS_Lab/drivers/third_party/ST/STM32L4xx_HAL_Driver/Src\stm32l4xx_hal_rcc_ex.c **** #endif /* DSI */
1036:E:/LiteOS/LiteOS_Lab/drivers/third_party/ST/STM32L4xx_HAL_Driver/Src\stm32l4xx_hal_rcc_ex.c **** 
1037:E:/LiteOS/LiteOS_Lab/drivers/third_party/ST/STM32L4xx_HAL_Driver/Src\stm32l4xx_hal_rcc_ex.c **** #if defined(OCTOSPI1) || defined(OCTOSPI2)
1038:E:/LiteOS/LiteOS_Lab/drivers/third_party/ST/STM32L4xx_HAL_Driver/Src\stm32l4xx_hal_rcc_ex.c ****   /* Get the OctoSPIclock source --------------------------------------------*/
1039:E:/LiteOS/LiteOS_Lab/drivers/third_party/ST/STM32L4xx_HAL_Driver/Src\stm32l4xx_hal_rcc_ex.c ****   PeriphClkInit->OspiClockSelection = __HAL_RCC_GET_OSPI_SOURCE();
1040:E:/LiteOS/LiteOS_Lab/drivers/third_party/ST/STM32L4xx_HAL_Driver/Src\stm32l4xx_hal_rcc_ex.c **** #endif /* OCTOSPI1 || OCTOSPI2 */
1041:E:/LiteOS/LiteOS_Lab/drivers/third_party/ST/STM32L4xx_HAL_Driver/Src\stm32l4xx_hal_rcc_ex.c **** }
 781              		.loc 1 1041 0
 782 0140 00BF     		nop
 783 0142 0C37     		adds	r7, r7, #12
ARM GAS  C:\Users\user\AppData\Local\Temp\ccsJwa9Q.s 			page 33


 784              	.LCFI8:
 785              		.cfi_def_cfa_offset 4
 786 0144 BD46     		mov	sp, r7
 787              	.LCFI9:
 788              		.cfi_def_cfa_register 13
 789              		@ sp needed
 790 0146 5DF8047B 		ldr	r7, [sp], #4
 791              	.LCFI10:
 792              		.cfi_restore 7
 793              		.cfi_def_cfa_offset 0
 794 014a 7047     		bx	lr
 795              	.L46:
 796              		.align	2
 797              	.L45:
 798 014c E7CF0E00 		.word	970727
 799 0150 00100240 		.word	1073876992
 800              		.cfi_endproc
 801              	.LFE134:
 803              		.section	.text.HAL_RCCEx_GetPeriphCLKFreq,"ax",%progbits
 804              		.align	1
 805              		.global	HAL_RCCEx_GetPeriphCLKFreq
 806              		.syntax unified
 807              		.thumb
 808              		.thumb_func
 809              		.fpu fpv4-sp-d16
 811              	HAL_RCCEx_GetPeriphCLKFreq:
 812              	.LFB135:
1042:E:/LiteOS/LiteOS_Lab/drivers/third_party/ST/STM32L4xx_HAL_Driver/Src\stm32l4xx_hal_rcc_ex.c **** 
1043:E:/LiteOS/LiteOS_Lab/drivers/third_party/ST/STM32L4xx_HAL_Driver/Src\stm32l4xx_hal_rcc_ex.c **** /**
1044:E:/LiteOS/LiteOS_Lab/drivers/third_party/ST/STM32L4xx_HAL_Driver/Src\stm32l4xx_hal_rcc_ex.c ****   * @brief  Return the peripheral clock frequency for peripherals with clock source from PLLSAIs
1045:E:/LiteOS/LiteOS_Lab/drivers/third_party/ST/STM32L4xx_HAL_Driver/Src\stm32l4xx_hal_rcc_ex.c ****   * @note   Return 0 if peripheral clock identifier not managed by this API
1046:E:/LiteOS/LiteOS_Lab/drivers/third_party/ST/STM32L4xx_HAL_Driver/Src\stm32l4xx_hal_rcc_ex.c ****   * @param  PeriphClk  Peripheral clock identifier
1047:E:/LiteOS/LiteOS_Lab/drivers/third_party/ST/STM32L4xx_HAL_Driver/Src\stm32l4xx_hal_rcc_ex.c ****   *         This parameter can be one of the following values:
1048:E:/LiteOS/LiteOS_Lab/drivers/third_party/ST/STM32L4xx_HAL_Driver/Src\stm32l4xx_hal_rcc_ex.c ****   *            @arg @ref RCC_PERIPHCLK_RTC  RTC peripheral clock
1049:E:/LiteOS/LiteOS_Lab/drivers/third_party/ST/STM32L4xx_HAL_Driver/Src\stm32l4xx_hal_rcc_ex.c ****   *            @arg @ref RCC_PERIPHCLK_ADC  ADC peripheral clock
1050:E:/LiteOS/LiteOS_Lab/drivers/third_party/ST/STM32L4xx_HAL_Driver/Src\stm32l4xx_hal_rcc_ex.c ****   @if STM32L462xx
1051:E:/LiteOS/LiteOS_Lab/drivers/third_party/ST/STM32L4xx_HAL_Driver/Src\stm32l4xx_hal_rcc_ex.c ****   *            @arg @ref RCC_PERIPHCLK_DFSDM1  DFSDM1 peripheral clock (only for devices with DFSDM
1052:E:/LiteOS/LiteOS_Lab/drivers/third_party/ST/STM32L4xx_HAL_Driver/Src\stm32l4xx_hal_rcc_ex.c ****   @endif
1053:E:/LiteOS/LiteOS_Lab/drivers/third_party/ST/STM32L4xx_HAL_Driver/Src\stm32l4xx_hal_rcc_ex.c ****   @if STM32L486xx
1054:E:/LiteOS/LiteOS_Lab/drivers/third_party/ST/STM32L4xx_HAL_Driver/Src\stm32l4xx_hal_rcc_ex.c ****   *            @arg @ref RCC_PERIPHCLK_DFSDM1  DFSDM1 peripheral clock (only for devices with DFSDM
1055:E:/LiteOS/LiteOS_Lab/drivers/third_party/ST/STM32L4xx_HAL_Driver/Src\stm32l4xx_hal_rcc_ex.c ****   @endif
1056:E:/LiteOS/LiteOS_Lab/drivers/third_party/ST/STM32L4xx_HAL_Driver/Src\stm32l4xx_hal_rcc_ex.c ****   @if STM32L4A6xx
1057:E:/LiteOS/LiteOS_Lab/drivers/third_party/ST/STM32L4xx_HAL_Driver/Src\stm32l4xx_hal_rcc_ex.c ****   *            @arg @ref RCC_PERIPHCLK_DFSDM1  DFSDM1 peripheral clock (only for devices with DFSDM
1058:E:/LiteOS/LiteOS_Lab/drivers/third_party/ST/STM32L4xx_HAL_Driver/Src\stm32l4xx_hal_rcc_ex.c ****   @endif
1059:E:/LiteOS/LiteOS_Lab/drivers/third_party/ST/STM32L4xx_HAL_Driver/Src\stm32l4xx_hal_rcc_ex.c ****   *            @arg @ref RCC_PERIPHCLK_I2C1  I2C1 peripheral clock
1060:E:/LiteOS/LiteOS_Lab/drivers/third_party/ST/STM32L4xx_HAL_Driver/Src\stm32l4xx_hal_rcc_ex.c ****   *            @arg @ref RCC_PERIPHCLK_I2C2  I2C2 peripheral clock
1061:E:/LiteOS/LiteOS_Lab/drivers/third_party/ST/STM32L4xx_HAL_Driver/Src\stm32l4xx_hal_rcc_ex.c ****   *            @arg @ref RCC_PERIPHCLK_I2C3  I2C3 peripheral clock
1062:E:/LiteOS/LiteOS_Lab/drivers/third_party/ST/STM32L4xx_HAL_Driver/Src\stm32l4xx_hal_rcc_ex.c ****   @if STM32L462xx
1063:E:/LiteOS/LiteOS_Lab/drivers/third_party/ST/STM32L4xx_HAL_Driver/Src\stm32l4xx_hal_rcc_ex.c ****   *            @arg @ref RCC_PERIPHCLK_I2C4  I2C4 peripheral clock (only for devices with I2C4)
1064:E:/LiteOS/LiteOS_Lab/drivers/third_party/ST/STM32L4xx_HAL_Driver/Src\stm32l4xx_hal_rcc_ex.c ****   @endif
1065:E:/LiteOS/LiteOS_Lab/drivers/third_party/ST/STM32L4xx_HAL_Driver/Src\stm32l4xx_hal_rcc_ex.c ****   @if STM32L4A6xx
1066:E:/LiteOS/LiteOS_Lab/drivers/third_party/ST/STM32L4xx_HAL_Driver/Src\stm32l4xx_hal_rcc_ex.c ****   *            @arg @ref RCC_PERIPHCLK_I2C4  I2C4 peripheral clock (only for devices with I2C4)
1067:E:/LiteOS/LiteOS_Lab/drivers/third_party/ST/STM32L4xx_HAL_Driver/Src\stm32l4xx_hal_rcc_ex.c ****   @endif
1068:E:/LiteOS/LiteOS_Lab/drivers/third_party/ST/STM32L4xx_HAL_Driver/Src\stm32l4xx_hal_rcc_ex.c ****   @if STM32L4S9xx
1069:E:/LiteOS/LiteOS_Lab/drivers/third_party/ST/STM32L4xx_HAL_Driver/Src\stm32l4xx_hal_rcc_ex.c ****   *            @arg @ref RCC_PERIPHCLK_I2C4  I2C4 peripheral clock (only for devices with I2C4)
1070:E:/LiteOS/LiteOS_Lab/drivers/third_party/ST/STM32L4xx_HAL_Driver/Src\stm32l4xx_hal_rcc_ex.c ****   @endif
1071:E:/LiteOS/LiteOS_Lab/drivers/third_party/ST/STM32L4xx_HAL_Driver/Src\stm32l4xx_hal_rcc_ex.c ****   *            @arg @ref RCC_PERIPHCLK_LPTIM1  LPTIM1 peripheral clock
ARM GAS  C:\Users\user\AppData\Local\Temp\ccsJwa9Q.s 			page 34


1072:E:/LiteOS/LiteOS_Lab/drivers/third_party/ST/STM32L4xx_HAL_Driver/Src\stm32l4xx_hal_rcc_ex.c ****   *            @arg @ref RCC_PERIPHCLK_LPTIM2  LPTIM2 peripheral clock
1073:E:/LiteOS/LiteOS_Lab/drivers/third_party/ST/STM32L4xx_HAL_Driver/Src\stm32l4xx_hal_rcc_ex.c ****   *            @arg @ref RCC_PERIPHCLK_LPUART1  LPUART1 peripheral clock
1074:E:/LiteOS/LiteOS_Lab/drivers/third_party/ST/STM32L4xx_HAL_Driver/Src\stm32l4xx_hal_rcc_ex.c ****   *            @arg @ref RCC_PERIPHCLK_RNG  RNG peripheral clock
1075:E:/LiteOS/LiteOS_Lab/drivers/third_party/ST/STM32L4xx_HAL_Driver/Src\stm32l4xx_hal_rcc_ex.c ****   *            @arg @ref RCC_PERIPHCLK_SAI1  SAI1 peripheral clock
1076:E:/LiteOS/LiteOS_Lab/drivers/third_party/ST/STM32L4xx_HAL_Driver/Src\stm32l4xx_hal_rcc_ex.c ****   @if STM32L486xx
1077:E:/LiteOS/LiteOS_Lab/drivers/third_party/ST/STM32L4xx_HAL_Driver/Src\stm32l4xx_hal_rcc_ex.c ****   *            @arg @ref RCC_PERIPHCLK_SAI2  SAI2 peripheral clock (only for devices with SAI2)
1078:E:/LiteOS/LiteOS_Lab/drivers/third_party/ST/STM32L4xx_HAL_Driver/Src\stm32l4xx_hal_rcc_ex.c ****   @endif
1079:E:/LiteOS/LiteOS_Lab/drivers/third_party/ST/STM32L4xx_HAL_Driver/Src\stm32l4xx_hal_rcc_ex.c ****   @if STM32L4A6xx
1080:E:/LiteOS/LiteOS_Lab/drivers/third_party/ST/STM32L4xx_HAL_Driver/Src\stm32l4xx_hal_rcc_ex.c ****   *            @arg @ref RCC_PERIPHCLK_SAI2  SAI2 peripheral clock (only for devices with SAI2)
1081:E:/LiteOS/LiteOS_Lab/drivers/third_party/ST/STM32L4xx_HAL_Driver/Src\stm32l4xx_hal_rcc_ex.c ****   @endif
1082:E:/LiteOS/LiteOS_Lab/drivers/third_party/ST/STM32L4xx_HAL_Driver/Src\stm32l4xx_hal_rcc_ex.c ****   @if STM32L4S9xx
1083:E:/LiteOS/LiteOS_Lab/drivers/third_party/ST/STM32L4xx_HAL_Driver/Src\stm32l4xx_hal_rcc_ex.c ****   *            @arg @ref RCC_PERIPHCLK_SAI2  SAI2 peripheral clock (only for devices with SAI2)
1084:E:/LiteOS/LiteOS_Lab/drivers/third_party/ST/STM32L4xx_HAL_Driver/Src\stm32l4xx_hal_rcc_ex.c ****   @endif
1085:E:/LiteOS/LiteOS_Lab/drivers/third_party/ST/STM32L4xx_HAL_Driver/Src\stm32l4xx_hal_rcc_ex.c ****   *            @arg @ref RCC_PERIPHCLK_SDMMC1  SDMMC1 peripheral clock
1086:E:/LiteOS/LiteOS_Lab/drivers/third_party/ST/STM32L4xx_HAL_Driver/Src\stm32l4xx_hal_rcc_ex.c ****   @if STM32L443xx
1087:E:/LiteOS/LiteOS_Lab/drivers/third_party/ST/STM32L4xx_HAL_Driver/Src\stm32l4xx_hal_rcc_ex.c ****   *            @arg @ref RCC_PERIPHCLK_SWPMI1  SWPMI1 peripheral clock (only for devices with SWPMI
1088:E:/LiteOS/LiteOS_Lab/drivers/third_party/ST/STM32L4xx_HAL_Driver/Src\stm32l4xx_hal_rcc_ex.c ****   @endif
1089:E:/LiteOS/LiteOS_Lab/drivers/third_party/ST/STM32L4xx_HAL_Driver/Src\stm32l4xx_hal_rcc_ex.c ****   @if STM32L486xx
1090:E:/LiteOS/LiteOS_Lab/drivers/third_party/ST/STM32L4xx_HAL_Driver/Src\stm32l4xx_hal_rcc_ex.c ****   *            @arg @ref RCC_PERIPHCLK_SWPMI1  SWPMI1 peripheral clock (only for devices with SWPMI
1091:E:/LiteOS/LiteOS_Lab/drivers/third_party/ST/STM32L4xx_HAL_Driver/Src\stm32l4xx_hal_rcc_ex.c ****   @endif
1092:E:/LiteOS/LiteOS_Lab/drivers/third_party/ST/STM32L4xx_HAL_Driver/Src\stm32l4xx_hal_rcc_ex.c ****   @if STM32L4A6xx
1093:E:/LiteOS/LiteOS_Lab/drivers/third_party/ST/STM32L4xx_HAL_Driver/Src\stm32l4xx_hal_rcc_ex.c ****   *            @arg @ref RCC_PERIPHCLK_SWPMI1  SWPMI1 peripheral clock (only for devices with SWPMI
1094:E:/LiteOS/LiteOS_Lab/drivers/third_party/ST/STM32L4xx_HAL_Driver/Src\stm32l4xx_hal_rcc_ex.c ****   @endif
1095:E:/LiteOS/LiteOS_Lab/drivers/third_party/ST/STM32L4xx_HAL_Driver/Src\stm32l4xx_hal_rcc_ex.c ****   *            @arg @ref RCC_PERIPHCLK_USART1  USART1 peripheral clock
1096:E:/LiteOS/LiteOS_Lab/drivers/third_party/ST/STM32L4xx_HAL_Driver/Src\stm32l4xx_hal_rcc_ex.c ****   *            @arg @ref RCC_PERIPHCLK_USART2  USART1 peripheral clock
1097:E:/LiteOS/LiteOS_Lab/drivers/third_party/ST/STM32L4xx_HAL_Driver/Src\stm32l4xx_hal_rcc_ex.c ****   *            @arg @ref RCC_PERIPHCLK_USART3  USART1 peripheral clock
1098:E:/LiteOS/LiteOS_Lab/drivers/third_party/ST/STM32L4xx_HAL_Driver/Src\stm32l4xx_hal_rcc_ex.c ****   @if STM32L462xx
1099:E:/LiteOS/LiteOS_Lab/drivers/third_party/ST/STM32L4xx_HAL_Driver/Src\stm32l4xx_hal_rcc_ex.c ****   *            @arg @ref RCC_PERIPHCLK_UART4  UART4 peripheral clock (only for devices with UART4)
1100:E:/LiteOS/LiteOS_Lab/drivers/third_party/ST/STM32L4xx_HAL_Driver/Src\stm32l4xx_hal_rcc_ex.c ****   *            @arg @ref RCC_PERIPHCLK_USB  USB peripheral clock (only for devices with USB)
1101:E:/LiteOS/LiteOS_Lab/drivers/third_party/ST/STM32L4xx_HAL_Driver/Src\stm32l4xx_hal_rcc_ex.c ****   @endif
1102:E:/LiteOS/LiteOS_Lab/drivers/third_party/ST/STM32L4xx_HAL_Driver/Src\stm32l4xx_hal_rcc_ex.c ****   @if STM32L486xx
1103:E:/LiteOS/LiteOS_Lab/drivers/third_party/ST/STM32L4xx_HAL_Driver/Src\stm32l4xx_hal_rcc_ex.c ****   *            @arg @ref RCC_PERIPHCLK_UART4  UART4 peripheral clock (only for devices with UART4)
1104:E:/LiteOS/LiteOS_Lab/drivers/third_party/ST/STM32L4xx_HAL_Driver/Src\stm32l4xx_hal_rcc_ex.c ****   *            @arg @ref RCC_PERIPHCLK_UART5  UART5 peripheral clock (only for devices with UART5)
1105:E:/LiteOS/LiteOS_Lab/drivers/third_party/ST/STM32L4xx_HAL_Driver/Src\stm32l4xx_hal_rcc_ex.c ****   *            @arg @ref RCC_PERIPHCLK_USB  USB peripheral clock (only for devices with USB)
1106:E:/LiteOS/LiteOS_Lab/drivers/third_party/ST/STM32L4xx_HAL_Driver/Src\stm32l4xx_hal_rcc_ex.c ****   @endif
1107:E:/LiteOS/LiteOS_Lab/drivers/third_party/ST/STM32L4xx_HAL_Driver/Src\stm32l4xx_hal_rcc_ex.c ****   @if STM32L4A6xx
1108:E:/LiteOS/LiteOS_Lab/drivers/third_party/ST/STM32L4xx_HAL_Driver/Src\stm32l4xx_hal_rcc_ex.c ****   *            @arg @ref RCC_PERIPHCLK_UART4  UART4 peripheral clock (only for devices with UART4)
1109:E:/LiteOS/LiteOS_Lab/drivers/third_party/ST/STM32L4xx_HAL_Driver/Src\stm32l4xx_hal_rcc_ex.c ****   *            @arg @ref RCC_PERIPHCLK_UART5  UART5 peripheral clock (only for devices with UART5)
1110:E:/LiteOS/LiteOS_Lab/drivers/third_party/ST/STM32L4xx_HAL_Driver/Src\stm32l4xx_hal_rcc_ex.c ****   *            @arg @ref RCC_PERIPHCLK_USB  USB peripheral clock (only for devices with USB)
1111:E:/LiteOS/LiteOS_Lab/drivers/third_party/ST/STM32L4xx_HAL_Driver/Src\stm32l4xx_hal_rcc_ex.c ****   @endif
1112:E:/LiteOS/LiteOS_Lab/drivers/third_party/ST/STM32L4xx_HAL_Driver/Src\stm32l4xx_hal_rcc_ex.c ****   @if STM32L4S9xx
1113:E:/LiteOS/LiteOS_Lab/drivers/third_party/ST/STM32L4xx_HAL_Driver/Src\stm32l4xx_hal_rcc_ex.c ****   *            @arg @ref RCC_PERIPHCLK_UART4  USART1 peripheral clock (only for devices with UART4)
1114:E:/LiteOS/LiteOS_Lab/drivers/third_party/ST/STM32L4xx_HAL_Driver/Src\stm32l4xx_hal_rcc_ex.c ****   *            @arg @ref RCC_PERIPHCLK_UART5  USART1 peripheral clock (only for devices with UART5)
1115:E:/LiteOS/LiteOS_Lab/drivers/third_party/ST/STM32L4xx_HAL_Driver/Src\stm32l4xx_hal_rcc_ex.c ****   *            @arg @ref RCC_PERIPHCLK_USB  USB peripheral clock (only for devices with USB)
1116:E:/LiteOS/LiteOS_Lab/drivers/third_party/ST/STM32L4xx_HAL_Driver/Src\stm32l4xx_hal_rcc_ex.c ****   *            @arg @ref RCC_PERIPHCLK_DFSDM1  DFSDM1 peripheral kernel clock (only for devices wit
1117:E:/LiteOS/LiteOS_Lab/drivers/third_party/ST/STM32L4xx_HAL_Driver/Src\stm32l4xx_hal_rcc_ex.c ****   *            @arg @ref RCC_PERIPHCLK_DFSDM1AUDIO  DFSDM1 peripheral audio clock (only for devices
1118:E:/LiteOS/LiteOS_Lab/drivers/third_party/ST/STM32L4xx_HAL_Driver/Src\stm32l4xx_hal_rcc_ex.c ****   *            @arg @ref RCC_PERIPHCLK_LTDC  LTDC peripheral clock (only for devices with LTDC)
1119:E:/LiteOS/LiteOS_Lab/drivers/third_party/ST/STM32L4xx_HAL_Driver/Src\stm32l4xx_hal_rcc_ex.c ****   *            @arg @ref RCC_PERIPHCLK_DSI  DSI peripheral clock (only for devices with DSI)
1120:E:/LiteOS/LiteOS_Lab/drivers/third_party/ST/STM32L4xx_HAL_Driver/Src\stm32l4xx_hal_rcc_ex.c ****   *            @arg @ref RCC_PERIPHCLK_OSPI  OctoSPI peripheral clock (only for devices with OctoSP
1121:E:/LiteOS/LiteOS_Lab/drivers/third_party/ST/STM32L4xx_HAL_Driver/Src\stm32l4xx_hal_rcc_ex.c ****   @endif
1122:E:/LiteOS/LiteOS_Lab/drivers/third_party/ST/STM32L4xx_HAL_Driver/Src\stm32l4xx_hal_rcc_ex.c ****   * @retval Frequency in Hz
1123:E:/LiteOS/LiteOS_Lab/drivers/third_party/ST/STM32L4xx_HAL_Driver/Src\stm32l4xx_hal_rcc_ex.c ****   */
1124:E:/LiteOS/LiteOS_Lab/drivers/third_party/ST/STM32L4xx_HAL_Driver/Src\stm32l4xx_hal_rcc_ex.c **** uint32_t HAL_RCCEx_GetPeriphCLKFreq(uint32_t PeriphClk)
1125:E:/LiteOS/LiteOS_Lab/drivers/third_party/ST/STM32L4xx_HAL_Driver/Src\stm32l4xx_hal_rcc_ex.c **** {
 813              		.loc 1 1125 0
 814              		.cfi_startproc
 815              		@ args = 0, pretend = 0, frame = 32
ARM GAS  C:\Users\user\AppData\Local\Temp\ccsJwa9Q.s 			page 35


 816              		@ frame_needed = 1, uses_anonymous_args = 0
 817 0000 80B5     		push	{r7, lr}
 818              	.LCFI11:
 819              		.cfi_def_cfa_offset 8
 820              		.cfi_offset 7, -8
 821              		.cfi_offset 14, -4
 822 0002 88B0     		sub	sp, sp, #32
 823              	.LCFI12:
 824              		.cfi_def_cfa_offset 40
 825 0004 00AF     		add	r7, sp, #0
 826              	.LCFI13:
 827              		.cfi_def_cfa_register 7
 828 0006 7860     		str	r0, [r7, #4]
1126:E:/LiteOS/LiteOS_Lab/drivers/third_party/ST/STM32L4xx_HAL_Driver/Src\stm32l4xx_hal_rcc_ex.c ****   uint32_t frequency = 0U;
 829              		.loc 1 1126 0
 830 0008 0023     		movs	r3, #0
 831 000a FB61     		str	r3, [r7, #28]
1127:E:/LiteOS/LiteOS_Lab/drivers/third_party/ST/STM32L4xx_HAL_Driver/Src\stm32l4xx_hal_rcc_ex.c ****   uint32_t srcclk = 0U;
 832              		.loc 1 1127 0
 833 000c 0023     		movs	r3, #0
 834 000e BB61     		str	r3, [r7, #24]
1128:E:/LiteOS/LiteOS_Lab/drivers/third_party/ST/STM32L4xx_HAL_Driver/Src\stm32l4xx_hal_rcc_ex.c ****   uint32_t pllvco = 0U, plln = 0U, pllp = 0U;
 835              		.loc 1 1128 0
 836 0010 0023     		movs	r3, #0
 837 0012 7B61     		str	r3, [r7, #20]
 838 0014 0023     		movs	r3, #0
 839 0016 FB60     		str	r3, [r7, #12]
 840 0018 0023     		movs	r3, #0
 841 001a 3B61     		str	r3, [r7, #16]
1129:E:/LiteOS/LiteOS_Lab/drivers/third_party/ST/STM32L4xx_HAL_Driver/Src\stm32l4xx_hal_rcc_ex.c **** 
1130:E:/LiteOS/LiteOS_Lab/drivers/third_party/ST/STM32L4xx_HAL_Driver/Src\stm32l4xx_hal_rcc_ex.c ****   /* Check the parameters */
1131:E:/LiteOS/LiteOS_Lab/drivers/third_party/ST/STM32L4xx_HAL_Driver/Src\stm32l4xx_hal_rcc_ex.c ****   assert_param(IS_RCC_PERIPHCLOCK(PeriphClk));
1132:E:/LiteOS/LiteOS_Lab/drivers/third_party/ST/STM32L4xx_HAL_Driver/Src\stm32l4xx_hal_rcc_ex.c **** 
1133:E:/LiteOS/LiteOS_Lab/drivers/third_party/ST/STM32L4xx_HAL_Driver/Src\stm32l4xx_hal_rcc_ex.c ****   if(PeriphClk == RCC_PERIPHCLK_RTC)
 842              		.loc 1 1133 0
 843 001c 7B68     		ldr	r3, [r7, #4]
 844 001e B3F5003F 		cmp	r3, #131072
 845 0022 34D1     		bne	.L48
1134:E:/LiteOS/LiteOS_Lab/drivers/third_party/ST/STM32L4xx_HAL_Driver/Src\stm32l4xx_hal_rcc_ex.c ****   {
1135:E:/LiteOS/LiteOS_Lab/drivers/third_party/ST/STM32L4xx_HAL_Driver/Src\stm32l4xx_hal_rcc_ex.c ****     /* Get the current RTC source */
1136:E:/LiteOS/LiteOS_Lab/drivers/third_party/ST/STM32L4xx_HAL_Driver/Src\stm32l4xx_hal_rcc_ex.c ****     srcclk = __HAL_RCC_GET_RTC_SOURCE();
 846              		.loc 1 1136 0
 847 0024 AA4B     		ldr	r3, .L162
 848 0026 D3F89030 		ldr	r3, [r3, #144]
 849 002a 03F44073 		and	r3, r3, #768
 850 002e BB61     		str	r3, [r7, #24]
1137:E:/LiteOS/LiteOS_Lab/drivers/third_party/ST/STM32L4xx_HAL_Driver/Src\stm32l4xx_hal_rcc_ex.c **** 
1138:E:/LiteOS/LiteOS_Lab/drivers/third_party/ST/STM32L4xx_HAL_Driver/Src\stm32l4xx_hal_rcc_ex.c ****     /* Check if LSE is ready and if RTC clock selection is LSE */
1139:E:/LiteOS/LiteOS_Lab/drivers/third_party/ST/STM32L4xx_HAL_Driver/Src\stm32l4xx_hal_rcc_ex.c ****     if ((srcclk == RCC_RTCCLKSOURCE_LSE) && (HAL_IS_BIT_SET(RCC->BDCR, RCC_BDCR_LSERDY)))
 851              		.loc 1 1139 0
 852 0030 BB69     		ldr	r3, [r7, #24]
 853 0032 B3F5807F 		cmp	r3, #256
 854 0036 0AD1     		bne	.L49
 855              		.loc 1 1139 0 is_stmt 0 discriminator 1
 856 0038 A54B     		ldr	r3, .L162
 857 003a D3F89030 		ldr	r3, [r3, #144]
 858 003e 03F00203 		and	r3, r3, #2
ARM GAS  C:\Users\user\AppData\Local\Temp\ccsJwa9Q.s 			page 36


 859 0042 022B     		cmp	r3, #2
 860 0044 03D1     		bne	.L49
1140:E:/LiteOS/LiteOS_Lab/drivers/third_party/ST/STM32L4xx_HAL_Driver/Src\stm32l4xx_hal_rcc_ex.c ****     {
1141:E:/LiteOS/LiteOS_Lab/drivers/third_party/ST/STM32L4xx_HAL_Driver/Src\stm32l4xx_hal_rcc_ex.c ****       frequency = LSE_VALUE;
 861              		.loc 1 1141 0 is_stmt 1
 862 0046 4FF40043 		mov	r3, #32768
 863 004a FB61     		str	r3, [r7, #28]
 864 004c F1E3     		b	.L53
 865              	.L49:
1142:E:/LiteOS/LiteOS_Lab/drivers/third_party/ST/STM32L4xx_HAL_Driver/Src\stm32l4xx_hal_rcc_ex.c ****     }
1143:E:/LiteOS/LiteOS_Lab/drivers/third_party/ST/STM32L4xx_HAL_Driver/Src\stm32l4xx_hal_rcc_ex.c ****     /* Check if LSI is ready and if RTC clock selection is LSI */
1144:E:/LiteOS/LiteOS_Lab/drivers/third_party/ST/STM32L4xx_HAL_Driver/Src\stm32l4xx_hal_rcc_ex.c ****     else if ((srcclk == RCC_RTCCLKSOURCE_LSI) && (HAL_IS_BIT_SET(RCC->CSR, RCC_CSR_LSIRDY)))
 866              		.loc 1 1144 0
 867 004e BB69     		ldr	r3, [r7, #24]
 868 0050 B3F5007F 		cmp	r3, #512
 869 0054 0AD1     		bne	.L51
 870              		.loc 1 1144 0 is_stmt 0 discriminator 1
 871 0056 9E4B     		ldr	r3, .L162
 872 0058 D3F89430 		ldr	r3, [r3, #148]
 873 005c 03F00203 		and	r3, r3, #2
 874 0060 022B     		cmp	r3, #2
 875 0062 03D1     		bne	.L51
1145:E:/LiteOS/LiteOS_Lab/drivers/third_party/ST/STM32L4xx_HAL_Driver/Src\stm32l4xx_hal_rcc_ex.c ****     {
1146:E:/LiteOS/LiteOS_Lab/drivers/third_party/ST/STM32L4xx_HAL_Driver/Src\stm32l4xx_hal_rcc_ex.c ****       frequency = LSI_VALUE;
 876              		.loc 1 1146 0 is_stmt 1
 877 0064 4FF4FA43 		mov	r3, #32000
 878 0068 FB61     		str	r3, [r7, #28]
 879 006a E2E3     		b	.L53
 880              	.L51:
1147:E:/LiteOS/LiteOS_Lab/drivers/third_party/ST/STM32L4xx_HAL_Driver/Src\stm32l4xx_hal_rcc_ex.c ****     }
1148:E:/LiteOS/LiteOS_Lab/drivers/third_party/ST/STM32L4xx_HAL_Driver/Src\stm32l4xx_hal_rcc_ex.c ****     /* Check if HSE is ready  and if RTC clock selection is HSI_DIV32*/
1149:E:/LiteOS/LiteOS_Lab/drivers/third_party/ST/STM32L4xx_HAL_Driver/Src\stm32l4xx_hal_rcc_ex.c ****     else if ((srcclk == RCC_RTCCLKSOURCE_HSE_DIV32) && (HAL_IS_BIT_SET(RCC->CR, RCC_CR_HSERDY)))
 881              		.loc 1 1149 0
 882 006c BB69     		ldr	r3, [r7, #24]
 883 006e B3F5407F 		cmp	r3, #768
 884 0072 09D1     		bne	.L52
 885              		.loc 1 1149 0 is_stmt 0 discriminator 1
 886 0074 964B     		ldr	r3, .L162
 887 0076 1B68     		ldr	r3, [r3]
 888 0078 03F40033 		and	r3, r3, #131072
 889 007c B3F5003F 		cmp	r3, #131072
 890 0080 02D1     		bne	.L52
1150:E:/LiteOS/LiteOS_Lab/drivers/third_party/ST/STM32L4xx_HAL_Driver/Src\stm32l4xx_hal_rcc_ex.c ****     {
1151:E:/LiteOS/LiteOS_Lab/drivers/third_party/ST/STM32L4xx_HAL_Driver/Src\stm32l4xx_hal_rcc_ex.c ****       frequency = HSE_VALUE / 32U;
 891              		.loc 1 1151 0 is_stmt 1
 892 0082 944B     		ldr	r3, .L162+4
 893 0084 FB61     		str	r3, [r7, #28]
 894 0086 D4E3     		b	.L53
 895              	.L52:
1152:E:/LiteOS/LiteOS_Lab/drivers/third_party/ST/STM32L4xx_HAL_Driver/Src\stm32l4xx_hal_rcc_ex.c ****     }
1153:E:/LiteOS/LiteOS_Lab/drivers/third_party/ST/STM32L4xx_HAL_Driver/Src\stm32l4xx_hal_rcc_ex.c ****     /* Clock not enabled for RTC*/
1154:E:/LiteOS/LiteOS_Lab/drivers/third_party/ST/STM32L4xx_HAL_Driver/Src\stm32l4xx_hal_rcc_ex.c ****     else
1155:E:/LiteOS/LiteOS_Lab/drivers/third_party/ST/STM32L4xx_HAL_Driver/Src\stm32l4xx_hal_rcc_ex.c ****     {
1156:E:/LiteOS/LiteOS_Lab/drivers/third_party/ST/STM32L4xx_HAL_Driver/Src\stm32l4xx_hal_rcc_ex.c ****       frequency = 0U;
 896              		.loc 1 1156 0
 897 0088 0023     		movs	r3, #0
 898 008a FB61     		str	r3, [r7, #28]
ARM GAS  C:\Users\user\AppData\Local\Temp\ccsJwa9Q.s 			page 37


 899 008c D1E3     		b	.L53
 900              	.L48:
1157:E:/LiteOS/LiteOS_Lab/drivers/third_party/ST/STM32L4xx_HAL_Driver/Src\stm32l4xx_hal_rcc_ex.c ****     }
1158:E:/LiteOS/LiteOS_Lab/drivers/third_party/ST/STM32L4xx_HAL_Driver/Src\stm32l4xx_hal_rcc_ex.c ****   }
1159:E:/LiteOS/LiteOS_Lab/drivers/third_party/ST/STM32L4xx_HAL_Driver/Src\stm32l4xx_hal_rcc_ex.c ****   else
1160:E:/LiteOS/LiteOS_Lab/drivers/third_party/ST/STM32L4xx_HAL_Driver/Src\stm32l4xx_hal_rcc_ex.c ****   {
1161:E:/LiteOS/LiteOS_Lab/drivers/third_party/ST/STM32L4xx_HAL_Driver/Src\stm32l4xx_hal_rcc_ex.c ****     /* Other external peripheral clock source than RTC */
1162:E:/LiteOS/LiteOS_Lab/drivers/third_party/ST/STM32L4xx_HAL_Driver/Src\stm32l4xx_hal_rcc_ex.c **** 
1163:E:/LiteOS/LiteOS_Lab/drivers/third_party/ST/STM32L4xx_HAL_Driver/Src\stm32l4xx_hal_rcc_ex.c ****     /* Compute PLL clock input */
1164:E:/LiteOS/LiteOS_Lab/drivers/third_party/ST/STM32L4xx_HAL_Driver/Src\stm32l4xx_hal_rcc_ex.c ****     if(__HAL_RCC_GET_PLL_OSCSOURCE() == RCC_PLLSOURCE_MSI)        /* MSI ? */
 901              		.loc 1 1164 0
 902 008e 904B     		ldr	r3, .L162
 903 0090 DB68     		ldr	r3, [r3, #12]
 904 0092 03F00303 		and	r3, r3, #3
 905 0096 012B     		cmp	r3, #1
 906 0098 1FD1     		bne	.L54
1165:E:/LiteOS/LiteOS_Lab/drivers/third_party/ST/STM32L4xx_HAL_Driver/Src\stm32l4xx_hal_rcc_ex.c ****     {
1166:E:/LiteOS/LiteOS_Lab/drivers/third_party/ST/STM32L4xx_HAL_Driver/Src\stm32l4xx_hal_rcc_ex.c ****       if(HAL_IS_BIT_SET(RCC->CR, RCC_CR_MSIRDY))
 907              		.loc 1 1166 0
 908 009a 8D4B     		ldr	r3, .L162
 909 009c 1B68     		ldr	r3, [r3]
 910 009e 03F00203 		and	r3, r3, #2
 911 00a2 022B     		cmp	r3, #2
 912 00a4 16D1     		bne	.L55
1167:E:/LiteOS/LiteOS_Lab/drivers/third_party/ST/STM32L4xx_HAL_Driver/Src\stm32l4xx_hal_rcc_ex.c ****       {
1168:E:/LiteOS/LiteOS_Lab/drivers/third_party/ST/STM32L4xx_HAL_Driver/Src\stm32l4xx_hal_rcc_ex.c ****         /*MSI frequency range in HZ*/
1169:E:/LiteOS/LiteOS_Lab/drivers/third_party/ST/STM32L4xx_HAL_Driver/Src\stm32l4xx_hal_rcc_ex.c ****         pllvco = MSIRangeTable[(__HAL_RCC_GET_MSI_RANGE() >> 4U)];
 913              		.loc 1 1169 0
 914 00a6 8A4B     		ldr	r3, .L162
 915 00a8 1B68     		ldr	r3, [r3]
 916 00aa 03F00803 		and	r3, r3, #8
 917 00ae 002B     		cmp	r3, #0
 918 00b0 05D0     		beq	.L56
 919              		.loc 1 1169 0 is_stmt 0 discriminator 1
 920 00b2 874B     		ldr	r3, .L162
 921 00b4 1B68     		ldr	r3, [r3]
 922 00b6 1B09     		lsrs	r3, r3, #4
 923 00b8 03F00F03 		and	r3, r3, #15
 924 00bc 05E0     		b	.L57
 925              	.L56:
 926              		.loc 1 1169 0 discriminator 2
 927 00be 844B     		ldr	r3, .L162
 928 00c0 D3F89430 		ldr	r3, [r3, #148]
 929 00c4 1B0A     		lsrs	r3, r3, #8
 930 00c6 03F00F03 		and	r3, r3, #15
 931              	.L57:
 932              		.loc 1 1169 0 discriminator 4
 933 00ca 834A     		ldr	r2, .L162+8
 934 00cc 52F82330 		ldr	r3, [r2, r3, lsl #2]
 935 00d0 7B61     		str	r3, [r7, #20]
 936 00d2 2AE0     		b	.L59
 937              	.L55:
1170:E:/LiteOS/LiteOS_Lab/drivers/third_party/ST/STM32L4xx_HAL_Driver/Src\stm32l4xx_hal_rcc_ex.c ****       }
1171:E:/LiteOS/LiteOS_Lab/drivers/third_party/ST/STM32L4xx_HAL_Driver/Src\stm32l4xx_hal_rcc_ex.c ****       else
1172:E:/LiteOS/LiteOS_Lab/drivers/third_party/ST/STM32L4xx_HAL_Driver/Src\stm32l4xx_hal_rcc_ex.c ****       {
1173:E:/LiteOS/LiteOS_Lab/drivers/third_party/ST/STM32L4xx_HAL_Driver/Src\stm32l4xx_hal_rcc_ex.c ****         pllvco = 0U;
 938              		.loc 1 1173 0 is_stmt 1
ARM GAS  C:\Users\user\AppData\Local\Temp\ccsJwa9Q.s 			page 38


 939 00d4 0023     		movs	r3, #0
 940 00d6 7B61     		str	r3, [r7, #20]
 941 00d8 27E0     		b	.L59
 942              	.L54:
1174:E:/LiteOS/LiteOS_Lab/drivers/third_party/ST/STM32L4xx_HAL_Driver/Src\stm32l4xx_hal_rcc_ex.c ****       }
1175:E:/LiteOS/LiteOS_Lab/drivers/third_party/ST/STM32L4xx_HAL_Driver/Src\stm32l4xx_hal_rcc_ex.c ****     }
1176:E:/LiteOS/LiteOS_Lab/drivers/third_party/ST/STM32L4xx_HAL_Driver/Src\stm32l4xx_hal_rcc_ex.c ****     else if(__HAL_RCC_GET_PLL_OSCSOURCE() == RCC_PLLSOURCE_HSI)   /* HSI ? */
 943              		.loc 1 1176 0
 944 00da 7D4B     		ldr	r3, .L162
 945 00dc DB68     		ldr	r3, [r3, #12]
 946 00de 03F00303 		and	r3, r3, #3
 947 00e2 022B     		cmp	r3, #2
 948 00e4 0CD1     		bne	.L60
1177:E:/LiteOS/LiteOS_Lab/drivers/third_party/ST/STM32L4xx_HAL_Driver/Src\stm32l4xx_hal_rcc_ex.c ****     {
1178:E:/LiteOS/LiteOS_Lab/drivers/third_party/ST/STM32L4xx_HAL_Driver/Src\stm32l4xx_hal_rcc_ex.c ****       if(HAL_IS_BIT_SET(RCC->CR, RCC_CR_HSIRDY))
 949              		.loc 1 1178 0
 950 00e6 7A4B     		ldr	r3, .L162
 951 00e8 1B68     		ldr	r3, [r3]
 952 00ea 03F48063 		and	r3, r3, #1024
 953 00ee B3F5806F 		cmp	r3, #1024
 954 00f2 02D1     		bne	.L61
1179:E:/LiteOS/LiteOS_Lab/drivers/third_party/ST/STM32L4xx_HAL_Driver/Src\stm32l4xx_hal_rcc_ex.c ****       {
1180:E:/LiteOS/LiteOS_Lab/drivers/third_party/ST/STM32L4xx_HAL_Driver/Src\stm32l4xx_hal_rcc_ex.c ****         pllvco = HSI_VALUE;
 955              		.loc 1 1180 0
 956 00f4 794B     		ldr	r3, .L162+12
 957 00f6 7B61     		str	r3, [r7, #20]
 958 00f8 17E0     		b	.L59
 959              	.L61:
1181:E:/LiteOS/LiteOS_Lab/drivers/third_party/ST/STM32L4xx_HAL_Driver/Src\stm32l4xx_hal_rcc_ex.c ****       }
1182:E:/LiteOS/LiteOS_Lab/drivers/third_party/ST/STM32L4xx_HAL_Driver/Src\stm32l4xx_hal_rcc_ex.c ****       else
1183:E:/LiteOS/LiteOS_Lab/drivers/third_party/ST/STM32L4xx_HAL_Driver/Src\stm32l4xx_hal_rcc_ex.c ****       {
1184:E:/LiteOS/LiteOS_Lab/drivers/third_party/ST/STM32L4xx_HAL_Driver/Src\stm32l4xx_hal_rcc_ex.c ****         pllvco = 0U;
 960              		.loc 1 1184 0
 961 00fa 0023     		movs	r3, #0
 962 00fc 7B61     		str	r3, [r7, #20]
 963 00fe 14E0     		b	.L59
 964              	.L60:
1185:E:/LiteOS/LiteOS_Lab/drivers/third_party/ST/STM32L4xx_HAL_Driver/Src\stm32l4xx_hal_rcc_ex.c ****       }
1186:E:/LiteOS/LiteOS_Lab/drivers/third_party/ST/STM32L4xx_HAL_Driver/Src\stm32l4xx_hal_rcc_ex.c ****     }
1187:E:/LiteOS/LiteOS_Lab/drivers/third_party/ST/STM32L4xx_HAL_Driver/Src\stm32l4xx_hal_rcc_ex.c ****     else if(__HAL_RCC_GET_PLL_OSCSOURCE() == RCC_PLLSOURCE_HSE)   /* HSE ? */
 965              		.loc 1 1187 0
 966 0100 734B     		ldr	r3, .L162
 967 0102 DB68     		ldr	r3, [r3, #12]
 968 0104 03F00303 		and	r3, r3, #3
 969 0108 032B     		cmp	r3, #3
 970 010a 0CD1     		bne	.L63
1188:E:/LiteOS/LiteOS_Lab/drivers/third_party/ST/STM32L4xx_HAL_Driver/Src\stm32l4xx_hal_rcc_ex.c ****     {
1189:E:/LiteOS/LiteOS_Lab/drivers/third_party/ST/STM32L4xx_HAL_Driver/Src\stm32l4xx_hal_rcc_ex.c ****       if(HAL_IS_BIT_SET(RCC->CR, RCC_CR_HSERDY))
 971              		.loc 1 1189 0
 972 010c 704B     		ldr	r3, .L162
 973 010e 1B68     		ldr	r3, [r3]
 974 0110 03F40033 		and	r3, r3, #131072
 975 0114 B3F5003F 		cmp	r3, #131072
 976 0118 02D1     		bne	.L64
1190:E:/LiteOS/LiteOS_Lab/drivers/third_party/ST/STM32L4xx_HAL_Driver/Src\stm32l4xx_hal_rcc_ex.c ****       {
1191:E:/LiteOS/LiteOS_Lab/drivers/third_party/ST/STM32L4xx_HAL_Driver/Src\stm32l4xx_hal_rcc_ex.c ****         pllvco = HSE_VALUE;
 977              		.loc 1 1191 0
ARM GAS  C:\Users\user\AppData\Local\Temp\ccsJwa9Q.s 			page 39


 978 011a 714B     		ldr	r3, .L162+16
 979 011c 7B61     		str	r3, [r7, #20]
 980 011e 04E0     		b	.L59
 981              	.L64:
1192:E:/LiteOS/LiteOS_Lab/drivers/third_party/ST/STM32L4xx_HAL_Driver/Src\stm32l4xx_hal_rcc_ex.c ****       }
1193:E:/LiteOS/LiteOS_Lab/drivers/third_party/ST/STM32L4xx_HAL_Driver/Src\stm32l4xx_hal_rcc_ex.c ****       else
1194:E:/LiteOS/LiteOS_Lab/drivers/third_party/ST/STM32L4xx_HAL_Driver/Src\stm32l4xx_hal_rcc_ex.c ****       {
1195:E:/LiteOS/LiteOS_Lab/drivers/third_party/ST/STM32L4xx_HAL_Driver/Src\stm32l4xx_hal_rcc_ex.c ****         pllvco = 0U;
 982              		.loc 1 1195 0
 983 0120 0023     		movs	r3, #0
 984 0122 7B61     		str	r3, [r7, #20]
 985 0124 01E0     		b	.L59
 986              	.L63:
1196:E:/LiteOS/LiteOS_Lab/drivers/third_party/ST/STM32L4xx_HAL_Driver/Src\stm32l4xx_hal_rcc_ex.c ****       }
1197:E:/LiteOS/LiteOS_Lab/drivers/third_party/ST/STM32L4xx_HAL_Driver/Src\stm32l4xx_hal_rcc_ex.c ****     }
1198:E:/LiteOS/LiteOS_Lab/drivers/third_party/ST/STM32L4xx_HAL_Driver/Src\stm32l4xx_hal_rcc_ex.c ****     else /* No source */
1199:E:/LiteOS/LiteOS_Lab/drivers/third_party/ST/STM32L4xx_HAL_Driver/Src\stm32l4xx_hal_rcc_ex.c ****     {
1200:E:/LiteOS/LiteOS_Lab/drivers/third_party/ST/STM32L4xx_HAL_Driver/Src\stm32l4xx_hal_rcc_ex.c ****       pllvco = 0U;
 987              		.loc 1 1200 0
 988 0126 0023     		movs	r3, #0
 989 0128 7B61     		str	r3, [r7, #20]
 990              	.L59:
1201:E:/LiteOS/LiteOS_Lab/drivers/third_party/ST/STM32L4xx_HAL_Driver/Src\stm32l4xx_hal_rcc_ex.c ****     }
1202:E:/LiteOS/LiteOS_Lab/drivers/third_party/ST/STM32L4xx_HAL_Driver/Src\stm32l4xx_hal_rcc_ex.c **** 
1203:E:/LiteOS/LiteOS_Lab/drivers/third_party/ST/STM32L4xx_HAL_Driver/Src\stm32l4xx_hal_rcc_ex.c **** #if !defined(RCC_PLLSAI1M_DIV_1_16_SUPPORT) && !defined(RCC_PLLSAI2M_DIV_1_16_SUPPORT)
1204:E:/LiteOS/LiteOS_Lab/drivers/third_party/ST/STM32L4xx_HAL_Driver/Src\stm32l4xx_hal_rcc_ex.c ****     /* f(PLL Source) / PLLM */
1205:E:/LiteOS/LiteOS_Lab/drivers/third_party/ST/STM32L4xx_HAL_Driver/Src\stm32l4xx_hal_rcc_ex.c ****     pllvco = (pllvco / ((READ_BIT(RCC->PLLCFGR, RCC_PLLCFGR_PLLM) >> RCC_PLLCFGR_PLLM_Pos) + 1U));
 991              		.loc 1 1205 0
 992 012a 694B     		ldr	r3, .L162
 993 012c DB68     		ldr	r3, [r3, #12]
 994 012e 1B09     		lsrs	r3, r3, #4
 995 0130 03F00703 		and	r3, r3, #7
 996 0134 0133     		adds	r3, r3, #1
 997 0136 7A69     		ldr	r2, [r7, #20]
 998 0138 B2FBF3F3 		udiv	r3, r2, r3
 999 013c 7B61     		str	r3, [r7, #20]
1206:E:/LiteOS/LiteOS_Lab/drivers/third_party/ST/STM32L4xx_HAL_Driver/Src\stm32l4xx_hal_rcc_ex.c **** #endif
1207:E:/LiteOS/LiteOS_Lab/drivers/third_party/ST/STM32L4xx_HAL_Driver/Src\stm32l4xx_hal_rcc_ex.c **** 
1208:E:/LiteOS/LiteOS_Lab/drivers/third_party/ST/STM32L4xx_HAL_Driver/Src\stm32l4xx_hal_rcc_ex.c ****     switch(PeriphClk)
 1000              		.loc 1 1208 0
 1001 013e 7B68     		ldr	r3, [r7, #4]
 1002 0140 B3F5807F 		cmp	r3, #256
 1003 0144 00F0B482 		beq	.L67
 1004 0148 B3F5807F 		cmp	r3, #256
 1005 014c 15D8     		bhi	.L68
 1006 014e 042B     		cmp	r3, #4
 1007 0150 00F0BF81 		beq	.L69
 1008 0154 042B     		cmp	r3, #4
 1009 0156 06D8     		bhi	.L70
 1010 0158 012B     		cmp	r3, #1
 1011 015a 00F05481 		beq	.L71
 1012 015e 022B     		cmp	r3, #2
 1013 0160 00F08481 		beq	.L72
1209:E:/LiteOS/LiteOS_Lab/drivers/third_party/ST/STM32L4xx_HAL_Driver/Src\stm32l4xx_hal_rcc_ex.c ****     {
1210:E:/LiteOS/LiteOS_Lab/drivers/third_party/ST/STM32L4xx_HAL_Driver/Src\stm32l4xx_hal_rcc_ex.c **** #if defined(SAI2)
1211:E:/LiteOS/LiteOS_Lab/drivers/third_party/ST/STM32L4xx_HAL_Driver/Src\stm32l4xx_hal_rcc_ex.c **** 
1212:E:/LiteOS/LiteOS_Lab/drivers/third_party/ST/STM32L4xx_HAL_Driver/Src\stm32l4xx_hal_rcc_ex.c ****     case RCC_PERIPHCLK_SAI1:
ARM GAS  C:\Users\user\AppData\Local\Temp\ccsJwa9Q.s 			page 40


1213:E:/LiteOS/LiteOS_Lab/drivers/third_party/ST/STM32L4xx_HAL_Driver/Src\stm32l4xx_hal_rcc_ex.c ****     case RCC_PERIPHCLK_SAI2:
1214:E:/LiteOS/LiteOS_Lab/drivers/third_party/ST/STM32L4xx_HAL_Driver/Src\stm32l4xx_hal_rcc_ex.c **** 
1215:E:/LiteOS/LiteOS_Lab/drivers/third_party/ST/STM32L4xx_HAL_Driver/Src\stm32l4xx_hal_rcc_ex.c ****       if(PeriphClk == RCC_PERIPHCLK_SAI1)
1216:E:/LiteOS/LiteOS_Lab/drivers/third_party/ST/STM32L4xx_HAL_Driver/Src\stm32l4xx_hal_rcc_ex.c ****       {
1217:E:/LiteOS/LiteOS_Lab/drivers/third_party/ST/STM32L4xx_HAL_Driver/Src\stm32l4xx_hal_rcc_ex.c ****         srcclk = __HAL_RCC_GET_SAI1_SOURCE();
1218:E:/LiteOS/LiteOS_Lab/drivers/third_party/ST/STM32L4xx_HAL_Driver/Src\stm32l4xx_hal_rcc_ex.c **** 
1219:E:/LiteOS/LiteOS_Lab/drivers/third_party/ST/STM32L4xx_HAL_Driver/Src\stm32l4xx_hal_rcc_ex.c ****         if(srcclk == RCC_SAI1CLKSOURCE_PIN)
1220:E:/LiteOS/LiteOS_Lab/drivers/third_party/ST/STM32L4xx_HAL_Driver/Src\stm32l4xx_hal_rcc_ex.c ****         {
1221:E:/LiteOS/LiteOS_Lab/drivers/third_party/ST/STM32L4xx_HAL_Driver/Src\stm32l4xx_hal_rcc_ex.c ****           frequency = EXTERNAL_SAI1_CLOCK_VALUE;
1222:E:/LiteOS/LiteOS_Lab/drivers/third_party/ST/STM32L4xx_HAL_Driver/Src\stm32l4xx_hal_rcc_ex.c ****         }
1223:E:/LiteOS/LiteOS_Lab/drivers/third_party/ST/STM32L4xx_HAL_Driver/Src\stm32l4xx_hal_rcc_ex.c ****         /* Else, PLL clock output to check below */
1224:E:/LiteOS/LiteOS_Lab/drivers/third_party/ST/STM32L4xx_HAL_Driver/Src\stm32l4xx_hal_rcc_ex.c ****       }
1225:E:/LiteOS/LiteOS_Lab/drivers/third_party/ST/STM32L4xx_HAL_Driver/Src\stm32l4xx_hal_rcc_ex.c ****       else /* RCC_PERIPHCLK_SAI2 */
1226:E:/LiteOS/LiteOS_Lab/drivers/third_party/ST/STM32L4xx_HAL_Driver/Src\stm32l4xx_hal_rcc_ex.c ****       {
1227:E:/LiteOS/LiteOS_Lab/drivers/third_party/ST/STM32L4xx_HAL_Driver/Src\stm32l4xx_hal_rcc_ex.c ****         srcclk = __HAL_RCC_GET_SAI2_SOURCE();
1228:E:/LiteOS/LiteOS_Lab/drivers/third_party/ST/STM32L4xx_HAL_Driver/Src\stm32l4xx_hal_rcc_ex.c **** 
1229:E:/LiteOS/LiteOS_Lab/drivers/third_party/ST/STM32L4xx_HAL_Driver/Src\stm32l4xx_hal_rcc_ex.c ****         if(srcclk == RCC_SAI2CLKSOURCE_PIN)
1230:E:/LiteOS/LiteOS_Lab/drivers/third_party/ST/STM32L4xx_HAL_Driver/Src\stm32l4xx_hal_rcc_ex.c ****         {
1231:E:/LiteOS/LiteOS_Lab/drivers/third_party/ST/STM32L4xx_HAL_Driver/Src\stm32l4xx_hal_rcc_ex.c ****           frequency = EXTERNAL_SAI2_CLOCK_VALUE;
1232:E:/LiteOS/LiteOS_Lab/drivers/third_party/ST/STM32L4xx_HAL_Driver/Src\stm32l4xx_hal_rcc_ex.c ****         }
1233:E:/LiteOS/LiteOS_Lab/drivers/third_party/ST/STM32L4xx_HAL_Driver/Src\stm32l4xx_hal_rcc_ex.c ****         /* Else, PLL clock output to check below */
1234:E:/LiteOS/LiteOS_Lab/drivers/third_party/ST/STM32L4xx_HAL_Driver/Src\stm32l4xx_hal_rcc_ex.c ****       }
1235:E:/LiteOS/LiteOS_Lab/drivers/third_party/ST/STM32L4xx_HAL_Driver/Src\stm32l4xx_hal_rcc_ex.c **** 
1236:E:/LiteOS/LiteOS_Lab/drivers/third_party/ST/STM32L4xx_HAL_Driver/Src\stm32l4xx_hal_rcc_ex.c **** #else
1237:E:/LiteOS/LiteOS_Lab/drivers/third_party/ST/STM32L4xx_HAL_Driver/Src\stm32l4xx_hal_rcc_ex.c **** 
1238:E:/LiteOS/LiteOS_Lab/drivers/third_party/ST/STM32L4xx_HAL_Driver/Src\stm32l4xx_hal_rcc_ex.c ****     case RCC_PERIPHCLK_SAI1:
1239:E:/LiteOS/LiteOS_Lab/drivers/third_party/ST/STM32L4xx_HAL_Driver/Src\stm32l4xx_hal_rcc_ex.c **** 
1240:E:/LiteOS/LiteOS_Lab/drivers/third_party/ST/STM32L4xx_HAL_Driver/Src\stm32l4xx_hal_rcc_ex.c ****       if(PeriphClk == RCC_PERIPHCLK_SAI1)
1241:E:/LiteOS/LiteOS_Lab/drivers/third_party/ST/STM32L4xx_HAL_Driver/Src\stm32l4xx_hal_rcc_ex.c ****       {
1242:E:/LiteOS/LiteOS_Lab/drivers/third_party/ST/STM32L4xx_HAL_Driver/Src\stm32l4xx_hal_rcc_ex.c ****         srcclk = READ_BIT(RCC->CCIPR, RCC_CCIPR_SAI1SEL);
1243:E:/LiteOS/LiteOS_Lab/drivers/third_party/ST/STM32L4xx_HAL_Driver/Src\stm32l4xx_hal_rcc_ex.c **** 
1244:E:/LiteOS/LiteOS_Lab/drivers/third_party/ST/STM32L4xx_HAL_Driver/Src\stm32l4xx_hal_rcc_ex.c ****         if(srcclk == RCC_SAI1CLKSOURCE_PIN)
1245:E:/LiteOS/LiteOS_Lab/drivers/third_party/ST/STM32L4xx_HAL_Driver/Src\stm32l4xx_hal_rcc_ex.c ****         {
1246:E:/LiteOS/LiteOS_Lab/drivers/third_party/ST/STM32L4xx_HAL_Driver/Src\stm32l4xx_hal_rcc_ex.c ****           frequency = EXTERNAL_SAI1_CLOCK_VALUE;
1247:E:/LiteOS/LiteOS_Lab/drivers/third_party/ST/STM32L4xx_HAL_Driver/Src\stm32l4xx_hal_rcc_ex.c ****         }
1248:E:/LiteOS/LiteOS_Lab/drivers/third_party/ST/STM32L4xx_HAL_Driver/Src\stm32l4xx_hal_rcc_ex.c ****         /* Else, PLL clock output to check below */
1249:E:/LiteOS/LiteOS_Lab/drivers/third_party/ST/STM32L4xx_HAL_Driver/Src\stm32l4xx_hal_rcc_ex.c ****       }
1250:E:/LiteOS/LiteOS_Lab/drivers/third_party/ST/STM32L4xx_HAL_Driver/Src\stm32l4xx_hal_rcc_ex.c **** 
1251:E:/LiteOS/LiteOS_Lab/drivers/third_party/ST/STM32L4xx_HAL_Driver/Src\stm32l4xx_hal_rcc_ex.c **** #endif /* SAI2 */
1252:E:/LiteOS/LiteOS_Lab/drivers/third_party/ST/STM32L4xx_HAL_Driver/Src\stm32l4xx_hal_rcc_ex.c **** 
1253:E:/LiteOS/LiteOS_Lab/drivers/third_party/ST/STM32L4xx_HAL_Driver/Src\stm32l4xx_hal_rcc_ex.c ****       if(frequency == 0U)
1254:E:/LiteOS/LiteOS_Lab/drivers/third_party/ST/STM32L4xx_HAL_Driver/Src\stm32l4xx_hal_rcc_ex.c ****       {
1255:E:/LiteOS/LiteOS_Lab/drivers/third_party/ST/STM32L4xx_HAL_Driver/Src\stm32l4xx_hal_rcc_ex.c **** #if defined(SAI2)
1256:E:/LiteOS/LiteOS_Lab/drivers/third_party/ST/STM32L4xx_HAL_Driver/Src\stm32l4xx_hal_rcc_ex.c ****         if((srcclk == RCC_SAI1CLKSOURCE_PLL) || (srcclk == RCC_SAI2CLKSOURCE_PLL))
1257:E:/LiteOS/LiteOS_Lab/drivers/third_party/ST/STM32L4xx_HAL_Driver/Src\stm32l4xx_hal_rcc_ex.c ****         {
1258:E:/LiteOS/LiteOS_Lab/drivers/third_party/ST/STM32L4xx_HAL_Driver/Src\stm32l4xx_hal_rcc_ex.c ****           if(__HAL_RCC_GET_PLLCLKOUT_CONFIG(RCC_PLL_SAI3CLK) != RESET)
1259:E:/LiteOS/LiteOS_Lab/drivers/third_party/ST/STM32L4xx_HAL_Driver/Src\stm32l4xx_hal_rcc_ex.c ****           {
1260:E:/LiteOS/LiteOS_Lab/drivers/third_party/ST/STM32L4xx_HAL_Driver/Src\stm32l4xx_hal_rcc_ex.c ****             /* f(PLLSAI3CLK) = f(VCO input) * PLLN / PLLP */
1261:E:/LiteOS/LiteOS_Lab/drivers/third_party/ST/STM32L4xx_HAL_Driver/Src\stm32l4xx_hal_rcc_ex.c ****             plln = READ_BIT(RCC->PLLCFGR, RCC_PLLCFGR_PLLN) >> RCC_PLLCFGR_PLLN_Pos;
1262:E:/LiteOS/LiteOS_Lab/drivers/third_party/ST/STM32L4xx_HAL_Driver/Src\stm32l4xx_hal_rcc_ex.c **** #if defined(RCC_PLLP_DIV_2_31_SUPPORT)
1263:E:/LiteOS/LiteOS_Lab/drivers/third_party/ST/STM32L4xx_HAL_Driver/Src\stm32l4xx_hal_rcc_ex.c ****             pllp = READ_BIT(RCC->PLLCFGR, RCC_PLLCFGR_PLLPDIV) >> RCC_PLLCFGR_PLLPDIV_Pos;
1264:E:/LiteOS/LiteOS_Lab/drivers/third_party/ST/STM32L4xx_HAL_Driver/Src\stm32l4xx_hal_rcc_ex.c **** #endif
1265:E:/LiteOS/LiteOS_Lab/drivers/third_party/ST/STM32L4xx_HAL_Driver/Src\stm32l4xx_hal_rcc_ex.c ****             if(pllp == 0U)
1266:E:/LiteOS/LiteOS_Lab/drivers/third_party/ST/STM32L4xx_HAL_Driver/Src\stm32l4xx_hal_rcc_ex.c ****             {
1267:E:/LiteOS/LiteOS_Lab/drivers/third_party/ST/STM32L4xx_HAL_Driver/Src\stm32l4xx_hal_rcc_ex.c ****               if(READ_BIT(RCC->PLLCFGR, RCC_PLLCFGR_PLLP) != RESET)
1268:E:/LiteOS/LiteOS_Lab/drivers/third_party/ST/STM32L4xx_HAL_Driver/Src\stm32l4xx_hal_rcc_ex.c ****               {
1269:E:/LiteOS/LiteOS_Lab/drivers/third_party/ST/STM32L4xx_HAL_Driver/Src\stm32l4xx_hal_rcc_ex.c ****                 pllp = 17U;
ARM GAS  C:\Users\user\AppData\Local\Temp\ccsJwa9Q.s 			page 41


1270:E:/LiteOS/LiteOS_Lab/drivers/third_party/ST/STM32L4xx_HAL_Driver/Src\stm32l4xx_hal_rcc_ex.c ****               }
1271:E:/LiteOS/LiteOS_Lab/drivers/third_party/ST/STM32L4xx_HAL_Driver/Src\stm32l4xx_hal_rcc_ex.c ****               else
1272:E:/LiteOS/LiteOS_Lab/drivers/third_party/ST/STM32L4xx_HAL_Driver/Src\stm32l4xx_hal_rcc_ex.c ****               {
1273:E:/LiteOS/LiteOS_Lab/drivers/third_party/ST/STM32L4xx_HAL_Driver/Src\stm32l4xx_hal_rcc_ex.c ****                 pllp = 7U;
1274:E:/LiteOS/LiteOS_Lab/drivers/third_party/ST/STM32L4xx_HAL_Driver/Src\stm32l4xx_hal_rcc_ex.c ****               }
1275:E:/LiteOS/LiteOS_Lab/drivers/third_party/ST/STM32L4xx_HAL_Driver/Src\stm32l4xx_hal_rcc_ex.c ****             }
1276:E:/LiteOS/LiteOS_Lab/drivers/third_party/ST/STM32L4xx_HAL_Driver/Src\stm32l4xx_hal_rcc_ex.c ****             frequency = (pllvco * plln) / pllp;
1277:E:/LiteOS/LiteOS_Lab/drivers/third_party/ST/STM32L4xx_HAL_Driver/Src\stm32l4xx_hal_rcc_ex.c ****           }
1278:E:/LiteOS/LiteOS_Lab/drivers/third_party/ST/STM32L4xx_HAL_Driver/Src\stm32l4xx_hal_rcc_ex.c ****         }
1279:E:/LiteOS/LiteOS_Lab/drivers/third_party/ST/STM32L4xx_HAL_Driver/Src\stm32l4xx_hal_rcc_ex.c ****         else if(srcclk == 0U)  /* RCC_SAI1CLKSOURCE_PLLSAI1 || RCC_SAI2CLKSOURCE_PLLSAI1 */
1280:E:/LiteOS/LiteOS_Lab/drivers/third_party/ST/STM32L4xx_HAL_Driver/Src\stm32l4xx_hal_rcc_ex.c ****         {
1281:E:/LiteOS/LiteOS_Lab/drivers/third_party/ST/STM32L4xx_HAL_Driver/Src\stm32l4xx_hal_rcc_ex.c ****           if(__HAL_RCC_GET_PLLSAI1CLKOUT_CONFIG(RCC_PLLSAI1_SAI1CLK) != RESET)
1282:E:/LiteOS/LiteOS_Lab/drivers/third_party/ST/STM32L4xx_HAL_Driver/Src\stm32l4xx_hal_rcc_ex.c ****           {
1283:E:/LiteOS/LiteOS_Lab/drivers/third_party/ST/STM32L4xx_HAL_Driver/Src\stm32l4xx_hal_rcc_ex.c **** #if defined(RCC_PLLSAI1M_DIV_1_16_SUPPORT)
1284:E:/LiteOS/LiteOS_Lab/drivers/third_party/ST/STM32L4xx_HAL_Driver/Src\stm32l4xx_hal_rcc_ex.c ****             /* f(PLLSAI1 Source) / PLLSAI1M */
1285:E:/LiteOS/LiteOS_Lab/drivers/third_party/ST/STM32L4xx_HAL_Driver/Src\stm32l4xx_hal_rcc_ex.c ****             pllvco = (pllvco / ((READ_BIT(RCC->PLLSAI1CFGR, RCC_PLLSAI1CFGR_PLLSAI1M) >> RCC_PLLSAI
1286:E:/LiteOS/LiteOS_Lab/drivers/third_party/ST/STM32L4xx_HAL_Driver/Src\stm32l4xx_hal_rcc_ex.c **** #endif
1287:E:/LiteOS/LiteOS_Lab/drivers/third_party/ST/STM32L4xx_HAL_Driver/Src\stm32l4xx_hal_rcc_ex.c ****             /* f(PLLSAI1CLK) = f(VCOSAI1 input) * PLLSAI1N / PLLSAI1P */
1288:E:/LiteOS/LiteOS_Lab/drivers/third_party/ST/STM32L4xx_HAL_Driver/Src\stm32l4xx_hal_rcc_ex.c ****             plln = READ_BIT(RCC->PLLSAI1CFGR, RCC_PLLSAI1CFGR_PLLSAI1N) >> RCC_PLLSAI1CFGR_PLLSAI1N
1289:E:/LiteOS/LiteOS_Lab/drivers/third_party/ST/STM32L4xx_HAL_Driver/Src\stm32l4xx_hal_rcc_ex.c **** #if defined(RCC_PLLSAI1P_DIV_2_31_SUPPORT)
1290:E:/LiteOS/LiteOS_Lab/drivers/third_party/ST/STM32L4xx_HAL_Driver/Src\stm32l4xx_hal_rcc_ex.c ****             pllp = READ_BIT(RCC->PLLSAI1CFGR, RCC_PLLSAI1CFGR_PLLSAI1PDIV) >> RCC_PLLSAI1CFGR_PLLSA
1291:E:/LiteOS/LiteOS_Lab/drivers/third_party/ST/STM32L4xx_HAL_Driver/Src\stm32l4xx_hal_rcc_ex.c **** #endif
1292:E:/LiteOS/LiteOS_Lab/drivers/third_party/ST/STM32L4xx_HAL_Driver/Src\stm32l4xx_hal_rcc_ex.c ****             if(pllp == 0U)
1293:E:/LiteOS/LiteOS_Lab/drivers/third_party/ST/STM32L4xx_HAL_Driver/Src\stm32l4xx_hal_rcc_ex.c ****             {
1294:E:/LiteOS/LiteOS_Lab/drivers/third_party/ST/STM32L4xx_HAL_Driver/Src\stm32l4xx_hal_rcc_ex.c ****               if(READ_BIT(RCC->PLLSAI1CFGR, RCC_PLLSAI1CFGR_PLLSAI1P) != RESET)
1295:E:/LiteOS/LiteOS_Lab/drivers/third_party/ST/STM32L4xx_HAL_Driver/Src\stm32l4xx_hal_rcc_ex.c ****               {
1296:E:/LiteOS/LiteOS_Lab/drivers/third_party/ST/STM32L4xx_HAL_Driver/Src\stm32l4xx_hal_rcc_ex.c ****                 pllp = 17U;
1297:E:/LiteOS/LiteOS_Lab/drivers/third_party/ST/STM32L4xx_HAL_Driver/Src\stm32l4xx_hal_rcc_ex.c ****               }
1298:E:/LiteOS/LiteOS_Lab/drivers/third_party/ST/STM32L4xx_HAL_Driver/Src\stm32l4xx_hal_rcc_ex.c ****               else
1299:E:/LiteOS/LiteOS_Lab/drivers/third_party/ST/STM32L4xx_HAL_Driver/Src\stm32l4xx_hal_rcc_ex.c ****               {
1300:E:/LiteOS/LiteOS_Lab/drivers/third_party/ST/STM32L4xx_HAL_Driver/Src\stm32l4xx_hal_rcc_ex.c ****                 pllp = 7U;
1301:E:/LiteOS/LiteOS_Lab/drivers/third_party/ST/STM32L4xx_HAL_Driver/Src\stm32l4xx_hal_rcc_ex.c ****               }
1302:E:/LiteOS/LiteOS_Lab/drivers/third_party/ST/STM32L4xx_HAL_Driver/Src\stm32l4xx_hal_rcc_ex.c ****             }
1303:E:/LiteOS/LiteOS_Lab/drivers/third_party/ST/STM32L4xx_HAL_Driver/Src\stm32l4xx_hal_rcc_ex.c ****             frequency = (pllvco * plln) / pllp;
1304:E:/LiteOS/LiteOS_Lab/drivers/third_party/ST/STM32L4xx_HAL_Driver/Src\stm32l4xx_hal_rcc_ex.c ****           }
1305:E:/LiteOS/LiteOS_Lab/drivers/third_party/ST/STM32L4xx_HAL_Driver/Src\stm32l4xx_hal_rcc_ex.c ****         }
1306:E:/LiteOS/LiteOS_Lab/drivers/third_party/ST/STM32L4xx_HAL_Driver/Src\stm32l4xx_hal_rcc_ex.c **** #if defined(STM32L4R5xx) || defined(STM32L4R7xx) || defined(STM32L4R9xx) || defined(STM32L4S5xx) ||
1307:E:/LiteOS/LiteOS_Lab/drivers/third_party/ST/STM32L4xx_HAL_Driver/Src\stm32l4xx_hal_rcc_ex.c ****         else if((srcclk == RCC_SAI1CLKSOURCE_HSI) || (srcclk == RCC_SAI2CLKSOURCE_HSI))
1308:E:/LiteOS/LiteOS_Lab/drivers/third_party/ST/STM32L4xx_HAL_Driver/Src\stm32l4xx_hal_rcc_ex.c ****         {
1309:E:/LiteOS/LiteOS_Lab/drivers/third_party/ST/STM32L4xx_HAL_Driver/Src\stm32l4xx_hal_rcc_ex.c ****           if(HAL_IS_BIT_SET(RCC->CR, RCC_CR_HSIRDY))
1310:E:/LiteOS/LiteOS_Lab/drivers/third_party/ST/STM32L4xx_HAL_Driver/Src\stm32l4xx_hal_rcc_ex.c ****           {
1311:E:/LiteOS/LiteOS_Lab/drivers/third_party/ST/STM32L4xx_HAL_Driver/Src\stm32l4xx_hal_rcc_ex.c ****             frequency = HSI_VALUE;
1312:E:/LiteOS/LiteOS_Lab/drivers/third_party/ST/STM32L4xx_HAL_Driver/Src\stm32l4xx_hal_rcc_ex.c ****           }
1313:E:/LiteOS/LiteOS_Lab/drivers/third_party/ST/STM32L4xx_HAL_Driver/Src\stm32l4xx_hal_rcc_ex.c ****         }
1314:E:/LiteOS/LiteOS_Lab/drivers/third_party/ST/STM32L4xx_HAL_Driver/Src\stm32l4xx_hal_rcc_ex.c **** #endif /* STM32L4R5xx || STM32L4R7xx || STM32L4R9xx || STM32L4S5xx || STM32L4S7xx || STM32L4S9xx */
1315:E:/LiteOS/LiteOS_Lab/drivers/third_party/ST/STM32L4xx_HAL_Driver/Src\stm32l4xx_hal_rcc_ex.c **** 
1316:E:/LiteOS/LiteOS_Lab/drivers/third_party/ST/STM32L4xx_HAL_Driver/Src\stm32l4xx_hal_rcc_ex.c **** #else
1317:E:/LiteOS/LiteOS_Lab/drivers/third_party/ST/STM32L4xx_HAL_Driver/Src\stm32l4xx_hal_rcc_ex.c ****         if(srcclk == RCC_SAI1CLKSOURCE_PLL)
1318:E:/LiteOS/LiteOS_Lab/drivers/third_party/ST/STM32L4xx_HAL_Driver/Src\stm32l4xx_hal_rcc_ex.c ****         {
1319:E:/LiteOS/LiteOS_Lab/drivers/third_party/ST/STM32L4xx_HAL_Driver/Src\stm32l4xx_hal_rcc_ex.c ****           if(__HAL_RCC_GET_PLLCLKOUT_CONFIG(RCC_PLL_SAI2CLK) != RESET)
1320:E:/LiteOS/LiteOS_Lab/drivers/third_party/ST/STM32L4xx_HAL_Driver/Src\stm32l4xx_hal_rcc_ex.c ****           {
1321:E:/LiteOS/LiteOS_Lab/drivers/third_party/ST/STM32L4xx_HAL_Driver/Src\stm32l4xx_hal_rcc_ex.c ****             /* f(PLLSAI2CLK) = f(VCO input) * PLLN / PLLP */
1322:E:/LiteOS/LiteOS_Lab/drivers/third_party/ST/STM32L4xx_HAL_Driver/Src\stm32l4xx_hal_rcc_ex.c ****             plln = READ_BIT(RCC->PLLCFGR, RCC_PLLCFGR_PLLN) >> RCC_PLLCFGR_PLLN_Pos;
1323:E:/LiteOS/LiteOS_Lab/drivers/third_party/ST/STM32L4xx_HAL_Driver/Src\stm32l4xx_hal_rcc_ex.c **** #if defined(RCC_PLLP_DIV_2_31_SUPPORT)
1324:E:/LiteOS/LiteOS_Lab/drivers/third_party/ST/STM32L4xx_HAL_Driver/Src\stm32l4xx_hal_rcc_ex.c ****             pllp = READ_BIT(RCC->PLLCFGR, RCC_PLLCFGR_PLLPDIV) >> RCC_PLLCFGR_PLLPDIV_Pos;
1325:E:/LiteOS/LiteOS_Lab/drivers/third_party/ST/STM32L4xx_HAL_Driver/Src\stm32l4xx_hal_rcc_ex.c **** #endif
1326:E:/LiteOS/LiteOS_Lab/drivers/third_party/ST/STM32L4xx_HAL_Driver/Src\stm32l4xx_hal_rcc_ex.c ****             if(pllp == 0U)
ARM GAS  C:\Users\user\AppData\Local\Temp\ccsJwa9Q.s 			page 42


1327:E:/LiteOS/LiteOS_Lab/drivers/third_party/ST/STM32L4xx_HAL_Driver/Src\stm32l4xx_hal_rcc_ex.c ****             {
1328:E:/LiteOS/LiteOS_Lab/drivers/third_party/ST/STM32L4xx_HAL_Driver/Src\stm32l4xx_hal_rcc_ex.c ****               if(READ_BIT(RCC->PLLCFGR, RCC_PLLCFGR_PLLP) != RESET)
1329:E:/LiteOS/LiteOS_Lab/drivers/third_party/ST/STM32L4xx_HAL_Driver/Src\stm32l4xx_hal_rcc_ex.c ****               {
1330:E:/LiteOS/LiteOS_Lab/drivers/third_party/ST/STM32L4xx_HAL_Driver/Src\stm32l4xx_hal_rcc_ex.c ****                 pllp = 17U;
1331:E:/LiteOS/LiteOS_Lab/drivers/third_party/ST/STM32L4xx_HAL_Driver/Src\stm32l4xx_hal_rcc_ex.c ****               }
1332:E:/LiteOS/LiteOS_Lab/drivers/third_party/ST/STM32L4xx_HAL_Driver/Src\stm32l4xx_hal_rcc_ex.c ****               else
1333:E:/LiteOS/LiteOS_Lab/drivers/third_party/ST/STM32L4xx_HAL_Driver/Src\stm32l4xx_hal_rcc_ex.c ****               {
1334:E:/LiteOS/LiteOS_Lab/drivers/third_party/ST/STM32L4xx_HAL_Driver/Src\stm32l4xx_hal_rcc_ex.c ****                 pllp = 7U;
1335:E:/LiteOS/LiteOS_Lab/drivers/third_party/ST/STM32L4xx_HAL_Driver/Src\stm32l4xx_hal_rcc_ex.c ****               }
1336:E:/LiteOS/LiteOS_Lab/drivers/third_party/ST/STM32L4xx_HAL_Driver/Src\stm32l4xx_hal_rcc_ex.c ****             }
1337:E:/LiteOS/LiteOS_Lab/drivers/third_party/ST/STM32L4xx_HAL_Driver/Src\stm32l4xx_hal_rcc_ex.c **** 
1338:E:/LiteOS/LiteOS_Lab/drivers/third_party/ST/STM32L4xx_HAL_Driver/Src\stm32l4xx_hal_rcc_ex.c ****             frequency = (pllvco * plln) / pllp;
1339:E:/LiteOS/LiteOS_Lab/drivers/third_party/ST/STM32L4xx_HAL_Driver/Src\stm32l4xx_hal_rcc_ex.c ****           }
1340:E:/LiteOS/LiteOS_Lab/drivers/third_party/ST/STM32L4xx_HAL_Driver/Src\stm32l4xx_hal_rcc_ex.c ****           else if(HAL_IS_BIT_SET(RCC->CR, RCC_CR_HSIRDY))
1341:E:/LiteOS/LiteOS_Lab/drivers/third_party/ST/STM32L4xx_HAL_Driver/Src\stm32l4xx_hal_rcc_ex.c ****           {
1342:E:/LiteOS/LiteOS_Lab/drivers/third_party/ST/STM32L4xx_HAL_Driver/Src\stm32l4xx_hal_rcc_ex.c ****             /* HSI automatically selected as clock source if PLLs not enabled */
1343:E:/LiteOS/LiteOS_Lab/drivers/third_party/ST/STM32L4xx_HAL_Driver/Src\stm32l4xx_hal_rcc_ex.c ****             frequency = HSI_VALUE;
1344:E:/LiteOS/LiteOS_Lab/drivers/third_party/ST/STM32L4xx_HAL_Driver/Src\stm32l4xx_hal_rcc_ex.c ****           }
1345:E:/LiteOS/LiteOS_Lab/drivers/third_party/ST/STM32L4xx_HAL_Driver/Src\stm32l4xx_hal_rcc_ex.c ****           else
1346:E:/LiteOS/LiteOS_Lab/drivers/third_party/ST/STM32L4xx_HAL_Driver/Src\stm32l4xx_hal_rcc_ex.c ****           {
1347:E:/LiteOS/LiteOS_Lab/drivers/third_party/ST/STM32L4xx_HAL_Driver/Src\stm32l4xx_hal_rcc_ex.c ****             /* No clock source */
1348:E:/LiteOS/LiteOS_Lab/drivers/third_party/ST/STM32L4xx_HAL_Driver/Src\stm32l4xx_hal_rcc_ex.c ****             frequency = 0U;
1349:E:/LiteOS/LiteOS_Lab/drivers/third_party/ST/STM32L4xx_HAL_Driver/Src\stm32l4xx_hal_rcc_ex.c ****           }
1350:E:/LiteOS/LiteOS_Lab/drivers/third_party/ST/STM32L4xx_HAL_Driver/Src\stm32l4xx_hal_rcc_ex.c ****         }
1351:E:/LiteOS/LiteOS_Lab/drivers/third_party/ST/STM32L4xx_HAL_Driver/Src\stm32l4xx_hal_rcc_ex.c ****         else if(srcclk == RCC_SAI1CLKSOURCE_PLLSAI1)
1352:E:/LiteOS/LiteOS_Lab/drivers/third_party/ST/STM32L4xx_HAL_Driver/Src\stm32l4xx_hal_rcc_ex.c ****         {
1353:E:/LiteOS/LiteOS_Lab/drivers/third_party/ST/STM32L4xx_HAL_Driver/Src\stm32l4xx_hal_rcc_ex.c ****           if(__HAL_RCC_GET_PLLSAI1CLKOUT_CONFIG(RCC_PLLSAI1_SAI1CLK) != RESET)
1354:E:/LiteOS/LiteOS_Lab/drivers/third_party/ST/STM32L4xx_HAL_Driver/Src\stm32l4xx_hal_rcc_ex.c ****           {
1355:E:/LiteOS/LiteOS_Lab/drivers/third_party/ST/STM32L4xx_HAL_Driver/Src\stm32l4xx_hal_rcc_ex.c **** #if defined(RCC_PLLSAI1M_DIV_1_16_SUPPORT)
1356:E:/LiteOS/LiteOS_Lab/drivers/third_party/ST/STM32L4xx_HAL_Driver/Src\stm32l4xx_hal_rcc_ex.c ****             /* f(PLLSAI1 Source) / PLLSAI1M */
1357:E:/LiteOS/LiteOS_Lab/drivers/third_party/ST/STM32L4xx_HAL_Driver/Src\stm32l4xx_hal_rcc_ex.c ****             pllvco = (pllvco / ((READ_BIT(RCC->PLLSAI1CFGR, RCC_PLLSAI1CFGR_PLLSAI1M) >> RCC_PLLSAI
1358:E:/LiteOS/LiteOS_Lab/drivers/third_party/ST/STM32L4xx_HAL_Driver/Src\stm32l4xx_hal_rcc_ex.c **** #endif
1359:E:/LiteOS/LiteOS_Lab/drivers/third_party/ST/STM32L4xx_HAL_Driver/Src\stm32l4xx_hal_rcc_ex.c ****             /* f(PLLSAI1CLK) = f(VCOSAI1 input) * PLLSAI1N / PLLSAI1P */
1360:E:/LiteOS/LiteOS_Lab/drivers/third_party/ST/STM32L4xx_HAL_Driver/Src\stm32l4xx_hal_rcc_ex.c ****             plln = READ_BIT(RCC->PLLSAI1CFGR, RCC_PLLSAI1CFGR_PLLSAI1N) >> RCC_PLLSAI1CFGR_PLLSAI1N
1361:E:/LiteOS/LiteOS_Lab/drivers/third_party/ST/STM32L4xx_HAL_Driver/Src\stm32l4xx_hal_rcc_ex.c **** #if defined(RCC_PLLSAI1P_DIV_2_31_SUPPORT)
1362:E:/LiteOS/LiteOS_Lab/drivers/third_party/ST/STM32L4xx_HAL_Driver/Src\stm32l4xx_hal_rcc_ex.c ****             pllp = READ_BIT(RCC->PLLSAI1CFGR, RCC_PLLSAI1CFGR_PLLSAI1PDIV) >> RCC_PLLSAI1CFGR_PLLSA
1363:E:/LiteOS/LiteOS_Lab/drivers/third_party/ST/STM32L4xx_HAL_Driver/Src\stm32l4xx_hal_rcc_ex.c **** #endif
1364:E:/LiteOS/LiteOS_Lab/drivers/third_party/ST/STM32L4xx_HAL_Driver/Src\stm32l4xx_hal_rcc_ex.c ****             if(pllp == 0U)
1365:E:/LiteOS/LiteOS_Lab/drivers/third_party/ST/STM32L4xx_HAL_Driver/Src\stm32l4xx_hal_rcc_ex.c ****             {
1366:E:/LiteOS/LiteOS_Lab/drivers/third_party/ST/STM32L4xx_HAL_Driver/Src\stm32l4xx_hal_rcc_ex.c ****               if(READ_BIT(RCC->PLLSAI1CFGR, RCC_PLLSAI1CFGR_PLLSAI1P) != RESET)
1367:E:/LiteOS/LiteOS_Lab/drivers/third_party/ST/STM32L4xx_HAL_Driver/Src\stm32l4xx_hal_rcc_ex.c ****               {
1368:E:/LiteOS/LiteOS_Lab/drivers/third_party/ST/STM32L4xx_HAL_Driver/Src\stm32l4xx_hal_rcc_ex.c ****                 pllp = 17U;
1369:E:/LiteOS/LiteOS_Lab/drivers/third_party/ST/STM32L4xx_HAL_Driver/Src\stm32l4xx_hal_rcc_ex.c ****               }
1370:E:/LiteOS/LiteOS_Lab/drivers/third_party/ST/STM32L4xx_HAL_Driver/Src\stm32l4xx_hal_rcc_ex.c ****               else
1371:E:/LiteOS/LiteOS_Lab/drivers/third_party/ST/STM32L4xx_HAL_Driver/Src\stm32l4xx_hal_rcc_ex.c ****               {
1372:E:/LiteOS/LiteOS_Lab/drivers/third_party/ST/STM32L4xx_HAL_Driver/Src\stm32l4xx_hal_rcc_ex.c ****                 pllp = 7U;
1373:E:/LiteOS/LiteOS_Lab/drivers/third_party/ST/STM32L4xx_HAL_Driver/Src\stm32l4xx_hal_rcc_ex.c ****               }
1374:E:/LiteOS/LiteOS_Lab/drivers/third_party/ST/STM32L4xx_HAL_Driver/Src\stm32l4xx_hal_rcc_ex.c ****             }
1375:E:/LiteOS/LiteOS_Lab/drivers/third_party/ST/STM32L4xx_HAL_Driver/Src\stm32l4xx_hal_rcc_ex.c **** 
1376:E:/LiteOS/LiteOS_Lab/drivers/third_party/ST/STM32L4xx_HAL_Driver/Src\stm32l4xx_hal_rcc_ex.c ****            frequency = (pllvco * plln) / pllp;
1377:E:/LiteOS/LiteOS_Lab/drivers/third_party/ST/STM32L4xx_HAL_Driver/Src\stm32l4xx_hal_rcc_ex.c ****           }
1378:E:/LiteOS/LiteOS_Lab/drivers/third_party/ST/STM32L4xx_HAL_Driver/Src\stm32l4xx_hal_rcc_ex.c ****           else if(HAL_IS_BIT_SET(RCC->CR, RCC_CR_HSIRDY))
1379:E:/LiteOS/LiteOS_Lab/drivers/third_party/ST/STM32L4xx_HAL_Driver/Src\stm32l4xx_hal_rcc_ex.c ****           {
1380:E:/LiteOS/LiteOS_Lab/drivers/third_party/ST/STM32L4xx_HAL_Driver/Src\stm32l4xx_hal_rcc_ex.c ****             /* HSI automatically selected as clock source if PLLs not enabled */
1381:E:/LiteOS/LiteOS_Lab/drivers/third_party/ST/STM32L4xx_HAL_Driver/Src\stm32l4xx_hal_rcc_ex.c ****             frequency = HSI_VALUE;
1382:E:/LiteOS/LiteOS_Lab/drivers/third_party/ST/STM32L4xx_HAL_Driver/Src\stm32l4xx_hal_rcc_ex.c ****           }
1383:E:/LiteOS/LiteOS_Lab/drivers/third_party/ST/STM32L4xx_HAL_Driver/Src\stm32l4xx_hal_rcc_ex.c ****           else
ARM GAS  C:\Users\user\AppData\Local\Temp\ccsJwa9Q.s 			page 43


1384:E:/LiteOS/LiteOS_Lab/drivers/third_party/ST/STM32L4xx_HAL_Driver/Src\stm32l4xx_hal_rcc_ex.c ****           {
1385:E:/LiteOS/LiteOS_Lab/drivers/third_party/ST/STM32L4xx_HAL_Driver/Src\stm32l4xx_hal_rcc_ex.c ****             /* No clock source */
1386:E:/LiteOS/LiteOS_Lab/drivers/third_party/ST/STM32L4xx_HAL_Driver/Src\stm32l4xx_hal_rcc_ex.c ****             frequency = 0U;
1387:E:/LiteOS/LiteOS_Lab/drivers/third_party/ST/STM32L4xx_HAL_Driver/Src\stm32l4xx_hal_rcc_ex.c ****           }
1388:E:/LiteOS/LiteOS_Lab/drivers/third_party/ST/STM32L4xx_HAL_Driver/Src\stm32l4xx_hal_rcc_ex.c ****         }
1389:E:/LiteOS/LiteOS_Lab/drivers/third_party/ST/STM32L4xx_HAL_Driver/Src\stm32l4xx_hal_rcc_ex.c **** #endif /* SAI2 */
1390:E:/LiteOS/LiteOS_Lab/drivers/third_party/ST/STM32L4xx_HAL_Driver/Src\stm32l4xx_hal_rcc_ex.c **** 
1391:E:/LiteOS/LiteOS_Lab/drivers/third_party/ST/STM32L4xx_HAL_Driver/Src\stm32l4xx_hal_rcc_ex.c **** #if defined(RCC_PLLSAI2_SUPPORT)
1392:E:/LiteOS/LiteOS_Lab/drivers/third_party/ST/STM32L4xx_HAL_Driver/Src\stm32l4xx_hal_rcc_ex.c **** 
1393:E:/LiteOS/LiteOS_Lab/drivers/third_party/ST/STM32L4xx_HAL_Driver/Src\stm32l4xx_hal_rcc_ex.c ****         else if((srcclk == RCC_SAI1CLKSOURCE_PLLSAI2) || (srcclk == RCC_SAI2CLKSOURCE_PLLSAI2))
1394:E:/LiteOS/LiteOS_Lab/drivers/third_party/ST/STM32L4xx_HAL_Driver/Src\stm32l4xx_hal_rcc_ex.c ****         {
1395:E:/LiteOS/LiteOS_Lab/drivers/third_party/ST/STM32L4xx_HAL_Driver/Src\stm32l4xx_hal_rcc_ex.c ****           if(__HAL_RCC_GET_PLLSAI2CLKOUT_CONFIG(RCC_PLLSAI2_SAI2CLK) != RESET)
1396:E:/LiteOS/LiteOS_Lab/drivers/third_party/ST/STM32L4xx_HAL_Driver/Src\stm32l4xx_hal_rcc_ex.c ****           {
1397:E:/LiteOS/LiteOS_Lab/drivers/third_party/ST/STM32L4xx_HAL_Driver/Src\stm32l4xx_hal_rcc_ex.c **** #if defined(RCC_PLLSAI2M_DIV_1_16_SUPPORT)
1398:E:/LiteOS/LiteOS_Lab/drivers/third_party/ST/STM32L4xx_HAL_Driver/Src\stm32l4xx_hal_rcc_ex.c ****             /* f(PLLSAI2 Source) / PLLSAI2M */
1399:E:/LiteOS/LiteOS_Lab/drivers/third_party/ST/STM32L4xx_HAL_Driver/Src\stm32l4xx_hal_rcc_ex.c ****             pllvco = (pllvco / ((READ_BIT(RCC->PLLSAI2CFGR, RCC_PLLSAI2CFGR_PLLSAI2M) >> RCC_PLLSAI
1400:E:/LiteOS/LiteOS_Lab/drivers/third_party/ST/STM32L4xx_HAL_Driver/Src\stm32l4xx_hal_rcc_ex.c **** #endif
1401:E:/LiteOS/LiteOS_Lab/drivers/third_party/ST/STM32L4xx_HAL_Driver/Src\stm32l4xx_hal_rcc_ex.c ****             /* f(PLLSAI2CLK) = f(VCOSAI2 input) * PLLSAI2N / PLLSAI2P */
1402:E:/LiteOS/LiteOS_Lab/drivers/third_party/ST/STM32L4xx_HAL_Driver/Src\stm32l4xx_hal_rcc_ex.c ****             plln = READ_BIT(RCC->PLLSAI2CFGR, RCC_PLLSAI2CFGR_PLLSAI2N) >> RCC_PLLSAI2CFGR_PLLSAI2N
1403:E:/LiteOS/LiteOS_Lab/drivers/third_party/ST/STM32L4xx_HAL_Driver/Src\stm32l4xx_hal_rcc_ex.c **** #if defined(RCC_PLLSAI2P_DIV_2_31_SUPPORT)
1404:E:/LiteOS/LiteOS_Lab/drivers/third_party/ST/STM32L4xx_HAL_Driver/Src\stm32l4xx_hal_rcc_ex.c ****             pllp = READ_BIT(RCC->PLLSAI2CFGR, RCC_PLLSAI2CFGR_PLLSAI2PDIV) >> RCC_PLLSAI2CFGR_PLLSA
1405:E:/LiteOS/LiteOS_Lab/drivers/third_party/ST/STM32L4xx_HAL_Driver/Src\stm32l4xx_hal_rcc_ex.c **** #endif
1406:E:/LiteOS/LiteOS_Lab/drivers/third_party/ST/STM32L4xx_HAL_Driver/Src\stm32l4xx_hal_rcc_ex.c ****             if(pllp == 0U)
1407:E:/LiteOS/LiteOS_Lab/drivers/third_party/ST/STM32L4xx_HAL_Driver/Src\stm32l4xx_hal_rcc_ex.c ****             {
1408:E:/LiteOS/LiteOS_Lab/drivers/third_party/ST/STM32L4xx_HAL_Driver/Src\stm32l4xx_hal_rcc_ex.c ****               if(READ_BIT(RCC->PLLSAI2CFGR, RCC_PLLSAI2CFGR_PLLSAI2P) != RESET)
1409:E:/LiteOS/LiteOS_Lab/drivers/third_party/ST/STM32L4xx_HAL_Driver/Src\stm32l4xx_hal_rcc_ex.c ****               {
1410:E:/LiteOS/LiteOS_Lab/drivers/third_party/ST/STM32L4xx_HAL_Driver/Src\stm32l4xx_hal_rcc_ex.c ****                 pllp = 17U;
1411:E:/LiteOS/LiteOS_Lab/drivers/third_party/ST/STM32L4xx_HAL_Driver/Src\stm32l4xx_hal_rcc_ex.c ****               }
1412:E:/LiteOS/LiteOS_Lab/drivers/third_party/ST/STM32L4xx_HAL_Driver/Src\stm32l4xx_hal_rcc_ex.c ****               else
1413:E:/LiteOS/LiteOS_Lab/drivers/third_party/ST/STM32L4xx_HAL_Driver/Src\stm32l4xx_hal_rcc_ex.c ****               {
1414:E:/LiteOS/LiteOS_Lab/drivers/third_party/ST/STM32L4xx_HAL_Driver/Src\stm32l4xx_hal_rcc_ex.c ****                 pllp = 7U;
1415:E:/LiteOS/LiteOS_Lab/drivers/third_party/ST/STM32L4xx_HAL_Driver/Src\stm32l4xx_hal_rcc_ex.c ****               }
1416:E:/LiteOS/LiteOS_Lab/drivers/third_party/ST/STM32L4xx_HAL_Driver/Src\stm32l4xx_hal_rcc_ex.c ****             }
1417:E:/LiteOS/LiteOS_Lab/drivers/third_party/ST/STM32L4xx_HAL_Driver/Src\stm32l4xx_hal_rcc_ex.c ****             frequency = (pllvco * plln) / pllp;
1418:E:/LiteOS/LiteOS_Lab/drivers/third_party/ST/STM32L4xx_HAL_Driver/Src\stm32l4xx_hal_rcc_ex.c ****           }
1419:E:/LiteOS/LiteOS_Lab/drivers/third_party/ST/STM32L4xx_HAL_Driver/Src\stm32l4xx_hal_rcc_ex.c ****         }
1420:E:/LiteOS/LiteOS_Lab/drivers/third_party/ST/STM32L4xx_HAL_Driver/Src\stm32l4xx_hal_rcc_ex.c **** 
1421:E:/LiteOS/LiteOS_Lab/drivers/third_party/ST/STM32L4xx_HAL_Driver/Src\stm32l4xx_hal_rcc_ex.c **** #endif /* RCC_PLLSAI2_SUPPORT */
1422:E:/LiteOS/LiteOS_Lab/drivers/third_party/ST/STM32L4xx_HAL_Driver/Src\stm32l4xx_hal_rcc_ex.c **** 
1423:E:/LiteOS/LiteOS_Lab/drivers/third_party/ST/STM32L4xx_HAL_Driver/Src\stm32l4xx_hal_rcc_ex.c ****         else
1424:E:/LiteOS/LiteOS_Lab/drivers/third_party/ST/STM32L4xx_HAL_Driver/Src\stm32l4xx_hal_rcc_ex.c ****         {
1425:E:/LiteOS/LiteOS_Lab/drivers/third_party/ST/STM32L4xx_HAL_Driver/Src\stm32l4xx_hal_rcc_ex.c ****           /* No clock source */
1426:E:/LiteOS/LiteOS_Lab/drivers/third_party/ST/STM32L4xx_HAL_Driver/Src\stm32l4xx_hal_rcc_ex.c ****           frequency = 0U;
1427:E:/LiteOS/LiteOS_Lab/drivers/third_party/ST/STM32L4xx_HAL_Driver/Src\stm32l4xx_hal_rcc_ex.c ****         }
1428:E:/LiteOS/LiteOS_Lab/drivers/third_party/ST/STM32L4xx_HAL_Driver/Src\stm32l4xx_hal_rcc_ex.c ****       }
1429:E:/LiteOS/LiteOS_Lab/drivers/third_party/ST/STM32L4xx_HAL_Driver/Src\stm32l4xx_hal_rcc_ex.c ****       break;
1430:E:/LiteOS/LiteOS_Lab/drivers/third_party/ST/STM32L4xx_HAL_Driver/Src\stm32l4xx_hal_rcc_ex.c **** 
1431:E:/LiteOS/LiteOS_Lab/drivers/third_party/ST/STM32L4xx_HAL_Driver/Src\stm32l4xx_hal_rcc_ex.c **** #if defined(USB_OTG_FS) || defined(USB)
1432:E:/LiteOS/LiteOS_Lab/drivers/third_party/ST/STM32L4xx_HAL_Driver/Src\stm32l4xx_hal_rcc_ex.c **** 
1433:E:/LiteOS/LiteOS_Lab/drivers/third_party/ST/STM32L4xx_HAL_Driver/Src\stm32l4xx_hal_rcc_ex.c ****     case RCC_PERIPHCLK_USB:
1434:E:/LiteOS/LiteOS_Lab/drivers/third_party/ST/STM32L4xx_HAL_Driver/Src\stm32l4xx_hal_rcc_ex.c **** 
1435:E:/LiteOS/LiteOS_Lab/drivers/third_party/ST/STM32L4xx_HAL_Driver/Src\stm32l4xx_hal_rcc_ex.c **** #endif /* USB_OTG_FS || USB */
1436:E:/LiteOS/LiteOS_Lab/drivers/third_party/ST/STM32L4xx_HAL_Driver/Src\stm32l4xx_hal_rcc_ex.c **** 
1437:E:/LiteOS/LiteOS_Lab/drivers/third_party/ST/STM32L4xx_HAL_Driver/Src\stm32l4xx_hal_rcc_ex.c ****     case RCC_PERIPHCLK_RNG:
1438:E:/LiteOS/LiteOS_Lab/drivers/third_party/ST/STM32L4xx_HAL_Driver/Src\stm32l4xx_hal_rcc_ex.c **** 
1439:E:/LiteOS/LiteOS_Lab/drivers/third_party/ST/STM32L4xx_HAL_Driver/Src\stm32l4xx_hal_rcc_ex.c **** #if defined(SDMMC1) && !defined(RCC_CCIPR2_SDMMCSEL)
1440:E:/LiteOS/LiteOS_Lab/drivers/third_party/ST/STM32L4xx_HAL_Driver/Src\stm32l4xx_hal_rcc_ex.c **** 
ARM GAS  C:\Users\user\AppData\Local\Temp\ccsJwa9Q.s 			page 44


1441:E:/LiteOS/LiteOS_Lab/drivers/third_party/ST/STM32L4xx_HAL_Driver/Src\stm32l4xx_hal_rcc_ex.c ****     case RCC_PERIPHCLK_SDMMC1:
1442:E:/LiteOS/LiteOS_Lab/drivers/third_party/ST/STM32L4xx_HAL_Driver/Src\stm32l4xx_hal_rcc_ex.c **** 
1443:E:/LiteOS/LiteOS_Lab/drivers/third_party/ST/STM32L4xx_HAL_Driver/Src\stm32l4xx_hal_rcc_ex.c **** #endif /* SDMMC1 && !RCC_CCIPR2_SDMMCSEL */
1444:E:/LiteOS/LiteOS_Lab/drivers/third_party/ST/STM32L4xx_HAL_Driver/Src\stm32l4xx_hal_rcc_ex.c **** 
1445:E:/LiteOS/LiteOS_Lab/drivers/third_party/ST/STM32L4xx_HAL_Driver/Src\stm32l4xx_hal_rcc_ex.c ****       srcclk = READ_BIT(RCC->CCIPR, RCC_CCIPR_CLK48SEL);
1446:E:/LiteOS/LiteOS_Lab/drivers/third_party/ST/STM32L4xx_HAL_Driver/Src\stm32l4xx_hal_rcc_ex.c **** 
1447:E:/LiteOS/LiteOS_Lab/drivers/third_party/ST/STM32L4xx_HAL_Driver/Src\stm32l4xx_hal_rcc_ex.c ****       if(srcclk == RCC_CCIPR_CLK48SEL)   /* MSI ? */
1448:E:/LiteOS/LiteOS_Lab/drivers/third_party/ST/STM32L4xx_HAL_Driver/Src\stm32l4xx_hal_rcc_ex.c ****       {
1449:E:/LiteOS/LiteOS_Lab/drivers/third_party/ST/STM32L4xx_HAL_Driver/Src\stm32l4xx_hal_rcc_ex.c ****         if(HAL_IS_BIT_SET(RCC->CR, RCC_CR_MSIRDY))
1450:E:/LiteOS/LiteOS_Lab/drivers/third_party/ST/STM32L4xx_HAL_Driver/Src\stm32l4xx_hal_rcc_ex.c ****         {
1451:E:/LiteOS/LiteOS_Lab/drivers/third_party/ST/STM32L4xx_HAL_Driver/Src\stm32l4xx_hal_rcc_ex.c ****           /*MSI frequency range in HZ*/
1452:E:/LiteOS/LiteOS_Lab/drivers/third_party/ST/STM32L4xx_HAL_Driver/Src\stm32l4xx_hal_rcc_ex.c ****           frequency = MSIRangeTable[(__HAL_RCC_GET_MSI_RANGE() >> 4U)];
1453:E:/LiteOS/LiteOS_Lab/drivers/third_party/ST/STM32L4xx_HAL_Driver/Src\stm32l4xx_hal_rcc_ex.c ****         }
1454:E:/LiteOS/LiteOS_Lab/drivers/third_party/ST/STM32L4xx_HAL_Driver/Src\stm32l4xx_hal_rcc_ex.c ****         else
1455:E:/LiteOS/LiteOS_Lab/drivers/third_party/ST/STM32L4xx_HAL_Driver/Src\stm32l4xx_hal_rcc_ex.c ****         {
1456:E:/LiteOS/LiteOS_Lab/drivers/third_party/ST/STM32L4xx_HAL_Driver/Src\stm32l4xx_hal_rcc_ex.c ****           frequency = 0U;
1457:E:/LiteOS/LiteOS_Lab/drivers/third_party/ST/STM32L4xx_HAL_Driver/Src\stm32l4xx_hal_rcc_ex.c ****         }
1458:E:/LiteOS/LiteOS_Lab/drivers/third_party/ST/STM32L4xx_HAL_Driver/Src\stm32l4xx_hal_rcc_ex.c ****       }
1459:E:/LiteOS/LiteOS_Lab/drivers/third_party/ST/STM32L4xx_HAL_Driver/Src\stm32l4xx_hal_rcc_ex.c ****       else if(srcclk == RCC_CCIPR_CLK48SEL_1)  /* PLL ? */
1460:E:/LiteOS/LiteOS_Lab/drivers/third_party/ST/STM32L4xx_HAL_Driver/Src\stm32l4xx_hal_rcc_ex.c ****       {
1461:E:/LiteOS/LiteOS_Lab/drivers/third_party/ST/STM32L4xx_HAL_Driver/Src\stm32l4xx_hal_rcc_ex.c ****         if(HAL_IS_BIT_SET(RCC->CR, RCC_CR_PLLRDY) && HAL_IS_BIT_SET(RCC->PLLCFGR, RCC_PLLCFGR_PLLQE
1462:E:/LiteOS/LiteOS_Lab/drivers/third_party/ST/STM32L4xx_HAL_Driver/Src\stm32l4xx_hal_rcc_ex.c ****         {
1463:E:/LiteOS/LiteOS_Lab/drivers/third_party/ST/STM32L4xx_HAL_Driver/Src\stm32l4xx_hal_rcc_ex.c **** #if defined(RCC_PLLSAI1M_DIV_1_16_SUPPORT) || defined(RCC_PLLSAI2M_DIV_1_16_SUPPORT)
1464:E:/LiteOS/LiteOS_Lab/drivers/third_party/ST/STM32L4xx_HAL_Driver/Src\stm32l4xx_hal_rcc_ex.c ****           /* f(PLL Source) / PLLM */
1465:E:/LiteOS/LiteOS_Lab/drivers/third_party/ST/STM32L4xx_HAL_Driver/Src\stm32l4xx_hal_rcc_ex.c ****           pllvco = (pllvco / ((READ_BIT(RCC->PLLCFGR, RCC_PLLCFGR_PLLM) >> RCC_PLLCFGR_PLLM_Pos) + 
1466:E:/LiteOS/LiteOS_Lab/drivers/third_party/ST/STM32L4xx_HAL_Driver/Src\stm32l4xx_hal_rcc_ex.c **** #endif
1467:E:/LiteOS/LiteOS_Lab/drivers/third_party/ST/STM32L4xx_HAL_Driver/Src\stm32l4xx_hal_rcc_ex.c ****           /* f(PLL48M1CLK) = f(VCO input) * PLLN / PLLQ */
1468:E:/LiteOS/LiteOS_Lab/drivers/third_party/ST/STM32L4xx_HAL_Driver/Src\stm32l4xx_hal_rcc_ex.c ****           plln = READ_BIT(RCC->PLLCFGR, RCC_PLLCFGR_PLLN) >> RCC_PLLCFGR_PLLN_Pos;
1469:E:/LiteOS/LiteOS_Lab/drivers/third_party/ST/STM32L4xx_HAL_Driver/Src\stm32l4xx_hal_rcc_ex.c ****           frequency = (pllvco * plln) / (((READ_BIT(RCC->PLLCFGR, RCC_PLLCFGR_PLLQ) >> RCC_PLLCFGR_
1470:E:/LiteOS/LiteOS_Lab/drivers/third_party/ST/STM32L4xx_HAL_Driver/Src\stm32l4xx_hal_rcc_ex.c ****         }
1471:E:/LiteOS/LiteOS_Lab/drivers/third_party/ST/STM32L4xx_HAL_Driver/Src\stm32l4xx_hal_rcc_ex.c ****         else
1472:E:/LiteOS/LiteOS_Lab/drivers/third_party/ST/STM32L4xx_HAL_Driver/Src\stm32l4xx_hal_rcc_ex.c ****         {
1473:E:/LiteOS/LiteOS_Lab/drivers/third_party/ST/STM32L4xx_HAL_Driver/Src\stm32l4xx_hal_rcc_ex.c ****           frequency = 0U;
1474:E:/LiteOS/LiteOS_Lab/drivers/third_party/ST/STM32L4xx_HAL_Driver/Src\stm32l4xx_hal_rcc_ex.c ****         }
1475:E:/LiteOS/LiteOS_Lab/drivers/third_party/ST/STM32L4xx_HAL_Driver/Src\stm32l4xx_hal_rcc_ex.c ****       }
1476:E:/LiteOS/LiteOS_Lab/drivers/third_party/ST/STM32L4xx_HAL_Driver/Src\stm32l4xx_hal_rcc_ex.c ****       else if(srcclk == RCC_CCIPR_CLK48SEL_0)  /* PLLSAI1 ? */
1477:E:/LiteOS/LiteOS_Lab/drivers/third_party/ST/STM32L4xx_HAL_Driver/Src\stm32l4xx_hal_rcc_ex.c ****       {
1478:E:/LiteOS/LiteOS_Lab/drivers/third_party/ST/STM32L4xx_HAL_Driver/Src\stm32l4xx_hal_rcc_ex.c ****         if(HAL_IS_BIT_SET(RCC->CR, RCC_CR_PLLSAI1RDY) && HAL_IS_BIT_SET(RCC->PLLSAI1CFGR, RCC_PLLSA
1479:E:/LiteOS/LiteOS_Lab/drivers/third_party/ST/STM32L4xx_HAL_Driver/Src\stm32l4xx_hal_rcc_ex.c ****         {
1480:E:/LiteOS/LiteOS_Lab/drivers/third_party/ST/STM32L4xx_HAL_Driver/Src\stm32l4xx_hal_rcc_ex.c **** #if defined(RCC_PLLSAI1M_DIV_1_16_SUPPORT)
1481:E:/LiteOS/LiteOS_Lab/drivers/third_party/ST/STM32L4xx_HAL_Driver/Src\stm32l4xx_hal_rcc_ex.c ****           /* f(PLLSAI1 Source) / PLLSAI1M */
1482:E:/LiteOS/LiteOS_Lab/drivers/third_party/ST/STM32L4xx_HAL_Driver/Src\stm32l4xx_hal_rcc_ex.c ****           pllvco = (pllvco / ((READ_BIT(RCC->PLLSAI1CFGR, RCC_PLLSAI1CFGR_PLLSAI1M) >> RCC_PLLSAI1C
1483:E:/LiteOS/LiteOS_Lab/drivers/third_party/ST/STM32L4xx_HAL_Driver/Src\stm32l4xx_hal_rcc_ex.c **** #endif
1484:E:/LiteOS/LiteOS_Lab/drivers/third_party/ST/STM32L4xx_HAL_Driver/Src\stm32l4xx_hal_rcc_ex.c ****           /* f(PLL48M2CLK) = f(VCOSAI1 input) * PLLSAI1N / PLLSAI1Q */
1485:E:/LiteOS/LiteOS_Lab/drivers/third_party/ST/STM32L4xx_HAL_Driver/Src\stm32l4xx_hal_rcc_ex.c ****           plln = READ_BIT(RCC->PLLSAI1CFGR, RCC_PLLSAI1CFGR_PLLSAI1N) >> RCC_PLLSAI1CFGR_PLLSAI1N_P
1486:E:/LiteOS/LiteOS_Lab/drivers/third_party/ST/STM32L4xx_HAL_Driver/Src\stm32l4xx_hal_rcc_ex.c ****           frequency = (pllvco * plln) / (((READ_BIT(RCC->PLLSAI1CFGR, RCC_PLLSAI1CFGR_PLLSAI1Q) >> 
1487:E:/LiteOS/LiteOS_Lab/drivers/third_party/ST/STM32L4xx_HAL_Driver/Src\stm32l4xx_hal_rcc_ex.c ****         }
1488:E:/LiteOS/LiteOS_Lab/drivers/third_party/ST/STM32L4xx_HAL_Driver/Src\stm32l4xx_hal_rcc_ex.c ****         else
1489:E:/LiteOS/LiteOS_Lab/drivers/third_party/ST/STM32L4xx_HAL_Driver/Src\stm32l4xx_hal_rcc_ex.c ****         {
1490:E:/LiteOS/LiteOS_Lab/drivers/third_party/ST/STM32L4xx_HAL_Driver/Src\stm32l4xx_hal_rcc_ex.c ****           frequency = 0U;
1491:E:/LiteOS/LiteOS_Lab/drivers/third_party/ST/STM32L4xx_HAL_Driver/Src\stm32l4xx_hal_rcc_ex.c ****         }
1492:E:/LiteOS/LiteOS_Lab/drivers/third_party/ST/STM32L4xx_HAL_Driver/Src\stm32l4xx_hal_rcc_ex.c ****       }
1493:E:/LiteOS/LiteOS_Lab/drivers/third_party/ST/STM32L4xx_HAL_Driver/Src\stm32l4xx_hal_rcc_ex.c **** #if defined(RCC_HSI48_SUPPORT)
1494:E:/LiteOS/LiteOS_Lab/drivers/third_party/ST/STM32L4xx_HAL_Driver/Src\stm32l4xx_hal_rcc_ex.c ****       else if((srcclk == 0U) && (HAL_IS_BIT_SET(RCC->CRRCR, RCC_CRRCR_HSI48RDY))) /* HSI48 ? */
1495:E:/LiteOS/LiteOS_Lab/drivers/third_party/ST/STM32L4xx_HAL_Driver/Src\stm32l4xx_hal_rcc_ex.c ****       {
1496:E:/LiteOS/LiteOS_Lab/drivers/third_party/ST/STM32L4xx_HAL_Driver/Src\stm32l4xx_hal_rcc_ex.c ****         frequency = HSI48_VALUE;
1497:E:/LiteOS/LiteOS_Lab/drivers/third_party/ST/STM32L4xx_HAL_Driver/Src\stm32l4xx_hal_rcc_ex.c ****       }
ARM GAS  C:\Users\user\AppData\Local\Temp\ccsJwa9Q.s 			page 45


1498:E:/LiteOS/LiteOS_Lab/drivers/third_party/ST/STM32L4xx_HAL_Driver/Src\stm32l4xx_hal_rcc_ex.c ****       else /* No clock source */
1499:E:/LiteOS/LiteOS_Lab/drivers/third_party/ST/STM32L4xx_HAL_Driver/Src\stm32l4xx_hal_rcc_ex.c ****       {
1500:E:/LiteOS/LiteOS_Lab/drivers/third_party/ST/STM32L4xx_HAL_Driver/Src\stm32l4xx_hal_rcc_ex.c ****         frequency = 0U;
1501:E:/LiteOS/LiteOS_Lab/drivers/third_party/ST/STM32L4xx_HAL_Driver/Src\stm32l4xx_hal_rcc_ex.c ****       }
1502:E:/LiteOS/LiteOS_Lab/drivers/third_party/ST/STM32L4xx_HAL_Driver/Src\stm32l4xx_hal_rcc_ex.c **** #else
1503:E:/LiteOS/LiteOS_Lab/drivers/third_party/ST/STM32L4xx_HAL_Driver/Src\stm32l4xx_hal_rcc_ex.c ****       else /* No clock source */
1504:E:/LiteOS/LiteOS_Lab/drivers/third_party/ST/STM32L4xx_HAL_Driver/Src\stm32l4xx_hal_rcc_ex.c ****       {
1505:E:/LiteOS/LiteOS_Lab/drivers/third_party/ST/STM32L4xx_HAL_Driver/Src\stm32l4xx_hal_rcc_ex.c ****         frequency = 0U;
1506:E:/LiteOS/LiteOS_Lab/drivers/third_party/ST/STM32L4xx_HAL_Driver/Src\stm32l4xx_hal_rcc_ex.c ****       }
1507:E:/LiteOS/LiteOS_Lab/drivers/third_party/ST/STM32L4xx_HAL_Driver/Src\stm32l4xx_hal_rcc_ex.c **** #endif /* RCC_HSI48_SUPPORT */
1508:E:/LiteOS/LiteOS_Lab/drivers/third_party/ST/STM32L4xx_HAL_Driver/Src\stm32l4xx_hal_rcc_ex.c ****       break;
1509:E:/LiteOS/LiteOS_Lab/drivers/third_party/ST/STM32L4xx_HAL_Driver/Src\stm32l4xx_hal_rcc_ex.c **** 
1510:E:/LiteOS/LiteOS_Lab/drivers/third_party/ST/STM32L4xx_HAL_Driver/Src\stm32l4xx_hal_rcc_ex.c **** #if defined(SDMMC1) && defined(RCC_CCIPR2_SDMMCSEL)
1511:E:/LiteOS/LiteOS_Lab/drivers/third_party/ST/STM32L4xx_HAL_Driver/Src\stm32l4xx_hal_rcc_ex.c **** 
1512:E:/LiteOS/LiteOS_Lab/drivers/third_party/ST/STM32L4xx_HAL_Driver/Src\stm32l4xx_hal_rcc_ex.c ****     case RCC_PERIPHCLK_SDMMC1:
1513:E:/LiteOS/LiteOS_Lab/drivers/third_party/ST/STM32L4xx_HAL_Driver/Src\stm32l4xx_hal_rcc_ex.c **** 
1514:E:/LiteOS/LiteOS_Lab/drivers/third_party/ST/STM32L4xx_HAL_Driver/Src\stm32l4xx_hal_rcc_ex.c ****       if(HAL_IS_BIT_SET(RCC->CCIPR2, RCC_CCIPR2_SDMMCSEL))  /* PLL "P" ? */
1515:E:/LiteOS/LiteOS_Lab/drivers/third_party/ST/STM32L4xx_HAL_Driver/Src\stm32l4xx_hal_rcc_ex.c ****       {
1516:E:/LiteOS/LiteOS_Lab/drivers/third_party/ST/STM32L4xx_HAL_Driver/Src\stm32l4xx_hal_rcc_ex.c ****         if(HAL_IS_BIT_SET(RCC->CR, RCC_CR_PLLRDY) && HAL_IS_BIT_SET(RCC->PLLCFGR, RCC_PLLCFGR_PLLPE
1517:E:/LiteOS/LiteOS_Lab/drivers/third_party/ST/STM32L4xx_HAL_Driver/Src\stm32l4xx_hal_rcc_ex.c ****         {
1518:E:/LiteOS/LiteOS_Lab/drivers/third_party/ST/STM32L4xx_HAL_Driver/Src\stm32l4xx_hal_rcc_ex.c **** #if defined(RCC_PLLSAI1M_DIV_1_16_SUPPORT) || defined(RCC_PLLSAI2M_DIV_1_16_SUPPORT)
1519:E:/LiteOS/LiteOS_Lab/drivers/third_party/ST/STM32L4xx_HAL_Driver/Src\stm32l4xx_hal_rcc_ex.c ****           /* f(PLL Source) / PLLM */
1520:E:/LiteOS/LiteOS_Lab/drivers/third_party/ST/STM32L4xx_HAL_Driver/Src\stm32l4xx_hal_rcc_ex.c ****           pllvco = (pllvco / ((READ_BIT(RCC->PLLCFGR, RCC_PLLCFGR_PLLM) >> RCC_PLLCFGR_PLLM_Pos) + 
1521:E:/LiteOS/LiteOS_Lab/drivers/third_party/ST/STM32L4xx_HAL_Driver/Src\stm32l4xx_hal_rcc_ex.c **** #endif
1522:E:/LiteOS/LiteOS_Lab/drivers/third_party/ST/STM32L4xx_HAL_Driver/Src\stm32l4xx_hal_rcc_ex.c ****           /* f(PLLSAI3CLK) = f(VCO input) * PLLN / PLLP */
1523:E:/LiteOS/LiteOS_Lab/drivers/third_party/ST/STM32L4xx_HAL_Driver/Src\stm32l4xx_hal_rcc_ex.c ****           plln = READ_BIT(RCC->PLLCFGR, RCC_PLLCFGR_PLLN) >> RCC_PLLCFGR_PLLN_Pos;
1524:E:/LiteOS/LiteOS_Lab/drivers/third_party/ST/STM32L4xx_HAL_Driver/Src\stm32l4xx_hal_rcc_ex.c **** #if defined(RCC_PLLP_DIV_2_31_SUPPORT)
1525:E:/LiteOS/LiteOS_Lab/drivers/third_party/ST/STM32L4xx_HAL_Driver/Src\stm32l4xx_hal_rcc_ex.c ****           pllp = READ_BIT(RCC->PLLCFGR, RCC_PLLCFGR_PLLPDIV) >> RCC_PLLCFGR_PLLPDIV_Pos;
1526:E:/LiteOS/LiteOS_Lab/drivers/third_party/ST/STM32L4xx_HAL_Driver/Src\stm32l4xx_hal_rcc_ex.c **** #endif
1527:E:/LiteOS/LiteOS_Lab/drivers/third_party/ST/STM32L4xx_HAL_Driver/Src\stm32l4xx_hal_rcc_ex.c ****           if(pllp == 0U)
1528:E:/LiteOS/LiteOS_Lab/drivers/third_party/ST/STM32L4xx_HAL_Driver/Src\stm32l4xx_hal_rcc_ex.c ****           {
1529:E:/LiteOS/LiteOS_Lab/drivers/third_party/ST/STM32L4xx_HAL_Driver/Src\stm32l4xx_hal_rcc_ex.c ****             if(READ_BIT(RCC->PLLCFGR, RCC_PLLCFGR_PLLP) != RESET)
1530:E:/LiteOS/LiteOS_Lab/drivers/third_party/ST/STM32L4xx_HAL_Driver/Src\stm32l4xx_hal_rcc_ex.c ****             {
1531:E:/LiteOS/LiteOS_Lab/drivers/third_party/ST/STM32L4xx_HAL_Driver/Src\stm32l4xx_hal_rcc_ex.c ****               pllp = 17U;
1532:E:/LiteOS/LiteOS_Lab/drivers/third_party/ST/STM32L4xx_HAL_Driver/Src\stm32l4xx_hal_rcc_ex.c ****             }
1533:E:/LiteOS/LiteOS_Lab/drivers/third_party/ST/STM32L4xx_HAL_Driver/Src\stm32l4xx_hal_rcc_ex.c ****             else
1534:E:/LiteOS/LiteOS_Lab/drivers/third_party/ST/STM32L4xx_HAL_Driver/Src\stm32l4xx_hal_rcc_ex.c ****             {
1535:E:/LiteOS/LiteOS_Lab/drivers/third_party/ST/STM32L4xx_HAL_Driver/Src\stm32l4xx_hal_rcc_ex.c ****               pllp = 7U;
1536:E:/LiteOS/LiteOS_Lab/drivers/third_party/ST/STM32L4xx_HAL_Driver/Src\stm32l4xx_hal_rcc_ex.c ****             }
1537:E:/LiteOS/LiteOS_Lab/drivers/third_party/ST/STM32L4xx_HAL_Driver/Src\stm32l4xx_hal_rcc_ex.c ****           }
1538:E:/LiteOS/LiteOS_Lab/drivers/third_party/ST/STM32L4xx_HAL_Driver/Src\stm32l4xx_hal_rcc_ex.c ****           frequency = (pllvco * plln) / pllp;
1539:E:/LiteOS/LiteOS_Lab/drivers/third_party/ST/STM32L4xx_HAL_Driver/Src\stm32l4xx_hal_rcc_ex.c ****         }
1540:E:/LiteOS/LiteOS_Lab/drivers/third_party/ST/STM32L4xx_HAL_Driver/Src\stm32l4xx_hal_rcc_ex.c ****         else
1541:E:/LiteOS/LiteOS_Lab/drivers/third_party/ST/STM32L4xx_HAL_Driver/Src\stm32l4xx_hal_rcc_ex.c ****         {
1542:E:/LiteOS/LiteOS_Lab/drivers/third_party/ST/STM32L4xx_HAL_Driver/Src\stm32l4xx_hal_rcc_ex.c ****           frequency = 0U;
1543:E:/LiteOS/LiteOS_Lab/drivers/third_party/ST/STM32L4xx_HAL_Driver/Src\stm32l4xx_hal_rcc_ex.c ****         }
1544:E:/LiteOS/LiteOS_Lab/drivers/third_party/ST/STM32L4xx_HAL_Driver/Src\stm32l4xx_hal_rcc_ex.c ****       }
1545:E:/LiteOS/LiteOS_Lab/drivers/third_party/ST/STM32L4xx_HAL_Driver/Src\stm32l4xx_hal_rcc_ex.c ****       else  /* 48MHz from PLL "Q" or MSI or PLLSAI1Q or HSI48 */
1546:E:/LiteOS/LiteOS_Lab/drivers/third_party/ST/STM32L4xx_HAL_Driver/Src\stm32l4xx_hal_rcc_ex.c ****       {
1547:E:/LiteOS/LiteOS_Lab/drivers/third_party/ST/STM32L4xx_HAL_Driver/Src\stm32l4xx_hal_rcc_ex.c ****         srcclk = READ_BIT(RCC->CCIPR, RCC_CCIPR_CLK48SEL);
1548:E:/LiteOS/LiteOS_Lab/drivers/third_party/ST/STM32L4xx_HAL_Driver/Src\stm32l4xx_hal_rcc_ex.c **** 
1549:E:/LiteOS/LiteOS_Lab/drivers/third_party/ST/STM32L4xx_HAL_Driver/Src\stm32l4xx_hal_rcc_ex.c ****         if(srcclk == RCC_CCIPR_CLK48SEL)   /* MSI ? */
1550:E:/LiteOS/LiteOS_Lab/drivers/third_party/ST/STM32L4xx_HAL_Driver/Src\stm32l4xx_hal_rcc_ex.c ****         {
1551:E:/LiteOS/LiteOS_Lab/drivers/third_party/ST/STM32L4xx_HAL_Driver/Src\stm32l4xx_hal_rcc_ex.c ****           if(HAL_IS_BIT_SET(RCC->CR, RCC_CR_MSIRDY))
1552:E:/LiteOS/LiteOS_Lab/drivers/third_party/ST/STM32L4xx_HAL_Driver/Src\stm32l4xx_hal_rcc_ex.c ****           {
1553:E:/LiteOS/LiteOS_Lab/drivers/third_party/ST/STM32L4xx_HAL_Driver/Src\stm32l4xx_hal_rcc_ex.c ****             /*MSI frequency range in HZ*/
1554:E:/LiteOS/LiteOS_Lab/drivers/third_party/ST/STM32L4xx_HAL_Driver/Src\stm32l4xx_hal_rcc_ex.c ****             frequency = MSIRangeTable[(__HAL_RCC_GET_MSI_RANGE() >> 4U)];
ARM GAS  C:\Users\user\AppData\Local\Temp\ccsJwa9Q.s 			page 46


1555:E:/LiteOS/LiteOS_Lab/drivers/third_party/ST/STM32L4xx_HAL_Driver/Src\stm32l4xx_hal_rcc_ex.c ****           }
1556:E:/LiteOS/LiteOS_Lab/drivers/third_party/ST/STM32L4xx_HAL_Driver/Src\stm32l4xx_hal_rcc_ex.c ****           else
1557:E:/LiteOS/LiteOS_Lab/drivers/third_party/ST/STM32L4xx_HAL_Driver/Src\stm32l4xx_hal_rcc_ex.c ****           {
1558:E:/LiteOS/LiteOS_Lab/drivers/third_party/ST/STM32L4xx_HAL_Driver/Src\stm32l4xx_hal_rcc_ex.c ****             frequency = 0U;
1559:E:/LiteOS/LiteOS_Lab/drivers/third_party/ST/STM32L4xx_HAL_Driver/Src\stm32l4xx_hal_rcc_ex.c ****           }
1560:E:/LiteOS/LiteOS_Lab/drivers/third_party/ST/STM32L4xx_HAL_Driver/Src\stm32l4xx_hal_rcc_ex.c ****         }
1561:E:/LiteOS/LiteOS_Lab/drivers/third_party/ST/STM32L4xx_HAL_Driver/Src\stm32l4xx_hal_rcc_ex.c ****         else if(srcclk == RCC_CCIPR_CLK48SEL_1)  /* PLL "Q" ? */
1562:E:/LiteOS/LiteOS_Lab/drivers/third_party/ST/STM32L4xx_HAL_Driver/Src\stm32l4xx_hal_rcc_ex.c ****         {
1563:E:/LiteOS/LiteOS_Lab/drivers/third_party/ST/STM32L4xx_HAL_Driver/Src\stm32l4xx_hal_rcc_ex.c ****           if(HAL_IS_BIT_SET(RCC->CR, RCC_CR_PLLRDY) && HAL_IS_BIT_SET(RCC->PLLCFGR, RCC_PLLCFGR_PLL
1564:E:/LiteOS/LiteOS_Lab/drivers/third_party/ST/STM32L4xx_HAL_Driver/Src\stm32l4xx_hal_rcc_ex.c ****           {
1565:E:/LiteOS/LiteOS_Lab/drivers/third_party/ST/STM32L4xx_HAL_Driver/Src\stm32l4xx_hal_rcc_ex.c **** #if defined(RCC_PLLSAI1M_DIV_1_16_SUPPORT) || defined(RCC_PLLSAI2M_DIV_1_16_SUPPORT)
1566:E:/LiteOS/LiteOS_Lab/drivers/third_party/ST/STM32L4xx_HAL_Driver/Src\stm32l4xx_hal_rcc_ex.c ****             /* f(PLL Source) / PLLM */
1567:E:/LiteOS/LiteOS_Lab/drivers/third_party/ST/STM32L4xx_HAL_Driver/Src\stm32l4xx_hal_rcc_ex.c ****             pllvco = (pllvco / ((READ_BIT(RCC->PLLCFGR, RCC_PLLCFGR_PLLM) >> RCC_PLLCFGR_PLLM_Pos) 
1568:E:/LiteOS/LiteOS_Lab/drivers/third_party/ST/STM32L4xx_HAL_Driver/Src\stm32l4xx_hal_rcc_ex.c **** #endif
1569:E:/LiteOS/LiteOS_Lab/drivers/third_party/ST/STM32L4xx_HAL_Driver/Src\stm32l4xx_hal_rcc_ex.c ****             /* f(PLL48M1CLK) = f(VCO input) * PLLN / PLLQ */
1570:E:/LiteOS/LiteOS_Lab/drivers/third_party/ST/STM32L4xx_HAL_Driver/Src\stm32l4xx_hal_rcc_ex.c ****             plln = READ_BIT(RCC->PLLCFGR, RCC_PLLCFGR_PLLN) >> RCC_PLLCFGR_PLLN_Pos;
1571:E:/LiteOS/LiteOS_Lab/drivers/third_party/ST/STM32L4xx_HAL_Driver/Src\stm32l4xx_hal_rcc_ex.c ****             frequency = (pllvco * plln) / (((READ_BIT(RCC->PLLCFGR, RCC_PLLCFGR_PLLQ) >> RCC_PLLCFG
1572:E:/LiteOS/LiteOS_Lab/drivers/third_party/ST/STM32L4xx_HAL_Driver/Src\stm32l4xx_hal_rcc_ex.c ****           }
1573:E:/LiteOS/LiteOS_Lab/drivers/third_party/ST/STM32L4xx_HAL_Driver/Src\stm32l4xx_hal_rcc_ex.c ****           else
1574:E:/LiteOS/LiteOS_Lab/drivers/third_party/ST/STM32L4xx_HAL_Driver/Src\stm32l4xx_hal_rcc_ex.c ****           {
1575:E:/LiteOS/LiteOS_Lab/drivers/third_party/ST/STM32L4xx_HAL_Driver/Src\stm32l4xx_hal_rcc_ex.c ****             frequency = 0U;
1576:E:/LiteOS/LiteOS_Lab/drivers/third_party/ST/STM32L4xx_HAL_Driver/Src\stm32l4xx_hal_rcc_ex.c ****           }
1577:E:/LiteOS/LiteOS_Lab/drivers/third_party/ST/STM32L4xx_HAL_Driver/Src\stm32l4xx_hal_rcc_ex.c ****         }
1578:E:/LiteOS/LiteOS_Lab/drivers/third_party/ST/STM32L4xx_HAL_Driver/Src\stm32l4xx_hal_rcc_ex.c ****         else if(srcclk == RCC_CCIPR_CLK48SEL_0)  /* PLLSAI1 ? */
1579:E:/LiteOS/LiteOS_Lab/drivers/third_party/ST/STM32L4xx_HAL_Driver/Src\stm32l4xx_hal_rcc_ex.c ****         {
1580:E:/LiteOS/LiteOS_Lab/drivers/third_party/ST/STM32L4xx_HAL_Driver/Src\stm32l4xx_hal_rcc_ex.c ****           if(HAL_IS_BIT_SET(RCC->CR, RCC_CR_PLLSAI1RDY) && HAL_IS_BIT_SET(RCC->PLLSAI1CFGR, RCC_PLL
1581:E:/LiteOS/LiteOS_Lab/drivers/third_party/ST/STM32L4xx_HAL_Driver/Src\stm32l4xx_hal_rcc_ex.c ****           {
1582:E:/LiteOS/LiteOS_Lab/drivers/third_party/ST/STM32L4xx_HAL_Driver/Src\stm32l4xx_hal_rcc_ex.c **** #if defined(RCC_PLLSAI1M_DIV_1_16_SUPPORT)
1583:E:/LiteOS/LiteOS_Lab/drivers/third_party/ST/STM32L4xx_HAL_Driver/Src\stm32l4xx_hal_rcc_ex.c ****             /* f(PLLSAI1 Source) / PLLSAI1M */
1584:E:/LiteOS/LiteOS_Lab/drivers/third_party/ST/STM32L4xx_HAL_Driver/Src\stm32l4xx_hal_rcc_ex.c ****             pllvco = (pllvco / ((READ_BIT(RCC->PLLSAI1CFGR, RCC_PLLSAI1CFGR_PLLSAI1M) >> RCC_PLLSAI
1585:E:/LiteOS/LiteOS_Lab/drivers/third_party/ST/STM32L4xx_HAL_Driver/Src\stm32l4xx_hal_rcc_ex.c **** #endif
1586:E:/LiteOS/LiteOS_Lab/drivers/third_party/ST/STM32L4xx_HAL_Driver/Src\stm32l4xx_hal_rcc_ex.c ****             /* f(PLL48M2CLK) = f(VCOSAI1 input) * PLLSAI1N / PLLSAI1Q */
1587:E:/LiteOS/LiteOS_Lab/drivers/third_party/ST/STM32L4xx_HAL_Driver/Src\stm32l4xx_hal_rcc_ex.c ****             plln = READ_BIT(RCC->PLLSAI1CFGR, RCC_PLLSAI1CFGR_PLLSAI1N) >> RCC_PLLSAI1CFGR_PLLSAI1N
1588:E:/LiteOS/LiteOS_Lab/drivers/third_party/ST/STM32L4xx_HAL_Driver/Src\stm32l4xx_hal_rcc_ex.c ****             frequency = (pllvco * plln) / (((READ_BIT(RCC->PLLSAI1CFGR, RCC_PLLSAI1CFGR_PLLSAI1Q) >
1589:E:/LiteOS/LiteOS_Lab/drivers/third_party/ST/STM32L4xx_HAL_Driver/Src\stm32l4xx_hal_rcc_ex.c ****           }
1590:E:/LiteOS/LiteOS_Lab/drivers/third_party/ST/STM32L4xx_HAL_Driver/Src\stm32l4xx_hal_rcc_ex.c ****           else
1591:E:/LiteOS/LiteOS_Lab/drivers/third_party/ST/STM32L4xx_HAL_Driver/Src\stm32l4xx_hal_rcc_ex.c ****           {
1592:E:/LiteOS/LiteOS_Lab/drivers/third_party/ST/STM32L4xx_HAL_Driver/Src\stm32l4xx_hal_rcc_ex.c ****             frequency = 0U;
1593:E:/LiteOS/LiteOS_Lab/drivers/third_party/ST/STM32L4xx_HAL_Driver/Src\stm32l4xx_hal_rcc_ex.c ****           }
1594:E:/LiteOS/LiteOS_Lab/drivers/third_party/ST/STM32L4xx_HAL_Driver/Src\stm32l4xx_hal_rcc_ex.c ****         }
1595:E:/LiteOS/LiteOS_Lab/drivers/third_party/ST/STM32L4xx_HAL_Driver/Src\stm32l4xx_hal_rcc_ex.c ****         else if((srcclk == 0U) && (HAL_IS_BIT_SET(RCC->CRRCR, RCC_CRRCR_HSI48RDY))) /* HSI48 ? */
1596:E:/LiteOS/LiteOS_Lab/drivers/third_party/ST/STM32L4xx_HAL_Driver/Src\stm32l4xx_hal_rcc_ex.c ****         {
1597:E:/LiteOS/LiteOS_Lab/drivers/third_party/ST/STM32L4xx_HAL_Driver/Src\stm32l4xx_hal_rcc_ex.c ****           frequency = HSI48_VALUE;
1598:E:/LiteOS/LiteOS_Lab/drivers/third_party/ST/STM32L4xx_HAL_Driver/Src\stm32l4xx_hal_rcc_ex.c ****         }
1599:E:/LiteOS/LiteOS_Lab/drivers/third_party/ST/STM32L4xx_HAL_Driver/Src\stm32l4xx_hal_rcc_ex.c ****         else /* No clock source */
1600:E:/LiteOS/LiteOS_Lab/drivers/third_party/ST/STM32L4xx_HAL_Driver/Src\stm32l4xx_hal_rcc_ex.c ****         {
1601:E:/LiteOS/LiteOS_Lab/drivers/third_party/ST/STM32L4xx_HAL_Driver/Src\stm32l4xx_hal_rcc_ex.c ****           frequency = 0U;
1602:E:/LiteOS/LiteOS_Lab/drivers/third_party/ST/STM32L4xx_HAL_Driver/Src\stm32l4xx_hal_rcc_ex.c ****         }
1603:E:/LiteOS/LiteOS_Lab/drivers/third_party/ST/STM32L4xx_HAL_Driver/Src\stm32l4xx_hal_rcc_ex.c ****       }
1604:E:/LiteOS/LiteOS_Lab/drivers/third_party/ST/STM32L4xx_HAL_Driver/Src\stm32l4xx_hal_rcc_ex.c ****       break;
1605:E:/LiteOS/LiteOS_Lab/drivers/third_party/ST/STM32L4xx_HAL_Driver/Src\stm32l4xx_hal_rcc_ex.c **** 
1606:E:/LiteOS/LiteOS_Lab/drivers/third_party/ST/STM32L4xx_HAL_Driver/Src\stm32l4xx_hal_rcc_ex.c **** #endif /* SDMMC1 && RCC_CCIPR2_SDMMCSEL */
1607:E:/LiteOS/LiteOS_Lab/drivers/third_party/ST/STM32L4xx_HAL_Driver/Src\stm32l4xx_hal_rcc_ex.c **** 
1608:E:/LiteOS/LiteOS_Lab/drivers/third_party/ST/STM32L4xx_HAL_Driver/Src\stm32l4xx_hal_rcc_ex.c ****     case RCC_PERIPHCLK_USART1:
1609:E:/LiteOS/LiteOS_Lab/drivers/third_party/ST/STM32L4xx_HAL_Driver/Src\stm32l4xx_hal_rcc_ex.c ****       /* Get the current USART1 source */
1610:E:/LiteOS/LiteOS_Lab/drivers/third_party/ST/STM32L4xx_HAL_Driver/Src\stm32l4xx_hal_rcc_ex.c ****       srcclk = __HAL_RCC_GET_USART1_SOURCE();
1611:E:/LiteOS/LiteOS_Lab/drivers/third_party/ST/STM32L4xx_HAL_Driver/Src\stm32l4xx_hal_rcc_ex.c **** 
ARM GAS  C:\Users\user\AppData\Local\Temp\ccsJwa9Q.s 			page 47


1612:E:/LiteOS/LiteOS_Lab/drivers/third_party/ST/STM32L4xx_HAL_Driver/Src\stm32l4xx_hal_rcc_ex.c ****       if(srcclk == RCC_USART1CLKSOURCE_PCLK2)
1613:E:/LiteOS/LiteOS_Lab/drivers/third_party/ST/STM32L4xx_HAL_Driver/Src\stm32l4xx_hal_rcc_ex.c ****       {
1614:E:/LiteOS/LiteOS_Lab/drivers/third_party/ST/STM32L4xx_HAL_Driver/Src\stm32l4xx_hal_rcc_ex.c ****         frequency = HAL_RCC_GetPCLK2Freq();
1615:E:/LiteOS/LiteOS_Lab/drivers/third_party/ST/STM32L4xx_HAL_Driver/Src\stm32l4xx_hal_rcc_ex.c ****       }
1616:E:/LiteOS/LiteOS_Lab/drivers/third_party/ST/STM32L4xx_HAL_Driver/Src\stm32l4xx_hal_rcc_ex.c ****       else if(srcclk == RCC_USART1CLKSOURCE_SYSCLK)
1617:E:/LiteOS/LiteOS_Lab/drivers/third_party/ST/STM32L4xx_HAL_Driver/Src\stm32l4xx_hal_rcc_ex.c ****       {
1618:E:/LiteOS/LiteOS_Lab/drivers/third_party/ST/STM32L4xx_HAL_Driver/Src\stm32l4xx_hal_rcc_ex.c ****         frequency = HAL_RCC_GetSysClockFreq();
1619:E:/LiteOS/LiteOS_Lab/drivers/third_party/ST/STM32L4xx_HAL_Driver/Src\stm32l4xx_hal_rcc_ex.c ****       }
1620:E:/LiteOS/LiteOS_Lab/drivers/third_party/ST/STM32L4xx_HAL_Driver/Src\stm32l4xx_hal_rcc_ex.c ****       else if((srcclk == RCC_USART1CLKSOURCE_HSI) && (HAL_IS_BIT_SET(RCC->CR, RCC_CR_HSIRDY)))
1621:E:/LiteOS/LiteOS_Lab/drivers/third_party/ST/STM32L4xx_HAL_Driver/Src\stm32l4xx_hal_rcc_ex.c ****       {
1622:E:/LiteOS/LiteOS_Lab/drivers/third_party/ST/STM32L4xx_HAL_Driver/Src\stm32l4xx_hal_rcc_ex.c ****         frequency = HSI_VALUE;
1623:E:/LiteOS/LiteOS_Lab/drivers/third_party/ST/STM32L4xx_HAL_Driver/Src\stm32l4xx_hal_rcc_ex.c ****       }
1624:E:/LiteOS/LiteOS_Lab/drivers/third_party/ST/STM32L4xx_HAL_Driver/Src\stm32l4xx_hal_rcc_ex.c ****       else if((srcclk == RCC_USART1CLKSOURCE_LSE) && (HAL_IS_BIT_SET(RCC->BDCR, RCC_BDCR_LSERDY)))
1625:E:/LiteOS/LiteOS_Lab/drivers/third_party/ST/STM32L4xx_HAL_Driver/Src\stm32l4xx_hal_rcc_ex.c ****       {
1626:E:/LiteOS/LiteOS_Lab/drivers/third_party/ST/STM32L4xx_HAL_Driver/Src\stm32l4xx_hal_rcc_ex.c ****         frequency = LSE_VALUE;
1627:E:/LiteOS/LiteOS_Lab/drivers/third_party/ST/STM32L4xx_HAL_Driver/Src\stm32l4xx_hal_rcc_ex.c ****       }
1628:E:/LiteOS/LiteOS_Lab/drivers/third_party/ST/STM32L4xx_HAL_Driver/Src\stm32l4xx_hal_rcc_ex.c ****       /* Clock not enabled for USART1 */
1629:E:/LiteOS/LiteOS_Lab/drivers/third_party/ST/STM32L4xx_HAL_Driver/Src\stm32l4xx_hal_rcc_ex.c ****       else
1630:E:/LiteOS/LiteOS_Lab/drivers/third_party/ST/STM32L4xx_HAL_Driver/Src\stm32l4xx_hal_rcc_ex.c ****       {
1631:E:/LiteOS/LiteOS_Lab/drivers/third_party/ST/STM32L4xx_HAL_Driver/Src\stm32l4xx_hal_rcc_ex.c ****         frequency = 0U;
1632:E:/LiteOS/LiteOS_Lab/drivers/third_party/ST/STM32L4xx_HAL_Driver/Src\stm32l4xx_hal_rcc_ex.c ****       }
1633:E:/LiteOS/LiteOS_Lab/drivers/third_party/ST/STM32L4xx_HAL_Driver/Src\stm32l4xx_hal_rcc_ex.c ****       break;
1634:E:/LiteOS/LiteOS_Lab/drivers/third_party/ST/STM32L4xx_HAL_Driver/Src\stm32l4xx_hal_rcc_ex.c **** 
1635:E:/LiteOS/LiteOS_Lab/drivers/third_party/ST/STM32L4xx_HAL_Driver/Src\stm32l4xx_hal_rcc_ex.c ****     case RCC_PERIPHCLK_USART2:
1636:E:/LiteOS/LiteOS_Lab/drivers/third_party/ST/STM32L4xx_HAL_Driver/Src\stm32l4xx_hal_rcc_ex.c ****       /* Get the current USART2 source */
1637:E:/LiteOS/LiteOS_Lab/drivers/third_party/ST/STM32L4xx_HAL_Driver/Src\stm32l4xx_hal_rcc_ex.c ****       srcclk = __HAL_RCC_GET_USART2_SOURCE();
1638:E:/LiteOS/LiteOS_Lab/drivers/third_party/ST/STM32L4xx_HAL_Driver/Src\stm32l4xx_hal_rcc_ex.c **** 
1639:E:/LiteOS/LiteOS_Lab/drivers/third_party/ST/STM32L4xx_HAL_Driver/Src\stm32l4xx_hal_rcc_ex.c ****       if(srcclk == RCC_USART2CLKSOURCE_PCLK1)
1640:E:/LiteOS/LiteOS_Lab/drivers/third_party/ST/STM32L4xx_HAL_Driver/Src\stm32l4xx_hal_rcc_ex.c ****       {
1641:E:/LiteOS/LiteOS_Lab/drivers/third_party/ST/STM32L4xx_HAL_Driver/Src\stm32l4xx_hal_rcc_ex.c ****         frequency = HAL_RCC_GetPCLK1Freq();
1642:E:/LiteOS/LiteOS_Lab/drivers/third_party/ST/STM32L4xx_HAL_Driver/Src\stm32l4xx_hal_rcc_ex.c ****       }
1643:E:/LiteOS/LiteOS_Lab/drivers/third_party/ST/STM32L4xx_HAL_Driver/Src\stm32l4xx_hal_rcc_ex.c ****       else if(srcclk == RCC_USART2CLKSOURCE_SYSCLK)
1644:E:/LiteOS/LiteOS_Lab/drivers/third_party/ST/STM32L4xx_HAL_Driver/Src\stm32l4xx_hal_rcc_ex.c ****       {
1645:E:/LiteOS/LiteOS_Lab/drivers/third_party/ST/STM32L4xx_HAL_Driver/Src\stm32l4xx_hal_rcc_ex.c ****         frequency = HAL_RCC_GetSysClockFreq();
1646:E:/LiteOS/LiteOS_Lab/drivers/third_party/ST/STM32L4xx_HAL_Driver/Src\stm32l4xx_hal_rcc_ex.c ****       }
1647:E:/LiteOS/LiteOS_Lab/drivers/third_party/ST/STM32L4xx_HAL_Driver/Src\stm32l4xx_hal_rcc_ex.c ****       else if((srcclk == RCC_USART2CLKSOURCE_HSI) && (HAL_IS_BIT_SET(RCC->CR, RCC_CR_HSIRDY)))
1648:E:/LiteOS/LiteOS_Lab/drivers/third_party/ST/STM32L4xx_HAL_Driver/Src\stm32l4xx_hal_rcc_ex.c ****       {
1649:E:/LiteOS/LiteOS_Lab/drivers/third_party/ST/STM32L4xx_HAL_Driver/Src\stm32l4xx_hal_rcc_ex.c ****         frequency = HSI_VALUE;
1650:E:/LiteOS/LiteOS_Lab/drivers/third_party/ST/STM32L4xx_HAL_Driver/Src\stm32l4xx_hal_rcc_ex.c ****       }
1651:E:/LiteOS/LiteOS_Lab/drivers/third_party/ST/STM32L4xx_HAL_Driver/Src\stm32l4xx_hal_rcc_ex.c ****       else if((srcclk == RCC_USART2CLKSOURCE_LSE) && (HAL_IS_BIT_SET(RCC->BDCR, RCC_BDCR_LSERDY)))
1652:E:/LiteOS/LiteOS_Lab/drivers/third_party/ST/STM32L4xx_HAL_Driver/Src\stm32l4xx_hal_rcc_ex.c ****       {
1653:E:/LiteOS/LiteOS_Lab/drivers/third_party/ST/STM32L4xx_HAL_Driver/Src\stm32l4xx_hal_rcc_ex.c ****         frequency = LSE_VALUE;
1654:E:/LiteOS/LiteOS_Lab/drivers/third_party/ST/STM32L4xx_HAL_Driver/Src\stm32l4xx_hal_rcc_ex.c ****       }
1655:E:/LiteOS/LiteOS_Lab/drivers/third_party/ST/STM32L4xx_HAL_Driver/Src\stm32l4xx_hal_rcc_ex.c ****       /* Clock not enabled for USART2 */
1656:E:/LiteOS/LiteOS_Lab/drivers/third_party/ST/STM32L4xx_HAL_Driver/Src\stm32l4xx_hal_rcc_ex.c ****       else
1657:E:/LiteOS/LiteOS_Lab/drivers/third_party/ST/STM32L4xx_HAL_Driver/Src\stm32l4xx_hal_rcc_ex.c ****       {
1658:E:/LiteOS/LiteOS_Lab/drivers/third_party/ST/STM32L4xx_HAL_Driver/Src\stm32l4xx_hal_rcc_ex.c ****         frequency = 0U;
1659:E:/LiteOS/LiteOS_Lab/drivers/third_party/ST/STM32L4xx_HAL_Driver/Src\stm32l4xx_hal_rcc_ex.c ****       }
1660:E:/LiteOS/LiteOS_Lab/drivers/third_party/ST/STM32L4xx_HAL_Driver/Src\stm32l4xx_hal_rcc_ex.c ****       break;
1661:E:/LiteOS/LiteOS_Lab/drivers/third_party/ST/STM32L4xx_HAL_Driver/Src\stm32l4xx_hal_rcc_ex.c **** 
1662:E:/LiteOS/LiteOS_Lab/drivers/third_party/ST/STM32L4xx_HAL_Driver/Src\stm32l4xx_hal_rcc_ex.c **** #if defined(USART3)
1663:E:/LiteOS/LiteOS_Lab/drivers/third_party/ST/STM32L4xx_HAL_Driver/Src\stm32l4xx_hal_rcc_ex.c **** 
1664:E:/LiteOS/LiteOS_Lab/drivers/third_party/ST/STM32L4xx_HAL_Driver/Src\stm32l4xx_hal_rcc_ex.c ****     case RCC_PERIPHCLK_USART3:
1665:E:/LiteOS/LiteOS_Lab/drivers/third_party/ST/STM32L4xx_HAL_Driver/Src\stm32l4xx_hal_rcc_ex.c ****       /* Get the current USART3 source */
1666:E:/LiteOS/LiteOS_Lab/drivers/third_party/ST/STM32L4xx_HAL_Driver/Src\stm32l4xx_hal_rcc_ex.c ****       srcclk = __HAL_RCC_GET_USART3_SOURCE();
1667:E:/LiteOS/LiteOS_Lab/drivers/third_party/ST/STM32L4xx_HAL_Driver/Src\stm32l4xx_hal_rcc_ex.c **** 
1668:E:/LiteOS/LiteOS_Lab/drivers/third_party/ST/STM32L4xx_HAL_Driver/Src\stm32l4xx_hal_rcc_ex.c ****       if(srcclk == RCC_USART3CLKSOURCE_PCLK1)
ARM GAS  C:\Users\user\AppData\Local\Temp\ccsJwa9Q.s 			page 48


1669:E:/LiteOS/LiteOS_Lab/drivers/third_party/ST/STM32L4xx_HAL_Driver/Src\stm32l4xx_hal_rcc_ex.c ****       {
1670:E:/LiteOS/LiteOS_Lab/drivers/third_party/ST/STM32L4xx_HAL_Driver/Src\stm32l4xx_hal_rcc_ex.c ****         frequency = HAL_RCC_GetPCLK1Freq();
1671:E:/LiteOS/LiteOS_Lab/drivers/third_party/ST/STM32L4xx_HAL_Driver/Src\stm32l4xx_hal_rcc_ex.c ****       }
1672:E:/LiteOS/LiteOS_Lab/drivers/third_party/ST/STM32L4xx_HAL_Driver/Src\stm32l4xx_hal_rcc_ex.c ****       else if(srcclk == RCC_USART3CLKSOURCE_SYSCLK)
1673:E:/LiteOS/LiteOS_Lab/drivers/third_party/ST/STM32L4xx_HAL_Driver/Src\stm32l4xx_hal_rcc_ex.c ****       {
1674:E:/LiteOS/LiteOS_Lab/drivers/third_party/ST/STM32L4xx_HAL_Driver/Src\stm32l4xx_hal_rcc_ex.c ****         frequency = HAL_RCC_GetSysClockFreq();
1675:E:/LiteOS/LiteOS_Lab/drivers/third_party/ST/STM32L4xx_HAL_Driver/Src\stm32l4xx_hal_rcc_ex.c ****       }
1676:E:/LiteOS/LiteOS_Lab/drivers/third_party/ST/STM32L4xx_HAL_Driver/Src\stm32l4xx_hal_rcc_ex.c ****       else if((srcclk == RCC_USART3CLKSOURCE_HSI) && (HAL_IS_BIT_SET(RCC->CR, RCC_CR_HSIRDY)))
1677:E:/LiteOS/LiteOS_Lab/drivers/third_party/ST/STM32L4xx_HAL_Driver/Src\stm32l4xx_hal_rcc_ex.c ****       {
1678:E:/LiteOS/LiteOS_Lab/drivers/third_party/ST/STM32L4xx_HAL_Driver/Src\stm32l4xx_hal_rcc_ex.c ****         frequency = HSI_VALUE;
1679:E:/LiteOS/LiteOS_Lab/drivers/third_party/ST/STM32L4xx_HAL_Driver/Src\stm32l4xx_hal_rcc_ex.c ****       }
1680:E:/LiteOS/LiteOS_Lab/drivers/third_party/ST/STM32L4xx_HAL_Driver/Src\stm32l4xx_hal_rcc_ex.c ****       else if((srcclk == RCC_USART3CLKSOURCE_LSE) && (HAL_IS_BIT_SET(RCC->BDCR, RCC_BDCR_LSERDY)))
1681:E:/LiteOS/LiteOS_Lab/drivers/third_party/ST/STM32L4xx_HAL_Driver/Src\stm32l4xx_hal_rcc_ex.c ****       {
1682:E:/LiteOS/LiteOS_Lab/drivers/third_party/ST/STM32L4xx_HAL_Driver/Src\stm32l4xx_hal_rcc_ex.c ****         frequency = LSE_VALUE;
1683:E:/LiteOS/LiteOS_Lab/drivers/third_party/ST/STM32L4xx_HAL_Driver/Src\stm32l4xx_hal_rcc_ex.c ****       }
1684:E:/LiteOS/LiteOS_Lab/drivers/third_party/ST/STM32L4xx_HAL_Driver/Src\stm32l4xx_hal_rcc_ex.c ****       /* Clock not enabled for USART3 */
1685:E:/LiteOS/LiteOS_Lab/drivers/third_party/ST/STM32L4xx_HAL_Driver/Src\stm32l4xx_hal_rcc_ex.c ****       else
1686:E:/LiteOS/LiteOS_Lab/drivers/third_party/ST/STM32L4xx_HAL_Driver/Src\stm32l4xx_hal_rcc_ex.c ****       {
1687:E:/LiteOS/LiteOS_Lab/drivers/third_party/ST/STM32L4xx_HAL_Driver/Src\stm32l4xx_hal_rcc_ex.c ****         frequency = 0U;
1688:E:/LiteOS/LiteOS_Lab/drivers/third_party/ST/STM32L4xx_HAL_Driver/Src\stm32l4xx_hal_rcc_ex.c ****       }
1689:E:/LiteOS/LiteOS_Lab/drivers/third_party/ST/STM32L4xx_HAL_Driver/Src\stm32l4xx_hal_rcc_ex.c ****       break;
1690:E:/LiteOS/LiteOS_Lab/drivers/third_party/ST/STM32L4xx_HAL_Driver/Src\stm32l4xx_hal_rcc_ex.c **** 
1691:E:/LiteOS/LiteOS_Lab/drivers/third_party/ST/STM32L4xx_HAL_Driver/Src\stm32l4xx_hal_rcc_ex.c **** #endif /* USART3 */
1692:E:/LiteOS/LiteOS_Lab/drivers/third_party/ST/STM32L4xx_HAL_Driver/Src\stm32l4xx_hal_rcc_ex.c **** 
1693:E:/LiteOS/LiteOS_Lab/drivers/third_party/ST/STM32L4xx_HAL_Driver/Src\stm32l4xx_hal_rcc_ex.c **** #if defined(UART4)
1694:E:/LiteOS/LiteOS_Lab/drivers/third_party/ST/STM32L4xx_HAL_Driver/Src\stm32l4xx_hal_rcc_ex.c **** 
1695:E:/LiteOS/LiteOS_Lab/drivers/third_party/ST/STM32L4xx_HAL_Driver/Src\stm32l4xx_hal_rcc_ex.c ****     case RCC_PERIPHCLK_UART4:
1696:E:/LiteOS/LiteOS_Lab/drivers/third_party/ST/STM32L4xx_HAL_Driver/Src\stm32l4xx_hal_rcc_ex.c ****       /* Get the current UART4 source */
1697:E:/LiteOS/LiteOS_Lab/drivers/third_party/ST/STM32L4xx_HAL_Driver/Src\stm32l4xx_hal_rcc_ex.c ****       srcclk = __HAL_RCC_GET_UART4_SOURCE();
1698:E:/LiteOS/LiteOS_Lab/drivers/third_party/ST/STM32L4xx_HAL_Driver/Src\stm32l4xx_hal_rcc_ex.c **** 
1699:E:/LiteOS/LiteOS_Lab/drivers/third_party/ST/STM32L4xx_HAL_Driver/Src\stm32l4xx_hal_rcc_ex.c ****       if(srcclk == RCC_UART4CLKSOURCE_PCLK1)
1700:E:/LiteOS/LiteOS_Lab/drivers/third_party/ST/STM32L4xx_HAL_Driver/Src\stm32l4xx_hal_rcc_ex.c ****       {
1701:E:/LiteOS/LiteOS_Lab/drivers/third_party/ST/STM32L4xx_HAL_Driver/Src\stm32l4xx_hal_rcc_ex.c ****         frequency = HAL_RCC_GetPCLK1Freq();
1702:E:/LiteOS/LiteOS_Lab/drivers/third_party/ST/STM32L4xx_HAL_Driver/Src\stm32l4xx_hal_rcc_ex.c ****       }
1703:E:/LiteOS/LiteOS_Lab/drivers/third_party/ST/STM32L4xx_HAL_Driver/Src\stm32l4xx_hal_rcc_ex.c ****       else if(srcclk == RCC_UART4CLKSOURCE_SYSCLK)
1704:E:/LiteOS/LiteOS_Lab/drivers/third_party/ST/STM32L4xx_HAL_Driver/Src\stm32l4xx_hal_rcc_ex.c ****       {
1705:E:/LiteOS/LiteOS_Lab/drivers/third_party/ST/STM32L4xx_HAL_Driver/Src\stm32l4xx_hal_rcc_ex.c ****         frequency = HAL_RCC_GetSysClockFreq();
1706:E:/LiteOS/LiteOS_Lab/drivers/third_party/ST/STM32L4xx_HAL_Driver/Src\stm32l4xx_hal_rcc_ex.c ****       }
1707:E:/LiteOS/LiteOS_Lab/drivers/third_party/ST/STM32L4xx_HAL_Driver/Src\stm32l4xx_hal_rcc_ex.c ****       else if((srcclk == RCC_UART4CLKSOURCE_HSI) && (HAL_IS_BIT_SET(RCC->CR, RCC_CR_HSIRDY)))
1708:E:/LiteOS/LiteOS_Lab/drivers/third_party/ST/STM32L4xx_HAL_Driver/Src\stm32l4xx_hal_rcc_ex.c ****       {
1709:E:/LiteOS/LiteOS_Lab/drivers/third_party/ST/STM32L4xx_HAL_Driver/Src\stm32l4xx_hal_rcc_ex.c ****         frequency = HSI_VALUE;
1710:E:/LiteOS/LiteOS_Lab/drivers/third_party/ST/STM32L4xx_HAL_Driver/Src\stm32l4xx_hal_rcc_ex.c ****       }
1711:E:/LiteOS/LiteOS_Lab/drivers/third_party/ST/STM32L4xx_HAL_Driver/Src\stm32l4xx_hal_rcc_ex.c ****       else if((srcclk == RCC_UART4CLKSOURCE_LSE) && (HAL_IS_BIT_SET(RCC->BDCR, RCC_BDCR_LSERDY)))
1712:E:/LiteOS/LiteOS_Lab/drivers/third_party/ST/STM32L4xx_HAL_Driver/Src\stm32l4xx_hal_rcc_ex.c ****       {
1713:E:/LiteOS/LiteOS_Lab/drivers/third_party/ST/STM32L4xx_HAL_Driver/Src\stm32l4xx_hal_rcc_ex.c ****         frequency = LSE_VALUE;
1714:E:/LiteOS/LiteOS_Lab/drivers/third_party/ST/STM32L4xx_HAL_Driver/Src\stm32l4xx_hal_rcc_ex.c ****       }
1715:E:/LiteOS/LiteOS_Lab/drivers/third_party/ST/STM32L4xx_HAL_Driver/Src\stm32l4xx_hal_rcc_ex.c ****       /* Clock not enabled for UART4 */
1716:E:/LiteOS/LiteOS_Lab/drivers/third_party/ST/STM32L4xx_HAL_Driver/Src\stm32l4xx_hal_rcc_ex.c ****       else
1717:E:/LiteOS/LiteOS_Lab/drivers/third_party/ST/STM32L4xx_HAL_Driver/Src\stm32l4xx_hal_rcc_ex.c ****       {
1718:E:/LiteOS/LiteOS_Lab/drivers/third_party/ST/STM32L4xx_HAL_Driver/Src\stm32l4xx_hal_rcc_ex.c ****         frequency = 0U;
1719:E:/LiteOS/LiteOS_Lab/drivers/third_party/ST/STM32L4xx_HAL_Driver/Src\stm32l4xx_hal_rcc_ex.c ****       }
1720:E:/LiteOS/LiteOS_Lab/drivers/third_party/ST/STM32L4xx_HAL_Driver/Src\stm32l4xx_hal_rcc_ex.c ****       break;
1721:E:/LiteOS/LiteOS_Lab/drivers/third_party/ST/STM32L4xx_HAL_Driver/Src\stm32l4xx_hal_rcc_ex.c **** 
1722:E:/LiteOS/LiteOS_Lab/drivers/third_party/ST/STM32L4xx_HAL_Driver/Src\stm32l4xx_hal_rcc_ex.c **** #endif /* UART4 */
1723:E:/LiteOS/LiteOS_Lab/drivers/third_party/ST/STM32L4xx_HAL_Driver/Src\stm32l4xx_hal_rcc_ex.c **** 
1724:E:/LiteOS/LiteOS_Lab/drivers/third_party/ST/STM32L4xx_HAL_Driver/Src\stm32l4xx_hal_rcc_ex.c **** #if defined(UART5)
1725:E:/LiteOS/LiteOS_Lab/drivers/third_party/ST/STM32L4xx_HAL_Driver/Src\stm32l4xx_hal_rcc_ex.c **** 
ARM GAS  C:\Users\user\AppData\Local\Temp\ccsJwa9Q.s 			page 49


1726:E:/LiteOS/LiteOS_Lab/drivers/third_party/ST/STM32L4xx_HAL_Driver/Src\stm32l4xx_hal_rcc_ex.c ****     case RCC_PERIPHCLK_UART5:
1727:E:/LiteOS/LiteOS_Lab/drivers/third_party/ST/STM32L4xx_HAL_Driver/Src\stm32l4xx_hal_rcc_ex.c ****       /* Get the current UART5 source */
1728:E:/LiteOS/LiteOS_Lab/drivers/third_party/ST/STM32L4xx_HAL_Driver/Src\stm32l4xx_hal_rcc_ex.c ****       srcclk = __HAL_RCC_GET_UART5_SOURCE();
1729:E:/LiteOS/LiteOS_Lab/drivers/third_party/ST/STM32L4xx_HAL_Driver/Src\stm32l4xx_hal_rcc_ex.c **** 
1730:E:/LiteOS/LiteOS_Lab/drivers/third_party/ST/STM32L4xx_HAL_Driver/Src\stm32l4xx_hal_rcc_ex.c ****       if(srcclk == RCC_UART5CLKSOURCE_PCLK1)
1731:E:/LiteOS/LiteOS_Lab/drivers/third_party/ST/STM32L4xx_HAL_Driver/Src\stm32l4xx_hal_rcc_ex.c ****       {
1732:E:/LiteOS/LiteOS_Lab/drivers/third_party/ST/STM32L4xx_HAL_Driver/Src\stm32l4xx_hal_rcc_ex.c ****         frequency = HAL_RCC_GetPCLK1Freq();
1733:E:/LiteOS/LiteOS_Lab/drivers/third_party/ST/STM32L4xx_HAL_Driver/Src\stm32l4xx_hal_rcc_ex.c ****       }
1734:E:/LiteOS/LiteOS_Lab/drivers/third_party/ST/STM32L4xx_HAL_Driver/Src\stm32l4xx_hal_rcc_ex.c ****       else if(srcclk == RCC_UART5CLKSOURCE_SYSCLK)
1735:E:/LiteOS/LiteOS_Lab/drivers/third_party/ST/STM32L4xx_HAL_Driver/Src\stm32l4xx_hal_rcc_ex.c ****       {
1736:E:/LiteOS/LiteOS_Lab/drivers/third_party/ST/STM32L4xx_HAL_Driver/Src\stm32l4xx_hal_rcc_ex.c ****         frequency = HAL_RCC_GetSysClockFreq();
1737:E:/LiteOS/LiteOS_Lab/drivers/third_party/ST/STM32L4xx_HAL_Driver/Src\stm32l4xx_hal_rcc_ex.c ****       }
1738:E:/LiteOS/LiteOS_Lab/drivers/third_party/ST/STM32L4xx_HAL_Driver/Src\stm32l4xx_hal_rcc_ex.c ****       else if((srcclk == RCC_UART5CLKSOURCE_HSI) && (HAL_IS_BIT_SET(RCC->CR, RCC_CR_HSIRDY)))
1739:E:/LiteOS/LiteOS_Lab/drivers/third_party/ST/STM32L4xx_HAL_Driver/Src\stm32l4xx_hal_rcc_ex.c ****       {
1740:E:/LiteOS/LiteOS_Lab/drivers/third_party/ST/STM32L4xx_HAL_Driver/Src\stm32l4xx_hal_rcc_ex.c ****         frequency = HSI_VALUE;
1741:E:/LiteOS/LiteOS_Lab/drivers/third_party/ST/STM32L4xx_HAL_Driver/Src\stm32l4xx_hal_rcc_ex.c ****       }
1742:E:/LiteOS/LiteOS_Lab/drivers/third_party/ST/STM32L4xx_HAL_Driver/Src\stm32l4xx_hal_rcc_ex.c ****       else if((srcclk == RCC_UART5CLKSOURCE_LSE) && (HAL_IS_BIT_SET(RCC->BDCR, RCC_BDCR_LSERDY)))
1743:E:/LiteOS/LiteOS_Lab/drivers/third_party/ST/STM32L4xx_HAL_Driver/Src\stm32l4xx_hal_rcc_ex.c ****       {
1744:E:/LiteOS/LiteOS_Lab/drivers/third_party/ST/STM32L4xx_HAL_Driver/Src\stm32l4xx_hal_rcc_ex.c ****         frequency = LSE_VALUE;
1745:E:/LiteOS/LiteOS_Lab/drivers/third_party/ST/STM32L4xx_HAL_Driver/Src\stm32l4xx_hal_rcc_ex.c ****       }
1746:E:/LiteOS/LiteOS_Lab/drivers/third_party/ST/STM32L4xx_HAL_Driver/Src\stm32l4xx_hal_rcc_ex.c ****       /* Clock not enabled for UART5 */
1747:E:/LiteOS/LiteOS_Lab/drivers/third_party/ST/STM32L4xx_HAL_Driver/Src\stm32l4xx_hal_rcc_ex.c ****       else
1748:E:/LiteOS/LiteOS_Lab/drivers/third_party/ST/STM32L4xx_HAL_Driver/Src\stm32l4xx_hal_rcc_ex.c ****       {
1749:E:/LiteOS/LiteOS_Lab/drivers/third_party/ST/STM32L4xx_HAL_Driver/Src\stm32l4xx_hal_rcc_ex.c ****         frequency = 0U;
1750:E:/LiteOS/LiteOS_Lab/drivers/third_party/ST/STM32L4xx_HAL_Driver/Src\stm32l4xx_hal_rcc_ex.c ****       }
1751:E:/LiteOS/LiteOS_Lab/drivers/third_party/ST/STM32L4xx_HAL_Driver/Src\stm32l4xx_hal_rcc_ex.c ****       break;
1752:E:/LiteOS/LiteOS_Lab/drivers/third_party/ST/STM32L4xx_HAL_Driver/Src\stm32l4xx_hal_rcc_ex.c **** 
1753:E:/LiteOS/LiteOS_Lab/drivers/third_party/ST/STM32L4xx_HAL_Driver/Src\stm32l4xx_hal_rcc_ex.c **** #endif /* UART5 */
1754:E:/LiteOS/LiteOS_Lab/drivers/third_party/ST/STM32L4xx_HAL_Driver/Src\stm32l4xx_hal_rcc_ex.c **** 
1755:E:/LiteOS/LiteOS_Lab/drivers/third_party/ST/STM32L4xx_HAL_Driver/Src\stm32l4xx_hal_rcc_ex.c ****     case RCC_PERIPHCLK_LPUART1:
1756:E:/LiteOS/LiteOS_Lab/drivers/third_party/ST/STM32L4xx_HAL_Driver/Src\stm32l4xx_hal_rcc_ex.c ****       /* Get the current LPUART1 source */
1757:E:/LiteOS/LiteOS_Lab/drivers/third_party/ST/STM32L4xx_HAL_Driver/Src\stm32l4xx_hal_rcc_ex.c ****       srcclk = __HAL_RCC_GET_LPUART1_SOURCE();
1758:E:/LiteOS/LiteOS_Lab/drivers/third_party/ST/STM32L4xx_HAL_Driver/Src\stm32l4xx_hal_rcc_ex.c **** 
1759:E:/LiteOS/LiteOS_Lab/drivers/third_party/ST/STM32L4xx_HAL_Driver/Src\stm32l4xx_hal_rcc_ex.c ****       if(srcclk == RCC_LPUART1CLKSOURCE_PCLK1)
1760:E:/LiteOS/LiteOS_Lab/drivers/third_party/ST/STM32L4xx_HAL_Driver/Src\stm32l4xx_hal_rcc_ex.c ****       {
1761:E:/LiteOS/LiteOS_Lab/drivers/third_party/ST/STM32L4xx_HAL_Driver/Src\stm32l4xx_hal_rcc_ex.c ****         frequency = HAL_RCC_GetPCLK1Freq();
1762:E:/LiteOS/LiteOS_Lab/drivers/third_party/ST/STM32L4xx_HAL_Driver/Src\stm32l4xx_hal_rcc_ex.c ****       }
1763:E:/LiteOS/LiteOS_Lab/drivers/third_party/ST/STM32L4xx_HAL_Driver/Src\stm32l4xx_hal_rcc_ex.c ****       else if(srcclk == RCC_LPUART1CLKSOURCE_SYSCLK)
1764:E:/LiteOS/LiteOS_Lab/drivers/third_party/ST/STM32L4xx_HAL_Driver/Src\stm32l4xx_hal_rcc_ex.c ****       {
1765:E:/LiteOS/LiteOS_Lab/drivers/third_party/ST/STM32L4xx_HAL_Driver/Src\stm32l4xx_hal_rcc_ex.c ****         frequency = HAL_RCC_GetSysClockFreq();
1766:E:/LiteOS/LiteOS_Lab/drivers/third_party/ST/STM32L4xx_HAL_Driver/Src\stm32l4xx_hal_rcc_ex.c ****       }
1767:E:/LiteOS/LiteOS_Lab/drivers/third_party/ST/STM32L4xx_HAL_Driver/Src\stm32l4xx_hal_rcc_ex.c ****       else if((srcclk == RCC_LPUART1CLKSOURCE_HSI) && (HAL_IS_BIT_SET(RCC->CR, RCC_CR_HSIRDY)))
1768:E:/LiteOS/LiteOS_Lab/drivers/third_party/ST/STM32L4xx_HAL_Driver/Src\stm32l4xx_hal_rcc_ex.c ****       {
1769:E:/LiteOS/LiteOS_Lab/drivers/third_party/ST/STM32L4xx_HAL_Driver/Src\stm32l4xx_hal_rcc_ex.c ****         frequency = HSI_VALUE;
1770:E:/LiteOS/LiteOS_Lab/drivers/third_party/ST/STM32L4xx_HAL_Driver/Src\stm32l4xx_hal_rcc_ex.c ****       }
1771:E:/LiteOS/LiteOS_Lab/drivers/third_party/ST/STM32L4xx_HAL_Driver/Src\stm32l4xx_hal_rcc_ex.c ****       else if((srcclk == RCC_LPUART1CLKSOURCE_LSE) && (HAL_IS_BIT_SET(RCC->BDCR, RCC_BDCR_LSERDY)))
1772:E:/LiteOS/LiteOS_Lab/drivers/third_party/ST/STM32L4xx_HAL_Driver/Src\stm32l4xx_hal_rcc_ex.c ****       {
1773:E:/LiteOS/LiteOS_Lab/drivers/third_party/ST/STM32L4xx_HAL_Driver/Src\stm32l4xx_hal_rcc_ex.c ****         frequency = LSE_VALUE;
1774:E:/LiteOS/LiteOS_Lab/drivers/third_party/ST/STM32L4xx_HAL_Driver/Src\stm32l4xx_hal_rcc_ex.c ****       }
1775:E:/LiteOS/LiteOS_Lab/drivers/third_party/ST/STM32L4xx_HAL_Driver/Src\stm32l4xx_hal_rcc_ex.c ****       /* Clock not enabled for LPUART1 */
1776:E:/LiteOS/LiteOS_Lab/drivers/third_party/ST/STM32L4xx_HAL_Driver/Src\stm32l4xx_hal_rcc_ex.c ****       else
1777:E:/LiteOS/LiteOS_Lab/drivers/third_party/ST/STM32L4xx_HAL_Driver/Src\stm32l4xx_hal_rcc_ex.c ****       {
1778:E:/LiteOS/LiteOS_Lab/drivers/third_party/ST/STM32L4xx_HAL_Driver/Src\stm32l4xx_hal_rcc_ex.c ****         frequency = 0U;
1779:E:/LiteOS/LiteOS_Lab/drivers/third_party/ST/STM32L4xx_HAL_Driver/Src\stm32l4xx_hal_rcc_ex.c ****       }
1780:E:/LiteOS/LiteOS_Lab/drivers/third_party/ST/STM32L4xx_HAL_Driver/Src\stm32l4xx_hal_rcc_ex.c ****       break;
1781:E:/LiteOS/LiteOS_Lab/drivers/third_party/ST/STM32L4xx_HAL_Driver/Src\stm32l4xx_hal_rcc_ex.c **** 
1782:E:/LiteOS/LiteOS_Lab/drivers/third_party/ST/STM32L4xx_HAL_Driver/Src\stm32l4xx_hal_rcc_ex.c ****     case RCC_PERIPHCLK_ADC:
ARM GAS  C:\Users\user\AppData\Local\Temp\ccsJwa9Q.s 			page 50


1783:E:/LiteOS/LiteOS_Lab/drivers/third_party/ST/STM32L4xx_HAL_Driver/Src\stm32l4xx_hal_rcc_ex.c **** 
1784:E:/LiteOS/LiteOS_Lab/drivers/third_party/ST/STM32L4xx_HAL_Driver/Src\stm32l4xx_hal_rcc_ex.c ****       srcclk = __HAL_RCC_GET_ADC_SOURCE();
1785:E:/LiteOS/LiteOS_Lab/drivers/third_party/ST/STM32L4xx_HAL_Driver/Src\stm32l4xx_hal_rcc_ex.c **** 
1786:E:/LiteOS/LiteOS_Lab/drivers/third_party/ST/STM32L4xx_HAL_Driver/Src\stm32l4xx_hal_rcc_ex.c ****       if(srcclk == RCC_ADCCLKSOURCE_SYSCLK)
1787:E:/LiteOS/LiteOS_Lab/drivers/third_party/ST/STM32L4xx_HAL_Driver/Src\stm32l4xx_hal_rcc_ex.c ****       {
1788:E:/LiteOS/LiteOS_Lab/drivers/third_party/ST/STM32L4xx_HAL_Driver/Src\stm32l4xx_hal_rcc_ex.c ****         frequency = HAL_RCC_GetSysClockFreq();
1789:E:/LiteOS/LiteOS_Lab/drivers/third_party/ST/STM32L4xx_HAL_Driver/Src\stm32l4xx_hal_rcc_ex.c ****       }
1790:E:/LiteOS/LiteOS_Lab/drivers/third_party/ST/STM32L4xx_HAL_Driver/Src\stm32l4xx_hal_rcc_ex.c ****       else if(srcclk == RCC_ADCCLKSOURCE_PLLSAI1)
1791:E:/LiteOS/LiteOS_Lab/drivers/third_party/ST/STM32L4xx_HAL_Driver/Src\stm32l4xx_hal_rcc_ex.c ****       {
1792:E:/LiteOS/LiteOS_Lab/drivers/third_party/ST/STM32L4xx_HAL_Driver/Src\stm32l4xx_hal_rcc_ex.c ****         if(__HAL_RCC_GET_PLLSAI1CLKOUT_CONFIG(RCC_PLLSAI1_ADC1CLK) != RESET)
1793:E:/LiteOS/LiteOS_Lab/drivers/third_party/ST/STM32L4xx_HAL_Driver/Src\stm32l4xx_hal_rcc_ex.c ****         {
1794:E:/LiteOS/LiteOS_Lab/drivers/third_party/ST/STM32L4xx_HAL_Driver/Src\stm32l4xx_hal_rcc_ex.c **** #if defined(RCC_PLLSAI1M_DIV_1_16_SUPPORT)
1795:E:/LiteOS/LiteOS_Lab/drivers/third_party/ST/STM32L4xx_HAL_Driver/Src\stm32l4xx_hal_rcc_ex.c ****           /* f(PLLSAI1 Source) / PLLSAI1M */
1796:E:/LiteOS/LiteOS_Lab/drivers/third_party/ST/STM32L4xx_HAL_Driver/Src\stm32l4xx_hal_rcc_ex.c ****           pllvco = (pllvco / ((READ_BIT(RCC->PLLSAI1CFGR, RCC_PLLSAI1CFGR_PLLSAI1M) >> RCC_PLLSAI1C
1797:E:/LiteOS/LiteOS_Lab/drivers/third_party/ST/STM32L4xx_HAL_Driver/Src\stm32l4xx_hal_rcc_ex.c **** #endif
1798:E:/LiteOS/LiteOS_Lab/drivers/third_party/ST/STM32L4xx_HAL_Driver/Src\stm32l4xx_hal_rcc_ex.c ****           /* f(PLLADC1CLK) = f(VCOSAI1 input) * PLLSAI1N / PLLSAI1R */
1799:E:/LiteOS/LiteOS_Lab/drivers/third_party/ST/STM32L4xx_HAL_Driver/Src\stm32l4xx_hal_rcc_ex.c ****           plln = READ_BIT(RCC->PLLSAI1CFGR, RCC_PLLSAI1CFGR_PLLSAI1N) >> RCC_PLLSAI1CFGR_PLLSAI1N_P
1800:E:/LiteOS/LiteOS_Lab/drivers/third_party/ST/STM32L4xx_HAL_Driver/Src\stm32l4xx_hal_rcc_ex.c ****           frequency = (pllvco * plln) / (((READ_BIT(RCC->PLLSAI1CFGR, RCC_PLLSAI1CFGR_PLLSAI1R) >> 
1801:E:/LiteOS/LiteOS_Lab/drivers/third_party/ST/STM32L4xx_HAL_Driver/Src\stm32l4xx_hal_rcc_ex.c ****         }
1802:E:/LiteOS/LiteOS_Lab/drivers/third_party/ST/STM32L4xx_HAL_Driver/Src\stm32l4xx_hal_rcc_ex.c ****       }
1803:E:/LiteOS/LiteOS_Lab/drivers/third_party/ST/STM32L4xx_HAL_Driver/Src\stm32l4xx_hal_rcc_ex.c **** #if defined(STM32L471xx) || defined(STM32L475xx) || defined(STM32L476xx) || defined(STM32L485xx) ||
1804:E:/LiteOS/LiteOS_Lab/drivers/third_party/ST/STM32L4xx_HAL_Driver/Src\stm32l4xx_hal_rcc_ex.c ****       else if(srcclk == RCC_ADCCLKSOURCE_PLLSAI2)
1805:E:/LiteOS/LiteOS_Lab/drivers/third_party/ST/STM32L4xx_HAL_Driver/Src\stm32l4xx_hal_rcc_ex.c ****       {
1806:E:/LiteOS/LiteOS_Lab/drivers/third_party/ST/STM32L4xx_HAL_Driver/Src\stm32l4xx_hal_rcc_ex.c ****         if(__HAL_RCC_GET_PLLSAI2CLKOUT_CONFIG(RCC_PLLSAI2_ADC2CLK) != RESET)
1807:E:/LiteOS/LiteOS_Lab/drivers/third_party/ST/STM32L4xx_HAL_Driver/Src\stm32l4xx_hal_rcc_ex.c ****         {
1808:E:/LiteOS/LiteOS_Lab/drivers/third_party/ST/STM32L4xx_HAL_Driver/Src\stm32l4xx_hal_rcc_ex.c **** #if defined(RCC_PLLSAI2M_DIV_1_16_SUPPORT)
1809:E:/LiteOS/LiteOS_Lab/drivers/third_party/ST/STM32L4xx_HAL_Driver/Src\stm32l4xx_hal_rcc_ex.c ****           /* f(PLLSAI2 Source) / PLLSAI2M */
1810:E:/LiteOS/LiteOS_Lab/drivers/third_party/ST/STM32L4xx_HAL_Driver/Src\stm32l4xx_hal_rcc_ex.c ****           pllvco = (pllvco / ((READ_BIT(RCC->PLLSAI2CFGR, RCC_PLLSAI2CFGR_PLLSAI2M) >> RCC_PLLSAI2C
1811:E:/LiteOS/LiteOS_Lab/drivers/third_party/ST/STM32L4xx_HAL_Driver/Src\stm32l4xx_hal_rcc_ex.c **** #endif
1812:E:/LiteOS/LiteOS_Lab/drivers/third_party/ST/STM32L4xx_HAL_Driver/Src\stm32l4xx_hal_rcc_ex.c ****           /* f(PLLADC2CLK) = f(VCOSAI2 input) * PLLSAI2N / PLLSAI2R */
1813:E:/LiteOS/LiteOS_Lab/drivers/third_party/ST/STM32L4xx_HAL_Driver/Src\stm32l4xx_hal_rcc_ex.c ****           plln = READ_BIT(RCC->PLLSAI2CFGR, RCC_PLLSAI2CFGR_PLLSAI2N) >> RCC_PLLSAI2CFGR_PLLSAI2N_P
1814:E:/LiteOS/LiteOS_Lab/drivers/third_party/ST/STM32L4xx_HAL_Driver/Src\stm32l4xx_hal_rcc_ex.c ****           frequency = (pllvco * plln) / (((READ_BIT(RCC->PLLSAI2CFGR, RCC_PLLSAI2CFGR_PLLSAI2R) >> 
1815:E:/LiteOS/LiteOS_Lab/drivers/third_party/ST/STM32L4xx_HAL_Driver/Src\stm32l4xx_hal_rcc_ex.c ****         }
1816:E:/LiteOS/LiteOS_Lab/drivers/third_party/ST/STM32L4xx_HAL_Driver/Src\stm32l4xx_hal_rcc_ex.c ****       }
1817:E:/LiteOS/LiteOS_Lab/drivers/third_party/ST/STM32L4xx_HAL_Driver/Src\stm32l4xx_hal_rcc_ex.c **** #endif /* STM32L471xx || STM32L475xx || STM32L476xx || STM32L485xx || STM32L486xx || STM32L496xx ||
1818:E:/LiteOS/LiteOS_Lab/drivers/third_party/ST/STM32L4xx_HAL_Driver/Src\stm32l4xx_hal_rcc_ex.c ****       /* Clock not enabled for ADC */
1819:E:/LiteOS/LiteOS_Lab/drivers/third_party/ST/STM32L4xx_HAL_Driver/Src\stm32l4xx_hal_rcc_ex.c ****       else
1820:E:/LiteOS/LiteOS_Lab/drivers/third_party/ST/STM32L4xx_HAL_Driver/Src\stm32l4xx_hal_rcc_ex.c ****       {
1821:E:/LiteOS/LiteOS_Lab/drivers/third_party/ST/STM32L4xx_HAL_Driver/Src\stm32l4xx_hal_rcc_ex.c ****         frequency = 0U;
1822:E:/LiteOS/LiteOS_Lab/drivers/third_party/ST/STM32L4xx_HAL_Driver/Src\stm32l4xx_hal_rcc_ex.c ****       }
1823:E:/LiteOS/LiteOS_Lab/drivers/third_party/ST/STM32L4xx_HAL_Driver/Src\stm32l4xx_hal_rcc_ex.c ****       break;
1824:E:/LiteOS/LiteOS_Lab/drivers/third_party/ST/STM32L4xx_HAL_Driver/Src\stm32l4xx_hal_rcc_ex.c **** 
1825:E:/LiteOS/LiteOS_Lab/drivers/third_party/ST/STM32L4xx_HAL_Driver/Src\stm32l4xx_hal_rcc_ex.c **** #if defined(DFSDM1_Filter0)
1826:E:/LiteOS/LiteOS_Lab/drivers/third_party/ST/STM32L4xx_HAL_Driver/Src\stm32l4xx_hal_rcc_ex.c **** 
1827:E:/LiteOS/LiteOS_Lab/drivers/third_party/ST/STM32L4xx_HAL_Driver/Src\stm32l4xx_hal_rcc_ex.c ****     case RCC_PERIPHCLK_DFSDM1:
1828:E:/LiteOS/LiteOS_Lab/drivers/third_party/ST/STM32L4xx_HAL_Driver/Src\stm32l4xx_hal_rcc_ex.c ****       /* Get the current DFSDM1 source */
1829:E:/LiteOS/LiteOS_Lab/drivers/third_party/ST/STM32L4xx_HAL_Driver/Src\stm32l4xx_hal_rcc_ex.c ****       srcclk = __HAL_RCC_GET_DFSDM1_SOURCE();
1830:E:/LiteOS/LiteOS_Lab/drivers/third_party/ST/STM32L4xx_HAL_Driver/Src\stm32l4xx_hal_rcc_ex.c **** 
1831:E:/LiteOS/LiteOS_Lab/drivers/third_party/ST/STM32L4xx_HAL_Driver/Src\stm32l4xx_hal_rcc_ex.c ****       if(srcclk == RCC_DFSDM1CLKSOURCE_PCLK2)
1832:E:/LiteOS/LiteOS_Lab/drivers/third_party/ST/STM32L4xx_HAL_Driver/Src\stm32l4xx_hal_rcc_ex.c ****       {
1833:E:/LiteOS/LiteOS_Lab/drivers/third_party/ST/STM32L4xx_HAL_Driver/Src\stm32l4xx_hal_rcc_ex.c ****         frequency = HAL_RCC_GetPCLK2Freq();
1834:E:/LiteOS/LiteOS_Lab/drivers/third_party/ST/STM32L4xx_HAL_Driver/Src\stm32l4xx_hal_rcc_ex.c ****       }
1835:E:/LiteOS/LiteOS_Lab/drivers/third_party/ST/STM32L4xx_HAL_Driver/Src\stm32l4xx_hal_rcc_ex.c ****       else
1836:E:/LiteOS/LiteOS_Lab/drivers/third_party/ST/STM32L4xx_HAL_Driver/Src\stm32l4xx_hal_rcc_ex.c ****       {
1837:E:/LiteOS/LiteOS_Lab/drivers/third_party/ST/STM32L4xx_HAL_Driver/Src\stm32l4xx_hal_rcc_ex.c ****         frequency = HAL_RCC_GetSysClockFreq();
1838:E:/LiteOS/LiteOS_Lab/drivers/third_party/ST/STM32L4xx_HAL_Driver/Src\stm32l4xx_hal_rcc_ex.c ****       }
1839:E:/LiteOS/LiteOS_Lab/drivers/third_party/ST/STM32L4xx_HAL_Driver/Src\stm32l4xx_hal_rcc_ex.c ****       break;
ARM GAS  C:\Users\user\AppData\Local\Temp\ccsJwa9Q.s 			page 51


1840:E:/LiteOS/LiteOS_Lab/drivers/third_party/ST/STM32L4xx_HAL_Driver/Src\stm32l4xx_hal_rcc_ex.c **** 
1841:E:/LiteOS/LiteOS_Lab/drivers/third_party/ST/STM32L4xx_HAL_Driver/Src\stm32l4xx_hal_rcc_ex.c **** #if defined(STM32L4R5xx) || defined(STM32L4R7xx) || defined(STM32L4R9xx) || defined(STM32L4S5xx) ||
1842:E:/LiteOS/LiteOS_Lab/drivers/third_party/ST/STM32L4xx_HAL_Driver/Src\stm32l4xx_hal_rcc_ex.c **** 
1843:E:/LiteOS/LiteOS_Lab/drivers/third_party/ST/STM32L4xx_HAL_Driver/Src\stm32l4xx_hal_rcc_ex.c ****     case RCC_PERIPHCLK_DFSDM1AUDIO:
1844:E:/LiteOS/LiteOS_Lab/drivers/third_party/ST/STM32L4xx_HAL_Driver/Src\stm32l4xx_hal_rcc_ex.c ****       /* Get the current DFSDM1 audio source */
1845:E:/LiteOS/LiteOS_Lab/drivers/third_party/ST/STM32L4xx_HAL_Driver/Src\stm32l4xx_hal_rcc_ex.c ****       srcclk = __HAL_RCC_GET_DFSDM1AUDIO_SOURCE();
1846:E:/LiteOS/LiteOS_Lab/drivers/third_party/ST/STM32L4xx_HAL_Driver/Src\stm32l4xx_hal_rcc_ex.c **** 
1847:E:/LiteOS/LiteOS_Lab/drivers/third_party/ST/STM32L4xx_HAL_Driver/Src\stm32l4xx_hal_rcc_ex.c ****       if(srcclk == RCC_DFSDM1AUDIOCLKSOURCE_SAI1)
1848:E:/LiteOS/LiteOS_Lab/drivers/third_party/ST/STM32L4xx_HAL_Driver/Src\stm32l4xx_hal_rcc_ex.c ****       {
1849:E:/LiteOS/LiteOS_Lab/drivers/third_party/ST/STM32L4xx_HAL_Driver/Src\stm32l4xx_hal_rcc_ex.c ****         frequency = HAL_RCCEx_GetPeriphCLKFreq(RCC_PERIPHCLK_SAI1);
1850:E:/LiteOS/LiteOS_Lab/drivers/third_party/ST/STM32L4xx_HAL_Driver/Src\stm32l4xx_hal_rcc_ex.c ****       }
1851:E:/LiteOS/LiteOS_Lab/drivers/third_party/ST/STM32L4xx_HAL_Driver/Src\stm32l4xx_hal_rcc_ex.c ****       else if((srcclk == RCC_DFSDM1AUDIOCLKSOURCE_MSI) && (HAL_IS_BIT_SET(RCC->CR, RCC_CR_MSIRDY)))
1852:E:/LiteOS/LiteOS_Lab/drivers/third_party/ST/STM32L4xx_HAL_Driver/Src\stm32l4xx_hal_rcc_ex.c ****       {
1853:E:/LiteOS/LiteOS_Lab/drivers/third_party/ST/STM32L4xx_HAL_Driver/Src\stm32l4xx_hal_rcc_ex.c ****         /*MSI frequency range in HZ*/
1854:E:/LiteOS/LiteOS_Lab/drivers/third_party/ST/STM32L4xx_HAL_Driver/Src\stm32l4xx_hal_rcc_ex.c ****         frequency = MSIRangeTable[(__HAL_RCC_GET_MSI_RANGE() >> 4U)];
1855:E:/LiteOS/LiteOS_Lab/drivers/third_party/ST/STM32L4xx_HAL_Driver/Src\stm32l4xx_hal_rcc_ex.c ****       }
1856:E:/LiteOS/LiteOS_Lab/drivers/third_party/ST/STM32L4xx_HAL_Driver/Src\stm32l4xx_hal_rcc_ex.c ****       else if((srcclk == RCC_DFSDM1AUDIOCLKSOURCE_HSI) && (HAL_IS_BIT_SET(RCC->CR, RCC_CR_HSIRDY)))
1857:E:/LiteOS/LiteOS_Lab/drivers/third_party/ST/STM32L4xx_HAL_Driver/Src\stm32l4xx_hal_rcc_ex.c ****       {
1858:E:/LiteOS/LiteOS_Lab/drivers/third_party/ST/STM32L4xx_HAL_Driver/Src\stm32l4xx_hal_rcc_ex.c ****         frequency = HSI_VALUE;
1859:E:/LiteOS/LiteOS_Lab/drivers/third_party/ST/STM32L4xx_HAL_Driver/Src\stm32l4xx_hal_rcc_ex.c ****       }
1860:E:/LiteOS/LiteOS_Lab/drivers/third_party/ST/STM32L4xx_HAL_Driver/Src\stm32l4xx_hal_rcc_ex.c ****       /* Clock not enabled for DFSDM1 audio source */
1861:E:/LiteOS/LiteOS_Lab/drivers/third_party/ST/STM32L4xx_HAL_Driver/Src\stm32l4xx_hal_rcc_ex.c ****       else
1862:E:/LiteOS/LiteOS_Lab/drivers/third_party/ST/STM32L4xx_HAL_Driver/Src\stm32l4xx_hal_rcc_ex.c ****       {
1863:E:/LiteOS/LiteOS_Lab/drivers/third_party/ST/STM32L4xx_HAL_Driver/Src\stm32l4xx_hal_rcc_ex.c ****         frequency = 0U;
1864:E:/LiteOS/LiteOS_Lab/drivers/third_party/ST/STM32L4xx_HAL_Driver/Src\stm32l4xx_hal_rcc_ex.c ****       }
1865:E:/LiteOS/LiteOS_Lab/drivers/third_party/ST/STM32L4xx_HAL_Driver/Src\stm32l4xx_hal_rcc_ex.c ****       break;
1866:E:/LiteOS/LiteOS_Lab/drivers/third_party/ST/STM32L4xx_HAL_Driver/Src\stm32l4xx_hal_rcc_ex.c **** 
1867:E:/LiteOS/LiteOS_Lab/drivers/third_party/ST/STM32L4xx_HAL_Driver/Src\stm32l4xx_hal_rcc_ex.c **** #endif /* STM32L4R5xx || STM32L4R7xx || STM32L4R9xx || STM32L4S5xx || STM32L4S7xx || STM32L4S9xx */
1868:E:/LiteOS/LiteOS_Lab/drivers/third_party/ST/STM32L4xx_HAL_Driver/Src\stm32l4xx_hal_rcc_ex.c **** 
1869:E:/LiteOS/LiteOS_Lab/drivers/third_party/ST/STM32L4xx_HAL_Driver/Src\stm32l4xx_hal_rcc_ex.c **** #endif /* DFSDM1_Filter0 */
1870:E:/LiteOS/LiteOS_Lab/drivers/third_party/ST/STM32L4xx_HAL_Driver/Src\stm32l4xx_hal_rcc_ex.c **** 
1871:E:/LiteOS/LiteOS_Lab/drivers/third_party/ST/STM32L4xx_HAL_Driver/Src\stm32l4xx_hal_rcc_ex.c ****     case RCC_PERIPHCLK_I2C1:
1872:E:/LiteOS/LiteOS_Lab/drivers/third_party/ST/STM32L4xx_HAL_Driver/Src\stm32l4xx_hal_rcc_ex.c ****       /* Get the current I2C1 source */
1873:E:/LiteOS/LiteOS_Lab/drivers/third_party/ST/STM32L4xx_HAL_Driver/Src\stm32l4xx_hal_rcc_ex.c ****       srcclk = __HAL_RCC_GET_I2C1_SOURCE();
1874:E:/LiteOS/LiteOS_Lab/drivers/third_party/ST/STM32L4xx_HAL_Driver/Src\stm32l4xx_hal_rcc_ex.c **** 
1875:E:/LiteOS/LiteOS_Lab/drivers/third_party/ST/STM32L4xx_HAL_Driver/Src\stm32l4xx_hal_rcc_ex.c ****       if(srcclk == RCC_I2C1CLKSOURCE_PCLK1)
1876:E:/LiteOS/LiteOS_Lab/drivers/third_party/ST/STM32L4xx_HAL_Driver/Src\stm32l4xx_hal_rcc_ex.c ****       {
1877:E:/LiteOS/LiteOS_Lab/drivers/third_party/ST/STM32L4xx_HAL_Driver/Src\stm32l4xx_hal_rcc_ex.c ****         frequency = HAL_RCC_GetPCLK1Freq();
1878:E:/LiteOS/LiteOS_Lab/drivers/third_party/ST/STM32L4xx_HAL_Driver/Src\stm32l4xx_hal_rcc_ex.c ****       }
1879:E:/LiteOS/LiteOS_Lab/drivers/third_party/ST/STM32L4xx_HAL_Driver/Src\stm32l4xx_hal_rcc_ex.c ****       else if(srcclk == RCC_I2C1CLKSOURCE_SYSCLK)
1880:E:/LiteOS/LiteOS_Lab/drivers/third_party/ST/STM32L4xx_HAL_Driver/Src\stm32l4xx_hal_rcc_ex.c ****       {
1881:E:/LiteOS/LiteOS_Lab/drivers/third_party/ST/STM32L4xx_HAL_Driver/Src\stm32l4xx_hal_rcc_ex.c ****         frequency = HAL_RCC_GetSysClockFreq();
1882:E:/LiteOS/LiteOS_Lab/drivers/third_party/ST/STM32L4xx_HAL_Driver/Src\stm32l4xx_hal_rcc_ex.c ****       }
1883:E:/LiteOS/LiteOS_Lab/drivers/third_party/ST/STM32L4xx_HAL_Driver/Src\stm32l4xx_hal_rcc_ex.c ****       else if((srcclk == RCC_I2C1CLKSOURCE_HSI) && (HAL_IS_BIT_SET(RCC->CR, RCC_CR_HSIRDY)))
1884:E:/LiteOS/LiteOS_Lab/drivers/third_party/ST/STM32L4xx_HAL_Driver/Src\stm32l4xx_hal_rcc_ex.c ****       {
1885:E:/LiteOS/LiteOS_Lab/drivers/third_party/ST/STM32L4xx_HAL_Driver/Src\stm32l4xx_hal_rcc_ex.c ****         frequency = HSI_VALUE;
1886:E:/LiteOS/LiteOS_Lab/drivers/third_party/ST/STM32L4xx_HAL_Driver/Src\stm32l4xx_hal_rcc_ex.c ****       }
1887:E:/LiteOS/LiteOS_Lab/drivers/third_party/ST/STM32L4xx_HAL_Driver/Src\stm32l4xx_hal_rcc_ex.c ****       /* Clock not enabled for I2C1 */
1888:E:/LiteOS/LiteOS_Lab/drivers/third_party/ST/STM32L4xx_HAL_Driver/Src\stm32l4xx_hal_rcc_ex.c ****       else
1889:E:/LiteOS/LiteOS_Lab/drivers/third_party/ST/STM32L4xx_HAL_Driver/Src\stm32l4xx_hal_rcc_ex.c ****       {
1890:E:/LiteOS/LiteOS_Lab/drivers/third_party/ST/STM32L4xx_HAL_Driver/Src\stm32l4xx_hal_rcc_ex.c ****         frequency = 0U;
1891:E:/LiteOS/LiteOS_Lab/drivers/third_party/ST/STM32L4xx_HAL_Driver/Src\stm32l4xx_hal_rcc_ex.c ****       }
1892:E:/LiteOS/LiteOS_Lab/drivers/third_party/ST/STM32L4xx_HAL_Driver/Src\stm32l4xx_hal_rcc_ex.c ****       break;
1893:E:/LiteOS/LiteOS_Lab/drivers/third_party/ST/STM32L4xx_HAL_Driver/Src\stm32l4xx_hal_rcc_ex.c **** 
1894:E:/LiteOS/LiteOS_Lab/drivers/third_party/ST/STM32L4xx_HAL_Driver/Src\stm32l4xx_hal_rcc_ex.c **** #if defined(I2C2)
1895:E:/LiteOS/LiteOS_Lab/drivers/third_party/ST/STM32L4xx_HAL_Driver/Src\stm32l4xx_hal_rcc_ex.c **** 
1896:E:/LiteOS/LiteOS_Lab/drivers/third_party/ST/STM32L4xx_HAL_Driver/Src\stm32l4xx_hal_rcc_ex.c ****     case RCC_PERIPHCLK_I2C2:
ARM GAS  C:\Users\user\AppData\Local\Temp\ccsJwa9Q.s 			page 52


1897:E:/LiteOS/LiteOS_Lab/drivers/third_party/ST/STM32L4xx_HAL_Driver/Src\stm32l4xx_hal_rcc_ex.c ****       /* Get the current I2C2 source */
1898:E:/LiteOS/LiteOS_Lab/drivers/third_party/ST/STM32L4xx_HAL_Driver/Src\stm32l4xx_hal_rcc_ex.c ****       srcclk = __HAL_RCC_GET_I2C2_SOURCE();
1899:E:/LiteOS/LiteOS_Lab/drivers/third_party/ST/STM32L4xx_HAL_Driver/Src\stm32l4xx_hal_rcc_ex.c **** 
1900:E:/LiteOS/LiteOS_Lab/drivers/third_party/ST/STM32L4xx_HAL_Driver/Src\stm32l4xx_hal_rcc_ex.c ****       if(srcclk == RCC_I2C2CLKSOURCE_PCLK1)
1901:E:/LiteOS/LiteOS_Lab/drivers/third_party/ST/STM32L4xx_HAL_Driver/Src\stm32l4xx_hal_rcc_ex.c ****       {
1902:E:/LiteOS/LiteOS_Lab/drivers/third_party/ST/STM32L4xx_HAL_Driver/Src\stm32l4xx_hal_rcc_ex.c ****         frequency = HAL_RCC_GetPCLK1Freq();
1903:E:/LiteOS/LiteOS_Lab/drivers/third_party/ST/STM32L4xx_HAL_Driver/Src\stm32l4xx_hal_rcc_ex.c ****       }
1904:E:/LiteOS/LiteOS_Lab/drivers/third_party/ST/STM32L4xx_HAL_Driver/Src\stm32l4xx_hal_rcc_ex.c ****       else if(srcclk == RCC_I2C2CLKSOURCE_SYSCLK)
1905:E:/LiteOS/LiteOS_Lab/drivers/third_party/ST/STM32L4xx_HAL_Driver/Src\stm32l4xx_hal_rcc_ex.c ****       {
1906:E:/LiteOS/LiteOS_Lab/drivers/third_party/ST/STM32L4xx_HAL_Driver/Src\stm32l4xx_hal_rcc_ex.c ****         frequency = HAL_RCC_GetSysClockFreq();
1907:E:/LiteOS/LiteOS_Lab/drivers/third_party/ST/STM32L4xx_HAL_Driver/Src\stm32l4xx_hal_rcc_ex.c ****       }
1908:E:/LiteOS/LiteOS_Lab/drivers/third_party/ST/STM32L4xx_HAL_Driver/Src\stm32l4xx_hal_rcc_ex.c ****       else if((srcclk == RCC_I2C2CLKSOURCE_HSI) && (HAL_IS_BIT_SET(RCC->CR, RCC_CR_HSIRDY)))
1909:E:/LiteOS/LiteOS_Lab/drivers/third_party/ST/STM32L4xx_HAL_Driver/Src\stm32l4xx_hal_rcc_ex.c ****       {
1910:E:/LiteOS/LiteOS_Lab/drivers/third_party/ST/STM32L4xx_HAL_Driver/Src\stm32l4xx_hal_rcc_ex.c ****         frequency = HSI_VALUE;
1911:E:/LiteOS/LiteOS_Lab/drivers/third_party/ST/STM32L4xx_HAL_Driver/Src\stm32l4xx_hal_rcc_ex.c ****       }
1912:E:/LiteOS/LiteOS_Lab/drivers/third_party/ST/STM32L4xx_HAL_Driver/Src\stm32l4xx_hal_rcc_ex.c ****       /* Clock not enabled for I2C2 */
1913:E:/LiteOS/LiteOS_Lab/drivers/third_party/ST/STM32L4xx_HAL_Driver/Src\stm32l4xx_hal_rcc_ex.c ****       else
1914:E:/LiteOS/LiteOS_Lab/drivers/third_party/ST/STM32L4xx_HAL_Driver/Src\stm32l4xx_hal_rcc_ex.c ****       {
1915:E:/LiteOS/LiteOS_Lab/drivers/third_party/ST/STM32L4xx_HAL_Driver/Src\stm32l4xx_hal_rcc_ex.c ****         frequency = 0U;
1916:E:/LiteOS/LiteOS_Lab/drivers/third_party/ST/STM32L4xx_HAL_Driver/Src\stm32l4xx_hal_rcc_ex.c ****       }
1917:E:/LiteOS/LiteOS_Lab/drivers/third_party/ST/STM32L4xx_HAL_Driver/Src\stm32l4xx_hal_rcc_ex.c ****       break;
1918:E:/LiteOS/LiteOS_Lab/drivers/third_party/ST/STM32L4xx_HAL_Driver/Src\stm32l4xx_hal_rcc_ex.c **** 
1919:E:/LiteOS/LiteOS_Lab/drivers/third_party/ST/STM32L4xx_HAL_Driver/Src\stm32l4xx_hal_rcc_ex.c **** #endif /* I2C2 */
1920:E:/LiteOS/LiteOS_Lab/drivers/third_party/ST/STM32L4xx_HAL_Driver/Src\stm32l4xx_hal_rcc_ex.c **** 
1921:E:/LiteOS/LiteOS_Lab/drivers/third_party/ST/STM32L4xx_HAL_Driver/Src\stm32l4xx_hal_rcc_ex.c ****     case RCC_PERIPHCLK_I2C3:
1922:E:/LiteOS/LiteOS_Lab/drivers/third_party/ST/STM32L4xx_HAL_Driver/Src\stm32l4xx_hal_rcc_ex.c ****       /* Get the current I2C3 source */
1923:E:/LiteOS/LiteOS_Lab/drivers/third_party/ST/STM32L4xx_HAL_Driver/Src\stm32l4xx_hal_rcc_ex.c ****       srcclk = __HAL_RCC_GET_I2C3_SOURCE();
1924:E:/LiteOS/LiteOS_Lab/drivers/third_party/ST/STM32L4xx_HAL_Driver/Src\stm32l4xx_hal_rcc_ex.c **** 
1925:E:/LiteOS/LiteOS_Lab/drivers/third_party/ST/STM32L4xx_HAL_Driver/Src\stm32l4xx_hal_rcc_ex.c ****       if(srcclk == RCC_I2C3CLKSOURCE_PCLK1)
1926:E:/LiteOS/LiteOS_Lab/drivers/third_party/ST/STM32L4xx_HAL_Driver/Src\stm32l4xx_hal_rcc_ex.c ****       {
1927:E:/LiteOS/LiteOS_Lab/drivers/third_party/ST/STM32L4xx_HAL_Driver/Src\stm32l4xx_hal_rcc_ex.c ****         frequency = HAL_RCC_GetPCLK1Freq();
1928:E:/LiteOS/LiteOS_Lab/drivers/third_party/ST/STM32L4xx_HAL_Driver/Src\stm32l4xx_hal_rcc_ex.c ****       }
1929:E:/LiteOS/LiteOS_Lab/drivers/third_party/ST/STM32L4xx_HAL_Driver/Src\stm32l4xx_hal_rcc_ex.c ****       else if(srcclk == RCC_I2C3CLKSOURCE_SYSCLK)
1930:E:/LiteOS/LiteOS_Lab/drivers/third_party/ST/STM32L4xx_HAL_Driver/Src\stm32l4xx_hal_rcc_ex.c ****       {
1931:E:/LiteOS/LiteOS_Lab/drivers/third_party/ST/STM32L4xx_HAL_Driver/Src\stm32l4xx_hal_rcc_ex.c ****         frequency = HAL_RCC_GetSysClockFreq();
1932:E:/LiteOS/LiteOS_Lab/drivers/third_party/ST/STM32L4xx_HAL_Driver/Src\stm32l4xx_hal_rcc_ex.c ****       }
1933:E:/LiteOS/LiteOS_Lab/drivers/third_party/ST/STM32L4xx_HAL_Driver/Src\stm32l4xx_hal_rcc_ex.c ****       else if((srcclk == RCC_I2C3CLKSOURCE_HSI) && (HAL_IS_BIT_SET(RCC->CR, RCC_CR_HSIRDY)))
1934:E:/LiteOS/LiteOS_Lab/drivers/third_party/ST/STM32L4xx_HAL_Driver/Src\stm32l4xx_hal_rcc_ex.c ****       {
1935:E:/LiteOS/LiteOS_Lab/drivers/third_party/ST/STM32L4xx_HAL_Driver/Src\stm32l4xx_hal_rcc_ex.c ****         frequency = HSI_VALUE;
1936:E:/LiteOS/LiteOS_Lab/drivers/third_party/ST/STM32L4xx_HAL_Driver/Src\stm32l4xx_hal_rcc_ex.c ****       }
1937:E:/LiteOS/LiteOS_Lab/drivers/third_party/ST/STM32L4xx_HAL_Driver/Src\stm32l4xx_hal_rcc_ex.c ****       /* Clock not enabled for I2C3 */
1938:E:/LiteOS/LiteOS_Lab/drivers/third_party/ST/STM32L4xx_HAL_Driver/Src\stm32l4xx_hal_rcc_ex.c ****       else
1939:E:/LiteOS/LiteOS_Lab/drivers/third_party/ST/STM32L4xx_HAL_Driver/Src\stm32l4xx_hal_rcc_ex.c ****       {
1940:E:/LiteOS/LiteOS_Lab/drivers/third_party/ST/STM32L4xx_HAL_Driver/Src\stm32l4xx_hal_rcc_ex.c ****         frequency = 0U;
1941:E:/LiteOS/LiteOS_Lab/drivers/third_party/ST/STM32L4xx_HAL_Driver/Src\stm32l4xx_hal_rcc_ex.c ****       }
1942:E:/LiteOS/LiteOS_Lab/drivers/third_party/ST/STM32L4xx_HAL_Driver/Src\stm32l4xx_hal_rcc_ex.c ****       break;
1943:E:/LiteOS/LiteOS_Lab/drivers/third_party/ST/STM32L4xx_HAL_Driver/Src\stm32l4xx_hal_rcc_ex.c **** 
1944:E:/LiteOS/LiteOS_Lab/drivers/third_party/ST/STM32L4xx_HAL_Driver/Src\stm32l4xx_hal_rcc_ex.c **** #if defined(I2C4)
1945:E:/LiteOS/LiteOS_Lab/drivers/third_party/ST/STM32L4xx_HAL_Driver/Src\stm32l4xx_hal_rcc_ex.c **** 
1946:E:/LiteOS/LiteOS_Lab/drivers/third_party/ST/STM32L4xx_HAL_Driver/Src\stm32l4xx_hal_rcc_ex.c ****     case RCC_PERIPHCLK_I2C4:
1947:E:/LiteOS/LiteOS_Lab/drivers/third_party/ST/STM32L4xx_HAL_Driver/Src\stm32l4xx_hal_rcc_ex.c ****       /* Get the current I2C4 source */
1948:E:/LiteOS/LiteOS_Lab/drivers/third_party/ST/STM32L4xx_HAL_Driver/Src\stm32l4xx_hal_rcc_ex.c ****       srcclk = __HAL_RCC_GET_I2C4_SOURCE();
1949:E:/LiteOS/LiteOS_Lab/drivers/third_party/ST/STM32L4xx_HAL_Driver/Src\stm32l4xx_hal_rcc_ex.c **** 
1950:E:/LiteOS/LiteOS_Lab/drivers/third_party/ST/STM32L4xx_HAL_Driver/Src\stm32l4xx_hal_rcc_ex.c ****       if(srcclk == RCC_I2C4CLKSOURCE_PCLK1)
1951:E:/LiteOS/LiteOS_Lab/drivers/third_party/ST/STM32L4xx_HAL_Driver/Src\stm32l4xx_hal_rcc_ex.c ****       {
1952:E:/LiteOS/LiteOS_Lab/drivers/third_party/ST/STM32L4xx_HAL_Driver/Src\stm32l4xx_hal_rcc_ex.c ****         frequency = HAL_RCC_GetPCLK1Freq();
1953:E:/LiteOS/LiteOS_Lab/drivers/third_party/ST/STM32L4xx_HAL_Driver/Src\stm32l4xx_hal_rcc_ex.c ****       }
ARM GAS  C:\Users\user\AppData\Local\Temp\ccsJwa9Q.s 			page 53


1954:E:/LiteOS/LiteOS_Lab/drivers/third_party/ST/STM32L4xx_HAL_Driver/Src\stm32l4xx_hal_rcc_ex.c ****       else if(srcclk == RCC_I2C4CLKSOURCE_SYSCLK)
1955:E:/LiteOS/LiteOS_Lab/drivers/third_party/ST/STM32L4xx_HAL_Driver/Src\stm32l4xx_hal_rcc_ex.c ****       {
1956:E:/LiteOS/LiteOS_Lab/drivers/third_party/ST/STM32L4xx_HAL_Driver/Src\stm32l4xx_hal_rcc_ex.c ****         frequency = HAL_RCC_GetSysClockFreq();
1957:E:/LiteOS/LiteOS_Lab/drivers/third_party/ST/STM32L4xx_HAL_Driver/Src\stm32l4xx_hal_rcc_ex.c ****       }
1958:E:/LiteOS/LiteOS_Lab/drivers/third_party/ST/STM32L4xx_HAL_Driver/Src\stm32l4xx_hal_rcc_ex.c ****       else if((srcclk == RCC_I2C4CLKSOURCE_HSI) && (HAL_IS_BIT_SET(RCC->CR, RCC_CR_HSIRDY)))
1959:E:/LiteOS/LiteOS_Lab/drivers/third_party/ST/STM32L4xx_HAL_Driver/Src\stm32l4xx_hal_rcc_ex.c ****       {
1960:E:/LiteOS/LiteOS_Lab/drivers/third_party/ST/STM32L4xx_HAL_Driver/Src\stm32l4xx_hal_rcc_ex.c ****         frequency = HSI_VALUE;
1961:E:/LiteOS/LiteOS_Lab/drivers/third_party/ST/STM32L4xx_HAL_Driver/Src\stm32l4xx_hal_rcc_ex.c ****       }
1962:E:/LiteOS/LiteOS_Lab/drivers/third_party/ST/STM32L4xx_HAL_Driver/Src\stm32l4xx_hal_rcc_ex.c ****       /* Clock not enabled for I2C4 */
1963:E:/LiteOS/LiteOS_Lab/drivers/third_party/ST/STM32L4xx_HAL_Driver/Src\stm32l4xx_hal_rcc_ex.c ****       else
1964:E:/LiteOS/LiteOS_Lab/drivers/third_party/ST/STM32L4xx_HAL_Driver/Src\stm32l4xx_hal_rcc_ex.c ****       {
1965:E:/LiteOS/LiteOS_Lab/drivers/third_party/ST/STM32L4xx_HAL_Driver/Src\stm32l4xx_hal_rcc_ex.c ****         frequency = 0U;
1966:E:/LiteOS/LiteOS_Lab/drivers/third_party/ST/STM32L4xx_HAL_Driver/Src\stm32l4xx_hal_rcc_ex.c ****       }
1967:E:/LiteOS/LiteOS_Lab/drivers/third_party/ST/STM32L4xx_HAL_Driver/Src\stm32l4xx_hal_rcc_ex.c ****       break;
1968:E:/LiteOS/LiteOS_Lab/drivers/third_party/ST/STM32L4xx_HAL_Driver/Src\stm32l4xx_hal_rcc_ex.c **** 
1969:E:/LiteOS/LiteOS_Lab/drivers/third_party/ST/STM32L4xx_HAL_Driver/Src\stm32l4xx_hal_rcc_ex.c **** #endif /* I2C4 */
1970:E:/LiteOS/LiteOS_Lab/drivers/third_party/ST/STM32L4xx_HAL_Driver/Src\stm32l4xx_hal_rcc_ex.c **** 
1971:E:/LiteOS/LiteOS_Lab/drivers/third_party/ST/STM32L4xx_HAL_Driver/Src\stm32l4xx_hal_rcc_ex.c ****     case RCC_PERIPHCLK_LPTIM1:
1972:E:/LiteOS/LiteOS_Lab/drivers/third_party/ST/STM32L4xx_HAL_Driver/Src\stm32l4xx_hal_rcc_ex.c ****       /* Get the current LPTIM1 source */
1973:E:/LiteOS/LiteOS_Lab/drivers/third_party/ST/STM32L4xx_HAL_Driver/Src\stm32l4xx_hal_rcc_ex.c ****       srcclk = __HAL_RCC_GET_LPTIM1_SOURCE();
1974:E:/LiteOS/LiteOS_Lab/drivers/third_party/ST/STM32L4xx_HAL_Driver/Src\stm32l4xx_hal_rcc_ex.c **** 
1975:E:/LiteOS/LiteOS_Lab/drivers/third_party/ST/STM32L4xx_HAL_Driver/Src\stm32l4xx_hal_rcc_ex.c ****       if(srcclk == RCC_LPTIM1CLKSOURCE_PCLK1)
1976:E:/LiteOS/LiteOS_Lab/drivers/third_party/ST/STM32L4xx_HAL_Driver/Src\stm32l4xx_hal_rcc_ex.c ****       {
1977:E:/LiteOS/LiteOS_Lab/drivers/third_party/ST/STM32L4xx_HAL_Driver/Src\stm32l4xx_hal_rcc_ex.c ****         frequency = HAL_RCC_GetPCLK1Freq();
1978:E:/LiteOS/LiteOS_Lab/drivers/third_party/ST/STM32L4xx_HAL_Driver/Src\stm32l4xx_hal_rcc_ex.c ****       }
1979:E:/LiteOS/LiteOS_Lab/drivers/third_party/ST/STM32L4xx_HAL_Driver/Src\stm32l4xx_hal_rcc_ex.c ****       else if((srcclk == RCC_LPTIM1CLKSOURCE_LSI) && (HAL_IS_BIT_SET(RCC->CSR, RCC_CSR_LSIRDY)))
1980:E:/LiteOS/LiteOS_Lab/drivers/third_party/ST/STM32L4xx_HAL_Driver/Src\stm32l4xx_hal_rcc_ex.c ****       {
1981:E:/LiteOS/LiteOS_Lab/drivers/third_party/ST/STM32L4xx_HAL_Driver/Src\stm32l4xx_hal_rcc_ex.c ****         frequency = LSI_VALUE;
1982:E:/LiteOS/LiteOS_Lab/drivers/third_party/ST/STM32L4xx_HAL_Driver/Src\stm32l4xx_hal_rcc_ex.c ****       }
1983:E:/LiteOS/LiteOS_Lab/drivers/third_party/ST/STM32L4xx_HAL_Driver/Src\stm32l4xx_hal_rcc_ex.c ****       else if((srcclk == RCC_LPTIM1CLKSOURCE_HSI) && (HAL_IS_BIT_SET(RCC->CR, RCC_CR_HSIRDY)))
1984:E:/LiteOS/LiteOS_Lab/drivers/third_party/ST/STM32L4xx_HAL_Driver/Src\stm32l4xx_hal_rcc_ex.c ****       {
1985:E:/LiteOS/LiteOS_Lab/drivers/third_party/ST/STM32L4xx_HAL_Driver/Src\stm32l4xx_hal_rcc_ex.c ****         frequency = HSI_VALUE;
1986:E:/LiteOS/LiteOS_Lab/drivers/third_party/ST/STM32L4xx_HAL_Driver/Src\stm32l4xx_hal_rcc_ex.c ****       }
1987:E:/LiteOS/LiteOS_Lab/drivers/third_party/ST/STM32L4xx_HAL_Driver/Src\stm32l4xx_hal_rcc_ex.c ****       else if ((srcclk == RCC_LPTIM1CLKSOURCE_LSE) && (HAL_IS_BIT_SET(RCC->BDCR, RCC_BDCR_LSERDY)))
1988:E:/LiteOS/LiteOS_Lab/drivers/third_party/ST/STM32L4xx_HAL_Driver/Src\stm32l4xx_hal_rcc_ex.c ****       {
1989:E:/LiteOS/LiteOS_Lab/drivers/third_party/ST/STM32L4xx_HAL_Driver/Src\stm32l4xx_hal_rcc_ex.c ****         frequency = LSE_VALUE;
1990:E:/LiteOS/LiteOS_Lab/drivers/third_party/ST/STM32L4xx_HAL_Driver/Src\stm32l4xx_hal_rcc_ex.c ****       }
1991:E:/LiteOS/LiteOS_Lab/drivers/third_party/ST/STM32L4xx_HAL_Driver/Src\stm32l4xx_hal_rcc_ex.c ****       /* Clock not enabled for LPTIM1 */
1992:E:/LiteOS/LiteOS_Lab/drivers/third_party/ST/STM32L4xx_HAL_Driver/Src\stm32l4xx_hal_rcc_ex.c ****       else
1993:E:/LiteOS/LiteOS_Lab/drivers/third_party/ST/STM32L4xx_HAL_Driver/Src\stm32l4xx_hal_rcc_ex.c ****       {
1994:E:/LiteOS/LiteOS_Lab/drivers/third_party/ST/STM32L4xx_HAL_Driver/Src\stm32l4xx_hal_rcc_ex.c ****         frequency = 0U;
1995:E:/LiteOS/LiteOS_Lab/drivers/third_party/ST/STM32L4xx_HAL_Driver/Src\stm32l4xx_hal_rcc_ex.c ****       }
1996:E:/LiteOS/LiteOS_Lab/drivers/third_party/ST/STM32L4xx_HAL_Driver/Src\stm32l4xx_hal_rcc_ex.c ****       break;
1997:E:/LiteOS/LiteOS_Lab/drivers/third_party/ST/STM32L4xx_HAL_Driver/Src\stm32l4xx_hal_rcc_ex.c **** 
1998:E:/LiteOS/LiteOS_Lab/drivers/third_party/ST/STM32L4xx_HAL_Driver/Src\stm32l4xx_hal_rcc_ex.c ****     case RCC_PERIPHCLK_LPTIM2:
1999:E:/LiteOS/LiteOS_Lab/drivers/third_party/ST/STM32L4xx_HAL_Driver/Src\stm32l4xx_hal_rcc_ex.c ****       /* Get the current LPTIM2 source */
2000:E:/LiteOS/LiteOS_Lab/drivers/third_party/ST/STM32L4xx_HAL_Driver/Src\stm32l4xx_hal_rcc_ex.c ****       srcclk = __HAL_RCC_GET_LPTIM2_SOURCE();
2001:E:/LiteOS/LiteOS_Lab/drivers/third_party/ST/STM32L4xx_HAL_Driver/Src\stm32l4xx_hal_rcc_ex.c **** 
2002:E:/LiteOS/LiteOS_Lab/drivers/third_party/ST/STM32L4xx_HAL_Driver/Src\stm32l4xx_hal_rcc_ex.c ****       if(srcclk == RCC_LPTIM2CLKSOURCE_PCLK1)
2003:E:/LiteOS/LiteOS_Lab/drivers/third_party/ST/STM32L4xx_HAL_Driver/Src\stm32l4xx_hal_rcc_ex.c ****       {
2004:E:/LiteOS/LiteOS_Lab/drivers/third_party/ST/STM32L4xx_HAL_Driver/Src\stm32l4xx_hal_rcc_ex.c ****         frequency = HAL_RCC_GetPCLK1Freq();
2005:E:/LiteOS/LiteOS_Lab/drivers/third_party/ST/STM32L4xx_HAL_Driver/Src\stm32l4xx_hal_rcc_ex.c ****       }
2006:E:/LiteOS/LiteOS_Lab/drivers/third_party/ST/STM32L4xx_HAL_Driver/Src\stm32l4xx_hal_rcc_ex.c ****       else if((srcclk == RCC_LPTIM2CLKSOURCE_LSI) && (HAL_IS_BIT_SET(RCC->CSR, RCC_CSR_LSIRDY)))
2007:E:/LiteOS/LiteOS_Lab/drivers/third_party/ST/STM32L4xx_HAL_Driver/Src\stm32l4xx_hal_rcc_ex.c ****       {
2008:E:/LiteOS/LiteOS_Lab/drivers/third_party/ST/STM32L4xx_HAL_Driver/Src\stm32l4xx_hal_rcc_ex.c ****         frequency = LSI_VALUE;
2009:E:/LiteOS/LiteOS_Lab/drivers/third_party/ST/STM32L4xx_HAL_Driver/Src\stm32l4xx_hal_rcc_ex.c ****       }
2010:E:/LiteOS/LiteOS_Lab/drivers/third_party/ST/STM32L4xx_HAL_Driver/Src\stm32l4xx_hal_rcc_ex.c ****       else if((srcclk == RCC_LPTIM2CLKSOURCE_HSI) && (HAL_IS_BIT_SET(RCC->CR, RCC_CR_HSIRDY)))
ARM GAS  C:\Users\user\AppData\Local\Temp\ccsJwa9Q.s 			page 54


2011:E:/LiteOS/LiteOS_Lab/drivers/third_party/ST/STM32L4xx_HAL_Driver/Src\stm32l4xx_hal_rcc_ex.c ****       {
2012:E:/LiteOS/LiteOS_Lab/drivers/third_party/ST/STM32L4xx_HAL_Driver/Src\stm32l4xx_hal_rcc_ex.c ****         frequency = HSI_VALUE;
2013:E:/LiteOS/LiteOS_Lab/drivers/third_party/ST/STM32L4xx_HAL_Driver/Src\stm32l4xx_hal_rcc_ex.c ****       }
2014:E:/LiteOS/LiteOS_Lab/drivers/third_party/ST/STM32L4xx_HAL_Driver/Src\stm32l4xx_hal_rcc_ex.c ****       else if ((srcclk == RCC_LPTIM2CLKSOURCE_LSE) && (HAL_IS_BIT_SET(RCC->BDCR, RCC_BDCR_LSERDY)))
2015:E:/LiteOS/LiteOS_Lab/drivers/third_party/ST/STM32L4xx_HAL_Driver/Src\stm32l4xx_hal_rcc_ex.c ****       {
2016:E:/LiteOS/LiteOS_Lab/drivers/third_party/ST/STM32L4xx_HAL_Driver/Src\stm32l4xx_hal_rcc_ex.c ****         frequency = LSE_VALUE;
2017:E:/LiteOS/LiteOS_Lab/drivers/third_party/ST/STM32L4xx_HAL_Driver/Src\stm32l4xx_hal_rcc_ex.c ****       }
2018:E:/LiteOS/LiteOS_Lab/drivers/third_party/ST/STM32L4xx_HAL_Driver/Src\stm32l4xx_hal_rcc_ex.c ****       /* Clock not enabled for LPTIM2 */
2019:E:/LiteOS/LiteOS_Lab/drivers/third_party/ST/STM32L4xx_HAL_Driver/Src\stm32l4xx_hal_rcc_ex.c ****       else
2020:E:/LiteOS/LiteOS_Lab/drivers/third_party/ST/STM32L4xx_HAL_Driver/Src\stm32l4xx_hal_rcc_ex.c ****       {
2021:E:/LiteOS/LiteOS_Lab/drivers/third_party/ST/STM32L4xx_HAL_Driver/Src\stm32l4xx_hal_rcc_ex.c ****         frequency = 0U;
2022:E:/LiteOS/LiteOS_Lab/drivers/third_party/ST/STM32L4xx_HAL_Driver/Src\stm32l4xx_hal_rcc_ex.c ****       }
2023:E:/LiteOS/LiteOS_Lab/drivers/third_party/ST/STM32L4xx_HAL_Driver/Src\stm32l4xx_hal_rcc_ex.c ****       break;
2024:E:/LiteOS/LiteOS_Lab/drivers/third_party/ST/STM32L4xx_HAL_Driver/Src\stm32l4xx_hal_rcc_ex.c **** 
2025:E:/LiteOS/LiteOS_Lab/drivers/third_party/ST/STM32L4xx_HAL_Driver/Src\stm32l4xx_hal_rcc_ex.c **** #if defined(SWPMI1)
2026:E:/LiteOS/LiteOS_Lab/drivers/third_party/ST/STM32L4xx_HAL_Driver/Src\stm32l4xx_hal_rcc_ex.c **** 
2027:E:/LiteOS/LiteOS_Lab/drivers/third_party/ST/STM32L4xx_HAL_Driver/Src\stm32l4xx_hal_rcc_ex.c ****     case RCC_PERIPHCLK_SWPMI1:
2028:E:/LiteOS/LiteOS_Lab/drivers/third_party/ST/STM32L4xx_HAL_Driver/Src\stm32l4xx_hal_rcc_ex.c ****       /* Get the current SWPMI1 source */
2029:E:/LiteOS/LiteOS_Lab/drivers/third_party/ST/STM32L4xx_HAL_Driver/Src\stm32l4xx_hal_rcc_ex.c ****       srcclk = __HAL_RCC_GET_SWPMI1_SOURCE();
2030:E:/LiteOS/LiteOS_Lab/drivers/third_party/ST/STM32L4xx_HAL_Driver/Src\stm32l4xx_hal_rcc_ex.c **** 
2031:E:/LiteOS/LiteOS_Lab/drivers/third_party/ST/STM32L4xx_HAL_Driver/Src\stm32l4xx_hal_rcc_ex.c ****       if(srcclk == RCC_SWPMI1CLKSOURCE_PCLK1)
2032:E:/LiteOS/LiteOS_Lab/drivers/third_party/ST/STM32L4xx_HAL_Driver/Src\stm32l4xx_hal_rcc_ex.c ****       {
2033:E:/LiteOS/LiteOS_Lab/drivers/third_party/ST/STM32L4xx_HAL_Driver/Src\stm32l4xx_hal_rcc_ex.c ****         frequency = HAL_RCC_GetPCLK1Freq();
2034:E:/LiteOS/LiteOS_Lab/drivers/third_party/ST/STM32L4xx_HAL_Driver/Src\stm32l4xx_hal_rcc_ex.c ****       }
2035:E:/LiteOS/LiteOS_Lab/drivers/third_party/ST/STM32L4xx_HAL_Driver/Src\stm32l4xx_hal_rcc_ex.c ****       else if((srcclk == RCC_SWPMI1CLKSOURCE_HSI) && (HAL_IS_BIT_SET(RCC->CR, RCC_CR_HSIRDY)))
2036:E:/LiteOS/LiteOS_Lab/drivers/third_party/ST/STM32L4xx_HAL_Driver/Src\stm32l4xx_hal_rcc_ex.c ****       {
2037:E:/LiteOS/LiteOS_Lab/drivers/third_party/ST/STM32L4xx_HAL_Driver/Src\stm32l4xx_hal_rcc_ex.c ****         frequency = HSI_VALUE;
2038:E:/LiteOS/LiteOS_Lab/drivers/third_party/ST/STM32L4xx_HAL_Driver/Src\stm32l4xx_hal_rcc_ex.c ****       }
2039:E:/LiteOS/LiteOS_Lab/drivers/third_party/ST/STM32L4xx_HAL_Driver/Src\stm32l4xx_hal_rcc_ex.c ****       /* Clock not enabled for SWPMI1 */
2040:E:/LiteOS/LiteOS_Lab/drivers/third_party/ST/STM32L4xx_HAL_Driver/Src\stm32l4xx_hal_rcc_ex.c ****       else
2041:E:/LiteOS/LiteOS_Lab/drivers/third_party/ST/STM32L4xx_HAL_Driver/Src\stm32l4xx_hal_rcc_ex.c ****       {
2042:E:/LiteOS/LiteOS_Lab/drivers/third_party/ST/STM32L4xx_HAL_Driver/Src\stm32l4xx_hal_rcc_ex.c ****         frequency = 0U;
2043:E:/LiteOS/LiteOS_Lab/drivers/third_party/ST/STM32L4xx_HAL_Driver/Src\stm32l4xx_hal_rcc_ex.c ****       }
2044:E:/LiteOS/LiteOS_Lab/drivers/third_party/ST/STM32L4xx_HAL_Driver/Src\stm32l4xx_hal_rcc_ex.c ****       break;
2045:E:/LiteOS/LiteOS_Lab/drivers/third_party/ST/STM32L4xx_HAL_Driver/Src\stm32l4xx_hal_rcc_ex.c **** 
2046:E:/LiteOS/LiteOS_Lab/drivers/third_party/ST/STM32L4xx_HAL_Driver/Src\stm32l4xx_hal_rcc_ex.c **** #endif /* SWPMI1 */
2047:E:/LiteOS/LiteOS_Lab/drivers/third_party/ST/STM32L4xx_HAL_Driver/Src\stm32l4xx_hal_rcc_ex.c **** 
2048:E:/LiteOS/LiteOS_Lab/drivers/third_party/ST/STM32L4xx_HAL_Driver/Src\stm32l4xx_hal_rcc_ex.c **** #if defined(OCTOSPI1) || defined(OCTOSPI2)
2049:E:/LiteOS/LiteOS_Lab/drivers/third_party/ST/STM32L4xx_HAL_Driver/Src\stm32l4xx_hal_rcc_ex.c **** 
2050:E:/LiteOS/LiteOS_Lab/drivers/third_party/ST/STM32L4xx_HAL_Driver/Src\stm32l4xx_hal_rcc_ex.c ****     case RCC_PERIPHCLK_OSPI:
2051:E:/LiteOS/LiteOS_Lab/drivers/third_party/ST/STM32L4xx_HAL_Driver/Src\stm32l4xx_hal_rcc_ex.c ****       /* Get the current OctoSPI clock source */
2052:E:/LiteOS/LiteOS_Lab/drivers/third_party/ST/STM32L4xx_HAL_Driver/Src\stm32l4xx_hal_rcc_ex.c ****       srcclk = __HAL_RCC_GET_OSPI_SOURCE();
2053:E:/LiteOS/LiteOS_Lab/drivers/third_party/ST/STM32L4xx_HAL_Driver/Src\stm32l4xx_hal_rcc_ex.c **** 
2054:E:/LiteOS/LiteOS_Lab/drivers/third_party/ST/STM32L4xx_HAL_Driver/Src\stm32l4xx_hal_rcc_ex.c ****       if(srcclk == RCC_OSPICLKSOURCE_SYSCLK)
2055:E:/LiteOS/LiteOS_Lab/drivers/third_party/ST/STM32L4xx_HAL_Driver/Src\stm32l4xx_hal_rcc_ex.c ****       {
2056:E:/LiteOS/LiteOS_Lab/drivers/third_party/ST/STM32L4xx_HAL_Driver/Src\stm32l4xx_hal_rcc_ex.c ****         frequency = HAL_RCC_GetSysClockFreq();
2057:E:/LiteOS/LiteOS_Lab/drivers/third_party/ST/STM32L4xx_HAL_Driver/Src\stm32l4xx_hal_rcc_ex.c ****       }
2058:E:/LiteOS/LiteOS_Lab/drivers/third_party/ST/STM32L4xx_HAL_Driver/Src\stm32l4xx_hal_rcc_ex.c ****       else if((srcclk == RCC_OSPICLKSOURCE_MSI) && (HAL_IS_BIT_SET(RCC->CR, RCC_CR_MSIRDY)))
2059:E:/LiteOS/LiteOS_Lab/drivers/third_party/ST/STM32L4xx_HAL_Driver/Src\stm32l4xx_hal_rcc_ex.c ****       {
2060:E:/LiteOS/LiteOS_Lab/drivers/third_party/ST/STM32L4xx_HAL_Driver/Src\stm32l4xx_hal_rcc_ex.c ****         /*MSI frequency range in HZ*/
2061:E:/LiteOS/LiteOS_Lab/drivers/third_party/ST/STM32L4xx_HAL_Driver/Src\stm32l4xx_hal_rcc_ex.c ****         frequency = MSIRangeTable[(__HAL_RCC_GET_MSI_RANGE() >> 4U)];
2062:E:/LiteOS/LiteOS_Lab/drivers/third_party/ST/STM32L4xx_HAL_Driver/Src\stm32l4xx_hal_rcc_ex.c ****       }
2063:E:/LiteOS/LiteOS_Lab/drivers/third_party/ST/STM32L4xx_HAL_Driver/Src\stm32l4xx_hal_rcc_ex.c ****       else if(srcclk == RCC_OSPICLKSOURCE_PLL)
2064:E:/LiteOS/LiteOS_Lab/drivers/third_party/ST/STM32L4xx_HAL_Driver/Src\stm32l4xx_hal_rcc_ex.c ****       {
2065:E:/LiteOS/LiteOS_Lab/drivers/third_party/ST/STM32L4xx_HAL_Driver/Src\stm32l4xx_hal_rcc_ex.c ****         if(HAL_IS_BIT_SET(RCC->CR, RCC_CR_PLLRDY) && HAL_IS_BIT_SET(RCC->PLLCFGR, RCC_PLLCFGR_PLLQE
2066:E:/LiteOS/LiteOS_Lab/drivers/third_party/ST/STM32L4xx_HAL_Driver/Src\stm32l4xx_hal_rcc_ex.c ****         {
2067:E:/LiteOS/LiteOS_Lab/drivers/third_party/ST/STM32L4xx_HAL_Driver/Src\stm32l4xx_hal_rcc_ex.c ****           /* f(PLL Source) / PLLM */
ARM GAS  C:\Users\user\AppData\Local\Temp\ccsJwa9Q.s 			page 55


2068:E:/LiteOS/LiteOS_Lab/drivers/third_party/ST/STM32L4xx_HAL_Driver/Src\stm32l4xx_hal_rcc_ex.c ****           pllvco = (pllvco / ((READ_BIT(RCC->PLLCFGR, RCC_PLLCFGR_PLLM) >> RCC_PLLCFGR_PLLM_Pos) + 
2069:E:/LiteOS/LiteOS_Lab/drivers/third_party/ST/STM32L4xx_HAL_Driver/Src\stm32l4xx_hal_rcc_ex.c ****           /* f(PLL48M1CLK) = f(VCO input) * PLLN / PLLQ */
2070:E:/LiteOS/LiteOS_Lab/drivers/third_party/ST/STM32L4xx_HAL_Driver/Src\stm32l4xx_hal_rcc_ex.c ****           plln = READ_BIT(RCC->PLLCFGR, RCC_PLLCFGR_PLLN) >> RCC_PLLCFGR_PLLN_Pos;
2071:E:/LiteOS/LiteOS_Lab/drivers/third_party/ST/STM32L4xx_HAL_Driver/Src\stm32l4xx_hal_rcc_ex.c ****           frequency = (pllvco * plln) / (((READ_BIT(RCC->PLLCFGR, RCC_PLLCFGR_PLLQ) >> RCC_PLLCFGR_
2072:E:/LiteOS/LiteOS_Lab/drivers/third_party/ST/STM32L4xx_HAL_Driver/Src\stm32l4xx_hal_rcc_ex.c ****         }
2073:E:/LiteOS/LiteOS_Lab/drivers/third_party/ST/STM32L4xx_HAL_Driver/Src\stm32l4xx_hal_rcc_ex.c ****         else
2074:E:/LiteOS/LiteOS_Lab/drivers/third_party/ST/STM32L4xx_HAL_Driver/Src\stm32l4xx_hal_rcc_ex.c ****         {
2075:E:/LiteOS/LiteOS_Lab/drivers/third_party/ST/STM32L4xx_HAL_Driver/Src\stm32l4xx_hal_rcc_ex.c ****           frequency = 0U;
2076:E:/LiteOS/LiteOS_Lab/drivers/third_party/ST/STM32L4xx_HAL_Driver/Src\stm32l4xx_hal_rcc_ex.c ****         }
2077:E:/LiteOS/LiteOS_Lab/drivers/third_party/ST/STM32L4xx_HAL_Driver/Src\stm32l4xx_hal_rcc_ex.c ****       }
2078:E:/LiteOS/LiteOS_Lab/drivers/third_party/ST/STM32L4xx_HAL_Driver/Src\stm32l4xx_hal_rcc_ex.c ****       /* Clock not enabled for OctoSPI */
2079:E:/LiteOS/LiteOS_Lab/drivers/third_party/ST/STM32L4xx_HAL_Driver/Src\stm32l4xx_hal_rcc_ex.c ****       else
2080:E:/LiteOS/LiteOS_Lab/drivers/third_party/ST/STM32L4xx_HAL_Driver/Src\stm32l4xx_hal_rcc_ex.c ****       {
2081:E:/LiteOS/LiteOS_Lab/drivers/third_party/ST/STM32L4xx_HAL_Driver/Src\stm32l4xx_hal_rcc_ex.c ****         frequency = 0U;
2082:E:/LiteOS/LiteOS_Lab/drivers/third_party/ST/STM32L4xx_HAL_Driver/Src\stm32l4xx_hal_rcc_ex.c ****       }
2083:E:/LiteOS/LiteOS_Lab/drivers/third_party/ST/STM32L4xx_HAL_Driver/Src\stm32l4xx_hal_rcc_ex.c ****       break;
2084:E:/LiteOS/LiteOS_Lab/drivers/third_party/ST/STM32L4xx_HAL_Driver/Src\stm32l4xx_hal_rcc_ex.c **** 
2085:E:/LiteOS/LiteOS_Lab/drivers/third_party/ST/STM32L4xx_HAL_Driver/Src\stm32l4xx_hal_rcc_ex.c **** #endif /* OCTOSPI1 || OCTOSPI2 */
2086:E:/LiteOS/LiteOS_Lab/drivers/third_party/ST/STM32L4xx_HAL_Driver/Src\stm32l4xx_hal_rcc_ex.c **** 
2087:E:/LiteOS/LiteOS_Lab/drivers/third_party/ST/STM32L4xx_HAL_Driver/Src\stm32l4xx_hal_rcc_ex.c ****     default:
2088:E:/LiteOS/LiteOS_Lab/drivers/third_party/ST/STM32L4xx_HAL_Driver/Src\stm32l4xx_hal_rcc_ex.c ****       break;
 1014              		.loc 1 2088 0
 1015 0164 65E3     		b	.L53
 1016              	.L70:
1208:E:/LiteOS/LiteOS_Lab/drivers/third_party/ST/STM32L4xx_HAL_Driver/Src\stm32l4xx_hal_rcc_ex.c ****     {
 1017              		.loc 1 1208 0
 1018 0166 402B     		cmp	r3, #64
 1019 0168 00F05682 		beq	.L73
 1020 016c 802B     		cmp	r3, #128
 1021 016e 00F07982 		beq	.L74
 1022 0172 202B     		cmp	r3, #32
 1023 0174 00F0E081 		beq	.L75
 1024              		.loc 1 2088 0
 1025 0178 5BE3     		b	.L53
 1026              	.L68:
1208:E:/LiteOS/LiteOS_Lab/drivers/third_party/ST/STM32L4xx_HAL_Driver/Src\stm32l4xx_hal_rcc_ex.c ****     {
 1027              		.loc 1 1208 0
 1028 017a B3F5804F 		cmp	r3, #16384
 1029 017e 00F01A82 		beq	.L76
 1030 0182 B3F5804F 		cmp	r3, #16384
 1031 0186 0BD8     		bhi	.L77
 1032 0188 B3F5806F 		cmp	r3, #1024
 1033 018c 00F0F382 		beq	.L78
 1034 0190 B3F5006F 		cmp	r3, #2048
 1035 0194 11D0     		beq	.L79
 1036 0196 B3F5007F 		cmp	r3, #512
 1037 019a 00F0AF82 		beq	.L80
 1038              		.loc 1 2088 0
 1039 019e 48E3     		b	.L53
 1040              	.L77:
1208:E:/LiteOS/LiteOS_Lab/drivers/third_party/ST/STM32L4xx_HAL_Driver/Src\stm32l4xx_hal_rcc_ex.c ****     {
 1041              		.loc 1 1208 0
 1042 01a0 B3F5802F 		cmp	r3, #262144
 1043 01a4 00F0A080 		beq	.L81
 1044 01a8 B3F5002F 		cmp	r3, #524288
 1045 01ac 00F09C80 		beq	.L81
 1046 01b0 B3F5004F 		cmp	r3, #32768
ARM GAS  C:\Users\user\AppData\Local\Temp\ccsJwa9Q.s 			page 56


 1047 01b4 00F01C83 		beq	.L82
 1048              		.loc 1 2088 0
 1049 01b8 3BE3     		b	.L53
 1050              	.L79:
1240:E:/LiteOS/LiteOS_Lab/drivers/third_party/ST/STM32L4xx_HAL_Driver/Src\stm32l4xx_hal_rcc_ex.c ****       {
 1051              		.loc 1 1240 0
 1052 01ba 7B68     		ldr	r3, [r7, #4]
 1053 01bc B3F5006F 		cmp	r3, #2048
 1054 01c0 0BD1     		bne	.L83
1242:E:/LiteOS/LiteOS_Lab/drivers/third_party/ST/STM32L4xx_HAL_Driver/Src\stm32l4xx_hal_rcc_ex.c **** 
 1055              		.loc 1 1242 0
 1056 01c2 434B     		ldr	r3, .L162
 1057 01c4 D3F88830 		ldr	r3, [r3, #136]
 1058 01c8 03F44003 		and	r3, r3, #12582912
 1059 01cc BB61     		str	r3, [r7, #24]
1244:E:/LiteOS/LiteOS_Lab/drivers/third_party/ST/STM32L4xx_HAL_Driver/Src\stm32l4xx_hal_rcc_ex.c ****         {
 1060              		.loc 1 1244 0
 1061 01ce BB69     		ldr	r3, [r7, #24]
 1062 01d0 B3F5400F 		cmp	r3, #12582912
 1063 01d4 01D1     		bne	.L83
1246:E:/LiteOS/LiteOS_Lab/drivers/third_party/ST/STM32L4xx_HAL_Driver/Src\stm32l4xx_hal_rcc_ex.c ****         }
 1064              		.loc 1 1246 0
 1065 01d6 434B     		ldr	r3, .L162+20
 1066 01d8 FB61     		str	r3, [r7, #28]
 1067              	.L83:
1253:E:/LiteOS/LiteOS_Lab/drivers/third_party/ST/STM32L4xx_HAL_Driver/Src\stm32l4xx_hal_rcc_ex.c ****       {
 1068              		.loc 1 1253 0
 1069 01da FB69     		ldr	r3, [r7, #28]
 1070 01dc 002B     		cmp	r3, #0
 1071 01de 40F02583 		bne	.L160
1317:E:/LiteOS/LiteOS_Lab/drivers/third_party/ST/STM32L4xx_HAL_Driver/Src\stm32l4xx_hal_rcc_ex.c ****         {
 1072              		.loc 1 1317 0
 1073 01e2 BB69     		ldr	r3, [r7, #24]
 1074 01e4 B3F5000F 		cmp	r3, #8388608
 1075 01e8 35D1     		bne	.L85
1319:E:/LiteOS/LiteOS_Lab/drivers/third_party/ST/STM32L4xx_HAL_Driver/Src\stm32l4xx_hal_rcc_ex.c ****           {
 1076              		.loc 1 1319 0
 1077 01ea 394B     		ldr	r3, .L162
 1078 01ec DB68     		ldr	r3, [r3, #12]
 1079 01ee 03F48033 		and	r3, r3, #65536
 1080 01f2 002B     		cmp	r3, #0
 1081 01f4 22D0     		beq	.L86
1322:E:/LiteOS/LiteOS_Lab/drivers/third_party/ST/STM32L4xx_HAL_Driver/Src\stm32l4xx_hal_rcc_ex.c **** #if defined(RCC_PLLP_DIV_2_31_SUPPORT)
 1082              		.loc 1 1322 0
 1083 01f6 364B     		ldr	r3, .L162
 1084 01f8 DB68     		ldr	r3, [r3, #12]
 1085 01fa 1B0A     		lsrs	r3, r3, #8
 1086 01fc 03F07F03 		and	r3, r3, #127
 1087 0200 FB60     		str	r3, [r7, #12]
1324:E:/LiteOS/LiteOS_Lab/drivers/third_party/ST/STM32L4xx_HAL_Driver/Src\stm32l4xx_hal_rcc_ex.c **** #endif
 1088              		.loc 1 1324 0
 1089 0202 334B     		ldr	r3, .L162
 1090 0204 DB68     		ldr	r3, [r3, #12]
 1091 0206 DB0E     		lsrs	r3, r3, #27
 1092 0208 03F01F03 		and	r3, r3, #31
 1093 020c 3B61     		str	r3, [r7, #16]
1326:E:/LiteOS/LiteOS_Lab/drivers/third_party/ST/STM32L4xx_HAL_Driver/Src\stm32l4xx_hal_rcc_ex.c ****             {
ARM GAS  C:\Users\user\AppData\Local\Temp\ccsJwa9Q.s 			page 57


 1094              		.loc 1 1326 0
 1095 020e 3B69     		ldr	r3, [r7, #16]
 1096 0210 002B     		cmp	r3, #0
 1097 0212 0AD1     		bne	.L87
1328:E:/LiteOS/LiteOS_Lab/drivers/third_party/ST/STM32L4xx_HAL_Driver/Src\stm32l4xx_hal_rcc_ex.c ****               {
 1098              		.loc 1 1328 0
 1099 0214 2E4B     		ldr	r3, .L162
 1100 0216 DB68     		ldr	r3, [r3, #12]
 1101 0218 03F40033 		and	r3, r3, #131072
 1102 021c 002B     		cmp	r3, #0
 1103 021e 02D0     		beq	.L88
1330:E:/LiteOS/LiteOS_Lab/drivers/third_party/ST/STM32L4xx_HAL_Driver/Src\stm32l4xx_hal_rcc_ex.c ****               }
 1104              		.loc 1 1330 0
 1105 0220 1123     		movs	r3, #17
 1106 0222 3B61     		str	r3, [r7, #16]
 1107 0224 01E0     		b	.L87
 1108              	.L88:
1334:E:/LiteOS/LiteOS_Lab/drivers/third_party/ST/STM32L4xx_HAL_Driver/Src\stm32l4xx_hal_rcc_ex.c ****               }
 1109              		.loc 1 1334 0
 1110 0226 0723     		movs	r3, #7
 1111 0228 3B61     		str	r3, [r7, #16]
 1112              	.L87:
1338:E:/LiteOS/LiteOS_Lab/drivers/third_party/ST/STM32L4xx_HAL_Driver/Src\stm32l4xx_hal_rcc_ex.c ****           }
 1113              		.loc 1 1338 0
 1114 022a 7B69     		ldr	r3, [r7, #20]
 1115 022c FA68     		ldr	r2, [r7, #12]
 1116 022e 02FB03F2 		mul	r2, r2, r3
 1117 0232 3B69     		ldr	r3, [r7, #16]
 1118 0234 B2FBF3F3 		udiv	r3, r2, r3
 1119 0238 FB61     		str	r3, [r7, #28]
1429:E:/LiteOS/LiteOS_Lab/drivers/third_party/ST/STM32L4xx_HAL_Driver/Src\stm32l4xx_hal_rcc_ex.c **** 
 1120              		.loc 1 1429 0
 1121 023a F7E2     		b	.L160
 1122              	.L86:
1340:E:/LiteOS/LiteOS_Lab/drivers/third_party/ST/STM32L4xx_HAL_Driver/Src\stm32l4xx_hal_rcc_ex.c ****           {
 1123              		.loc 1 1340 0
 1124 023c 244B     		ldr	r3, .L162
 1125 023e 1B68     		ldr	r3, [r3]
 1126 0240 03F48063 		and	r3, r3, #1024
 1127 0244 B3F5806F 		cmp	r3, #1024
 1128 0248 02D1     		bne	.L90
1343:E:/LiteOS/LiteOS_Lab/drivers/third_party/ST/STM32L4xx_HAL_Driver/Src\stm32l4xx_hal_rcc_ex.c ****           }
 1129              		.loc 1 1343 0
 1130 024a 244B     		ldr	r3, .L162+12
 1131 024c FB61     		str	r3, [r7, #28]
1429:E:/LiteOS/LiteOS_Lab/drivers/third_party/ST/STM32L4xx_HAL_Driver/Src\stm32l4xx_hal_rcc_ex.c **** 
 1132              		.loc 1 1429 0
 1133 024e EDE2     		b	.L160
 1134              	.L90:
1348:E:/LiteOS/LiteOS_Lab/drivers/third_party/ST/STM32L4xx_HAL_Driver/Src\stm32l4xx_hal_rcc_ex.c ****           }
 1135              		.loc 1 1348 0
 1136 0250 0023     		movs	r3, #0
 1137 0252 FB61     		str	r3, [r7, #28]
1429:E:/LiteOS/LiteOS_Lab/drivers/third_party/ST/STM32L4xx_HAL_Driver/Src\stm32l4xx_hal_rcc_ex.c **** 
 1138              		.loc 1 1429 0
 1139 0254 EAE2     		b	.L160
 1140              	.L85:
ARM GAS  C:\Users\user\AppData\Local\Temp\ccsJwa9Q.s 			page 58


1351:E:/LiteOS/LiteOS_Lab/drivers/third_party/ST/STM32L4xx_HAL_Driver/Src\stm32l4xx_hal_rcc_ex.c ****         {
 1141              		.loc 1 1351 0
 1142 0256 BB69     		ldr	r3, [r7, #24]
 1143 0258 002B     		cmp	r3, #0
 1144 025a 35D1     		bne	.L91
1353:E:/LiteOS/LiteOS_Lab/drivers/third_party/ST/STM32L4xx_HAL_Driver/Src\stm32l4xx_hal_rcc_ex.c ****           {
 1145              		.loc 1 1353 0
 1146 025c 1C4B     		ldr	r3, .L162
 1147 025e 1B69     		ldr	r3, [r3, #16]
 1148 0260 03F48033 		and	r3, r3, #65536
 1149 0264 002B     		cmp	r3, #0
 1150 0266 22D0     		beq	.L92
1360:E:/LiteOS/LiteOS_Lab/drivers/third_party/ST/STM32L4xx_HAL_Driver/Src\stm32l4xx_hal_rcc_ex.c **** #if defined(RCC_PLLSAI1P_DIV_2_31_SUPPORT)
 1151              		.loc 1 1360 0
 1152 0268 194B     		ldr	r3, .L162
 1153 026a 1B69     		ldr	r3, [r3, #16]
 1154 026c 1B0A     		lsrs	r3, r3, #8
 1155 026e 03F07F03 		and	r3, r3, #127
 1156 0272 FB60     		str	r3, [r7, #12]
1362:E:/LiteOS/LiteOS_Lab/drivers/third_party/ST/STM32L4xx_HAL_Driver/Src\stm32l4xx_hal_rcc_ex.c **** #endif
 1157              		.loc 1 1362 0
 1158 0274 164B     		ldr	r3, .L162
 1159 0276 1B69     		ldr	r3, [r3, #16]
 1160 0278 DB0E     		lsrs	r3, r3, #27
 1161 027a 03F01F03 		and	r3, r3, #31
 1162 027e 3B61     		str	r3, [r7, #16]
1364:E:/LiteOS/LiteOS_Lab/drivers/third_party/ST/STM32L4xx_HAL_Driver/Src\stm32l4xx_hal_rcc_ex.c ****             {
 1163              		.loc 1 1364 0
 1164 0280 3B69     		ldr	r3, [r7, #16]
 1165 0282 002B     		cmp	r3, #0
 1166 0284 0AD1     		bne	.L93
1366:E:/LiteOS/LiteOS_Lab/drivers/third_party/ST/STM32L4xx_HAL_Driver/Src\stm32l4xx_hal_rcc_ex.c ****               {
 1167              		.loc 1 1366 0
 1168 0286 124B     		ldr	r3, .L162
 1169 0288 1B69     		ldr	r3, [r3, #16]
 1170 028a 03F40033 		and	r3, r3, #131072
 1171 028e 002B     		cmp	r3, #0
 1172 0290 02D0     		beq	.L94
1368:E:/LiteOS/LiteOS_Lab/drivers/third_party/ST/STM32L4xx_HAL_Driver/Src\stm32l4xx_hal_rcc_ex.c ****               }
 1173              		.loc 1 1368 0
 1174 0292 1123     		movs	r3, #17
 1175 0294 3B61     		str	r3, [r7, #16]
 1176 0296 01E0     		b	.L93
 1177              	.L94:
1372:E:/LiteOS/LiteOS_Lab/drivers/third_party/ST/STM32L4xx_HAL_Driver/Src\stm32l4xx_hal_rcc_ex.c ****               }
 1178              		.loc 1 1372 0
 1179 0298 0723     		movs	r3, #7
 1180 029a 3B61     		str	r3, [r7, #16]
 1181              	.L93:
1376:E:/LiteOS/LiteOS_Lab/drivers/third_party/ST/STM32L4xx_HAL_Driver/Src\stm32l4xx_hal_rcc_ex.c ****           }
 1182              		.loc 1 1376 0
 1183 029c 7B69     		ldr	r3, [r7, #20]
 1184 029e FA68     		ldr	r2, [r7, #12]
 1185 02a0 02FB03F2 		mul	r2, r2, r3
 1186 02a4 3B69     		ldr	r3, [r7, #16]
 1187 02a6 B2FBF3F3 		udiv	r3, r2, r3
 1188 02aa FB61     		str	r3, [r7, #28]
ARM GAS  C:\Users\user\AppData\Local\Temp\ccsJwa9Q.s 			page 59


1429:E:/LiteOS/LiteOS_Lab/drivers/third_party/ST/STM32L4xx_HAL_Driver/Src\stm32l4xx_hal_rcc_ex.c **** 
 1189              		.loc 1 1429 0
 1190 02ac BEE2     		b	.L160
 1191              	.L92:
1378:E:/LiteOS/LiteOS_Lab/drivers/third_party/ST/STM32L4xx_HAL_Driver/Src\stm32l4xx_hal_rcc_ex.c ****           {
 1192              		.loc 1 1378 0
 1193 02ae 084B     		ldr	r3, .L162
 1194 02b0 1B68     		ldr	r3, [r3]
 1195 02b2 03F48063 		and	r3, r3, #1024
 1196 02b6 B3F5806F 		cmp	r3, #1024
 1197 02ba 02D1     		bne	.L96
1381:E:/LiteOS/LiteOS_Lab/drivers/third_party/ST/STM32L4xx_HAL_Driver/Src\stm32l4xx_hal_rcc_ex.c ****           }
 1198              		.loc 1 1381 0
 1199 02bc 074B     		ldr	r3, .L162+12
 1200 02be FB61     		str	r3, [r7, #28]
1429:E:/LiteOS/LiteOS_Lab/drivers/third_party/ST/STM32L4xx_HAL_Driver/Src\stm32l4xx_hal_rcc_ex.c **** 
 1201              		.loc 1 1429 0
 1202 02c0 B4E2     		b	.L160
 1203              	.L96:
1386:E:/LiteOS/LiteOS_Lab/drivers/third_party/ST/STM32L4xx_HAL_Driver/Src\stm32l4xx_hal_rcc_ex.c ****           }
 1204              		.loc 1 1386 0
 1205 02c2 0023     		movs	r3, #0
 1206 02c4 FB61     		str	r3, [r7, #28]
1429:E:/LiteOS/LiteOS_Lab/drivers/third_party/ST/STM32L4xx_HAL_Driver/Src\stm32l4xx_hal_rcc_ex.c **** 
 1207              		.loc 1 1429 0
 1208 02c6 B1E2     		b	.L160
 1209              	.L91:
1426:E:/LiteOS/LiteOS_Lab/drivers/third_party/ST/STM32L4xx_HAL_Driver/Src\stm32l4xx_hal_rcc_ex.c ****         }
 1210              		.loc 1 1426 0
 1211 02c8 0023     		movs	r3, #0
 1212 02ca FB61     		str	r3, [r7, #28]
1429:E:/LiteOS/LiteOS_Lab/drivers/third_party/ST/STM32L4xx_HAL_Driver/Src\stm32l4xx_hal_rcc_ex.c **** 
 1213              		.loc 1 1429 0
 1214 02cc AEE2     		b	.L160
 1215              	.L163:
 1216 02ce 00BF     		.align	2
 1217              	.L162:
 1218 02d0 00100240 		.word	1073876992
 1219 02d4 90D00300 		.word	250000
 1220 02d8 00000000 		.word	MSIRangeTable
 1221 02dc 0024F400 		.word	16000000
 1222 02e0 00127A00 		.word	8000000
 1223 02e4 68FF1F00 		.word	2097000
 1224              	.L81:
1445:E:/LiteOS/LiteOS_Lab/drivers/third_party/ST/STM32L4xx_HAL_Driver/Src\stm32l4xx_hal_rcc_ex.c **** 
 1225              		.loc 1 1445 0
 1226 02e8 A54B     		ldr	r3, .L164
 1227 02ea D3F88830 		ldr	r3, [r3, #136]
 1228 02ee 03F04063 		and	r3, r3, #201326592
 1229 02f2 BB61     		str	r3, [r7, #24]
1447:E:/LiteOS/LiteOS_Lab/drivers/third_party/ST/STM32L4xx_HAL_Driver/Src\stm32l4xx_hal_rcc_ex.c ****       {
 1230              		.loc 1 1447 0
 1231 02f4 BB69     		ldr	r3, [r7, #24]
 1232 02f6 B3F1406F 		cmp	r3, #201326592
 1233 02fa 1FD1     		bne	.L97
1449:E:/LiteOS/LiteOS_Lab/drivers/third_party/ST/STM32L4xx_HAL_Driver/Src\stm32l4xx_hal_rcc_ex.c ****         {
 1234              		.loc 1 1449 0
ARM GAS  C:\Users\user\AppData\Local\Temp\ccsJwa9Q.s 			page 60


 1235 02fc A04B     		ldr	r3, .L164
 1236 02fe 1B68     		ldr	r3, [r3]
 1237 0300 03F00203 		and	r3, r3, #2
 1238 0304 022B     		cmp	r3, #2
 1239 0306 16D1     		bne	.L98
1452:E:/LiteOS/LiteOS_Lab/drivers/third_party/ST/STM32L4xx_HAL_Driver/Src\stm32l4xx_hal_rcc_ex.c ****         }
 1240              		.loc 1 1452 0
 1241 0308 9D4B     		ldr	r3, .L164
 1242 030a 1B68     		ldr	r3, [r3]
 1243 030c 03F00803 		and	r3, r3, #8
 1244 0310 002B     		cmp	r3, #0
 1245 0312 05D0     		beq	.L99
1452:E:/LiteOS/LiteOS_Lab/drivers/third_party/ST/STM32L4xx_HAL_Driver/Src\stm32l4xx_hal_rcc_ex.c ****         }
 1246              		.loc 1 1452 0 is_stmt 0 discriminator 1
 1247 0314 9A4B     		ldr	r3, .L164
 1248 0316 1B68     		ldr	r3, [r3]
 1249 0318 1B09     		lsrs	r3, r3, #4
 1250 031a 03F00F03 		and	r3, r3, #15
 1251 031e 05E0     		b	.L100
 1252              	.L99:
1452:E:/LiteOS/LiteOS_Lab/drivers/third_party/ST/STM32L4xx_HAL_Driver/Src\stm32l4xx_hal_rcc_ex.c ****         }
 1253              		.loc 1 1452 0 discriminator 2
 1254 0320 974B     		ldr	r3, .L164
 1255 0322 D3F89430 		ldr	r3, [r3, #148]
 1256 0326 1B0A     		lsrs	r3, r3, #8
 1257 0328 03F00F03 		and	r3, r3, #15
 1258              	.L100:
1452:E:/LiteOS/LiteOS_Lab/drivers/third_party/ST/STM32L4xx_HAL_Driver/Src\stm32l4xx_hal_rcc_ex.c ****         }
 1259              		.loc 1 1452 0 discriminator 4
 1260 032c 954A     		ldr	r2, .L164+4
 1261 032e 52F82330 		ldr	r3, [r2, r3, lsl #2]
 1262 0332 FB61     		str	r3, [r7, #28]
1508:E:/LiteOS/LiteOS_Lab/drivers/third_party/ST/STM32L4xx_HAL_Driver/Src\stm32l4xx_hal_rcc_ex.c **** 
 1263              		.loc 1 1508 0 is_stmt 1 discriminator 4
 1264 0334 7DE2     		b	.L53
 1265              	.L98:
1456:E:/LiteOS/LiteOS_Lab/drivers/third_party/ST/STM32L4xx_HAL_Driver/Src\stm32l4xx_hal_rcc_ex.c ****         }
 1266              		.loc 1 1456 0
 1267 0336 0023     		movs	r3, #0
 1268 0338 FB61     		str	r3, [r7, #28]
1508:E:/LiteOS/LiteOS_Lab/drivers/third_party/ST/STM32L4xx_HAL_Driver/Src\stm32l4xx_hal_rcc_ex.c **** 
 1269              		.loc 1 1508 0
 1270 033a 7AE2     		b	.L53
 1271              	.L97:
1459:E:/LiteOS/LiteOS_Lab/drivers/third_party/ST/STM32L4xx_HAL_Driver/Src\stm32l4xx_hal_rcc_ex.c ****       {
 1272              		.loc 1 1459 0
 1273 033c BB69     		ldr	r3, [r7, #24]
 1274 033e B3F1006F 		cmp	r3, #134217728
 1275 0342 25D1     		bne	.L103
1461:E:/LiteOS/LiteOS_Lab/drivers/third_party/ST/STM32L4xx_HAL_Driver/Src\stm32l4xx_hal_rcc_ex.c ****         {
 1276              		.loc 1 1461 0
 1277 0344 8E4B     		ldr	r3, .L164
 1278 0346 1B68     		ldr	r3, [r3]
 1279 0348 03F00073 		and	r3, r3, #33554432
 1280 034c B3F1007F 		cmp	r3, #33554432
 1281 0350 1BD1     		bne	.L104
1461:E:/LiteOS/LiteOS_Lab/drivers/third_party/ST/STM32L4xx_HAL_Driver/Src\stm32l4xx_hal_rcc_ex.c ****         {
ARM GAS  C:\Users\user\AppData\Local\Temp\ccsJwa9Q.s 			page 61


 1282              		.loc 1 1461 0 is_stmt 0 discriminator 1
 1283 0352 8B4B     		ldr	r3, .L164
 1284 0354 DB68     		ldr	r3, [r3, #12]
 1285 0356 03F48013 		and	r3, r3, #1048576
 1286 035a B3F5801F 		cmp	r3, #1048576
 1287 035e 14D1     		bne	.L104
1468:E:/LiteOS/LiteOS_Lab/drivers/third_party/ST/STM32L4xx_HAL_Driver/Src\stm32l4xx_hal_rcc_ex.c ****           frequency = (pllvco * plln) / (((READ_BIT(RCC->PLLCFGR, RCC_PLLCFGR_PLLQ) >> RCC_PLLCFGR_
 1288              		.loc 1 1468 0 is_stmt 1
 1289 0360 874B     		ldr	r3, .L164
 1290 0362 DB68     		ldr	r3, [r3, #12]
 1291 0364 1B0A     		lsrs	r3, r3, #8
 1292 0366 03F07F03 		and	r3, r3, #127
 1293 036a FB60     		str	r3, [r7, #12]
1469:E:/LiteOS/LiteOS_Lab/drivers/third_party/ST/STM32L4xx_HAL_Driver/Src\stm32l4xx_hal_rcc_ex.c ****         }
 1294              		.loc 1 1469 0
 1295 036c 7B69     		ldr	r3, [r7, #20]
 1296 036e FA68     		ldr	r2, [r7, #12]
 1297 0370 02FB03F2 		mul	r2, r2, r3
 1298 0374 824B     		ldr	r3, .L164
 1299 0376 DB68     		ldr	r3, [r3, #12]
 1300 0378 5B0D     		lsrs	r3, r3, #21
 1301 037a 03F00303 		and	r3, r3, #3
 1302 037e 0133     		adds	r3, r3, #1
 1303 0380 5B00     		lsls	r3, r3, #1
 1304 0382 B2FBF3F3 		udiv	r3, r2, r3
 1305 0386 FB61     		str	r3, [r7, #28]
 1306 0388 3CE0     		b	.L102
 1307              	.L104:
1473:E:/LiteOS/LiteOS_Lab/drivers/third_party/ST/STM32L4xx_HAL_Driver/Src\stm32l4xx_hal_rcc_ex.c ****         }
 1308              		.loc 1 1473 0
 1309 038a 0023     		movs	r3, #0
 1310 038c FB61     		str	r3, [r7, #28]
1508:E:/LiteOS/LiteOS_Lab/drivers/third_party/ST/STM32L4xx_HAL_Driver/Src\stm32l4xx_hal_rcc_ex.c **** 
 1311              		.loc 1 1508 0
 1312 038e 50E2     		b	.L53
 1313              	.L103:
1476:E:/LiteOS/LiteOS_Lab/drivers/third_party/ST/STM32L4xx_HAL_Driver/Src\stm32l4xx_hal_rcc_ex.c ****       {
 1314              		.loc 1 1476 0
 1315 0390 BB69     		ldr	r3, [r7, #24]
 1316 0392 B3F1806F 		cmp	r3, #67108864
 1317 0396 25D1     		bne	.L106
1478:E:/LiteOS/LiteOS_Lab/drivers/third_party/ST/STM32L4xx_HAL_Driver/Src\stm32l4xx_hal_rcc_ex.c ****         {
 1318              		.loc 1 1478 0
 1319 0398 794B     		ldr	r3, .L164
 1320 039a 1B68     		ldr	r3, [r3]
 1321 039c 03F00063 		and	r3, r3, #134217728
 1322 03a0 B3F1006F 		cmp	r3, #134217728
 1323 03a4 1BD1     		bne	.L107
1478:E:/LiteOS/LiteOS_Lab/drivers/third_party/ST/STM32L4xx_HAL_Driver/Src\stm32l4xx_hal_rcc_ex.c ****         {
 1324              		.loc 1 1478 0 is_stmt 0 discriminator 1
 1325 03a6 764B     		ldr	r3, .L164
 1326 03a8 1B69     		ldr	r3, [r3, #16]
 1327 03aa 03F48013 		and	r3, r3, #1048576
 1328 03ae B3F5801F 		cmp	r3, #1048576
 1329 03b2 14D1     		bne	.L107
1485:E:/LiteOS/LiteOS_Lab/drivers/third_party/ST/STM32L4xx_HAL_Driver/Src\stm32l4xx_hal_rcc_ex.c ****           frequency = (pllvco * plln) / (((READ_BIT(RCC->PLLSAI1CFGR, RCC_PLLSAI1CFGR_PLLSAI1Q) >> 
 1330              		.loc 1 1485 0 is_stmt 1
ARM GAS  C:\Users\user\AppData\Local\Temp\ccsJwa9Q.s 			page 62


 1331 03b4 724B     		ldr	r3, .L164
 1332 03b6 1B69     		ldr	r3, [r3, #16]
 1333 03b8 1B0A     		lsrs	r3, r3, #8
 1334 03ba 03F07F03 		and	r3, r3, #127
 1335 03be FB60     		str	r3, [r7, #12]
1486:E:/LiteOS/LiteOS_Lab/drivers/third_party/ST/STM32L4xx_HAL_Driver/Src\stm32l4xx_hal_rcc_ex.c ****         }
 1336              		.loc 1 1486 0
 1337 03c0 7B69     		ldr	r3, [r7, #20]
 1338 03c2 FA68     		ldr	r2, [r7, #12]
 1339 03c4 02FB03F2 		mul	r2, r2, r3
 1340 03c8 6D4B     		ldr	r3, .L164
 1341 03ca 1B69     		ldr	r3, [r3, #16]
 1342 03cc 5B0D     		lsrs	r3, r3, #21
 1343 03ce 03F00303 		and	r3, r3, #3
 1344 03d2 0133     		adds	r3, r3, #1
 1345 03d4 5B00     		lsls	r3, r3, #1
 1346 03d6 B2FBF3F3 		udiv	r3, r2, r3
 1347 03da FB61     		str	r3, [r7, #28]
 1348 03dc 12E0     		b	.L102
 1349              	.L107:
1490:E:/LiteOS/LiteOS_Lab/drivers/third_party/ST/STM32L4xx_HAL_Driver/Src\stm32l4xx_hal_rcc_ex.c ****         }
 1350              		.loc 1 1490 0
 1351 03de 0023     		movs	r3, #0
 1352 03e0 FB61     		str	r3, [r7, #28]
1508:E:/LiteOS/LiteOS_Lab/drivers/third_party/ST/STM32L4xx_HAL_Driver/Src\stm32l4xx_hal_rcc_ex.c **** 
 1353              		.loc 1 1508 0
 1354 03e2 26E2     		b	.L53
 1355              	.L106:
1494:E:/LiteOS/LiteOS_Lab/drivers/third_party/ST/STM32L4xx_HAL_Driver/Src\stm32l4xx_hal_rcc_ex.c ****       {
 1356              		.loc 1 1494 0
 1357 03e4 BB69     		ldr	r3, [r7, #24]
 1358 03e6 002B     		cmp	r3, #0
 1359 03e8 09D1     		bne	.L109
1494:E:/LiteOS/LiteOS_Lab/drivers/third_party/ST/STM32L4xx_HAL_Driver/Src\stm32l4xx_hal_rcc_ex.c ****       {
 1360              		.loc 1 1494 0 is_stmt 0 discriminator 1
 1361 03ea 654B     		ldr	r3, .L164
 1362 03ec D3F89830 		ldr	r3, [r3, #152]
 1363 03f0 03F00203 		and	r3, r3, #2
 1364 03f4 022B     		cmp	r3, #2
 1365 03f6 02D1     		bne	.L109
1496:E:/LiteOS/LiteOS_Lab/drivers/third_party/ST/STM32L4xx_HAL_Driver/Src\stm32l4xx_hal_rcc_ex.c ****       }
 1366              		.loc 1 1496 0 is_stmt 1
 1367 03f8 634B     		ldr	r3, .L164+8
 1368 03fa FB61     		str	r3, [r7, #28]
 1369 03fc 02E0     		b	.L102
 1370              	.L109:
1500:E:/LiteOS/LiteOS_Lab/drivers/third_party/ST/STM32L4xx_HAL_Driver/Src\stm32l4xx_hal_rcc_ex.c ****       }
 1371              		.loc 1 1500 0
 1372 03fe 0023     		movs	r3, #0
 1373 0400 FB61     		str	r3, [r7, #28]
1508:E:/LiteOS/LiteOS_Lab/drivers/third_party/ST/STM32L4xx_HAL_Driver/Src\stm32l4xx_hal_rcc_ex.c **** 
 1374              		.loc 1 1508 0
 1375 0402 16E2     		b	.L53
 1376              	.L102:
1508:E:/LiteOS/LiteOS_Lab/drivers/third_party/ST/STM32L4xx_HAL_Driver/Src\stm32l4xx_hal_rcc_ex.c **** 
 1377              		.loc 1 1508 0 is_stmt 0 discriminator 3
 1378 0404 15E2     		b	.L53
ARM GAS  C:\Users\user\AppData\Local\Temp\ccsJwa9Q.s 			page 63


 1379              	.L71:
1610:E:/LiteOS/LiteOS_Lab/drivers/third_party/ST/STM32L4xx_HAL_Driver/Src\stm32l4xx_hal_rcc_ex.c **** 
 1380              		.loc 1 1610 0 is_stmt 1
 1381 0406 5E4B     		ldr	r3, .L164
 1382 0408 D3F88830 		ldr	r3, [r3, #136]
 1383 040c 03F00303 		and	r3, r3, #3
 1384 0410 BB61     		str	r3, [r7, #24]
1612:E:/LiteOS/LiteOS_Lab/drivers/third_party/ST/STM32L4xx_HAL_Driver/Src\stm32l4xx_hal_rcc_ex.c ****       {
 1385              		.loc 1 1612 0
 1386 0412 BB69     		ldr	r3, [r7, #24]
 1387 0414 002B     		cmp	r3, #0
 1388 0416 03D1     		bne	.L110
1614:E:/LiteOS/LiteOS_Lab/drivers/third_party/ST/STM32L4xx_HAL_Driver/Src\stm32l4xx_hal_rcc_ex.c ****       }
 1389              		.loc 1 1614 0
 1390 0418 FFF7FEFF 		bl	HAL_RCC_GetPCLK2Freq
 1391 041c F861     		str	r0, [r7, #28]
1633:E:/LiteOS/LiteOS_Lab/drivers/third_party/ST/STM32L4xx_HAL_Driver/Src\stm32l4xx_hal_rcc_ex.c **** 
 1392              		.loc 1 1633 0
 1393 041e 08E2     		b	.L53
 1394              	.L110:
1616:E:/LiteOS/LiteOS_Lab/drivers/third_party/ST/STM32L4xx_HAL_Driver/Src\stm32l4xx_hal_rcc_ex.c ****       {
 1395              		.loc 1 1616 0
 1396 0420 BB69     		ldr	r3, [r7, #24]
 1397 0422 012B     		cmp	r3, #1
 1398 0424 03D1     		bne	.L112
1618:E:/LiteOS/LiteOS_Lab/drivers/third_party/ST/STM32L4xx_HAL_Driver/Src\stm32l4xx_hal_rcc_ex.c ****       }
 1399              		.loc 1 1618 0
 1400 0426 FFF7FEFF 		bl	HAL_RCC_GetSysClockFreq
 1401 042a F861     		str	r0, [r7, #28]
1633:E:/LiteOS/LiteOS_Lab/drivers/third_party/ST/STM32L4xx_HAL_Driver/Src\stm32l4xx_hal_rcc_ex.c **** 
 1402              		.loc 1 1633 0
 1403 042c 01E2     		b	.L53
 1404              	.L112:
1620:E:/LiteOS/LiteOS_Lab/drivers/third_party/ST/STM32L4xx_HAL_Driver/Src\stm32l4xx_hal_rcc_ex.c ****       {
 1405              		.loc 1 1620 0
 1406 042e BB69     		ldr	r3, [r7, #24]
 1407 0430 022B     		cmp	r3, #2
 1408 0432 09D1     		bne	.L113
1620:E:/LiteOS/LiteOS_Lab/drivers/third_party/ST/STM32L4xx_HAL_Driver/Src\stm32l4xx_hal_rcc_ex.c ****       {
 1409              		.loc 1 1620 0 is_stmt 0 discriminator 1
 1410 0434 524B     		ldr	r3, .L164
 1411 0436 1B68     		ldr	r3, [r3]
 1412 0438 03F48063 		and	r3, r3, #1024
 1413 043c B3F5806F 		cmp	r3, #1024
 1414 0440 02D1     		bne	.L113
1622:E:/LiteOS/LiteOS_Lab/drivers/third_party/ST/STM32L4xx_HAL_Driver/Src\stm32l4xx_hal_rcc_ex.c ****       }
 1415              		.loc 1 1622 0 is_stmt 1
 1416 0442 524B     		ldr	r3, .L164+12
 1417 0444 FB61     		str	r3, [r7, #28]
 1418 0446 10E0     		b	.L111
 1419              	.L113:
1624:E:/LiteOS/LiteOS_Lab/drivers/third_party/ST/STM32L4xx_HAL_Driver/Src\stm32l4xx_hal_rcc_ex.c ****       {
 1420              		.loc 1 1624 0
 1421 0448 BB69     		ldr	r3, [r7, #24]
 1422 044a 032B     		cmp	r3, #3
 1423 044c 0AD1     		bne	.L114
1624:E:/LiteOS/LiteOS_Lab/drivers/third_party/ST/STM32L4xx_HAL_Driver/Src\stm32l4xx_hal_rcc_ex.c ****       {
ARM GAS  C:\Users\user\AppData\Local\Temp\ccsJwa9Q.s 			page 64


 1424              		.loc 1 1624 0 is_stmt 0 discriminator 1
 1425 044e 4C4B     		ldr	r3, .L164
 1426 0450 D3F89030 		ldr	r3, [r3, #144]
 1427 0454 03F00203 		and	r3, r3, #2
 1428 0458 022B     		cmp	r3, #2
 1429 045a 03D1     		bne	.L114
1626:E:/LiteOS/LiteOS_Lab/drivers/third_party/ST/STM32L4xx_HAL_Driver/Src\stm32l4xx_hal_rcc_ex.c ****       }
 1430              		.loc 1 1626 0 is_stmt 1
 1431 045c 4FF40043 		mov	r3, #32768
 1432 0460 FB61     		str	r3, [r7, #28]
 1433 0462 02E0     		b	.L111
 1434              	.L114:
1631:E:/LiteOS/LiteOS_Lab/drivers/third_party/ST/STM32L4xx_HAL_Driver/Src\stm32l4xx_hal_rcc_ex.c ****       }
 1435              		.loc 1 1631 0
 1436 0464 0023     		movs	r3, #0
 1437 0466 FB61     		str	r3, [r7, #28]
1633:E:/LiteOS/LiteOS_Lab/drivers/third_party/ST/STM32L4xx_HAL_Driver/Src\stm32l4xx_hal_rcc_ex.c **** 
 1438              		.loc 1 1633 0
 1439 0468 E3E1     		b	.L53
 1440              	.L111:
 1441 046a E2E1     		b	.L53
 1442              	.L72:
1637:E:/LiteOS/LiteOS_Lab/drivers/third_party/ST/STM32L4xx_HAL_Driver/Src\stm32l4xx_hal_rcc_ex.c **** 
 1443              		.loc 1 1637 0
 1444 046c 444B     		ldr	r3, .L164
 1445 046e D3F88830 		ldr	r3, [r3, #136]
 1446 0472 03F00C03 		and	r3, r3, #12
 1447 0476 BB61     		str	r3, [r7, #24]
1639:E:/LiteOS/LiteOS_Lab/drivers/third_party/ST/STM32L4xx_HAL_Driver/Src\stm32l4xx_hal_rcc_ex.c ****       {
 1448              		.loc 1 1639 0
 1449 0478 BB69     		ldr	r3, [r7, #24]
 1450 047a 002B     		cmp	r3, #0
 1451 047c 03D1     		bne	.L115
1641:E:/LiteOS/LiteOS_Lab/drivers/third_party/ST/STM32L4xx_HAL_Driver/Src\stm32l4xx_hal_rcc_ex.c ****       }
 1452              		.loc 1 1641 0
 1453 047e FFF7FEFF 		bl	HAL_RCC_GetPCLK1Freq
 1454 0482 F861     		str	r0, [r7, #28]
1660:E:/LiteOS/LiteOS_Lab/drivers/third_party/ST/STM32L4xx_HAL_Driver/Src\stm32l4xx_hal_rcc_ex.c **** 
 1455              		.loc 1 1660 0
 1456 0484 D5E1     		b	.L53
 1457              	.L115:
1643:E:/LiteOS/LiteOS_Lab/drivers/third_party/ST/STM32L4xx_HAL_Driver/Src\stm32l4xx_hal_rcc_ex.c ****       {
 1458              		.loc 1 1643 0
 1459 0486 BB69     		ldr	r3, [r7, #24]
 1460 0488 042B     		cmp	r3, #4
 1461 048a 03D1     		bne	.L117
1645:E:/LiteOS/LiteOS_Lab/drivers/third_party/ST/STM32L4xx_HAL_Driver/Src\stm32l4xx_hal_rcc_ex.c ****       }
 1462              		.loc 1 1645 0
 1463 048c FFF7FEFF 		bl	HAL_RCC_GetSysClockFreq
 1464 0490 F861     		str	r0, [r7, #28]
1660:E:/LiteOS/LiteOS_Lab/drivers/third_party/ST/STM32L4xx_HAL_Driver/Src\stm32l4xx_hal_rcc_ex.c **** 
 1465              		.loc 1 1660 0
 1466 0492 CEE1     		b	.L53
 1467              	.L117:
1647:E:/LiteOS/LiteOS_Lab/drivers/third_party/ST/STM32L4xx_HAL_Driver/Src\stm32l4xx_hal_rcc_ex.c ****       {
 1468              		.loc 1 1647 0
 1469 0494 BB69     		ldr	r3, [r7, #24]
ARM GAS  C:\Users\user\AppData\Local\Temp\ccsJwa9Q.s 			page 65


 1470 0496 082B     		cmp	r3, #8
 1471 0498 09D1     		bne	.L118
1647:E:/LiteOS/LiteOS_Lab/drivers/third_party/ST/STM32L4xx_HAL_Driver/Src\stm32l4xx_hal_rcc_ex.c ****       {
 1472              		.loc 1 1647 0 is_stmt 0 discriminator 1
 1473 049a 394B     		ldr	r3, .L164
 1474 049c 1B68     		ldr	r3, [r3]
 1475 049e 03F48063 		and	r3, r3, #1024
 1476 04a2 B3F5806F 		cmp	r3, #1024
 1477 04a6 02D1     		bne	.L118
1649:E:/LiteOS/LiteOS_Lab/drivers/third_party/ST/STM32L4xx_HAL_Driver/Src\stm32l4xx_hal_rcc_ex.c ****       }
 1478              		.loc 1 1649 0 is_stmt 1
 1479 04a8 384B     		ldr	r3, .L164+12
 1480 04aa FB61     		str	r3, [r7, #28]
 1481 04ac 10E0     		b	.L116
 1482              	.L118:
1651:E:/LiteOS/LiteOS_Lab/drivers/third_party/ST/STM32L4xx_HAL_Driver/Src\stm32l4xx_hal_rcc_ex.c ****       {
 1483              		.loc 1 1651 0
 1484 04ae BB69     		ldr	r3, [r7, #24]
 1485 04b0 0C2B     		cmp	r3, #12
 1486 04b2 0AD1     		bne	.L119
1651:E:/LiteOS/LiteOS_Lab/drivers/third_party/ST/STM32L4xx_HAL_Driver/Src\stm32l4xx_hal_rcc_ex.c ****       {
 1487              		.loc 1 1651 0 is_stmt 0 discriminator 1
 1488 04b4 324B     		ldr	r3, .L164
 1489 04b6 D3F89030 		ldr	r3, [r3, #144]
 1490 04ba 03F00203 		and	r3, r3, #2
 1491 04be 022B     		cmp	r3, #2
 1492 04c0 03D1     		bne	.L119
1653:E:/LiteOS/LiteOS_Lab/drivers/third_party/ST/STM32L4xx_HAL_Driver/Src\stm32l4xx_hal_rcc_ex.c ****       }
 1493              		.loc 1 1653 0 is_stmt 1
 1494 04c2 4FF40043 		mov	r3, #32768
 1495 04c6 FB61     		str	r3, [r7, #28]
 1496 04c8 02E0     		b	.L116
 1497              	.L119:
1658:E:/LiteOS/LiteOS_Lab/drivers/third_party/ST/STM32L4xx_HAL_Driver/Src\stm32l4xx_hal_rcc_ex.c ****       }
 1498              		.loc 1 1658 0
 1499 04ca 0023     		movs	r3, #0
 1500 04cc FB61     		str	r3, [r7, #28]
1660:E:/LiteOS/LiteOS_Lab/drivers/third_party/ST/STM32L4xx_HAL_Driver/Src\stm32l4xx_hal_rcc_ex.c **** 
 1501              		.loc 1 1660 0
 1502 04ce B0E1     		b	.L53
 1503              	.L116:
 1504 04d0 AFE1     		b	.L53
 1505              	.L69:
1666:E:/LiteOS/LiteOS_Lab/drivers/third_party/ST/STM32L4xx_HAL_Driver/Src\stm32l4xx_hal_rcc_ex.c **** 
 1506              		.loc 1 1666 0
 1507 04d2 2B4B     		ldr	r3, .L164
 1508 04d4 D3F88830 		ldr	r3, [r3, #136]
 1509 04d8 03F03003 		and	r3, r3, #48
 1510 04dc BB61     		str	r3, [r7, #24]
1668:E:/LiteOS/LiteOS_Lab/drivers/third_party/ST/STM32L4xx_HAL_Driver/Src\stm32l4xx_hal_rcc_ex.c ****       {
 1511              		.loc 1 1668 0
 1512 04de BB69     		ldr	r3, [r7, #24]
 1513 04e0 002B     		cmp	r3, #0
 1514 04e2 03D1     		bne	.L120
1670:E:/LiteOS/LiteOS_Lab/drivers/third_party/ST/STM32L4xx_HAL_Driver/Src\stm32l4xx_hal_rcc_ex.c ****       }
 1515              		.loc 1 1670 0
 1516 04e4 FFF7FEFF 		bl	HAL_RCC_GetPCLK1Freq
ARM GAS  C:\Users\user\AppData\Local\Temp\ccsJwa9Q.s 			page 66


 1517 04e8 F861     		str	r0, [r7, #28]
1689:E:/LiteOS/LiteOS_Lab/drivers/third_party/ST/STM32L4xx_HAL_Driver/Src\stm32l4xx_hal_rcc_ex.c **** 
 1518              		.loc 1 1689 0
 1519 04ea A2E1     		b	.L53
 1520              	.L120:
1672:E:/LiteOS/LiteOS_Lab/drivers/third_party/ST/STM32L4xx_HAL_Driver/Src\stm32l4xx_hal_rcc_ex.c ****       {
 1521              		.loc 1 1672 0
 1522 04ec BB69     		ldr	r3, [r7, #24]
 1523 04ee 102B     		cmp	r3, #16
 1524 04f0 03D1     		bne	.L122
1674:E:/LiteOS/LiteOS_Lab/drivers/third_party/ST/STM32L4xx_HAL_Driver/Src\stm32l4xx_hal_rcc_ex.c ****       }
 1525              		.loc 1 1674 0
 1526 04f2 FFF7FEFF 		bl	HAL_RCC_GetSysClockFreq
 1527 04f6 F861     		str	r0, [r7, #28]
1689:E:/LiteOS/LiteOS_Lab/drivers/third_party/ST/STM32L4xx_HAL_Driver/Src\stm32l4xx_hal_rcc_ex.c **** 
 1528              		.loc 1 1689 0
 1529 04f8 9BE1     		b	.L53
 1530              	.L122:
1676:E:/LiteOS/LiteOS_Lab/drivers/third_party/ST/STM32L4xx_HAL_Driver/Src\stm32l4xx_hal_rcc_ex.c ****       {
 1531              		.loc 1 1676 0
 1532 04fa BB69     		ldr	r3, [r7, #24]
 1533 04fc 202B     		cmp	r3, #32
 1534 04fe 09D1     		bne	.L123
1676:E:/LiteOS/LiteOS_Lab/drivers/third_party/ST/STM32L4xx_HAL_Driver/Src\stm32l4xx_hal_rcc_ex.c ****       {
 1535              		.loc 1 1676 0 is_stmt 0 discriminator 1
 1536 0500 1F4B     		ldr	r3, .L164
 1537 0502 1B68     		ldr	r3, [r3]
 1538 0504 03F48063 		and	r3, r3, #1024
 1539 0508 B3F5806F 		cmp	r3, #1024
 1540 050c 02D1     		bne	.L123
1678:E:/LiteOS/LiteOS_Lab/drivers/third_party/ST/STM32L4xx_HAL_Driver/Src\stm32l4xx_hal_rcc_ex.c ****       }
 1541              		.loc 1 1678 0 is_stmt 1
 1542 050e 1F4B     		ldr	r3, .L164+12
 1543 0510 FB61     		str	r3, [r7, #28]
 1544 0512 10E0     		b	.L121
 1545              	.L123:
1680:E:/LiteOS/LiteOS_Lab/drivers/third_party/ST/STM32L4xx_HAL_Driver/Src\stm32l4xx_hal_rcc_ex.c ****       {
 1546              		.loc 1 1680 0
 1547 0514 BB69     		ldr	r3, [r7, #24]
 1548 0516 302B     		cmp	r3, #48
 1549 0518 0AD1     		bne	.L124
1680:E:/LiteOS/LiteOS_Lab/drivers/third_party/ST/STM32L4xx_HAL_Driver/Src\stm32l4xx_hal_rcc_ex.c ****       {
 1550              		.loc 1 1680 0 is_stmt 0 discriminator 1
 1551 051a 194B     		ldr	r3, .L164
 1552 051c D3F89030 		ldr	r3, [r3, #144]
 1553 0520 03F00203 		and	r3, r3, #2
 1554 0524 022B     		cmp	r3, #2
 1555 0526 03D1     		bne	.L124
1682:E:/LiteOS/LiteOS_Lab/drivers/third_party/ST/STM32L4xx_HAL_Driver/Src\stm32l4xx_hal_rcc_ex.c ****       }
 1556              		.loc 1 1682 0 is_stmt 1
 1557 0528 4FF40043 		mov	r3, #32768
 1558 052c FB61     		str	r3, [r7, #28]
 1559 052e 02E0     		b	.L121
 1560              	.L124:
1687:E:/LiteOS/LiteOS_Lab/drivers/third_party/ST/STM32L4xx_HAL_Driver/Src\stm32l4xx_hal_rcc_ex.c ****       }
 1561              		.loc 1 1687 0
 1562 0530 0023     		movs	r3, #0
ARM GAS  C:\Users\user\AppData\Local\Temp\ccsJwa9Q.s 			page 67


 1563 0532 FB61     		str	r3, [r7, #28]
1689:E:/LiteOS/LiteOS_Lab/drivers/third_party/ST/STM32L4xx_HAL_Driver/Src\stm32l4xx_hal_rcc_ex.c **** 
 1564              		.loc 1 1689 0
 1565 0534 7DE1     		b	.L53
 1566              	.L121:
 1567 0536 7CE1     		b	.L53
 1568              	.L75:
1757:E:/LiteOS/LiteOS_Lab/drivers/third_party/ST/STM32L4xx_HAL_Driver/Src\stm32l4xx_hal_rcc_ex.c **** 
 1569              		.loc 1 1757 0
 1570 0538 114B     		ldr	r3, .L164
 1571 053a D3F88830 		ldr	r3, [r3, #136]
 1572 053e 03F44063 		and	r3, r3, #3072
 1573 0542 BB61     		str	r3, [r7, #24]
1759:E:/LiteOS/LiteOS_Lab/drivers/third_party/ST/STM32L4xx_HAL_Driver/Src\stm32l4xx_hal_rcc_ex.c ****       {
 1574              		.loc 1 1759 0
 1575 0544 BB69     		ldr	r3, [r7, #24]
 1576 0546 002B     		cmp	r3, #0
 1577 0548 03D1     		bne	.L125
1761:E:/LiteOS/LiteOS_Lab/drivers/third_party/ST/STM32L4xx_HAL_Driver/Src\stm32l4xx_hal_rcc_ex.c ****       }
 1578              		.loc 1 1761 0
 1579 054a FFF7FEFF 		bl	HAL_RCC_GetPCLK1Freq
 1580 054e F861     		str	r0, [r7, #28]
1780:E:/LiteOS/LiteOS_Lab/drivers/third_party/ST/STM32L4xx_HAL_Driver/Src\stm32l4xx_hal_rcc_ex.c **** 
 1581              		.loc 1 1780 0
 1582 0550 6FE1     		b	.L53
 1583              	.L125:
1763:E:/LiteOS/LiteOS_Lab/drivers/third_party/ST/STM32L4xx_HAL_Driver/Src\stm32l4xx_hal_rcc_ex.c ****       {
 1584              		.loc 1 1763 0
 1585 0552 BB69     		ldr	r3, [r7, #24]
 1586 0554 B3F5806F 		cmp	r3, #1024
 1587 0558 03D1     		bne	.L127
1765:E:/LiteOS/LiteOS_Lab/drivers/third_party/ST/STM32L4xx_HAL_Driver/Src\stm32l4xx_hal_rcc_ex.c ****       }
 1588              		.loc 1 1765 0
 1589 055a FFF7FEFF 		bl	HAL_RCC_GetSysClockFreq
 1590 055e F861     		str	r0, [r7, #28]
1780:E:/LiteOS/LiteOS_Lab/drivers/third_party/ST/STM32L4xx_HAL_Driver/Src\stm32l4xx_hal_rcc_ex.c **** 
 1591              		.loc 1 1780 0
 1592 0560 67E1     		b	.L53
 1593              	.L127:
1767:E:/LiteOS/LiteOS_Lab/drivers/third_party/ST/STM32L4xx_HAL_Driver/Src\stm32l4xx_hal_rcc_ex.c ****       {
 1594              		.loc 1 1767 0
 1595 0562 BB69     		ldr	r3, [r7, #24]
 1596 0564 B3F5006F 		cmp	r3, #2048
 1597 0568 12D1     		bne	.L128
1767:E:/LiteOS/LiteOS_Lab/drivers/third_party/ST/STM32L4xx_HAL_Driver/Src\stm32l4xx_hal_rcc_ex.c ****       {
 1598              		.loc 1 1767 0 is_stmt 0 discriminator 1
 1599 056a 054B     		ldr	r3, .L164
 1600 056c 1B68     		ldr	r3, [r3]
 1601 056e 03F48063 		and	r3, r3, #1024
 1602 0572 B3F5806F 		cmp	r3, #1024
 1603 0576 0BD1     		bne	.L128
1769:E:/LiteOS/LiteOS_Lab/drivers/third_party/ST/STM32L4xx_HAL_Driver/Src\stm32l4xx_hal_rcc_ex.c ****       }
 1604              		.loc 1 1769 0 is_stmt 1
 1605 0578 044B     		ldr	r3, .L164+12
 1606 057a FB61     		str	r3, [r7, #28]
 1607 057c 1AE0     		b	.L126
 1608              	.L165:
ARM GAS  C:\Users\user\AppData\Local\Temp\ccsJwa9Q.s 			page 68


 1609 057e 00BF     		.align	2
 1610              	.L164:
 1611 0580 00100240 		.word	1073876992
 1612 0584 00000000 		.word	MSIRangeTable
 1613 0588 006CDC02 		.word	48000000
 1614 058c 0024F400 		.word	16000000
 1615              	.L128:
1771:E:/LiteOS/LiteOS_Lab/drivers/third_party/ST/STM32L4xx_HAL_Driver/Src\stm32l4xx_hal_rcc_ex.c ****       {
 1616              		.loc 1 1771 0
 1617 0590 BB69     		ldr	r3, [r7, #24]
 1618 0592 B3F5406F 		cmp	r3, #3072
 1619 0596 0AD1     		bne	.L129
1771:E:/LiteOS/LiteOS_Lab/drivers/third_party/ST/STM32L4xx_HAL_Driver/Src\stm32l4xx_hal_rcc_ex.c ****       {
 1620              		.loc 1 1771 0 is_stmt 0 discriminator 1
 1621 0598 A84B     		ldr	r3, .L166
 1622 059a D3F89030 		ldr	r3, [r3, #144]
 1623 059e 03F00203 		and	r3, r3, #2
 1624 05a2 022B     		cmp	r3, #2
 1625 05a4 03D1     		bne	.L129
1773:E:/LiteOS/LiteOS_Lab/drivers/third_party/ST/STM32L4xx_HAL_Driver/Src\stm32l4xx_hal_rcc_ex.c ****       }
 1626              		.loc 1 1773 0 is_stmt 1
 1627 05a6 4FF40043 		mov	r3, #32768
 1628 05aa FB61     		str	r3, [r7, #28]
 1629 05ac 02E0     		b	.L126
 1630              	.L129:
1778:E:/LiteOS/LiteOS_Lab/drivers/third_party/ST/STM32L4xx_HAL_Driver/Src\stm32l4xx_hal_rcc_ex.c ****       }
 1631              		.loc 1 1778 0
 1632 05ae 0023     		movs	r3, #0
 1633 05b0 FB61     		str	r3, [r7, #28]
1780:E:/LiteOS/LiteOS_Lab/drivers/third_party/ST/STM32L4xx_HAL_Driver/Src\stm32l4xx_hal_rcc_ex.c **** 
 1634              		.loc 1 1780 0
 1635 05b2 3EE1     		b	.L53
 1636              	.L126:
 1637 05b4 3DE1     		b	.L53
 1638              	.L76:
1784:E:/LiteOS/LiteOS_Lab/drivers/third_party/ST/STM32L4xx_HAL_Driver/Src\stm32l4xx_hal_rcc_ex.c **** 
 1639              		.loc 1 1784 0
 1640 05b6 A14B     		ldr	r3, .L166
 1641 05b8 D3F88830 		ldr	r3, [r3, #136]
 1642 05bc 03F04053 		and	r3, r3, #805306368
 1643 05c0 BB61     		str	r3, [r7, #24]
1786:E:/LiteOS/LiteOS_Lab/drivers/third_party/ST/STM32L4xx_HAL_Driver/Src\stm32l4xx_hal_rcc_ex.c ****       {
 1644              		.loc 1 1786 0
 1645 05c2 BB69     		ldr	r3, [r7, #24]
 1646 05c4 B3F1405F 		cmp	r3, #805306368
 1647 05c8 03D1     		bne	.L130
1788:E:/LiteOS/LiteOS_Lab/drivers/third_party/ST/STM32L4xx_HAL_Driver/Src\stm32l4xx_hal_rcc_ex.c ****       }
 1648              		.loc 1 1788 0
 1649 05ca FFF7FEFF 		bl	HAL_RCC_GetSysClockFreq
 1650 05ce F861     		str	r0, [r7, #28]
1823:E:/LiteOS/LiteOS_Lab/drivers/third_party/ST/STM32L4xx_HAL_Driver/Src\stm32l4xx_hal_rcc_ex.c **** 
 1651              		.loc 1 1823 0
 1652 05d0 2EE1     		b	.L161
 1653              	.L130:
1790:E:/LiteOS/LiteOS_Lab/drivers/third_party/ST/STM32L4xx_HAL_Driver/Src\stm32l4xx_hal_rcc_ex.c ****       {
 1654              		.loc 1 1790 0
 1655 05d2 BB69     		ldr	r3, [r7, #24]
ARM GAS  C:\Users\user\AppData\Local\Temp\ccsJwa9Q.s 			page 69


 1656 05d4 B3F1805F 		cmp	r3, #268435456
 1657 05d8 1BD1     		bne	.L132
1792:E:/LiteOS/LiteOS_Lab/drivers/third_party/ST/STM32L4xx_HAL_Driver/Src\stm32l4xx_hal_rcc_ex.c ****         {
 1658              		.loc 1 1792 0
 1659 05da 984B     		ldr	r3, .L166
 1660 05dc 1B69     		ldr	r3, [r3, #16]
 1661 05de 03F08073 		and	r3, r3, #16777216
 1662 05e2 002B     		cmp	r3, #0
 1663 05e4 00F02481 		beq	.L161
1799:E:/LiteOS/LiteOS_Lab/drivers/third_party/ST/STM32L4xx_HAL_Driver/Src\stm32l4xx_hal_rcc_ex.c ****           frequency = (pllvco * plln) / (((READ_BIT(RCC->PLLSAI1CFGR, RCC_PLLSAI1CFGR_PLLSAI1R) >> 
 1664              		.loc 1 1799 0
 1665 05e8 944B     		ldr	r3, .L166
 1666 05ea 1B69     		ldr	r3, [r3, #16]
 1667 05ec 1B0A     		lsrs	r3, r3, #8
 1668 05ee 03F07F03 		and	r3, r3, #127
 1669 05f2 FB60     		str	r3, [r7, #12]
1800:E:/LiteOS/LiteOS_Lab/drivers/third_party/ST/STM32L4xx_HAL_Driver/Src\stm32l4xx_hal_rcc_ex.c ****         }
 1670              		.loc 1 1800 0
 1671 05f4 7B69     		ldr	r3, [r7, #20]
 1672 05f6 FA68     		ldr	r2, [r7, #12]
 1673 05f8 02FB03F2 		mul	r2, r2, r3
 1674 05fc 8F4B     		ldr	r3, .L166
 1675 05fe 1B69     		ldr	r3, [r3, #16]
 1676 0600 5B0E     		lsrs	r3, r3, #25
 1677 0602 03F00303 		and	r3, r3, #3
 1678 0606 0133     		adds	r3, r3, #1
 1679 0608 5B00     		lsls	r3, r3, #1
 1680 060a B2FBF3F3 		udiv	r3, r2, r3
 1681 060e FB61     		str	r3, [r7, #28]
1823:E:/LiteOS/LiteOS_Lab/drivers/third_party/ST/STM32L4xx_HAL_Driver/Src\stm32l4xx_hal_rcc_ex.c **** 
 1682              		.loc 1 1823 0
 1683 0610 0EE1     		b	.L161
 1684              	.L132:
1821:E:/LiteOS/LiteOS_Lab/drivers/third_party/ST/STM32L4xx_HAL_Driver/Src\stm32l4xx_hal_rcc_ex.c ****       }
 1685              		.loc 1 1821 0
 1686 0612 0023     		movs	r3, #0
 1687 0614 FB61     		str	r3, [r7, #28]
1823:E:/LiteOS/LiteOS_Lab/drivers/third_party/ST/STM32L4xx_HAL_Driver/Src\stm32l4xx_hal_rcc_ex.c **** 
 1688              		.loc 1 1823 0
 1689 0616 0BE1     		b	.L161
 1690              	.L73:
1873:E:/LiteOS/LiteOS_Lab/drivers/third_party/ST/STM32L4xx_HAL_Driver/Src\stm32l4xx_hal_rcc_ex.c **** 
 1691              		.loc 1 1873 0
 1692 0618 884B     		ldr	r3, .L166
 1693 061a D3F88830 		ldr	r3, [r3, #136]
 1694 061e 03F44053 		and	r3, r3, #12288
 1695 0622 BB61     		str	r3, [r7, #24]
1875:E:/LiteOS/LiteOS_Lab/drivers/third_party/ST/STM32L4xx_HAL_Driver/Src\stm32l4xx_hal_rcc_ex.c ****       {
 1696              		.loc 1 1875 0
 1697 0624 BB69     		ldr	r3, [r7, #24]
 1698 0626 002B     		cmp	r3, #0
 1699 0628 03D1     		bne	.L134
1877:E:/LiteOS/LiteOS_Lab/drivers/third_party/ST/STM32L4xx_HAL_Driver/Src\stm32l4xx_hal_rcc_ex.c ****       }
 1700              		.loc 1 1877 0
 1701 062a FFF7FEFF 		bl	HAL_RCC_GetPCLK1Freq
 1702 062e F861     		str	r0, [r7, #28]
1892:E:/LiteOS/LiteOS_Lab/drivers/third_party/ST/STM32L4xx_HAL_Driver/Src\stm32l4xx_hal_rcc_ex.c **** 
ARM GAS  C:\Users\user\AppData\Local\Temp\ccsJwa9Q.s 			page 70


 1703              		.loc 1 1892 0
 1704 0630 FFE0     		b	.L53
 1705              	.L134:
1879:E:/LiteOS/LiteOS_Lab/drivers/third_party/ST/STM32L4xx_HAL_Driver/Src\stm32l4xx_hal_rcc_ex.c ****       {
 1706              		.loc 1 1879 0
 1707 0632 BB69     		ldr	r3, [r7, #24]
 1708 0634 B3F5805F 		cmp	r3, #4096
 1709 0638 03D1     		bne	.L136
1881:E:/LiteOS/LiteOS_Lab/drivers/third_party/ST/STM32L4xx_HAL_Driver/Src\stm32l4xx_hal_rcc_ex.c ****       }
 1710              		.loc 1 1881 0
 1711 063a FFF7FEFF 		bl	HAL_RCC_GetSysClockFreq
 1712 063e F861     		str	r0, [r7, #28]
1892:E:/LiteOS/LiteOS_Lab/drivers/third_party/ST/STM32L4xx_HAL_Driver/Src\stm32l4xx_hal_rcc_ex.c **** 
 1713              		.loc 1 1892 0
 1714 0640 F7E0     		b	.L53
 1715              	.L136:
1883:E:/LiteOS/LiteOS_Lab/drivers/third_party/ST/STM32L4xx_HAL_Driver/Src\stm32l4xx_hal_rcc_ex.c ****       {
 1716              		.loc 1 1883 0
 1717 0642 BB69     		ldr	r3, [r7, #24]
 1718 0644 B3F5005F 		cmp	r3, #8192
 1719 0648 09D1     		bne	.L137
1883:E:/LiteOS/LiteOS_Lab/drivers/third_party/ST/STM32L4xx_HAL_Driver/Src\stm32l4xx_hal_rcc_ex.c ****       {
 1720              		.loc 1 1883 0 is_stmt 0 discriminator 1
 1721 064a 7C4B     		ldr	r3, .L166
 1722 064c 1B68     		ldr	r3, [r3]
 1723 064e 03F48063 		and	r3, r3, #1024
 1724 0652 B3F5806F 		cmp	r3, #1024
 1725 0656 02D1     		bne	.L137
1885:E:/LiteOS/LiteOS_Lab/drivers/third_party/ST/STM32L4xx_HAL_Driver/Src\stm32l4xx_hal_rcc_ex.c ****       }
 1726              		.loc 1 1885 0 is_stmt 1
 1727 0658 794B     		ldr	r3, .L166+4
 1728 065a FB61     		str	r3, [r7, #28]
1892:E:/LiteOS/LiteOS_Lab/drivers/third_party/ST/STM32L4xx_HAL_Driver/Src\stm32l4xx_hal_rcc_ex.c **** 
 1729              		.loc 1 1892 0
 1730 065c E9E0     		b	.L53
 1731              	.L137:
1890:E:/LiteOS/LiteOS_Lab/drivers/third_party/ST/STM32L4xx_HAL_Driver/Src\stm32l4xx_hal_rcc_ex.c ****       }
 1732              		.loc 1 1890 0
 1733 065e 0023     		movs	r3, #0
 1734 0660 FB61     		str	r3, [r7, #28]
1892:E:/LiteOS/LiteOS_Lab/drivers/third_party/ST/STM32L4xx_HAL_Driver/Src\stm32l4xx_hal_rcc_ex.c **** 
 1735              		.loc 1 1892 0
 1736 0662 E6E0     		b	.L53
 1737              	.L74:
1898:E:/LiteOS/LiteOS_Lab/drivers/third_party/ST/STM32L4xx_HAL_Driver/Src\stm32l4xx_hal_rcc_ex.c **** 
 1738              		.loc 1 1898 0
 1739 0664 754B     		ldr	r3, .L166
 1740 0666 D3F88830 		ldr	r3, [r3, #136]
 1741 066a 03F44043 		and	r3, r3, #49152
 1742 066e BB61     		str	r3, [r7, #24]
1900:E:/LiteOS/LiteOS_Lab/drivers/third_party/ST/STM32L4xx_HAL_Driver/Src\stm32l4xx_hal_rcc_ex.c ****       {
 1743              		.loc 1 1900 0
 1744 0670 BB69     		ldr	r3, [r7, #24]
 1745 0672 002B     		cmp	r3, #0
 1746 0674 03D1     		bne	.L138
1902:E:/LiteOS/LiteOS_Lab/drivers/third_party/ST/STM32L4xx_HAL_Driver/Src\stm32l4xx_hal_rcc_ex.c ****       }
 1747              		.loc 1 1902 0
ARM GAS  C:\Users\user\AppData\Local\Temp\ccsJwa9Q.s 			page 71


 1748 0676 FFF7FEFF 		bl	HAL_RCC_GetPCLK1Freq
 1749 067a F861     		str	r0, [r7, #28]
1917:E:/LiteOS/LiteOS_Lab/drivers/third_party/ST/STM32L4xx_HAL_Driver/Src\stm32l4xx_hal_rcc_ex.c **** 
 1750              		.loc 1 1917 0
 1751 067c D9E0     		b	.L53
 1752              	.L138:
1904:E:/LiteOS/LiteOS_Lab/drivers/third_party/ST/STM32L4xx_HAL_Driver/Src\stm32l4xx_hal_rcc_ex.c ****       {
 1753              		.loc 1 1904 0
 1754 067e BB69     		ldr	r3, [r7, #24]
 1755 0680 B3F5804F 		cmp	r3, #16384
 1756 0684 03D1     		bne	.L140
1906:E:/LiteOS/LiteOS_Lab/drivers/third_party/ST/STM32L4xx_HAL_Driver/Src\stm32l4xx_hal_rcc_ex.c ****       }
 1757              		.loc 1 1906 0
 1758 0686 FFF7FEFF 		bl	HAL_RCC_GetSysClockFreq
 1759 068a F861     		str	r0, [r7, #28]
1917:E:/LiteOS/LiteOS_Lab/drivers/third_party/ST/STM32L4xx_HAL_Driver/Src\stm32l4xx_hal_rcc_ex.c **** 
 1760              		.loc 1 1917 0
 1761 068c D1E0     		b	.L53
 1762              	.L140:
1908:E:/LiteOS/LiteOS_Lab/drivers/third_party/ST/STM32L4xx_HAL_Driver/Src\stm32l4xx_hal_rcc_ex.c ****       {
 1763              		.loc 1 1908 0
 1764 068e BB69     		ldr	r3, [r7, #24]
 1765 0690 B3F5004F 		cmp	r3, #32768
 1766 0694 09D1     		bne	.L141
1908:E:/LiteOS/LiteOS_Lab/drivers/third_party/ST/STM32L4xx_HAL_Driver/Src\stm32l4xx_hal_rcc_ex.c ****       {
 1767              		.loc 1 1908 0 is_stmt 0 discriminator 1
 1768 0696 694B     		ldr	r3, .L166
 1769 0698 1B68     		ldr	r3, [r3]
 1770 069a 03F48063 		and	r3, r3, #1024
 1771 069e B3F5806F 		cmp	r3, #1024
 1772 06a2 02D1     		bne	.L141
1910:E:/LiteOS/LiteOS_Lab/drivers/third_party/ST/STM32L4xx_HAL_Driver/Src\stm32l4xx_hal_rcc_ex.c ****       }
 1773              		.loc 1 1910 0 is_stmt 1
 1774 06a4 664B     		ldr	r3, .L166+4
 1775 06a6 FB61     		str	r3, [r7, #28]
1917:E:/LiteOS/LiteOS_Lab/drivers/third_party/ST/STM32L4xx_HAL_Driver/Src\stm32l4xx_hal_rcc_ex.c **** 
 1776              		.loc 1 1917 0
 1777 06a8 C3E0     		b	.L53
 1778              	.L141:
1915:E:/LiteOS/LiteOS_Lab/drivers/third_party/ST/STM32L4xx_HAL_Driver/Src\stm32l4xx_hal_rcc_ex.c ****       }
 1779              		.loc 1 1915 0
 1780 06aa 0023     		movs	r3, #0
 1781 06ac FB61     		str	r3, [r7, #28]
1917:E:/LiteOS/LiteOS_Lab/drivers/third_party/ST/STM32L4xx_HAL_Driver/Src\stm32l4xx_hal_rcc_ex.c **** 
 1782              		.loc 1 1917 0
 1783 06ae C0E0     		b	.L53
 1784              	.L67:
1923:E:/LiteOS/LiteOS_Lab/drivers/third_party/ST/STM32L4xx_HAL_Driver/Src\stm32l4xx_hal_rcc_ex.c **** 
 1785              		.loc 1 1923 0
 1786 06b0 624B     		ldr	r3, .L166
 1787 06b2 D3F88830 		ldr	r3, [r3, #136]
 1788 06b6 03F44033 		and	r3, r3, #196608
 1789 06ba BB61     		str	r3, [r7, #24]
1925:E:/LiteOS/LiteOS_Lab/drivers/third_party/ST/STM32L4xx_HAL_Driver/Src\stm32l4xx_hal_rcc_ex.c ****       {
 1790              		.loc 1 1925 0
 1791 06bc BB69     		ldr	r3, [r7, #24]
 1792 06be 002B     		cmp	r3, #0
ARM GAS  C:\Users\user\AppData\Local\Temp\ccsJwa9Q.s 			page 72


 1793 06c0 03D1     		bne	.L142
1927:E:/LiteOS/LiteOS_Lab/drivers/third_party/ST/STM32L4xx_HAL_Driver/Src\stm32l4xx_hal_rcc_ex.c ****       }
 1794              		.loc 1 1927 0
 1795 06c2 FFF7FEFF 		bl	HAL_RCC_GetPCLK1Freq
 1796 06c6 F861     		str	r0, [r7, #28]
1942:E:/LiteOS/LiteOS_Lab/drivers/third_party/ST/STM32L4xx_HAL_Driver/Src\stm32l4xx_hal_rcc_ex.c **** 
 1797              		.loc 1 1942 0
 1798 06c8 B3E0     		b	.L53
 1799              	.L142:
1929:E:/LiteOS/LiteOS_Lab/drivers/third_party/ST/STM32L4xx_HAL_Driver/Src\stm32l4xx_hal_rcc_ex.c ****       {
 1800              		.loc 1 1929 0
 1801 06ca BB69     		ldr	r3, [r7, #24]
 1802 06cc B3F5803F 		cmp	r3, #65536
 1803 06d0 03D1     		bne	.L144
1931:E:/LiteOS/LiteOS_Lab/drivers/third_party/ST/STM32L4xx_HAL_Driver/Src\stm32l4xx_hal_rcc_ex.c ****       }
 1804              		.loc 1 1931 0
 1805 06d2 FFF7FEFF 		bl	HAL_RCC_GetSysClockFreq
 1806 06d6 F861     		str	r0, [r7, #28]
1942:E:/LiteOS/LiteOS_Lab/drivers/third_party/ST/STM32L4xx_HAL_Driver/Src\stm32l4xx_hal_rcc_ex.c **** 
 1807              		.loc 1 1942 0
 1808 06d8 ABE0     		b	.L53
 1809              	.L144:
1933:E:/LiteOS/LiteOS_Lab/drivers/third_party/ST/STM32L4xx_HAL_Driver/Src\stm32l4xx_hal_rcc_ex.c ****       {
 1810              		.loc 1 1933 0
 1811 06da BB69     		ldr	r3, [r7, #24]
 1812 06dc B3F5003F 		cmp	r3, #131072
 1813 06e0 09D1     		bne	.L145
1933:E:/LiteOS/LiteOS_Lab/drivers/third_party/ST/STM32L4xx_HAL_Driver/Src\stm32l4xx_hal_rcc_ex.c ****       {
 1814              		.loc 1 1933 0 is_stmt 0 discriminator 1
 1815 06e2 564B     		ldr	r3, .L166
 1816 06e4 1B68     		ldr	r3, [r3]
 1817 06e6 03F48063 		and	r3, r3, #1024
 1818 06ea B3F5806F 		cmp	r3, #1024
 1819 06ee 02D1     		bne	.L145
1935:E:/LiteOS/LiteOS_Lab/drivers/third_party/ST/STM32L4xx_HAL_Driver/Src\stm32l4xx_hal_rcc_ex.c ****       }
 1820              		.loc 1 1935 0 is_stmt 1
 1821 06f0 534B     		ldr	r3, .L166+4
 1822 06f2 FB61     		str	r3, [r7, #28]
1942:E:/LiteOS/LiteOS_Lab/drivers/third_party/ST/STM32L4xx_HAL_Driver/Src\stm32l4xx_hal_rcc_ex.c **** 
 1823              		.loc 1 1942 0
 1824 06f4 9DE0     		b	.L53
 1825              	.L145:
1940:E:/LiteOS/LiteOS_Lab/drivers/third_party/ST/STM32L4xx_HAL_Driver/Src\stm32l4xx_hal_rcc_ex.c ****       }
 1826              		.loc 1 1940 0
 1827 06f6 0023     		movs	r3, #0
 1828 06f8 FB61     		str	r3, [r7, #28]
1942:E:/LiteOS/LiteOS_Lab/drivers/third_party/ST/STM32L4xx_HAL_Driver/Src\stm32l4xx_hal_rcc_ex.c **** 
 1829              		.loc 1 1942 0
 1830 06fa 9AE0     		b	.L53
 1831              	.L80:
1973:E:/LiteOS/LiteOS_Lab/drivers/third_party/ST/STM32L4xx_HAL_Driver/Src\stm32l4xx_hal_rcc_ex.c **** 
 1832              		.loc 1 1973 0
 1833 06fc 4F4B     		ldr	r3, .L166
 1834 06fe D3F88830 		ldr	r3, [r3, #136]
 1835 0702 03F44023 		and	r3, r3, #786432
 1836 0706 BB61     		str	r3, [r7, #24]
1975:E:/LiteOS/LiteOS_Lab/drivers/third_party/ST/STM32L4xx_HAL_Driver/Src\stm32l4xx_hal_rcc_ex.c ****       {
ARM GAS  C:\Users\user\AppData\Local\Temp\ccsJwa9Q.s 			page 73


 1837              		.loc 1 1975 0
 1838 0708 BB69     		ldr	r3, [r7, #24]
 1839 070a 002B     		cmp	r3, #0
 1840 070c 03D1     		bne	.L146
1977:E:/LiteOS/LiteOS_Lab/drivers/third_party/ST/STM32L4xx_HAL_Driver/Src\stm32l4xx_hal_rcc_ex.c ****       }
 1841              		.loc 1 1977 0
 1842 070e FFF7FEFF 		bl	HAL_RCC_GetPCLK1Freq
 1843 0712 F861     		str	r0, [r7, #28]
1996:E:/LiteOS/LiteOS_Lab/drivers/third_party/ST/STM32L4xx_HAL_Driver/Src\stm32l4xx_hal_rcc_ex.c **** 
 1844              		.loc 1 1996 0
 1845 0714 8DE0     		b	.L53
 1846              	.L146:
1979:E:/LiteOS/LiteOS_Lab/drivers/third_party/ST/STM32L4xx_HAL_Driver/Src\stm32l4xx_hal_rcc_ex.c ****       {
 1847              		.loc 1 1979 0
 1848 0716 BB69     		ldr	r3, [r7, #24]
 1849 0718 B3F5802F 		cmp	r3, #262144
 1850 071c 0AD1     		bne	.L148
1979:E:/LiteOS/LiteOS_Lab/drivers/third_party/ST/STM32L4xx_HAL_Driver/Src\stm32l4xx_hal_rcc_ex.c ****       {
 1851              		.loc 1 1979 0 is_stmt 0 discriminator 1
 1852 071e 474B     		ldr	r3, .L166
 1853 0720 D3F89430 		ldr	r3, [r3, #148]
 1854 0724 03F00203 		and	r3, r3, #2
 1855 0728 022B     		cmp	r3, #2
 1856 072a 03D1     		bne	.L148
1981:E:/LiteOS/LiteOS_Lab/drivers/third_party/ST/STM32L4xx_HAL_Driver/Src\stm32l4xx_hal_rcc_ex.c ****       }
 1857              		.loc 1 1981 0 is_stmt 1
 1858 072c 4FF4FA43 		mov	r3, #32000
 1859 0730 FB61     		str	r3, [r7, #28]
 1860 0732 1FE0     		b	.L147
 1861              	.L148:
1983:E:/LiteOS/LiteOS_Lab/drivers/third_party/ST/STM32L4xx_HAL_Driver/Src\stm32l4xx_hal_rcc_ex.c ****       {
 1862              		.loc 1 1983 0
 1863 0734 BB69     		ldr	r3, [r7, #24]
 1864 0736 B3F5002F 		cmp	r3, #524288
 1865 073a 09D1     		bne	.L149
1983:E:/LiteOS/LiteOS_Lab/drivers/third_party/ST/STM32L4xx_HAL_Driver/Src\stm32l4xx_hal_rcc_ex.c ****       {
 1866              		.loc 1 1983 0 is_stmt 0 discriminator 1
 1867 073c 3F4B     		ldr	r3, .L166
 1868 073e 1B68     		ldr	r3, [r3]
 1869 0740 03F48063 		and	r3, r3, #1024
 1870 0744 B3F5806F 		cmp	r3, #1024
 1871 0748 02D1     		bne	.L149
1985:E:/LiteOS/LiteOS_Lab/drivers/third_party/ST/STM32L4xx_HAL_Driver/Src\stm32l4xx_hal_rcc_ex.c ****       }
 1872              		.loc 1 1985 0 is_stmt 1
 1873 074a 3D4B     		ldr	r3, .L166+4
 1874 074c FB61     		str	r3, [r7, #28]
 1875 074e 11E0     		b	.L147
 1876              	.L149:
1987:E:/LiteOS/LiteOS_Lab/drivers/third_party/ST/STM32L4xx_HAL_Driver/Src\stm32l4xx_hal_rcc_ex.c ****       {
 1877              		.loc 1 1987 0
 1878 0750 BB69     		ldr	r3, [r7, #24]
 1879 0752 B3F5402F 		cmp	r3, #786432
 1880 0756 0AD1     		bne	.L150
1987:E:/LiteOS/LiteOS_Lab/drivers/third_party/ST/STM32L4xx_HAL_Driver/Src\stm32l4xx_hal_rcc_ex.c ****       {
 1881              		.loc 1 1987 0 is_stmt 0 discriminator 1
 1882 0758 384B     		ldr	r3, .L166
 1883 075a D3F89030 		ldr	r3, [r3, #144]
ARM GAS  C:\Users\user\AppData\Local\Temp\ccsJwa9Q.s 			page 74


 1884 075e 03F00203 		and	r3, r3, #2
 1885 0762 022B     		cmp	r3, #2
 1886 0764 03D1     		bne	.L150
1989:E:/LiteOS/LiteOS_Lab/drivers/third_party/ST/STM32L4xx_HAL_Driver/Src\stm32l4xx_hal_rcc_ex.c ****       }
 1887              		.loc 1 1989 0 is_stmt 1
 1888 0766 4FF40043 		mov	r3, #32768
 1889 076a FB61     		str	r3, [r7, #28]
 1890 076c 02E0     		b	.L147
 1891              	.L150:
1994:E:/LiteOS/LiteOS_Lab/drivers/third_party/ST/STM32L4xx_HAL_Driver/Src\stm32l4xx_hal_rcc_ex.c ****       }
 1892              		.loc 1 1994 0
 1893 076e 0023     		movs	r3, #0
 1894 0770 FB61     		str	r3, [r7, #28]
1996:E:/LiteOS/LiteOS_Lab/drivers/third_party/ST/STM32L4xx_HAL_Driver/Src\stm32l4xx_hal_rcc_ex.c **** 
 1895              		.loc 1 1996 0
 1896 0772 5EE0     		b	.L53
 1897              	.L147:
 1898 0774 5DE0     		b	.L53
 1899              	.L78:
2000:E:/LiteOS/LiteOS_Lab/drivers/third_party/ST/STM32L4xx_HAL_Driver/Src\stm32l4xx_hal_rcc_ex.c **** 
 1900              		.loc 1 2000 0
 1901 0776 314B     		ldr	r3, .L166
 1902 0778 D3F88830 		ldr	r3, [r3, #136]
 1903 077c 03F44013 		and	r3, r3, #3145728
 1904 0780 BB61     		str	r3, [r7, #24]
2002:E:/LiteOS/LiteOS_Lab/drivers/third_party/ST/STM32L4xx_HAL_Driver/Src\stm32l4xx_hal_rcc_ex.c ****       {
 1905              		.loc 1 2002 0
 1906 0782 BB69     		ldr	r3, [r7, #24]
 1907 0784 002B     		cmp	r3, #0
 1908 0786 03D1     		bne	.L151
2004:E:/LiteOS/LiteOS_Lab/drivers/third_party/ST/STM32L4xx_HAL_Driver/Src\stm32l4xx_hal_rcc_ex.c ****       }
 1909              		.loc 1 2004 0
 1910 0788 FFF7FEFF 		bl	HAL_RCC_GetPCLK1Freq
 1911 078c F861     		str	r0, [r7, #28]
2023:E:/LiteOS/LiteOS_Lab/drivers/third_party/ST/STM32L4xx_HAL_Driver/Src\stm32l4xx_hal_rcc_ex.c **** 
 1912              		.loc 1 2023 0
 1913 078e 50E0     		b	.L53
 1914              	.L151:
2006:E:/LiteOS/LiteOS_Lab/drivers/third_party/ST/STM32L4xx_HAL_Driver/Src\stm32l4xx_hal_rcc_ex.c ****       {
 1915              		.loc 1 2006 0
 1916 0790 BB69     		ldr	r3, [r7, #24]
 1917 0792 B3F5801F 		cmp	r3, #1048576
 1918 0796 0AD1     		bne	.L153
2006:E:/LiteOS/LiteOS_Lab/drivers/third_party/ST/STM32L4xx_HAL_Driver/Src\stm32l4xx_hal_rcc_ex.c ****       {
 1919              		.loc 1 2006 0 is_stmt 0 discriminator 1
 1920 0798 284B     		ldr	r3, .L166
 1921 079a D3F89430 		ldr	r3, [r3, #148]
 1922 079e 03F00203 		and	r3, r3, #2
 1923 07a2 022B     		cmp	r3, #2
 1924 07a4 03D1     		bne	.L153
2008:E:/LiteOS/LiteOS_Lab/drivers/third_party/ST/STM32L4xx_HAL_Driver/Src\stm32l4xx_hal_rcc_ex.c ****       }
 1925              		.loc 1 2008 0 is_stmt 1
 1926 07a6 4FF4FA43 		mov	r3, #32000
 1927 07aa FB61     		str	r3, [r7, #28]
 1928 07ac 1FE0     		b	.L152
 1929              	.L153:
2010:E:/LiteOS/LiteOS_Lab/drivers/third_party/ST/STM32L4xx_HAL_Driver/Src\stm32l4xx_hal_rcc_ex.c ****       {
ARM GAS  C:\Users\user\AppData\Local\Temp\ccsJwa9Q.s 			page 75


 1930              		.loc 1 2010 0
 1931 07ae BB69     		ldr	r3, [r7, #24]
 1932 07b0 B3F5001F 		cmp	r3, #2097152
 1933 07b4 09D1     		bne	.L154
2010:E:/LiteOS/LiteOS_Lab/drivers/third_party/ST/STM32L4xx_HAL_Driver/Src\stm32l4xx_hal_rcc_ex.c ****       {
 1934              		.loc 1 2010 0 is_stmt 0 discriminator 1
 1935 07b6 214B     		ldr	r3, .L166
 1936 07b8 1B68     		ldr	r3, [r3]
 1937 07ba 03F48063 		and	r3, r3, #1024
 1938 07be B3F5806F 		cmp	r3, #1024
 1939 07c2 02D1     		bne	.L154
2012:E:/LiteOS/LiteOS_Lab/drivers/third_party/ST/STM32L4xx_HAL_Driver/Src\stm32l4xx_hal_rcc_ex.c ****       }
 1940              		.loc 1 2012 0 is_stmt 1
 1941 07c4 1E4B     		ldr	r3, .L166+4
 1942 07c6 FB61     		str	r3, [r7, #28]
 1943 07c8 11E0     		b	.L152
 1944              	.L154:
2014:E:/LiteOS/LiteOS_Lab/drivers/third_party/ST/STM32L4xx_HAL_Driver/Src\stm32l4xx_hal_rcc_ex.c ****       {
 1945              		.loc 1 2014 0
 1946 07ca BB69     		ldr	r3, [r7, #24]
 1947 07cc B3F5401F 		cmp	r3, #3145728
 1948 07d0 0AD1     		bne	.L155
2014:E:/LiteOS/LiteOS_Lab/drivers/third_party/ST/STM32L4xx_HAL_Driver/Src\stm32l4xx_hal_rcc_ex.c ****       {
 1949              		.loc 1 2014 0 is_stmt 0 discriminator 1
 1950 07d2 1A4B     		ldr	r3, .L166
 1951 07d4 D3F89030 		ldr	r3, [r3, #144]
 1952 07d8 03F00203 		and	r3, r3, #2
 1953 07dc 022B     		cmp	r3, #2
 1954 07de 03D1     		bne	.L155
2016:E:/LiteOS/LiteOS_Lab/drivers/third_party/ST/STM32L4xx_HAL_Driver/Src\stm32l4xx_hal_rcc_ex.c ****       }
 1955              		.loc 1 2016 0 is_stmt 1
 1956 07e0 4FF40043 		mov	r3, #32768
 1957 07e4 FB61     		str	r3, [r7, #28]
 1958 07e6 02E0     		b	.L152
 1959              	.L155:
2021:E:/LiteOS/LiteOS_Lab/drivers/third_party/ST/STM32L4xx_HAL_Driver/Src\stm32l4xx_hal_rcc_ex.c ****       }
 1960              		.loc 1 2021 0
 1961 07e8 0023     		movs	r3, #0
 1962 07ea FB61     		str	r3, [r7, #28]
2023:E:/LiteOS/LiteOS_Lab/drivers/third_party/ST/STM32L4xx_HAL_Driver/Src\stm32l4xx_hal_rcc_ex.c **** 
 1963              		.loc 1 2023 0
 1964 07ec 21E0     		b	.L53
 1965              	.L152:
 1966 07ee 20E0     		b	.L53
 1967              	.L82:
2029:E:/LiteOS/LiteOS_Lab/drivers/third_party/ST/STM32L4xx_HAL_Driver/Src\stm32l4xx_hal_rcc_ex.c **** 
 1968              		.loc 1 2029 0
 1969 07f0 124B     		ldr	r3, .L166
 1970 07f2 D3F88830 		ldr	r3, [r3, #136]
 1971 07f6 03F08043 		and	r3, r3, #1073741824
 1972 07fa BB61     		str	r3, [r7, #24]
2031:E:/LiteOS/LiteOS_Lab/drivers/third_party/ST/STM32L4xx_HAL_Driver/Src\stm32l4xx_hal_rcc_ex.c ****       {
 1973              		.loc 1 2031 0
 1974 07fc BB69     		ldr	r3, [r7, #24]
 1975 07fe 002B     		cmp	r3, #0
 1976 0800 03D1     		bne	.L156
2033:E:/LiteOS/LiteOS_Lab/drivers/third_party/ST/STM32L4xx_HAL_Driver/Src\stm32l4xx_hal_rcc_ex.c ****       }
ARM GAS  C:\Users\user\AppData\Local\Temp\ccsJwa9Q.s 			page 76


 1977              		.loc 1 2033 0
 1978 0802 FFF7FEFF 		bl	HAL_RCC_GetPCLK1Freq
 1979 0806 F861     		str	r0, [r7, #28]
2044:E:/LiteOS/LiteOS_Lab/drivers/third_party/ST/STM32L4xx_HAL_Driver/Src\stm32l4xx_hal_rcc_ex.c **** 
 1980              		.loc 1 2044 0
 1981 0808 13E0     		b	.L53
 1982              	.L156:
2035:E:/LiteOS/LiteOS_Lab/drivers/third_party/ST/STM32L4xx_HAL_Driver/Src\stm32l4xx_hal_rcc_ex.c ****       {
 1983              		.loc 1 2035 0
 1984 080a BB69     		ldr	r3, [r7, #24]
 1985 080c B3F1804F 		cmp	r3, #1073741824
 1986 0810 09D1     		bne	.L158
2035:E:/LiteOS/LiteOS_Lab/drivers/third_party/ST/STM32L4xx_HAL_Driver/Src\stm32l4xx_hal_rcc_ex.c ****       {
 1987              		.loc 1 2035 0 is_stmt 0 discriminator 1
 1988 0812 0A4B     		ldr	r3, .L166
 1989 0814 1B68     		ldr	r3, [r3]
 1990 0816 03F48063 		and	r3, r3, #1024
 1991 081a B3F5806F 		cmp	r3, #1024
 1992 081e 02D1     		bne	.L158
2037:E:/LiteOS/LiteOS_Lab/drivers/third_party/ST/STM32L4xx_HAL_Driver/Src\stm32l4xx_hal_rcc_ex.c ****       }
 1993              		.loc 1 2037 0 is_stmt 1
 1994 0820 074B     		ldr	r3, .L166+4
 1995 0822 FB61     		str	r3, [r7, #28]
2044:E:/LiteOS/LiteOS_Lab/drivers/third_party/ST/STM32L4xx_HAL_Driver/Src\stm32l4xx_hal_rcc_ex.c **** 
 1996              		.loc 1 2044 0
 1997 0824 05E0     		b	.L53
 1998              	.L158:
2042:E:/LiteOS/LiteOS_Lab/drivers/third_party/ST/STM32L4xx_HAL_Driver/Src\stm32l4xx_hal_rcc_ex.c ****       }
 1999              		.loc 1 2042 0
 2000 0826 0023     		movs	r3, #0
 2001 0828 FB61     		str	r3, [r7, #28]
2044:E:/LiteOS/LiteOS_Lab/drivers/third_party/ST/STM32L4xx_HAL_Driver/Src\stm32l4xx_hal_rcc_ex.c **** 
 2002              		.loc 1 2044 0
 2003 082a 02E0     		b	.L53
 2004              	.L160:
1429:E:/LiteOS/LiteOS_Lab/drivers/third_party/ST/STM32L4xx_HAL_Driver/Src\stm32l4xx_hal_rcc_ex.c **** 
 2005              		.loc 1 1429 0
 2006 082c 00BF     		nop
 2007 082e 00E0     		b	.L53
 2008              	.L161:
1823:E:/LiteOS/LiteOS_Lab/drivers/third_party/ST/STM32L4xx_HAL_Driver/Src\stm32l4xx_hal_rcc_ex.c **** 
 2009              		.loc 1 1823 0
 2010 0830 00BF     		nop
 2011              	.L53:
2089:E:/LiteOS/LiteOS_Lab/drivers/third_party/ST/STM32L4xx_HAL_Driver/Src\stm32l4xx_hal_rcc_ex.c ****     }
2090:E:/LiteOS/LiteOS_Lab/drivers/third_party/ST/STM32L4xx_HAL_Driver/Src\stm32l4xx_hal_rcc_ex.c ****   }
2091:E:/LiteOS/LiteOS_Lab/drivers/third_party/ST/STM32L4xx_HAL_Driver/Src\stm32l4xx_hal_rcc_ex.c **** 
2092:E:/LiteOS/LiteOS_Lab/drivers/third_party/ST/STM32L4xx_HAL_Driver/Src\stm32l4xx_hal_rcc_ex.c ****   return(frequency);
 2012              		.loc 1 2092 0
 2013 0832 FB69     		ldr	r3, [r7, #28]
2093:E:/LiteOS/LiteOS_Lab/drivers/third_party/ST/STM32L4xx_HAL_Driver/Src\stm32l4xx_hal_rcc_ex.c **** }
 2014              		.loc 1 2093 0
 2015 0834 1846     		mov	r0, r3
 2016 0836 2037     		adds	r7, r7, #32
 2017              	.LCFI14:
 2018              		.cfi_def_cfa_offset 8
 2019 0838 BD46     		mov	sp, r7
ARM GAS  C:\Users\user\AppData\Local\Temp\ccsJwa9Q.s 			page 77


 2020              	.LCFI15:
 2021              		.cfi_def_cfa_register 13
 2022              		@ sp needed
 2023 083a 80BD     		pop	{r7, pc}
 2024              	.L167:
 2025              		.align	2
 2026              	.L166:
 2027 083c 00100240 		.word	1073876992
 2028 0840 0024F400 		.word	16000000
 2029              		.cfi_endproc
 2030              	.LFE135:
 2032              		.section	.text.HAL_RCCEx_EnablePLLSAI1,"ax",%progbits
 2033              		.align	1
 2034              		.global	HAL_RCCEx_EnablePLLSAI1
 2035              		.syntax unified
 2036              		.thumb
 2037              		.thumb_func
 2038              		.fpu fpv4-sp-d16
 2040              	HAL_RCCEx_EnablePLLSAI1:
 2041              	.LFB136:
2094:E:/LiteOS/LiteOS_Lab/drivers/third_party/ST/STM32L4xx_HAL_Driver/Src\stm32l4xx_hal_rcc_ex.c **** 
2095:E:/LiteOS/LiteOS_Lab/drivers/third_party/ST/STM32L4xx_HAL_Driver/Src\stm32l4xx_hal_rcc_ex.c **** /**
2096:E:/LiteOS/LiteOS_Lab/drivers/third_party/ST/STM32L4xx_HAL_Driver/Src\stm32l4xx_hal_rcc_ex.c ****   * @}
2097:E:/LiteOS/LiteOS_Lab/drivers/third_party/ST/STM32L4xx_HAL_Driver/Src\stm32l4xx_hal_rcc_ex.c ****   */
2098:E:/LiteOS/LiteOS_Lab/drivers/third_party/ST/STM32L4xx_HAL_Driver/Src\stm32l4xx_hal_rcc_ex.c **** 
2099:E:/LiteOS/LiteOS_Lab/drivers/third_party/ST/STM32L4xx_HAL_Driver/Src\stm32l4xx_hal_rcc_ex.c **** /** @defgroup RCCEx_Exported_Functions_Group2 Extended Clock management functions
2100:E:/LiteOS/LiteOS_Lab/drivers/third_party/ST/STM32L4xx_HAL_Driver/Src\stm32l4xx_hal_rcc_ex.c ****  *  @brief  Extended Clock management functions
2101:E:/LiteOS/LiteOS_Lab/drivers/third_party/ST/STM32L4xx_HAL_Driver/Src\stm32l4xx_hal_rcc_ex.c ****  *
2102:E:/LiteOS/LiteOS_Lab/drivers/third_party/ST/STM32L4xx_HAL_Driver/Src\stm32l4xx_hal_rcc_ex.c **** @verbatim
2103:E:/LiteOS/LiteOS_Lab/drivers/third_party/ST/STM32L4xx_HAL_Driver/Src\stm32l4xx_hal_rcc_ex.c ****  ===============================================================================
2104:E:/LiteOS/LiteOS_Lab/drivers/third_party/ST/STM32L4xx_HAL_Driver/Src\stm32l4xx_hal_rcc_ex.c ****                 ##### Extended clock management functions  #####
2105:E:/LiteOS/LiteOS_Lab/drivers/third_party/ST/STM32L4xx_HAL_Driver/Src\stm32l4xx_hal_rcc_ex.c ****  ===============================================================================
2106:E:/LiteOS/LiteOS_Lab/drivers/third_party/ST/STM32L4xx_HAL_Driver/Src\stm32l4xx_hal_rcc_ex.c ****     [..]
2107:E:/LiteOS/LiteOS_Lab/drivers/third_party/ST/STM32L4xx_HAL_Driver/Src\stm32l4xx_hal_rcc_ex.c ****     This subsection provides a set of functions allowing to control the
2108:E:/LiteOS/LiteOS_Lab/drivers/third_party/ST/STM32L4xx_HAL_Driver/Src\stm32l4xx_hal_rcc_ex.c ****     activation or deactivation of MSI PLL-mode, PLLSAI1, PLLSAI2, LSE CSS,
2109:E:/LiteOS/LiteOS_Lab/drivers/third_party/ST/STM32L4xx_HAL_Driver/Src\stm32l4xx_hal_rcc_ex.c ****     Low speed clock output and clock after wake-up from STOP mode.
2110:E:/LiteOS/LiteOS_Lab/drivers/third_party/ST/STM32L4xx_HAL_Driver/Src\stm32l4xx_hal_rcc_ex.c **** @endverbatim
2111:E:/LiteOS/LiteOS_Lab/drivers/third_party/ST/STM32L4xx_HAL_Driver/Src\stm32l4xx_hal_rcc_ex.c ****   * @{
2112:E:/LiteOS/LiteOS_Lab/drivers/third_party/ST/STM32L4xx_HAL_Driver/Src\stm32l4xx_hal_rcc_ex.c ****   */
2113:E:/LiteOS/LiteOS_Lab/drivers/third_party/ST/STM32L4xx_HAL_Driver/Src\stm32l4xx_hal_rcc_ex.c **** 
2114:E:/LiteOS/LiteOS_Lab/drivers/third_party/ST/STM32L4xx_HAL_Driver/Src\stm32l4xx_hal_rcc_ex.c **** /**
2115:E:/LiteOS/LiteOS_Lab/drivers/third_party/ST/STM32L4xx_HAL_Driver/Src\stm32l4xx_hal_rcc_ex.c ****   * @brief  Enable PLLSAI1.
2116:E:/LiteOS/LiteOS_Lab/drivers/third_party/ST/STM32L4xx_HAL_Driver/Src\stm32l4xx_hal_rcc_ex.c ****   * @param  PLLSAI1Init  pointer to an RCC_PLLSAI1InitTypeDef structure that
2117:E:/LiteOS/LiteOS_Lab/drivers/third_party/ST/STM32L4xx_HAL_Driver/Src\stm32l4xx_hal_rcc_ex.c ****   *         contains the configuration information for the PLLSAI1
2118:E:/LiteOS/LiteOS_Lab/drivers/third_party/ST/STM32L4xx_HAL_Driver/Src\stm32l4xx_hal_rcc_ex.c ****   * @retval HAL status
2119:E:/LiteOS/LiteOS_Lab/drivers/third_party/ST/STM32L4xx_HAL_Driver/Src\stm32l4xx_hal_rcc_ex.c ****   */
2120:E:/LiteOS/LiteOS_Lab/drivers/third_party/ST/STM32L4xx_HAL_Driver/Src\stm32l4xx_hal_rcc_ex.c **** HAL_StatusTypeDef HAL_RCCEx_EnablePLLSAI1(RCC_PLLSAI1InitTypeDef  *PLLSAI1Init)
2121:E:/LiteOS/LiteOS_Lab/drivers/third_party/ST/STM32L4xx_HAL_Driver/Src\stm32l4xx_hal_rcc_ex.c **** {
 2042              		.loc 1 2121 0
 2043              		.cfi_startproc
 2044              		@ args = 0, pretend = 0, frame = 16
 2045              		@ frame_needed = 1, uses_anonymous_args = 0
 2046 0000 80B5     		push	{r7, lr}
 2047              	.LCFI16:
 2048              		.cfi_def_cfa_offset 8
 2049              		.cfi_offset 7, -8
 2050              		.cfi_offset 14, -4
ARM GAS  C:\Users\user\AppData\Local\Temp\ccsJwa9Q.s 			page 78


 2051 0002 84B0     		sub	sp, sp, #16
 2052              	.LCFI17:
 2053              		.cfi_def_cfa_offset 24
 2054 0004 00AF     		add	r7, sp, #0
 2055              	.LCFI18:
 2056              		.cfi_def_cfa_register 7
 2057 0006 7860     		str	r0, [r7, #4]
2122:E:/LiteOS/LiteOS_Lab/drivers/third_party/ST/STM32L4xx_HAL_Driver/Src\stm32l4xx_hal_rcc_ex.c ****   uint32_t tickstart = 0U;
 2058              		.loc 1 2122 0
 2059 0008 0023     		movs	r3, #0
 2060 000a BB60     		str	r3, [r7, #8]
2123:E:/LiteOS/LiteOS_Lab/drivers/third_party/ST/STM32L4xx_HAL_Driver/Src\stm32l4xx_hal_rcc_ex.c ****   HAL_StatusTypeDef status = HAL_OK;
 2061              		.loc 1 2123 0
 2062 000c 0023     		movs	r3, #0
 2063 000e FB73     		strb	r3, [r7, #15]
2124:E:/LiteOS/LiteOS_Lab/drivers/third_party/ST/STM32L4xx_HAL_Driver/Src\stm32l4xx_hal_rcc_ex.c **** 
2125:E:/LiteOS/LiteOS_Lab/drivers/third_party/ST/STM32L4xx_HAL_Driver/Src\stm32l4xx_hal_rcc_ex.c ****   /* check for PLLSAI1 Parameters used to output PLLSAI1CLK */
2126:E:/LiteOS/LiteOS_Lab/drivers/third_party/ST/STM32L4xx_HAL_Driver/Src\stm32l4xx_hal_rcc_ex.c ****   assert_param(IS_RCC_PLLSAI1SOURCE(PLLSAI1Init->PLLSAI1Source));
2127:E:/LiteOS/LiteOS_Lab/drivers/third_party/ST/STM32L4xx_HAL_Driver/Src\stm32l4xx_hal_rcc_ex.c ****   assert_param(IS_RCC_PLLSAI1M_VALUE(PLLSAI1Init->PLLSAI1M));
2128:E:/LiteOS/LiteOS_Lab/drivers/third_party/ST/STM32L4xx_HAL_Driver/Src\stm32l4xx_hal_rcc_ex.c ****   assert_param(IS_RCC_PLLSAI1N_VALUE(PLLSAI1Init->PLLSAI1N));
2129:E:/LiteOS/LiteOS_Lab/drivers/third_party/ST/STM32L4xx_HAL_Driver/Src\stm32l4xx_hal_rcc_ex.c ****   assert_param(IS_RCC_PLLSAI1P_VALUE(PLLSAI1Init->PLLSAI1P));
2130:E:/LiteOS/LiteOS_Lab/drivers/third_party/ST/STM32L4xx_HAL_Driver/Src\stm32l4xx_hal_rcc_ex.c ****   assert_param(IS_RCC_PLLSAI1Q_VALUE(PLLSAI1Init->PLLSAI1Q));
2131:E:/LiteOS/LiteOS_Lab/drivers/third_party/ST/STM32L4xx_HAL_Driver/Src\stm32l4xx_hal_rcc_ex.c ****   assert_param(IS_RCC_PLLSAI1R_VALUE(PLLSAI1Init->PLLSAI1R));
2132:E:/LiteOS/LiteOS_Lab/drivers/third_party/ST/STM32L4xx_HAL_Driver/Src\stm32l4xx_hal_rcc_ex.c ****   assert_param(IS_RCC_PLLSAI1CLOCKOUT_VALUE(PLLSAI1Init->PLLSAI1ClockOut));
2133:E:/LiteOS/LiteOS_Lab/drivers/third_party/ST/STM32L4xx_HAL_Driver/Src\stm32l4xx_hal_rcc_ex.c **** 
2134:E:/LiteOS/LiteOS_Lab/drivers/third_party/ST/STM32L4xx_HAL_Driver/Src\stm32l4xx_hal_rcc_ex.c ****   /* Disable the PLLSAI1 */
2135:E:/LiteOS/LiteOS_Lab/drivers/third_party/ST/STM32L4xx_HAL_Driver/Src\stm32l4xx_hal_rcc_ex.c ****   __HAL_RCC_PLLSAI1_DISABLE();
 2064              		.loc 1 2135 0
 2065 0010 2B4B     		ldr	r3, .L176
 2066 0012 1B68     		ldr	r3, [r3]
 2067 0014 2A4A     		ldr	r2, .L176
 2068 0016 23F08063 		bic	r3, r3, #67108864
 2069 001a 1360     		str	r3, [r2]
2136:E:/LiteOS/LiteOS_Lab/drivers/third_party/ST/STM32L4xx_HAL_Driver/Src\stm32l4xx_hal_rcc_ex.c **** 
2137:E:/LiteOS/LiteOS_Lab/drivers/third_party/ST/STM32L4xx_HAL_Driver/Src\stm32l4xx_hal_rcc_ex.c ****   /* Get Start Tick*/
2138:E:/LiteOS/LiteOS_Lab/drivers/third_party/ST/STM32L4xx_HAL_Driver/Src\stm32l4xx_hal_rcc_ex.c ****   tickstart = HAL_GetTick();
 2070              		.loc 1 2138 0
 2071 001c FFF7FEFF 		bl	HAL_GetTick
 2072 0020 B860     		str	r0, [r7, #8]
2139:E:/LiteOS/LiteOS_Lab/drivers/third_party/ST/STM32L4xx_HAL_Driver/Src\stm32l4xx_hal_rcc_ex.c **** 
2140:E:/LiteOS/LiteOS_Lab/drivers/third_party/ST/STM32L4xx_HAL_Driver/Src\stm32l4xx_hal_rcc_ex.c ****   /* Wait till PLLSAI1 is ready to be updated */
2141:E:/LiteOS/LiteOS_Lab/drivers/third_party/ST/STM32L4xx_HAL_Driver/Src\stm32l4xx_hal_rcc_ex.c ****   while(READ_BIT(RCC->CR, RCC_CR_PLLSAI1RDY) != RESET)
 2073              		.loc 1 2141 0
 2074 0022 09E0     		b	.L169
 2075              	.L171:
2142:E:/LiteOS/LiteOS_Lab/drivers/third_party/ST/STM32L4xx_HAL_Driver/Src\stm32l4xx_hal_rcc_ex.c ****   {
2143:E:/LiteOS/LiteOS_Lab/drivers/third_party/ST/STM32L4xx_HAL_Driver/Src\stm32l4xx_hal_rcc_ex.c ****     if((HAL_GetTick() - tickstart) > PLLSAI1_TIMEOUT_VALUE)
 2076              		.loc 1 2143 0
 2077 0024 FFF7FEFF 		bl	HAL_GetTick
 2078 0028 0246     		mov	r2, r0
 2079 002a BB68     		ldr	r3, [r7, #8]
 2080 002c D31A     		subs	r3, r2, r3
 2081 002e 022B     		cmp	r3, #2
 2082 0030 02D9     		bls	.L169
2144:E:/LiteOS/LiteOS_Lab/drivers/third_party/ST/STM32L4xx_HAL_Driver/Src\stm32l4xx_hal_rcc_ex.c ****     {
2145:E:/LiteOS/LiteOS_Lab/drivers/third_party/ST/STM32L4xx_HAL_Driver/Src\stm32l4xx_hal_rcc_ex.c ****       status = HAL_TIMEOUT;
 2083              		.loc 1 2145 0
ARM GAS  C:\Users\user\AppData\Local\Temp\ccsJwa9Q.s 			page 79


 2084 0032 0323     		movs	r3, #3
 2085 0034 FB73     		strb	r3, [r7, #15]
2146:E:/LiteOS/LiteOS_Lab/drivers/third_party/ST/STM32L4xx_HAL_Driver/Src\stm32l4xx_hal_rcc_ex.c ****       break;
 2086              		.loc 1 2146 0
 2087 0036 05E0     		b	.L170
 2088              	.L169:
2141:E:/LiteOS/LiteOS_Lab/drivers/third_party/ST/STM32L4xx_HAL_Driver/Src\stm32l4xx_hal_rcc_ex.c ****   {
 2089              		.loc 1 2141 0
 2090 0038 214B     		ldr	r3, .L176
 2091 003a 1B68     		ldr	r3, [r3]
 2092 003c 03F00063 		and	r3, r3, #134217728
 2093 0040 002B     		cmp	r3, #0
 2094 0042 EFD1     		bne	.L171
 2095              	.L170:
2147:E:/LiteOS/LiteOS_Lab/drivers/third_party/ST/STM32L4xx_HAL_Driver/Src\stm32l4xx_hal_rcc_ex.c ****     }
2148:E:/LiteOS/LiteOS_Lab/drivers/third_party/ST/STM32L4xx_HAL_Driver/Src\stm32l4xx_hal_rcc_ex.c ****   }
2149:E:/LiteOS/LiteOS_Lab/drivers/third_party/ST/STM32L4xx_HAL_Driver/Src\stm32l4xx_hal_rcc_ex.c **** 
2150:E:/LiteOS/LiteOS_Lab/drivers/third_party/ST/STM32L4xx_HAL_Driver/Src\stm32l4xx_hal_rcc_ex.c ****   if(status == HAL_OK)
 2096              		.loc 1 2150 0
 2097 0044 FB7B     		ldrb	r3, [r7, #15]	@ zero_extendqisi2
 2098 0046 002B     		cmp	r3, #0
 2099 0048 35D1     		bne	.L172
2151:E:/LiteOS/LiteOS_Lab/drivers/third_party/ST/STM32L4xx_HAL_Driver/Src\stm32l4xx_hal_rcc_ex.c ****   {
2152:E:/LiteOS/LiteOS_Lab/drivers/third_party/ST/STM32L4xx_HAL_Driver/Src\stm32l4xx_hal_rcc_ex.c **** #if defined(RCC_PLLSAI1M_DIV_1_16_SUPPORT)
2153:E:/LiteOS/LiteOS_Lab/drivers/third_party/ST/STM32L4xx_HAL_Driver/Src\stm32l4xx_hal_rcc_ex.c ****     /* Configure the PLLSAI1 Multiplication factor N */
2154:E:/LiteOS/LiteOS_Lab/drivers/third_party/ST/STM32L4xx_HAL_Driver/Src\stm32l4xx_hal_rcc_ex.c ****     /* Configure the PLLSAI1 Division factors M, P, Q and R */
2155:E:/LiteOS/LiteOS_Lab/drivers/third_party/ST/STM32L4xx_HAL_Driver/Src\stm32l4xx_hal_rcc_ex.c ****     __HAL_RCC_PLLSAI1_CONFIG(PLLSAI1Init->PLLSAI1M, PLLSAI1Init->PLLSAI1N, PLLSAI1Init->PLLSAI1P, P
2156:E:/LiteOS/LiteOS_Lab/drivers/third_party/ST/STM32L4xx_HAL_Driver/Src\stm32l4xx_hal_rcc_ex.c **** #else
2157:E:/LiteOS/LiteOS_Lab/drivers/third_party/ST/STM32L4xx_HAL_Driver/Src\stm32l4xx_hal_rcc_ex.c ****     /* Configure the PLLSAI1 Multiplication factor N */
2158:E:/LiteOS/LiteOS_Lab/drivers/third_party/ST/STM32L4xx_HAL_Driver/Src\stm32l4xx_hal_rcc_ex.c ****     /* Configure the PLLSAI1 Division factors P, Q and R */
2159:E:/LiteOS/LiteOS_Lab/drivers/third_party/ST/STM32L4xx_HAL_Driver/Src\stm32l4xx_hal_rcc_ex.c ****     __HAL_RCC_PLLSAI1_CONFIG(PLLSAI1Init->PLLSAI1N, PLLSAI1Init->PLLSAI1P, PLLSAI1Init->PLLSAI1Q, P
 2100              		.loc 1 2159 0
 2101 004a 7B68     		ldr	r3, [r7, #4]
 2102 004c 9B68     		ldr	r3, [r3, #8]
 2103 004e 1A02     		lsls	r2, r3, #8
 2104 0050 7B68     		ldr	r3, [r7, #4]
 2105 0052 1B69     		ldr	r3, [r3, #16]
 2106 0054 5B08     		lsrs	r3, r3, #1
 2107 0056 013B     		subs	r3, r3, #1
 2108 0058 5B05     		lsls	r3, r3, #21
 2109 005a 1A43     		orrs	r2, r2, r3
 2110 005c 7B68     		ldr	r3, [r7, #4]
 2111 005e 5B69     		ldr	r3, [r3, #20]
 2112 0060 5B08     		lsrs	r3, r3, #1
 2113 0062 013B     		subs	r3, r3, #1
 2114 0064 5B06     		lsls	r3, r3, #25
 2115 0066 1A43     		orrs	r2, r2, r3
 2116 0068 7B68     		ldr	r3, [r7, #4]
 2117 006a DB68     		ldr	r3, [r3, #12]
 2118 006c DB06     		lsls	r3, r3, #27
 2119 006e 1449     		ldr	r1, .L176
 2120 0070 1343     		orrs	r3, r3, r2
 2121 0072 0B61     		str	r3, [r1, #16]
2160:E:/LiteOS/LiteOS_Lab/drivers/third_party/ST/STM32L4xx_HAL_Driver/Src\stm32l4xx_hal_rcc_ex.c **** #endif /* RCC_PLLSAI1M_DIV_1_16_SUPPORT */
2161:E:/LiteOS/LiteOS_Lab/drivers/third_party/ST/STM32L4xx_HAL_Driver/Src\stm32l4xx_hal_rcc_ex.c ****     /* Configure the PLLSAI1 Clock output(s) */
2162:E:/LiteOS/LiteOS_Lab/drivers/third_party/ST/STM32L4xx_HAL_Driver/Src\stm32l4xx_hal_rcc_ex.c ****     __HAL_RCC_PLLSAI1CLKOUT_ENABLE(PLLSAI1Init->PLLSAI1ClockOut);
 2122              		.loc 1 2162 0
ARM GAS  C:\Users\user\AppData\Local\Temp\ccsJwa9Q.s 			page 80


 2123 0074 124B     		ldr	r3, .L176
 2124 0076 1A69     		ldr	r2, [r3, #16]
 2125 0078 7B68     		ldr	r3, [r7, #4]
 2126 007a 9B69     		ldr	r3, [r3, #24]
 2127 007c 1049     		ldr	r1, .L176
 2128 007e 1343     		orrs	r3, r3, r2
 2129 0080 0B61     		str	r3, [r1, #16]
2163:E:/LiteOS/LiteOS_Lab/drivers/third_party/ST/STM32L4xx_HAL_Driver/Src\stm32l4xx_hal_rcc_ex.c **** 
2164:E:/LiteOS/LiteOS_Lab/drivers/third_party/ST/STM32L4xx_HAL_Driver/Src\stm32l4xx_hal_rcc_ex.c ****     /* Enable the PLLSAI1 again by setting PLLSAI1ON to 1*/
2165:E:/LiteOS/LiteOS_Lab/drivers/third_party/ST/STM32L4xx_HAL_Driver/Src\stm32l4xx_hal_rcc_ex.c ****     __HAL_RCC_PLLSAI1_ENABLE();
 2130              		.loc 1 2165 0
 2131 0082 0F4B     		ldr	r3, .L176
 2132 0084 1B68     		ldr	r3, [r3]
 2133 0086 0E4A     		ldr	r2, .L176
 2134 0088 43F08063 		orr	r3, r3, #67108864
 2135 008c 1360     		str	r3, [r2]
2166:E:/LiteOS/LiteOS_Lab/drivers/third_party/ST/STM32L4xx_HAL_Driver/Src\stm32l4xx_hal_rcc_ex.c **** 
2167:E:/LiteOS/LiteOS_Lab/drivers/third_party/ST/STM32L4xx_HAL_Driver/Src\stm32l4xx_hal_rcc_ex.c ****     /* Get Start Tick*/
2168:E:/LiteOS/LiteOS_Lab/drivers/third_party/ST/STM32L4xx_HAL_Driver/Src\stm32l4xx_hal_rcc_ex.c ****     tickstart = HAL_GetTick();
 2136              		.loc 1 2168 0
 2137 008e FFF7FEFF 		bl	HAL_GetTick
 2138 0092 B860     		str	r0, [r7, #8]
2169:E:/LiteOS/LiteOS_Lab/drivers/third_party/ST/STM32L4xx_HAL_Driver/Src\stm32l4xx_hal_rcc_ex.c **** 
2170:E:/LiteOS/LiteOS_Lab/drivers/third_party/ST/STM32L4xx_HAL_Driver/Src\stm32l4xx_hal_rcc_ex.c ****     /* Wait till PLLSAI1 is ready */
2171:E:/LiteOS/LiteOS_Lab/drivers/third_party/ST/STM32L4xx_HAL_Driver/Src\stm32l4xx_hal_rcc_ex.c ****     while(READ_BIT(RCC->CR, RCC_CR_PLLSAI1RDY) == RESET)
 2139              		.loc 1 2171 0
 2140 0094 09E0     		b	.L173
 2141              	.L174:
2172:E:/LiteOS/LiteOS_Lab/drivers/third_party/ST/STM32L4xx_HAL_Driver/Src\stm32l4xx_hal_rcc_ex.c ****     {
2173:E:/LiteOS/LiteOS_Lab/drivers/third_party/ST/STM32L4xx_HAL_Driver/Src\stm32l4xx_hal_rcc_ex.c ****       if((HAL_GetTick() - tickstart) > PLLSAI1_TIMEOUT_VALUE)
 2142              		.loc 1 2173 0
 2143 0096 FFF7FEFF 		bl	HAL_GetTick
 2144 009a 0246     		mov	r2, r0
 2145 009c BB68     		ldr	r3, [r7, #8]
 2146 009e D31A     		subs	r3, r2, r3
 2147 00a0 022B     		cmp	r3, #2
 2148 00a2 02D9     		bls	.L173
2174:E:/LiteOS/LiteOS_Lab/drivers/third_party/ST/STM32L4xx_HAL_Driver/Src\stm32l4xx_hal_rcc_ex.c ****       {
2175:E:/LiteOS/LiteOS_Lab/drivers/third_party/ST/STM32L4xx_HAL_Driver/Src\stm32l4xx_hal_rcc_ex.c ****         status = HAL_TIMEOUT;
 2149              		.loc 1 2175 0
 2150 00a4 0323     		movs	r3, #3
 2151 00a6 FB73     		strb	r3, [r7, #15]
2176:E:/LiteOS/LiteOS_Lab/drivers/third_party/ST/STM32L4xx_HAL_Driver/Src\stm32l4xx_hal_rcc_ex.c ****         break;
 2152              		.loc 1 2176 0
 2153 00a8 05E0     		b	.L172
 2154              	.L173:
2171:E:/LiteOS/LiteOS_Lab/drivers/third_party/ST/STM32L4xx_HAL_Driver/Src\stm32l4xx_hal_rcc_ex.c ****     {
 2155              		.loc 1 2171 0
 2156 00aa 054B     		ldr	r3, .L176
 2157 00ac 1B68     		ldr	r3, [r3]
 2158 00ae 03F00063 		and	r3, r3, #134217728
 2159 00b2 002B     		cmp	r3, #0
 2160 00b4 EFD0     		beq	.L174
 2161              	.L172:
2177:E:/LiteOS/LiteOS_Lab/drivers/third_party/ST/STM32L4xx_HAL_Driver/Src\stm32l4xx_hal_rcc_ex.c ****       }
2178:E:/LiteOS/LiteOS_Lab/drivers/third_party/ST/STM32L4xx_HAL_Driver/Src\stm32l4xx_hal_rcc_ex.c ****     }
2179:E:/LiteOS/LiteOS_Lab/drivers/third_party/ST/STM32L4xx_HAL_Driver/Src\stm32l4xx_hal_rcc_ex.c ****   }
ARM GAS  C:\Users\user\AppData\Local\Temp\ccsJwa9Q.s 			page 81


2180:E:/LiteOS/LiteOS_Lab/drivers/third_party/ST/STM32L4xx_HAL_Driver/Src\stm32l4xx_hal_rcc_ex.c **** 
2181:E:/LiteOS/LiteOS_Lab/drivers/third_party/ST/STM32L4xx_HAL_Driver/Src\stm32l4xx_hal_rcc_ex.c ****   return status;
 2162              		.loc 1 2181 0
 2163 00b6 FB7B     		ldrb	r3, [r7, #15]	@ zero_extendqisi2
2182:E:/LiteOS/LiteOS_Lab/drivers/third_party/ST/STM32L4xx_HAL_Driver/Src\stm32l4xx_hal_rcc_ex.c **** }
 2164              		.loc 1 2182 0
 2165 00b8 1846     		mov	r0, r3
 2166 00ba 1037     		adds	r7, r7, #16
 2167              	.LCFI19:
 2168              		.cfi_def_cfa_offset 8
 2169 00bc BD46     		mov	sp, r7
 2170              	.LCFI20:
 2171              		.cfi_def_cfa_register 13
 2172              		@ sp needed
 2173 00be 80BD     		pop	{r7, pc}
 2174              	.L177:
 2175              		.align	2
 2176              	.L176:
 2177 00c0 00100240 		.word	1073876992
 2178              		.cfi_endproc
 2179              	.LFE136:
 2181              		.section	.text.HAL_RCCEx_DisablePLLSAI1,"ax",%progbits
 2182              		.align	1
 2183              		.global	HAL_RCCEx_DisablePLLSAI1
 2184              		.syntax unified
 2185              		.thumb
 2186              		.thumb_func
 2187              		.fpu fpv4-sp-d16
 2189              	HAL_RCCEx_DisablePLLSAI1:
 2190              	.LFB137:
2183:E:/LiteOS/LiteOS_Lab/drivers/third_party/ST/STM32L4xx_HAL_Driver/Src\stm32l4xx_hal_rcc_ex.c **** 
2184:E:/LiteOS/LiteOS_Lab/drivers/third_party/ST/STM32L4xx_HAL_Driver/Src\stm32l4xx_hal_rcc_ex.c **** /**
2185:E:/LiteOS/LiteOS_Lab/drivers/third_party/ST/STM32L4xx_HAL_Driver/Src\stm32l4xx_hal_rcc_ex.c ****   * @brief  Disable PLLSAI1.
2186:E:/LiteOS/LiteOS_Lab/drivers/third_party/ST/STM32L4xx_HAL_Driver/Src\stm32l4xx_hal_rcc_ex.c ****   * @retval HAL status
2187:E:/LiteOS/LiteOS_Lab/drivers/third_party/ST/STM32L4xx_HAL_Driver/Src\stm32l4xx_hal_rcc_ex.c ****   */
2188:E:/LiteOS/LiteOS_Lab/drivers/third_party/ST/STM32L4xx_HAL_Driver/Src\stm32l4xx_hal_rcc_ex.c **** HAL_StatusTypeDef HAL_RCCEx_DisablePLLSAI1(void)
2189:E:/LiteOS/LiteOS_Lab/drivers/third_party/ST/STM32L4xx_HAL_Driver/Src\stm32l4xx_hal_rcc_ex.c **** {
 2191              		.loc 1 2189 0
 2192              		.cfi_startproc
 2193              		@ args = 0, pretend = 0, frame = 8
 2194              		@ frame_needed = 1, uses_anonymous_args = 0
 2195 0000 80B5     		push	{r7, lr}
 2196              	.LCFI21:
 2197              		.cfi_def_cfa_offset 8
 2198              		.cfi_offset 7, -8
 2199              		.cfi_offset 14, -4
 2200 0002 82B0     		sub	sp, sp, #8
 2201              	.LCFI22:
 2202              		.cfi_def_cfa_offset 16
 2203 0004 00AF     		add	r7, sp, #0
 2204              	.LCFI23:
 2205              		.cfi_def_cfa_register 7
2190:E:/LiteOS/LiteOS_Lab/drivers/third_party/ST/STM32L4xx_HAL_Driver/Src\stm32l4xx_hal_rcc_ex.c ****   uint32_t tickstart = 0U;
 2206              		.loc 1 2190 0
 2207 0006 0023     		movs	r3, #0
 2208 0008 3B60     		str	r3, [r7]
2191:E:/LiteOS/LiteOS_Lab/drivers/third_party/ST/STM32L4xx_HAL_Driver/Src\stm32l4xx_hal_rcc_ex.c ****   HAL_StatusTypeDef status = HAL_OK;
ARM GAS  C:\Users\user\AppData\Local\Temp\ccsJwa9Q.s 			page 82


 2209              		.loc 1 2191 0
 2210 000a 0023     		movs	r3, #0
 2211 000c FB71     		strb	r3, [r7, #7]
2192:E:/LiteOS/LiteOS_Lab/drivers/third_party/ST/STM32L4xx_HAL_Driver/Src\stm32l4xx_hal_rcc_ex.c **** 
2193:E:/LiteOS/LiteOS_Lab/drivers/third_party/ST/STM32L4xx_HAL_Driver/Src\stm32l4xx_hal_rcc_ex.c ****   /* Disable the PLLSAI1 */
2194:E:/LiteOS/LiteOS_Lab/drivers/third_party/ST/STM32L4xx_HAL_Driver/Src\stm32l4xx_hal_rcc_ex.c ****   __HAL_RCC_PLLSAI1_DISABLE();
 2212              		.loc 1 2194 0
 2213 000e 194B     		ldr	r3, .L184
 2214 0010 1B68     		ldr	r3, [r3]
 2215 0012 184A     		ldr	r2, .L184
 2216 0014 23F08063 		bic	r3, r3, #67108864
 2217 0018 1360     		str	r3, [r2]
2195:E:/LiteOS/LiteOS_Lab/drivers/third_party/ST/STM32L4xx_HAL_Driver/Src\stm32l4xx_hal_rcc_ex.c **** 
2196:E:/LiteOS/LiteOS_Lab/drivers/third_party/ST/STM32L4xx_HAL_Driver/Src\stm32l4xx_hal_rcc_ex.c ****   /* Get Start Tick*/
2197:E:/LiteOS/LiteOS_Lab/drivers/third_party/ST/STM32L4xx_HAL_Driver/Src\stm32l4xx_hal_rcc_ex.c ****   tickstart = HAL_GetTick();
 2218              		.loc 1 2197 0
 2219 001a FFF7FEFF 		bl	HAL_GetTick
 2220 001e 3860     		str	r0, [r7]
2198:E:/LiteOS/LiteOS_Lab/drivers/third_party/ST/STM32L4xx_HAL_Driver/Src\stm32l4xx_hal_rcc_ex.c **** 
2199:E:/LiteOS/LiteOS_Lab/drivers/third_party/ST/STM32L4xx_HAL_Driver/Src\stm32l4xx_hal_rcc_ex.c ****   /* Wait till PLLSAI1 is ready */
2200:E:/LiteOS/LiteOS_Lab/drivers/third_party/ST/STM32L4xx_HAL_Driver/Src\stm32l4xx_hal_rcc_ex.c ****   while(READ_BIT(RCC->CR, RCC_CR_PLLSAI1RDY) != RESET)
 2221              		.loc 1 2200 0
 2222 0020 09E0     		b	.L179
 2223              	.L181:
2201:E:/LiteOS/LiteOS_Lab/drivers/third_party/ST/STM32L4xx_HAL_Driver/Src\stm32l4xx_hal_rcc_ex.c ****   {
2202:E:/LiteOS/LiteOS_Lab/drivers/third_party/ST/STM32L4xx_HAL_Driver/Src\stm32l4xx_hal_rcc_ex.c ****     if((HAL_GetTick() - tickstart) > PLLSAI1_TIMEOUT_VALUE)
 2224              		.loc 1 2202 0
 2225 0022 FFF7FEFF 		bl	HAL_GetTick
 2226 0026 0246     		mov	r2, r0
 2227 0028 3B68     		ldr	r3, [r7]
 2228 002a D31A     		subs	r3, r2, r3
 2229 002c 022B     		cmp	r3, #2
 2230 002e 02D9     		bls	.L179
2203:E:/LiteOS/LiteOS_Lab/drivers/third_party/ST/STM32L4xx_HAL_Driver/Src\stm32l4xx_hal_rcc_ex.c ****     {
2204:E:/LiteOS/LiteOS_Lab/drivers/third_party/ST/STM32L4xx_HAL_Driver/Src\stm32l4xx_hal_rcc_ex.c ****       status = HAL_TIMEOUT;
 2231              		.loc 1 2204 0
 2232 0030 0323     		movs	r3, #3
 2233 0032 FB71     		strb	r3, [r7, #7]
2205:E:/LiteOS/LiteOS_Lab/drivers/third_party/ST/STM32L4xx_HAL_Driver/Src\stm32l4xx_hal_rcc_ex.c ****       break;
 2234              		.loc 1 2205 0
 2235 0034 05E0     		b	.L180
 2236              	.L179:
2200:E:/LiteOS/LiteOS_Lab/drivers/third_party/ST/STM32L4xx_HAL_Driver/Src\stm32l4xx_hal_rcc_ex.c ****   {
 2237              		.loc 1 2200 0
 2238 0036 0F4B     		ldr	r3, .L184
 2239 0038 1B68     		ldr	r3, [r3]
 2240 003a 03F00063 		and	r3, r3, #134217728
 2241 003e 002B     		cmp	r3, #0
 2242 0040 EFD1     		bne	.L181
 2243              	.L180:
2206:E:/LiteOS/LiteOS_Lab/drivers/third_party/ST/STM32L4xx_HAL_Driver/Src\stm32l4xx_hal_rcc_ex.c ****     }
2207:E:/LiteOS/LiteOS_Lab/drivers/third_party/ST/STM32L4xx_HAL_Driver/Src\stm32l4xx_hal_rcc_ex.c ****   }
2208:E:/LiteOS/LiteOS_Lab/drivers/third_party/ST/STM32L4xx_HAL_Driver/Src\stm32l4xx_hal_rcc_ex.c **** 
2209:E:/LiteOS/LiteOS_Lab/drivers/third_party/ST/STM32L4xx_HAL_Driver/Src\stm32l4xx_hal_rcc_ex.c ****   /* Disable the PLLSAI1 Clock outputs */
2210:E:/LiteOS/LiteOS_Lab/drivers/third_party/ST/STM32L4xx_HAL_Driver/Src\stm32l4xx_hal_rcc_ex.c ****   __HAL_RCC_PLLSAI1CLKOUT_DISABLE(RCC_PLLSAI1CFGR_PLLSAI1PEN|RCC_PLLSAI1CFGR_PLLSAI1QEN|RCC_PLLSAI1
 2244              		.loc 1 2210 0
 2245 0042 0C4B     		ldr	r3, .L184
ARM GAS  C:\Users\user\AppData\Local\Temp\ccsJwa9Q.s 			page 83


 2246 0044 1B69     		ldr	r3, [r3, #16]
 2247 0046 0B4A     		ldr	r2, .L184
 2248 0048 23F08873 		bic	r3, r3, #17825792
 2249 004c 23F48033 		bic	r3, r3, #65536
 2250 0050 1361     		str	r3, [r2, #16]
2211:E:/LiteOS/LiteOS_Lab/drivers/third_party/ST/STM32L4xx_HAL_Driver/Src\stm32l4xx_hal_rcc_ex.c **** 
2212:E:/LiteOS/LiteOS_Lab/drivers/third_party/ST/STM32L4xx_HAL_Driver/Src\stm32l4xx_hal_rcc_ex.c ****   /* Reset PLL source to save power if no PLLs on */
2213:E:/LiteOS/LiteOS_Lab/drivers/third_party/ST/STM32L4xx_HAL_Driver/Src\stm32l4xx_hal_rcc_ex.c ****   if((READ_BIT(RCC->CR, RCC_CR_PLLRDY) == RESET)
 2251              		.loc 1 2213 0
 2252 0052 084B     		ldr	r3, .L184
 2253 0054 1B68     		ldr	r3, [r3]
 2254 0056 03F00073 		and	r3, r3, #33554432
 2255 005a 002B     		cmp	r3, #0
 2256 005c 05D1     		bne	.L182
2214:E:/LiteOS/LiteOS_Lab/drivers/third_party/ST/STM32L4xx_HAL_Driver/Src\stm32l4xx_hal_rcc_ex.c **** #if defined(RCC_PLLSAI2_SUPPORT)
2215:E:/LiteOS/LiteOS_Lab/drivers/third_party/ST/STM32L4xx_HAL_Driver/Src\stm32l4xx_hal_rcc_ex.c ****       &&
2216:E:/LiteOS/LiteOS_Lab/drivers/third_party/ST/STM32L4xx_HAL_Driver/Src\stm32l4xx_hal_rcc_ex.c ****      (READ_BIT(RCC->CR, RCC_CR_PLLSAI2RDY) == RESET)
2217:E:/LiteOS/LiteOS_Lab/drivers/third_party/ST/STM32L4xx_HAL_Driver/Src\stm32l4xx_hal_rcc_ex.c **** #endif /* RCC_PLLSAI2_SUPPORT */
2218:E:/LiteOS/LiteOS_Lab/drivers/third_party/ST/STM32L4xx_HAL_Driver/Src\stm32l4xx_hal_rcc_ex.c ****     )
2219:E:/LiteOS/LiteOS_Lab/drivers/third_party/ST/STM32L4xx_HAL_Driver/Src\stm32l4xx_hal_rcc_ex.c ****   {
2220:E:/LiteOS/LiteOS_Lab/drivers/third_party/ST/STM32L4xx_HAL_Driver/Src\stm32l4xx_hal_rcc_ex.c ****     MODIFY_REG(RCC->PLLCFGR, RCC_PLLCFGR_PLLSRC, RCC_PLLSOURCE_NONE);
 2257              		.loc 1 2220 0
 2258 005e 054B     		ldr	r3, .L184
 2259 0060 DB68     		ldr	r3, [r3, #12]
 2260 0062 044A     		ldr	r2, .L184
 2261 0064 23F00303 		bic	r3, r3, #3
 2262 0068 D360     		str	r3, [r2, #12]
 2263              	.L182:
2221:E:/LiteOS/LiteOS_Lab/drivers/third_party/ST/STM32L4xx_HAL_Driver/Src\stm32l4xx_hal_rcc_ex.c ****   }
2222:E:/LiteOS/LiteOS_Lab/drivers/third_party/ST/STM32L4xx_HAL_Driver/Src\stm32l4xx_hal_rcc_ex.c **** 
2223:E:/LiteOS/LiteOS_Lab/drivers/third_party/ST/STM32L4xx_HAL_Driver/Src\stm32l4xx_hal_rcc_ex.c ****   return status;
 2264              		.loc 1 2223 0
 2265 006a FB79     		ldrb	r3, [r7, #7]	@ zero_extendqisi2
2224:E:/LiteOS/LiteOS_Lab/drivers/third_party/ST/STM32L4xx_HAL_Driver/Src\stm32l4xx_hal_rcc_ex.c **** }
 2266              		.loc 1 2224 0
 2267 006c 1846     		mov	r0, r3
 2268 006e 0837     		adds	r7, r7, #8
 2269              	.LCFI24:
 2270              		.cfi_def_cfa_offset 8
 2271 0070 BD46     		mov	sp, r7
 2272              	.LCFI25:
 2273              		.cfi_def_cfa_register 13
 2274              		@ sp needed
 2275 0072 80BD     		pop	{r7, pc}
 2276              	.L185:
 2277              		.align	2
 2278              	.L184:
 2279 0074 00100240 		.word	1073876992
 2280              		.cfi_endproc
 2281              	.LFE137:
 2283              		.section	.text.HAL_RCCEx_WakeUpStopCLKConfig,"ax",%progbits
 2284              		.align	1
 2285              		.global	HAL_RCCEx_WakeUpStopCLKConfig
 2286              		.syntax unified
 2287              		.thumb
 2288              		.thumb_func
 2289              		.fpu fpv4-sp-d16
ARM GAS  C:\Users\user\AppData\Local\Temp\ccsJwa9Q.s 			page 84


 2291              	HAL_RCCEx_WakeUpStopCLKConfig:
 2292              	.LFB138:
2225:E:/LiteOS/LiteOS_Lab/drivers/third_party/ST/STM32L4xx_HAL_Driver/Src\stm32l4xx_hal_rcc_ex.c **** 
2226:E:/LiteOS/LiteOS_Lab/drivers/third_party/ST/STM32L4xx_HAL_Driver/Src\stm32l4xx_hal_rcc_ex.c **** #if defined(RCC_PLLSAI2_SUPPORT)
2227:E:/LiteOS/LiteOS_Lab/drivers/third_party/ST/STM32L4xx_HAL_Driver/Src\stm32l4xx_hal_rcc_ex.c **** 
2228:E:/LiteOS/LiteOS_Lab/drivers/third_party/ST/STM32L4xx_HAL_Driver/Src\stm32l4xx_hal_rcc_ex.c **** /**
2229:E:/LiteOS/LiteOS_Lab/drivers/third_party/ST/STM32L4xx_HAL_Driver/Src\stm32l4xx_hal_rcc_ex.c ****   * @brief  Enable PLLSAI2.
2230:E:/LiteOS/LiteOS_Lab/drivers/third_party/ST/STM32L4xx_HAL_Driver/Src\stm32l4xx_hal_rcc_ex.c ****   * @param  PLLSAI2Init  pointer to an RCC_PLLSAI2InitTypeDef structure that
2231:E:/LiteOS/LiteOS_Lab/drivers/third_party/ST/STM32L4xx_HAL_Driver/Src\stm32l4xx_hal_rcc_ex.c ****   *         contains the configuration information for the PLLSAI2
2232:E:/LiteOS/LiteOS_Lab/drivers/third_party/ST/STM32L4xx_HAL_Driver/Src\stm32l4xx_hal_rcc_ex.c ****   * @retval HAL status
2233:E:/LiteOS/LiteOS_Lab/drivers/third_party/ST/STM32L4xx_HAL_Driver/Src\stm32l4xx_hal_rcc_ex.c ****   */
2234:E:/LiteOS/LiteOS_Lab/drivers/third_party/ST/STM32L4xx_HAL_Driver/Src\stm32l4xx_hal_rcc_ex.c **** HAL_StatusTypeDef HAL_RCCEx_EnablePLLSAI2(RCC_PLLSAI2InitTypeDef  *PLLSAI2Init)
2235:E:/LiteOS/LiteOS_Lab/drivers/third_party/ST/STM32L4xx_HAL_Driver/Src\stm32l4xx_hal_rcc_ex.c **** {
2236:E:/LiteOS/LiteOS_Lab/drivers/third_party/ST/STM32L4xx_HAL_Driver/Src\stm32l4xx_hal_rcc_ex.c ****   uint32_t tickstart = 0U;
2237:E:/LiteOS/LiteOS_Lab/drivers/third_party/ST/STM32L4xx_HAL_Driver/Src\stm32l4xx_hal_rcc_ex.c ****   HAL_StatusTypeDef status = HAL_OK;
2238:E:/LiteOS/LiteOS_Lab/drivers/third_party/ST/STM32L4xx_HAL_Driver/Src\stm32l4xx_hal_rcc_ex.c **** 
2239:E:/LiteOS/LiteOS_Lab/drivers/third_party/ST/STM32L4xx_HAL_Driver/Src\stm32l4xx_hal_rcc_ex.c ****   /* check for PLLSAI2 Parameters used to output PLLSAI2CLK */
2240:E:/LiteOS/LiteOS_Lab/drivers/third_party/ST/STM32L4xx_HAL_Driver/Src\stm32l4xx_hal_rcc_ex.c ****   assert_param(IS_RCC_PLLSAI2SOURCE(PLLSAI2Init->PLLSAI2Source));
2241:E:/LiteOS/LiteOS_Lab/drivers/third_party/ST/STM32L4xx_HAL_Driver/Src\stm32l4xx_hal_rcc_ex.c ****   assert_param(IS_RCC_PLLSAI2M_VALUE(PLLSAI2Init->PLLSAI2M));
2242:E:/LiteOS/LiteOS_Lab/drivers/third_party/ST/STM32L4xx_HAL_Driver/Src\stm32l4xx_hal_rcc_ex.c ****   assert_param(IS_RCC_PLLSAI2N_VALUE(PLLSAI2Init->PLLSAI2N));
2243:E:/LiteOS/LiteOS_Lab/drivers/third_party/ST/STM32L4xx_HAL_Driver/Src\stm32l4xx_hal_rcc_ex.c ****   assert_param(IS_RCC_PLLSAI2P_VALUE(PLLSAI2Init->PLLSAI2P));
2244:E:/LiteOS/LiteOS_Lab/drivers/third_party/ST/STM32L4xx_HAL_Driver/Src\stm32l4xx_hal_rcc_ex.c **** #if defined(RCC_PLLSAI2Q_DIV_SUPPORT)
2245:E:/LiteOS/LiteOS_Lab/drivers/third_party/ST/STM32L4xx_HAL_Driver/Src\stm32l4xx_hal_rcc_ex.c ****   assert_param(IS_RCC_PLLSAI2Q_VALUE(PLLSAI2Init->PLLSAI2Q));
2246:E:/LiteOS/LiteOS_Lab/drivers/third_party/ST/STM32L4xx_HAL_Driver/Src\stm32l4xx_hal_rcc_ex.c **** #endif /* RCC_PLLSAI2Q_DIV_SUPPORT */
2247:E:/LiteOS/LiteOS_Lab/drivers/third_party/ST/STM32L4xx_HAL_Driver/Src\stm32l4xx_hal_rcc_ex.c ****   assert_param(IS_RCC_PLLSAI2R_VALUE(PLLSAI2Init->PLLSAI2R));
2248:E:/LiteOS/LiteOS_Lab/drivers/third_party/ST/STM32L4xx_HAL_Driver/Src\stm32l4xx_hal_rcc_ex.c ****   assert_param(IS_RCC_PLLSAI2CLOCKOUT_VALUE(PLLSAI2Init->PLLSAI2ClockOut));
2249:E:/LiteOS/LiteOS_Lab/drivers/third_party/ST/STM32L4xx_HAL_Driver/Src\stm32l4xx_hal_rcc_ex.c **** 
2250:E:/LiteOS/LiteOS_Lab/drivers/third_party/ST/STM32L4xx_HAL_Driver/Src\stm32l4xx_hal_rcc_ex.c ****   /* Disable the PLLSAI2 */
2251:E:/LiteOS/LiteOS_Lab/drivers/third_party/ST/STM32L4xx_HAL_Driver/Src\stm32l4xx_hal_rcc_ex.c ****   __HAL_RCC_PLLSAI2_DISABLE();
2252:E:/LiteOS/LiteOS_Lab/drivers/third_party/ST/STM32L4xx_HAL_Driver/Src\stm32l4xx_hal_rcc_ex.c **** 
2253:E:/LiteOS/LiteOS_Lab/drivers/third_party/ST/STM32L4xx_HAL_Driver/Src\stm32l4xx_hal_rcc_ex.c ****   /* Get Start Tick*/
2254:E:/LiteOS/LiteOS_Lab/drivers/third_party/ST/STM32L4xx_HAL_Driver/Src\stm32l4xx_hal_rcc_ex.c ****   tickstart = HAL_GetTick();
2255:E:/LiteOS/LiteOS_Lab/drivers/third_party/ST/STM32L4xx_HAL_Driver/Src\stm32l4xx_hal_rcc_ex.c **** 
2256:E:/LiteOS/LiteOS_Lab/drivers/third_party/ST/STM32L4xx_HAL_Driver/Src\stm32l4xx_hal_rcc_ex.c ****   /* Wait till PLLSAI2 is ready to be updated */
2257:E:/LiteOS/LiteOS_Lab/drivers/third_party/ST/STM32L4xx_HAL_Driver/Src\stm32l4xx_hal_rcc_ex.c ****   while(READ_BIT(RCC->CR, RCC_CR_PLLSAI2RDY) != RESET)
2258:E:/LiteOS/LiteOS_Lab/drivers/third_party/ST/STM32L4xx_HAL_Driver/Src\stm32l4xx_hal_rcc_ex.c ****   {
2259:E:/LiteOS/LiteOS_Lab/drivers/third_party/ST/STM32L4xx_HAL_Driver/Src\stm32l4xx_hal_rcc_ex.c ****     if((HAL_GetTick() - tickstart) > PLLSAI2_TIMEOUT_VALUE)
2260:E:/LiteOS/LiteOS_Lab/drivers/third_party/ST/STM32L4xx_HAL_Driver/Src\stm32l4xx_hal_rcc_ex.c ****     {
2261:E:/LiteOS/LiteOS_Lab/drivers/third_party/ST/STM32L4xx_HAL_Driver/Src\stm32l4xx_hal_rcc_ex.c ****       status = HAL_TIMEOUT;
2262:E:/LiteOS/LiteOS_Lab/drivers/third_party/ST/STM32L4xx_HAL_Driver/Src\stm32l4xx_hal_rcc_ex.c ****       break;
2263:E:/LiteOS/LiteOS_Lab/drivers/third_party/ST/STM32L4xx_HAL_Driver/Src\stm32l4xx_hal_rcc_ex.c ****     }
2264:E:/LiteOS/LiteOS_Lab/drivers/third_party/ST/STM32L4xx_HAL_Driver/Src\stm32l4xx_hal_rcc_ex.c ****   }
2265:E:/LiteOS/LiteOS_Lab/drivers/third_party/ST/STM32L4xx_HAL_Driver/Src\stm32l4xx_hal_rcc_ex.c **** 
2266:E:/LiteOS/LiteOS_Lab/drivers/third_party/ST/STM32L4xx_HAL_Driver/Src\stm32l4xx_hal_rcc_ex.c ****   if(status == HAL_OK)
2267:E:/LiteOS/LiteOS_Lab/drivers/third_party/ST/STM32L4xx_HAL_Driver/Src\stm32l4xx_hal_rcc_ex.c ****   {
2268:E:/LiteOS/LiteOS_Lab/drivers/third_party/ST/STM32L4xx_HAL_Driver/Src\stm32l4xx_hal_rcc_ex.c **** #if defined(RCC_PLLSAI2M_DIV_1_16_SUPPORT) && defined(RCC_PLLSAI2Q_DIV_SUPPORT)
2269:E:/LiteOS/LiteOS_Lab/drivers/third_party/ST/STM32L4xx_HAL_Driver/Src\stm32l4xx_hal_rcc_ex.c ****     /* Configure the PLLSAI2 Multiplication factor N */
2270:E:/LiteOS/LiteOS_Lab/drivers/third_party/ST/STM32L4xx_HAL_Driver/Src\stm32l4xx_hal_rcc_ex.c ****     /* Configure the PLLSAI2 Division factors M, P, Q and R */
2271:E:/LiteOS/LiteOS_Lab/drivers/third_party/ST/STM32L4xx_HAL_Driver/Src\stm32l4xx_hal_rcc_ex.c ****     __HAL_RCC_PLLSAI2_CONFIG(PLLSAI2Init->PLLSAI2M, PLLSAI2Init->PLLSAI2N, PLLSAI2Init->PLLSAI2P, P
2272:E:/LiteOS/LiteOS_Lab/drivers/third_party/ST/STM32L4xx_HAL_Driver/Src\stm32l4xx_hal_rcc_ex.c **** #elif defined(RCC_PLLSAI2M_DIV_1_16_SUPPORT)
2273:E:/LiteOS/LiteOS_Lab/drivers/third_party/ST/STM32L4xx_HAL_Driver/Src\stm32l4xx_hal_rcc_ex.c ****     /* Configure the PLLSAI2 Multiplication factor N */
2274:E:/LiteOS/LiteOS_Lab/drivers/third_party/ST/STM32L4xx_HAL_Driver/Src\stm32l4xx_hal_rcc_ex.c ****     /* Configure the PLLSAI2 Division factors M, P and R */
2275:E:/LiteOS/LiteOS_Lab/drivers/third_party/ST/STM32L4xx_HAL_Driver/Src\stm32l4xx_hal_rcc_ex.c ****     __HAL_RCC_PLLSAI2_CONFIG(PLLSAI2Init->PLLSAI2M, PLLSAI2Init->PLLSAI2N, PLLSAI2Init->PLLSAI2P, P
2276:E:/LiteOS/LiteOS_Lab/drivers/third_party/ST/STM32L4xx_HAL_Driver/Src\stm32l4xx_hal_rcc_ex.c **** #elif defined(RCC_PLLSAI2Q_DIV_SUPPORT)
2277:E:/LiteOS/LiteOS_Lab/drivers/third_party/ST/STM32L4xx_HAL_Driver/Src\stm32l4xx_hal_rcc_ex.c ****     /* Configure the PLLSAI2 Multiplication factor N */
2278:E:/LiteOS/LiteOS_Lab/drivers/third_party/ST/STM32L4xx_HAL_Driver/Src\stm32l4xx_hal_rcc_ex.c ****     /* Configure the PLLSAI2 Division factors P, Q and R */
2279:E:/LiteOS/LiteOS_Lab/drivers/third_party/ST/STM32L4xx_HAL_Driver/Src\stm32l4xx_hal_rcc_ex.c ****     __HAL_RCC_PLLSAI2_CONFIG(PLLSAI2Init->PLLSAI2N, PLLSAI2Init->PLLSAI2P, PLLSAI2Init->PLLSAI2Q, P
ARM GAS  C:\Users\user\AppData\Local\Temp\ccsJwa9Q.s 			page 85


2280:E:/LiteOS/LiteOS_Lab/drivers/third_party/ST/STM32L4xx_HAL_Driver/Src\stm32l4xx_hal_rcc_ex.c **** #else
2281:E:/LiteOS/LiteOS_Lab/drivers/third_party/ST/STM32L4xx_HAL_Driver/Src\stm32l4xx_hal_rcc_ex.c ****     /* Configure the PLLSAI2 Multiplication factor N */
2282:E:/LiteOS/LiteOS_Lab/drivers/third_party/ST/STM32L4xx_HAL_Driver/Src\stm32l4xx_hal_rcc_ex.c ****     /* Configure the PLLSAI2 Division factors P and R */
2283:E:/LiteOS/LiteOS_Lab/drivers/third_party/ST/STM32L4xx_HAL_Driver/Src\stm32l4xx_hal_rcc_ex.c ****     __HAL_RCC_PLLSAI2_CONFIG(PLLSAI2Init->PLLSAI2N, PLLSAI2Init->PLLSAI2P, PLLSAI2Init->PLLSAI2R);
2284:E:/LiteOS/LiteOS_Lab/drivers/third_party/ST/STM32L4xx_HAL_Driver/Src\stm32l4xx_hal_rcc_ex.c **** #endif /* RCC_PLLSAI2M_DIV_1_16_SUPPORT && RCC_PLLSAI2Q_DIV_SUPPORT */
2285:E:/LiteOS/LiteOS_Lab/drivers/third_party/ST/STM32L4xx_HAL_Driver/Src\stm32l4xx_hal_rcc_ex.c ****     /* Configure the PLLSAI2 Clock output(s) */
2286:E:/LiteOS/LiteOS_Lab/drivers/third_party/ST/STM32L4xx_HAL_Driver/Src\stm32l4xx_hal_rcc_ex.c ****     __HAL_RCC_PLLSAI2CLKOUT_ENABLE(PLLSAI2Init->PLLSAI2ClockOut);
2287:E:/LiteOS/LiteOS_Lab/drivers/third_party/ST/STM32L4xx_HAL_Driver/Src\stm32l4xx_hal_rcc_ex.c **** 
2288:E:/LiteOS/LiteOS_Lab/drivers/third_party/ST/STM32L4xx_HAL_Driver/Src\stm32l4xx_hal_rcc_ex.c ****     /* Enable the PLLSAI2 again by setting PLLSAI2ON to 1*/
2289:E:/LiteOS/LiteOS_Lab/drivers/third_party/ST/STM32L4xx_HAL_Driver/Src\stm32l4xx_hal_rcc_ex.c ****     __HAL_RCC_PLLSAI2_ENABLE();
2290:E:/LiteOS/LiteOS_Lab/drivers/third_party/ST/STM32L4xx_HAL_Driver/Src\stm32l4xx_hal_rcc_ex.c **** 
2291:E:/LiteOS/LiteOS_Lab/drivers/third_party/ST/STM32L4xx_HAL_Driver/Src\stm32l4xx_hal_rcc_ex.c ****     /* Get Start Tick*/
2292:E:/LiteOS/LiteOS_Lab/drivers/third_party/ST/STM32L4xx_HAL_Driver/Src\stm32l4xx_hal_rcc_ex.c ****     tickstart = HAL_GetTick();
2293:E:/LiteOS/LiteOS_Lab/drivers/third_party/ST/STM32L4xx_HAL_Driver/Src\stm32l4xx_hal_rcc_ex.c **** 
2294:E:/LiteOS/LiteOS_Lab/drivers/third_party/ST/STM32L4xx_HAL_Driver/Src\stm32l4xx_hal_rcc_ex.c ****     /* Wait till PLLSAI2 is ready */
2295:E:/LiteOS/LiteOS_Lab/drivers/third_party/ST/STM32L4xx_HAL_Driver/Src\stm32l4xx_hal_rcc_ex.c ****     while(READ_BIT(RCC->CR, RCC_CR_PLLSAI2RDY) == RESET)
2296:E:/LiteOS/LiteOS_Lab/drivers/third_party/ST/STM32L4xx_HAL_Driver/Src\stm32l4xx_hal_rcc_ex.c ****     {
2297:E:/LiteOS/LiteOS_Lab/drivers/third_party/ST/STM32L4xx_HAL_Driver/Src\stm32l4xx_hal_rcc_ex.c ****       if((HAL_GetTick() - tickstart) > PLLSAI2_TIMEOUT_VALUE)
2298:E:/LiteOS/LiteOS_Lab/drivers/third_party/ST/STM32L4xx_HAL_Driver/Src\stm32l4xx_hal_rcc_ex.c ****       {
2299:E:/LiteOS/LiteOS_Lab/drivers/third_party/ST/STM32L4xx_HAL_Driver/Src\stm32l4xx_hal_rcc_ex.c ****         status = HAL_TIMEOUT;
2300:E:/LiteOS/LiteOS_Lab/drivers/third_party/ST/STM32L4xx_HAL_Driver/Src\stm32l4xx_hal_rcc_ex.c ****         break;
2301:E:/LiteOS/LiteOS_Lab/drivers/third_party/ST/STM32L4xx_HAL_Driver/Src\stm32l4xx_hal_rcc_ex.c ****       }
2302:E:/LiteOS/LiteOS_Lab/drivers/third_party/ST/STM32L4xx_HAL_Driver/Src\stm32l4xx_hal_rcc_ex.c ****     }
2303:E:/LiteOS/LiteOS_Lab/drivers/third_party/ST/STM32L4xx_HAL_Driver/Src\stm32l4xx_hal_rcc_ex.c ****   }
2304:E:/LiteOS/LiteOS_Lab/drivers/third_party/ST/STM32L4xx_HAL_Driver/Src\stm32l4xx_hal_rcc_ex.c **** 
2305:E:/LiteOS/LiteOS_Lab/drivers/third_party/ST/STM32L4xx_HAL_Driver/Src\stm32l4xx_hal_rcc_ex.c ****   return status;
2306:E:/LiteOS/LiteOS_Lab/drivers/third_party/ST/STM32L4xx_HAL_Driver/Src\stm32l4xx_hal_rcc_ex.c **** }
2307:E:/LiteOS/LiteOS_Lab/drivers/third_party/ST/STM32L4xx_HAL_Driver/Src\stm32l4xx_hal_rcc_ex.c **** 
2308:E:/LiteOS/LiteOS_Lab/drivers/third_party/ST/STM32L4xx_HAL_Driver/Src\stm32l4xx_hal_rcc_ex.c **** /**
2309:E:/LiteOS/LiteOS_Lab/drivers/third_party/ST/STM32L4xx_HAL_Driver/Src\stm32l4xx_hal_rcc_ex.c ****   * @brief  Disable PLLISAI2.
2310:E:/LiteOS/LiteOS_Lab/drivers/third_party/ST/STM32L4xx_HAL_Driver/Src\stm32l4xx_hal_rcc_ex.c ****   * @retval HAL status
2311:E:/LiteOS/LiteOS_Lab/drivers/third_party/ST/STM32L4xx_HAL_Driver/Src\stm32l4xx_hal_rcc_ex.c ****   */
2312:E:/LiteOS/LiteOS_Lab/drivers/third_party/ST/STM32L4xx_HAL_Driver/Src\stm32l4xx_hal_rcc_ex.c **** HAL_StatusTypeDef HAL_RCCEx_DisablePLLSAI2(void)
2313:E:/LiteOS/LiteOS_Lab/drivers/third_party/ST/STM32L4xx_HAL_Driver/Src\stm32l4xx_hal_rcc_ex.c **** {
2314:E:/LiteOS/LiteOS_Lab/drivers/third_party/ST/STM32L4xx_HAL_Driver/Src\stm32l4xx_hal_rcc_ex.c ****   uint32_t tickstart = 0U;
2315:E:/LiteOS/LiteOS_Lab/drivers/third_party/ST/STM32L4xx_HAL_Driver/Src\stm32l4xx_hal_rcc_ex.c ****   HAL_StatusTypeDef status = HAL_OK;
2316:E:/LiteOS/LiteOS_Lab/drivers/third_party/ST/STM32L4xx_HAL_Driver/Src\stm32l4xx_hal_rcc_ex.c **** 
2317:E:/LiteOS/LiteOS_Lab/drivers/third_party/ST/STM32L4xx_HAL_Driver/Src\stm32l4xx_hal_rcc_ex.c ****   /* Disable the PLLSAI2 */
2318:E:/LiteOS/LiteOS_Lab/drivers/third_party/ST/STM32L4xx_HAL_Driver/Src\stm32l4xx_hal_rcc_ex.c ****   __HAL_RCC_PLLSAI2_DISABLE();
2319:E:/LiteOS/LiteOS_Lab/drivers/third_party/ST/STM32L4xx_HAL_Driver/Src\stm32l4xx_hal_rcc_ex.c **** 
2320:E:/LiteOS/LiteOS_Lab/drivers/third_party/ST/STM32L4xx_HAL_Driver/Src\stm32l4xx_hal_rcc_ex.c ****   /* Get Start Tick*/
2321:E:/LiteOS/LiteOS_Lab/drivers/third_party/ST/STM32L4xx_HAL_Driver/Src\stm32l4xx_hal_rcc_ex.c ****   tickstart = HAL_GetTick();
2322:E:/LiteOS/LiteOS_Lab/drivers/third_party/ST/STM32L4xx_HAL_Driver/Src\stm32l4xx_hal_rcc_ex.c **** 
2323:E:/LiteOS/LiteOS_Lab/drivers/third_party/ST/STM32L4xx_HAL_Driver/Src\stm32l4xx_hal_rcc_ex.c ****   /* Wait till PLLSAI2 is ready */
2324:E:/LiteOS/LiteOS_Lab/drivers/third_party/ST/STM32L4xx_HAL_Driver/Src\stm32l4xx_hal_rcc_ex.c ****   while(READ_BIT(RCC->CR, RCC_CR_PLLSAI2RDY) != RESET)
2325:E:/LiteOS/LiteOS_Lab/drivers/third_party/ST/STM32L4xx_HAL_Driver/Src\stm32l4xx_hal_rcc_ex.c ****   {
2326:E:/LiteOS/LiteOS_Lab/drivers/third_party/ST/STM32L4xx_HAL_Driver/Src\stm32l4xx_hal_rcc_ex.c ****     if((HAL_GetTick() - tickstart) > PLLSAI2_TIMEOUT_VALUE)
2327:E:/LiteOS/LiteOS_Lab/drivers/third_party/ST/STM32L4xx_HAL_Driver/Src\stm32l4xx_hal_rcc_ex.c ****     {
2328:E:/LiteOS/LiteOS_Lab/drivers/third_party/ST/STM32L4xx_HAL_Driver/Src\stm32l4xx_hal_rcc_ex.c ****       status = HAL_TIMEOUT;
2329:E:/LiteOS/LiteOS_Lab/drivers/third_party/ST/STM32L4xx_HAL_Driver/Src\stm32l4xx_hal_rcc_ex.c ****       break;
2330:E:/LiteOS/LiteOS_Lab/drivers/third_party/ST/STM32L4xx_HAL_Driver/Src\stm32l4xx_hal_rcc_ex.c ****     }
2331:E:/LiteOS/LiteOS_Lab/drivers/third_party/ST/STM32L4xx_HAL_Driver/Src\stm32l4xx_hal_rcc_ex.c ****   }
2332:E:/LiteOS/LiteOS_Lab/drivers/third_party/ST/STM32L4xx_HAL_Driver/Src\stm32l4xx_hal_rcc_ex.c **** 
2333:E:/LiteOS/LiteOS_Lab/drivers/third_party/ST/STM32L4xx_HAL_Driver/Src\stm32l4xx_hal_rcc_ex.c ****   /* Disable the PLLSAI2 Clock outputs */
2334:E:/LiteOS/LiteOS_Lab/drivers/third_party/ST/STM32L4xx_HAL_Driver/Src\stm32l4xx_hal_rcc_ex.c **** #if defined(RCC_PLLSAI2Q_DIV_SUPPORT)
2335:E:/LiteOS/LiteOS_Lab/drivers/third_party/ST/STM32L4xx_HAL_Driver/Src\stm32l4xx_hal_rcc_ex.c ****   __HAL_RCC_PLLSAI2CLKOUT_DISABLE(RCC_PLLSAI2CFGR_PLLSAI2PEN|RCC_PLLSAI2CFGR_PLLSAI2QEN|RCC_PLLSAI2
2336:E:/LiteOS/LiteOS_Lab/drivers/third_party/ST/STM32L4xx_HAL_Driver/Src\stm32l4xx_hal_rcc_ex.c **** #else
ARM GAS  C:\Users\user\AppData\Local\Temp\ccsJwa9Q.s 			page 86


2337:E:/LiteOS/LiteOS_Lab/drivers/third_party/ST/STM32L4xx_HAL_Driver/Src\stm32l4xx_hal_rcc_ex.c ****   __HAL_RCC_PLLSAI2CLKOUT_DISABLE(RCC_PLLSAI2CFGR_PLLSAI2PEN|RCC_PLLSAI2CFGR_PLLSAI2REN);
2338:E:/LiteOS/LiteOS_Lab/drivers/third_party/ST/STM32L4xx_HAL_Driver/Src\stm32l4xx_hal_rcc_ex.c **** #endif /* RCC_PLLSAI2M_DIV_1_16_SUPPORT && RCC_PLLSAI2Q_DIV_SUPPORT */
2339:E:/LiteOS/LiteOS_Lab/drivers/third_party/ST/STM32L4xx_HAL_Driver/Src\stm32l4xx_hal_rcc_ex.c **** 
2340:E:/LiteOS/LiteOS_Lab/drivers/third_party/ST/STM32L4xx_HAL_Driver/Src\stm32l4xx_hal_rcc_ex.c ****   /* Reset PLL source to save power if no PLLs on */
2341:E:/LiteOS/LiteOS_Lab/drivers/third_party/ST/STM32L4xx_HAL_Driver/Src\stm32l4xx_hal_rcc_ex.c ****   if((READ_BIT(RCC->CR, RCC_CR_PLLRDY) == RESET)
2342:E:/LiteOS/LiteOS_Lab/drivers/third_party/ST/STM32L4xx_HAL_Driver/Src\stm32l4xx_hal_rcc_ex.c ****       &&
2343:E:/LiteOS/LiteOS_Lab/drivers/third_party/ST/STM32L4xx_HAL_Driver/Src\stm32l4xx_hal_rcc_ex.c ****      (READ_BIT(RCC->CR, RCC_CR_PLLSAI1RDY) == RESET)
2344:E:/LiteOS/LiteOS_Lab/drivers/third_party/ST/STM32L4xx_HAL_Driver/Src\stm32l4xx_hal_rcc_ex.c ****     )
2345:E:/LiteOS/LiteOS_Lab/drivers/third_party/ST/STM32L4xx_HAL_Driver/Src\stm32l4xx_hal_rcc_ex.c ****   {
2346:E:/LiteOS/LiteOS_Lab/drivers/third_party/ST/STM32L4xx_HAL_Driver/Src\stm32l4xx_hal_rcc_ex.c ****     MODIFY_REG(RCC->PLLCFGR, RCC_PLLCFGR_PLLSRC, RCC_PLLSOURCE_NONE);
2347:E:/LiteOS/LiteOS_Lab/drivers/third_party/ST/STM32L4xx_HAL_Driver/Src\stm32l4xx_hal_rcc_ex.c ****   }
2348:E:/LiteOS/LiteOS_Lab/drivers/third_party/ST/STM32L4xx_HAL_Driver/Src\stm32l4xx_hal_rcc_ex.c **** 
2349:E:/LiteOS/LiteOS_Lab/drivers/third_party/ST/STM32L4xx_HAL_Driver/Src\stm32l4xx_hal_rcc_ex.c ****   return status;
2350:E:/LiteOS/LiteOS_Lab/drivers/third_party/ST/STM32L4xx_HAL_Driver/Src\stm32l4xx_hal_rcc_ex.c **** }
2351:E:/LiteOS/LiteOS_Lab/drivers/third_party/ST/STM32L4xx_HAL_Driver/Src\stm32l4xx_hal_rcc_ex.c **** 
2352:E:/LiteOS/LiteOS_Lab/drivers/third_party/ST/STM32L4xx_HAL_Driver/Src\stm32l4xx_hal_rcc_ex.c **** #endif /* RCC_PLLSAI2_SUPPORT */
2353:E:/LiteOS/LiteOS_Lab/drivers/third_party/ST/STM32L4xx_HAL_Driver/Src\stm32l4xx_hal_rcc_ex.c **** 
2354:E:/LiteOS/LiteOS_Lab/drivers/third_party/ST/STM32L4xx_HAL_Driver/Src\stm32l4xx_hal_rcc_ex.c **** /**
2355:E:/LiteOS/LiteOS_Lab/drivers/third_party/ST/STM32L4xx_HAL_Driver/Src\stm32l4xx_hal_rcc_ex.c ****   * @brief  Configure the oscillator clock source for wakeup from Stop and CSS backup clock.
2356:E:/LiteOS/LiteOS_Lab/drivers/third_party/ST/STM32L4xx_HAL_Driver/Src\stm32l4xx_hal_rcc_ex.c ****   * @param  WakeUpClk  Wakeup clock
2357:E:/LiteOS/LiteOS_Lab/drivers/third_party/ST/STM32L4xx_HAL_Driver/Src\stm32l4xx_hal_rcc_ex.c ****   *         This parameter can be one of the following values:
2358:E:/LiteOS/LiteOS_Lab/drivers/third_party/ST/STM32L4xx_HAL_Driver/Src\stm32l4xx_hal_rcc_ex.c ****   *            @arg @ref RCC_STOP_WAKEUPCLOCK_MSI  MSI oscillator selection
2359:E:/LiteOS/LiteOS_Lab/drivers/third_party/ST/STM32L4xx_HAL_Driver/Src\stm32l4xx_hal_rcc_ex.c ****   *            @arg @ref RCC_STOP_WAKEUPCLOCK_HSI  HSI oscillator selection
2360:E:/LiteOS/LiteOS_Lab/drivers/third_party/ST/STM32L4xx_HAL_Driver/Src\stm32l4xx_hal_rcc_ex.c ****   * @note   This function shall not be called after the Clock Security System on HSE has been
2361:E:/LiteOS/LiteOS_Lab/drivers/third_party/ST/STM32L4xx_HAL_Driver/Src\stm32l4xx_hal_rcc_ex.c ****   *         enabled.
2362:E:/LiteOS/LiteOS_Lab/drivers/third_party/ST/STM32L4xx_HAL_Driver/Src\stm32l4xx_hal_rcc_ex.c ****   * @retval None
2363:E:/LiteOS/LiteOS_Lab/drivers/third_party/ST/STM32L4xx_HAL_Driver/Src\stm32l4xx_hal_rcc_ex.c ****   */
2364:E:/LiteOS/LiteOS_Lab/drivers/third_party/ST/STM32L4xx_HAL_Driver/Src\stm32l4xx_hal_rcc_ex.c **** void HAL_RCCEx_WakeUpStopCLKConfig(uint32_t WakeUpClk)
2365:E:/LiteOS/LiteOS_Lab/drivers/third_party/ST/STM32L4xx_HAL_Driver/Src\stm32l4xx_hal_rcc_ex.c **** {
 2293              		.loc 1 2365 0
 2294              		.cfi_startproc
 2295              		@ args = 0, pretend = 0, frame = 8
 2296              		@ frame_needed = 1, uses_anonymous_args = 0
 2297              		@ link register save eliminated.
 2298 0000 80B4     		push	{r7}
 2299              	.LCFI26:
 2300              		.cfi_def_cfa_offset 4
 2301              		.cfi_offset 7, -4
 2302 0002 83B0     		sub	sp, sp, #12
 2303              	.LCFI27:
 2304              		.cfi_def_cfa_offset 16
 2305 0004 00AF     		add	r7, sp, #0
 2306              	.LCFI28:
 2307              		.cfi_def_cfa_register 7
 2308 0006 7860     		str	r0, [r7, #4]
2366:E:/LiteOS/LiteOS_Lab/drivers/third_party/ST/STM32L4xx_HAL_Driver/Src\stm32l4xx_hal_rcc_ex.c ****   assert_param(IS_RCC_STOP_WAKEUPCLOCK(WakeUpClk));
2367:E:/LiteOS/LiteOS_Lab/drivers/third_party/ST/STM32L4xx_HAL_Driver/Src\stm32l4xx_hal_rcc_ex.c **** 
2368:E:/LiteOS/LiteOS_Lab/drivers/third_party/ST/STM32L4xx_HAL_Driver/Src\stm32l4xx_hal_rcc_ex.c ****   __HAL_RCC_WAKEUPSTOP_CLK_CONFIG(WakeUpClk);
 2309              		.loc 1 2368 0
 2310 0008 064B     		ldr	r3, .L187
 2311 000a 9B68     		ldr	r3, [r3, #8]
 2312 000c 23F40042 		bic	r2, r3, #32768
 2313 0010 0449     		ldr	r1, .L187
 2314 0012 7B68     		ldr	r3, [r7, #4]
 2315 0014 1343     		orrs	r3, r3, r2
 2316 0016 8B60     		str	r3, [r1, #8]
2369:E:/LiteOS/LiteOS_Lab/drivers/third_party/ST/STM32L4xx_HAL_Driver/Src\stm32l4xx_hal_rcc_ex.c **** }
ARM GAS  C:\Users\user\AppData\Local\Temp\ccsJwa9Q.s 			page 87


 2317              		.loc 1 2369 0
 2318 0018 00BF     		nop
 2319 001a 0C37     		adds	r7, r7, #12
 2320              	.LCFI29:
 2321              		.cfi_def_cfa_offset 4
 2322 001c BD46     		mov	sp, r7
 2323              	.LCFI30:
 2324              		.cfi_def_cfa_register 13
 2325              		@ sp needed
 2326 001e 5DF8047B 		ldr	r7, [sp], #4
 2327              	.LCFI31:
 2328              		.cfi_restore 7
 2329              		.cfi_def_cfa_offset 0
 2330 0022 7047     		bx	lr
 2331              	.L188:
 2332              		.align	2
 2333              	.L187:
 2334 0024 00100240 		.word	1073876992
 2335              		.cfi_endproc
 2336              	.LFE138:
 2338              		.section	.text.HAL_RCCEx_StandbyMSIRangeConfig,"ax",%progbits
 2339              		.align	1
 2340              		.global	HAL_RCCEx_StandbyMSIRangeConfig
 2341              		.syntax unified
 2342              		.thumb
 2343              		.thumb_func
 2344              		.fpu fpv4-sp-d16
 2346              	HAL_RCCEx_StandbyMSIRangeConfig:
 2347              	.LFB139:
2370:E:/LiteOS/LiteOS_Lab/drivers/third_party/ST/STM32L4xx_HAL_Driver/Src\stm32l4xx_hal_rcc_ex.c **** 
2371:E:/LiteOS/LiteOS_Lab/drivers/third_party/ST/STM32L4xx_HAL_Driver/Src\stm32l4xx_hal_rcc_ex.c **** /**
2372:E:/LiteOS/LiteOS_Lab/drivers/third_party/ST/STM32L4xx_HAL_Driver/Src\stm32l4xx_hal_rcc_ex.c ****   * @brief  Configure the MSI range after standby mode.
2373:E:/LiteOS/LiteOS_Lab/drivers/third_party/ST/STM32L4xx_HAL_Driver/Src\stm32l4xx_hal_rcc_ex.c ****   * @note   After Standby its frequency can be selected between 4 possible values (1, 2, 4 or 8 MHz
2374:E:/LiteOS/LiteOS_Lab/drivers/third_party/ST/STM32L4xx_HAL_Driver/Src\stm32l4xx_hal_rcc_ex.c ****   * @param  MSIRange  MSI range
2375:E:/LiteOS/LiteOS_Lab/drivers/third_party/ST/STM32L4xx_HAL_Driver/Src\stm32l4xx_hal_rcc_ex.c ****   *         This parameter can be one of the following values:
2376:E:/LiteOS/LiteOS_Lab/drivers/third_party/ST/STM32L4xx_HAL_Driver/Src\stm32l4xx_hal_rcc_ex.c ****   *            @arg @ref RCC_MSIRANGE_4  Range 4 around 1 MHz
2377:E:/LiteOS/LiteOS_Lab/drivers/third_party/ST/STM32L4xx_HAL_Driver/Src\stm32l4xx_hal_rcc_ex.c ****   *            @arg @ref RCC_MSIRANGE_5  Range 5 around 2 MHz
2378:E:/LiteOS/LiteOS_Lab/drivers/third_party/ST/STM32L4xx_HAL_Driver/Src\stm32l4xx_hal_rcc_ex.c ****   *            @arg @ref RCC_MSIRANGE_6  Range 6 around 4 MHz (reset value)
2379:E:/LiteOS/LiteOS_Lab/drivers/third_party/ST/STM32L4xx_HAL_Driver/Src\stm32l4xx_hal_rcc_ex.c ****   *            @arg @ref RCC_MSIRANGE_7  Range 7 around 8 MHz
2380:E:/LiteOS/LiteOS_Lab/drivers/third_party/ST/STM32L4xx_HAL_Driver/Src\stm32l4xx_hal_rcc_ex.c ****   * @retval None
2381:E:/LiteOS/LiteOS_Lab/drivers/third_party/ST/STM32L4xx_HAL_Driver/Src\stm32l4xx_hal_rcc_ex.c ****   */
2382:E:/LiteOS/LiteOS_Lab/drivers/third_party/ST/STM32L4xx_HAL_Driver/Src\stm32l4xx_hal_rcc_ex.c **** void HAL_RCCEx_StandbyMSIRangeConfig(uint32_t MSIRange)
2383:E:/LiteOS/LiteOS_Lab/drivers/third_party/ST/STM32L4xx_HAL_Driver/Src\stm32l4xx_hal_rcc_ex.c **** {
 2348              		.loc 1 2383 0
 2349              		.cfi_startproc
 2350              		@ args = 0, pretend = 0, frame = 8
 2351              		@ frame_needed = 1, uses_anonymous_args = 0
 2352              		@ link register save eliminated.
 2353 0000 80B4     		push	{r7}
 2354              	.LCFI32:
 2355              		.cfi_def_cfa_offset 4
 2356              		.cfi_offset 7, -4
 2357 0002 83B0     		sub	sp, sp, #12
 2358              	.LCFI33:
 2359              		.cfi_def_cfa_offset 16
 2360 0004 00AF     		add	r7, sp, #0
 2361              	.LCFI34:
ARM GAS  C:\Users\user\AppData\Local\Temp\ccsJwa9Q.s 			page 88


 2362              		.cfi_def_cfa_register 7
 2363 0006 7860     		str	r0, [r7, #4]
2384:E:/LiteOS/LiteOS_Lab/drivers/third_party/ST/STM32L4xx_HAL_Driver/Src\stm32l4xx_hal_rcc_ex.c ****   assert_param(IS_RCC_MSI_STANDBY_CLOCK_RANGE(MSIRange));
2385:E:/LiteOS/LiteOS_Lab/drivers/third_party/ST/STM32L4xx_HAL_Driver/Src\stm32l4xx_hal_rcc_ex.c **** 
2386:E:/LiteOS/LiteOS_Lab/drivers/third_party/ST/STM32L4xx_HAL_Driver/Src\stm32l4xx_hal_rcc_ex.c ****   __HAL_RCC_MSI_STANDBY_RANGE_CONFIG(MSIRange);
 2364              		.loc 1 2386 0
 2365 0008 084B     		ldr	r3, .L190
 2366 000a D3F89430 		ldr	r3, [r3, #148]
 2367 000e 23F47062 		bic	r2, r3, #3840
 2368 0012 7B68     		ldr	r3, [r7, #4]
 2369 0014 1B01     		lsls	r3, r3, #4
 2370 0016 0549     		ldr	r1, .L190
 2371 0018 1343     		orrs	r3, r3, r2
 2372 001a C1F89430 		str	r3, [r1, #148]
2387:E:/LiteOS/LiteOS_Lab/drivers/third_party/ST/STM32L4xx_HAL_Driver/Src\stm32l4xx_hal_rcc_ex.c **** }
 2373              		.loc 1 2387 0
 2374 001e 00BF     		nop
 2375 0020 0C37     		adds	r7, r7, #12
 2376              	.LCFI35:
 2377              		.cfi_def_cfa_offset 4
 2378 0022 BD46     		mov	sp, r7
 2379              	.LCFI36:
 2380              		.cfi_def_cfa_register 13
 2381              		@ sp needed
 2382 0024 5DF8047B 		ldr	r7, [sp], #4
 2383              	.LCFI37:
 2384              		.cfi_restore 7
 2385              		.cfi_def_cfa_offset 0
 2386 0028 7047     		bx	lr
 2387              	.L191:
 2388 002a 00BF     		.align	2
 2389              	.L190:
 2390 002c 00100240 		.word	1073876992
 2391              		.cfi_endproc
 2392              	.LFE139:
 2394              		.section	.text.HAL_RCCEx_EnableLSECSS,"ax",%progbits
 2395              		.align	1
 2396              		.global	HAL_RCCEx_EnableLSECSS
 2397              		.syntax unified
 2398              		.thumb
 2399              		.thumb_func
 2400              		.fpu fpv4-sp-d16
 2402              	HAL_RCCEx_EnableLSECSS:
 2403              	.LFB140:
2388:E:/LiteOS/LiteOS_Lab/drivers/third_party/ST/STM32L4xx_HAL_Driver/Src\stm32l4xx_hal_rcc_ex.c **** 
2389:E:/LiteOS/LiteOS_Lab/drivers/third_party/ST/STM32L4xx_HAL_Driver/Src\stm32l4xx_hal_rcc_ex.c **** /**
2390:E:/LiteOS/LiteOS_Lab/drivers/third_party/ST/STM32L4xx_HAL_Driver/Src\stm32l4xx_hal_rcc_ex.c ****   * @brief  Enable the LSE Clock Security System.
2391:E:/LiteOS/LiteOS_Lab/drivers/third_party/ST/STM32L4xx_HAL_Driver/Src\stm32l4xx_hal_rcc_ex.c ****   * @note   Prior to enable the LSE Clock Security System, LSE oscillator is to be enabled
2392:E:/LiteOS/LiteOS_Lab/drivers/third_party/ST/STM32L4xx_HAL_Driver/Src\stm32l4xx_hal_rcc_ex.c ****   *         with HAL_RCC_OscConfig() and the LSE oscillator clock is to be selected as RTC
2393:E:/LiteOS/LiteOS_Lab/drivers/third_party/ST/STM32L4xx_HAL_Driver/Src\stm32l4xx_hal_rcc_ex.c ****   *         clock with HAL_RCCEx_PeriphCLKConfig().
2394:E:/LiteOS/LiteOS_Lab/drivers/third_party/ST/STM32L4xx_HAL_Driver/Src\stm32l4xx_hal_rcc_ex.c ****   * @retval None
2395:E:/LiteOS/LiteOS_Lab/drivers/third_party/ST/STM32L4xx_HAL_Driver/Src\stm32l4xx_hal_rcc_ex.c ****   */
2396:E:/LiteOS/LiteOS_Lab/drivers/third_party/ST/STM32L4xx_HAL_Driver/Src\stm32l4xx_hal_rcc_ex.c **** void HAL_RCCEx_EnableLSECSS(void)
2397:E:/LiteOS/LiteOS_Lab/drivers/third_party/ST/STM32L4xx_HAL_Driver/Src\stm32l4xx_hal_rcc_ex.c **** {
 2404              		.loc 1 2397 0
 2405              		.cfi_startproc
 2406              		@ args = 0, pretend = 0, frame = 0
ARM GAS  C:\Users\user\AppData\Local\Temp\ccsJwa9Q.s 			page 89


 2407              		@ frame_needed = 1, uses_anonymous_args = 0
 2408              		@ link register save eliminated.
 2409 0000 80B4     		push	{r7}
 2410              	.LCFI38:
 2411              		.cfi_def_cfa_offset 4
 2412              		.cfi_offset 7, -4
 2413 0002 00AF     		add	r7, sp, #0
 2414              	.LCFI39:
 2415              		.cfi_def_cfa_register 7
2398:E:/LiteOS/LiteOS_Lab/drivers/third_party/ST/STM32L4xx_HAL_Driver/Src\stm32l4xx_hal_rcc_ex.c ****   SET_BIT(RCC->BDCR, RCC_BDCR_LSECSSON) ;
 2416              		.loc 1 2398 0
 2417 0004 064B     		ldr	r3, .L193
 2418 0006 D3F89030 		ldr	r3, [r3, #144]
 2419 000a 054A     		ldr	r2, .L193
 2420 000c 43F02003 		orr	r3, r3, #32
 2421 0010 C2F89030 		str	r3, [r2, #144]
2399:E:/LiteOS/LiteOS_Lab/drivers/third_party/ST/STM32L4xx_HAL_Driver/Src\stm32l4xx_hal_rcc_ex.c **** }
 2422              		.loc 1 2399 0
 2423 0014 00BF     		nop
 2424 0016 BD46     		mov	sp, r7
 2425              	.LCFI40:
 2426              		.cfi_def_cfa_register 13
 2427              		@ sp needed
 2428 0018 5DF8047B 		ldr	r7, [sp], #4
 2429              	.LCFI41:
 2430              		.cfi_restore 7
 2431              		.cfi_def_cfa_offset 0
 2432 001c 7047     		bx	lr
 2433              	.L194:
 2434 001e 00BF     		.align	2
 2435              	.L193:
 2436 0020 00100240 		.word	1073876992
 2437              		.cfi_endproc
 2438              	.LFE140:
 2440              		.section	.text.HAL_RCCEx_DisableLSECSS,"ax",%progbits
 2441              		.align	1
 2442              		.global	HAL_RCCEx_DisableLSECSS
 2443              		.syntax unified
 2444              		.thumb
 2445              		.thumb_func
 2446              		.fpu fpv4-sp-d16
 2448              	HAL_RCCEx_DisableLSECSS:
 2449              	.LFB141:
2400:E:/LiteOS/LiteOS_Lab/drivers/third_party/ST/STM32L4xx_HAL_Driver/Src\stm32l4xx_hal_rcc_ex.c **** 
2401:E:/LiteOS/LiteOS_Lab/drivers/third_party/ST/STM32L4xx_HAL_Driver/Src\stm32l4xx_hal_rcc_ex.c **** /**
2402:E:/LiteOS/LiteOS_Lab/drivers/third_party/ST/STM32L4xx_HAL_Driver/Src\stm32l4xx_hal_rcc_ex.c ****   * @brief  Disable the LSE Clock Security System.
2403:E:/LiteOS/LiteOS_Lab/drivers/third_party/ST/STM32L4xx_HAL_Driver/Src\stm32l4xx_hal_rcc_ex.c ****   * @note   LSE Clock Security System can only be disabled after a LSE failure detection.
2404:E:/LiteOS/LiteOS_Lab/drivers/third_party/ST/STM32L4xx_HAL_Driver/Src\stm32l4xx_hal_rcc_ex.c ****   * @retval None
2405:E:/LiteOS/LiteOS_Lab/drivers/third_party/ST/STM32L4xx_HAL_Driver/Src\stm32l4xx_hal_rcc_ex.c ****   */
2406:E:/LiteOS/LiteOS_Lab/drivers/third_party/ST/STM32L4xx_HAL_Driver/Src\stm32l4xx_hal_rcc_ex.c **** void HAL_RCCEx_DisableLSECSS(void)
2407:E:/LiteOS/LiteOS_Lab/drivers/third_party/ST/STM32L4xx_HAL_Driver/Src\stm32l4xx_hal_rcc_ex.c **** {
 2450              		.loc 1 2407 0
 2451              		.cfi_startproc
 2452              		@ args = 0, pretend = 0, frame = 0
 2453              		@ frame_needed = 1, uses_anonymous_args = 0
 2454              		@ link register save eliminated.
 2455 0000 80B4     		push	{r7}
ARM GAS  C:\Users\user\AppData\Local\Temp\ccsJwa9Q.s 			page 90


 2456              	.LCFI42:
 2457              		.cfi_def_cfa_offset 4
 2458              		.cfi_offset 7, -4
 2459 0002 00AF     		add	r7, sp, #0
 2460              	.LCFI43:
 2461              		.cfi_def_cfa_register 7
2408:E:/LiteOS/LiteOS_Lab/drivers/third_party/ST/STM32L4xx_HAL_Driver/Src\stm32l4xx_hal_rcc_ex.c ****   CLEAR_BIT(RCC->BDCR, RCC_BDCR_LSECSSON) ;
 2462              		.loc 1 2408 0
 2463 0004 094B     		ldr	r3, .L196
 2464 0006 D3F89030 		ldr	r3, [r3, #144]
 2465 000a 084A     		ldr	r2, .L196
 2466 000c 23F02003 		bic	r3, r3, #32
 2467 0010 C2F89030 		str	r3, [r2, #144]
2409:E:/LiteOS/LiteOS_Lab/drivers/third_party/ST/STM32L4xx_HAL_Driver/Src\stm32l4xx_hal_rcc_ex.c **** 
2410:E:/LiteOS/LiteOS_Lab/drivers/third_party/ST/STM32L4xx_HAL_Driver/Src\stm32l4xx_hal_rcc_ex.c ****   /* Disable LSE CSS IT if any */
2411:E:/LiteOS/LiteOS_Lab/drivers/third_party/ST/STM32L4xx_HAL_Driver/Src\stm32l4xx_hal_rcc_ex.c ****   __HAL_RCC_DISABLE_IT(RCC_IT_LSECSS);
 2468              		.loc 1 2411 0
 2469 0014 054B     		ldr	r3, .L196
 2470 0016 9B69     		ldr	r3, [r3, #24]
 2471 0018 044A     		ldr	r2, .L196
 2472 001a 23F40073 		bic	r3, r3, #512
 2473 001e 9361     		str	r3, [r2, #24]
2412:E:/LiteOS/LiteOS_Lab/drivers/third_party/ST/STM32L4xx_HAL_Driver/Src\stm32l4xx_hal_rcc_ex.c **** }
 2474              		.loc 1 2412 0
 2475 0020 00BF     		nop
 2476 0022 BD46     		mov	sp, r7
 2477              	.LCFI44:
 2478              		.cfi_def_cfa_register 13
 2479              		@ sp needed
 2480 0024 5DF8047B 		ldr	r7, [sp], #4
 2481              	.LCFI45:
 2482              		.cfi_restore 7
 2483              		.cfi_def_cfa_offset 0
 2484 0028 7047     		bx	lr
 2485              	.L197:
 2486 002a 00BF     		.align	2
 2487              	.L196:
 2488 002c 00100240 		.word	1073876992
 2489              		.cfi_endproc
 2490              	.LFE141:
 2492              		.section	.text.HAL_RCCEx_EnableLSECSS_IT,"ax",%progbits
 2493              		.align	1
 2494              		.global	HAL_RCCEx_EnableLSECSS_IT
 2495              		.syntax unified
 2496              		.thumb
 2497              		.thumb_func
 2498              		.fpu fpv4-sp-d16
 2500              	HAL_RCCEx_EnableLSECSS_IT:
 2501              	.LFB142:
2413:E:/LiteOS/LiteOS_Lab/drivers/third_party/ST/STM32L4xx_HAL_Driver/Src\stm32l4xx_hal_rcc_ex.c **** 
2414:E:/LiteOS/LiteOS_Lab/drivers/third_party/ST/STM32L4xx_HAL_Driver/Src\stm32l4xx_hal_rcc_ex.c **** /**
2415:E:/LiteOS/LiteOS_Lab/drivers/third_party/ST/STM32L4xx_HAL_Driver/Src\stm32l4xx_hal_rcc_ex.c ****   * @brief  Enable the LSE Clock Security System Interrupt & corresponding EXTI line.
2416:E:/LiteOS/LiteOS_Lab/drivers/third_party/ST/STM32L4xx_HAL_Driver/Src\stm32l4xx_hal_rcc_ex.c ****   * @note   LSE Clock Security System Interrupt is mapped on RTC EXTI line 19
2417:E:/LiteOS/LiteOS_Lab/drivers/third_party/ST/STM32L4xx_HAL_Driver/Src\stm32l4xx_hal_rcc_ex.c ****   * @retval None
2418:E:/LiteOS/LiteOS_Lab/drivers/third_party/ST/STM32L4xx_HAL_Driver/Src\stm32l4xx_hal_rcc_ex.c ****   */
2419:E:/LiteOS/LiteOS_Lab/drivers/third_party/ST/STM32L4xx_HAL_Driver/Src\stm32l4xx_hal_rcc_ex.c **** void HAL_RCCEx_EnableLSECSS_IT(void)
2420:E:/LiteOS/LiteOS_Lab/drivers/third_party/ST/STM32L4xx_HAL_Driver/Src\stm32l4xx_hal_rcc_ex.c **** {
ARM GAS  C:\Users\user\AppData\Local\Temp\ccsJwa9Q.s 			page 91


 2502              		.loc 1 2420 0
 2503              		.cfi_startproc
 2504              		@ args = 0, pretend = 0, frame = 0
 2505              		@ frame_needed = 1, uses_anonymous_args = 0
 2506              		@ link register save eliminated.
 2507 0000 80B4     		push	{r7}
 2508              	.LCFI46:
 2509              		.cfi_def_cfa_offset 4
 2510              		.cfi_offset 7, -4
 2511 0002 00AF     		add	r7, sp, #0
 2512              	.LCFI47:
 2513              		.cfi_def_cfa_register 7
2421:E:/LiteOS/LiteOS_Lab/drivers/third_party/ST/STM32L4xx_HAL_Driver/Src\stm32l4xx_hal_rcc_ex.c ****   /* Enable LSE CSS */
2422:E:/LiteOS/LiteOS_Lab/drivers/third_party/ST/STM32L4xx_HAL_Driver/Src\stm32l4xx_hal_rcc_ex.c ****   SET_BIT(RCC->BDCR, RCC_BDCR_LSECSSON) ;
 2514              		.loc 1 2422 0
 2515 0004 0F4B     		ldr	r3, .L199
 2516 0006 D3F89030 		ldr	r3, [r3, #144]
 2517 000a 0E4A     		ldr	r2, .L199
 2518 000c 43F02003 		orr	r3, r3, #32
 2519 0010 C2F89030 		str	r3, [r2, #144]
2423:E:/LiteOS/LiteOS_Lab/drivers/third_party/ST/STM32L4xx_HAL_Driver/Src\stm32l4xx_hal_rcc_ex.c **** 
2424:E:/LiteOS/LiteOS_Lab/drivers/third_party/ST/STM32L4xx_HAL_Driver/Src\stm32l4xx_hal_rcc_ex.c ****   /* Enable LSE CSS IT */
2425:E:/LiteOS/LiteOS_Lab/drivers/third_party/ST/STM32L4xx_HAL_Driver/Src\stm32l4xx_hal_rcc_ex.c ****   __HAL_RCC_ENABLE_IT(RCC_IT_LSECSS);
 2520              		.loc 1 2425 0
 2521 0014 0B4B     		ldr	r3, .L199
 2522 0016 9B69     		ldr	r3, [r3, #24]
 2523 0018 0A4A     		ldr	r2, .L199
 2524 001a 43F40073 		orr	r3, r3, #512
 2525 001e 9361     		str	r3, [r2, #24]
2426:E:/LiteOS/LiteOS_Lab/drivers/third_party/ST/STM32L4xx_HAL_Driver/Src\stm32l4xx_hal_rcc_ex.c **** 
2427:E:/LiteOS/LiteOS_Lab/drivers/third_party/ST/STM32L4xx_HAL_Driver/Src\stm32l4xx_hal_rcc_ex.c ****   /* Enable IT on EXTI Line 19 */
2428:E:/LiteOS/LiteOS_Lab/drivers/third_party/ST/STM32L4xx_HAL_Driver/Src\stm32l4xx_hal_rcc_ex.c ****   __HAL_RCC_LSECSS_EXTI_ENABLE_IT();
 2526              		.loc 1 2428 0
 2527 0020 094B     		ldr	r3, .L199+4
 2528 0022 1B68     		ldr	r3, [r3]
 2529 0024 084A     		ldr	r2, .L199+4
 2530 0026 43F40023 		orr	r3, r3, #524288
 2531 002a 1360     		str	r3, [r2]
2429:E:/LiteOS/LiteOS_Lab/drivers/third_party/ST/STM32L4xx_HAL_Driver/Src\stm32l4xx_hal_rcc_ex.c ****   __HAL_RCC_LSECSS_EXTI_ENABLE_RISING_EDGE();
 2532              		.loc 1 2429 0
 2533 002c 064B     		ldr	r3, .L199+4
 2534 002e 9B68     		ldr	r3, [r3, #8]
 2535 0030 054A     		ldr	r2, .L199+4
 2536 0032 43F40023 		orr	r3, r3, #524288
 2537 0036 9360     		str	r3, [r2, #8]
2430:E:/LiteOS/LiteOS_Lab/drivers/third_party/ST/STM32L4xx_HAL_Driver/Src\stm32l4xx_hal_rcc_ex.c **** }
 2538              		.loc 1 2430 0
 2539 0038 00BF     		nop
 2540 003a BD46     		mov	sp, r7
 2541              	.LCFI48:
 2542              		.cfi_def_cfa_register 13
 2543              		@ sp needed
 2544 003c 5DF8047B 		ldr	r7, [sp], #4
 2545              	.LCFI49:
 2546              		.cfi_restore 7
 2547              		.cfi_def_cfa_offset 0
 2548 0040 7047     		bx	lr
ARM GAS  C:\Users\user\AppData\Local\Temp\ccsJwa9Q.s 			page 92


 2549              	.L200:
 2550 0042 00BF     		.align	2
 2551              	.L199:
 2552 0044 00100240 		.word	1073876992
 2553 0048 00040140 		.word	1073808384
 2554              		.cfi_endproc
 2555              	.LFE142:
 2557              		.section	.text.HAL_RCCEx_LSECSS_IRQHandler,"ax",%progbits
 2558              		.align	1
 2559              		.global	HAL_RCCEx_LSECSS_IRQHandler
 2560              		.syntax unified
 2561              		.thumb
 2562              		.thumb_func
 2563              		.fpu fpv4-sp-d16
 2565              	HAL_RCCEx_LSECSS_IRQHandler:
 2566              	.LFB143:
2431:E:/LiteOS/LiteOS_Lab/drivers/third_party/ST/STM32L4xx_HAL_Driver/Src\stm32l4xx_hal_rcc_ex.c **** 
2432:E:/LiteOS/LiteOS_Lab/drivers/third_party/ST/STM32L4xx_HAL_Driver/Src\stm32l4xx_hal_rcc_ex.c **** /**
2433:E:/LiteOS/LiteOS_Lab/drivers/third_party/ST/STM32L4xx_HAL_Driver/Src\stm32l4xx_hal_rcc_ex.c ****   * @brief Handle the RCC LSE Clock Security System interrupt request.
2434:E:/LiteOS/LiteOS_Lab/drivers/third_party/ST/STM32L4xx_HAL_Driver/Src\stm32l4xx_hal_rcc_ex.c ****   * @retval None
2435:E:/LiteOS/LiteOS_Lab/drivers/third_party/ST/STM32L4xx_HAL_Driver/Src\stm32l4xx_hal_rcc_ex.c ****   */
2436:E:/LiteOS/LiteOS_Lab/drivers/third_party/ST/STM32L4xx_HAL_Driver/Src\stm32l4xx_hal_rcc_ex.c **** void HAL_RCCEx_LSECSS_IRQHandler(void)
2437:E:/LiteOS/LiteOS_Lab/drivers/third_party/ST/STM32L4xx_HAL_Driver/Src\stm32l4xx_hal_rcc_ex.c **** {
 2567              		.loc 1 2437 0
 2568              		.cfi_startproc
 2569              		@ args = 0, pretend = 0, frame = 0
 2570              		@ frame_needed = 1, uses_anonymous_args = 0
 2571 0000 80B5     		push	{r7, lr}
 2572              	.LCFI50:
 2573              		.cfi_def_cfa_offset 8
 2574              		.cfi_offset 7, -8
 2575              		.cfi_offset 14, -4
 2576 0002 00AF     		add	r7, sp, #0
 2577              	.LCFI51:
 2578              		.cfi_def_cfa_register 7
2438:E:/LiteOS/LiteOS_Lab/drivers/third_party/ST/STM32L4xx_HAL_Driver/Src\stm32l4xx_hal_rcc_ex.c ****   /* Check RCC LSE CSSF flag  */
2439:E:/LiteOS/LiteOS_Lab/drivers/third_party/ST/STM32L4xx_HAL_Driver/Src\stm32l4xx_hal_rcc_ex.c ****   if(__HAL_RCC_GET_IT(RCC_IT_LSECSS))
 2579              		.loc 1 2439 0
 2580 0004 074B     		ldr	r3, .L204
 2581 0006 DB69     		ldr	r3, [r3, #28]
 2582 0008 03F40073 		and	r3, r3, #512
 2583 000c B3F5007F 		cmp	r3, #512
 2584 0010 05D1     		bne	.L203
2440:E:/LiteOS/LiteOS_Lab/drivers/third_party/ST/STM32L4xx_HAL_Driver/Src\stm32l4xx_hal_rcc_ex.c ****   {
2441:E:/LiteOS/LiteOS_Lab/drivers/third_party/ST/STM32L4xx_HAL_Driver/Src\stm32l4xx_hal_rcc_ex.c ****     /* RCC LSE Clock Security System interrupt user callback */
2442:E:/LiteOS/LiteOS_Lab/drivers/third_party/ST/STM32L4xx_HAL_Driver/Src\stm32l4xx_hal_rcc_ex.c ****     HAL_RCCEx_LSECSS_Callback();
 2585              		.loc 1 2442 0
 2586 0012 FFF7FEFF 		bl	HAL_RCCEx_LSECSS_Callback
2443:E:/LiteOS/LiteOS_Lab/drivers/third_party/ST/STM32L4xx_HAL_Driver/Src\stm32l4xx_hal_rcc_ex.c **** 
2444:E:/LiteOS/LiteOS_Lab/drivers/third_party/ST/STM32L4xx_HAL_Driver/Src\stm32l4xx_hal_rcc_ex.c ****     /* Clear RCC LSE CSS pending bit */
2445:E:/LiteOS/LiteOS_Lab/drivers/third_party/ST/STM32L4xx_HAL_Driver/Src\stm32l4xx_hal_rcc_ex.c ****     __HAL_RCC_CLEAR_IT(RCC_IT_LSECSS);
 2587              		.loc 1 2445 0
 2588 0016 034B     		ldr	r3, .L204
 2589 0018 4FF40072 		mov	r2, #512
 2590 001c 1A62     		str	r2, [r3, #32]
 2591              	.L203:
2446:E:/LiteOS/LiteOS_Lab/drivers/third_party/ST/STM32L4xx_HAL_Driver/Src\stm32l4xx_hal_rcc_ex.c ****   }
ARM GAS  C:\Users\user\AppData\Local\Temp\ccsJwa9Q.s 			page 93


2447:E:/LiteOS/LiteOS_Lab/drivers/third_party/ST/STM32L4xx_HAL_Driver/Src\stm32l4xx_hal_rcc_ex.c **** }
 2592              		.loc 1 2447 0
 2593 001e 00BF     		nop
 2594 0020 80BD     		pop	{r7, pc}
 2595              	.L205:
 2596 0022 00BF     		.align	2
 2597              	.L204:
 2598 0024 00100240 		.word	1073876992
 2599              		.cfi_endproc
 2600              	.LFE143:
 2602              		.section	.text.HAL_RCCEx_LSECSS_Callback,"ax",%progbits
 2603              		.align	1
 2604              		.weak	HAL_RCCEx_LSECSS_Callback
 2605              		.syntax unified
 2606              		.thumb
 2607              		.thumb_func
 2608              		.fpu fpv4-sp-d16
 2610              	HAL_RCCEx_LSECSS_Callback:
 2611              	.LFB144:
2448:E:/LiteOS/LiteOS_Lab/drivers/third_party/ST/STM32L4xx_HAL_Driver/Src\stm32l4xx_hal_rcc_ex.c **** 
2449:E:/LiteOS/LiteOS_Lab/drivers/third_party/ST/STM32L4xx_HAL_Driver/Src\stm32l4xx_hal_rcc_ex.c **** /**
2450:E:/LiteOS/LiteOS_Lab/drivers/third_party/ST/STM32L4xx_HAL_Driver/Src\stm32l4xx_hal_rcc_ex.c ****   * @brief  RCCEx LSE Clock Security System interrupt callback.
2451:E:/LiteOS/LiteOS_Lab/drivers/third_party/ST/STM32L4xx_HAL_Driver/Src\stm32l4xx_hal_rcc_ex.c ****   * @retval none
2452:E:/LiteOS/LiteOS_Lab/drivers/third_party/ST/STM32L4xx_HAL_Driver/Src\stm32l4xx_hal_rcc_ex.c ****   */
2453:E:/LiteOS/LiteOS_Lab/drivers/third_party/ST/STM32L4xx_HAL_Driver/Src\stm32l4xx_hal_rcc_ex.c **** __weak void HAL_RCCEx_LSECSS_Callback(void)
2454:E:/LiteOS/LiteOS_Lab/drivers/third_party/ST/STM32L4xx_HAL_Driver/Src\stm32l4xx_hal_rcc_ex.c **** {
 2612              		.loc 1 2454 0
 2613              		.cfi_startproc
 2614              		@ args = 0, pretend = 0, frame = 0
 2615              		@ frame_needed = 1, uses_anonymous_args = 0
 2616              		@ link register save eliminated.
 2617 0000 80B4     		push	{r7}
 2618              	.LCFI52:
 2619              		.cfi_def_cfa_offset 4
 2620              		.cfi_offset 7, -4
 2621 0002 00AF     		add	r7, sp, #0
 2622              	.LCFI53:
 2623              		.cfi_def_cfa_register 7
2455:E:/LiteOS/LiteOS_Lab/drivers/third_party/ST/STM32L4xx_HAL_Driver/Src\stm32l4xx_hal_rcc_ex.c ****   /* NOTE : This function should not be modified, when the callback is needed,
2456:E:/LiteOS/LiteOS_Lab/drivers/third_party/ST/STM32L4xx_HAL_Driver/Src\stm32l4xx_hal_rcc_ex.c ****             the @ref HAL_RCCEx_LSECSS_Callback should be implemented in the user file
2457:E:/LiteOS/LiteOS_Lab/drivers/third_party/ST/STM32L4xx_HAL_Driver/Src\stm32l4xx_hal_rcc_ex.c ****    */
2458:E:/LiteOS/LiteOS_Lab/drivers/third_party/ST/STM32L4xx_HAL_Driver/Src\stm32l4xx_hal_rcc_ex.c **** }
 2624              		.loc 1 2458 0
 2625 0004 00BF     		nop
 2626 0006 BD46     		mov	sp, r7
 2627              	.LCFI54:
 2628              		.cfi_def_cfa_register 13
 2629              		@ sp needed
 2630 0008 5DF8047B 		ldr	r7, [sp], #4
 2631              	.LCFI55:
 2632              		.cfi_restore 7
 2633              		.cfi_def_cfa_offset 0
 2634 000c 7047     		bx	lr
 2635              		.cfi_endproc
 2636              	.LFE144:
 2638              		.section	.text.HAL_RCCEx_EnableLSCO,"ax",%progbits
 2639              		.align	1
ARM GAS  C:\Users\user\AppData\Local\Temp\ccsJwa9Q.s 			page 94


 2640              		.global	HAL_RCCEx_EnableLSCO
 2641              		.syntax unified
 2642              		.thumb
 2643              		.thumb_func
 2644              		.fpu fpv4-sp-d16
 2646              	HAL_RCCEx_EnableLSCO:
 2647              	.LFB145:
2459:E:/LiteOS/LiteOS_Lab/drivers/third_party/ST/STM32L4xx_HAL_Driver/Src\stm32l4xx_hal_rcc_ex.c **** 
2460:E:/LiteOS/LiteOS_Lab/drivers/third_party/ST/STM32L4xx_HAL_Driver/Src\stm32l4xx_hal_rcc_ex.c **** /**
2461:E:/LiteOS/LiteOS_Lab/drivers/third_party/ST/STM32L4xx_HAL_Driver/Src\stm32l4xx_hal_rcc_ex.c ****   * @brief  Select the Low Speed clock source to output on LSCO pin (PA2).
2462:E:/LiteOS/LiteOS_Lab/drivers/third_party/ST/STM32L4xx_HAL_Driver/Src\stm32l4xx_hal_rcc_ex.c ****   * @param  LSCOSource  specifies the Low Speed clock source to output.
2463:E:/LiteOS/LiteOS_Lab/drivers/third_party/ST/STM32L4xx_HAL_Driver/Src\stm32l4xx_hal_rcc_ex.c ****   *          This parameter can be one of the following values:
2464:E:/LiteOS/LiteOS_Lab/drivers/third_party/ST/STM32L4xx_HAL_Driver/Src\stm32l4xx_hal_rcc_ex.c ****   *            @arg @ref RCC_LSCOSOURCE_LSI  LSI clock selected as LSCO source
2465:E:/LiteOS/LiteOS_Lab/drivers/third_party/ST/STM32L4xx_HAL_Driver/Src\stm32l4xx_hal_rcc_ex.c ****   *            @arg @ref RCC_LSCOSOURCE_LSE  LSE clock selected as LSCO source
2466:E:/LiteOS/LiteOS_Lab/drivers/third_party/ST/STM32L4xx_HAL_Driver/Src\stm32l4xx_hal_rcc_ex.c ****   * @retval None
2467:E:/LiteOS/LiteOS_Lab/drivers/third_party/ST/STM32L4xx_HAL_Driver/Src\stm32l4xx_hal_rcc_ex.c ****   */
2468:E:/LiteOS/LiteOS_Lab/drivers/third_party/ST/STM32L4xx_HAL_Driver/Src\stm32l4xx_hal_rcc_ex.c **** void HAL_RCCEx_EnableLSCO(uint32_t LSCOSource)
2469:E:/LiteOS/LiteOS_Lab/drivers/third_party/ST/STM32L4xx_HAL_Driver/Src\stm32l4xx_hal_rcc_ex.c **** {
 2648              		.loc 1 2469 0
 2649              		.cfi_startproc
 2650              		@ args = 0, pretend = 0, frame = 40
 2651              		@ frame_needed = 1, uses_anonymous_args = 0
 2652 0000 80B5     		push	{r7, lr}
 2653              	.LCFI56:
 2654              		.cfi_def_cfa_offset 8
 2655              		.cfi_offset 7, -8
 2656              		.cfi_offset 14, -4
 2657 0002 8AB0     		sub	sp, sp, #40
 2658              	.LCFI57:
 2659              		.cfi_def_cfa_offset 48
 2660 0004 00AF     		add	r7, sp, #0
 2661              	.LCFI58:
 2662              		.cfi_def_cfa_register 7
 2663 0006 7860     		str	r0, [r7, #4]
2470:E:/LiteOS/LiteOS_Lab/drivers/third_party/ST/STM32L4xx_HAL_Driver/Src\stm32l4xx_hal_rcc_ex.c ****   GPIO_InitTypeDef GPIO_InitStruct;
2471:E:/LiteOS/LiteOS_Lab/drivers/third_party/ST/STM32L4xx_HAL_Driver/Src\stm32l4xx_hal_rcc_ex.c ****   FlagStatus       pwrclkchanged = RESET;
 2664              		.loc 1 2471 0
 2665 0008 0023     		movs	r3, #0
 2666 000a 87F82730 		strb	r3, [r7, #39]
2472:E:/LiteOS/LiteOS_Lab/drivers/third_party/ST/STM32L4xx_HAL_Driver/Src\stm32l4xx_hal_rcc_ex.c ****   FlagStatus       backupchanged = RESET;
 2667              		.loc 1 2472 0
 2668 000e 0023     		movs	r3, #0
 2669 0010 87F82630 		strb	r3, [r7, #38]
 2670              	.LBB4:
2473:E:/LiteOS/LiteOS_Lab/drivers/third_party/ST/STM32L4xx_HAL_Driver/Src\stm32l4xx_hal_rcc_ex.c **** 
2474:E:/LiteOS/LiteOS_Lab/drivers/third_party/ST/STM32L4xx_HAL_Driver/Src\stm32l4xx_hal_rcc_ex.c ****   /* Check the parameters */
2475:E:/LiteOS/LiteOS_Lab/drivers/third_party/ST/STM32L4xx_HAL_Driver/Src\stm32l4xx_hal_rcc_ex.c ****   assert_param(IS_RCC_LSCOSOURCE(LSCOSource));
2476:E:/LiteOS/LiteOS_Lab/drivers/third_party/ST/STM32L4xx_HAL_Driver/Src\stm32l4xx_hal_rcc_ex.c **** 
2477:E:/LiteOS/LiteOS_Lab/drivers/third_party/ST/STM32L4xx_HAL_Driver/Src\stm32l4xx_hal_rcc_ex.c ****   /* LSCO Pin Clock Enable */
2478:E:/LiteOS/LiteOS_Lab/drivers/third_party/ST/STM32L4xx_HAL_Driver/Src\stm32l4xx_hal_rcc_ex.c ****   __LSCO_CLK_ENABLE();
 2671              		.loc 1 2478 0
 2672 0014 2D4B     		ldr	r3, .L213
 2673 0016 DB6C     		ldr	r3, [r3, #76]
 2674 0018 2C4A     		ldr	r2, .L213
 2675 001a 43F00103 		orr	r3, r3, #1
 2676 001e D364     		str	r3, [r2, #76]
 2677 0020 2A4B     		ldr	r3, .L213
ARM GAS  C:\Users\user\AppData\Local\Temp\ccsJwa9Q.s 			page 95


 2678 0022 DB6C     		ldr	r3, [r3, #76]
 2679 0024 03F00103 		and	r3, r3, #1
 2680 0028 FB60     		str	r3, [r7, #12]
 2681 002a FB68     		ldr	r3, [r7, #12]
 2682              	.LBE4:
2479:E:/LiteOS/LiteOS_Lab/drivers/third_party/ST/STM32L4xx_HAL_Driver/Src\stm32l4xx_hal_rcc_ex.c **** 
2480:E:/LiteOS/LiteOS_Lab/drivers/third_party/ST/STM32L4xx_HAL_Driver/Src\stm32l4xx_hal_rcc_ex.c ****   /* Configue the LSCO pin in analog mode */
2481:E:/LiteOS/LiteOS_Lab/drivers/third_party/ST/STM32L4xx_HAL_Driver/Src\stm32l4xx_hal_rcc_ex.c ****   GPIO_InitStruct.Pin = LSCO_PIN;
 2683              		.loc 1 2481 0
 2684 002c 0423     		movs	r3, #4
 2685 002e 3B61     		str	r3, [r7, #16]
2482:E:/LiteOS/LiteOS_Lab/drivers/third_party/ST/STM32L4xx_HAL_Driver/Src\stm32l4xx_hal_rcc_ex.c ****   GPIO_InitStruct.Mode = GPIO_MODE_ANALOG;
 2686              		.loc 1 2482 0
 2687 0030 0323     		movs	r3, #3
 2688 0032 7B61     		str	r3, [r7, #20]
2483:E:/LiteOS/LiteOS_Lab/drivers/third_party/ST/STM32L4xx_HAL_Driver/Src\stm32l4xx_hal_rcc_ex.c ****   GPIO_InitStruct.Speed = GPIO_SPEED_FREQ_HIGH;
 2689              		.loc 1 2483 0
 2690 0034 0223     		movs	r3, #2
 2691 0036 FB61     		str	r3, [r7, #28]
2484:E:/LiteOS/LiteOS_Lab/drivers/third_party/ST/STM32L4xx_HAL_Driver/Src\stm32l4xx_hal_rcc_ex.c ****   GPIO_InitStruct.Pull = GPIO_NOPULL;
 2692              		.loc 1 2484 0
 2693 0038 0023     		movs	r3, #0
 2694 003a BB61     		str	r3, [r7, #24]
2485:E:/LiteOS/LiteOS_Lab/drivers/third_party/ST/STM32L4xx_HAL_Driver/Src\stm32l4xx_hal_rcc_ex.c ****   HAL_GPIO_Init(LSCO_GPIO_PORT, &GPIO_InitStruct);
 2695              		.loc 1 2485 0
 2696 003c 07F11003 		add	r3, r7, #16
 2697 0040 1946     		mov	r1, r3
 2698 0042 4FF09040 		mov	r0, #1207959552
 2699 0046 FFF7FEFF 		bl	HAL_GPIO_Init
2486:E:/LiteOS/LiteOS_Lab/drivers/third_party/ST/STM32L4xx_HAL_Driver/Src\stm32l4xx_hal_rcc_ex.c **** 
2487:E:/LiteOS/LiteOS_Lab/drivers/third_party/ST/STM32L4xx_HAL_Driver/Src\stm32l4xx_hal_rcc_ex.c ****   /* Update LSCOSEL clock source in Backup Domain control register */
2488:E:/LiteOS/LiteOS_Lab/drivers/third_party/ST/STM32L4xx_HAL_Driver/Src\stm32l4xx_hal_rcc_ex.c ****   if(__HAL_RCC_PWR_IS_CLK_DISABLED())
 2700              		.loc 1 2488 0
 2701 004a 204B     		ldr	r3, .L213
 2702 004c 9B6D     		ldr	r3, [r3, #88]
 2703 004e 03F08053 		and	r3, r3, #268435456
 2704 0052 002B     		cmp	r3, #0
 2705 0054 0ED1     		bne	.L208
 2706              	.LBB5:
2489:E:/LiteOS/LiteOS_Lab/drivers/third_party/ST/STM32L4xx_HAL_Driver/Src\stm32l4xx_hal_rcc_ex.c ****   {
2490:E:/LiteOS/LiteOS_Lab/drivers/third_party/ST/STM32L4xx_HAL_Driver/Src\stm32l4xx_hal_rcc_ex.c ****     __HAL_RCC_PWR_CLK_ENABLE();
 2707              		.loc 1 2490 0
 2708 0056 1D4B     		ldr	r3, .L213
 2709 0058 9B6D     		ldr	r3, [r3, #88]
 2710 005a 1C4A     		ldr	r2, .L213
 2711 005c 43F08053 		orr	r3, r3, #268435456
 2712 0060 9365     		str	r3, [r2, #88]
 2713 0062 1A4B     		ldr	r3, .L213
 2714 0064 9B6D     		ldr	r3, [r3, #88]
 2715 0066 03F08053 		and	r3, r3, #268435456
 2716 006a BB60     		str	r3, [r7, #8]
 2717 006c BB68     		ldr	r3, [r7, #8]
 2718              	.LBE5:
2491:E:/LiteOS/LiteOS_Lab/drivers/third_party/ST/STM32L4xx_HAL_Driver/Src\stm32l4xx_hal_rcc_ex.c ****     pwrclkchanged = SET;
 2719              		.loc 1 2491 0
 2720 006e 0123     		movs	r3, #1
 2721 0070 87F82730 		strb	r3, [r7, #39]
ARM GAS  C:\Users\user\AppData\Local\Temp\ccsJwa9Q.s 			page 96


 2722              	.L208:
2492:E:/LiteOS/LiteOS_Lab/drivers/third_party/ST/STM32L4xx_HAL_Driver/Src\stm32l4xx_hal_rcc_ex.c ****   }
2493:E:/LiteOS/LiteOS_Lab/drivers/third_party/ST/STM32L4xx_HAL_Driver/Src\stm32l4xx_hal_rcc_ex.c ****   if(HAL_IS_BIT_CLR(PWR->CR1, PWR_CR1_DBP))
 2723              		.loc 1 2493 0
 2724 0074 164B     		ldr	r3, .L213+4
 2725 0076 1B68     		ldr	r3, [r3]
 2726 0078 03F48073 		and	r3, r3, #256
 2727 007c 002B     		cmp	r3, #0
 2728 007e 04D1     		bne	.L209
2494:E:/LiteOS/LiteOS_Lab/drivers/third_party/ST/STM32L4xx_HAL_Driver/Src\stm32l4xx_hal_rcc_ex.c ****   {
2495:E:/LiteOS/LiteOS_Lab/drivers/third_party/ST/STM32L4xx_HAL_Driver/Src\stm32l4xx_hal_rcc_ex.c ****     HAL_PWR_EnableBkUpAccess();
 2729              		.loc 1 2495 0
 2730 0080 FFF7FEFF 		bl	HAL_PWR_EnableBkUpAccess
2496:E:/LiteOS/LiteOS_Lab/drivers/third_party/ST/STM32L4xx_HAL_Driver/Src\stm32l4xx_hal_rcc_ex.c ****     backupchanged = SET;
 2731              		.loc 1 2496 0
 2732 0084 0123     		movs	r3, #1
 2733 0086 87F82630 		strb	r3, [r7, #38]
 2734              	.L209:
2497:E:/LiteOS/LiteOS_Lab/drivers/third_party/ST/STM32L4xx_HAL_Driver/Src\stm32l4xx_hal_rcc_ex.c ****   }
2498:E:/LiteOS/LiteOS_Lab/drivers/third_party/ST/STM32L4xx_HAL_Driver/Src\stm32l4xx_hal_rcc_ex.c **** 
2499:E:/LiteOS/LiteOS_Lab/drivers/third_party/ST/STM32L4xx_HAL_Driver/Src\stm32l4xx_hal_rcc_ex.c ****   MODIFY_REG(RCC->BDCR, RCC_BDCR_LSCOSEL | RCC_BDCR_LSCOEN, LSCOSource | RCC_BDCR_LSCOEN);
 2735              		.loc 1 2499 0
 2736 008a 104B     		ldr	r3, .L213
 2737 008c D3F89030 		ldr	r3, [r3, #144]
 2738 0090 23F04072 		bic	r2, r3, #50331648
 2739 0094 7B68     		ldr	r3, [r7, #4]
 2740 0096 1343     		orrs	r3, r3, r2
 2741 0098 0C4A     		ldr	r2, .L213
 2742 009a 43F08073 		orr	r3, r3, #16777216
 2743 009e C2F89030 		str	r3, [r2, #144]
2500:E:/LiteOS/LiteOS_Lab/drivers/third_party/ST/STM32L4xx_HAL_Driver/Src\stm32l4xx_hal_rcc_ex.c **** 
2501:E:/LiteOS/LiteOS_Lab/drivers/third_party/ST/STM32L4xx_HAL_Driver/Src\stm32l4xx_hal_rcc_ex.c ****   if(backupchanged == SET)
 2744              		.loc 1 2501 0
 2745 00a2 97F82630 		ldrb	r3, [r7, #38]	@ zero_extendqisi2
 2746 00a6 012B     		cmp	r3, #1
 2747 00a8 01D1     		bne	.L210
2502:E:/LiteOS/LiteOS_Lab/drivers/third_party/ST/STM32L4xx_HAL_Driver/Src\stm32l4xx_hal_rcc_ex.c ****   {
2503:E:/LiteOS/LiteOS_Lab/drivers/third_party/ST/STM32L4xx_HAL_Driver/Src\stm32l4xx_hal_rcc_ex.c ****     HAL_PWR_DisableBkUpAccess();
 2748              		.loc 1 2503 0
 2749 00aa FFF7FEFF 		bl	HAL_PWR_DisableBkUpAccess
 2750              	.L210:
2504:E:/LiteOS/LiteOS_Lab/drivers/third_party/ST/STM32L4xx_HAL_Driver/Src\stm32l4xx_hal_rcc_ex.c ****   }
2505:E:/LiteOS/LiteOS_Lab/drivers/third_party/ST/STM32L4xx_HAL_Driver/Src\stm32l4xx_hal_rcc_ex.c ****   if(pwrclkchanged == SET)
 2751              		.loc 1 2505 0
 2752 00ae 97F82730 		ldrb	r3, [r7, #39]	@ zero_extendqisi2
 2753 00b2 012B     		cmp	r3, #1
 2754 00b4 05D1     		bne	.L212
2506:E:/LiteOS/LiteOS_Lab/drivers/third_party/ST/STM32L4xx_HAL_Driver/Src\stm32l4xx_hal_rcc_ex.c ****   {
2507:E:/LiteOS/LiteOS_Lab/drivers/third_party/ST/STM32L4xx_HAL_Driver/Src\stm32l4xx_hal_rcc_ex.c ****     __HAL_RCC_PWR_CLK_DISABLE();
 2755              		.loc 1 2507 0
 2756 00b6 054B     		ldr	r3, .L213
 2757 00b8 9B6D     		ldr	r3, [r3, #88]
 2758 00ba 044A     		ldr	r2, .L213
 2759 00bc 23F08053 		bic	r3, r3, #268435456
 2760 00c0 9365     		str	r3, [r2, #88]
 2761              	.L212:
2508:E:/LiteOS/LiteOS_Lab/drivers/third_party/ST/STM32L4xx_HAL_Driver/Src\stm32l4xx_hal_rcc_ex.c ****   }
ARM GAS  C:\Users\user\AppData\Local\Temp\ccsJwa9Q.s 			page 97


2509:E:/LiteOS/LiteOS_Lab/drivers/third_party/ST/STM32L4xx_HAL_Driver/Src\stm32l4xx_hal_rcc_ex.c **** }
 2762              		.loc 1 2509 0
 2763 00c2 00BF     		nop
 2764 00c4 2837     		adds	r7, r7, #40
 2765              	.LCFI59:
 2766              		.cfi_def_cfa_offset 8
 2767 00c6 BD46     		mov	sp, r7
 2768              	.LCFI60:
 2769              		.cfi_def_cfa_register 13
 2770              		@ sp needed
 2771 00c8 80BD     		pop	{r7, pc}
 2772              	.L214:
 2773 00ca 00BF     		.align	2
 2774              	.L213:
 2775 00cc 00100240 		.word	1073876992
 2776 00d0 00700040 		.word	1073770496
 2777              		.cfi_endproc
 2778              	.LFE145:
 2780              		.section	.text.HAL_RCCEx_DisableLSCO,"ax",%progbits
 2781              		.align	1
 2782              		.global	HAL_RCCEx_DisableLSCO
 2783              		.syntax unified
 2784              		.thumb
 2785              		.thumb_func
 2786              		.fpu fpv4-sp-d16
 2788              	HAL_RCCEx_DisableLSCO:
 2789              	.LFB146:
2510:E:/LiteOS/LiteOS_Lab/drivers/third_party/ST/STM32L4xx_HAL_Driver/Src\stm32l4xx_hal_rcc_ex.c **** 
2511:E:/LiteOS/LiteOS_Lab/drivers/third_party/ST/STM32L4xx_HAL_Driver/Src\stm32l4xx_hal_rcc_ex.c **** /**
2512:E:/LiteOS/LiteOS_Lab/drivers/third_party/ST/STM32L4xx_HAL_Driver/Src\stm32l4xx_hal_rcc_ex.c ****   * @brief  Disable the Low Speed clock output.
2513:E:/LiteOS/LiteOS_Lab/drivers/third_party/ST/STM32L4xx_HAL_Driver/Src\stm32l4xx_hal_rcc_ex.c ****   * @retval None
2514:E:/LiteOS/LiteOS_Lab/drivers/third_party/ST/STM32L4xx_HAL_Driver/Src\stm32l4xx_hal_rcc_ex.c ****   */
2515:E:/LiteOS/LiteOS_Lab/drivers/third_party/ST/STM32L4xx_HAL_Driver/Src\stm32l4xx_hal_rcc_ex.c **** void HAL_RCCEx_DisableLSCO(void)
2516:E:/LiteOS/LiteOS_Lab/drivers/third_party/ST/STM32L4xx_HAL_Driver/Src\stm32l4xx_hal_rcc_ex.c **** {
 2790              		.loc 1 2516 0
 2791              		.cfi_startproc
 2792              		@ args = 0, pretend = 0, frame = 8
 2793              		@ frame_needed = 1, uses_anonymous_args = 0
 2794 0000 80B5     		push	{r7, lr}
 2795              	.LCFI61:
 2796              		.cfi_def_cfa_offset 8
 2797              		.cfi_offset 7, -8
 2798              		.cfi_offset 14, -4
 2799 0002 82B0     		sub	sp, sp, #8
 2800              	.LCFI62:
 2801              		.cfi_def_cfa_offset 16
 2802 0004 00AF     		add	r7, sp, #0
 2803              	.LCFI63:
 2804              		.cfi_def_cfa_register 7
2517:E:/LiteOS/LiteOS_Lab/drivers/third_party/ST/STM32L4xx_HAL_Driver/Src\stm32l4xx_hal_rcc_ex.c ****   FlagStatus       pwrclkchanged = RESET;
 2805              		.loc 1 2517 0
 2806 0006 0023     		movs	r3, #0
 2807 0008 FB71     		strb	r3, [r7, #7]
2518:E:/LiteOS/LiteOS_Lab/drivers/third_party/ST/STM32L4xx_HAL_Driver/Src\stm32l4xx_hal_rcc_ex.c ****   FlagStatus       backupchanged = RESET;
 2808              		.loc 1 2518 0
 2809 000a 0023     		movs	r3, #0
 2810 000c BB71     		strb	r3, [r7, #6]
ARM GAS  C:\Users\user\AppData\Local\Temp\ccsJwa9Q.s 			page 98


2519:E:/LiteOS/LiteOS_Lab/drivers/third_party/ST/STM32L4xx_HAL_Driver/Src\stm32l4xx_hal_rcc_ex.c **** 
2520:E:/LiteOS/LiteOS_Lab/drivers/third_party/ST/STM32L4xx_HAL_Driver/Src\stm32l4xx_hal_rcc_ex.c ****   /* Update LSCOEN bit in Backup Domain control register */
2521:E:/LiteOS/LiteOS_Lab/drivers/third_party/ST/STM32L4xx_HAL_Driver/Src\stm32l4xx_hal_rcc_ex.c ****   if(__HAL_RCC_PWR_IS_CLK_DISABLED())
 2811              		.loc 1 2521 0
 2812 000e 1C4B     		ldr	r3, .L221
 2813 0010 9B6D     		ldr	r3, [r3, #88]
 2814 0012 03F08053 		and	r3, r3, #268435456
 2815 0016 002B     		cmp	r3, #0
 2816 0018 0DD1     		bne	.L216
 2817              	.LBB6:
2522:E:/LiteOS/LiteOS_Lab/drivers/third_party/ST/STM32L4xx_HAL_Driver/Src\stm32l4xx_hal_rcc_ex.c ****   {
2523:E:/LiteOS/LiteOS_Lab/drivers/third_party/ST/STM32L4xx_HAL_Driver/Src\stm32l4xx_hal_rcc_ex.c ****     __HAL_RCC_PWR_CLK_ENABLE();
 2818              		.loc 1 2523 0
 2819 001a 194B     		ldr	r3, .L221
 2820 001c 9B6D     		ldr	r3, [r3, #88]
 2821 001e 184A     		ldr	r2, .L221
 2822 0020 43F08053 		orr	r3, r3, #268435456
 2823 0024 9365     		str	r3, [r2, #88]
 2824 0026 164B     		ldr	r3, .L221
 2825 0028 9B6D     		ldr	r3, [r3, #88]
 2826 002a 03F08053 		and	r3, r3, #268435456
 2827 002e 3B60     		str	r3, [r7]
 2828 0030 3B68     		ldr	r3, [r7]
 2829              	.LBE6:
2524:E:/LiteOS/LiteOS_Lab/drivers/third_party/ST/STM32L4xx_HAL_Driver/Src\stm32l4xx_hal_rcc_ex.c ****     pwrclkchanged = SET;
 2830              		.loc 1 2524 0
 2831 0032 0123     		movs	r3, #1
 2832 0034 FB71     		strb	r3, [r7, #7]
 2833              	.L216:
2525:E:/LiteOS/LiteOS_Lab/drivers/third_party/ST/STM32L4xx_HAL_Driver/Src\stm32l4xx_hal_rcc_ex.c ****   }
2526:E:/LiteOS/LiteOS_Lab/drivers/third_party/ST/STM32L4xx_HAL_Driver/Src\stm32l4xx_hal_rcc_ex.c ****   if(HAL_IS_BIT_CLR(PWR->CR1, PWR_CR1_DBP))
 2834              		.loc 1 2526 0
 2835 0036 134B     		ldr	r3, .L221+4
 2836 0038 1B68     		ldr	r3, [r3]
 2837 003a 03F48073 		and	r3, r3, #256
 2838 003e 002B     		cmp	r3, #0
 2839 0040 03D1     		bne	.L217
2527:E:/LiteOS/LiteOS_Lab/drivers/third_party/ST/STM32L4xx_HAL_Driver/Src\stm32l4xx_hal_rcc_ex.c ****   {
2528:E:/LiteOS/LiteOS_Lab/drivers/third_party/ST/STM32L4xx_HAL_Driver/Src\stm32l4xx_hal_rcc_ex.c ****     /* Enable access to the backup domain */
2529:E:/LiteOS/LiteOS_Lab/drivers/third_party/ST/STM32L4xx_HAL_Driver/Src\stm32l4xx_hal_rcc_ex.c ****     HAL_PWR_EnableBkUpAccess();
 2840              		.loc 1 2529 0
 2841 0042 FFF7FEFF 		bl	HAL_PWR_EnableBkUpAccess
2530:E:/LiteOS/LiteOS_Lab/drivers/third_party/ST/STM32L4xx_HAL_Driver/Src\stm32l4xx_hal_rcc_ex.c ****     backupchanged = SET;
 2842              		.loc 1 2530 0
 2843 0046 0123     		movs	r3, #1
 2844 0048 BB71     		strb	r3, [r7, #6]
 2845              	.L217:
2531:E:/LiteOS/LiteOS_Lab/drivers/third_party/ST/STM32L4xx_HAL_Driver/Src\stm32l4xx_hal_rcc_ex.c ****   }
2532:E:/LiteOS/LiteOS_Lab/drivers/third_party/ST/STM32L4xx_HAL_Driver/Src\stm32l4xx_hal_rcc_ex.c **** 
2533:E:/LiteOS/LiteOS_Lab/drivers/third_party/ST/STM32L4xx_HAL_Driver/Src\stm32l4xx_hal_rcc_ex.c ****   CLEAR_BIT(RCC->BDCR, RCC_BDCR_LSCOEN);
 2846              		.loc 1 2533 0
 2847 004a 0D4B     		ldr	r3, .L221
 2848 004c D3F89030 		ldr	r3, [r3, #144]
 2849 0050 0B4A     		ldr	r2, .L221
 2850 0052 23F08073 		bic	r3, r3, #16777216
 2851 0056 C2F89030 		str	r3, [r2, #144]
2534:E:/LiteOS/LiteOS_Lab/drivers/third_party/ST/STM32L4xx_HAL_Driver/Src\stm32l4xx_hal_rcc_ex.c **** 
ARM GAS  C:\Users\user\AppData\Local\Temp\ccsJwa9Q.s 			page 99


2535:E:/LiteOS/LiteOS_Lab/drivers/third_party/ST/STM32L4xx_HAL_Driver/Src\stm32l4xx_hal_rcc_ex.c ****   /* Restore previous configuration */
2536:E:/LiteOS/LiteOS_Lab/drivers/third_party/ST/STM32L4xx_HAL_Driver/Src\stm32l4xx_hal_rcc_ex.c ****   if(backupchanged == SET)
 2852              		.loc 1 2536 0
 2853 005a BB79     		ldrb	r3, [r7, #6]	@ zero_extendqisi2
 2854 005c 012B     		cmp	r3, #1
 2855 005e 01D1     		bne	.L218
2537:E:/LiteOS/LiteOS_Lab/drivers/third_party/ST/STM32L4xx_HAL_Driver/Src\stm32l4xx_hal_rcc_ex.c ****   {
2538:E:/LiteOS/LiteOS_Lab/drivers/third_party/ST/STM32L4xx_HAL_Driver/Src\stm32l4xx_hal_rcc_ex.c ****     /* Disable access to the backup domain */
2539:E:/LiteOS/LiteOS_Lab/drivers/third_party/ST/STM32L4xx_HAL_Driver/Src\stm32l4xx_hal_rcc_ex.c ****     HAL_PWR_DisableBkUpAccess();
 2856              		.loc 1 2539 0
 2857 0060 FFF7FEFF 		bl	HAL_PWR_DisableBkUpAccess
 2858              	.L218:
2540:E:/LiteOS/LiteOS_Lab/drivers/third_party/ST/STM32L4xx_HAL_Driver/Src\stm32l4xx_hal_rcc_ex.c ****   }
2541:E:/LiteOS/LiteOS_Lab/drivers/third_party/ST/STM32L4xx_HAL_Driver/Src\stm32l4xx_hal_rcc_ex.c ****   if(pwrclkchanged == SET)
 2859              		.loc 1 2541 0
 2860 0064 FB79     		ldrb	r3, [r7, #7]	@ zero_extendqisi2
 2861 0066 012B     		cmp	r3, #1
 2862 0068 05D1     		bne	.L220
2542:E:/LiteOS/LiteOS_Lab/drivers/third_party/ST/STM32L4xx_HAL_Driver/Src\stm32l4xx_hal_rcc_ex.c ****   {
2543:E:/LiteOS/LiteOS_Lab/drivers/third_party/ST/STM32L4xx_HAL_Driver/Src\stm32l4xx_hal_rcc_ex.c ****     __HAL_RCC_PWR_CLK_DISABLE();
 2863              		.loc 1 2543 0
 2864 006a 054B     		ldr	r3, .L221
 2865 006c 9B6D     		ldr	r3, [r3, #88]
 2866 006e 044A     		ldr	r2, .L221
 2867 0070 23F08053 		bic	r3, r3, #268435456
 2868 0074 9365     		str	r3, [r2, #88]
 2869              	.L220:
2544:E:/LiteOS/LiteOS_Lab/drivers/third_party/ST/STM32L4xx_HAL_Driver/Src\stm32l4xx_hal_rcc_ex.c ****   }
2545:E:/LiteOS/LiteOS_Lab/drivers/third_party/ST/STM32L4xx_HAL_Driver/Src\stm32l4xx_hal_rcc_ex.c **** }
 2870              		.loc 1 2545 0
 2871 0076 00BF     		nop
 2872 0078 0837     		adds	r7, r7, #8
 2873              	.LCFI64:
 2874              		.cfi_def_cfa_offset 8
 2875 007a BD46     		mov	sp, r7
 2876              	.LCFI65:
 2877              		.cfi_def_cfa_register 13
 2878              		@ sp needed
 2879 007c 80BD     		pop	{r7, pc}
 2880              	.L222:
 2881 007e 00BF     		.align	2
 2882              	.L221:
 2883 0080 00100240 		.word	1073876992
 2884 0084 00700040 		.word	1073770496
 2885              		.cfi_endproc
 2886              	.LFE146:
 2888              		.section	.text.HAL_RCCEx_EnableMSIPLLMode,"ax",%progbits
 2889              		.align	1
 2890              		.global	HAL_RCCEx_EnableMSIPLLMode
 2891              		.syntax unified
 2892              		.thumb
 2893              		.thumb_func
 2894              		.fpu fpv4-sp-d16
 2896              	HAL_RCCEx_EnableMSIPLLMode:
 2897              	.LFB147:
2546:E:/LiteOS/LiteOS_Lab/drivers/third_party/ST/STM32L4xx_HAL_Driver/Src\stm32l4xx_hal_rcc_ex.c **** 
2547:E:/LiteOS/LiteOS_Lab/drivers/third_party/ST/STM32L4xx_HAL_Driver/Src\stm32l4xx_hal_rcc_ex.c **** /**
ARM GAS  C:\Users\user\AppData\Local\Temp\ccsJwa9Q.s 			page 100


2548:E:/LiteOS/LiteOS_Lab/drivers/third_party/ST/STM32L4xx_HAL_Driver/Src\stm32l4xx_hal_rcc_ex.c ****   * @brief  Enable the PLL-mode of the MSI.
2549:E:/LiteOS/LiteOS_Lab/drivers/third_party/ST/STM32L4xx_HAL_Driver/Src\stm32l4xx_hal_rcc_ex.c ****   * @note   Prior to enable the PLL-mode of the MSI for automatic hardware
2550:E:/LiteOS/LiteOS_Lab/drivers/third_party/ST/STM32L4xx_HAL_Driver/Src\stm32l4xx_hal_rcc_ex.c ****   *         calibration LSE oscillator is to be enabled with HAL_RCC_OscConfig().
2551:E:/LiteOS/LiteOS_Lab/drivers/third_party/ST/STM32L4xx_HAL_Driver/Src\stm32l4xx_hal_rcc_ex.c ****   * @retval None
2552:E:/LiteOS/LiteOS_Lab/drivers/third_party/ST/STM32L4xx_HAL_Driver/Src\stm32l4xx_hal_rcc_ex.c ****   */
2553:E:/LiteOS/LiteOS_Lab/drivers/third_party/ST/STM32L4xx_HAL_Driver/Src\stm32l4xx_hal_rcc_ex.c **** void HAL_RCCEx_EnableMSIPLLMode(void)
2554:E:/LiteOS/LiteOS_Lab/drivers/third_party/ST/STM32L4xx_HAL_Driver/Src\stm32l4xx_hal_rcc_ex.c **** {
 2898              		.loc 1 2554 0
 2899              		.cfi_startproc
 2900              		@ args = 0, pretend = 0, frame = 0
 2901              		@ frame_needed = 1, uses_anonymous_args = 0
 2902              		@ link register save eliminated.
 2903 0000 80B4     		push	{r7}
 2904              	.LCFI66:
 2905              		.cfi_def_cfa_offset 4
 2906              		.cfi_offset 7, -4
 2907 0002 00AF     		add	r7, sp, #0
 2908              	.LCFI67:
 2909              		.cfi_def_cfa_register 7
2555:E:/LiteOS/LiteOS_Lab/drivers/third_party/ST/STM32L4xx_HAL_Driver/Src\stm32l4xx_hal_rcc_ex.c ****   SET_BIT(RCC->CR, RCC_CR_MSIPLLEN) ;
 2910              		.loc 1 2555 0
 2911 0004 054B     		ldr	r3, .L224
 2912 0006 1B68     		ldr	r3, [r3]
 2913 0008 044A     		ldr	r2, .L224
 2914 000a 43F00403 		orr	r3, r3, #4
 2915 000e 1360     		str	r3, [r2]
2556:E:/LiteOS/LiteOS_Lab/drivers/third_party/ST/STM32L4xx_HAL_Driver/Src\stm32l4xx_hal_rcc_ex.c **** }
 2916              		.loc 1 2556 0
 2917 0010 00BF     		nop
 2918 0012 BD46     		mov	sp, r7
 2919              	.LCFI68:
 2920              		.cfi_def_cfa_register 13
 2921              		@ sp needed
 2922 0014 5DF8047B 		ldr	r7, [sp], #4
 2923              	.LCFI69:
 2924              		.cfi_restore 7
 2925              		.cfi_def_cfa_offset 0
 2926 0018 7047     		bx	lr
 2927              	.L225:
 2928 001a 00BF     		.align	2
 2929              	.L224:
 2930 001c 00100240 		.word	1073876992
 2931              		.cfi_endproc
 2932              	.LFE147:
 2934              		.section	.text.HAL_RCCEx_DisableMSIPLLMode,"ax",%progbits
 2935              		.align	1
 2936              		.global	HAL_RCCEx_DisableMSIPLLMode
 2937              		.syntax unified
 2938              		.thumb
 2939              		.thumb_func
 2940              		.fpu fpv4-sp-d16
 2942              	HAL_RCCEx_DisableMSIPLLMode:
 2943              	.LFB148:
2557:E:/LiteOS/LiteOS_Lab/drivers/third_party/ST/STM32L4xx_HAL_Driver/Src\stm32l4xx_hal_rcc_ex.c **** 
2558:E:/LiteOS/LiteOS_Lab/drivers/third_party/ST/STM32L4xx_HAL_Driver/Src\stm32l4xx_hal_rcc_ex.c **** /**
2559:E:/LiteOS/LiteOS_Lab/drivers/third_party/ST/STM32L4xx_HAL_Driver/Src\stm32l4xx_hal_rcc_ex.c ****   * @brief  Disable the PLL-mode of the MSI.
2560:E:/LiteOS/LiteOS_Lab/drivers/third_party/ST/STM32L4xx_HAL_Driver/Src\stm32l4xx_hal_rcc_ex.c ****   * @note   PLL-mode of the MSI is automatically reset when LSE oscillator is disabled.
ARM GAS  C:\Users\user\AppData\Local\Temp\ccsJwa9Q.s 			page 101


2561:E:/LiteOS/LiteOS_Lab/drivers/third_party/ST/STM32L4xx_HAL_Driver/Src\stm32l4xx_hal_rcc_ex.c ****   * @retval None
2562:E:/LiteOS/LiteOS_Lab/drivers/third_party/ST/STM32L4xx_HAL_Driver/Src\stm32l4xx_hal_rcc_ex.c ****   */
2563:E:/LiteOS/LiteOS_Lab/drivers/third_party/ST/STM32L4xx_HAL_Driver/Src\stm32l4xx_hal_rcc_ex.c **** void HAL_RCCEx_DisableMSIPLLMode(void)
2564:E:/LiteOS/LiteOS_Lab/drivers/third_party/ST/STM32L4xx_HAL_Driver/Src\stm32l4xx_hal_rcc_ex.c **** {
 2944              		.loc 1 2564 0
 2945              		.cfi_startproc
 2946              		@ args = 0, pretend = 0, frame = 0
 2947              		@ frame_needed = 1, uses_anonymous_args = 0
 2948              		@ link register save eliminated.
 2949 0000 80B4     		push	{r7}
 2950              	.LCFI70:
 2951              		.cfi_def_cfa_offset 4
 2952              		.cfi_offset 7, -4
 2953 0002 00AF     		add	r7, sp, #0
 2954              	.LCFI71:
 2955              		.cfi_def_cfa_register 7
2565:E:/LiteOS/LiteOS_Lab/drivers/third_party/ST/STM32L4xx_HAL_Driver/Src\stm32l4xx_hal_rcc_ex.c ****   CLEAR_BIT(RCC->CR, RCC_CR_MSIPLLEN) ;
 2956              		.loc 1 2565 0
 2957 0004 054B     		ldr	r3, .L227
 2958 0006 1B68     		ldr	r3, [r3]
 2959 0008 044A     		ldr	r2, .L227
 2960 000a 23F00403 		bic	r3, r3, #4
 2961 000e 1360     		str	r3, [r2]
2566:E:/LiteOS/LiteOS_Lab/drivers/third_party/ST/STM32L4xx_HAL_Driver/Src\stm32l4xx_hal_rcc_ex.c **** }
 2962              		.loc 1 2566 0
 2963 0010 00BF     		nop
 2964 0012 BD46     		mov	sp, r7
 2965              	.LCFI72:
 2966              		.cfi_def_cfa_register 13
 2967              		@ sp needed
 2968 0014 5DF8047B 		ldr	r7, [sp], #4
 2969              	.LCFI73:
 2970              		.cfi_restore 7
 2971              		.cfi_def_cfa_offset 0
 2972 0018 7047     		bx	lr
 2973              	.L228:
 2974 001a 00BF     		.align	2
 2975              	.L227:
 2976 001c 00100240 		.word	1073876992
 2977              		.cfi_endproc
 2978              	.LFE148:
 2980              		.section	.text.HAL_RCCEx_CRSConfig,"ax",%progbits
 2981              		.align	1
 2982              		.global	HAL_RCCEx_CRSConfig
 2983              		.syntax unified
 2984              		.thumb
 2985              		.thumb_func
 2986              		.fpu fpv4-sp-d16
 2988              	HAL_RCCEx_CRSConfig:
 2989              	.LFB149:
2567:E:/LiteOS/LiteOS_Lab/drivers/third_party/ST/STM32L4xx_HAL_Driver/Src\stm32l4xx_hal_rcc_ex.c **** 
2568:E:/LiteOS/LiteOS_Lab/drivers/third_party/ST/STM32L4xx_HAL_Driver/Src\stm32l4xx_hal_rcc_ex.c **** /**
2569:E:/LiteOS/LiteOS_Lab/drivers/third_party/ST/STM32L4xx_HAL_Driver/Src\stm32l4xx_hal_rcc_ex.c ****   * @}
2570:E:/LiteOS/LiteOS_Lab/drivers/third_party/ST/STM32L4xx_HAL_Driver/Src\stm32l4xx_hal_rcc_ex.c ****   */
2571:E:/LiteOS/LiteOS_Lab/drivers/third_party/ST/STM32L4xx_HAL_Driver/Src\stm32l4xx_hal_rcc_ex.c **** 
2572:E:/LiteOS/LiteOS_Lab/drivers/third_party/ST/STM32L4xx_HAL_Driver/Src\stm32l4xx_hal_rcc_ex.c **** #if defined(CRS)
2573:E:/LiteOS/LiteOS_Lab/drivers/third_party/ST/STM32L4xx_HAL_Driver/Src\stm32l4xx_hal_rcc_ex.c **** 
ARM GAS  C:\Users\user\AppData\Local\Temp\ccsJwa9Q.s 			page 102


2574:E:/LiteOS/LiteOS_Lab/drivers/third_party/ST/STM32L4xx_HAL_Driver/Src\stm32l4xx_hal_rcc_ex.c **** /** @defgroup RCCEx_Exported_Functions_Group3 Extended Clock Recovery System Control functions
2575:E:/LiteOS/LiteOS_Lab/drivers/third_party/ST/STM32L4xx_HAL_Driver/Src\stm32l4xx_hal_rcc_ex.c ****  *  @brief  Extended Clock Recovery System Control functions
2576:E:/LiteOS/LiteOS_Lab/drivers/third_party/ST/STM32L4xx_HAL_Driver/Src\stm32l4xx_hal_rcc_ex.c ****  *
2577:E:/LiteOS/LiteOS_Lab/drivers/third_party/ST/STM32L4xx_HAL_Driver/Src\stm32l4xx_hal_rcc_ex.c **** @verbatim
2578:E:/LiteOS/LiteOS_Lab/drivers/third_party/ST/STM32L4xx_HAL_Driver/Src\stm32l4xx_hal_rcc_ex.c ****  ===============================================================================
2579:E:/LiteOS/LiteOS_Lab/drivers/third_party/ST/STM32L4xx_HAL_Driver/Src\stm32l4xx_hal_rcc_ex.c ****                 ##### Extended Clock Recovery System Control functions  #####
2580:E:/LiteOS/LiteOS_Lab/drivers/third_party/ST/STM32L4xx_HAL_Driver/Src\stm32l4xx_hal_rcc_ex.c ****  ===============================================================================
2581:E:/LiteOS/LiteOS_Lab/drivers/third_party/ST/STM32L4xx_HAL_Driver/Src\stm32l4xx_hal_rcc_ex.c ****     [..]
2582:E:/LiteOS/LiteOS_Lab/drivers/third_party/ST/STM32L4xx_HAL_Driver/Src\stm32l4xx_hal_rcc_ex.c ****       For devices with Clock Recovery System feature (CRS), RCC Extention HAL driver can be used as
2583:E:/LiteOS/LiteOS_Lab/drivers/third_party/ST/STM32L4xx_HAL_Driver/Src\stm32l4xx_hal_rcc_ex.c **** 
2584:E:/LiteOS/LiteOS_Lab/drivers/third_party/ST/STM32L4xx_HAL_Driver/Src\stm32l4xx_hal_rcc_ex.c ****       (#) In System clock config, HSI48 needs to be enabled
2585:E:/LiteOS/LiteOS_Lab/drivers/third_party/ST/STM32L4xx_HAL_Driver/Src\stm32l4xx_hal_rcc_ex.c **** 
2586:E:/LiteOS/LiteOS_Lab/drivers/third_party/ST/STM32L4xx_HAL_Driver/Src\stm32l4xx_hal_rcc_ex.c ****       (#) Enable CRS clock in IP MSP init which will use CRS functions
2587:E:/LiteOS/LiteOS_Lab/drivers/third_party/ST/STM32L4xx_HAL_Driver/Src\stm32l4xx_hal_rcc_ex.c **** 
2588:E:/LiteOS/LiteOS_Lab/drivers/third_party/ST/STM32L4xx_HAL_Driver/Src\stm32l4xx_hal_rcc_ex.c ****       (#) Call CRS functions as follows:
2589:E:/LiteOS/LiteOS_Lab/drivers/third_party/ST/STM32L4xx_HAL_Driver/Src\stm32l4xx_hal_rcc_ex.c ****           (##) Prepare synchronization configuration necessary for HSI48 calibration
2590:E:/LiteOS/LiteOS_Lab/drivers/third_party/ST/STM32L4xx_HAL_Driver/Src\stm32l4xx_hal_rcc_ex.c ****               (+++) Default values can be set for frequency Error Measurement (reload and error lim
2591:E:/LiteOS/LiteOS_Lab/drivers/third_party/ST/STM32L4xx_HAL_Driver/Src\stm32l4xx_hal_rcc_ex.c ****                         and also HSI48 oscillator smooth trimming.
2592:E:/LiteOS/LiteOS_Lab/drivers/third_party/ST/STM32L4xx_HAL_Driver/Src\stm32l4xx_hal_rcc_ex.c ****               (+++) Macro __HAL_RCC_CRS_RELOADVALUE_CALCULATE can be also used to calculate
2593:E:/LiteOS/LiteOS_Lab/drivers/third_party/ST/STM32L4xx_HAL_Driver/Src\stm32l4xx_hal_rcc_ex.c ****                         directly reload value with target and sychronization frequencies values
2594:E:/LiteOS/LiteOS_Lab/drivers/third_party/ST/STM32L4xx_HAL_Driver/Src\stm32l4xx_hal_rcc_ex.c ****           (##) Call function HAL_RCCEx_CRSConfig which
2595:E:/LiteOS/LiteOS_Lab/drivers/third_party/ST/STM32L4xx_HAL_Driver/Src\stm32l4xx_hal_rcc_ex.c ****               (+++) Resets CRS registers to their default values.
2596:E:/LiteOS/LiteOS_Lab/drivers/third_party/ST/STM32L4xx_HAL_Driver/Src\stm32l4xx_hal_rcc_ex.c ****               (+++) Configures CRS registers with synchronization configuration
2597:E:/LiteOS/LiteOS_Lab/drivers/third_party/ST/STM32L4xx_HAL_Driver/Src\stm32l4xx_hal_rcc_ex.c ****               (+++) Enables automatic calibration and frequency error counter feature
2598:E:/LiteOS/LiteOS_Lab/drivers/third_party/ST/STM32L4xx_HAL_Driver/Src\stm32l4xx_hal_rcc_ex.c ****            Note: When using USB LPM (Link Power Management) and the device is in Sleep mode, the
2599:E:/LiteOS/LiteOS_Lab/drivers/third_party/ST/STM32L4xx_HAL_Driver/Src\stm32l4xx_hal_rcc_ex.c ****            periodic USB SOF will not be generated by the host. No SYNC signal will therefore be
2600:E:/LiteOS/LiteOS_Lab/drivers/third_party/ST/STM32L4xx_HAL_Driver/Src\stm32l4xx_hal_rcc_ex.c ****            provided to the CRS to calibrate the HSI48 on the run. To guarantee the required clock
2601:E:/LiteOS/LiteOS_Lab/drivers/third_party/ST/STM32L4xx_HAL_Driver/Src\stm32l4xx_hal_rcc_ex.c ****            precision after waking up from Sleep mode, the LSE or reference clock on the GPIOs
2602:E:/LiteOS/LiteOS_Lab/drivers/third_party/ST/STM32L4xx_HAL_Driver/Src\stm32l4xx_hal_rcc_ex.c ****            should be used as SYNC signal.
2603:E:/LiteOS/LiteOS_Lab/drivers/third_party/ST/STM32L4xx_HAL_Driver/Src\stm32l4xx_hal_rcc_ex.c **** 
2604:E:/LiteOS/LiteOS_Lab/drivers/third_party/ST/STM32L4xx_HAL_Driver/Src\stm32l4xx_hal_rcc_ex.c ****           (##) A polling function is provided to wait for complete synchronization
2605:E:/LiteOS/LiteOS_Lab/drivers/third_party/ST/STM32L4xx_HAL_Driver/Src\stm32l4xx_hal_rcc_ex.c ****               (+++) Call function HAL_RCCEx_CRSWaitSynchronization()
2606:E:/LiteOS/LiteOS_Lab/drivers/third_party/ST/STM32L4xx_HAL_Driver/Src\stm32l4xx_hal_rcc_ex.c ****               (+++) According to CRS status, user can decide to adjust again the calibration or con
2607:E:/LiteOS/LiteOS_Lab/drivers/third_party/ST/STM32L4xx_HAL_Driver/Src\stm32l4xx_hal_rcc_ex.c ****                         application if synchronization is OK
2608:E:/LiteOS/LiteOS_Lab/drivers/third_party/ST/STM32L4xx_HAL_Driver/Src\stm32l4xx_hal_rcc_ex.c **** 
2609:E:/LiteOS/LiteOS_Lab/drivers/third_party/ST/STM32L4xx_HAL_Driver/Src\stm32l4xx_hal_rcc_ex.c ****       (#) User can retrieve information related to synchronization in calling function
2610:E:/LiteOS/LiteOS_Lab/drivers/third_party/ST/STM32L4xx_HAL_Driver/Src\stm32l4xx_hal_rcc_ex.c ****             HAL_RCCEx_CRSGetSynchronizationInfo()
2611:E:/LiteOS/LiteOS_Lab/drivers/third_party/ST/STM32L4xx_HAL_Driver/Src\stm32l4xx_hal_rcc_ex.c **** 
2612:E:/LiteOS/LiteOS_Lab/drivers/third_party/ST/STM32L4xx_HAL_Driver/Src\stm32l4xx_hal_rcc_ex.c ****       (#) Regarding synchronization status and synchronization information, user can try a new cali
2613:E:/LiteOS/LiteOS_Lab/drivers/third_party/ST/STM32L4xx_HAL_Driver/Src\stm32l4xx_hal_rcc_ex.c ****            in changing synchronization configuration and call again HAL_RCCEx_CRSConfig.
2614:E:/LiteOS/LiteOS_Lab/drivers/third_party/ST/STM32L4xx_HAL_Driver/Src\stm32l4xx_hal_rcc_ex.c ****            Note: When the SYNC event is detected during the downcounting phase (before reaching the
2615:E:/LiteOS/LiteOS_Lab/drivers/third_party/ST/STM32L4xx_HAL_Driver/Src\stm32l4xx_hal_rcc_ex.c ****            it means that the actual frequency is lower than the target (and so, that the TRIM value
2616:E:/LiteOS/LiteOS_Lab/drivers/third_party/ST/STM32L4xx_HAL_Driver/Src\stm32l4xx_hal_rcc_ex.c ****            incremented), while when it is detected during the upcounting phase it means that the ac
2617:E:/LiteOS/LiteOS_Lab/drivers/third_party/ST/STM32L4xx_HAL_Driver/Src\stm32l4xx_hal_rcc_ex.c ****            is higher (and that the TRIM value should be decremented).
2618:E:/LiteOS/LiteOS_Lab/drivers/third_party/ST/STM32L4xx_HAL_Driver/Src\stm32l4xx_hal_rcc_ex.c **** 
2619:E:/LiteOS/LiteOS_Lab/drivers/third_party/ST/STM32L4xx_HAL_Driver/Src\stm32l4xx_hal_rcc_ex.c ****       (#) In interrupt mode, user can resort to the available macros (__HAL_RCC_CRS_XXX_IT). Interr
2620:E:/LiteOS/LiteOS_Lab/drivers/third_party/ST/STM32L4xx_HAL_Driver/Src\stm32l4xx_hal_rcc_ex.c ****           through CRS Handler (CRS_IRQn/CRS_IRQHandler)
2621:E:/LiteOS/LiteOS_Lab/drivers/third_party/ST/STM32L4xx_HAL_Driver/Src\stm32l4xx_hal_rcc_ex.c ****               (++) Call function HAL_RCCEx_CRSConfig()
2622:E:/LiteOS/LiteOS_Lab/drivers/third_party/ST/STM32L4xx_HAL_Driver/Src\stm32l4xx_hal_rcc_ex.c ****               (++) Enable CRS_IRQn (thanks to NVIC functions)
2623:E:/LiteOS/LiteOS_Lab/drivers/third_party/ST/STM32L4xx_HAL_Driver/Src\stm32l4xx_hal_rcc_ex.c ****               (++) Enable CRS interrupt (__HAL_RCC_CRS_ENABLE_IT)
2624:E:/LiteOS/LiteOS_Lab/drivers/third_party/ST/STM32L4xx_HAL_Driver/Src\stm32l4xx_hal_rcc_ex.c ****               (++) Implement CRS status management in the following user callbacks called from
2625:E:/LiteOS/LiteOS_Lab/drivers/third_party/ST/STM32L4xx_HAL_Driver/Src\stm32l4xx_hal_rcc_ex.c ****                    HAL_RCCEx_CRS_IRQHandler():
2626:E:/LiteOS/LiteOS_Lab/drivers/third_party/ST/STM32L4xx_HAL_Driver/Src\stm32l4xx_hal_rcc_ex.c ****                    (+++) HAL_RCCEx_CRS_SyncOkCallback()
2627:E:/LiteOS/LiteOS_Lab/drivers/third_party/ST/STM32L4xx_HAL_Driver/Src\stm32l4xx_hal_rcc_ex.c ****                    (+++) HAL_RCCEx_CRS_SyncWarnCallback()
2628:E:/LiteOS/LiteOS_Lab/drivers/third_party/ST/STM32L4xx_HAL_Driver/Src\stm32l4xx_hal_rcc_ex.c ****                    (+++) HAL_RCCEx_CRS_ExpectedSyncCallback()
2629:E:/LiteOS/LiteOS_Lab/drivers/third_party/ST/STM32L4xx_HAL_Driver/Src\stm32l4xx_hal_rcc_ex.c ****                    (+++) HAL_RCCEx_CRS_ErrorCallback()
2630:E:/LiteOS/LiteOS_Lab/drivers/third_party/ST/STM32L4xx_HAL_Driver/Src\stm32l4xx_hal_rcc_ex.c **** 
ARM GAS  C:\Users\user\AppData\Local\Temp\ccsJwa9Q.s 			page 103


2631:E:/LiteOS/LiteOS_Lab/drivers/third_party/ST/STM32L4xx_HAL_Driver/Src\stm32l4xx_hal_rcc_ex.c ****       (#) To force a SYNC EVENT, user can use the function HAL_RCCEx_CRSSoftwareSynchronizationGene
2632:E:/LiteOS/LiteOS_Lab/drivers/third_party/ST/STM32L4xx_HAL_Driver/Src\stm32l4xx_hal_rcc_ex.c ****           This function can be called before calling HAL_RCCEx_CRSConfig (for instance in Systick h
2633:E:/LiteOS/LiteOS_Lab/drivers/third_party/ST/STM32L4xx_HAL_Driver/Src\stm32l4xx_hal_rcc_ex.c **** 
2634:E:/LiteOS/LiteOS_Lab/drivers/third_party/ST/STM32L4xx_HAL_Driver/Src\stm32l4xx_hal_rcc_ex.c **** @endverbatim
2635:E:/LiteOS/LiteOS_Lab/drivers/third_party/ST/STM32L4xx_HAL_Driver/Src\stm32l4xx_hal_rcc_ex.c ****  * @{
2636:E:/LiteOS/LiteOS_Lab/drivers/third_party/ST/STM32L4xx_HAL_Driver/Src\stm32l4xx_hal_rcc_ex.c ****  */
2637:E:/LiteOS/LiteOS_Lab/drivers/third_party/ST/STM32L4xx_HAL_Driver/Src\stm32l4xx_hal_rcc_ex.c **** 
2638:E:/LiteOS/LiteOS_Lab/drivers/third_party/ST/STM32L4xx_HAL_Driver/Src\stm32l4xx_hal_rcc_ex.c **** /**
2639:E:/LiteOS/LiteOS_Lab/drivers/third_party/ST/STM32L4xx_HAL_Driver/Src\stm32l4xx_hal_rcc_ex.c ****   * @brief  Start automatic synchronization for polling mode
2640:E:/LiteOS/LiteOS_Lab/drivers/third_party/ST/STM32L4xx_HAL_Driver/Src\stm32l4xx_hal_rcc_ex.c ****   * @param  pInit Pointer on RCC_CRSInitTypeDef structure
2641:E:/LiteOS/LiteOS_Lab/drivers/third_party/ST/STM32L4xx_HAL_Driver/Src\stm32l4xx_hal_rcc_ex.c ****   * @retval None
2642:E:/LiteOS/LiteOS_Lab/drivers/third_party/ST/STM32L4xx_HAL_Driver/Src\stm32l4xx_hal_rcc_ex.c ****   */
2643:E:/LiteOS/LiteOS_Lab/drivers/third_party/ST/STM32L4xx_HAL_Driver/Src\stm32l4xx_hal_rcc_ex.c **** void HAL_RCCEx_CRSConfig(RCC_CRSInitTypeDef *pInit)
2644:E:/LiteOS/LiteOS_Lab/drivers/third_party/ST/STM32L4xx_HAL_Driver/Src\stm32l4xx_hal_rcc_ex.c **** {
 2990              		.loc 1 2644 0
 2991              		.cfi_startproc
 2992              		@ args = 0, pretend = 0, frame = 16
 2993              		@ frame_needed = 1, uses_anonymous_args = 0
 2994              		@ link register save eliminated.
 2995 0000 80B4     		push	{r7}
 2996              	.LCFI74:
 2997              		.cfi_def_cfa_offset 4
 2998              		.cfi_offset 7, -4
 2999 0002 85B0     		sub	sp, sp, #20
 3000              	.LCFI75:
 3001              		.cfi_def_cfa_offset 24
 3002 0004 00AF     		add	r7, sp, #0
 3003              	.LCFI76:
 3004              		.cfi_def_cfa_register 7
 3005 0006 7860     		str	r0, [r7, #4]
2645:E:/LiteOS/LiteOS_Lab/drivers/third_party/ST/STM32L4xx_HAL_Driver/Src\stm32l4xx_hal_rcc_ex.c ****   uint32_t value = 0;
 3006              		.loc 1 2645 0
 3007 0008 0023     		movs	r3, #0
 3008 000a FB60     		str	r3, [r7, #12]
2646:E:/LiteOS/LiteOS_Lab/drivers/third_party/ST/STM32L4xx_HAL_Driver/Src\stm32l4xx_hal_rcc_ex.c **** 
2647:E:/LiteOS/LiteOS_Lab/drivers/third_party/ST/STM32L4xx_HAL_Driver/Src\stm32l4xx_hal_rcc_ex.c ****   /* Check the parameters */
2648:E:/LiteOS/LiteOS_Lab/drivers/third_party/ST/STM32L4xx_HAL_Driver/Src\stm32l4xx_hal_rcc_ex.c ****   assert_param(IS_RCC_CRS_SYNC_DIV(pInit->Prescaler));
2649:E:/LiteOS/LiteOS_Lab/drivers/third_party/ST/STM32L4xx_HAL_Driver/Src\stm32l4xx_hal_rcc_ex.c ****   assert_param(IS_RCC_CRS_SYNC_SOURCE(pInit->Source));
2650:E:/LiteOS/LiteOS_Lab/drivers/third_party/ST/STM32L4xx_HAL_Driver/Src\stm32l4xx_hal_rcc_ex.c ****   assert_param(IS_RCC_CRS_SYNC_POLARITY(pInit->Polarity));
2651:E:/LiteOS/LiteOS_Lab/drivers/third_party/ST/STM32L4xx_HAL_Driver/Src\stm32l4xx_hal_rcc_ex.c ****   assert_param(IS_RCC_CRS_RELOADVALUE(pInit->ReloadValue));
2652:E:/LiteOS/LiteOS_Lab/drivers/third_party/ST/STM32L4xx_HAL_Driver/Src\stm32l4xx_hal_rcc_ex.c ****   assert_param(IS_RCC_CRS_ERRORLIMIT(pInit->ErrorLimitValue));
2653:E:/LiteOS/LiteOS_Lab/drivers/third_party/ST/STM32L4xx_HAL_Driver/Src\stm32l4xx_hal_rcc_ex.c ****   assert_param(IS_RCC_CRS_HSI48CALIBRATION(pInit->HSI48CalibrationValue));
2654:E:/LiteOS/LiteOS_Lab/drivers/third_party/ST/STM32L4xx_HAL_Driver/Src\stm32l4xx_hal_rcc_ex.c **** 
2655:E:/LiteOS/LiteOS_Lab/drivers/third_party/ST/STM32L4xx_HAL_Driver/Src\stm32l4xx_hal_rcc_ex.c ****   /* CONFIGURATION */
2656:E:/LiteOS/LiteOS_Lab/drivers/third_party/ST/STM32L4xx_HAL_Driver/Src\stm32l4xx_hal_rcc_ex.c **** 
2657:E:/LiteOS/LiteOS_Lab/drivers/third_party/ST/STM32L4xx_HAL_Driver/Src\stm32l4xx_hal_rcc_ex.c ****   /* Before configuration, reset CRS registers to their default values*/
2658:E:/LiteOS/LiteOS_Lab/drivers/third_party/ST/STM32L4xx_HAL_Driver/Src\stm32l4xx_hal_rcc_ex.c ****   __HAL_RCC_CRS_FORCE_RESET();
 3009              		.loc 1 2658 0
 3010 000c 1C4B     		ldr	r3, .L230
 3011 000e 9B6B     		ldr	r3, [r3, #56]
 3012 0010 1B4A     		ldr	r2, .L230
 3013 0012 43F08073 		orr	r3, r3, #16777216
 3014 0016 9363     		str	r3, [r2, #56]
2659:E:/LiteOS/LiteOS_Lab/drivers/third_party/ST/STM32L4xx_HAL_Driver/Src\stm32l4xx_hal_rcc_ex.c ****   __HAL_RCC_CRS_RELEASE_RESET();
 3015              		.loc 1 2659 0
 3016 0018 194B     		ldr	r3, .L230
 3017 001a 9B6B     		ldr	r3, [r3, #56]
ARM GAS  C:\Users\user\AppData\Local\Temp\ccsJwa9Q.s 			page 104


 3018 001c 184A     		ldr	r2, .L230
 3019 001e 23F08073 		bic	r3, r3, #16777216
 3020 0022 9363     		str	r3, [r2, #56]
2660:E:/LiteOS/LiteOS_Lab/drivers/third_party/ST/STM32L4xx_HAL_Driver/Src\stm32l4xx_hal_rcc_ex.c **** 
2661:E:/LiteOS/LiteOS_Lab/drivers/third_party/ST/STM32L4xx_HAL_Driver/Src\stm32l4xx_hal_rcc_ex.c ****   /* Set the SYNCDIV[2:0] bits according to Prescaler value */
2662:E:/LiteOS/LiteOS_Lab/drivers/third_party/ST/STM32L4xx_HAL_Driver/Src\stm32l4xx_hal_rcc_ex.c ****   /* Set the SYNCSRC[1:0] bits according to Source value */
2663:E:/LiteOS/LiteOS_Lab/drivers/third_party/ST/STM32L4xx_HAL_Driver/Src\stm32l4xx_hal_rcc_ex.c ****   /* Set the SYNCSPOL bit according to Polarity value */
2664:E:/LiteOS/LiteOS_Lab/drivers/third_party/ST/STM32L4xx_HAL_Driver/Src\stm32l4xx_hal_rcc_ex.c ****   value = (pInit->Prescaler | pInit->Source | pInit->Polarity);
 3021              		.loc 1 2664 0
 3022 0024 7B68     		ldr	r3, [r7, #4]
 3023 0026 1A68     		ldr	r2, [r3]
 3024 0028 7B68     		ldr	r3, [r7, #4]
 3025 002a 5B68     		ldr	r3, [r3, #4]
 3026 002c 1A43     		orrs	r2, r2, r3
 3027 002e 7B68     		ldr	r3, [r7, #4]
 3028 0030 9B68     		ldr	r3, [r3, #8]
 3029 0032 1343     		orrs	r3, r3, r2
 3030 0034 FB60     		str	r3, [r7, #12]
2665:E:/LiteOS/LiteOS_Lab/drivers/third_party/ST/STM32L4xx_HAL_Driver/Src\stm32l4xx_hal_rcc_ex.c ****   /* Set the RELOAD[15:0] bits according to ReloadValue value */
2666:E:/LiteOS/LiteOS_Lab/drivers/third_party/ST/STM32L4xx_HAL_Driver/Src\stm32l4xx_hal_rcc_ex.c ****   value |= pInit->ReloadValue;
 3031              		.loc 1 2666 0
 3032 0036 7B68     		ldr	r3, [r7, #4]
 3033 0038 DB68     		ldr	r3, [r3, #12]
 3034 003a FA68     		ldr	r2, [r7, #12]
 3035 003c 1343     		orrs	r3, r3, r2
 3036 003e FB60     		str	r3, [r7, #12]
2667:E:/LiteOS/LiteOS_Lab/drivers/third_party/ST/STM32L4xx_HAL_Driver/Src\stm32l4xx_hal_rcc_ex.c ****   /* Set the FELIM[7:0] bits according to ErrorLimitValue value */
2668:E:/LiteOS/LiteOS_Lab/drivers/third_party/ST/STM32L4xx_HAL_Driver/Src\stm32l4xx_hal_rcc_ex.c ****   value |= (pInit->ErrorLimitValue << CRS_CFGR_FELIM_Pos);
 3037              		.loc 1 2668 0
 3038 0040 7B68     		ldr	r3, [r7, #4]
 3039 0042 1B69     		ldr	r3, [r3, #16]
 3040 0044 1B04     		lsls	r3, r3, #16
 3041 0046 FA68     		ldr	r2, [r7, #12]
 3042 0048 1343     		orrs	r3, r3, r2
 3043 004a FB60     		str	r3, [r7, #12]
2669:E:/LiteOS/LiteOS_Lab/drivers/third_party/ST/STM32L4xx_HAL_Driver/Src\stm32l4xx_hal_rcc_ex.c ****   WRITE_REG(CRS->CFGR, value);
 3044              		.loc 1 2669 0
 3045 004c 0D4A     		ldr	r2, .L230+4
 3046 004e FB68     		ldr	r3, [r7, #12]
 3047 0050 5360     		str	r3, [r2, #4]
2670:E:/LiteOS/LiteOS_Lab/drivers/third_party/ST/STM32L4xx_HAL_Driver/Src\stm32l4xx_hal_rcc_ex.c **** 
2671:E:/LiteOS/LiteOS_Lab/drivers/third_party/ST/STM32L4xx_HAL_Driver/Src\stm32l4xx_hal_rcc_ex.c ****   /* Adjust HSI48 oscillator smooth trimming */
2672:E:/LiteOS/LiteOS_Lab/drivers/third_party/ST/STM32L4xx_HAL_Driver/Src\stm32l4xx_hal_rcc_ex.c ****   /* Set the TRIM[5:0] bits according to RCC_CRS_HSI48CalibrationValue value */
2673:E:/LiteOS/LiteOS_Lab/drivers/third_party/ST/STM32L4xx_HAL_Driver/Src\stm32l4xx_hal_rcc_ex.c ****   MODIFY_REG(CRS->CR, CRS_CR_TRIM, (pInit->HSI48CalibrationValue << CRS_CR_TRIM_Pos));
 3048              		.loc 1 2673 0
 3049 0052 0C4B     		ldr	r3, .L230+4
 3050 0054 1B68     		ldr	r3, [r3]
 3051 0056 23F47C52 		bic	r2, r3, #16128
 3052 005a 7B68     		ldr	r3, [r7, #4]
 3053 005c 5B69     		ldr	r3, [r3, #20]
 3054 005e 1B02     		lsls	r3, r3, #8
 3055 0060 0849     		ldr	r1, .L230+4
 3056 0062 1343     		orrs	r3, r3, r2
 3057 0064 0B60     		str	r3, [r1]
2674:E:/LiteOS/LiteOS_Lab/drivers/third_party/ST/STM32L4xx_HAL_Driver/Src\stm32l4xx_hal_rcc_ex.c **** 
2675:E:/LiteOS/LiteOS_Lab/drivers/third_party/ST/STM32L4xx_HAL_Driver/Src\stm32l4xx_hal_rcc_ex.c ****   /* START AUTOMATIC SYNCHRONIZATION*/
2676:E:/LiteOS/LiteOS_Lab/drivers/third_party/ST/STM32L4xx_HAL_Driver/Src\stm32l4xx_hal_rcc_ex.c **** 
ARM GAS  C:\Users\user\AppData\Local\Temp\ccsJwa9Q.s 			page 105


2677:E:/LiteOS/LiteOS_Lab/drivers/third_party/ST/STM32L4xx_HAL_Driver/Src\stm32l4xx_hal_rcc_ex.c ****   /* Enable Automatic trimming & Frequency error counter */
2678:E:/LiteOS/LiteOS_Lab/drivers/third_party/ST/STM32L4xx_HAL_Driver/Src\stm32l4xx_hal_rcc_ex.c ****   SET_BIT(CRS->CR, CRS_CR_AUTOTRIMEN | CRS_CR_CEN);
 3058              		.loc 1 2678 0
 3059 0066 074B     		ldr	r3, .L230+4
 3060 0068 1B68     		ldr	r3, [r3]
 3061 006a 064A     		ldr	r2, .L230+4
 3062 006c 43F06003 		orr	r3, r3, #96
 3063 0070 1360     		str	r3, [r2]
2679:E:/LiteOS/LiteOS_Lab/drivers/third_party/ST/STM32L4xx_HAL_Driver/Src\stm32l4xx_hal_rcc_ex.c **** }
 3064              		.loc 1 2679 0
 3065 0072 00BF     		nop
 3066 0074 1437     		adds	r7, r7, #20
 3067              	.LCFI77:
 3068              		.cfi_def_cfa_offset 4
 3069 0076 BD46     		mov	sp, r7
 3070              	.LCFI78:
 3071              		.cfi_def_cfa_register 13
 3072              		@ sp needed
 3073 0078 5DF8047B 		ldr	r7, [sp], #4
 3074              	.LCFI79:
 3075              		.cfi_restore 7
 3076              		.cfi_def_cfa_offset 0
 3077 007c 7047     		bx	lr
 3078              	.L231:
 3079 007e 00BF     		.align	2
 3080              	.L230:
 3081 0080 00100240 		.word	1073876992
 3082 0084 00600040 		.word	1073766400
 3083              		.cfi_endproc
 3084              	.LFE149:
 3086              		.section	.text.HAL_RCCEx_CRSSoftwareSynchronizationGenerate,"ax",%progbits
 3087              		.align	1
 3088              		.global	HAL_RCCEx_CRSSoftwareSynchronizationGenerate
 3089              		.syntax unified
 3090              		.thumb
 3091              		.thumb_func
 3092              		.fpu fpv4-sp-d16
 3094              	HAL_RCCEx_CRSSoftwareSynchronizationGenerate:
 3095              	.LFB150:
2680:E:/LiteOS/LiteOS_Lab/drivers/third_party/ST/STM32L4xx_HAL_Driver/Src\stm32l4xx_hal_rcc_ex.c **** 
2681:E:/LiteOS/LiteOS_Lab/drivers/third_party/ST/STM32L4xx_HAL_Driver/Src\stm32l4xx_hal_rcc_ex.c **** /**
2682:E:/LiteOS/LiteOS_Lab/drivers/third_party/ST/STM32L4xx_HAL_Driver/Src\stm32l4xx_hal_rcc_ex.c ****   * @brief  Generate the software synchronization event
2683:E:/LiteOS/LiteOS_Lab/drivers/third_party/ST/STM32L4xx_HAL_Driver/Src\stm32l4xx_hal_rcc_ex.c ****   * @retval None
2684:E:/LiteOS/LiteOS_Lab/drivers/third_party/ST/STM32L4xx_HAL_Driver/Src\stm32l4xx_hal_rcc_ex.c ****   */
2685:E:/LiteOS/LiteOS_Lab/drivers/third_party/ST/STM32L4xx_HAL_Driver/Src\stm32l4xx_hal_rcc_ex.c **** void HAL_RCCEx_CRSSoftwareSynchronizationGenerate(void)
2686:E:/LiteOS/LiteOS_Lab/drivers/third_party/ST/STM32L4xx_HAL_Driver/Src\stm32l4xx_hal_rcc_ex.c **** {
 3096              		.loc 1 2686 0
 3097              		.cfi_startproc
 3098              		@ args = 0, pretend = 0, frame = 0
 3099              		@ frame_needed = 1, uses_anonymous_args = 0
 3100              		@ link register save eliminated.
 3101 0000 80B4     		push	{r7}
 3102              	.LCFI80:
 3103              		.cfi_def_cfa_offset 4
 3104              		.cfi_offset 7, -4
 3105 0002 00AF     		add	r7, sp, #0
 3106              	.LCFI81:
ARM GAS  C:\Users\user\AppData\Local\Temp\ccsJwa9Q.s 			page 106


 3107              		.cfi_def_cfa_register 7
2687:E:/LiteOS/LiteOS_Lab/drivers/third_party/ST/STM32L4xx_HAL_Driver/Src\stm32l4xx_hal_rcc_ex.c ****   SET_BIT(CRS->CR, CRS_CR_SWSYNC);
 3108              		.loc 1 2687 0
 3109 0004 054B     		ldr	r3, .L233
 3110 0006 1B68     		ldr	r3, [r3]
 3111 0008 044A     		ldr	r2, .L233
 3112 000a 43F08003 		orr	r3, r3, #128
 3113 000e 1360     		str	r3, [r2]
2688:E:/LiteOS/LiteOS_Lab/drivers/third_party/ST/STM32L4xx_HAL_Driver/Src\stm32l4xx_hal_rcc_ex.c **** }
 3114              		.loc 1 2688 0
 3115 0010 00BF     		nop
 3116 0012 BD46     		mov	sp, r7
 3117              	.LCFI82:
 3118              		.cfi_def_cfa_register 13
 3119              		@ sp needed
 3120 0014 5DF8047B 		ldr	r7, [sp], #4
 3121              	.LCFI83:
 3122              		.cfi_restore 7
 3123              		.cfi_def_cfa_offset 0
 3124 0018 7047     		bx	lr
 3125              	.L234:
 3126 001a 00BF     		.align	2
 3127              	.L233:
 3128 001c 00600040 		.word	1073766400
 3129              		.cfi_endproc
 3130              	.LFE150:
 3132              		.section	.text.HAL_RCCEx_CRSGetSynchronizationInfo,"ax",%progbits
 3133              		.align	1
 3134              		.global	HAL_RCCEx_CRSGetSynchronizationInfo
 3135              		.syntax unified
 3136              		.thumb
 3137              		.thumb_func
 3138              		.fpu fpv4-sp-d16
 3140              	HAL_RCCEx_CRSGetSynchronizationInfo:
 3141              	.LFB151:
2689:E:/LiteOS/LiteOS_Lab/drivers/third_party/ST/STM32L4xx_HAL_Driver/Src\stm32l4xx_hal_rcc_ex.c **** 
2690:E:/LiteOS/LiteOS_Lab/drivers/third_party/ST/STM32L4xx_HAL_Driver/Src\stm32l4xx_hal_rcc_ex.c **** /**
2691:E:/LiteOS/LiteOS_Lab/drivers/third_party/ST/STM32L4xx_HAL_Driver/Src\stm32l4xx_hal_rcc_ex.c ****   * @brief  Return synchronization info
2692:E:/LiteOS/LiteOS_Lab/drivers/third_party/ST/STM32L4xx_HAL_Driver/Src\stm32l4xx_hal_rcc_ex.c ****   * @param  pSynchroInfo Pointer on RCC_CRSSynchroInfoTypeDef structure
2693:E:/LiteOS/LiteOS_Lab/drivers/third_party/ST/STM32L4xx_HAL_Driver/Src\stm32l4xx_hal_rcc_ex.c ****   * @retval None
2694:E:/LiteOS/LiteOS_Lab/drivers/third_party/ST/STM32L4xx_HAL_Driver/Src\stm32l4xx_hal_rcc_ex.c ****   */
2695:E:/LiteOS/LiteOS_Lab/drivers/third_party/ST/STM32L4xx_HAL_Driver/Src\stm32l4xx_hal_rcc_ex.c **** void HAL_RCCEx_CRSGetSynchronizationInfo(RCC_CRSSynchroInfoTypeDef *pSynchroInfo)
2696:E:/LiteOS/LiteOS_Lab/drivers/third_party/ST/STM32L4xx_HAL_Driver/Src\stm32l4xx_hal_rcc_ex.c **** {
 3142              		.loc 1 2696 0
 3143              		.cfi_startproc
 3144              		@ args = 0, pretend = 0, frame = 8
 3145              		@ frame_needed = 1, uses_anonymous_args = 0
 3146              		@ link register save eliminated.
 3147 0000 80B4     		push	{r7}
 3148              	.LCFI84:
 3149              		.cfi_def_cfa_offset 4
 3150              		.cfi_offset 7, -4
 3151 0002 83B0     		sub	sp, sp, #12
 3152              	.LCFI85:
 3153              		.cfi_def_cfa_offset 16
 3154 0004 00AF     		add	r7, sp, #0
 3155              	.LCFI86:
ARM GAS  C:\Users\user\AppData\Local\Temp\ccsJwa9Q.s 			page 107


 3156              		.cfi_def_cfa_register 7
 3157 0006 7860     		str	r0, [r7, #4]
2697:E:/LiteOS/LiteOS_Lab/drivers/third_party/ST/STM32L4xx_HAL_Driver/Src\stm32l4xx_hal_rcc_ex.c ****   /* Check the parameter */
2698:E:/LiteOS/LiteOS_Lab/drivers/third_party/ST/STM32L4xx_HAL_Driver/Src\stm32l4xx_hal_rcc_ex.c ****   assert_param(pSynchroInfo != NULL);
2699:E:/LiteOS/LiteOS_Lab/drivers/third_party/ST/STM32L4xx_HAL_Driver/Src\stm32l4xx_hal_rcc_ex.c **** 
2700:E:/LiteOS/LiteOS_Lab/drivers/third_party/ST/STM32L4xx_HAL_Driver/Src\stm32l4xx_hal_rcc_ex.c ****   /* Get the reload value */
2701:E:/LiteOS/LiteOS_Lab/drivers/third_party/ST/STM32L4xx_HAL_Driver/Src\stm32l4xx_hal_rcc_ex.c ****   pSynchroInfo->ReloadValue = (READ_BIT(CRS->CFGR, CRS_CFGR_RELOAD));
 3158              		.loc 1 2701 0
 3159 0008 0E4B     		ldr	r3, .L236
 3160 000a 5B68     		ldr	r3, [r3, #4]
 3161 000c 9AB2     		uxth	r2, r3
 3162 000e 7B68     		ldr	r3, [r7, #4]
 3163 0010 1A60     		str	r2, [r3]
2702:E:/LiteOS/LiteOS_Lab/drivers/third_party/ST/STM32L4xx_HAL_Driver/Src\stm32l4xx_hal_rcc_ex.c **** 
2703:E:/LiteOS/LiteOS_Lab/drivers/third_party/ST/STM32L4xx_HAL_Driver/Src\stm32l4xx_hal_rcc_ex.c ****   /* Get HSI48 oscillator smooth trimming */
2704:E:/LiteOS/LiteOS_Lab/drivers/third_party/ST/STM32L4xx_HAL_Driver/Src\stm32l4xx_hal_rcc_ex.c ****   pSynchroInfo->HSI48CalibrationValue = (READ_BIT(CRS->CR, CRS_CR_TRIM) >> CRS_CR_TRIM_Pos);
 3164              		.loc 1 2704 0
 3165 0012 0C4B     		ldr	r3, .L236
 3166 0014 1B68     		ldr	r3, [r3]
 3167 0016 1B0A     		lsrs	r3, r3, #8
 3168 0018 03F03F02 		and	r2, r3, #63
 3169 001c 7B68     		ldr	r3, [r7, #4]
 3170 001e 5A60     		str	r2, [r3, #4]
2705:E:/LiteOS/LiteOS_Lab/drivers/third_party/ST/STM32L4xx_HAL_Driver/Src\stm32l4xx_hal_rcc_ex.c **** 
2706:E:/LiteOS/LiteOS_Lab/drivers/third_party/ST/STM32L4xx_HAL_Driver/Src\stm32l4xx_hal_rcc_ex.c ****   /* Get Frequency error capture */
2707:E:/LiteOS/LiteOS_Lab/drivers/third_party/ST/STM32L4xx_HAL_Driver/Src\stm32l4xx_hal_rcc_ex.c ****   pSynchroInfo->FreqErrorCapture = (READ_BIT(CRS->ISR, CRS_ISR_FECAP) >> CRS_ISR_FECAP_Pos);
 3171              		.loc 1 2707 0
 3172 0020 084B     		ldr	r3, .L236
 3173 0022 9B68     		ldr	r3, [r3, #8]
 3174 0024 1B0C     		lsrs	r3, r3, #16
 3175 0026 9AB2     		uxth	r2, r3
 3176 0028 7B68     		ldr	r3, [r7, #4]
 3177 002a 9A60     		str	r2, [r3, #8]
2708:E:/LiteOS/LiteOS_Lab/drivers/third_party/ST/STM32L4xx_HAL_Driver/Src\stm32l4xx_hal_rcc_ex.c **** 
2709:E:/LiteOS/LiteOS_Lab/drivers/third_party/ST/STM32L4xx_HAL_Driver/Src\stm32l4xx_hal_rcc_ex.c ****   /* Get Frequency error direction */
2710:E:/LiteOS/LiteOS_Lab/drivers/third_party/ST/STM32L4xx_HAL_Driver/Src\stm32l4xx_hal_rcc_ex.c ****   pSynchroInfo->FreqErrorDirection = (READ_BIT(CRS->ISR, CRS_ISR_FEDIR));
 3178              		.loc 1 2710 0
 3179 002c 054B     		ldr	r3, .L236
 3180 002e 9B68     		ldr	r3, [r3, #8]
 3181 0030 03F40042 		and	r2, r3, #32768
 3182 0034 7B68     		ldr	r3, [r7, #4]
 3183 0036 DA60     		str	r2, [r3, #12]
2711:E:/LiteOS/LiteOS_Lab/drivers/third_party/ST/STM32L4xx_HAL_Driver/Src\stm32l4xx_hal_rcc_ex.c **** }
 3184              		.loc 1 2711 0
 3185 0038 00BF     		nop
 3186 003a 0C37     		adds	r7, r7, #12
 3187              	.LCFI87:
 3188              		.cfi_def_cfa_offset 4
 3189 003c BD46     		mov	sp, r7
 3190              	.LCFI88:
 3191              		.cfi_def_cfa_register 13
 3192              		@ sp needed
 3193 003e 5DF8047B 		ldr	r7, [sp], #4
 3194              	.LCFI89:
 3195              		.cfi_restore 7
 3196              		.cfi_def_cfa_offset 0
 3197 0042 7047     		bx	lr
ARM GAS  C:\Users\user\AppData\Local\Temp\ccsJwa9Q.s 			page 108


 3198              	.L237:
 3199              		.align	2
 3200              	.L236:
 3201 0044 00600040 		.word	1073766400
 3202              		.cfi_endproc
 3203              	.LFE151:
 3205              		.section	.text.HAL_RCCEx_CRSWaitSynchronization,"ax",%progbits
 3206              		.align	1
 3207              		.global	HAL_RCCEx_CRSWaitSynchronization
 3208              		.syntax unified
 3209              		.thumb
 3210              		.thumb_func
 3211              		.fpu fpv4-sp-d16
 3213              	HAL_RCCEx_CRSWaitSynchronization:
 3214              	.LFB152:
2712:E:/LiteOS/LiteOS_Lab/drivers/third_party/ST/STM32L4xx_HAL_Driver/Src\stm32l4xx_hal_rcc_ex.c **** 
2713:E:/LiteOS/LiteOS_Lab/drivers/third_party/ST/STM32L4xx_HAL_Driver/Src\stm32l4xx_hal_rcc_ex.c **** /**
2714:E:/LiteOS/LiteOS_Lab/drivers/third_party/ST/STM32L4xx_HAL_Driver/Src\stm32l4xx_hal_rcc_ex.c **** * @brief Wait for CRS Synchronization status.
2715:E:/LiteOS/LiteOS_Lab/drivers/third_party/ST/STM32L4xx_HAL_Driver/Src\stm32l4xx_hal_rcc_ex.c **** * @param Timeout  Duration of the timeout
2716:E:/LiteOS/LiteOS_Lab/drivers/third_party/ST/STM32L4xx_HAL_Driver/Src\stm32l4xx_hal_rcc_ex.c **** * @note  Timeout is based on the maximum time to receive a SYNC event based on synchronization
2717:E:/LiteOS/LiteOS_Lab/drivers/third_party/ST/STM32L4xx_HAL_Driver/Src\stm32l4xx_hal_rcc_ex.c **** *        frequency.
2718:E:/LiteOS/LiteOS_Lab/drivers/third_party/ST/STM32L4xx_HAL_Driver/Src\stm32l4xx_hal_rcc_ex.c **** * @note    If Timeout set to HAL_MAX_DELAY, HAL_TIMEOUT will be never returned.
2719:E:/LiteOS/LiteOS_Lab/drivers/third_party/ST/STM32L4xx_HAL_Driver/Src\stm32l4xx_hal_rcc_ex.c **** * @retval Combination of Synchronization status
2720:E:/LiteOS/LiteOS_Lab/drivers/third_party/ST/STM32L4xx_HAL_Driver/Src\stm32l4xx_hal_rcc_ex.c **** *          This parameter can be a combination of the following values:
2721:E:/LiteOS/LiteOS_Lab/drivers/third_party/ST/STM32L4xx_HAL_Driver/Src\stm32l4xx_hal_rcc_ex.c **** *            @arg @ref RCC_CRS_TIMEOUT
2722:E:/LiteOS/LiteOS_Lab/drivers/third_party/ST/STM32L4xx_HAL_Driver/Src\stm32l4xx_hal_rcc_ex.c **** *            @arg @ref RCC_CRS_SYNCOK
2723:E:/LiteOS/LiteOS_Lab/drivers/third_party/ST/STM32L4xx_HAL_Driver/Src\stm32l4xx_hal_rcc_ex.c **** *            @arg @ref RCC_CRS_SYNCWARN
2724:E:/LiteOS/LiteOS_Lab/drivers/third_party/ST/STM32L4xx_HAL_Driver/Src\stm32l4xx_hal_rcc_ex.c **** *            @arg @ref RCC_CRS_SYNCERR
2725:E:/LiteOS/LiteOS_Lab/drivers/third_party/ST/STM32L4xx_HAL_Driver/Src\stm32l4xx_hal_rcc_ex.c **** *            @arg @ref RCC_CRS_SYNCMISS
2726:E:/LiteOS/LiteOS_Lab/drivers/third_party/ST/STM32L4xx_HAL_Driver/Src\stm32l4xx_hal_rcc_ex.c **** *            @arg @ref RCC_CRS_TRIMOVF
2727:E:/LiteOS/LiteOS_Lab/drivers/third_party/ST/STM32L4xx_HAL_Driver/Src\stm32l4xx_hal_rcc_ex.c **** */
2728:E:/LiteOS/LiteOS_Lab/drivers/third_party/ST/STM32L4xx_HAL_Driver/Src\stm32l4xx_hal_rcc_ex.c **** uint32_t HAL_RCCEx_CRSWaitSynchronization(uint32_t Timeout)
2729:E:/LiteOS/LiteOS_Lab/drivers/third_party/ST/STM32L4xx_HAL_Driver/Src\stm32l4xx_hal_rcc_ex.c **** {
 3215              		.loc 1 2729 0
 3216              		.cfi_startproc
 3217              		@ args = 0, pretend = 0, frame = 16
 3218              		@ frame_needed = 1, uses_anonymous_args = 0
 3219 0000 80B5     		push	{r7, lr}
 3220              	.LCFI90:
 3221              		.cfi_def_cfa_offset 8
 3222              		.cfi_offset 7, -8
 3223              		.cfi_offset 14, -4
 3224 0002 84B0     		sub	sp, sp, #16
 3225              	.LCFI91:
 3226              		.cfi_def_cfa_offset 24
 3227 0004 00AF     		add	r7, sp, #0
 3228              	.LCFI92:
 3229              		.cfi_def_cfa_register 7
 3230 0006 7860     		str	r0, [r7, #4]
2730:E:/LiteOS/LiteOS_Lab/drivers/third_party/ST/STM32L4xx_HAL_Driver/Src\stm32l4xx_hal_rcc_ex.c ****   uint32_t crsstatus = RCC_CRS_NONE;
 3231              		.loc 1 2730 0
 3232 0008 0023     		movs	r3, #0
 3233 000a FB60     		str	r3, [r7, #12]
2731:E:/LiteOS/LiteOS_Lab/drivers/third_party/ST/STM32L4xx_HAL_Driver/Src\stm32l4xx_hal_rcc_ex.c ****   uint32_t tickstart = 0U;
 3234              		.loc 1 2731 0
 3235 000c 0023     		movs	r3, #0
 3236 000e BB60     		str	r3, [r7, #8]
ARM GAS  C:\Users\user\AppData\Local\Temp\ccsJwa9Q.s 			page 109


2732:E:/LiteOS/LiteOS_Lab/drivers/third_party/ST/STM32L4xx_HAL_Driver/Src\stm32l4xx_hal_rcc_ex.c **** 
2733:E:/LiteOS/LiteOS_Lab/drivers/third_party/ST/STM32L4xx_HAL_Driver/Src\stm32l4xx_hal_rcc_ex.c ****   /* Get timeout */
2734:E:/LiteOS/LiteOS_Lab/drivers/third_party/ST/STM32L4xx_HAL_Driver/Src\stm32l4xx_hal_rcc_ex.c ****   tickstart = HAL_GetTick();
 3237              		.loc 1 2734 0
 3238 0010 FFF7FEFF 		bl	HAL_GetTick
 3239 0014 B860     		str	r0, [r7, #8]
 3240              	.L247:
2735:E:/LiteOS/LiteOS_Lab/drivers/third_party/ST/STM32L4xx_HAL_Driver/Src\stm32l4xx_hal_rcc_ex.c **** 
2736:E:/LiteOS/LiteOS_Lab/drivers/third_party/ST/STM32L4xx_HAL_Driver/Src\stm32l4xx_hal_rcc_ex.c ****   /* Wait for CRS flag or timeout detection */
2737:E:/LiteOS/LiteOS_Lab/drivers/third_party/ST/STM32L4xx_HAL_Driver/Src\stm32l4xx_hal_rcc_ex.c ****   do
2738:E:/LiteOS/LiteOS_Lab/drivers/third_party/ST/STM32L4xx_HAL_Driver/Src\stm32l4xx_hal_rcc_ex.c ****   {
2739:E:/LiteOS/LiteOS_Lab/drivers/third_party/ST/STM32L4xx_HAL_Driver/Src\stm32l4xx_hal_rcc_ex.c ****     if(Timeout != HAL_MAX_DELAY)
 3241              		.loc 1 2739 0
 3242 0016 7B68     		ldr	r3, [r7, #4]
 3243 0018 B3F1FF3F 		cmp	r3, #-1
 3244 001c 0CD0     		beq	.L239
2740:E:/LiteOS/LiteOS_Lab/drivers/third_party/ST/STM32L4xx_HAL_Driver/Src\stm32l4xx_hal_rcc_ex.c ****     {
2741:E:/LiteOS/LiteOS_Lab/drivers/third_party/ST/STM32L4xx_HAL_Driver/Src\stm32l4xx_hal_rcc_ex.c ****       if((Timeout == 0U) || ((HAL_GetTick() - tickstart) > Timeout))
 3245              		.loc 1 2741 0
 3246 001e 7B68     		ldr	r3, [r7, #4]
 3247 0020 002B     		cmp	r3, #0
 3248 0022 07D0     		beq	.L240
 3249              		.loc 1 2741 0 is_stmt 0 discriminator 1
 3250 0024 FFF7FEFF 		bl	HAL_GetTick
 3251 0028 0246     		mov	r2, r0
 3252 002a BB68     		ldr	r3, [r7, #8]
 3253 002c D31A     		subs	r3, r2, r3
 3254 002e 7A68     		ldr	r2, [r7, #4]
 3255 0030 9A42     		cmp	r2, r3
 3256 0032 01D2     		bcs	.L239
 3257              	.L240:
2742:E:/LiteOS/LiteOS_Lab/drivers/third_party/ST/STM32L4xx_HAL_Driver/Src\stm32l4xx_hal_rcc_ex.c ****       {
2743:E:/LiteOS/LiteOS_Lab/drivers/third_party/ST/STM32L4xx_HAL_Driver/Src\stm32l4xx_hal_rcc_ex.c ****         crsstatus = RCC_CRS_TIMEOUT;
 3258              		.loc 1 2743 0 is_stmt 1
 3259 0034 0123     		movs	r3, #1
 3260 0036 FB60     		str	r3, [r7, #12]
 3261              	.L239:
2744:E:/LiteOS/LiteOS_Lab/drivers/third_party/ST/STM32L4xx_HAL_Driver/Src\stm32l4xx_hal_rcc_ex.c ****       }
2745:E:/LiteOS/LiteOS_Lab/drivers/third_party/ST/STM32L4xx_HAL_Driver/Src\stm32l4xx_hal_rcc_ex.c ****     }
2746:E:/LiteOS/LiteOS_Lab/drivers/third_party/ST/STM32L4xx_HAL_Driver/Src\stm32l4xx_hal_rcc_ex.c ****     /* Check CRS SYNCOK flag  */
2747:E:/LiteOS/LiteOS_Lab/drivers/third_party/ST/STM32L4xx_HAL_Driver/Src\stm32l4xx_hal_rcc_ex.c ****     if(__HAL_RCC_CRS_GET_FLAG(RCC_CRS_FLAG_SYNCOK))
 3262              		.loc 1 2747 0
 3263 0038 2A4B     		ldr	r3, .L249
 3264 003a 9B68     		ldr	r3, [r3, #8]
 3265 003c 03F00103 		and	r3, r3, #1
 3266 0040 012B     		cmp	r3, #1
 3267 0042 06D1     		bne	.L241
2748:E:/LiteOS/LiteOS_Lab/drivers/third_party/ST/STM32L4xx_HAL_Driver/Src\stm32l4xx_hal_rcc_ex.c ****     {
2749:E:/LiteOS/LiteOS_Lab/drivers/third_party/ST/STM32L4xx_HAL_Driver/Src\stm32l4xx_hal_rcc_ex.c ****       /* CRS SYNC event OK */
2750:E:/LiteOS/LiteOS_Lab/drivers/third_party/ST/STM32L4xx_HAL_Driver/Src\stm32l4xx_hal_rcc_ex.c ****       crsstatus |= RCC_CRS_SYNCOK;
 3268              		.loc 1 2750 0
 3269 0044 FB68     		ldr	r3, [r7, #12]
 3270 0046 43F00203 		orr	r3, r3, #2
 3271 004a FB60     		str	r3, [r7, #12]
2751:E:/LiteOS/LiteOS_Lab/drivers/third_party/ST/STM32L4xx_HAL_Driver/Src\stm32l4xx_hal_rcc_ex.c **** 
2752:E:/LiteOS/LiteOS_Lab/drivers/third_party/ST/STM32L4xx_HAL_Driver/Src\stm32l4xx_hal_rcc_ex.c ****       /* Clear CRS SYNC event OK bit */
2753:E:/LiteOS/LiteOS_Lab/drivers/third_party/ST/STM32L4xx_HAL_Driver/Src\stm32l4xx_hal_rcc_ex.c ****       __HAL_RCC_CRS_CLEAR_FLAG(RCC_CRS_FLAG_SYNCOK);
ARM GAS  C:\Users\user\AppData\Local\Temp\ccsJwa9Q.s 			page 110


 3272              		.loc 1 2753 0
 3273 004c 254B     		ldr	r3, .L249
 3274 004e 0122     		movs	r2, #1
 3275 0050 DA60     		str	r2, [r3, #12]
 3276              	.L241:
2754:E:/LiteOS/LiteOS_Lab/drivers/third_party/ST/STM32L4xx_HAL_Driver/Src\stm32l4xx_hal_rcc_ex.c ****     }
2755:E:/LiteOS/LiteOS_Lab/drivers/third_party/ST/STM32L4xx_HAL_Driver/Src\stm32l4xx_hal_rcc_ex.c **** 
2756:E:/LiteOS/LiteOS_Lab/drivers/third_party/ST/STM32L4xx_HAL_Driver/Src\stm32l4xx_hal_rcc_ex.c ****     /* Check CRS SYNCWARN flag  */
2757:E:/LiteOS/LiteOS_Lab/drivers/third_party/ST/STM32L4xx_HAL_Driver/Src\stm32l4xx_hal_rcc_ex.c ****     if(__HAL_RCC_CRS_GET_FLAG(RCC_CRS_FLAG_SYNCWARN))
 3277              		.loc 1 2757 0
 3278 0052 244B     		ldr	r3, .L249
 3279 0054 9B68     		ldr	r3, [r3, #8]
 3280 0056 03F00203 		and	r3, r3, #2
 3281 005a 022B     		cmp	r3, #2
 3282 005c 06D1     		bne	.L242
2758:E:/LiteOS/LiteOS_Lab/drivers/third_party/ST/STM32L4xx_HAL_Driver/Src\stm32l4xx_hal_rcc_ex.c ****     {
2759:E:/LiteOS/LiteOS_Lab/drivers/third_party/ST/STM32L4xx_HAL_Driver/Src\stm32l4xx_hal_rcc_ex.c ****       /* CRS SYNC warning */
2760:E:/LiteOS/LiteOS_Lab/drivers/third_party/ST/STM32L4xx_HAL_Driver/Src\stm32l4xx_hal_rcc_ex.c ****       crsstatus |= RCC_CRS_SYNCWARN;
 3283              		.loc 1 2760 0
 3284 005e FB68     		ldr	r3, [r7, #12]
 3285 0060 43F00403 		orr	r3, r3, #4
 3286 0064 FB60     		str	r3, [r7, #12]
2761:E:/LiteOS/LiteOS_Lab/drivers/third_party/ST/STM32L4xx_HAL_Driver/Src\stm32l4xx_hal_rcc_ex.c **** 
2762:E:/LiteOS/LiteOS_Lab/drivers/third_party/ST/STM32L4xx_HAL_Driver/Src\stm32l4xx_hal_rcc_ex.c ****       /* Clear CRS SYNCWARN bit */
2763:E:/LiteOS/LiteOS_Lab/drivers/third_party/ST/STM32L4xx_HAL_Driver/Src\stm32l4xx_hal_rcc_ex.c ****       __HAL_RCC_CRS_CLEAR_FLAG(RCC_CRS_FLAG_SYNCWARN);
 3287              		.loc 1 2763 0
 3288 0066 1F4B     		ldr	r3, .L249
 3289 0068 0222     		movs	r2, #2
 3290 006a DA60     		str	r2, [r3, #12]
 3291              	.L242:
2764:E:/LiteOS/LiteOS_Lab/drivers/third_party/ST/STM32L4xx_HAL_Driver/Src\stm32l4xx_hal_rcc_ex.c ****     }
2765:E:/LiteOS/LiteOS_Lab/drivers/third_party/ST/STM32L4xx_HAL_Driver/Src\stm32l4xx_hal_rcc_ex.c **** 
2766:E:/LiteOS/LiteOS_Lab/drivers/third_party/ST/STM32L4xx_HAL_Driver/Src\stm32l4xx_hal_rcc_ex.c ****     /* Check CRS TRIM overflow flag  */
2767:E:/LiteOS/LiteOS_Lab/drivers/third_party/ST/STM32L4xx_HAL_Driver/Src\stm32l4xx_hal_rcc_ex.c ****     if(__HAL_RCC_CRS_GET_FLAG(RCC_CRS_FLAG_TRIMOVF))
 3292              		.loc 1 2767 0
 3293 006c 1D4B     		ldr	r3, .L249
 3294 006e 9B68     		ldr	r3, [r3, #8]
 3295 0070 03F48063 		and	r3, r3, #1024
 3296 0074 B3F5806F 		cmp	r3, #1024
 3297 0078 06D1     		bne	.L243
2768:E:/LiteOS/LiteOS_Lab/drivers/third_party/ST/STM32L4xx_HAL_Driver/Src\stm32l4xx_hal_rcc_ex.c ****     {
2769:E:/LiteOS/LiteOS_Lab/drivers/third_party/ST/STM32L4xx_HAL_Driver/Src\stm32l4xx_hal_rcc_ex.c ****       /* CRS SYNC Error */
2770:E:/LiteOS/LiteOS_Lab/drivers/third_party/ST/STM32L4xx_HAL_Driver/Src\stm32l4xx_hal_rcc_ex.c ****       crsstatus |= RCC_CRS_TRIMOVF;
 3298              		.loc 1 2770 0
 3299 007a FB68     		ldr	r3, [r7, #12]
 3300 007c 43F02003 		orr	r3, r3, #32
 3301 0080 FB60     		str	r3, [r7, #12]
2771:E:/LiteOS/LiteOS_Lab/drivers/third_party/ST/STM32L4xx_HAL_Driver/Src\stm32l4xx_hal_rcc_ex.c **** 
2772:E:/LiteOS/LiteOS_Lab/drivers/third_party/ST/STM32L4xx_HAL_Driver/Src\stm32l4xx_hal_rcc_ex.c ****       /* Clear CRS Error bit */
2773:E:/LiteOS/LiteOS_Lab/drivers/third_party/ST/STM32L4xx_HAL_Driver/Src\stm32l4xx_hal_rcc_ex.c ****       __HAL_RCC_CRS_CLEAR_FLAG(RCC_CRS_FLAG_TRIMOVF);
 3302              		.loc 1 2773 0
 3303 0082 184B     		ldr	r3, .L249
 3304 0084 0422     		movs	r2, #4
 3305 0086 DA60     		str	r2, [r3, #12]
 3306              	.L243:
2774:E:/LiteOS/LiteOS_Lab/drivers/third_party/ST/STM32L4xx_HAL_Driver/Src\stm32l4xx_hal_rcc_ex.c ****     }
2775:E:/LiteOS/LiteOS_Lab/drivers/third_party/ST/STM32L4xx_HAL_Driver/Src\stm32l4xx_hal_rcc_ex.c **** 
ARM GAS  C:\Users\user\AppData\Local\Temp\ccsJwa9Q.s 			page 111


2776:E:/LiteOS/LiteOS_Lab/drivers/third_party/ST/STM32L4xx_HAL_Driver/Src\stm32l4xx_hal_rcc_ex.c ****     /* Check CRS Error flag  */
2777:E:/LiteOS/LiteOS_Lab/drivers/third_party/ST/STM32L4xx_HAL_Driver/Src\stm32l4xx_hal_rcc_ex.c ****     if(__HAL_RCC_CRS_GET_FLAG(RCC_CRS_FLAG_SYNCERR))
 3307              		.loc 1 2777 0
 3308 0088 164B     		ldr	r3, .L249
 3309 008a 9B68     		ldr	r3, [r3, #8]
 3310 008c 03F48073 		and	r3, r3, #256
 3311 0090 B3F5807F 		cmp	r3, #256
 3312 0094 06D1     		bne	.L244
2778:E:/LiteOS/LiteOS_Lab/drivers/third_party/ST/STM32L4xx_HAL_Driver/Src\stm32l4xx_hal_rcc_ex.c ****     {
2779:E:/LiteOS/LiteOS_Lab/drivers/third_party/ST/STM32L4xx_HAL_Driver/Src\stm32l4xx_hal_rcc_ex.c ****       /* CRS SYNC Error */
2780:E:/LiteOS/LiteOS_Lab/drivers/third_party/ST/STM32L4xx_HAL_Driver/Src\stm32l4xx_hal_rcc_ex.c ****       crsstatus |= RCC_CRS_SYNCERR;
 3313              		.loc 1 2780 0
 3314 0096 FB68     		ldr	r3, [r7, #12]
 3315 0098 43F00803 		orr	r3, r3, #8
 3316 009c FB60     		str	r3, [r7, #12]
2781:E:/LiteOS/LiteOS_Lab/drivers/third_party/ST/STM32L4xx_HAL_Driver/Src\stm32l4xx_hal_rcc_ex.c **** 
2782:E:/LiteOS/LiteOS_Lab/drivers/third_party/ST/STM32L4xx_HAL_Driver/Src\stm32l4xx_hal_rcc_ex.c ****       /* Clear CRS Error bit */
2783:E:/LiteOS/LiteOS_Lab/drivers/third_party/ST/STM32L4xx_HAL_Driver/Src\stm32l4xx_hal_rcc_ex.c ****       __HAL_RCC_CRS_CLEAR_FLAG(RCC_CRS_FLAG_SYNCERR);
 3317              		.loc 1 2783 0
 3318 009e 114B     		ldr	r3, .L249
 3319 00a0 0422     		movs	r2, #4
 3320 00a2 DA60     		str	r2, [r3, #12]
 3321              	.L244:
2784:E:/LiteOS/LiteOS_Lab/drivers/third_party/ST/STM32L4xx_HAL_Driver/Src\stm32l4xx_hal_rcc_ex.c ****     }
2785:E:/LiteOS/LiteOS_Lab/drivers/third_party/ST/STM32L4xx_HAL_Driver/Src\stm32l4xx_hal_rcc_ex.c **** 
2786:E:/LiteOS/LiteOS_Lab/drivers/third_party/ST/STM32L4xx_HAL_Driver/Src\stm32l4xx_hal_rcc_ex.c ****     /* Check CRS SYNC Missed flag  */
2787:E:/LiteOS/LiteOS_Lab/drivers/third_party/ST/STM32L4xx_HAL_Driver/Src\stm32l4xx_hal_rcc_ex.c ****     if(__HAL_RCC_CRS_GET_FLAG(RCC_CRS_FLAG_SYNCMISS))
 3322              		.loc 1 2787 0
 3323 00a4 0F4B     		ldr	r3, .L249
 3324 00a6 9B68     		ldr	r3, [r3, #8]
 3325 00a8 03F40073 		and	r3, r3, #512
 3326 00ac B3F5007F 		cmp	r3, #512
 3327 00b0 06D1     		bne	.L245
2788:E:/LiteOS/LiteOS_Lab/drivers/third_party/ST/STM32L4xx_HAL_Driver/Src\stm32l4xx_hal_rcc_ex.c ****     {
2789:E:/LiteOS/LiteOS_Lab/drivers/third_party/ST/STM32L4xx_HAL_Driver/Src\stm32l4xx_hal_rcc_ex.c ****       /* CRS SYNC Missed */
2790:E:/LiteOS/LiteOS_Lab/drivers/third_party/ST/STM32L4xx_HAL_Driver/Src\stm32l4xx_hal_rcc_ex.c ****       crsstatus |= RCC_CRS_SYNCMISS;
 3328              		.loc 1 2790 0
 3329 00b2 FB68     		ldr	r3, [r7, #12]
 3330 00b4 43F01003 		orr	r3, r3, #16
 3331 00b8 FB60     		str	r3, [r7, #12]
2791:E:/LiteOS/LiteOS_Lab/drivers/third_party/ST/STM32L4xx_HAL_Driver/Src\stm32l4xx_hal_rcc_ex.c **** 
2792:E:/LiteOS/LiteOS_Lab/drivers/third_party/ST/STM32L4xx_HAL_Driver/Src\stm32l4xx_hal_rcc_ex.c ****       /* Clear CRS SYNC Missed bit */
2793:E:/LiteOS/LiteOS_Lab/drivers/third_party/ST/STM32L4xx_HAL_Driver/Src\stm32l4xx_hal_rcc_ex.c ****       __HAL_RCC_CRS_CLEAR_FLAG(RCC_CRS_FLAG_SYNCMISS);
 3332              		.loc 1 2793 0
 3333 00ba 0A4B     		ldr	r3, .L249
 3334 00bc 0422     		movs	r2, #4
 3335 00be DA60     		str	r2, [r3, #12]
 3336              	.L245:
2794:E:/LiteOS/LiteOS_Lab/drivers/third_party/ST/STM32L4xx_HAL_Driver/Src\stm32l4xx_hal_rcc_ex.c ****     }
2795:E:/LiteOS/LiteOS_Lab/drivers/third_party/ST/STM32L4xx_HAL_Driver/Src\stm32l4xx_hal_rcc_ex.c **** 
2796:E:/LiteOS/LiteOS_Lab/drivers/third_party/ST/STM32L4xx_HAL_Driver/Src\stm32l4xx_hal_rcc_ex.c ****     /* Check CRS Expected SYNC flag  */
2797:E:/LiteOS/LiteOS_Lab/drivers/third_party/ST/STM32L4xx_HAL_Driver/Src\stm32l4xx_hal_rcc_ex.c ****     if(__HAL_RCC_CRS_GET_FLAG(RCC_CRS_FLAG_ESYNC))
 3337              		.loc 1 2797 0
 3338 00c0 084B     		ldr	r3, .L249
 3339 00c2 9B68     		ldr	r3, [r3, #8]
 3340 00c4 03F00803 		and	r3, r3, #8
 3341 00c8 082B     		cmp	r3, #8
ARM GAS  C:\Users\user\AppData\Local\Temp\ccsJwa9Q.s 			page 112


 3342 00ca 02D1     		bne	.L246
2798:E:/LiteOS/LiteOS_Lab/drivers/third_party/ST/STM32L4xx_HAL_Driver/Src\stm32l4xx_hal_rcc_ex.c ****     {
2799:E:/LiteOS/LiteOS_Lab/drivers/third_party/ST/STM32L4xx_HAL_Driver/Src\stm32l4xx_hal_rcc_ex.c ****       /* frequency error counter reached a zero value */
2800:E:/LiteOS/LiteOS_Lab/drivers/third_party/ST/STM32L4xx_HAL_Driver/Src\stm32l4xx_hal_rcc_ex.c ****       __HAL_RCC_CRS_CLEAR_FLAG(RCC_CRS_FLAG_ESYNC);
 3343              		.loc 1 2800 0 discriminator 2
 3344 00cc 054B     		ldr	r3, .L249
 3345 00ce 0822     		movs	r2, #8
 3346 00d0 DA60     		str	r2, [r3, #12]
 3347              	.L246:
2801:E:/LiteOS/LiteOS_Lab/drivers/third_party/ST/STM32L4xx_HAL_Driver/Src\stm32l4xx_hal_rcc_ex.c ****     }
2802:E:/LiteOS/LiteOS_Lab/drivers/third_party/ST/STM32L4xx_HAL_Driver/Src\stm32l4xx_hal_rcc_ex.c ****   } while(RCC_CRS_NONE == crsstatus);
 3348              		.loc 1 2802 0
 3349 00d2 FB68     		ldr	r3, [r7, #12]
 3350 00d4 002B     		cmp	r3, #0
 3351 00d6 9ED0     		beq	.L247
2803:E:/LiteOS/LiteOS_Lab/drivers/third_party/ST/STM32L4xx_HAL_Driver/Src\stm32l4xx_hal_rcc_ex.c **** 
2804:E:/LiteOS/LiteOS_Lab/drivers/third_party/ST/STM32L4xx_HAL_Driver/Src\stm32l4xx_hal_rcc_ex.c ****   return crsstatus;
 3352              		.loc 1 2804 0
 3353 00d8 FB68     		ldr	r3, [r7, #12]
2805:E:/LiteOS/LiteOS_Lab/drivers/third_party/ST/STM32L4xx_HAL_Driver/Src\stm32l4xx_hal_rcc_ex.c **** }
 3354              		.loc 1 2805 0
 3355 00da 1846     		mov	r0, r3
 3356 00dc 1037     		adds	r7, r7, #16
 3357              	.LCFI93:
 3358              		.cfi_def_cfa_offset 8
 3359 00de BD46     		mov	sp, r7
 3360              	.LCFI94:
 3361              		.cfi_def_cfa_register 13
 3362              		@ sp needed
 3363 00e0 80BD     		pop	{r7, pc}
 3364              	.L250:
 3365 00e2 00BF     		.align	2
 3366              	.L249:
 3367 00e4 00600040 		.word	1073766400
 3368              		.cfi_endproc
 3369              	.LFE152:
 3371              		.section	.text.HAL_RCCEx_CRS_IRQHandler,"ax",%progbits
 3372              		.align	1
 3373              		.global	HAL_RCCEx_CRS_IRQHandler
 3374              		.syntax unified
 3375              		.thumb
 3376              		.thumb_func
 3377              		.fpu fpv4-sp-d16
 3379              	HAL_RCCEx_CRS_IRQHandler:
 3380              	.LFB153:
2806:E:/LiteOS/LiteOS_Lab/drivers/third_party/ST/STM32L4xx_HAL_Driver/Src\stm32l4xx_hal_rcc_ex.c **** 
2807:E:/LiteOS/LiteOS_Lab/drivers/third_party/ST/STM32L4xx_HAL_Driver/Src\stm32l4xx_hal_rcc_ex.c **** /**
2808:E:/LiteOS/LiteOS_Lab/drivers/third_party/ST/STM32L4xx_HAL_Driver/Src\stm32l4xx_hal_rcc_ex.c ****   * @brief Handle the Clock Recovery System interrupt request.
2809:E:/LiteOS/LiteOS_Lab/drivers/third_party/ST/STM32L4xx_HAL_Driver/Src\stm32l4xx_hal_rcc_ex.c ****   * @retval None
2810:E:/LiteOS/LiteOS_Lab/drivers/third_party/ST/STM32L4xx_HAL_Driver/Src\stm32l4xx_hal_rcc_ex.c ****   */
2811:E:/LiteOS/LiteOS_Lab/drivers/third_party/ST/STM32L4xx_HAL_Driver/Src\stm32l4xx_hal_rcc_ex.c **** void HAL_RCCEx_CRS_IRQHandler(void)
2812:E:/LiteOS/LiteOS_Lab/drivers/third_party/ST/STM32L4xx_HAL_Driver/Src\stm32l4xx_hal_rcc_ex.c **** {
 3381              		.loc 1 2812 0
 3382              		.cfi_startproc
 3383              		@ args = 0, pretend = 0, frame = 16
 3384              		@ frame_needed = 1, uses_anonymous_args = 0
 3385 0000 80B5     		push	{r7, lr}
ARM GAS  C:\Users\user\AppData\Local\Temp\ccsJwa9Q.s 			page 113


 3386              	.LCFI95:
 3387              		.cfi_def_cfa_offset 8
 3388              		.cfi_offset 7, -8
 3389              		.cfi_offset 14, -4
 3390 0002 84B0     		sub	sp, sp, #16
 3391              	.LCFI96:
 3392              		.cfi_def_cfa_offset 24
 3393 0004 00AF     		add	r7, sp, #0
 3394              	.LCFI97:
 3395              		.cfi_def_cfa_register 7
2813:E:/LiteOS/LiteOS_Lab/drivers/third_party/ST/STM32L4xx_HAL_Driver/Src\stm32l4xx_hal_rcc_ex.c ****   uint32_t crserror = RCC_CRS_NONE;
 3396              		.loc 1 2813 0
 3397 0006 0023     		movs	r3, #0
 3398 0008 FB60     		str	r3, [r7, #12]
2814:E:/LiteOS/LiteOS_Lab/drivers/third_party/ST/STM32L4xx_HAL_Driver/Src\stm32l4xx_hal_rcc_ex.c ****   /* Get current IT flags and IT sources values */
2815:E:/LiteOS/LiteOS_Lab/drivers/third_party/ST/STM32L4xx_HAL_Driver/Src\stm32l4xx_hal_rcc_ex.c ****   uint32_t itflags = READ_REG(CRS->ISR);
 3399              		.loc 1 2815 0
 3400 000a 334B     		ldr	r3, .L260
 3401 000c 9B68     		ldr	r3, [r3, #8]
 3402 000e BB60     		str	r3, [r7, #8]
2816:E:/LiteOS/LiteOS_Lab/drivers/third_party/ST/STM32L4xx_HAL_Driver/Src\stm32l4xx_hal_rcc_ex.c ****   uint32_t itsources = READ_REG(CRS->CR);
 3403              		.loc 1 2816 0
 3404 0010 314B     		ldr	r3, .L260
 3405 0012 1B68     		ldr	r3, [r3]
 3406 0014 7B60     		str	r3, [r7, #4]
2817:E:/LiteOS/LiteOS_Lab/drivers/third_party/ST/STM32L4xx_HAL_Driver/Src\stm32l4xx_hal_rcc_ex.c **** 
2818:E:/LiteOS/LiteOS_Lab/drivers/third_party/ST/STM32L4xx_HAL_Driver/Src\stm32l4xx_hal_rcc_ex.c ****   /* Check CRS SYNCOK flag  */
2819:E:/LiteOS/LiteOS_Lab/drivers/third_party/ST/STM32L4xx_HAL_Driver/Src\stm32l4xx_hal_rcc_ex.c ****   if(((itflags & RCC_CRS_FLAG_SYNCOK) != RESET) && ((itsources & RCC_CRS_IT_SYNCOK) != RESET))
 3407              		.loc 1 2819 0
 3408 0016 BB68     		ldr	r3, [r7, #8]
 3409 0018 03F00103 		and	r3, r3, #1
 3410 001c 002B     		cmp	r3, #0
 3411 001e 0AD0     		beq	.L252
 3412              		.loc 1 2819 0 is_stmt 0 discriminator 1
 3413 0020 7B68     		ldr	r3, [r7, #4]
 3414 0022 03F00103 		and	r3, r3, #1
 3415 0026 002B     		cmp	r3, #0
 3416 0028 05D0     		beq	.L252
2820:E:/LiteOS/LiteOS_Lab/drivers/third_party/ST/STM32L4xx_HAL_Driver/Src\stm32l4xx_hal_rcc_ex.c ****   {
2821:E:/LiteOS/LiteOS_Lab/drivers/third_party/ST/STM32L4xx_HAL_Driver/Src\stm32l4xx_hal_rcc_ex.c ****     /* Clear CRS SYNC event OK flag */
2822:E:/LiteOS/LiteOS_Lab/drivers/third_party/ST/STM32L4xx_HAL_Driver/Src\stm32l4xx_hal_rcc_ex.c ****     WRITE_REG(CRS->ICR, CRS_ICR_SYNCOKC);
 3417              		.loc 1 2822 0 is_stmt 1
 3418 002a 2B4B     		ldr	r3, .L260
 3419 002c 0122     		movs	r2, #1
 3420 002e DA60     		str	r2, [r3, #12]
2823:E:/LiteOS/LiteOS_Lab/drivers/third_party/ST/STM32L4xx_HAL_Driver/Src\stm32l4xx_hal_rcc_ex.c **** 
2824:E:/LiteOS/LiteOS_Lab/drivers/third_party/ST/STM32L4xx_HAL_Driver/Src\stm32l4xx_hal_rcc_ex.c ****     /* user callback */
2825:E:/LiteOS/LiteOS_Lab/drivers/third_party/ST/STM32L4xx_HAL_Driver/Src\stm32l4xx_hal_rcc_ex.c ****     HAL_RCCEx_CRS_SyncOkCallback();
 3421              		.loc 1 2825 0
 3422 0030 FFF7FEFF 		bl	HAL_RCCEx_CRS_SyncOkCallback
 3423 0034 4BE0     		b	.L253
 3424              	.L252:
2826:E:/LiteOS/LiteOS_Lab/drivers/third_party/ST/STM32L4xx_HAL_Driver/Src\stm32l4xx_hal_rcc_ex.c ****   }
2827:E:/LiteOS/LiteOS_Lab/drivers/third_party/ST/STM32L4xx_HAL_Driver/Src\stm32l4xx_hal_rcc_ex.c ****   /* Check CRS SYNCWARN flag  */
2828:E:/LiteOS/LiteOS_Lab/drivers/third_party/ST/STM32L4xx_HAL_Driver/Src\stm32l4xx_hal_rcc_ex.c ****   else if(((itflags & RCC_CRS_FLAG_SYNCWARN) != RESET) && ((itsources & RCC_CRS_IT_SYNCWARN) != RES
 3425              		.loc 1 2828 0
 3426 0036 BB68     		ldr	r3, [r7, #8]
ARM GAS  C:\Users\user\AppData\Local\Temp\ccsJwa9Q.s 			page 114


 3427 0038 03F00203 		and	r3, r3, #2
 3428 003c 002B     		cmp	r3, #0
 3429 003e 0AD0     		beq	.L254
 3430              		.loc 1 2828 0 is_stmt 0 discriminator 1
 3431 0040 7B68     		ldr	r3, [r7, #4]
 3432 0042 03F00203 		and	r3, r3, #2
 3433 0046 002B     		cmp	r3, #0
 3434 0048 05D0     		beq	.L254
2829:E:/LiteOS/LiteOS_Lab/drivers/third_party/ST/STM32L4xx_HAL_Driver/Src\stm32l4xx_hal_rcc_ex.c ****   {
2830:E:/LiteOS/LiteOS_Lab/drivers/third_party/ST/STM32L4xx_HAL_Driver/Src\stm32l4xx_hal_rcc_ex.c ****     /* Clear CRS SYNCWARN flag */
2831:E:/LiteOS/LiteOS_Lab/drivers/third_party/ST/STM32L4xx_HAL_Driver/Src\stm32l4xx_hal_rcc_ex.c ****     WRITE_REG(CRS->ICR, CRS_ICR_SYNCWARNC);
 3435              		.loc 1 2831 0 is_stmt 1
 3436 004a 234B     		ldr	r3, .L260
 3437 004c 0222     		movs	r2, #2
 3438 004e DA60     		str	r2, [r3, #12]
2832:E:/LiteOS/LiteOS_Lab/drivers/third_party/ST/STM32L4xx_HAL_Driver/Src\stm32l4xx_hal_rcc_ex.c **** 
2833:E:/LiteOS/LiteOS_Lab/drivers/third_party/ST/STM32L4xx_HAL_Driver/Src\stm32l4xx_hal_rcc_ex.c ****     /* user callback */
2834:E:/LiteOS/LiteOS_Lab/drivers/third_party/ST/STM32L4xx_HAL_Driver/Src\stm32l4xx_hal_rcc_ex.c ****     HAL_RCCEx_CRS_SyncWarnCallback();
 3439              		.loc 1 2834 0
 3440 0050 FFF7FEFF 		bl	HAL_RCCEx_CRS_SyncWarnCallback
 3441 0054 3BE0     		b	.L253
 3442              	.L254:
2835:E:/LiteOS/LiteOS_Lab/drivers/third_party/ST/STM32L4xx_HAL_Driver/Src\stm32l4xx_hal_rcc_ex.c ****   }
2836:E:/LiteOS/LiteOS_Lab/drivers/third_party/ST/STM32L4xx_HAL_Driver/Src\stm32l4xx_hal_rcc_ex.c ****   /* Check CRS Expected SYNC flag  */
2837:E:/LiteOS/LiteOS_Lab/drivers/third_party/ST/STM32L4xx_HAL_Driver/Src\stm32l4xx_hal_rcc_ex.c ****   else if(((itflags & RCC_CRS_FLAG_ESYNC) != RESET) && ((itsources & RCC_CRS_IT_ESYNC) != RESET))
 3443              		.loc 1 2837 0
 3444 0056 BB68     		ldr	r3, [r7, #8]
 3445 0058 03F00803 		and	r3, r3, #8
 3446 005c 002B     		cmp	r3, #0
 3447 005e 0AD0     		beq	.L255
 3448              		.loc 1 2837 0 is_stmt 0 discriminator 1
 3449 0060 7B68     		ldr	r3, [r7, #4]
 3450 0062 03F00803 		and	r3, r3, #8
 3451 0066 002B     		cmp	r3, #0
 3452 0068 05D0     		beq	.L255
2838:E:/LiteOS/LiteOS_Lab/drivers/third_party/ST/STM32L4xx_HAL_Driver/Src\stm32l4xx_hal_rcc_ex.c ****   {
2839:E:/LiteOS/LiteOS_Lab/drivers/third_party/ST/STM32L4xx_HAL_Driver/Src\stm32l4xx_hal_rcc_ex.c ****     /* frequency error counter reached a zero value */
2840:E:/LiteOS/LiteOS_Lab/drivers/third_party/ST/STM32L4xx_HAL_Driver/Src\stm32l4xx_hal_rcc_ex.c ****     WRITE_REG(CRS->ICR, CRS_ICR_ESYNCC);
 3453              		.loc 1 2840 0 is_stmt 1
 3454 006a 1B4B     		ldr	r3, .L260
 3455 006c 0822     		movs	r2, #8
 3456 006e DA60     		str	r2, [r3, #12]
2841:E:/LiteOS/LiteOS_Lab/drivers/third_party/ST/STM32L4xx_HAL_Driver/Src\stm32l4xx_hal_rcc_ex.c **** 
2842:E:/LiteOS/LiteOS_Lab/drivers/third_party/ST/STM32L4xx_HAL_Driver/Src\stm32l4xx_hal_rcc_ex.c ****     /* user callback */
2843:E:/LiteOS/LiteOS_Lab/drivers/third_party/ST/STM32L4xx_HAL_Driver/Src\stm32l4xx_hal_rcc_ex.c ****     HAL_RCCEx_CRS_ExpectedSyncCallback();
 3457              		.loc 1 2843 0
 3458 0070 FFF7FEFF 		bl	HAL_RCCEx_CRS_ExpectedSyncCallback
 3459 0074 2BE0     		b	.L253
 3460              	.L255:
2844:E:/LiteOS/LiteOS_Lab/drivers/third_party/ST/STM32L4xx_HAL_Driver/Src\stm32l4xx_hal_rcc_ex.c ****   }
2845:E:/LiteOS/LiteOS_Lab/drivers/third_party/ST/STM32L4xx_HAL_Driver/Src\stm32l4xx_hal_rcc_ex.c ****   /* Check CRS Error flags  */
2846:E:/LiteOS/LiteOS_Lab/drivers/third_party/ST/STM32L4xx_HAL_Driver/Src\stm32l4xx_hal_rcc_ex.c ****   else
2847:E:/LiteOS/LiteOS_Lab/drivers/third_party/ST/STM32L4xx_HAL_Driver/Src\stm32l4xx_hal_rcc_ex.c ****   {
2848:E:/LiteOS/LiteOS_Lab/drivers/third_party/ST/STM32L4xx_HAL_Driver/Src\stm32l4xx_hal_rcc_ex.c ****     if(((itflags & RCC_CRS_FLAG_ERR) != RESET) && ((itsources & RCC_CRS_IT_ERR) != RESET))
 3461              		.loc 1 2848 0
 3462 0076 BB68     		ldr	r3, [r7, #8]
 3463 0078 03F00403 		and	r3, r3, #4
ARM GAS  C:\Users\user\AppData\Local\Temp\ccsJwa9Q.s 			page 115


 3464 007c 002B     		cmp	r3, #0
 3465 007e 26D0     		beq	.L259
 3466              		.loc 1 2848 0 is_stmt 0 discriminator 1
 3467 0080 7B68     		ldr	r3, [r7, #4]
 3468 0082 03F00403 		and	r3, r3, #4
 3469 0086 002B     		cmp	r3, #0
 3470 0088 21D0     		beq	.L259
2849:E:/LiteOS/LiteOS_Lab/drivers/third_party/ST/STM32L4xx_HAL_Driver/Src\stm32l4xx_hal_rcc_ex.c ****     {
2850:E:/LiteOS/LiteOS_Lab/drivers/third_party/ST/STM32L4xx_HAL_Driver/Src\stm32l4xx_hal_rcc_ex.c ****       if((itflags & RCC_CRS_FLAG_SYNCERR) != RESET)
 3471              		.loc 1 2850 0 is_stmt 1
 3472 008a BB68     		ldr	r3, [r7, #8]
 3473 008c 03F48073 		and	r3, r3, #256
 3474 0090 002B     		cmp	r3, #0
 3475 0092 03D0     		beq	.L256
2851:E:/LiteOS/LiteOS_Lab/drivers/third_party/ST/STM32L4xx_HAL_Driver/Src\stm32l4xx_hal_rcc_ex.c ****       {
2852:E:/LiteOS/LiteOS_Lab/drivers/third_party/ST/STM32L4xx_HAL_Driver/Src\stm32l4xx_hal_rcc_ex.c ****         crserror |= RCC_CRS_SYNCERR;
 3476              		.loc 1 2852 0
 3477 0094 FB68     		ldr	r3, [r7, #12]
 3478 0096 43F00803 		orr	r3, r3, #8
 3479 009a FB60     		str	r3, [r7, #12]
 3480              	.L256:
2853:E:/LiteOS/LiteOS_Lab/drivers/third_party/ST/STM32L4xx_HAL_Driver/Src\stm32l4xx_hal_rcc_ex.c ****       }
2854:E:/LiteOS/LiteOS_Lab/drivers/third_party/ST/STM32L4xx_HAL_Driver/Src\stm32l4xx_hal_rcc_ex.c ****       if((itflags & RCC_CRS_FLAG_SYNCMISS) != RESET)
 3481              		.loc 1 2854 0
 3482 009c BB68     		ldr	r3, [r7, #8]
 3483 009e 03F40073 		and	r3, r3, #512
 3484 00a2 002B     		cmp	r3, #0
 3485 00a4 03D0     		beq	.L257
2855:E:/LiteOS/LiteOS_Lab/drivers/third_party/ST/STM32L4xx_HAL_Driver/Src\stm32l4xx_hal_rcc_ex.c ****       {
2856:E:/LiteOS/LiteOS_Lab/drivers/third_party/ST/STM32L4xx_HAL_Driver/Src\stm32l4xx_hal_rcc_ex.c ****         crserror |= RCC_CRS_SYNCMISS;
 3486              		.loc 1 2856 0
 3487 00a6 FB68     		ldr	r3, [r7, #12]
 3488 00a8 43F01003 		orr	r3, r3, #16
 3489 00ac FB60     		str	r3, [r7, #12]
 3490              	.L257:
2857:E:/LiteOS/LiteOS_Lab/drivers/third_party/ST/STM32L4xx_HAL_Driver/Src\stm32l4xx_hal_rcc_ex.c ****       }
2858:E:/LiteOS/LiteOS_Lab/drivers/third_party/ST/STM32L4xx_HAL_Driver/Src\stm32l4xx_hal_rcc_ex.c ****       if((itflags & RCC_CRS_FLAG_TRIMOVF) != RESET)
 3491              		.loc 1 2858 0
 3492 00ae BB68     		ldr	r3, [r7, #8]
 3493 00b0 03F48063 		and	r3, r3, #1024
 3494 00b4 002B     		cmp	r3, #0
 3495 00b6 03D0     		beq	.L258
2859:E:/LiteOS/LiteOS_Lab/drivers/third_party/ST/STM32L4xx_HAL_Driver/Src\stm32l4xx_hal_rcc_ex.c ****       {
2860:E:/LiteOS/LiteOS_Lab/drivers/third_party/ST/STM32L4xx_HAL_Driver/Src\stm32l4xx_hal_rcc_ex.c ****         crserror |= RCC_CRS_TRIMOVF;
 3496              		.loc 1 2860 0
 3497 00b8 FB68     		ldr	r3, [r7, #12]
 3498 00ba 43F02003 		orr	r3, r3, #32
 3499 00be FB60     		str	r3, [r7, #12]
 3500              	.L258:
2861:E:/LiteOS/LiteOS_Lab/drivers/third_party/ST/STM32L4xx_HAL_Driver/Src\stm32l4xx_hal_rcc_ex.c ****       }
2862:E:/LiteOS/LiteOS_Lab/drivers/third_party/ST/STM32L4xx_HAL_Driver/Src\stm32l4xx_hal_rcc_ex.c **** 
2863:E:/LiteOS/LiteOS_Lab/drivers/third_party/ST/STM32L4xx_HAL_Driver/Src\stm32l4xx_hal_rcc_ex.c ****       /* Clear CRS Error flags */
2864:E:/LiteOS/LiteOS_Lab/drivers/third_party/ST/STM32L4xx_HAL_Driver/Src\stm32l4xx_hal_rcc_ex.c ****       WRITE_REG(CRS->ICR, CRS_ICR_ERRC);
 3501              		.loc 1 2864 0
 3502 00c0 054B     		ldr	r3, .L260
 3503 00c2 0422     		movs	r2, #4
 3504 00c4 DA60     		str	r2, [r3, #12]
ARM GAS  C:\Users\user\AppData\Local\Temp\ccsJwa9Q.s 			page 116


2865:E:/LiteOS/LiteOS_Lab/drivers/third_party/ST/STM32L4xx_HAL_Driver/Src\stm32l4xx_hal_rcc_ex.c **** 
2866:E:/LiteOS/LiteOS_Lab/drivers/third_party/ST/STM32L4xx_HAL_Driver/Src\stm32l4xx_hal_rcc_ex.c ****       /* user error callback */
2867:E:/LiteOS/LiteOS_Lab/drivers/third_party/ST/STM32L4xx_HAL_Driver/Src\stm32l4xx_hal_rcc_ex.c ****       HAL_RCCEx_CRS_ErrorCallback(crserror);
 3505              		.loc 1 2867 0
 3506 00c6 F868     		ldr	r0, [r7, #12]
 3507 00c8 FFF7FEFF 		bl	HAL_RCCEx_CRS_ErrorCallback
2868:E:/LiteOS/LiteOS_Lab/drivers/third_party/ST/STM32L4xx_HAL_Driver/Src\stm32l4xx_hal_rcc_ex.c ****     }
2869:E:/LiteOS/LiteOS_Lab/drivers/third_party/ST/STM32L4xx_HAL_Driver/Src\stm32l4xx_hal_rcc_ex.c ****   }
2870:E:/LiteOS/LiteOS_Lab/drivers/third_party/ST/STM32L4xx_HAL_Driver/Src\stm32l4xx_hal_rcc_ex.c **** }
 3508              		.loc 1 2870 0
 3509 00cc FFE7     		b	.L259
 3510              	.L253:
 3511              	.L259:
 3512 00ce 00BF     		nop
 3513 00d0 1037     		adds	r7, r7, #16
 3514              	.LCFI98:
 3515              		.cfi_def_cfa_offset 8
 3516 00d2 BD46     		mov	sp, r7
 3517              	.LCFI99:
 3518              		.cfi_def_cfa_register 13
 3519              		@ sp needed
 3520 00d4 80BD     		pop	{r7, pc}
 3521              	.L261:
 3522 00d6 00BF     		.align	2
 3523              	.L260:
 3524 00d8 00600040 		.word	1073766400
 3525              		.cfi_endproc
 3526              	.LFE153:
 3528              		.section	.text.HAL_RCCEx_CRS_SyncOkCallback,"ax",%progbits
 3529              		.align	1
 3530              		.weak	HAL_RCCEx_CRS_SyncOkCallback
 3531              		.syntax unified
 3532              		.thumb
 3533              		.thumb_func
 3534              		.fpu fpv4-sp-d16
 3536              	HAL_RCCEx_CRS_SyncOkCallback:
 3537              	.LFB154:
2871:E:/LiteOS/LiteOS_Lab/drivers/third_party/ST/STM32L4xx_HAL_Driver/Src\stm32l4xx_hal_rcc_ex.c **** 
2872:E:/LiteOS/LiteOS_Lab/drivers/third_party/ST/STM32L4xx_HAL_Driver/Src\stm32l4xx_hal_rcc_ex.c **** /**
2873:E:/LiteOS/LiteOS_Lab/drivers/third_party/ST/STM32L4xx_HAL_Driver/Src\stm32l4xx_hal_rcc_ex.c ****   * @brief  RCCEx Clock Recovery System SYNCOK interrupt callback.
2874:E:/LiteOS/LiteOS_Lab/drivers/third_party/ST/STM32L4xx_HAL_Driver/Src\stm32l4xx_hal_rcc_ex.c ****   * @retval none
2875:E:/LiteOS/LiteOS_Lab/drivers/third_party/ST/STM32L4xx_HAL_Driver/Src\stm32l4xx_hal_rcc_ex.c ****   */
2876:E:/LiteOS/LiteOS_Lab/drivers/third_party/ST/STM32L4xx_HAL_Driver/Src\stm32l4xx_hal_rcc_ex.c **** __weak void HAL_RCCEx_CRS_SyncOkCallback(void)
2877:E:/LiteOS/LiteOS_Lab/drivers/third_party/ST/STM32L4xx_HAL_Driver/Src\stm32l4xx_hal_rcc_ex.c **** {
 3538              		.loc 1 2877 0
 3539              		.cfi_startproc
 3540              		@ args = 0, pretend = 0, frame = 0
 3541              		@ frame_needed = 1, uses_anonymous_args = 0
 3542              		@ link register save eliminated.
 3543 0000 80B4     		push	{r7}
 3544              	.LCFI100:
 3545              		.cfi_def_cfa_offset 4
 3546              		.cfi_offset 7, -4
 3547 0002 00AF     		add	r7, sp, #0
 3548              	.LCFI101:
 3549              		.cfi_def_cfa_register 7
2878:E:/LiteOS/LiteOS_Lab/drivers/third_party/ST/STM32L4xx_HAL_Driver/Src\stm32l4xx_hal_rcc_ex.c ****   /* NOTE : This function should not be modified, when the callback is needed,
ARM GAS  C:\Users\user\AppData\Local\Temp\ccsJwa9Q.s 			page 117


2879:E:/LiteOS/LiteOS_Lab/drivers/third_party/ST/STM32L4xx_HAL_Driver/Src\stm32l4xx_hal_rcc_ex.c ****             the @ref HAL_RCCEx_CRS_SyncOkCallback should be implemented in the user file
2880:E:/LiteOS/LiteOS_Lab/drivers/third_party/ST/STM32L4xx_HAL_Driver/Src\stm32l4xx_hal_rcc_ex.c ****    */
2881:E:/LiteOS/LiteOS_Lab/drivers/third_party/ST/STM32L4xx_HAL_Driver/Src\stm32l4xx_hal_rcc_ex.c **** }
 3550              		.loc 1 2881 0
 3551 0004 00BF     		nop
 3552 0006 BD46     		mov	sp, r7
 3553              	.LCFI102:
 3554              		.cfi_def_cfa_register 13
 3555              		@ sp needed
 3556 0008 5DF8047B 		ldr	r7, [sp], #4
 3557              	.LCFI103:
 3558              		.cfi_restore 7
 3559              		.cfi_def_cfa_offset 0
 3560 000c 7047     		bx	lr
 3561              		.cfi_endproc
 3562              	.LFE154:
 3564              		.section	.text.HAL_RCCEx_CRS_SyncWarnCallback,"ax",%progbits
 3565              		.align	1
 3566              		.weak	HAL_RCCEx_CRS_SyncWarnCallback
 3567              		.syntax unified
 3568              		.thumb
 3569              		.thumb_func
 3570              		.fpu fpv4-sp-d16
 3572              	HAL_RCCEx_CRS_SyncWarnCallback:
 3573              	.LFB155:
2882:E:/LiteOS/LiteOS_Lab/drivers/third_party/ST/STM32L4xx_HAL_Driver/Src\stm32l4xx_hal_rcc_ex.c **** 
2883:E:/LiteOS/LiteOS_Lab/drivers/third_party/ST/STM32L4xx_HAL_Driver/Src\stm32l4xx_hal_rcc_ex.c **** /**
2884:E:/LiteOS/LiteOS_Lab/drivers/third_party/ST/STM32L4xx_HAL_Driver/Src\stm32l4xx_hal_rcc_ex.c ****   * @brief  RCCEx Clock Recovery System SYNCWARN interrupt callback.
2885:E:/LiteOS/LiteOS_Lab/drivers/third_party/ST/STM32L4xx_HAL_Driver/Src\stm32l4xx_hal_rcc_ex.c ****   * @retval none
2886:E:/LiteOS/LiteOS_Lab/drivers/third_party/ST/STM32L4xx_HAL_Driver/Src\stm32l4xx_hal_rcc_ex.c ****   */
2887:E:/LiteOS/LiteOS_Lab/drivers/third_party/ST/STM32L4xx_HAL_Driver/Src\stm32l4xx_hal_rcc_ex.c **** __weak void HAL_RCCEx_CRS_SyncWarnCallback(void)
2888:E:/LiteOS/LiteOS_Lab/drivers/third_party/ST/STM32L4xx_HAL_Driver/Src\stm32l4xx_hal_rcc_ex.c **** {
 3574              		.loc 1 2888 0
 3575              		.cfi_startproc
 3576              		@ args = 0, pretend = 0, frame = 0
 3577              		@ frame_needed = 1, uses_anonymous_args = 0
 3578              		@ link register save eliminated.
 3579 0000 80B4     		push	{r7}
 3580              	.LCFI104:
 3581              		.cfi_def_cfa_offset 4
 3582              		.cfi_offset 7, -4
 3583 0002 00AF     		add	r7, sp, #0
 3584              	.LCFI105:
 3585              		.cfi_def_cfa_register 7
2889:E:/LiteOS/LiteOS_Lab/drivers/third_party/ST/STM32L4xx_HAL_Driver/Src\stm32l4xx_hal_rcc_ex.c ****   /* NOTE : This function should not be modified, when the callback is needed,
2890:E:/LiteOS/LiteOS_Lab/drivers/third_party/ST/STM32L4xx_HAL_Driver/Src\stm32l4xx_hal_rcc_ex.c ****             the @ref HAL_RCCEx_CRS_SyncWarnCallback should be implemented in the user file
2891:E:/LiteOS/LiteOS_Lab/drivers/third_party/ST/STM32L4xx_HAL_Driver/Src\stm32l4xx_hal_rcc_ex.c ****    */
2892:E:/LiteOS/LiteOS_Lab/drivers/third_party/ST/STM32L4xx_HAL_Driver/Src\stm32l4xx_hal_rcc_ex.c **** }
 3586              		.loc 1 2892 0
 3587 0004 00BF     		nop
 3588 0006 BD46     		mov	sp, r7
 3589              	.LCFI106:
 3590              		.cfi_def_cfa_register 13
 3591              		@ sp needed
 3592 0008 5DF8047B 		ldr	r7, [sp], #4
 3593              	.LCFI107:
 3594              		.cfi_restore 7
ARM GAS  C:\Users\user\AppData\Local\Temp\ccsJwa9Q.s 			page 118


 3595              		.cfi_def_cfa_offset 0
 3596 000c 7047     		bx	lr
 3597              		.cfi_endproc
 3598              	.LFE155:
 3600              		.section	.text.HAL_RCCEx_CRS_ExpectedSyncCallback,"ax",%progbits
 3601              		.align	1
 3602              		.weak	HAL_RCCEx_CRS_ExpectedSyncCallback
 3603              		.syntax unified
 3604              		.thumb
 3605              		.thumb_func
 3606              		.fpu fpv4-sp-d16
 3608              	HAL_RCCEx_CRS_ExpectedSyncCallback:
 3609              	.LFB156:
2893:E:/LiteOS/LiteOS_Lab/drivers/third_party/ST/STM32L4xx_HAL_Driver/Src\stm32l4xx_hal_rcc_ex.c **** 
2894:E:/LiteOS/LiteOS_Lab/drivers/third_party/ST/STM32L4xx_HAL_Driver/Src\stm32l4xx_hal_rcc_ex.c **** /**
2895:E:/LiteOS/LiteOS_Lab/drivers/third_party/ST/STM32L4xx_HAL_Driver/Src\stm32l4xx_hal_rcc_ex.c ****   * @brief  RCCEx Clock Recovery System Expected SYNC interrupt callback.
2896:E:/LiteOS/LiteOS_Lab/drivers/third_party/ST/STM32L4xx_HAL_Driver/Src\stm32l4xx_hal_rcc_ex.c ****   * @retval none
2897:E:/LiteOS/LiteOS_Lab/drivers/third_party/ST/STM32L4xx_HAL_Driver/Src\stm32l4xx_hal_rcc_ex.c ****   */
2898:E:/LiteOS/LiteOS_Lab/drivers/third_party/ST/STM32L4xx_HAL_Driver/Src\stm32l4xx_hal_rcc_ex.c **** __weak void HAL_RCCEx_CRS_ExpectedSyncCallback(void)
2899:E:/LiteOS/LiteOS_Lab/drivers/third_party/ST/STM32L4xx_HAL_Driver/Src\stm32l4xx_hal_rcc_ex.c **** {
 3610              		.loc 1 2899 0
 3611              		.cfi_startproc
 3612              		@ args = 0, pretend = 0, frame = 0
 3613              		@ frame_needed = 1, uses_anonymous_args = 0
 3614              		@ link register save eliminated.
 3615 0000 80B4     		push	{r7}
 3616              	.LCFI108:
 3617              		.cfi_def_cfa_offset 4
 3618              		.cfi_offset 7, -4
 3619 0002 00AF     		add	r7, sp, #0
 3620              	.LCFI109:
 3621              		.cfi_def_cfa_register 7
2900:E:/LiteOS/LiteOS_Lab/drivers/third_party/ST/STM32L4xx_HAL_Driver/Src\stm32l4xx_hal_rcc_ex.c ****   /* NOTE : This function should not be modified, when the callback is needed,
2901:E:/LiteOS/LiteOS_Lab/drivers/third_party/ST/STM32L4xx_HAL_Driver/Src\stm32l4xx_hal_rcc_ex.c ****             the @ref HAL_RCCEx_CRS_ExpectedSyncCallback should be implemented in the user file
2902:E:/LiteOS/LiteOS_Lab/drivers/third_party/ST/STM32L4xx_HAL_Driver/Src\stm32l4xx_hal_rcc_ex.c ****    */
2903:E:/LiteOS/LiteOS_Lab/drivers/third_party/ST/STM32L4xx_HAL_Driver/Src\stm32l4xx_hal_rcc_ex.c **** }
 3622              		.loc 1 2903 0
 3623 0004 00BF     		nop
 3624 0006 BD46     		mov	sp, r7
 3625              	.LCFI110:
 3626              		.cfi_def_cfa_register 13
 3627              		@ sp needed
 3628 0008 5DF8047B 		ldr	r7, [sp], #4
 3629              	.LCFI111:
 3630              		.cfi_restore 7
 3631              		.cfi_def_cfa_offset 0
 3632 000c 7047     		bx	lr
 3633              		.cfi_endproc
 3634              	.LFE156:
 3636              		.section	.text.HAL_RCCEx_CRS_ErrorCallback,"ax",%progbits
 3637              		.align	1
 3638              		.weak	HAL_RCCEx_CRS_ErrorCallback
 3639              		.syntax unified
 3640              		.thumb
 3641              		.thumb_func
 3642              		.fpu fpv4-sp-d16
 3644              	HAL_RCCEx_CRS_ErrorCallback:
ARM GAS  C:\Users\user\AppData\Local\Temp\ccsJwa9Q.s 			page 119


 3645              	.LFB157:
2904:E:/LiteOS/LiteOS_Lab/drivers/third_party/ST/STM32L4xx_HAL_Driver/Src\stm32l4xx_hal_rcc_ex.c **** 
2905:E:/LiteOS/LiteOS_Lab/drivers/third_party/ST/STM32L4xx_HAL_Driver/Src\stm32l4xx_hal_rcc_ex.c **** /**
2906:E:/LiteOS/LiteOS_Lab/drivers/third_party/ST/STM32L4xx_HAL_Driver/Src\stm32l4xx_hal_rcc_ex.c ****   * @brief  RCCEx Clock Recovery System Error interrupt callback.
2907:E:/LiteOS/LiteOS_Lab/drivers/third_party/ST/STM32L4xx_HAL_Driver/Src\stm32l4xx_hal_rcc_ex.c ****   * @param  Error Combination of Error status.
2908:E:/LiteOS/LiteOS_Lab/drivers/third_party/ST/STM32L4xx_HAL_Driver/Src\stm32l4xx_hal_rcc_ex.c ****   *         This parameter can be a combination of the following values:
2909:E:/LiteOS/LiteOS_Lab/drivers/third_party/ST/STM32L4xx_HAL_Driver/Src\stm32l4xx_hal_rcc_ex.c ****   *           @arg @ref RCC_CRS_SYNCERR
2910:E:/LiteOS/LiteOS_Lab/drivers/third_party/ST/STM32L4xx_HAL_Driver/Src\stm32l4xx_hal_rcc_ex.c ****   *           @arg @ref RCC_CRS_SYNCMISS
2911:E:/LiteOS/LiteOS_Lab/drivers/third_party/ST/STM32L4xx_HAL_Driver/Src\stm32l4xx_hal_rcc_ex.c ****   *           @arg @ref RCC_CRS_TRIMOVF
2912:E:/LiteOS/LiteOS_Lab/drivers/third_party/ST/STM32L4xx_HAL_Driver/Src\stm32l4xx_hal_rcc_ex.c ****   * @retval none
2913:E:/LiteOS/LiteOS_Lab/drivers/third_party/ST/STM32L4xx_HAL_Driver/Src\stm32l4xx_hal_rcc_ex.c ****   */
2914:E:/LiteOS/LiteOS_Lab/drivers/third_party/ST/STM32L4xx_HAL_Driver/Src\stm32l4xx_hal_rcc_ex.c **** __weak void HAL_RCCEx_CRS_ErrorCallback(uint32_t Error)
2915:E:/LiteOS/LiteOS_Lab/drivers/third_party/ST/STM32L4xx_HAL_Driver/Src\stm32l4xx_hal_rcc_ex.c **** {
 3646              		.loc 1 2915 0
 3647              		.cfi_startproc
 3648              		@ args = 0, pretend = 0, frame = 8
 3649              		@ frame_needed = 1, uses_anonymous_args = 0
 3650              		@ link register save eliminated.
 3651 0000 80B4     		push	{r7}
 3652              	.LCFI112:
 3653              		.cfi_def_cfa_offset 4
 3654              		.cfi_offset 7, -4
 3655 0002 83B0     		sub	sp, sp, #12
 3656              	.LCFI113:
 3657              		.cfi_def_cfa_offset 16
 3658 0004 00AF     		add	r7, sp, #0
 3659              	.LCFI114:
 3660              		.cfi_def_cfa_register 7
 3661 0006 7860     		str	r0, [r7, #4]
2916:E:/LiteOS/LiteOS_Lab/drivers/third_party/ST/STM32L4xx_HAL_Driver/Src\stm32l4xx_hal_rcc_ex.c ****   /* Prevent unused argument(s) compilation warning */
2917:E:/LiteOS/LiteOS_Lab/drivers/third_party/ST/STM32L4xx_HAL_Driver/Src\stm32l4xx_hal_rcc_ex.c ****   UNUSED(Error);
2918:E:/LiteOS/LiteOS_Lab/drivers/third_party/ST/STM32L4xx_HAL_Driver/Src\stm32l4xx_hal_rcc_ex.c **** 
2919:E:/LiteOS/LiteOS_Lab/drivers/third_party/ST/STM32L4xx_HAL_Driver/Src\stm32l4xx_hal_rcc_ex.c ****   /* NOTE : This function should not be modified, when the callback is needed,
2920:E:/LiteOS/LiteOS_Lab/drivers/third_party/ST/STM32L4xx_HAL_Driver/Src\stm32l4xx_hal_rcc_ex.c ****             the @ref HAL_RCCEx_CRS_ErrorCallback should be implemented in the user file
2921:E:/LiteOS/LiteOS_Lab/drivers/third_party/ST/STM32L4xx_HAL_Driver/Src\stm32l4xx_hal_rcc_ex.c ****    */
2922:E:/LiteOS/LiteOS_Lab/drivers/third_party/ST/STM32L4xx_HAL_Driver/Src\stm32l4xx_hal_rcc_ex.c **** }
 3662              		.loc 1 2922 0
 3663 0008 00BF     		nop
 3664 000a 0C37     		adds	r7, r7, #12
 3665              	.LCFI115:
 3666              		.cfi_def_cfa_offset 4
 3667 000c BD46     		mov	sp, r7
 3668              	.LCFI116:
 3669              		.cfi_def_cfa_register 13
 3670              		@ sp needed
 3671 000e 5DF8047B 		ldr	r7, [sp], #4
 3672              	.LCFI117:
 3673              		.cfi_restore 7
 3674              		.cfi_def_cfa_offset 0
 3675 0012 7047     		bx	lr
 3676              		.cfi_endproc
 3677              	.LFE157:
 3679              		.section	.text.RCCEx_PLLSAI1_Config,"ax",%progbits
 3680              		.align	1
 3681              		.syntax unified
 3682              		.thumb
 3683              		.thumb_func
ARM GAS  C:\Users\user\AppData\Local\Temp\ccsJwa9Q.s 			page 120


 3684              		.fpu fpv4-sp-d16
 3686              	RCCEx_PLLSAI1_Config:
 3687              	.LFB158:
2923:E:/LiteOS/LiteOS_Lab/drivers/third_party/ST/STM32L4xx_HAL_Driver/Src\stm32l4xx_hal_rcc_ex.c **** 
2924:E:/LiteOS/LiteOS_Lab/drivers/third_party/ST/STM32L4xx_HAL_Driver/Src\stm32l4xx_hal_rcc_ex.c **** /**
2925:E:/LiteOS/LiteOS_Lab/drivers/third_party/ST/STM32L4xx_HAL_Driver/Src\stm32l4xx_hal_rcc_ex.c ****   * @}
2926:E:/LiteOS/LiteOS_Lab/drivers/third_party/ST/STM32L4xx_HAL_Driver/Src\stm32l4xx_hal_rcc_ex.c ****   */
2927:E:/LiteOS/LiteOS_Lab/drivers/third_party/ST/STM32L4xx_HAL_Driver/Src\stm32l4xx_hal_rcc_ex.c **** 
2928:E:/LiteOS/LiteOS_Lab/drivers/third_party/ST/STM32L4xx_HAL_Driver/Src\stm32l4xx_hal_rcc_ex.c **** #endif /* CRS */
2929:E:/LiteOS/LiteOS_Lab/drivers/third_party/ST/STM32L4xx_HAL_Driver/Src\stm32l4xx_hal_rcc_ex.c **** 
2930:E:/LiteOS/LiteOS_Lab/drivers/third_party/ST/STM32L4xx_HAL_Driver/Src\stm32l4xx_hal_rcc_ex.c **** /**
2931:E:/LiteOS/LiteOS_Lab/drivers/third_party/ST/STM32L4xx_HAL_Driver/Src\stm32l4xx_hal_rcc_ex.c ****   * @}
2932:E:/LiteOS/LiteOS_Lab/drivers/third_party/ST/STM32L4xx_HAL_Driver/Src\stm32l4xx_hal_rcc_ex.c ****   */
2933:E:/LiteOS/LiteOS_Lab/drivers/third_party/ST/STM32L4xx_HAL_Driver/Src\stm32l4xx_hal_rcc_ex.c **** 
2934:E:/LiteOS/LiteOS_Lab/drivers/third_party/ST/STM32L4xx_HAL_Driver/Src\stm32l4xx_hal_rcc_ex.c **** /** @addtogroup RCCEx_Private_Functions
2935:E:/LiteOS/LiteOS_Lab/drivers/third_party/ST/STM32L4xx_HAL_Driver/Src\stm32l4xx_hal_rcc_ex.c ****  * @{
2936:E:/LiteOS/LiteOS_Lab/drivers/third_party/ST/STM32L4xx_HAL_Driver/Src\stm32l4xx_hal_rcc_ex.c ****  */
2937:E:/LiteOS/LiteOS_Lab/drivers/third_party/ST/STM32L4xx_HAL_Driver/Src\stm32l4xx_hal_rcc_ex.c **** 
2938:E:/LiteOS/LiteOS_Lab/drivers/third_party/ST/STM32L4xx_HAL_Driver/Src\stm32l4xx_hal_rcc_ex.c **** /**
2939:E:/LiteOS/LiteOS_Lab/drivers/third_party/ST/STM32L4xx_HAL_Driver/Src\stm32l4xx_hal_rcc_ex.c ****   * @brief  Configure the parameters N & P & optionally M of PLLSAI1 and enable PLLSAI1 output cloc
2940:E:/LiteOS/LiteOS_Lab/drivers/third_party/ST/STM32L4xx_HAL_Driver/Src\stm32l4xx_hal_rcc_ex.c ****   * @param  PllSai1  pointer to an RCC_PLLSAI1InitTypeDef structure that
2941:E:/LiteOS/LiteOS_Lab/drivers/third_party/ST/STM32L4xx_HAL_Driver/Src\stm32l4xx_hal_rcc_ex.c ****   *         contains the configuration parameters N & P & optionally M as well as PLLSAI1 output cl
2942:E:/LiteOS/LiteOS_Lab/drivers/third_party/ST/STM32L4xx_HAL_Driver/Src\stm32l4xx_hal_rcc_ex.c ****   * @param  Divider  divider parameter to be updated
2943:E:/LiteOS/LiteOS_Lab/drivers/third_party/ST/STM32L4xx_HAL_Driver/Src\stm32l4xx_hal_rcc_ex.c ****   *
2944:E:/LiteOS/LiteOS_Lab/drivers/third_party/ST/STM32L4xx_HAL_Driver/Src\stm32l4xx_hal_rcc_ex.c ****   * @note   PLLSAI1 is temporary disable to apply new parameters
2945:E:/LiteOS/LiteOS_Lab/drivers/third_party/ST/STM32L4xx_HAL_Driver/Src\stm32l4xx_hal_rcc_ex.c ****   *
2946:E:/LiteOS/LiteOS_Lab/drivers/third_party/ST/STM32L4xx_HAL_Driver/Src\stm32l4xx_hal_rcc_ex.c ****   * @retval HAL status
2947:E:/LiteOS/LiteOS_Lab/drivers/third_party/ST/STM32L4xx_HAL_Driver/Src\stm32l4xx_hal_rcc_ex.c ****   */
2948:E:/LiteOS/LiteOS_Lab/drivers/third_party/ST/STM32L4xx_HAL_Driver/Src\stm32l4xx_hal_rcc_ex.c **** static HAL_StatusTypeDef RCCEx_PLLSAI1_Config(RCC_PLLSAI1InitTypeDef *PllSai1, uint32_t Divider)
2949:E:/LiteOS/LiteOS_Lab/drivers/third_party/ST/STM32L4xx_HAL_Driver/Src\stm32l4xx_hal_rcc_ex.c **** {
 3688              		.loc 1 2949 0
 3689              		.cfi_startproc
 3690              		@ args = 0, pretend = 0, frame = 16
 3691              		@ frame_needed = 1, uses_anonymous_args = 0
 3692 0000 80B5     		push	{r7, lr}
 3693              	.LCFI118:
 3694              		.cfi_def_cfa_offset 8
 3695              		.cfi_offset 7, -8
 3696              		.cfi_offset 14, -4
 3697 0002 84B0     		sub	sp, sp, #16
 3698              	.LCFI119:
 3699              		.cfi_def_cfa_offset 24
 3700 0004 00AF     		add	r7, sp, #0
 3701              	.LCFI120:
 3702              		.cfi_def_cfa_register 7
 3703 0006 7860     		str	r0, [r7, #4]
 3704 0008 3960     		str	r1, [r7]
2950:E:/LiteOS/LiteOS_Lab/drivers/third_party/ST/STM32L4xx_HAL_Driver/Src\stm32l4xx_hal_rcc_ex.c ****   uint32_t tickstart = 0U;
 3705              		.loc 1 2950 0
 3706 000a 0023     		movs	r3, #0
 3707 000c BB60     		str	r3, [r7, #8]
2951:E:/LiteOS/LiteOS_Lab/drivers/third_party/ST/STM32L4xx_HAL_Driver/Src\stm32l4xx_hal_rcc_ex.c ****   HAL_StatusTypeDef status = HAL_OK;
 3708              		.loc 1 2951 0
 3709 000e 0023     		movs	r3, #0
 3710 0010 FB73     		strb	r3, [r7, #15]
2952:E:/LiteOS/LiteOS_Lab/drivers/third_party/ST/STM32L4xx_HAL_Driver/Src\stm32l4xx_hal_rcc_ex.c **** 
2953:E:/LiteOS/LiteOS_Lab/drivers/third_party/ST/STM32L4xx_HAL_Driver/Src\stm32l4xx_hal_rcc_ex.c ****   /* check for PLLSAI1 Parameters used to output PLLSAI1CLK */
ARM GAS  C:\Users\user\AppData\Local\Temp\ccsJwa9Q.s 			page 121


2954:E:/LiteOS/LiteOS_Lab/drivers/third_party/ST/STM32L4xx_HAL_Driver/Src\stm32l4xx_hal_rcc_ex.c ****   /* P, Q and R dividers are verified in each specific divider case below */
2955:E:/LiteOS/LiteOS_Lab/drivers/third_party/ST/STM32L4xx_HAL_Driver/Src\stm32l4xx_hal_rcc_ex.c ****   assert_param(IS_RCC_PLLSAI1SOURCE(PllSai1->PLLSAI1Source));
2956:E:/LiteOS/LiteOS_Lab/drivers/third_party/ST/STM32L4xx_HAL_Driver/Src\stm32l4xx_hal_rcc_ex.c ****   assert_param(IS_RCC_PLLSAI1M_VALUE(PllSai1->PLLSAI1M));
2957:E:/LiteOS/LiteOS_Lab/drivers/third_party/ST/STM32L4xx_HAL_Driver/Src\stm32l4xx_hal_rcc_ex.c ****   assert_param(IS_RCC_PLLSAI1N_VALUE(PllSai1->PLLSAI1N));
2958:E:/LiteOS/LiteOS_Lab/drivers/third_party/ST/STM32L4xx_HAL_Driver/Src\stm32l4xx_hal_rcc_ex.c ****   assert_param(IS_RCC_PLLSAI1CLOCKOUT_VALUE(PllSai1->PLLSAI1ClockOut));
2959:E:/LiteOS/LiteOS_Lab/drivers/third_party/ST/STM32L4xx_HAL_Driver/Src\stm32l4xx_hal_rcc_ex.c **** 
2960:E:/LiteOS/LiteOS_Lab/drivers/third_party/ST/STM32L4xx_HAL_Driver/Src\stm32l4xx_hal_rcc_ex.c ****   /* Check that PLLSAI1 clock source and divider M can be applied */
2961:E:/LiteOS/LiteOS_Lab/drivers/third_party/ST/STM32L4xx_HAL_Driver/Src\stm32l4xx_hal_rcc_ex.c ****   if(__HAL_RCC_GET_PLL_OSCSOURCE() != RCC_PLLSOURCE_NONE)
 3711              		.loc 1 2961 0
 3712 0012 734B     		ldr	r3, .L294
 3713 0014 DB68     		ldr	r3, [r3, #12]
 3714 0016 03F00303 		and	r3, r3, #3
 3715 001a 002B     		cmp	r3, #0
 3716 001c 18D0     		beq	.L267
2962:E:/LiteOS/LiteOS_Lab/drivers/third_party/ST/STM32L4xx_HAL_Driver/Src\stm32l4xx_hal_rcc_ex.c ****   {
2963:E:/LiteOS/LiteOS_Lab/drivers/third_party/ST/STM32L4xx_HAL_Driver/Src\stm32l4xx_hal_rcc_ex.c ****     /* PLL clock source and divider M already set, check that no request for change  */
2964:E:/LiteOS/LiteOS_Lab/drivers/third_party/ST/STM32L4xx_HAL_Driver/Src\stm32l4xx_hal_rcc_ex.c ****     if((__HAL_RCC_GET_PLL_OSCSOURCE() != PllSai1->PLLSAI1Source)
 3717              		.loc 1 2964 0
 3718 001e 704B     		ldr	r3, .L294
 3719 0020 DB68     		ldr	r3, [r3, #12]
 3720 0022 03F00302 		and	r2, r3, #3
 3721 0026 7B68     		ldr	r3, [r7, #4]
 3722 0028 1B68     		ldr	r3, [r3]
 3723 002a 9A42     		cmp	r2, r3
 3724 002c 0DD1     		bne	.L268
2965:E:/LiteOS/LiteOS_Lab/drivers/third_party/ST/STM32L4xx_HAL_Driver/Src\stm32l4xx_hal_rcc_ex.c ****        ||
2966:E:/LiteOS/LiteOS_Lab/drivers/third_party/ST/STM32L4xx_HAL_Driver/Src\stm32l4xx_hal_rcc_ex.c ****        (PllSai1->PLLSAI1Source == RCC_PLLSOURCE_NONE)
 3725              		.loc 1 2966 0
 3726 002e 7B68     		ldr	r3, [r7, #4]
 3727 0030 1B68     		ldr	r3, [r3]
2965:E:/LiteOS/LiteOS_Lab/drivers/third_party/ST/STM32L4xx_HAL_Driver/Src\stm32l4xx_hal_rcc_ex.c ****        ||
 3728              		.loc 1 2965 0
 3729 0032 002B     		cmp	r3, #0
 3730 0034 09D0     		beq	.L268
2967:E:/LiteOS/LiteOS_Lab/drivers/third_party/ST/STM32L4xx_HAL_Driver/Src\stm32l4xx_hal_rcc_ex.c **** #if !defined(RCC_PLLSAI1M_DIV_1_16_SUPPORT)
2968:E:/LiteOS/LiteOS_Lab/drivers/third_party/ST/STM32L4xx_HAL_Driver/Src\stm32l4xx_hal_rcc_ex.c ****        ||
2969:E:/LiteOS/LiteOS_Lab/drivers/third_party/ST/STM32L4xx_HAL_Driver/Src\stm32l4xx_hal_rcc_ex.c ****        (((READ_BIT(RCC->PLLCFGR, RCC_PLLCFGR_PLLM) >> RCC_PLLCFGR_PLLM_Pos) + 1U) != PllSai1->PLLSA
 3731              		.loc 1 2969 0
 3732 0036 6A4B     		ldr	r3, .L294
 3733 0038 DB68     		ldr	r3, [r3, #12]
 3734 003a 1B09     		lsrs	r3, r3, #4
 3735 003c 03F00703 		and	r3, r3, #7
 3736 0040 5A1C     		adds	r2, r3, #1
 3737 0042 7B68     		ldr	r3, [r7, #4]
 3738 0044 5B68     		ldr	r3, [r3, #4]
2968:E:/LiteOS/LiteOS_Lab/drivers/third_party/ST/STM32L4xx_HAL_Driver/Src\stm32l4xx_hal_rcc_ex.c ****        (((READ_BIT(RCC->PLLCFGR, RCC_PLLCFGR_PLLM) >> RCC_PLLCFGR_PLLM_Pos) + 1U) != PllSai1->PLLSA
 3739              		.loc 1 2968 0
 3740 0046 9A42     		cmp	r2, r3
 3741 0048 44D0     		beq	.L270
 3742              	.L268:
2970:E:/LiteOS/LiteOS_Lab/drivers/third_party/ST/STM32L4xx_HAL_Driver/Src\stm32l4xx_hal_rcc_ex.c **** #endif
2971:E:/LiteOS/LiteOS_Lab/drivers/third_party/ST/STM32L4xx_HAL_Driver/Src\stm32l4xx_hal_rcc_ex.c ****       )
2972:E:/LiteOS/LiteOS_Lab/drivers/third_party/ST/STM32L4xx_HAL_Driver/Src\stm32l4xx_hal_rcc_ex.c ****     {
2973:E:/LiteOS/LiteOS_Lab/drivers/third_party/ST/STM32L4xx_HAL_Driver/Src\stm32l4xx_hal_rcc_ex.c ****       status = HAL_ERROR;
 3743              		.loc 1 2973 0
 3744 004a 0123     		movs	r3, #1
 3745 004c FB73     		strb	r3, [r7, #15]
ARM GAS  C:\Users\user\AppData\Local\Temp\ccsJwa9Q.s 			page 122


 3746 004e 41E0     		b	.L270
 3747              	.L267:
2974:E:/LiteOS/LiteOS_Lab/drivers/third_party/ST/STM32L4xx_HAL_Driver/Src\stm32l4xx_hal_rcc_ex.c ****     }
2975:E:/LiteOS/LiteOS_Lab/drivers/third_party/ST/STM32L4xx_HAL_Driver/Src\stm32l4xx_hal_rcc_ex.c ****   }
2976:E:/LiteOS/LiteOS_Lab/drivers/third_party/ST/STM32L4xx_HAL_Driver/Src\stm32l4xx_hal_rcc_ex.c ****   else
2977:E:/LiteOS/LiteOS_Lab/drivers/third_party/ST/STM32L4xx_HAL_Driver/Src\stm32l4xx_hal_rcc_ex.c ****   {
2978:E:/LiteOS/LiteOS_Lab/drivers/third_party/ST/STM32L4xx_HAL_Driver/Src\stm32l4xx_hal_rcc_ex.c ****     /* Check PLLSAI1 clock source availability */
2979:E:/LiteOS/LiteOS_Lab/drivers/third_party/ST/STM32L4xx_HAL_Driver/Src\stm32l4xx_hal_rcc_ex.c ****     switch(PllSai1->PLLSAI1Source)
 3748              		.loc 1 2979 0
 3749 0050 7B68     		ldr	r3, [r7, #4]
 3750 0052 1B68     		ldr	r3, [r3]
 3751 0054 022B     		cmp	r3, #2
 3752 0056 0CD0     		beq	.L272
 3753 0058 032B     		cmp	r3, #3
 3754 005a 13D0     		beq	.L273
 3755 005c 012B     		cmp	r3, #1
 3756 005e 20D1     		bne	.L290
2980:E:/LiteOS/LiteOS_Lab/drivers/third_party/ST/STM32L4xx_HAL_Driver/Src\stm32l4xx_hal_rcc_ex.c ****     {
2981:E:/LiteOS/LiteOS_Lab/drivers/third_party/ST/STM32L4xx_HAL_Driver/Src\stm32l4xx_hal_rcc_ex.c ****     case RCC_PLLSOURCE_MSI:
2982:E:/LiteOS/LiteOS_Lab/drivers/third_party/ST/STM32L4xx_HAL_Driver/Src\stm32l4xx_hal_rcc_ex.c ****       if(HAL_IS_BIT_CLR(RCC->CR, RCC_CR_MSIRDY))
 3757              		.loc 1 2982 0
 3758 0060 5F4B     		ldr	r3, .L294
 3759 0062 1B68     		ldr	r3, [r3]
 3760 0064 03F00203 		and	r3, r3, #2
 3761 0068 002B     		cmp	r3, #0
 3762 006a 1DD1     		bne	.L291
2983:E:/LiteOS/LiteOS_Lab/drivers/third_party/ST/STM32L4xx_HAL_Driver/Src\stm32l4xx_hal_rcc_ex.c ****       {
2984:E:/LiteOS/LiteOS_Lab/drivers/third_party/ST/STM32L4xx_HAL_Driver/Src\stm32l4xx_hal_rcc_ex.c ****         status = HAL_ERROR;
 3763              		.loc 1 2984 0
 3764 006c 0123     		movs	r3, #1
 3765 006e FB73     		strb	r3, [r7, #15]
2985:E:/LiteOS/LiteOS_Lab/drivers/third_party/ST/STM32L4xx_HAL_Driver/Src\stm32l4xx_hal_rcc_ex.c ****       }
2986:E:/LiteOS/LiteOS_Lab/drivers/third_party/ST/STM32L4xx_HAL_Driver/Src\stm32l4xx_hal_rcc_ex.c ****       break;
 3766              		.loc 1 2986 0
 3767 0070 1AE0     		b	.L291
 3768              	.L272:
2987:E:/LiteOS/LiteOS_Lab/drivers/third_party/ST/STM32L4xx_HAL_Driver/Src\stm32l4xx_hal_rcc_ex.c ****     case RCC_PLLSOURCE_HSI:
2988:E:/LiteOS/LiteOS_Lab/drivers/third_party/ST/STM32L4xx_HAL_Driver/Src\stm32l4xx_hal_rcc_ex.c ****       if(HAL_IS_BIT_CLR(RCC->CR, RCC_CR_HSIRDY))
 3769              		.loc 1 2988 0
 3770 0072 5B4B     		ldr	r3, .L294
 3771 0074 1B68     		ldr	r3, [r3]
 3772 0076 03F48063 		and	r3, r3, #1024
 3773 007a 002B     		cmp	r3, #0
 3774 007c 16D1     		bne	.L292
2989:E:/LiteOS/LiteOS_Lab/drivers/third_party/ST/STM32L4xx_HAL_Driver/Src\stm32l4xx_hal_rcc_ex.c ****       {
2990:E:/LiteOS/LiteOS_Lab/drivers/third_party/ST/STM32L4xx_HAL_Driver/Src\stm32l4xx_hal_rcc_ex.c ****         status = HAL_ERROR;
 3775              		.loc 1 2990 0
 3776 007e 0123     		movs	r3, #1
 3777 0080 FB73     		strb	r3, [r7, #15]
2991:E:/LiteOS/LiteOS_Lab/drivers/third_party/ST/STM32L4xx_HAL_Driver/Src\stm32l4xx_hal_rcc_ex.c ****       }
2992:E:/LiteOS/LiteOS_Lab/drivers/third_party/ST/STM32L4xx_HAL_Driver/Src\stm32l4xx_hal_rcc_ex.c ****       break;
 3778              		.loc 1 2992 0
 3779 0082 13E0     		b	.L292
 3780              	.L273:
2993:E:/LiteOS/LiteOS_Lab/drivers/third_party/ST/STM32L4xx_HAL_Driver/Src\stm32l4xx_hal_rcc_ex.c ****     case RCC_PLLSOURCE_HSE:
2994:E:/LiteOS/LiteOS_Lab/drivers/third_party/ST/STM32L4xx_HAL_Driver/Src\stm32l4xx_hal_rcc_ex.c ****       if(HAL_IS_BIT_CLR(RCC->CR, RCC_CR_HSERDY) && HAL_IS_BIT_CLR(RCC->CR, RCC_CR_HSEBYP))
 3781              		.loc 1 2994 0
ARM GAS  C:\Users\user\AppData\Local\Temp\ccsJwa9Q.s 			page 123


 3782 0084 564B     		ldr	r3, .L294
 3783 0086 1B68     		ldr	r3, [r3]
 3784 0088 03F40033 		and	r3, r3, #131072
 3785 008c 002B     		cmp	r3, #0
 3786 008e 0FD1     		bne	.L293
 3787              		.loc 1 2994 0 is_stmt 0 discriminator 1
 3788 0090 534B     		ldr	r3, .L294
 3789 0092 1B68     		ldr	r3, [r3]
 3790 0094 03F48023 		and	r3, r3, #262144
 3791 0098 002B     		cmp	r3, #0
 3792 009a 09D1     		bne	.L293
2995:E:/LiteOS/LiteOS_Lab/drivers/third_party/ST/STM32L4xx_HAL_Driver/Src\stm32l4xx_hal_rcc_ex.c ****       {
2996:E:/LiteOS/LiteOS_Lab/drivers/third_party/ST/STM32L4xx_HAL_Driver/Src\stm32l4xx_hal_rcc_ex.c ****         status = HAL_ERROR;
 3793              		.loc 1 2996 0 is_stmt 1
 3794 009c 0123     		movs	r3, #1
 3795 009e FB73     		strb	r3, [r7, #15]
2997:E:/LiteOS/LiteOS_Lab/drivers/third_party/ST/STM32L4xx_HAL_Driver/Src\stm32l4xx_hal_rcc_ex.c ****       }
2998:E:/LiteOS/LiteOS_Lab/drivers/third_party/ST/STM32L4xx_HAL_Driver/Src\stm32l4xx_hal_rcc_ex.c ****       break;
 3796              		.loc 1 2998 0
 3797 00a0 06E0     		b	.L293
 3798              	.L290:
2999:E:/LiteOS/LiteOS_Lab/drivers/third_party/ST/STM32L4xx_HAL_Driver/Src\stm32l4xx_hal_rcc_ex.c ****     default:
3000:E:/LiteOS/LiteOS_Lab/drivers/third_party/ST/STM32L4xx_HAL_Driver/Src\stm32l4xx_hal_rcc_ex.c ****       status = HAL_ERROR;
 3799              		.loc 1 3000 0
 3800 00a2 0123     		movs	r3, #1
 3801 00a4 FB73     		strb	r3, [r7, #15]
3001:E:/LiteOS/LiteOS_Lab/drivers/third_party/ST/STM32L4xx_HAL_Driver/Src\stm32l4xx_hal_rcc_ex.c ****       break;
 3802              		.loc 1 3001 0
 3803 00a6 04E0     		b	.L276
 3804              	.L291:
2986:E:/LiteOS/LiteOS_Lab/drivers/third_party/ST/STM32L4xx_HAL_Driver/Src\stm32l4xx_hal_rcc_ex.c ****     case RCC_PLLSOURCE_HSI:
 3805              		.loc 1 2986 0
 3806 00a8 00BF     		nop
 3807 00aa 02E0     		b	.L276
 3808              	.L292:
2992:E:/LiteOS/LiteOS_Lab/drivers/third_party/ST/STM32L4xx_HAL_Driver/Src\stm32l4xx_hal_rcc_ex.c ****     case RCC_PLLSOURCE_HSE:
 3809              		.loc 1 2992 0
 3810 00ac 00BF     		nop
 3811 00ae 00E0     		b	.L276
 3812              	.L293:
2998:E:/LiteOS/LiteOS_Lab/drivers/third_party/ST/STM32L4xx_HAL_Driver/Src\stm32l4xx_hal_rcc_ex.c ****     default:
 3813              		.loc 1 2998 0
 3814 00b0 00BF     		nop
 3815              	.L276:
3002:E:/LiteOS/LiteOS_Lab/drivers/third_party/ST/STM32L4xx_HAL_Driver/Src\stm32l4xx_hal_rcc_ex.c ****     }
3003:E:/LiteOS/LiteOS_Lab/drivers/third_party/ST/STM32L4xx_HAL_Driver/Src\stm32l4xx_hal_rcc_ex.c **** 
3004:E:/LiteOS/LiteOS_Lab/drivers/third_party/ST/STM32L4xx_HAL_Driver/Src\stm32l4xx_hal_rcc_ex.c ****     if(status == HAL_OK)
 3816              		.loc 1 3004 0
 3817 00b2 FB7B     		ldrb	r3, [r7, #15]	@ zero_extendqisi2
 3818 00b4 002B     		cmp	r3, #0
 3819 00b6 0DD1     		bne	.L270
3005:E:/LiteOS/LiteOS_Lab/drivers/third_party/ST/STM32L4xx_HAL_Driver/Src\stm32l4xx_hal_rcc_ex.c ****     {
3006:E:/LiteOS/LiteOS_Lab/drivers/third_party/ST/STM32L4xx_HAL_Driver/Src\stm32l4xx_hal_rcc_ex.c **** #if defined(RCC_PLLSAI1M_DIV_1_16_SUPPORT)
3007:E:/LiteOS/LiteOS_Lab/drivers/third_party/ST/STM32L4xx_HAL_Driver/Src\stm32l4xx_hal_rcc_ex.c ****       /* Set PLLSAI1 clock source */
3008:E:/LiteOS/LiteOS_Lab/drivers/third_party/ST/STM32L4xx_HAL_Driver/Src\stm32l4xx_hal_rcc_ex.c ****       MODIFY_REG(RCC->PLLCFGR, RCC_PLLCFGR_PLLSRC, PllSai1->PLLSAI1Source);
3009:E:/LiteOS/LiteOS_Lab/drivers/third_party/ST/STM32L4xx_HAL_Driver/Src\stm32l4xx_hal_rcc_ex.c **** #else
3010:E:/LiteOS/LiteOS_Lab/drivers/third_party/ST/STM32L4xx_HAL_Driver/Src\stm32l4xx_hal_rcc_ex.c ****       /* Set PLLSAI1 clock source and divider M */
ARM GAS  C:\Users\user\AppData\Local\Temp\ccsJwa9Q.s 			page 124


3011:E:/LiteOS/LiteOS_Lab/drivers/third_party/ST/STM32L4xx_HAL_Driver/Src\stm32l4xx_hal_rcc_ex.c ****       MODIFY_REG(RCC->PLLCFGR, RCC_PLLCFGR_PLLSRC | RCC_PLLCFGR_PLLM, PllSai1->PLLSAI1Source | (Pll
 3820              		.loc 1 3011 0
 3821 00b8 494B     		ldr	r3, .L294
 3822 00ba DB68     		ldr	r3, [r3, #12]
 3823 00bc 23F07302 		bic	r2, r3, #115
 3824 00c0 7B68     		ldr	r3, [r7, #4]
 3825 00c2 1968     		ldr	r1, [r3]
 3826 00c4 7B68     		ldr	r3, [r7, #4]
 3827 00c6 5B68     		ldr	r3, [r3, #4]
 3828 00c8 013B     		subs	r3, r3, #1
 3829 00ca 1B01     		lsls	r3, r3, #4
 3830 00cc 0B43     		orrs	r3, r3, r1
 3831 00ce 4449     		ldr	r1, .L294
 3832 00d0 1343     		orrs	r3, r3, r2
 3833 00d2 CB60     		str	r3, [r1, #12]
 3834              	.L270:
3012:E:/LiteOS/LiteOS_Lab/drivers/third_party/ST/STM32L4xx_HAL_Driver/Src\stm32l4xx_hal_rcc_ex.c **** #endif
3013:E:/LiteOS/LiteOS_Lab/drivers/third_party/ST/STM32L4xx_HAL_Driver/Src\stm32l4xx_hal_rcc_ex.c ****     }
3014:E:/LiteOS/LiteOS_Lab/drivers/third_party/ST/STM32L4xx_HAL_Driver/Src\stm32l4xx_hal_rcc_ex.c ****   }
3015:E:/LiteOS/LiteOS_Lab/drivers/third_party/ST/STM32L4xx_HAL_Driver/Src\stm32l4xx_hal_rcc_ex.c **** 
3016:E:/LiteOS/LiteOS_Lab/drivers/third_party/ST/STM32L4xx_HAL_Driver/Src\stm32l4xx_hal_rcc_ex.c ****   if(status == HAL_OK)
 3835              		.loc 1 3016 0
 3836 00d4 FB7B     		ldrb	r3, [r7, #15]	@ zero_extendqisi2
 3837 00d6 002B     		cmp	r3, #0
 3838 00d8 7CD1     		bne	.L279
3017:E:/LiteOS/LiteOS_Lab/drivers/third_party/ST/STM32L4xx_HAL_Driver/Src\stm32l4xx_hal_rcc_ex.c ****   {
3018:E:/LiteOS/LiteOS_Lab/drivers/third_party/ST/STM32L4xx_HAL_Driver/Src\stm32l4xx_hal_rcc_ex.c ****     /* Disable the PLLSAI1 */
3019:E:/LiteOS/LiteOS_Lab/drivers/third_party/ST/STM32L4xx_HAL_Driver/Src\stm32l4xx_hal_rcc_ex.c ****     __HAL_RCC_PLLSAI1_DISABLE();
 3839              		.loc 1 3019 0
 3840 00da 414B     		ldr	r3, .L294
 3841 00dc 1B68     		ldr	r3, [r3]
 3842 00de 404A     		ldr	r2, .L294
 3843 00e0 23F08063 		bic	r3, r3, #67108864
 3844 00e4 1360     		str	r3, [r2]
3020:E:/LiteOS/LiteOS_Lab/drivers/third_party/ST/STM32L4xx_HAL_Driver/Src\stm32l4xx_hal_rcc_ex.c **** 
3021:E:/LiteOS/LiteOS_Lab/drivers/third_party/ST/STM32L4xx_HAL_Driver/Src\stm32l4xx_hal_rcc_ex.c ****     /* Get Start Tick*/
3022:E:/LiteOS/LiteOS_Lab/drivers/third_party/ST/STM32L4xx_HAL_Driver/Src\stm32l4xx_hal_rcc_ex.c ****     tickstart = HAL_GetTick();
 3845              		.loc 1 3022 0
 3846 00e6 FFF7FEFF 		bl	HAL_GetTick
 3847 00ea B860     		str	r0, [r7, #8]
3023:E:/LiteOS/LiteOS_Lab/drivers/third_party/ST/STM32L4xx_HAL_Driver/Src\stm32l4xx_hal_rcc_ex.c **** 
3024:E:/LiteOS/LiteOS_Lab/drivers/third_party/ST/STM32L4xx_HAL_Driver/Src\stm32l4xx_hal_rcc_ex.c ****     /* Wait till PLLSAI1 is ready to be updated */
3025:E:/LiteOS/LiteOS_Lab/drivers/third_party/ST/STM32L4xx_HAL_Driver/Src\stm32l4xx_hal_rcc_ex.c ****     while(READ_BIT(RCC->CR, RCC_CR_PLLSAI1RDY) != RESET)
 3848              		.loc 1 3025 0
 3849 00ec 09E0     		b	.L280
 3850              	.L282:
3026:E:/LiteOS/LiteOS_Lab/drivers/third_party/ST/STM32L4xx_HAL_Driver/Src\stm32l4xx_hal_rcc_ex.c ****     {
3027:E:/LiteOS/LiteOS_Lab/drivers/third_party/ST/STM32L4xx_HAL_Driver/Src\stm32l4xx_hal_rcc_ex.c ****       if((HAL_GetTick() - tickstart) > PLLSAI1_TIMEOUT_VALUE)
 3851              		.loc 1 3027 0
 3852 00ee FFF7FEFF 		bl	HAL_GetTick
 3853 00f2 0246     		mov	r2, r0
 3854 00f4 BB68     		ldr	r3, [r7, #8]
 3855 00f6 D31A     		subs	r3, r2, r3
 3856 00f8 022B     		cmp	r3, #2
 3857 00fa 02D9     		bls	.L280
3028:E:/LiteOS/LiteOS_Lab/drivers/third_party/ST/STM32L4xx_HAL_Driver/Src\stm32l4xx_hal_rcc_ex.c ****       {
3029:E:/LiteOS/LiteOS_Lab/drivers/third_party/ST/STM32L4xx_HAL_Driver/Src\stm32l4xx_hal_rcc_ex.c ****         status = HAL_TIMEOUT;
ARM GAS  C:\Users\user\AppData\Local\Temp\ccsJwa9Q.s 			page 125


 3858              		.loc 1 3029 0
 3859 00fc 0323     		movs	r3, #3
 3860 00fe FB73     		strb	r3, [r7, #15]
3030:E:/LiteOS/LiteOS_Lab/drivers/third_party/ST/STM32L4xx_HAL_Driver/Src\stm32l4xx_hal_rcc_ex.c ****         break;
 3861              		.loc 1 3030 0
 3862 0100 05E0     		b	.L281
 3863              	.L280:
3025:E:/LiteOS/LiteOS_Lab/drivers/third_party/ST/STM32L4xx_HAL_Driver/Src\stm32l4xx_hal_rcc_ex.c ****     {
 3864              		.loc 1 3025 0
 3865 0102 374B     		ldr	r3, .L294
 3866 0104 1B68     		ldr	r3, [r3]
 3867 0106 03F00063 		and	r3, r3, #134217728
 3868 010a 002B     		cmp	r3, #0
 3869 010c EFD1     		bne	.L282
 3870              	.L281:
3031:E:/LiteOS/LiteOS_Lab/drivers/third_party/ST/STM32L4xx_HAL_Driver/Src\stm32l4xx_hal_rcc_ex.c ****       }
3032:E:/LiteOS/LiteOS_Lab/drivers/third_party/ST/STM32L4xx_HAL_Driver/Src\stm32l4xx_hal_rcc_ex.c ****     }
3033:E:/LiteOS/LiteOS_Lab/drivers/third_party/ST/STM32L4xx_HAL_Driver/Src\stm32l4xx_hal_rcc_ex.c **** 
3034:E:/LiteOS/LiteOS_Lab/drivers/third_party/ST/STM32L4xx_HAL_Driver/Src\stm32l4xx_hal_rcc_ex.c ****     if(status == HAL_OK)
 3871              		.loc 1 3034 0
 3872 010e FB7B     		ldrb	r3, [r7, #15]	@ zero_extendqisi2
 3873 0110 002B     		cmp	r3, #0
 3874 0112 5FD1     		bne	.L279
3035:E:/LiteOS/LiteOS_Lab/drivers/third_party/ST/STM32L4xx_HAL_Driver/Src\stm32l4xx_hal_rcc_ex.c ****     {
3036:E:/LiteOS/LiteOS_Lab/drivers/third_party/ST/STM32L4xx_HAL_Driver/Src\stm32l4xx_hal_rcc_ex.c ****       if(Divider == DIVIDER_P_UPDATE)
 3875              		.loc 1 3036 0
 3876 0114 3B68     		ldr	r3, [r7]
 3877 0116 002B     		cmp	r3, #0
 3878 0118 10D1     		bne	.L283
3037:E:/LiteOS/LiteOS_Lab/drivers/third_party/ST/STM32L4xx_HAL_Driver/Src\stm32l4xx_hal_rcc_ex.c ****       {
3038:E:/LiteOS/LiteOS_Lab/drivers/third_party/ST/STM32L4xx_HAL_Driver/Src\stm32l4xx_hal_rcc_ex.c ****         assert_param(IS_RCC_PLLSAI1P_VALUE(PllSai1->PLLSAI1P));
3039:E:/LiteOS/LiteOS_Lab/drivers/third_party/ST/STM32L4xx_HAL_Driver/Src\stm32l4xx_hal_rcc_ex.c **** #if defined(RCC_PLLSAI1M_DIV_1_16_SUPPORT)
3040:E:/LiteOS/LiteOS_Lab/drivers/third_party/ST/STM32L4xx_HAL_Driver/Src\stm32l4xx_hal_rcc_ex.c **** 
3041:E:/LiteOS/LiteOS_Lab/drivers/third_party/ST/STM32L4xx_HAL_Driver/Src\stm32l4xx_hal_rcc_ex.c ****         /* Configure the PLLSAI1 Division factor M, P and Multiplication factor N*/
3042:E:/LiteOS/LiteOS_Lab/drivers/third_party/ST/STM32L4xx_HAL_Driver/Src\stm32l4xx_hal_rcc_ex.c **** #if defined(RCC_PLLSAI1P_DIV_2_31_SUPPORT)
3043:E:/LiteOS/LiteOS_Lab/drivers/third_party/ST/STM32L4xx_HAL_Driver/Src\stm32l4xx_hal_rcc_ex.c ****         MODIFY_REG(RCC->PLLSAI1CFGR,
3044:E:/LiteOS/LiteOS_Lab/drivers/third_party/ST/STM32L4xx_HAL_Driver/Src\stm32l4xx_hal_rcc_ex.c ****                    RCC_PLLSAI1CFGR_PLLSAI1N | RCC_PLLSAI1CFGR_PLLSAI1PDIV | RCC_PLLSAI1CFGR_PLLSAI1
3045:E:/LiteOS/LiteOS_Lab/drivers/third_party/ST/STM32L4xx_HAL_Driver/Src\stm32l4xx_hal_rcc_ex.c ****                    (PllSai1->PLLSAI1N << RCC_PLLSAI1CFGR_PLLSAI1N_Pos) |
3046:E:/LiteOS/LiteOS_Lab/drivers/third_party/ST/STM32L4xx_HAL_Driver/Src\stm32l4xx_hal_rcc_ex.c ****                    (PllSai1->PLLSAI1P << RCC_PLLSAI1CFGR_PLLSAI1PDIV_Pos) |
3047:E:/LiteOS/LiteOS_Lab/drivers/third_party/ST/STM32L4xx_HAL_Driver/Src\stm32l4xx_hal_rcc_ex.c ****                    ((PllSai1->PLLSAI1M - 1U) << RCC_PLLSAI1CFGR_PLLSAI1M_Pos));
3048:E:/LiteOS/LiteOS_Lab/drivers/third_party/ST/STM32L4xx_HAL_Driver/Src\stm32l4xx_hal_rcc_ex.c **** #else
3049:E:/LiteOS/LiteOS_Lab/drivers/third_party/ST/STM32L4xx_HAL_Driver/Src\stm32l4xx_hal_rcc_ex.c ****         MODIFY_REG(RCC->PLLSAI1CFGR,
3050:E:/LiteOS/LiteOS_Lab/drivers/third_party/ST/STM32L4xx_HAL_Driver/Src\stm32l4xx_hal_rcc_ex.c ****                    RCC_PLLSAI1CFGR_PLLSAI1N | RCC_PLLSAI1CFGR_PLLSAI1P | RCC_PLLSAI1CFGR_PLLSAI1M,
3051:E:/LiteOS/LiteOS_Lab/drivers/third_party/ST/STM32L4xx_HAL_Driver/Src\stm32l4xx_hal_rcc_ex.c ****                    (PllSai1->PLLSAI1N << RCC_PLLSAI1CFGR_PLLSAI1N_Pos) |
3052:E:/LiteOS/LiteOS_Lab/drivers/third_party/ST/STM32L4xx_HAL_Driver/Src\stm32l4xx_hal_rcc_ex.c ****                    ((PllSai1->PLLSAI1P >> 4U) << RCC_PLLSAI1CFGR_PLLSAI1P_Pos) |
3053:E:/LiteOS/LiteOS_Lab/drivers/third_party/ST/STM32L4xx_HAL_Driver/Src\stm32l4xx_hal_rcc_ex.c ****                    ((PllSai1->PLLSAI1M - 1U) << RCC_PLLSAI1CFGR_PLLSAI1M_Pos));
3054:E:/LiteOS/LiteOS_Lab/drivers/third_party/ST/STM32L4xx_HAL_Driver/Src\stm32l4xx_hal_rcc_ex.c **** #endif /* RCC_PLLSAI1P_DIV_2_31_SUPPORT */
3055:E:/LiteOS/LiteOS_Lab/drivers/third_party/ST/STM32L4xx_HAL_Driver/Src\stm32l4xx_hal_rcc_ex.c **** 
3056:E:/LiteOS/LiteOS_Lab/drivers/third_party/ST/STM32L4xx_HAL_Driver/Src\stm32l4xx_hal_rcc_ex.c **** #else
3057:E:/LiteOS/LiteOS_Lab/drivers/third_party/ST/STM32L4xx_HAL_Driver/Src\stm32l4xx_hal_rcc_ex.c ****         /* Configure the PLLSAI1 Division factor P and Multiplication factor N*/
3058:E:/LiteOS/LiteOS_Lab/drivers/third_party/ST/STM32L4xx_HAL_Driver/Src\stm32l4xx_hal_rcc_ex.c **** #if defined(RCC_PLLSAI1P_DIV_2_31_SUPPORT)
3059:E:/LiteOS/LiteOS_Lab/drivers/third_party/ST/STM32L4xx_HAL_Driver/Src\stm32l4xx_hal_rcc_ex.c ****         MODIFY_REG(RCC->PLLSAI1CFGR,
 3879              		.loc 1 3059 0
 3880 011a 314B     		ldr	r3, .L294
 3881 011c 1B69     		ldr	r3, [r3, #16]
 3882 011e 23F07843 		bic	r3, r3, #-134217728
 3883 0122 23F4FE43 		bic	r3, r3, #32512
ARM GAS  C:\Users\user\AppData\Local\Temp\ccsJwa9Q.s 			page 126


 3884 0126 7A68     		ldr	r2, [r7, #4]
 3885 0128 9268     		ldr	r2, [r2, #8]
 3886 012a 1102     		lsls	r1, r2, #8
 3887 012c 7A68     		ldr	r2, [r7, #4]
 3888 012e D268     		ldr	r2, [r2, #12]
 3889 0130 D206     		lsls	r2, r2, #27
 3890 0132 0A43     		orrs	r2, r2, r1
 3891 0134 2A49     		ldr	r1, .L294
 3892 0136 1343     		orrs	r3, r3, r2
 3893 0138 0B61     		str	r3, [r1, #16]
 3894 013a 27E0     		b	.L284
 3895              	.L283:
3060:E:/LiteOS/LiteOS_Lab/drivers/third_party/ST/STM32L4xx_HAL_Driver/Src\stm32l4xx_hal_rcc_ex.c ****                    RCC_PLLSAI1CFGR_PLLSAI1N | RCC_PLLSAI1CFGR_PLLSAI1PDIV,
3061:E:/LiteOS/LiteOS_Lab/drivers/third_party/ST/STM32L4xx_HAL_Driver/Src\stm32l4xx_hal_rcc_ex.c ****                    (PllSai1->PLLSAI1N << RCC_PLLSAI1CFGR_PLLSAI1N_Pos) |
3062:E:/LiteOS/LiteOS_Lab/drivers/third_party/ST/STM32L4xx_HAL_Driver/Src\stm32l4xx_hal_rcc_ex.c ****                    (PllSai1->PLLSAI1P << RCC_PLLSAI1CFGR_PLLSAI1PDIV_Pos));
3063:E:/LiteOS/LiteOS_Lab/drivers/third_party/ST/STM32L4xx_HAL_Driver/Src\stm32l4xx_hal_rcc_ex.c **** #else
3064:E:/LiteOS/LiteOS_Lab/drivers/third_party/ST/STM32L4xx_HAL_Driver/Src\stm32l4xx_hal_rcc_ex.c ****         MODIFY_REG(RCC->PLLSAI1CFGR,
3065:E:/LiteOS/LiteOS_Lab/drivers/third_party/ST/STM32L4xx_HAL_Driver/Src\stm32l4xx_hal_rcc_ex.c ****                    RCC_PLLSAI1CFGR_PLLSAI1N | RCC_PLLSAI1CFGR_PLLSAI1P,
3066:E:/LiteOS/LiteOS_Lab/drivers/third_party/ST/STM32L4xx_HAL_Driver/Src\stm32l4xx_hal_rcc_ex.c ****                    (PllSai1->PLLSAI1N << RCC_PLLSAI1CFGR_PLLSAI1N_Pos) |
3067:E:/LiteOS/LiteOS_Lab/drivers/third_party/ST/STM32L4xx_HAL_Driver/Src\stm32l4xx_hal_rcc_ex.c ****                    ((PllSai1->PLLSAI1P >> 4U) << RCC_PLLSAI1CFGR_PLLSAI1P_Pos));
3068:E:/LiteOS/LiteOS_Lab/drivers/third_party/ST/STM32L4xx_HAL_Driver/Src\stm32l4xx_hal_rcc_ex.c **** #endif /* RCC_PLLSAI1P_DIV_2_31_SUPPORT */
3069:E:/LiteOS/LiteOS_Lab/drivers/third_party/ST/STM32L4xx_HAL_Driver/Src\stm32l4xx_hal_rcc_ex.c **** 
3070:E:/LiteOS/LiteOS_Lab/drivers/third_party/ST/STM32L4xx_HAL_Driver/Src\stm32l4xx_hal_rcc_ex.c **** #endif /* RCC_PLLSAI1M_DIV_1_16_SUPPORT */
3071:E:/LiteOS/LiteOS_Lab/drivers/third_party/ST/STM32L4xx_HAL_Driver/Src\stm32l4xx_hal_rcc_ex.c ****       }
3072:E:/LiteOS/LiteOS_Lab/drivers/third_party/ST/STM32L4xx_HAL_Driver/Src\stm32l4xx_hal_rcc_ex.c ****       else if(Divider == DIVIDER_Q_UPDATE)
 3896              		.loc 1 3072 0
 3897 013c 3B68     		ldr	r3, [r7]
 3898 013e 012B     		cmp	r3, #1
 3899 0140 12D1     		bne	.L285
3073:E:/LiteOS/LiteOS_Lab/drivers/third_party/ST/STM32L4xx_HAL_Driver/Src\stm32l4xx_hal_rcc_ex.c ****       {
3074:E:/LiteOS/LiteOS_Lab/drivers/third_party/ST/STM32L4xx_HAL_Driver/Src\stm32l4xx_hal_rcc_ex.c ****         assert_param(IS_RCC_PLLSAI1Q_VALUE(PllSai1->PLLSAI1Q));
3075:E:/LiteOS/LiteOS_Lab/drivers/third_party/ST/STM32L4xx_HAL_Driver/Src\stm32l4xx_hal_rcc_ex.c **** #if defined(RCC_PLLSAI1M_DIV_1_16_SUPPORT)
3076:E:/LiteOS/LiteOS_Lab/drivers/third_party/ST/STM32L4xx_HAL_Driver/Src\stm32l4xx_hal_rcc_ex.c ****         /* Configure the PLLSAI1 Division factor M, Q and Multiplication factor N*/
3077:E:/LiteOS/LiteOS_Lab/drivers/third_party/ST/STM32L4xx_HAL_Driver/Src\stm32l4xx_hal_rcc_ex.c ****         MODIFY_REG(RCC->PLLSAI1CFGR,
3078:E:/LiteOS/LiteOS_Lab/drivers/third_party/ST/STM32L4xx_HAL_Driver/Src\stm32l4xx_hal_rcc_ex.c ****                    RCC_PLLSAI1CFGR_PLLSAI1N | RCC_PLLSAI1CFGR_PLLSAI1Q | RCC_PLLSAI1CFGR_PLLSAI1M,
3079:E:/LiteOS/LiteOS_Lab/drivers/third_party/ST/STM32L4xx_HAL_Driver/Src\stm32l4xx_hal_rcc_ex.c ****                    (PllSai1->PLLSAI1N << RCC_PLLSAI1CFGR_PLLSAI1N_Pos) |
3080:E:/LiteOS/LiteOS_Lab/drivers/third_party/ST/STM32L4xx_HAL_Driver/Src\stm32l4xx_hal_rcc_ex.c ****                    (((PllSai1->PLLSAI1Q >> 1U) - 1U) << RCC_PLLSAI1CFGR_PLLSAI1Q_Pos) |
3081:E:/LiteOS/LiteOS_Lab/drivers/third_party/ST/STM32L4xx_HAL_Driver/Src\stm32l4xx_hal_rcc_ex.c ****                    ((PllSai1->PLLSAI1M - 1U) << RCC_PLLSAI1CFGR_PLLSAI1M_Pos));
3082:E:/LiteOS/LiteOS_Lab/drivers/third_party/ST/STM32L4xx_HAL_Driver/Src\stm32l4xx_hal_rcc_ex.c **** #else
3083:E:/LiteOS/LiteOS_Lab/drivers/third_party/ST/STM32L4xx_HAL_Driver/Src\stm32l4xx_hal_rcc_ex.c ****         /* Configure the PLLSAI1 Division factor Q and Multiplication factor N*/
3084:E:/LiteOS/LiteOS_Lab/drivers/third_party/ST/STM32L4xx_HAL_Driver/Src\stm32l4xx_hal_rcc_ex.c ****         MODIFY_REG(RCC->PLLSAI1CFGR,
 3900              		.loc 1 3084 0
 3901 0142 274B     		ldr	r3, .L294
 3902 0144 1B69     		ldr	r3, [r3, #16]
 3903 0146 23F4C003 		bic	r3, r3, #6291456
 3904 014a 23F4FE43 		bic	r3, r3, #32512
 3905 014e 7A68     		ldr	r2, [r7, #4]
 3906 0150 9268     		ldr	r2, [r2, #8]
 3907 0152 1102     		lsls	r1, r2, #8
 3908 0154 7A68     		ldr	r2, [r7, #4]
 3909 0156 1269     		ldr	r2, [r2, #16]
 3910 0158 5208     		lsrs	r2, r2, #1
 3911 015a 013A     		subs	r2, r2, #1
 3912 015c 5205     		lsls	r2, r2, #21
 3913 015e 0A43     		orrs	r2, r2, r1
 3914 0160 1F49     		ldr	r1, .L294
 3915 0162 1343     		orrs	r3, r3, r2
ARM GAS  C:\Users\user\AppData\Local\Temp\ccsJwa9Q.s 			page 127


 3916 0164 0B61     		str	r3, [r1, #16]
 3917 0166 11E0     		b	.L284
 3918              	.L285:
3085:E:/LiteOS/LiteOS_Lab/drivers/third_party/ST/STM32L4xx_HAL_Driver/Src\stm32l4xx_hal_rcc_ex.c ****                    RCC_PLLSAI1CFGR_PLLSAI1N | RCC_PLLSAI1CFGR_PLLSAI1Q,
3086:E:/LiteOS/LiteOS_Lab/drivers/third_party/ST/STM32L4xx_HAL_Driver/Src\stm32l4xx_hal_rcc_ex.c ****                    (PllSai1->PLLSAI1N << RCC_PLLSAI1CFGR_PLLSAI1N_Pos) |
3087:E:/LiteOS/LiteOS_Lab/drivers/third_party/ST/STM32L4xx_HAL_Driver/Src\stm32l4xx_hal_rcc_ex.c ****                    (((PllSai1->PLLSAI1Q >> 1U) - 1U) << RCC_PLLSAI1CFGR_PLLSAI1Q_Pos));
3088:E:/LiteOS/LiteOS_Lab/drivers/third_party/ST/STM32L4xx_HAL_Driver/Src\stm32l4xx_hal_rcc_ex.c **** #endif /* RCC_PLLSAI1M_DIV_1_16_SUPPORT */
3089:E:/LiteOS/LiteOS_Lab/drivers/third_party/ST/STM32L4xx_HAL_Driver/Src\stm32l4xx_hal_rcc_ex.c ****       }
3090:E:/LiteOS/LiteOS_Lab/drivers/third_party/ST/STM32L4xx_HAL_Driver/Src\stm32l4xx_hal_rcc_ex.c ****       else
3091:E:/LiteOS/LiteOS_Lab/drivers/third_party/ST/STM32L4xx_HAL_Driver/Src\stm32l4xx_hal_rcc_ex.c ****       {
3092:E:/LiteOS/LiteOS_Lab/drivers/third_party/ST/STM32L4xx_HAL_Driver/Src\stm32l4xx_hal_rcc_ex.c ****         assert_param(IS_RCC_PLLSAI1R_VALUE(PllSai1->PLLSAI1R));
3093:E:/LiteOS/LiteOS_Lab/drivers/third_party/ST/STM32L4xx_HAL_Driver/Src\stm32l4xx_hal_rcc_ex.c **** #if defined(RCC_PLLSAI1M_DIV_1_16_SUPPORT)
3094:E:/LiteOS/LiteOS_Lab/drivers/third_party/ST/STM32L4xx_HAL_Driver/Src\stm32l4xx_hal_rcc_ex.c ****         /* Configure the PLLSAI1 Division factor M, R and Multiplication factor N*/
3095:E:/LiteOS/LiteOS_Lab/drivers/third_party/ST/STM32L4xx_HAL_Driver/Src\stm32l4xx_hal_rcc_ex.c ****         MODIFY_REG(RCC->PLLSAI1CFGR,
3096:E:/LiteOS/LiteOS_Lab/drivers/third_party/ST/STM32L4xx_HAL_Driver/Src\stm32l4xx_hal_rcc_ex.c ****                    RCC_PLLSAI1CFGR_PLLSAI1N | RCC_PLLSAI1CFGR_PLLSAI1R | RCC_PLLSAI1CFGR_PLLSAI1M,
3097:E:/LiteOS/LiteOS_Lab/drivers/third_party/ST/STM32L4xx_HAL_Driver/Src\stm32l4xx_hal_rcc_ex.c ****                    (PllSai1->PLLSAI1N << RCC_PLLSAI1CFGR_PLLSAI1N_Pos) |
3098:E:/LiteOS/LiteOS_Lab/drivers/third_party/ST/STM32L4xx_HAL_Driver/Src\stm32l4xx_hal_rcc_ex.c ****                    (((PllSai1->PLLSAI1R >> 1U) - 1U) << RCC_PLLSAI1CFGR_PLLSAI1R_Pos) |
3099:E:/LiteOS/LiteOS_Lab/drivers/third_party/ST/STM32L4xx_HAL_Driver/Src\stm32l4xx_hal_rcc_ex.c ****                    ((PllSai1->PLLSAI1M - 1U) << RCC_PLLSAI1CFGR_PLLSAI1M_Pos));
3100:E:/LiteOS/LiteOS_Lab/drivers/third_party/ST/STM32L4xx_HAL_Driver/Src\stm32l4xx_hal_rcc_ex.c **** #else
3101:E:/LiteOS/LiteOS_Lab/drivers/third_party/ST/STM32L4xx_HAL_Driver/Src\stm32l4xx_hal_rcc_ex.c ****         /* Configure the PLLSAI1 Division factor R and Multiplication factor N*/
3102:E:/LiteOS/LiteOS_Lab/drivers/third_party/ST/STM32L4xx_HAL_Driver/Src\stm32l4xx_hal_rcc_ex.c ****         MODIFY_REG(RCC->PLLSAI1CFGR,
 3919              		.loc 1 3102 0
 3920 0168 1D4B     		ldr	r3, .L294
 3921 016a 1B69     		ldr	r3, [r3, #16]
 3922 016c 23F0C063 		bic	r3, r3, #100663296
 3923 0170 23F4FE43 		bic	r3, r3, #32512
 3924 0174 7A68     		ldr	r2, [r7, #4]
 3925 0176 9268     		ldr	r2, [r2, #8]
 3926 0178 1102     		lsls	r1, r2, #8
 3927 017a 7A68     		ldr	r2, [r7, #4]
 3928 017c 5269     		ldr	r2, [r2, #20]
 3929 017e 5208     		lsrs	r2, r2, #1
 3930 0180 013A     		subs	r2, r2, #1
 3931 0182 5206     		lsls	r2, r2, #25
 3932 0184 0A43     		orrs	r2, r2, r1
 3933 0186 1649     		ldr	r1, .L294
 3934 0188 1343     		orrs	r3, r3, r2
 3935 018a 0B61     		str	r3, [r1, #16]
 3936              	.L284:
3103:E:/LiteOS/LiteOS_Lab/drivers/third_party/ST/STM32L4xx_HAL_Driver/Src\stm32l4xx_hal_rcc_ex.c ****                    RCC_PLLSAI1CFGR_PLLSAI1N | RCC_PLLSAI1CFGR_PLLSAI1R,
3104:E:/LiteOS/LiteOS_Lab/drivers/third_party/ST/STM32L4xx_HAL_Driver/Src\stm32l4xx_hal_rcc_ex.c ****                    (PllSai1->PLLSAI1N << RCC_PLLSAI1CFGR_PLLSAI1N_Pos) |
3105:E:/LiteOS/LiteOS_Lab/drivers/third_party/ST/STM32L4xx_HAL_Driver/Src\stm32l4xx_hal_rcc_ex.c ****                    (((PllSai1->PLLSAI1R >> 1U) - 1U) << RCC_PLLSAI1CFGR_PLLSAI1R_Pos));
3106:E:/LiteOS/LiteOS_Lab/drivers/third_party/ST/STM32L4xx_HAL_Driver/Src\stm32l4xx_hal_rcc_ex.c **** #endif /* RCC_PLLSAI1M_DIV_1_16_SUPPORT */
3107:E:/LiteOS/LiteOS_Lab/drivers/third_party/ST/STM32L4xx_HAL_Driver/Src\stm32l4xx_hal_rcc_ex.c ****       }
3108:E:/LiteOS/LiteOS_Lab/drivers/third_party/ST/STM32L4xx_HAL_Driver/Src\stm32l4xx_hal_rcc_ex.c **** 
3109:E:/LiteOS/LiteOS_Lab/drivers/third_party/ST/STM32L4xx_HAL_Driver/Src\stm32l4xx_hal_rcc_ex.c ****       /* Enable the PLLSAI1 again by setting PLLSAI1ON to 1*/
3110:E:/LiteOS/LiteOS_Lab/drivers/third_party/ST/STM32L4xx_HAL_Driver/Src\stm32l4xx_hal_rcc_ex.c ****       __HAL_RCC_PLLSAI1_ENABLE();
 3937              		.loc 1 3110 0
 3938 018c 144B     		ldr	r3, .L294
 3939 018e 1B68     		ldr	r3, [r3]
 3940 0190 134A     		ldr	r2, .L294
 3941 0192 43F08063 		orr	r3, r3, #67108864
 3942 0196 1360     		str	r3, [r2]
3111:E:/LiteOS/LiteOS_Lab/drivers/third_party/ST/STM32L4xx_HAL_Driver/Src\stm32l4xx_hal_rcc_ex.c **** 
3112:E:/LiteOS/LiteOS_Lab/drivers/third_party/ST/STM32L4xx_HAL_Driver/Src\stm32l4xx_hal_rcc_ex.c ****       /* Get Start Tick*/
3113:E:/LiteOS/LiteOS_Lab/drivers/third_party/ST/STM32L4xx_HAL_Driver/Src\stm32l4xx_hal_rcc_ex.c ****       tickstart = HAL_GetTick();
 3943              		.loc 1 3113 0
ARM GAS  C:\Users\user\AppData\Local\Temp\ccsJwa9Q.s 			page 128


 3944 0198 FFF7FEFF 		bl	HAL_GetTick
 3945 019c B860     		str	r0, [r7, #8]
3114:E:/LiteOS/LiteOS_Lab/drivers/third_party/ST/STM32L4xx_HAL_Driver/Src\stm32l4xx_hal_rcc_ex.c **** 
3115:E:/LiteOS/LiteOS_Lab/drivers/third_party/ST/STM32L4xx_HAL_Driver/Src\stm32l4xx_hal_rcc_ex.c ****       /* Wait till PLLSAI1 is ready */
3116:E:/LiteOS/LiteOS_Lab/drivers/third_party/ST/STM32L4xx_HAL_Driver/Src\stm32l4xx_hal_rcc_ex.c ****       while(READ_BIT(RCC->CR, RCC_CR_PLLSAI1RDY) == RESET)
 3946              		.loc 1 3116 0
 3947 019e 09E0     		b	.L286
 3948              	.L288:
3117:E:/LiteOS/LiteOS_Lab/drivers/third_party/ST/STM32L4xx_HAL_Driver/Src\stm32l4xx_hal_rcc_ex.c ****       {
3118:E:/LiteOS/LiteOS_Lab/drivers/third_party/ST/STM32L4xx_HAL_Driver/Src\stm32l4xx_hal_rcc_ex.c ****         if((HAL_GetTick() - tickstart) > PLLSAI1_TIMEOUT_VALUE)
 3949              		.loc 1 3118 0
 3950 01a0 FFF7FEFF 		bl	HAL_GetTick
 3951 01a4 0246     		mov	r2, r0
 3952 01a6 BB68     		ldr	r3, [r7, #8]
 3953 01a8 D31A     		subs	r3, r2, r3
 3954 01aa 022B     		cmp	r3, #2
 3955 01ac 02D9     		bls	.L286
3119:E:/LiteOS/LiteOS_Lab/drivers/third_party/ST/STM32L4xx_HAL_Driver/Src\stm32l4xx_hal_rcc_ex.c ****         {
3120:E:/LiteOS/LiteOS_Lab/drivers/third_party/ST/STM32L4xx_HAL_Driver/Src\stm32l4xx_hal_rcc_ex.c ****           status = HAL_TIMEOUT;
 3956              		.loc 1 3120 0
 3957 01ae 0323     		movs	r3, #3
 3958 01b0 FB73     		strb	r3, [r7, #15]
3121:E:/LiteOS/LiteOS_Lab/drivers/third_party/ST/STM32L4xx_HAL_Driver/Src\stm32l4xx_hal_rcc_ex.c ****           break;
 3959              		.loc 1 3121 0
 3960 01b2 05E0     		b	.L287
 3961              	.L286:
3116:E:/LiteOS/LiteOS_Lab/drivers/third_party/ST/STM32L4xx_HAL_Driver/Src\stm32l4xx_hal_rcc_ex.c ****       {
 3962              		.loc 1 3116 0
 3963 01b4 0A4B     		ldr	r3, .L294
 3964 01b6 1B68     		ldr	r3, [r3]
 3965 01b8 03F00063 		and	r3, r3, #134217728
 3966 01bc 002B     		cmp	r3, #0
 3967 01be EFD0     		beq	.L288
 3968              	.L287:
3122:E:/LiteOS/LiteOS_Lab/drivers/third_party/ST/STM32L4xx_HAL_Driver/Src\stm32l4xx_hal_rcc_ex.c ****         }
3123:E:/LiteOS/LiteOS_Lab/drivers/third_party/ST/STM32L4xx_HAL_Driver/Src\stm32l4xx_hal_rcc_ex.c ****       }
3124:E:/LiteOS/LiteOS_Lab/drivers/third_party/ST/STM32L4xx_HAL_Driver/Src\stm32l4xx_hal_rcc_ex.c **** 
3125:E:/LiteOS/LiteOS_Lab/drivers/third_party/ST/STM32L4xx_HAL_Driver/Src\stm32l4xx_hal_rcc_ex.c ****       if(status == HAL_OK)
 3969              		.loc 1 3125 0
 3970 01c0 FB7B     		ldrb	r3, [r7, #15]	@ zero_extendqisi2
 3971 01c2 002B     		cmp	r3, #0
 3972 01c4 06D1     		bne	.L279
3126:E:/LiteOS/LiteOS_Lab/drivers/third_party/ST/STM32L4xx_HAL_Driver/Src\stm32l4xx_hal_rcc_ex.c ****       {
3127:E:/LiteOS/LiteOS_Lab/drivers/third_party/ST/STM32L4xx_HAL_Driver/Src\stm32l4xx_hal_rcc_ex.c ****         /* Configure the PLLSAI1 Clock output(s) */
3128:E:/LiteOS/LiteOS_Lab/drivers/third_party/ST/STM32L4xx_HAL_Driver/Src\stm32l4xx_hal_rcc_ex.c ****         __HAL_RCC_PLLSAI1CLKOUT_ENABLE(PllSai1->PLLSAI1ClockOut);
 3973              		.loc 1 3128 0
 3974 01c6 064B     		ldr	r3, .L294
 3975 01c8 1A69     		ldr	r2, [r3, #16]
 3976 01ca 7B68     		ldr	r3, [r7, #4]
 3977 01cc 9B69     		ldr	r3, [r3, #24]
 3978 01ce 0449     		ldr	r1, .L294
 3979 01d0 1343     		orrs	r3, r3, r2
 3980 01d2 0B61     		str	r3, [r1, #16]
 3981              	.L279:
3129:E:/LiteOS/LiteOS_Lab/drivers/third_party/ST/STM32L4xx_HAL_Driver/Src\stm32l4xx_hal_rcc_ex.c ****       }
3130:E:/LiteOS/LiteOS_Lab/drivers/third_party/ST/STM32L4xx_HAL_Driver/Src\stm32l4xx_hal_rcc_ex.c ****     }
3131:E:/LiteOS/LiteOS_Lab/drivers/third_party/ST/STM32L4xx_HAL_Driver/Src\stm32l4xx_hal_rcc_ex.c ****   }
ARM GAS  C:\Users\user\AppData\Local\Temp\ccsJwa9Q.s 			page 129


3132:E:/LiteOS/LiteOS_Lab/drivers/third_party/ST/STM32L4xx_HAL_Driver/Src\stm32l4xx_hal_rcc_ex.c **** 
3133:E:/LiteOS/LiteOS_Lab/drivers/third_party/ST/STM32L4xx_HAL_Driver/Src\stm32l4xx_hal_rcc_ex.c ****   return status;
 3982              		.loc 1 3133 0
 3983 01d4 FB7B     		ldrb	r3, [r7, #15]	@ zero_extendqisi2
3134:E:/LiteOS/LiteOS_Lab/drivers/third_party/ST/STM32L4xx_HAL_Driver/Src\stm32l4xx_hal_rcc_ex.c **** }
 3984              		.loc 1 3134 0
 3985 01d6 1846     		mov	r0, r3
 3986 01d8 1037     		adds	r7, r7, #16
 3987              	.LCFI121:
 3988              		.cfi_def_cfa_offset 8
 3989 01da BD46     		mov	sp, r7
 3990              	.LCFI122:
 3991              		.cfi_def_cfa_register 13
 3992              		@ sp needed
 3993 01dc 80BD     		pop	{r7, pc}
 3994              	.L295:
 3995 01de 00BF     		.align	2
 3996              	.L294:
 3997 01e0 00100240 		.word	1073876992
 3998              		.cfi_endproc
 3999              	.LFE158:
 4001              		.text
 4002              	.Letext0:
 4003              		.file 2 "e:\\ac6\\systemworkbench\\plugins\\fr.ac6.mcu.externaltools.arm-none.win32_1.16.0.2018071
 4004              		.file 3 "e:\\ac6\\systemworkbench\\plugins\\fr.ac6.mcu.externaltools.arm-none.win32_1.16.0.2018071
 4005              		.file 4 "e:\\ac6\\systemworkbench\\plugins\\fr.ac6.mcu.externaltools.arm-none.win32_1.16.0.2018071
 4006              		.file 5 "e:\\ac6\\systemworkbench\\plugins\\fr.ac6.mcu.externaltools.arm-none.win32_1.16.0.2018071
 4007              		.file 6 "e:\\ac6\\systemworkbench\\plugins\\fr.ac6.mcu.externaltools.arm-none.win32_1.16.0.2018071
 4008              		.file 7 "E:/LiteOS/LiteOS_Lab/iot_link/os/os_imp/liteos/include/los_typedef.h"
 4009              		.file 8 "e:\\ac6\\systemworkbench\\plugins\\fr.ac6.mcu.externaltools.arm-none.win32_1.16.0.2018071
 4010              		.file 9 "E:/LiteOS/LiteOS_Lab/iot_link/os/os_imp/liteos/arch/arm/common/cmsis/core_cm4.h"
 4011              		.file 10 "E:/LiteOS/LiteOS_Lab/targets/STM32L431_BearPi/Inc/system_stm32l4xx.h"
 4012              		.file 11 "E:/LiteOS/LiteOS_Lab/targets/STM32L431_BearPi/Inc/stm32l431xx.h"
 4013              		.file 12 "E:/LiteOS/LiteOS_Lab/targets/STM32L431_BearPi/Inc/stm32l4xx.h"
 4014              		.file 13 "E:/LiteOS/LiteOS_Lab/iot_link/os/os_imp/liteos/include/los_config.h"
 4015              		.file 14 "E:/LiteOS/LiteOS_Lab/iot_link/os/os_imp/liteos/include/los_list.h"
 4016              		.file 15 "E:/LiteOS/LiteOS_Lab/iot_link/os/os_imp/liteos/include/los_err.h"
 4017              		.file 16 "E:/LiteOS/LiteOS_Lab/iot_link/os/os_imp/liteos/arch/arm/arm-m/include/los_hwi.h"
 4018              		.file 17 "E:/LiteOS/LiteOS_Lab/iot_link/os/os_imp/liteos/include/los_tick.h"
 4019              		.file 18 "E:/LiteOS/LiteOS_Lab/iot_link/os/os_imp/liteos/include/los_event.h"
 4020              		.file 19 "E:/LiteOS/LiteOS_Lab/iot_link/os/os_imp/liteos/include/los_task.h"
 4021              		.file 20 "E:/LiteOS/LiteOS_Lab/iot_link/os/os_imp/liteos/base/include/los_task.ph"
 4022              		.file 21 "E:/LiteOS/LiteOS_Lab/targets/STM32L431_BearPi/Inc/main.h"
 4023              		.file 22 "E:/LiteOS/LiteOS_Lab/drivers/third_party/ST/STM32L4xx_HAL_Driver/Inc/stm32l4xx_hal_def.h
 4024              		.file 23 "E:/LiteOS/LiteOS_Lab/drivers/third_party/ST/STM32L4xx_HAL_Driver/Inc/stm32l4xx_hal_rcc_e
 4025              		.file 24 "E:/LiteOS/LiteOS_Lab/drivers/third_party/ST/STM32L4xx_HAL_Driver/Inc/stm32l4xx_hal_gpio.
ARM GAS  C:\Users\user\AppData\Local\Temp\ccsJwa9Q.s 			page 130


DEFINED SYMBOLS
                            *ABS*:00000000 stm32l4xx_hal_rcc_ex.c
C:\Users\user\AppData\Local\Temp\ccsJwa9Q.s:18     .text.HAL_RCCEx_PeriphCLKConfig:00000000 $t
C:\Users\user\AppData\Local\Temp\ccsJwa9Q.s:25     .text.HAL_RCCEx_PeriphCLKConfig:00000000 HAL_RCCEx_PeriphCLKConfig
C:\Users\user\AppData\Local\Temp\ccsJwa9Q.s:3686   .text.RCCEx_PLLSAI1_Config:00000000 RCCEx_PLLSAI1_Config
C:\Users\user\AppData\Local\Temp\ccsJwa9Q.s:281    .text.HAL_RCCEx_PeriphCLKConfig:000001a4 $d
C:\Users\user\AppData\Local\Temp\ccsJwa9Q.s:285    .text.HAL_RCCEx_PeriphCLKConfig:000001ac $t
C:\Users\user\AppData\Local\Temp\ccsJwa9Q.s:609    .text.HAL_RCCEx_PeriphCLKConfig:00000424 $d
C:\Users\user\AppData\Local\Temp\ccsJwa9Q.s:614    .text.HAL_RCCEx_GetPeriphCLKConfig:00000000 $t
C:\Users\user\AppData\Local\Temp\ccsJwa9Q.s:621    .text.HAL_RCCEx_GetPeriphCLKConfig:00000000 HAL_RCCEx_GetPeriphCLKConfig
C:\Users\user\AppData\Local\Temp\ccsJwa9Q.s:798    .text.HAL_RCCEx_GetPeriphCLKConfig:0000014c $d
C:\Users\user\AppData\Local\Temp\ccsJwa9Q.s:804    .text.HAL_RCCEx_GetPeriphCLKFreq:00000000 $t
C:\Users\user\AppData\Local\Temp\ccsJwa9Q.s:811    .text.HAL_RCCEx_GetPeriphCLKFreq:00000000 HAL_RCCEx_GetPeriphCLKFreq
C:\Users\user\AppData\Local\Temp\ccsJwa9Q.s:1218   .text.HAL_RCCEx_GetPeriphCLKFreq:000002d0 $d
C:\Users\user\AppData\Local\Temp\ccsJwa9Q.s:1226   .text.HAL_RCCEx_GetPeriphCLKFreq:000002e8 $t
C:\Users\user\AppData\Local\Temp\ccsJwa9Q.s:1611   .text.HAL_RCCEx_GetPeriphCLKFreq:00000580 $d
C:\Users\user\AppData\Local\Temp\ccsJwa9Q.s:1617   .text.HAL_RCCEx_GetPeriphCLKFreq:00000590 $t
C:\Users\user\AppData\Local\Temp\ccsJwa9Q.s:2027   .text.HAL_RCCEx_GetPeriphCLKFreq:0000083c $d
C:\Users\user\AppData\Local\Temp\ccsJwa9Q.s:2033   .text.HAL_RCCEx_EnablePLLSAI1:00000000 $t
C:\Users\user\AppData\Local\Temp\ccsJwa9Q.s:2040   .text.HAL_RCCEx_EnablePLLSAI1:00000000 HAL_RCCEx_EnablePLLSAI1
C:\Users\user\AppData\Local\Temp\ccsJwa9Q.s:2177   .text.HAL_RCCEx_EnablePLLSAI1:000000c0 $d
C:\Users\user\AppData\Local\Temp\ccsJwa9Q.s:2182   .text.HAL_RCCEx_DisablePLLSAI1:00000000 $t
C:\Users\user\AppData\Local\Temp\ccsJwa9Q.s:2189   .text.HAL_RCCEx_DisablePLLSAI1:00000000 HAL_RCCEx_DisablePLLSAI1
C:\Users\user\AppData\Local\Temp\ccsJwa9Q.s:2279   .text.HAL_RCCEx_DisablePLLSAI1:00000074 $d
C:\Users\user\AppData\Local\Temp\ccsJwa9Q.s:2284   .text.HAL_RCCEx_WakeUpStopCLKConfig:00000000 $t
C:\Users\user\AppData\Local\Temp\ccsJwa9Q.s:2291   .text.HAL_RCCEx_WakeUpStopCLKConfig:00000000 HAL_RCCEx_WakeUpStopCLKConfig
C:\Users\user\AppData\Local\Temp\ccsJwa9Q.s:2334   .text.HAL_RCCEx_WakeUpStopCLKConfig:00000024 $d
C:\Users\user\AppData\Local\Temp\ccsJwa9Q.s:2339   .text.HAL_RCCEx_StandbyMSIRangeConfig:00000000 $t
C:\Users\user\AppData\Local\Temp\ccsJwa9Q.s:2346   .text.HAL_RCCEx_StandbyMSIRangeConfig:00000000 HAL_RCCEx_StandbyMSIRangeConfig
C:\Users\user\AppData\Local\Temp\ccsJwa9Q.s:2390   .text.HAL_RCCEx_StandbyMSIRangeConfig:0000002c $d
C:\Users\user\AppData\Local\Temp\ccsJwa9Q.s:2395   .text.HAL_RCCEx_EnableLSECSS:00000000 $t
C:\Users\user\AppData\Local\Temp\ccsJwa9Q.s:2402   .text.HAL_RCCEx_EnableLSECSS:00000000 HAL_RCCEx_EnableLSECSS
C:\Users\user\AppData\Local\Temp\ccsJwa9Q.s:2436   .text.HAL_RCCEx_EnableLSECSS:00000020 $d
C:\Users\user\AppData\Local\Temp\ccsJwa9Q.s:2441   .text.HAL_RCCEx_DisableLSECSS:00000000 $t
C:\Users\user\AppData\Local\Temp\ccsJwa9Q.s:2448   .text.HAL_RCCEx_DisableLSECSS:00000000 HAL_RCCEx_DisableLSECSS
C:\Users\user\AppData\Local\Temp\ccsJwa9Q.s:2488   .text.HAL_RCCEx_DisableLSECSS:0000002c $d
C:\Users\user\AppData\Local\Temp\ccsJwa9Q.s:2493   .text.HAL_RCCEx_EnableLSECSS_IT:00000000 $t
C:\Users\user\AppData\Local\Temp\ccsJwa9Q.s:2500   .text.HAL_RCCEx_EnableLSECSS_IT:00000000 HAL_RCCEx_EnableLSECSS_IT
C:\Users\user\AppData\Local\Temp\ccsJwa9Q.s:2552   .text.HAL_RCCEx_EnableLSECSS_IT:00000044 $d
C:\Users\user\AppData\Local\Temp\ccsJwa9Q.s:2558   .text.HAL_RCCEx_LSECSS_IRQHandler:00000000 $t
C:\Users\user\AppData\Local\Temp\ccsJwa9Q.s:2565   .text.HAL_RCCEx_LSECSS_IRQHandler:00000000 HAL_RCCEx_LSECSS_IRQHandler
C:\Users\user\AppData\Local\Temp\ccsJwa9Q.s:2610   .text.HAL_RCCEx_LSECSS_Callback:00000000 HAL_RCCEx_LSECSS_Callback
C:\Users\user\AppData\Local\Temp\ccsJwa9Q.s:2598   .text.HAL_RCCEx_LSECSS_IRQHandler:00000024 $d
C:\Users\user\AppData\Local\Temp\ccsJwa9Q.s:2603   .text.HAL_RCCEx_LSECSS_Callback:00000000 $t
C:\Users\user\AppData\Local\Temp\ccsJwa9Q.s:2639   .text.HAL_RCCEx_EnableLSCO:00000000 $t
C:\Users\user\AppData\Local\Temp\ccsJwa9Q.s:2646   .text.HAL_RCCEx_EnableLSCO:00000000 HAL_RCCEx_EnableLSCO
C:\Users\user\AppData\Local\Temp\ccsJwa9Q.s:2775   .text.HAL_RCCEx_EnableLSCO:000000cc $d
C:\Users\user\AppData\Local\Temp\ccsJwa9Q.s:2781   .text.HAL_RCCEx_DisableLSCO:00000000 $t
C:\Users\user\AppData\Local\Temp\ccsJwa9Q.s:2788   .text.HAL_RCCEx_DisableLSCO:00000000 HAL_RCCEx_DisableLSCO
C:\Users\user\AppData\Local\Temp\ccsJwa9Q.s:2883   .text.HAL_RCCEx_DisableLSCO:00000080 $d
C:\Users\user\AppData\Local\Temp\ccsJwa9Q.s:2889   .text.HAL_RCCEx_EnableMSIPLLMode:00000000 $t
C:\Users\user\AppData\Local\Temp\ccsJwa9Q.s:2896   .text.HAL_RCCEx_EnableMSIPLLMode:00000000 HAL_RCCEx_EnableMSIPLLMode
C:\Users\user\AppData\Local\Temp\ccsJwa9Q.s:2930   .text.HAL_RCCEx_EnableMSIPLLMode:0000001c $d
C:\Users\user\AppData\Local\Temp\ccsJwa9Q.s:2935   .text.HAL_RCCEx_DisableMSIPLLMode:00000000 $t
C:\Users\user\AppData\Local\Temp\ccsJwa9Q.s:2942   .text.HAL_RCCEx_DisableMSIPLLMode:00000000 HAL_RCCEx_DisableMSIPLLMode
C:\Users\user\AppData\Local\Temp\ccsJwa9Q.s:2976   .text.HAL_RCCEx_DisableMSIPLLMode:0000001c $d
C:\Users\user\AppData\Local\Temp\ccsJwa9Q.s:2981   .text.HAL_RCCEx_CRSConfig:00000000 $t
ARM GAS  C:\Users\user\AppData\Local\Temp\ccsJwa9Q.s 			page 131


C:\Users\user\AppData\Local\Temp\ccsJwa9Q.s:2988   .text.HAL_RCCEx_CRSConfig:00000000 HAL_RCCEx_CRSConfig
C:\Users\user\AppData\Local\Temp\ccsJwa9Q.s:3081   .text.HAL_RCCEx_CRSConfig:00000080 $d
C:\Users\user\AppData\Local\Temp\ccsJwa9Q.s:3087   .text.HAL_RCCEx_CRSSoftwareSynchronizationGenerate:00000000 $t
C:\Users\user\AppData\Local\Temp\ccsJwa9Q.s:3094   .text.HAL_RCCEx_CRSSoftwareSynchronizationGenerate:00000000 HAL_RCCEx_CRSSoftwareSynchronizationGenerate
C:\Users\user\AppData\Local\Temp\ccsJwa9Q.s:3128   .text.HAL_RCCEx_CRSSoftwareSynchronizationGenerate:0000001c $d
C:\Users\user\AppData\Local\Temp\ccsJwa9Q.s:3133   .text.HAL_RCCEx_CRSGetSynchronizationInfo:00000000 $t
C:\Users\user\AppData\Local\Temp\ccsJwa9Q.s:3140   .text.HAL_RCCEx_CRSGetSynchronizationInfo:00000000 HAL_RCCEx_CRSGetSynchronizationInfo
C:\Users\user\AppData\Local\Temp\ccsJwa9Q.s:3201   .text.HAL_RCCEx_CRSGetSynchronizationInfo:00000044 $d
C:\Users\user\AppData\Local\Temp\ccsJwa9Q.s:3206   .text.HAL_RCCEx_CRSWaitSynchronization:00000000 $t
C:\Users\user\AppData\Local\Temp\ccsJwa9Q.s:3213   .text.HAL_RCCEx_CRSWaitSynchronization:00000000 HAL_RCCEx_CRSWaitSynchronization
C:\Users\user\AppData\Local\Temp\ccsJwa9Q.s:3367   .text.HAL_RCCEx_CRSWaitSynchronization:000000e4 $d
C:\Users\user\AppData\Local\Temp\ccsJwa9Q.s:3372   .text.HAL_RCCEx_CRS_IRQHandler:00000000 $t
C:\Users\user\AppData\Local\Temp\ccsJwa9Q.s:3379   .text.HAL_RCCEx_CRS_IRQHandler:00000000 HAL_RCCEx_CRS_IRQHandler
C:\Users\user\AppData\Local\Temp\ccsJwa9Q.s:3536   .text.HAL_RCCEx_CRS_SyncOkCallback:00000000 HAL_RCCEx_CRS_SyncOkCallback
C:\Users\user\AppData\Local\Temp\ccsJwa9Q.s:3572   .text.HAL_RCCEx_CRS_SyncWarnCallback:00000000 HAL_RCCEx_CRS_SyncWarnCallback
C:\Users\user\AppData\Local\Temp\ccsJwa9Q.s:3608   .text.HAL_RCCEx_CRS_ExpectedSyncCallback:00000000 HAL_RCCEx_CRS_ExpectedSyncCallback
C:\Users\user\AppData\Local\Temp\ccsJwa9Q.s:3644   .text.HAL_RCCEx_CRS_ErrorCallback:00000000 HAL_RCCEx_CRS_ErrorCallback
C:\Users\user\AppData\Local\Temp\ccsJwa9Q.s:3524   .text.HAL_RCCEx_CRS_IRQHandler:000000d8 $d
C:\Users\user\AppData\Local\Temp\ccsJwa9Q.s:3529   .text.HAL_RCCEx_CRS_SyncOkCallback:00000000 $t
C:\Users\user\AppData\Local\Temp\ccsJwa9Q.s:3565   .text.HAL_RCCEx_CRS_SyncWarnCallback:00000000 $t
C:\Users\user\AppData\Local\Temp\ccsJwa9Q.s:3601   .text.HAL_RCCEx_CRS_ExpectedSyncCallback:00000000 $t
C:\Users\user\AppData\Local\Temp\ccsJwa9Q.s:3637   .text.HAL_RCCEx_CRS_ErrorCallback:00000000 $t
C:\Users\user\AppData\Local\Temp\ccsJwa9Q.s:3680   .text.RCCEx_PLLSAI1_Config:00000000 $t
C:\Users\user\AppData\Local\Temp\ccsJwa9Q.s:3997   .text.RCCEx_PLLSAI1_Config:000001e0 $d

UNDEFINED SYMBOLS
HAL_GetTick
MSIRangeTable
HAL_RCC_GetPCLK2Freq
HAL_RCC_GetSysClockFreq
HAL_RCC_GetPCLK1Freq
HAL_GPIO_Init
HAL_PWR_EnableBkUpAccess
HAL_PWR_DisableBkUpAccess
