ARM GAS  C:\Users\user\AppData\Local\Temp\cc2XHdAe.s 			page 1


   1              		.cpu cortex-m4
   2              		.eabi_attribute 27, 1
   3              		.eabi_attribute 28, 1
   4              		.eabi_attribute 20, 1
   5              		.eabi_attribute 21, 1
   6              		.eabi_attribute 23, 3
   7              		.eabi_attribute 24, 1
   8              		.eabi_attribute 25, 1
   9              		.eabi_attribute 26, 1
  10              		.eabi_attribute 30, 6
  11              		.eabi_attribute 34, 1
  12              		.eabi_attribute 18, 4
  13              		.file	"stm32l4xx_hal_flash_ex.c"
  14              		.text
  15              	.Ltext0:
  16              		.cfi_sections	.debug_frame
  17              		.section	.text.HAL_FLASHEx_Erase,"ax",%progbits
  18              		.align	1
  19              		.global	HAL_FLASHEx_Erase
  20              		.syntax unified
  21              		.thumb
  22              		.thumb_func
  23              		.fpu fpv4-sp-d16
  25              	HAL_FLASHEx_Erase:
  26              	.LFB133:
  27              		.file 1 "E:/LiteOS/LiteOS_Lab/drivers/third_party/ST/STM32L4xx_HAL_Driver/Src/stm32l4xx_hal_flash_
   1:E:/LiteOS/LiteOS_Lab/drivers/third_party/ST/STM32L4xx_HAL_Driver/Src\stm32l4xx_hal_flash_ex.c **** /**
   2:E:/LiteOS/LiteOS_Lab/drivers/third_party/ST/STM32L4xx_HAL_Driver/Src\stm32l4xx_hal_flash_ex.c ****   ******************************************************************************
   3:E:/LiteOS/LiteOS_Lab/drivers/third_party/ST/STM32L4xx_HAL_Driver/Src\stm32l4xx_hal_flash_ex.c ****   * @file    stm32l4xx_hal_flash_ex.c
   4:E:/LiteOS/LiteOS_Lab/drivers/third_party/ST/STM32L4xx_HAL_Driver/Src\stm32l4xx_hal_flash_ex.c ****   * @author  MCD Application Team
   5:E:/LiteOS/LiteOS_Lab/drivers/third_party/ST/STM32L4xx_HAL_Driver/Src\stm32l4xx_hal_flash_ex.c ****   * @brief   Extended FLASH HAL module driver.
   6:E:/LiteOS/LiteOS_Lab/drivers/third_party/ST/STM32L4xx_HAL_Driver/Src\stm32l4xx_hal_flash_ex.c ****   *          This file provides firmware functions to manage the following 
   7:E:/LiteOS/LiteOS_Lab/drivers/third_party/ST/STM32L4xx_HAL_Driver/Src\stm32l4xx_hal_flash_ex.c ****   *          functionalities of the FLASH extended peripheral:
   8:E:/LiteOS/LiteOS_Lab/drivers/third_party/ST/STM32L4xx_HAL_Driver/Src\stm32l4xx_hal_flash_ex.c ****   *           + Extended programming operations functions
   9:E:/LiteOS/LiteOS_Lab/drivers/third_party/ST/STM32L4xx_HAL_Driver/Src\stm32l4xx_hal_flash_ex.c ****   *  
  10:E:/LiteOS/LiteOS_Lab/drivers/third_party/ST/STM32L4xx_HAL_Driver/Src\stm32l4xx_hal_flash_ex.c ****  @verbatim    
  11:E:/LiteOS/LiteOS_Lab/drivers/third_party/ST/STM32L4xx_HAL_Driver/Src\stm32l4xx_hal_flash_ex.c ****  ==============================================================================
  12:E:/LiteOS/LiteOS_Lab/drivers/third_party/ST/STM32L4xx_HAL_Driver/Src\stm32l4xx_hal_flash_ex.c ****                    ##### Flash Extended features #####
  13:E:/LiteOS/LiteOS_Lab/drivers/third_party/ST/STM32L4xx_HAL_Driver/Src\stm32l4xx_hal_flash_ex.c ****   ==============================================================================
  14:E:/LiteOS/LiteOS_Lab/drivers/third_party/ST/STM32L4xx_HAL_Driver/Src\stm32l4xx_hal_flash_ex.c ****            
  15:E:/LiteOS/LiteOS_Lab/drivers/third_party/ST/STM32L4xx_HAL_Driver/Src\stm32l4xx_hal_flash_ex.c ****   [..] Comparing to other previous devices, the FLASH interface for STM32L4xx 
  16:E:/LiteOS/LiteOS_Lab/drivers/third_party/ST/STM32L4xx_HAL_Driver/Src\stm32l4xx_hal_flash_ex.c ****        devices contains the following additional features 
  17:E:/LiteOS/LiteOS_Lab/drivers/third_party/ST/STM32L4xx_HAL_Driver/Src\stm32l4xx_hal_flash_ex.c ****        
  18:E:/LiteOS/LiteOS_Lab/drivers/third_party/ST/STM32L4xx_HAL_Driver/Src\stm32l4xx_hal_flash_ex.c ****        (+) Capacity up to 2 Mbyte with dual bank architecture supporting read-while-write
  19:E:/LiteOS/LiteOS_Lab/drivers/third_party/ST/STM32L4xx_HAL_Driver/Src\stm32l4xx_hal_flash_ex.c ****            capability (RWW)
  20:E:/LiteOS/LiteOS_Lab/drivers/third_party/ST/STM32L4xx_HAL_Driver/Src\stm32l4xx_hal_flash_ex.c ****        (+) Dual bank memory organization       
  21:E:/LiteOS/LiteOS_Lab/drivers/third_party/ST/STM32L4xx_HAL_Driver/Src\stm32l4xx_hal_flash_ex.c ****        (+) PCROP protection for all banks
  22:E:/LiteOS/LiteOS_Lab/drivers/third_party/ST/STM32L4xx_HAL_Driver/Src\stm32l4xx_hal_flash_ex.c ****    
  23:E:/LiteOS/LiteOS_Lab/drivers/third_party/ST/STM32L4xx_HAL_Driver/Src\stm32l4xx_hal_flash_ex.c ****                         ##### How to use this driver #####
  24:E:/LiteOS/LiteOS_Lab/drivers/third_party/ST/STM32L4xx_HAL_Driver/Src\stm32l4xx_hal_flash_ex.c ****  ==============================================================================
  25:E:/LiteOS/LiteOS_Lab/drivers/third_party/ST/STM32L4xx_HAL_Driver/Src\stm32l4xx_hal_flash_ex.c ****   [..] This driver provides functions to configure and program the FLASH memory 
  26:E:/LiteOS/LiteOS_Lab/drivers/third_party/ST/STM32L4xx_HAL_Driver/Src\stm32l4xx_hal_flash_ex.c ****        of all STM32L4xx devices. It includes
  27:E:/LiteOS/LiteOS_Lab/drivers/third_party/ST/STM32L4xx_HAL_Driver/Src\stm32l4xx_hal_flash_ex.c ****       (#) Flash Memory Erase functions: 
  28:E:/LiteOS/LiteOS_Lab/drivers/third_party/ST/STM32L4xx_HAL_Driver/Src\stm32l4xx_hal_flash_ex.c ****            (++) Lock and Unlock the FLASH interface using HAL_FLASH_Unlock() and 
  29:E:/LiteOS/LiteOS_Lab/drivers/third_party/ST/STM32L4xx_HAL_Driver/Src\stm32l4xx_hal_flash_ex.c ****                 HAL_FLASH_Lock() functions
  30:E:/LiteOS/LiteOS_Lab/drivers/third_party/ST/STM32L4xx_HAL_Driver/Src\stm32l4xx_hal_flash_ex.c ****            (++) Erase function: Erase page, erase all sectors
  31:E:/LiteOS/LiteOS_Lab/drivers/third_party/ST/STM32L4xx_HAL_Driver/Src\stm32l4xx_hal_flash_ex.c ****            (++) There are two modes of erase :
ARM GAS  C:\Users\user\AppData\Local\Temp\cc2XHdAe.s 			page 2


  32:E:/LiteOS/LiteOS_Lab/drivers/third_party/ST/STM32L4xx_HAL_Driver/Src\stm32l4xx_hal_flash_ex.c ****              (+++) Polling Mode using HAL_FLASHEx_Erase()
  33:E:/LiteOS/LiteOS_Lab/drivers/third_party/ST/STM32L4xx_HAL_Driver/Src\stm32l4xx_hal_flash_ex.c ****              (+++) Interrupt Mode using HAL_FLASHEx_Erase_IT()
  34:E:/LiteOS/LiteOS_Lab/drivers/third_party/ST/STM32L4xx_HAL_Driver/Src\stm32l4xx_hal_flash_ex.c ****                          
  35:E:/LiteOS/LiteOS_Lab/drivers/third_party/ST/STM32L4xx_HAL_Driver/Src\stm32l4xx_hal_flash_ex.c ****       (#) Option Bytes Programming function: Use HAL_FLASHEx_OBProgram() to :
  36:E:/LiteOS/LiteOS_Lab/drivers/third_party/ST/STM32L4xx_HAL_Driver/Src\stm32l4xx_hal_flash_ex.c ****         (++) Set/Reset the write protection
  37:E:/LiteOS/LiteOS_Lab/drivers/third_party/ST/STM32L4xx_HAL_Driver/Src\stm32l4xx_hal_flash_ex.c ****         (++) Set the Read protection Level
  38:E:/LiteOS/LiteOS_Lab/drivers/third_party/ST/STM32L4xx_HAL_Driver/Src\stm32l4xx_hal_flash_ex.c ****         (++) Program the user Option Bytes
  39:E:/LiteOS/LiteOS_Lab/drivers/third_party/ST/STM32L4xx_HAL_Driver/Src\stm32l4xx_hal_flash_ex.c ****         (++) Configure the PCROP protection
  40:E:/LiteOS/LiteOS_Lab/drivers/third_party/ST/STM32L4xx_HAL_Driver/Src\stm32l4xx_hal_flash_ex.c ****         
  41:E:/LiteOS/LiteOS_Lab/drivers/third_party/ST/STM32L4xx_HAL_Driver/Src\stm32l4xx_hal_flash_ex.c ****       (#) Get Option Bytes Configuration function: Use HAL_FLASHEx_OBGetConfig() to :
  42:E:/LiteOS/LiteOS_Lab/drivers/third_party/ST/STM32L4xx_HAL_Driver/Src\stm32l4xx_hal_flash_ex.c ****         (++) Get the value of a write protection area
  43:E:/LiteOS/LiteOS_Lab/drivers/third_party/ST/STM32L4xx_HAL_Driver/Src\stm32l4xx_hal_flash_ex.c ****         (++) Know if the read protection is activated
  44:E:/LiteOS/LiteOS_Lab/drivers/third_party/ST/STM32L4xx_HAL_Driver/Src\stm32l4xx_hal_flash_ex.c ****         (++) Get the value of the user Option Bytes
  45:E:/LiteOS/LiteOS_Lab/drivers/third_party/ST/STM32L4xx_HAL_Driver/Src\stm32l4xx_hal_flash_ex.c ****         (++) Get the value of a PCROP area
  46:E:/LiteOS/LiteOS_Lab/drivers/third_party/ST/STM32L4xx_HAL_Driver/Src\stm32l4xx_hal_flash_ex.c ****     
  47:E:/LiteOS/LiteOS_Lab/drivers/third_party/ST/STM32L4xx_HAL_Driver/Src\stm32l4xx_hal_flash_ex.c ****  @endverbatim                      
  48:E:/LiteOS/LiteOS_Lab/drivers/third_party/ST/STM32L4xx_HAL_Driver/Src\stm32l4xx_hal_flash_ex.c ****   ******************************************************************************
  49:E:/LiteOS/LiteOS_Lab/drivers/third_party/ST/STM32L4xx_HAL_Driver/Src\stm32l4xx_hal_flash_ex.c ****   * @attention
  50:E:/LiteOS/LiteOS_Lab/drivers/third_party/ST/STM32L4xx_HAL_Driver/Src\stm32l4xx_hal_flash_ex.c ****   *
  51:E:/LiteOS/LiteOS_Lab/drivers/third_party/ST/STM32L4xx_HAL_Driver/Src\stm32l4xx_hal_flash_ex.c ****   * <h2><center>&copy; COPYRIGHT(c) 2017 STMicroelectronics</center></h2>
  52:E:/LiteOS/LiteOS_Lab/drivers/third_party/ST/STM32L4xx_HAL_Driver/Src\stm32l4xx_hal_flash_ex.c ****   *
  53:E:/LiteOS/LiteOS_Lab/drivers/third_party/ST/STM32L4xx_HAL_Driver/Src\stm32l4xx_hal_flash_ex.c ****   * Redistribution and use in source and binary forms, with or without modification,
  54:E:/LiteOS/LiteOS_Lab/drivers/third_party/ST/STM32L4xx_HAL_Driver/Src\stm32l4xx_hal_flash_ex.c ****   * are permitted provided that the following conditions are met:
  55:E:/LiteOS/LiteOS_Lab/drivers/third_party/ST/STM32L4xx_HAL_Driver/Src\stm32l4xx_hal_flash_ex.c ****   *   1. Redistributions of source code must retain the above copyright notice,
  56:E:/LiteOS/LiteOS_Lab/drivers/third_party/ST/STM32L4xx_HAL_Driver/Src\stm32l4xx_hal_flash_ex.c ****   *      this list of conditions and the following disclaimer.
  57:E:/LiteOS/LiteOS_Lab/drivers/third_party/ST/STM32L4xx_HAL_Driver/Src\stm32l4xx_hal_flash_ex.c ****   *   2. Redistributions in binary form must reproduce the above copyright notice,
  58:E:/LiteOS/LiteOS_Lab/drivers/third_party/ST/STM32L4xx_HAL_Driver/Src\stm32l4xx_hal_flash_ex.c ****   *      this list of conditions and the following disclaimer in the documentation
  59:E:/LiteOS/LiteOS_Lab/drivers/third_party/ST/STM32L4xx_HAL_Driver/Src\stm32l4xx_hal_flash_ex.c ****   *      and/or other materials provided with the distribution.
  60:E:/LiteOS/LiteOS_Lab/drivers/third_party/ST/STM32L4xx_HAL_Driver/Src\stm32l4xx_hal_flash_ex.c ****   *   3. Neither the name of STMicroelectronics nor the names of its contributors
  61:E:/LiteOS/LiteOS_Lab/drivers/third_party/ST/STM32L4xx_HAL_Driver/Src\stm32l4xx_hal_flash_ex.c ****   *      may be used to endorse or promote products derived from this software
  62:E:/LiteOS/LiteOS_Lab/drivers/third_party/ST/STM32L4xx_HAL_Driver/Src\stm32l4xx_hal_flash_ex.c ****   *      without specific prior written permission.
  63:E:/LiteOS/LiteOS_Lab/drivers/third_party/ST/STM32L4xx_HAL_Driver/Src\stm32l4xx_hal_flash_ex.c ****   *
  64:E:/LiteOS/LiteOS_Lab/drivers/third_party/ST/STM32L4xx_HAL_Driver/Src\stm32l4xx_hal_flash_ex.c ****   * THIS SOFTWARE IS PROVIDED BY THE COPYRIGHT HOLDERS AND CONTRIBUTORS "AS IS"
  65:E:/LiteOS/LiteOS_Lab/drivers/third_party/ST/STM32L4xx_HAL_Driver/Src\stm32l4xx_hal_flash_ex.c ****   * AND ANY EXPRESS OR IMPLIED WARRANTIES, INCLUDING, BUT NOT LIMITED TO, THE
  66:E:/LiteOS/LiteOS_Lab/drivers/third_party/ST/STM32L4xx_HAL_Driver/Src\stm32l4xx_hal_flash_ex.c ****   * IMPLIED WARRANTIES OF MERCHANTABILITY AND FITNESS FOR A PARTICULAR PURPOSE ARE
  67:E:/LiteOS/LiteOS_Lab/drivers/third_party/ST/STM32L4xx_HAL_Driver/Src\stm32l4xx_hal_flash_ex.c ****   * DISCLAIMED. IN NO EVENT SHALL THE COPYRIGHT HOLDER OR CONTRIBUTORS BE LIABLE
  68:E:/LiteOS/LiteOS_Lab/drivers/third_party/ST/STM32L4xx_HAL_Driver/Src\stm32l4xx_hal_flash_ex.c ****   * FOR ANY DIRECT, INDIRECT, INCIDENTAL, SPECIAL, EXEMPLARY, OR CONSEQUENTIAL
  69:E:/LiteOS/LiteOS_Lab/drivers/third_party/ST/STM32L4xx_HAL_Driver/Src\stm32l4xx_hal_flash_ex.c ****   * DAMAGES (INCLUDING, BUT NOT LIMITED TO, PROCUREMENT OF SUBSTITUTE GOODS OR
  70:E:/LiteOS/LiteOS_Lab/drivers/third_party/ST/STM32L4xx_HAL_Driver/Src\stm32l4xx_hal_flash_ex.c ****   * SERVICES; LOSS OF USE, DATA, OR PROFITS; OR BUSINESS INTERRUPTION) HOWEVER
  71:E:/LiteOS/LiteOS_Lab/drivers/third_party/ST/STM32L4xx_HAL_Driver/Src\stm32l4xx_hal_flash_ex.c ****   * CAUSED AND ON ANY THEORY OF LIABILITY, WHETHER IN CONTRACT, STRICT LIABILITY,
  72:E:/LiteOS/LiteOS_Lab/drivers/third_party/ST/STM32L4xx_HAL_Driver/Src\stm32l4xx_hal_flash_ex.c ****   * OR TORT (INCLUDING NEGLIGENCE OR OTHERWISE) ARISING IN ANY WAY OUT OF THE USE
  73:E:/LiteOS/LiteOS_Lab/drivers/third_party/ST/STM32L4xx_HAL_Driver/Src\stm32l4xx_hal_flash_ex.c ****   * OF THIS SOFTWARE, EVEN IF ADVISED OF THE POSSIBILITY OF SUCH DAMAGE.
  74:E:/LiteOS/LiteOS_Lab/drivers/third_party/ST/STM32L4xx_HAL_Driver/Src\stm32l4xx_hal_flash_ex.c ****   *
  75:E:/LiteOS/LiteOS_Lab/drivers/third_party/ST/STM32L4xx_HAL_Driver/Src\stm32l4xx_hal_flash_ex.c ****   ******************************************************************************
  76:E:/LiteOS/LiteOS_Lab/drivers/third_party/ST/STM32L4xx_HAL_Driver/Src\stm32l4xx_hal_flash_ex.c ****   */
  77:E:/LiteOS/LiteOS_Lab/drivers/third_party/ST/STM32L4xx_HAL_Driver/Src\stm32l4xx_hal_flash_ex.c **** 
  78:E:/LiteOS/LiteOS_Lab/drivers/third_party/ST/STM32L4xx_HAL_Driver/Src\stm32l4xx_hal_flash_ex.c **** /* Includes ------------------------------------------------------------------*/
  79:E:/LiteOS/LiteOS_Lab/drivers/third_party/ST/STM32L4xx_HAL_Driver/Src\stm32l4xx_hal_flash_ex.c **** #include "stm32l4xx_hal.h"
  80:E:/LiteOS/LiteOS_Lab/drivers/third_party/ST/STM32L4xx_HAL_Driver/Src\stm32l4xx_hal_flash_ex.c **** 
  81:E:/LiteOS/LiteOS_Lab/drivers/third_party/ST/STM32L4xx_HAL_Driver/Src\stm32l4xx_hal_flash_ex.c **** /** @addtogroup STM32L4xx_HAL_Driver
  82:E:/LiteOS/LiteOS_Lab/drivers/third_party/ST/STM32L4xx_HAL_Driver/Src\stm32l4xx_hal_flash_ex.c ****   * @{
  83:E:/LiteOS/LiteOS_Lab/drivers/third_party/ST/STM32L4xx_HAL_Driver/Src\stm32l4xx_hal_flash_ex.c ****   */
  84:E:/LiteOS/LiteOS_Lab/drivers/third_party/ST/STM32L4xx_HAL_Driver/Src\stm32l4xx_hal_flash_ex.c **** 
  85:E:/LiteOS/LiteOS_Lab/drivers/third_party/ST/STM32L4xx_HAL_Driver/Src\stm32l4xx_hal_flash_ex.c **** /** @defgroup FLASHEx FLASHEx
  86:E:/LiteOS/LiteOS_Lab/drivers/third_party/ST/STM32L4xx_HAL_Driver/Src\stm32l4xx_hal_flash_ex.c ****   * @brief FLASH Extended HAL module driver
  87:E:/LiteOS/LiteOS_Lab/drivers/third_party/ST/STM32L4xx_HAL_Driver/Src\stm32l4xx_hal_flash_ex.c ****   * @{
  88:E:/LiteOS/LiteOS_Lab/drivers/third_party/ST/STM32L4xx_HAL_Driver/Src\stm32l4xx_hal_flash_ex.c ****   */
ARM GAS  C:\Users\user\AppData\Local\Temp\cc2XHdAe.s 			page 3


  89:E:/LiteOS/LiteOS_Lab/drivers/third_party/ST/STM32L4xx_HAL_Driver/Src\stm32l4xx_hal_flash_ex.c **** 
  90:E:/LiteOS/LiteOS_Lab/drivers/third_party/ST/STM32L4xx_HAL_Driver/Src\stm32l4xx_hal_flash_ex.c **** #ifdef HAL_FLASH_MODULE_ENABLED
  91:E:/LiteOS/LiteOS_Lab/drivers/third_party/ST/STM32L4xx_HAL_Driver/Src\stm32l4xx_hal_flash_ex.c **** 
  92:E:/LiteOS/LiteOS_Lab/drivers/third_party/ST/STM32L4xx_HAL_Driver/Src\stm32l4xx_hal_flash_ex.c **** /* Private typedef -----------------------------------------------------------*/
  93:E:/LiteOS/LiteOS_Lab/drivers/third_party/ST/STM32L4xx_HAL_Driver/Src\stm32l4xx_hal_flash_ex.c **** /* Private define ------------------------------------------------------------*/ 
  94:E:/LiteOS/LiteOS_Lab/drivers/third_party/ST/STM32L4xx_HAL_Driver/Src\stm32l4xx_hal_flash_ex.c **** /* Private macro -------------------------------------------------------------*/
  95:E:/LiteOS/LiteOS_Lab/drivers/third_party/ST/STM32L4xx_HAL_Driver/Src\stm32l4xx_hal_flash_ex.c **** /* Private variables ---------------------------------------------------------*/
  96:E:/LiteOS/LiteOS_Lab/drivers/third_party/ST/STM32L4xx_HAL_Driver/Src\stm32l4xx_hal_flash_ex.c **** /** @defgroup FLASHEx_Private_Variables FLASHEx Private Variables
  97:E:/LiteOS/LiteOS_Lab/drivers/third_party/ST/STM32L4xx_HAL_Driver/Src\stm32l4xx_hal_flash_ex.c ****  * @{
  98:E:/LiteOS/LiteOS_Lab/drivers/third_party/ST/STM32L4xx_HAL_Driver/Src\stm32l4xx_hal_flash_ex.c ****  */
  99:E:/LiteOS/LiteOS_Lab/drivers/third_party/ST/STM32L4xx_HAL_Driver/Src\stm32l4xx_hal_flash_ex.c **** extern FLASH_ProcessTypeDef pFlash;
 100:E:/LiteOS/LiteOS_Lab/drivers/third_party/ST/STM32L4xx_HAL_Driver/Src\stm32l4xx_hal_flash_ex.c **** /**
 101:E:/LiteOS/LiteOS_Lab/drivers/third_party/ST/STM32L4xx_HAL_Driver/Src\stm32l4xx_hal_flash_ex.c ****   * @}
 102:E:/LiteOS/LiteOS_Lab/drivers/third_party/ST/STM32L4xx_HAL_Driver/Src\stm32l4xx_hal_flash_ex.c ****   */
 103:E:/LiteOS/LiteOS_Lab/drivers/third_party/ST/STM32L4xx_HAL_Driver/Src\stm32l4xx_hal_flash_ex.c **** 
 104:E:/LiteOS/LiteOS_Lab/drivers/third_party/ST/STM32L4xx_HAL_Driver/Src\stm32l4xx_hal_flash_ex.c **** /* Private function prototypes -----------------------------------------------*/
 105:E:/LiteOS/LiteOS_Lab/drivers/third_party/ST/STM32L4xx_HAL_Driver/Src\stm32l4xx_hal_flash_ex.c **** /** @defgroup FLASHEx_Private_Functions FLASHEx Private Functions
 106:E:/LiteOS/LiteOS_Lab/drivers/third_party/ST/STM32L4xx_HAL_Driver/Src\stm32l4xx_hal_flash_ex.c ****  * @{
 107:E:/LiteOS/LiteOS_Lab/drivers/third_party/ST/STM32L4xx_HAL_Driver/Src\stm32l4xx_hal_flash_ex.c ****  */
 108:E:/LiteOS/LiteOS_Lab/drivers/third_party/ST/STM32L4xx_HAL_Driver/Src\stm32l4xx_hal_flash_ex.c **** extern HAL_StatusTypeDef FLASH_WaitForLastOperation(uint32_t Timeout);
 109:E:/LiteOS/LiteOS_Lab/drivers/third_party/ST/STM32L4xx_HAL_Driver/Src\stm32l4xx_hal_flash_ex.c **** void                     FLASH_PageErase(uint32_t Page, uint32_t Banks);
 110:E:/LiteOS/LiteOS_Lab/drivers/third_party/ST/STM32L4xx_HAL_Driver/Src\stm32l4xx_hal_flash_ex.c **** static void              FLASH_MassErase(uint32_t Banks);
 111:E:/LiteOS/LiteOS_Lab/drivers/third_party/ST/STM32L4xx_HAL_Driver/Src\stm32l4xx_hal_flash_ex.c **** void                     FLASH_FlushCaches(void);
 112:E:/LiteOS/LiteOS_Lab/drivers/third_party/ST/STM32L4xx_HAL_Driver/Src\stm32l4xx_hal_flash_ex.c **** static HAL_StatusTypeDef FLASH_OB_WRPConfig(uint32_t WRPArea, uint32_t WRPStartOffset, uint32_t WRD
 113:E:/LiteOS/LiteOS_Lab/drivers/third_party/ST/STM32L4xx_HAL_Driver/Src\stm32l4xx_hal_flash_ex.c **** static HAL_StatusTypeDef FLASH_OB_RDPConfig(uint32_t RDPLevel);
 114:E:/LiteOS/LiteOS_Lab/drivers/third_party/ST/STM32L4xx_HAL_Driver/Src\stm32l4xx_hal_flash_ex.c **** static HAL_StatusTypeDef FLASH_OB_UserConfig(uint32_t UserType, uint32_t UserConfig);
 115:E:/LiteOS/LiteOS_Lab/drivers/third_party/ST/STM32L4xx_HAL_Driver/Src\stm32l4xx_hal_flash_ex.c **** static HAL_StatusTypeDef FLASH_OB_PCROPConfig(uint32_t PCROPConfig, uint32_t PCROPStartAddr, uint32
 116:E:/LiteOS/LiteOS_Lab/drivers/third_party/ST/STM32L4xx_HAL_Driver/Src\stm32l4xx_hal_flash_ex.c **** static void              FLASH_OB_GetWRP(uint32_t WRPArea, uint32_t * WRPStartOffset, uint32_t * WR
 117:E:/LiteOS/LiteOS_Lab/drivers/third_party/ST/STM32L4xx_HAL_Driver/Src\stm32l4xx_hal_flash_ex.c **** static uint32_t          FLASH_OB_GetRDP(void);
 118:E:/LiteOS/LiteOS_Lab/drivers/third_party/ST/STM32L4xx_HAL_Driver/Src\stm32l4xx_hal_flash_ex.c **** static uint32_t          FLASH_OB_GetUser(void);
 119:E:/LiteOS/LiteOS_Lab/drivers/third_party/ST/STM32L4xx_HAL_Driver/Src\stm32l4xx_hal_flash_ex.c **** static void              FLASH_OB_GetPCROP(uint32_t * PCROPConfig, uint32_t * PCROPStartAddr, uint3
 120:E:/LiteOS/LiteOS_Lab/drivers/third_party/ST/STM32L4xx_HAL_Driver/Src\stm32l4xx_hal_flash_ex.c **** /**
 121:E:/LiteOS/LiteOS_Lab/drivers/third_party/ST/STM32L4xx_HAL_Driver/Src\stm32l4xx_hal_flash_ex.c ****   * @}
 122:E:/LiteOS/LiteOS_Lab/drivers/third_party/ST/STM32L4xx_HAL_Driver/Src\stm32l4xx_hal_flash_ex.c ****   */
 123:E:/LiteOS/LiteOS_Lab/drivers/third_party/ST/STM32L4xx_HAL_Driver/Src\stm32l4xx_hal_flash_ex.c **** 
 124:E:/LiteOS/LiteOS_Lab/drivers/third_party/ST/STM32L4xx_HAL_Driver/Src\stm32l4xx_hal_flash_ex.c **** /* Exported functions -------------------------------------------------------*/
 125:E:/LiteOS/LiteOS_Lab/drivers/third_party/ST/STM32L4xx_HAL_Driver/Src\stm32l4xx_hal_flash_ex.c **** /** @defgroup FLASHEx_Exported_Functions FLASHEx Exported Functions
 126:E:/LiteOS/LiteOS_Lab/drivers/third_party/ST/STM32L4xx_HAL_Driver/Src\stm32l4xx_hal_flash_ex.c ****   * @{
 127:E:/LiteOS/LiteOS_Lab/drivers/third_party/ST/STM32L4xx_HAL_Driver/Src\stm32l4xx_hal_flash_ex.c ****   */ 
 128:E:/LiteOS/LiteOS_Lab/drivers/third_party/ST/STM32L4xx_HAL_Driver/Src\stm32l4xx_hal_flash_ex.c **** 
 129:E:/LiteOS/LiteOS_Lab/drivers/third_party/ST/STM32L4xx_HAL_Driver/Src\stm32l4xx_hal_flash_ex.c **** /** @defgroup FLASHEx_Exported_Functions_Group1 Extended IO operation functions
 130:E:/LiteOS/LiteOS_Lab/drivers/third_party/ST/STM32L4xx_HAL_Driver/Src\stm32l4xx_hal_flash_ex.c ****  *  @brief   Extended IO operation functions 
 131:E:/LiteOS/LiteOS_Lab/drivers/third_party/ST/STM32L4xx_HAL_Driver/Src\stm32l4xx_hal_flash_ex.c ****  *
 132:E:/LiteOS/LiteOS_Lab/drivers/third_party/ST/STM32L4xx_HAL_Driver/Src\stm32l4xx_hal_flash_ex.c **** @verbatim   
 133:E:/LiteOS/LiteOS_Lab/drivers/third_party/ST/STM32L4xx_HAL_Driver/Src\stm32l4xx_hal_flash_ex.c ****  ===============================================================================
 134:E:/LiteOS/LiteOS_Lab/drivers/third_party/ST/STM32L4xx_HAL_Driver/Src\stm32l4xx_hal_flash_ex.c ****                 ##### Extended programming operation functions #####
 135:E:/LiteOS/LiteOS_Lab/drivers/third_party/ST/STM32L4xx_HAL_Driver/Src\stm32l4xx_hal_flash_ex.c ****  ===============================================================================
 136:E:/LiteOS/LiteOS_Lab/drivers/third_party/ST/STM32L4xx_HAL_Driver/Src\stm32l4xx_hal_flash_ex.c ****     [..]
 137:E:/LiteOS/LiteOS_Lab/drivers/third_party/ST/STM32L4xx_HAL_Driver/Src\stm32l4xx_hal_flash_ex.c ****     This subsection provides a set of functions allowing to manage the Extended FLASH 
 138:E:/LiteOS/LiteOS_Lab/drivers/third_party/ST/STM32L4xx_HAL_Driver/Src\stm32l4xx_hal_flash_ex.c ****     programming operations Operations.
 139:E:/LiteOS/LiteOS_Lab/drivers/third_party/ST/STM32L4xx_HAL_Driver/Src\stm32l4xx_hal_flash_ex.c ****  
 140:E:/LiteOS/LiteOS_Lab/drivers/third_party/ST/STM32L4xx_HAL_Driver/Src\stm32l4xx_hal_flash_ex.c **** @endverbatim
 141:E:/LiteOS/LiteOS_Lab/drivers/third_party/ST/STM32L4xx_HAL_Driver/Src\stm32l4xx_hal_flash_ex.c ****   * @{
 142:E:/LiteOS/LiteOS_Lab/drivers/third_party/ST/STM32L4xx_HAL_Driver/Src\stm32l4xx_hal_flash_ex.c ****   */
 143:E:/LiteOS/LiteOS_Lab/drivers/third_party/ST/STM32L4xx_HAL_Driver/Src\stm32l4xx_hal_flash_ex.c **** /**
 144:E:/LiteOS/LiteOS_Lab/drivers/third_party/ST/STM32L4xx_HAL_Driver/Src\stm32l4xx_hal_flash_ex.c ****   * @brief  Perform a mass erase or erase the specified FLASH memory pages.
 145:E:/LiteOS/LiteOS_Lab/drivers/third_party/ST/STM32L4xx_HAL_Driver/Src\stm32l4xx_hal_flash_ex.c ****   * @param[in]  pEraseInit: pointer to an FLASH_EraseInitTypeDef structure that
ARM GAS  C:\Users\user\AppData\Local\Temp\cc2XHdAe.s 			page 4


 146:E:/LiteOS/LiteOS_Lab/drivers/third_party/ST/STM32L4xx_HAL_Driver/Src\stm32l4xx_hal_flash_ex.c ****   *         contains the configuration information for the erasing.
 147:E:/LiteOS/LiteOS_Lab/drivers/third_party/ST/STM32L4xx_HAL_Driver/Src\stm32l4xx_hal_flash_ex.c ****   * 
 148:E:/LiteOS/LiteOS_Lab/drivers/third_party/ST/STM32L4xx_HAL_Driver/Src\stm32l4xx_hal_flash_ex.c ****   * @param[out]  PageError  : pointer to variable that contains the configuration 
 149:E:/LiteOS/LiteOS_Lab/drivers/third_party/ST/STM32L4xx_HAL_Driver/Src\stm32l4xx_hal_flash_ex.c ****   *         information on faulty page in case of error (0xFFFFFFFF means that all 
 150:E:/LiteOS/LiteOS_Lab/drivers/third_party/ST/STM32L4xx_HAL_Driver/Src\stm32l4xx_hal_flash_ex.c ****   *         the pages have been correctly erased)
 151:E:/LiteOS/LiteOS_Lab/drivers/third_party/ST/STM32L4xx_HAL_Driver/Src\stm32l4xx_hal_flash_ex.c ****   * 
 152:E:/LiteOS/LiteOS_Lab/drivers/third_party/ST/STM32L4xx_HAL_Driver/Src\stm32l4xx_hal_flash_ex.c ****   * @retval HAL Status
 153:E:/LiteOS/LiteOS_Lab/drivers/third_party/ST/STM32L4xx_HAL_Driver/Src\stm32l4xx_hal_flash_ex.c ****   */
 154:E:/LiteOS/LiteOS_Lab/drivers/third_party/ST/STM32L4xx_HAL_Driver/Src\stm32l4xx_hal_flash_ex.c **** HAL_StatusTypeDef HAL_FLASHEx_Erase(FLASH_EraseInitTypeDef *pEraseInit, uint32_t *PageError)
 155:E:/LiteOS/LiteOS_Lab/drivers/third_party/ST/STM32L4xx_HAL_Driver/Src\stm32l4xx_hal_flash_ex.c **** {
  28              		.loc 1 155 0
  29              		.cfi_startproc
  30              		@ args = 0, pretend = 0, frame = 16
  31              		@ frame_needed = 1, uses_anonymous_args = 0
  32 0000 80B5     		push	{r7, lr}
  33              	.LCFI0:
  34              		.cfi_def_cfa_offset 8
  35              		.cfi_offset 7, -8
  36              		.cfi_offset 14, -4
  37 0002 84B0     		sub	sp, sp, #16
  38              	.LCFI1:
  39              		.cfi_def_cfa_offset 24
  40 0004 00AF     		add	r7, sp, #0
  41              	.LCFI2:
  42              		.cfi_def_cfa_register 7
  43 0006 7860     		str	r0, [r7, #4]
  44 0008 3960     		str	r1, [r7]
 156:E:/LiteOS/LiteOS_Lab/drivers/third_party/ST/STM32L4xx_HAL_Driver/Src\stm32l4xx_hal_flash_ex.c ****   HAL_StatusTypeDef status = HAL_ERROR;
  45              		.loc 1 156 0
  46 000a 0123     		movs	r3, #1
  47 000c FB73     		strb	r3, [r7, #15]
 157:E:/LiteOS/LiteOS_Lab/drivers/third_party/ST/STM32L4xx_HAL_Driver/Src\stm32l4xx_hal_flash_ex.c ****   uint32_t page_index = 0;
  48              		.loc 1 157 0
  49 000e 0023     		movs	r3, #0
  50 0010 BB60     		str	r3, [r7, #8]
 158:E:/LiteOS/LiteOS_Lab/drivers/third_party/ST/STM32L4xx_HAL_Driver/Src\stm32l4xx_hal_flash_ex.c **** 
 159:E:/LiteOS/LiteOS_Lab/drivers/third_party/ST/STM32L4xx_HAL_Driver/Src\stm32l4xx_hal_flash_ex.c ****   /* Process Locked */
 160:E:/LiteOS/LiteOS_Lab/drivers/third_party/ST/STM32L4xx_HAL_Driver/Src\stm32l4xx_hal_flash_ex.c ****   __HAL_LOCK(&pFlash);
  51              		.loc 1 160 0
  52 0012 4B4B     		ldr	r3, .L15
  53 0014 1B78     		ldrb	r3, [r3]	@ zero_extendqisi2
  54 0016 012B     		cmp	r3, #1
  55 0018 01D1     		bne	.L2
  56              		.loc 1 160 0 is_stmt 0 discriminator 1
  57 001a 0223     		movs	r3, #2
  58 001c 8BE0     		b	.L3
  59              	.L2:
  60              		.loc 1 160 0 discriminator 2
  61 001e 484B     		ldr	r3, .L15
  62 0020 0122     		movs	r2, #1
  63 0022 1A70     		strb	r2, [r3]
 161:E:/LiteOS/LiteOS_Lab/drivers/third_party/ST/STM32L4xx_HAL_Driver/Src\stm32l4xx_hal_flash_ex.c **** 
 162:E:/LiteOS/LiteOS_Lab/drivers/third_party/ST/STM32L4xx_HAL_Driver/Src\stm32l4xx_hal_flash_ex.c ****   /* Check the parameters */
 163:E:/LiteOS/LiteOS_Lab/drivers/third_party/ST/STM32L4xx_HAL_Driver/Src\stm32l4xx_hal_flash_ex.c ****   assert_param(IS_FLASH_TYPEERASE(pEraseInit->TypeErase));
 164:E:/LiteOS/LiteOS_Lab/drivers/third_party/ST/STM32L4xx_HAL_Driver/Src\stm32l4xx_hal_flash_ex.c **** 
 165:E:/LiteOS/LiteOS_Lab/drivers/third_party/ST/STM32L4xx_HAL_Driver/Src\stm32l4xx_hal_flash_ex.c ****   /* Wait for last operation to be completed */
 166:E:/LiteOS/LiteOS_Lab/drivers/third_party/ST/STM32L4xx_HAL_Driver/Src\stm32l4xx_hal_flash_ex.c ****   status = FLASH_WaitForLastOperation((uint32_t)FLASH_TIMEOUT_VALUE);
ARM GAS  C:\Users\user\AppData\Local\Temp\cc2XHdAe.s 			page 5


  64              		.loc 1 166 0 is_stmt 1 discriminator 2
  65 0024 4CF25030 		movw	r0, #50000
  66 0028 FFF7FEFF 		bl	FLASH_WaitForLastOperation
  67 002c 0346     		mov	r3, r0
  68 002e FB73     		strb	r3, [r7, #15]
 167:E:/LiteOS/LiteOS_Lab/drivers/third_party/ST/STM32L4xx_HAL_Driver/Src\stm32l4xx_hal_flash_ex.c **** 
 168:E:/LiteOS/LiteOS_Lab/drivers/third_party/ST/STM32L4xx_HAL_Driver/Src\stm32l4xx_hal_flash_ex.c ****   if (status == HAL_OK)
  69              		.loc 1 168 0 discriminator 2
  70 0030 FB7B     		ldrb	r3, [r7, #15]	@ zero_extendqisi2
  71 0032 002B     		cmp	r3, #0
  72 0034 7BD1     		bne	.L4
 169:E:/LiteOS/LiteOS_Lab/drivers/third_party/ST/STM32L4xx_HAL_Driver/Src\stm32l4xx_hal_flash_ex.c ****   {
 170:E:/LiteOS/LiteOS_Lab/drivers/third_party/ST/STM32L4xx_HAL_Driver/Src\stm32l4xx_hal_flash_ex.c ****     pFlash.ErrorCode = HAL_FLASH_ERROR_NONE;
  73              		.loc 1 170 0
  74 0036 424B     		ldr	r3, .L15
  75 0038 0022     		movs	r2, #0
  76 003a 5A60     		str	r2, [r3, #4]
 171:E:/LiteOS/LiteOS_Lab/drivers/third_party/ST/STM32L4xx_HAL_Driver/Src\stm32l4xx_hal_flash_ex.c **** 
 172:E:/LiteOS/LiteOS_Lab/drivers/third_party/ST/STM32L4xx_HAL_Driver/Src\stm32l4xx_hal_flash_ex.c ****     /* Deactivate the cache if they are activated to avoid data misbehavior */
 173:E:/LiteOS/LiteOS_Lab/drivers/third_party/ST/STM32L4xx_HAL_Driver/Src\stm32l4xx_hal_flash_ex.c ****     if(READ_BIT(FLASH->ACR, FLASH_ACR_ICEN) != RESET)
  77              		.loc 1 173 0
  78 003c 414B     		ldr	r3, .L15+4
  79 003e 1B68     		ldr	r3, [r3]
  80 0040 03F40073 		and	r3, r3, #512
  81 0044 002B     		cmp	r3, #0
  82 0046 19D0     		beq	.L5
 174:E:/LiteOS/LiteOS_Lab/drivers/third_party/ST/STM32L4xx_HAL_Driver/Src\stm32l4xx_hal_flash_ex.c ****     {
 175:E:/LiteOS/LiteOS_Lab/drivers/third_party/ST/STM32L4xx_HAL_Driver/Src\stm32l4xx_hal_flash_ex.c ****       /* Disable instruction cache  */
 176:E:/LiteOS/LiteOS_Lab/drivers/third_party/ST/STM32L4xx_HAL_Driver/Src\stm32l4xx_hal_flash_ex.c ****       __HAL_FLASH_INSTRUCTION_CACHE_DISABLE();
  83              		.loc 1 176 0
  84 0048 3E4B     		ldr	r3, .L15+4
  85 004a 1B68     		ldr	r3, [r3]
  86 004c 3D4A     		ldr	r2, .L15+4
  87 004e 23F40073 		bic	r3, r3, #512
  88 0052 1360     		str	r3, [r2]
 177:E:/LiteOS/LiteOS_Lab/drivers/third_party/ST/STM32L4xx_HAL_Driver/Src\stm32l4xx_hal_flash_ex.c **** 
 178:E:/LiteOS/LiteOS_Lab/drivers/third_party/ST/STM32L4xx_HAL_Driver/Src\stm32l4xx_hal_flash_ex.c ****       if(READ_BIT(FLASH->ACR, FLASH_ACR_DCEN) != RESET)
  89              		.loc 1 178 0
  90 0054 3B4B     		ldr	r3, .L15+4
  91 0056 1B68     		ldr	r3, [r3]
  92 0058 03F48063 		and	r3, r3, #1024
  93 005c 002B     		cmp	r3, #0
  94 005e 09D0     		beq	.L6
 179:E:/LiteOS/LiteOS_Lab/drivers/third_party/ST/STM32L4xx_HAL_Driver/Src\stm32l4xx_hal_flash_ex.c ****       {
 180:E:/LiteOS/LiteOS_Lab/drivers/third_party/ST/STM32L4xx_HAL_Driver/Src\stm32l4xx_hal_flash_ex.c ****         /* Disable data cache  */
 181:E:/LiteOS/LiteOS_Lab/drivers/third_party/ST/STM32L4xx_HAL_Driver/Src\stm32l4xx_hal_flash_ex.c ****         __HAL_FLASH_DATA_CACHE_DISABLE();
  95              		.loc 1 181 0
  96 0060 384B     		ldr	r3, .L15+4
  97 0062 1B68     		ldr	r3, [r3]
  98 0064 374A     		ldr	r2, .L15+4
  99 0066 23F48063 		bic	r3, r3, #1024
 100 006a 1360     		str	r3, [r2]
 182:E:/LiteOS/LiteOS_Lab/drivers/third_party/ST/STM32L4xx_HAL_Driver/Src\stm32l4xx_hal_flash_ex.c ****         pFlash.CacheToReactivate = FLASH_CACHE_ICACHE_DCACHE_ENABLED;
 101              		.loc 1 182 0
 102 006c 344B     		ldr	r3, .L15
 103 006e 0322     		movs	r2, #3
 104 0070 1A77     		strb	r2, [r3, #28]
ARM GAS  C:\Users\user\AppData\Local\Temp\cc2XHdAe.s 			page 6


 105 0072 16E0     		b	.L8
 106              	.L6:
 183:E:/LiteOS/LiteOS_Lab/drivers/third_party/ST/STM32L4xx_HAL_Driver/Src\stm32l4xx_hal_flash_ex.c ****       }
 184:E:/LiteOS/LiteOS_Lab/drivers/third_party/ST/STM32L4xx_HAL_Driver/Src\stm32l4xx_hal_flash_ex.c ****       else
 185:E:/LiteOS/LiteOS_Lab/drivers/third_party/ST/STM32L4xx_HAL_Driver/Src\stm32l4xx_hal_flash_ex.c ****       {
 186:E:/LiteOS/LiteOS_Lab/drivers/third_party/ST/STM32L4xx_HAL_Driver/Src\stm32l4xx_hal_flash_ex.c ****         pFlash.CacheToReactivate = FLASH_CACHE_ICACHE_ENABLED;
 107              		.loc 1 186 0
 108 0074 324B     		ldr	r3, .L15
 109 0076 0122     		movs	r2, #1
 110 0078 1A77     		strb	r2, [r3, #28]
 111 007a 12E0     		b	.L8
 112              	.L5:
 187:E:/LiteOS/LiteOS_Lab/drivers/third_party/ST/STM32L4xx_HAL_Driver/Src\stm32l4xx_hal_flash_ex.c ****       }
 188:E:/LiteOS/LiteOS_Lab/drivers/third_party/ST/STM32L4xx_HAL_Driver/Src\stm32l4xx_hal_flash_ex.c ****     }
 189:E:/LiteOS/LiteOS_Lab/drivers/third_party/ST/STM32L4xx_HAL_Driver/Src\stm32l4xx_hal_flash_ex.c ****     else if(READ_BIT(FLASH->ACR, FLASH_ACR_DCEN) != RESET)
 113              		.loc 1 189 0
 114 007c 314B     		ldr	r3, .L15+4
 115 007e 1B68     		ldr	r3, [r3]
 116 0080 03F48063 		and	r3, r3, #1024
 117 0084 002B     		cmp	r3, #0
 118 0086 09D0     		beq	.L9
 190:E:/LiteOS/LiteOS_Lab/drivers/third_party/ST/STM32L4xx_HAL_Driver/Src\stm32l4xx_hal_flash_ex.c ****     {
 191:E:/LiteOS/LiteOS_Lab/drivers/third_party/ST/STM32L4xx_HAL_Driver/Src\stm32l4xx_hal_flash_ex.c ****       /* Disable data cache  */
 192:E:/LiteOS/LiteOS_Lab/drivers/third_party/ST/STM32L4xx_HAL_Driver/Src\stm32l4xx_hal_flash_ex.c ****       __HAL_FLASH_DATA_CACHE_DISABLE();
 119              		.loc 1 192 0
 120 0088 2E4B     		ldr	r3, .L15+4
 121 008a 1B68     		ldr	r3, [r3]
 122 008c 2D4A     		ldr	r2, .L15+4
 123 008e 23F48063 		bic	r3, r3, #1024
 124 0092 1360     		str	r3, [r2]
 193:E:/LiteOS/LiteOS_Lab/drivers/third_party/ST/STM32L4xx_HAL_Driver/Src\stm32l4xx_hal_flash_ex.c ****       pFlash.CacheToReactivate = FLASH_CACHE_DCACHE_ENABLED;
 125              		.loc 1 193 0
 126 0094 2A4B     		ldr	r3, .L15
 127 0096 0222     		movs	r2, #2
 128 0098 1A77     		strb	r2, [r3, #28]
 129 009a 02E0     		b	.L8
 130              	.L9:
 194:E:/LiteOS/LiteOS_Lab/drivers/third_party/ST/STM32L4xx_HAL_Driver/Src\stm32l4xx_hal_flash_ex.c ****     }
 195:E:/LiteOS/LiteOS_Lab/drivers/third_party/ST/STM32L4xx_HAL_Driver/Src\stm32l4xx_hal_flash_ex.c ****     else
 196:E:/LiteOS/LiteOS_Lab/drivers/third_party/ST/STM32L4xx_HAL_Driver/Src\stm32l4xx_hal_flash_ex.c ****     {
 197:E:/LiteOS/LiteOS_Lab/drivers/third_party/ST/STM32L4xx_HAL_Driver/Src\stm32l4xx_hal_flash_ex.c ****       pFlash.CacheToReactivate = FLASH_CACHE_DISABLED;
 131              		.loc 1 197 0
 132 009c 284B     		ldr	r3, .L15
 133 009e 0022     		movs	r2, #0
 134 00a0 1A77     		strb	r2, [r3, #28]
 135              	.L8:
 198:E:/LiteOS/LiteOS_Lab/drivers/third_party/ST/STM32L4xx_HAL_Driver/Src\stm32l4xx_hal_flash_ex.c ****     }
 199:E:/LiteOS/LiteOS_Lab/drivers/third_party/ST/STM32L4xx_HAL_Driver/Src\stm32l4xx_hal_flash_ex.c **** 
 200:E:/LiteOS/LiteOS_Lab/drivers/third_party/ST/STM32L4xx_HAL_Driver/Src\stm32l4xx_hal_flash_ex.c ****     if (pEraseInit->TypeErase == FLASH_TYPEERASE_MASSERASE)
 136              		.loc 1 200 0
 137 00a2 7B68     		ldr	r3, [r7, #4]
 138 00a4 1B68     		ldr	r3, [r3]
 139 00a6 012B     		cmp	r3, #1
 140 00a8 11D1     		bne	.L10
 201:E:/LiteOS/LiteOS_Lab/drivers/third_party/ST/STM32L4xx_HAL_Driver/Src\stm32l4xx_hal_flash_ex.c ****     {
 202:E:/LiteOS/LiteOS_Lab/drivers/third_party/ST/STM32L4xx_HAL_Driver/Src\stm32l4xx_hal_flash_ex.c ****       /* Mass erase to be done */
 203:E:/LiteOS/LiteOS_Lab/drivers/third_party/ST/STM32L4xx_HAL_Driver/Src\stm32l4xx_hal_flash_ex.c ****       FLASH_MassErase(pEraseInit->Banks);
ARM GAS  C:\Users\user\AppData\Local\Temp\cc2XHdAe.s 			page 7


 141              		.loc 1 203 0
 142 00aa 7B68     		ldr	r3, [r7, #4]
 143 00ac 5B68     		ldr	r3, [r3, #4]
 144 00ae 1846     		mov	r0, r3
 145 00b0 FFF7FEFF 		bl	FLASH_MassErase
 204:E:/LiteOS/LiteOS_Lab/drivers/third_party/ST/STM32L4xx_HAL_Driver/Src\stm32l4xx_hal_flash_ex.c **** 
 205:E:/LiteOS/LiteOS_Lab/drivers/third_party/ST/STM32L4xx_HAL_Driver/Src\stm32l4xx_hal_flash_ex.c ****       /* Wait for last operation to be completed */
 206:E:/LiteOS/LiteOS_Lab/drivers/third_party/ST/STM32L4xx_HAL_Driver/Src\stm32l4xx_hal_flash_ex.c ****       status = FLASH_WaitForLastOperation((uint32_t)FLASH_TIMEOUT_VALUE);
 146              		.loc 1 206 0
 147 00b4 4CF25030 		movw	r0, #50000
 148 00b8 FFF7FEFF 		bl	FLASH_WaitForLastOperation
 149 00bc 0346     		mov	r3, r0
 150 00be FB73     		strb	r3, [r7, #15]
 207:E:/LiteOS/LiteOS_Lab/drivers/third_party/ST/STM32L4xx_HAL_Driver/Src\stm32l4xx_hal_flash_ex.c **** 
 208:E:/LiteOS/LiteOS_Lab/drivers/third_party/ST/STM32L4xx_HAL_Driver/Src\stm32l4xx_hal_flash_ex.c **** #if defined (STM32L471xx) || defined (STM32L475xx) || defined (STM32L476xx) || defined (STM32L485xx
 209:E:/LiteOS/LiteOS_Lab/drivers/third_party/ST/STM32L4xx_HAL_Driver/Src\stm32l4xx_hal_flash_ex.c ****     defined (STM32L496xx) || defined (STM32L4A6xx) || \
 210:E:/LiteOS/LiteOS_Lab/drivers/third_party/ST/STM32L4xx_HAL_Driver/Src\stm32l4xx_hal_flash_ex.c ****     defined (STM32L4R5xx) || defined (STM32L4R7xx) || defined (STM32L4R9xx) || defined (STM32L4S5xx
 211:E:/LiteOS/LiteOS_Lab/drivers/third_party/ST/STM32L4xx_HAL_Driver/Src\stm32l4xx_hal_flash_ex.c ****       /* If the erase operation is completed, disable the MER1 and MER2 Bits */
 212:E:/LiteOS/LiteOS_Lab/drivers/third_party/ST/STM32L4xx_HAL_Driver/Src\stm32l4xx_hal_flash_ex.c ****       CLEAR_BIT(FLASH->CR, (FLASH_CR_MER1 | FLASH_CR_MER2));
 213:E:/LiteOS/LiteOS_Lab/drivers/third_party/ST/STM32L4xx_HAL_Driver/Src\stm32l4xx_hal_flash_ex.c **** #else
 214:E:/LiteOS/LiteOS_Lab/drivers/third_party/ST/STM32L4xx_HAL_Driver/Src\stm32l4xx_hal_flash_ex.c ****       /* If the erase operation is completed, disable the MER1 Bit */
 215:E:/LiteOS/LiteOS_Lab/drivers/third_party/ST/STM32L4xx_HAL_Driver/Src\stm32l4xx_hal_flash_ex.c ****       CLEAR_BIT(FLASH->CR, (FLASH_CR_MER1));
 151              		.loc 1 215 0
 152 00c0 204B     		ldr	r3, .L15+4
 153 00c2 5B69     		ldr	r3, [r3, #20]
 154 00c4 1F4A     		ldr	r2, .L15+4
 155 00c6 23F00403 		bic	r3, r3, #4
 156 00ca 5361     		str	r3, [r2, #20]
 157 00cc 2DE0     		b	.L11
 158              	.L10:
 216:E:/LiteOS/LiteOS_Lab/drivers/third_party/ST/STM32L4xx_HAL_Driver/Src\stm32l4xx_hal_flash_ex.c **** #endif      
 217:E:/LiteOS/LiteOS_Lab/drivers/third_party/ST/STM32L4xx_HAL_Driver/Src\stm32l4xx_hal_flash_ex.c ****     }
 218:E:/LiteOS/LiteOS_Lab/drivers/third_party/ST/STM32L4xx_HAL_Driver/Src\stm32l4xx_hal_flash_ex.c ****     else
 219:E:/LiteOS/LiteOS_Lab/drivers/third_party/ST/STM32L4xx_HAL_Driver/Src\stm32l4xx_hal_flash_ex.c ****     {
 220:E:/LiteOS/LiteOS_Lab/drivers/third_party/ST/STM32L4xx_HAL_Driver/Src\stm32l4xx_hal_flash_ex.c ****       /*Initialization of PageError variable*/
 221:E:/LiteOS/LiteOS_Lab/drivers/third_party/ST/STM32L4xx_HAL_Driver/Src\stm32l4xx_hal_flash_ex.c ****       *PageError = 0xFFFFFFFF;
 159              		.loc 1 221 0
 160 00ce 3B68     		ldr	r3, [r7]
 161 00d0 4FF0FF32 		mov	r2, #-1
 162 00d4 1A60     		str	r2, [r3]
 222:E:/LiteOS/LiteOS_Lab/drivers/third_party/ST/STM32L4xx_HAL_Driver/Src\stm32l4xx_hal_flash_ex.c ****       
 223:E:/LiteOS/LiteOS_Lab/drivers/third_party/ST/STM32L4xx_HAL_Driver/Src\stm32l4xx_hal_flash_ex.c ****       for(page_index = pEraseInit->Page; page_index < (pEraseInit->Page + pEraseInit->NbPages); pag
 163              		.loc 1 223 0
 164 00d6 7B68     		ldr	r3, [r7, #4]
 165 00d8 9B68     		ldr	r3, [r3, #8]
 166 00da BB60     		str	r3, [r7, #8]
 167 00dc 1DE0     		b	.L12
 168              	.L14:
 224:E:/LiteOS/LiteOS_Lab/drivers/third_party/ST/STM32L4xx_HAL_Driver/Src\stm32l4xx_hal_flash_ex.c ****       {
 225:E:/LiteOS/LiteOS_Lab/drivers/third_party/ST/STM32L4xx_HAL_Driver/Src\stm32l4xx_hal_flash_ex.c ****         FLASH_PageErase(page_index, pEraseInit->Banks);
 169              		.loc 1 225 0
 170 00de 7B68     		ldr	r3, [r7, #4]
 171 00e0 5B68     		ldr	r3, [r3, #4]
 172 00e2 1946     		mov	r1, r3
 173 00e4 B868     		ldr	r0, [r7, #8]
 174 00e6 FFF7FEFF 		bl	FLASH_PageErase
 226:E:/LiteOS/LiteOS_Lab/drivers/third_party/ST/STM32L4xx_HAL_Driver/Src\stm32l4xx_hal_flash_ex.c **** 
ARM GAS  C:\Users\user\AppData\Local\Temp\cc2XHdAe.s 			page 8


 227:E:/LiteOS/LiteOS_Lab/drivers/third_party/ST/STM32L4xx_HAL_Driver/Src\stm32l4xx_hal_flash_ex.c ****         /* Wait for last operation to be completed */
 228:E:/LiteOS/LiteOS_Lab/drivers/third_party/ST/STM32L4xx_HAL_Driver/Src\stm32l4xx_hal_flash_ex.c ****         status = FLASH_WaitForLastOperation((uint32_t)FLASH_TIMEOUT_VALUE);
 175              		.loc 1 228 0
 176 00ea 4CF25030 		movw	r0, #50000
 177 00ee FFF7FEFF 		bl	FLASH_WaitForLastOperation
 178 00f2 0346     		mov	r3, r0
 179 00f4 FB73     		strb	r3, [r7, #15]
 229:E:/LiteOS/LiteOS_Lab/drivers/third_party/ST/STM32L4xx_HAL_Driver/Src\stm32l4xx_hal_flash_ex.c **** 
 230:E:/LiteOS/LiteOS_Lab/drivers/third_party/ST/STM32L4xx_HAL_Driver/Src\stm32l4xx_hal_flash_ex.c ****         /* If the erase operation is completed, disable the PER Bit */
 231:E:/LiteOS/LiteOS_Lab/drivers/third_party/ST/STM32L4xx_HAL_Driver/Src\stm32l4xx_hal_flash_ex.c ****         CLEAR_BIT(FLASH->CR, (FLASH_CR_PER | FLASH_CR_PNB));
 180              		.loc 1 231 0
 181 00f6 134B     		ldr	r3, .L15+4
 182 00f8 5B69     		ldr	r3, [r3, #20]
 183 00fa 124A     		ldr	r2, .L15+4
 184 00fc 23F4FF63 		bic	r3, r3, #2040
 185 0100 23F00203 		bic	r3, r3, #2
 186 0104 5361     		str	r3, [r2, #20]
 232:E:/LiteOS/LiteOS_Lab/drivers/third_party/ST/STM32L4xx_HAL_Driver/Src\stm32l4xx_hal_flash_ex.c **** 
 233:E:/LiteOS/LiteOS_Lab/drivers/third_party/ST/STM32L4xx_HAL_Driver/Src\stm32l4xx_hal_flash_ex.c ****         if (status != HAL_OK)
 187              		.loc 1 233 0
 188 0106 FB7B     		ldrb	r3, [r7, #15]	@ zero_extendqisi2
 189 0108 002B     		cmp	r3, #0
 190 010a 03D0     		beq	.L13
 234:E:/LiteOS/LiteOS_Lab/drivers/third_party/ST/STM32L4xx_HAL_Driver/Src\stm32l4xx_hal_flash_ex.c ****         {
 235:E:/LiteOS/LiteOS_Lab/drivers/third_party/ST/STM32L4xx_HAL_Driver/Src\stm32l4xx_hal_flash_ex.c ****           /* In case of error, stop erase procedure and return the faulty address */
 236:E:/LiteOS/LiteOS_Lab/drivers/third_party/ST/STM32L4xx_HAL_Driver/Src\stm32l4xx_hal_flash_ex.c ****           *PageError = page_index;
 191              		.loc 1 236 0
 192 010c 3B68     		ldr	r3, [r7]
 193 010e BA68     		ldr	r2, [r7, #8]
 194 0110 1A60     		str	r2, [r3]
 237:E:/LiteOS/LiteOS_Lab/drivers/third_party/ST/STM32L4xx_HAL_Driver/Src\stm32l4xx_hal_flash_ex.c ****           break;
 195              		.loc 1 237 0
 196 0112 0AE0     		b	.L11
 197              	.L13:
 223:E:/LiteOS/LiteOS_Lab/drivers/third_party/ST/STM32L4xx_HAL_Driver/Src\stm32l4xx_hal_flash_ex.c ****       {
 198              		.loc 1 223 0 discriminator 2
 199 0114 BB68     		ldr	r3, [r7, #8]
 200 0116 0133     		adds	r3, r3, #1
 201 0118 BB60     		str	r3, [r7, #8]
 202              	.L12:
 223:E:/LiteOS/LiteOS_Lab/drivers/third_party/ST/STM32L4xx_HAL_Driver/Src\stm32l4xx_hal_flash_ex.c ****       {
 203              		.loc 1 223 0 is_stmt 0 discriminator 1
 204 011a 7B68     		ldr	r3, [r7, #4]
 205 011c 9A68     		ldr	r2, [r3, #8]
 206 011e 7B68     		ldr	r3, [r7, #4]
 207 0120 DB68     		ldr	r3, [r3, #12]
 208 0122 1344     		add	r3, r3, r2
 209 0124 BA68     		ldr	r2, [r7, #8]
 210 0126 9A42     		cmp	r2, r3
 211 0128 D9D3     		bcc	.L14
 212              	.L11:
 238:E:/LiteOS/LiteOS_Lab/drivers/third_party/ST/STM32L4xx_HAL_Driver/Src\stm32l4xx_hal_flash_ex.c ****         }
 239:E:/LiteOS/LiteOS_Lab/drivers/third_party/ST/STM32L4xx_HAL_Driver/Src\stm32l4xx_hal_flash_ex.c ****       }
 240:E:/LiteOS/LiteOS_Lab/drivers/third_party/ST/STM32L4xx_HAL_Driver/Src\stm32l4xx_hal_flash_ex.c ****     }
 241:E:/LiteOS/LiteOS_Lab/drivers/third_party/ST/STM32L4xx_HAL_Driver/Src\stm32l4xx_hal_flash_ex.c ****     
 242:E:/LiteOS/LiteOS_Lab/drivers/third_party/ST/STM32L4xx_HAL_Driver/Src\stm32l4xx_hal_flash_ex.c ****     /* Flush the caches to be sure of the data consistency */
 243:E:/LiteOS/LiteOS_Lab/drivers/third_party/ST/STM32L4xx_HAL_Driver/Src\stm32l4xx_hal_flash_ex.c ****     FLASH_FlushCaches();
ARM GAS  C:\Users\user\AppData\Local\Temp\cc2XHdAe.s 			page 9


 213              		.loc 1 243 0 is_stmt 1
 214 012a FFF7FEFF 		bl	FLASH_FlushCaches
 215              	.L4:
 244:E:/LiteOS/LiteOS_Lab/drivers/third_party/ST/STM32L4xx_HAL_Driver/Src\stm32l4xx_hal_flash_ex.c ****   }
 245:E:/LiteOS/LiteOS_Lab/drivers/third_party/ST/STM32L4xx_HAL_Driver/Src\stm32l4xx_hal_flash_ex.c **** 
 246:E:/LiteOS/LiteOS_Lab/drivers/third_party/ST/STM32L4xx_HAL_Driver/Src\stm32l4xx_hal_flash_ex.c ****   /* Process Unlocked */
 247:E:/LiteOS/LiteOS_Lab/drivers/third_party/ST/STM32L4xx_HAL_Driver/Src\stm32l4xx_hal_flash_ex.c ****   __HAL_UNLOCK(&pFlash);
 216              		.loc 1 247 0
 217 012e 044B     		ldr	r3, .L15
 218 0130 0022     		movs	r2, #0
 219 0132 1A70     		strb	r2, [r3]
 248:E:/LiteOS/LiteOS_Lab/drivers/third_party/ST/STM32L4xx_HAL_Driver/Src\stm32l4xx_hal_flash_ex.c **** 
 249:E:/LiteOS/LiteOS_Lab/drivers/third_party/ST/STM32L4xx_HAL_Driver/Src\stm32l4xx_hal_flash_ex.c ****   return status;
 220              		.loc 1 249 0
 221 0134 FB7B     		ldrb	r3, [r7, #15]	@ zero_extendqisi2
 222              	.L3:
 250:E:/LiteOS/LiteOS_Lab/drivers/third_party/ST/STM32L4xx_HAL_Driver/Src\stm32l4xx_hal_flash_ex.c **** }
 223              		.loc 1 250 0
 224 0136 1846     		mov	r0, r3
 225 0138 1037     		adds	r7, r7, #16
 226              	.LCFI3:
 227              		.cfi_def_cfa_offset 8
 228 013a BD46     		mov	sp, r7
 229              	.LCFI4:
 230              		.cfi_def_cfa_register 13
 231              		@ sp needed
 232 013c 80BD     		pop	{r7, pc}
 233              	.L16:
 234 013e 00BF     		.align	2
 235              	.L15:
 236 0140 00000000 		.word	pFlash
 237 0144 00200240 		.word	1073881088
 238              		.cfi_endproc
 239              	.LFE133:
 241              		.section	.text.HAL_FLASHEx_Erase_IT,"ax",%progbits
 242              		.align	1
 243              		.global	HAL_FLASHEx_Erase_IT
 244              		.syntax unified
 245              		.thumb
 246              		.thumb_func
 247              		.fpu fpv4-sp-d16
 249              	HAL_FLASHEx_Erase_IT:
 250              	.LFB134:
 251:E:/LiteOS/LiteOS_Lab/drivers/third_party/ST/STM32L4xx_HAL_Driver/Src\stm32l4xx_hal_flash_ex.c **** 
 252:E:/LiteOS/LiteOS_Lab/drivers/third_party/ST/STM32L4xx_HAL_Driver/Src\stm32l4xx_hal_flash_ex.c **** /**
 253:E:/LiteOS/LiteOS_Lab/drivers/third_party/ST/STM32L4xx_HAL_Driver/Src\stm32l4xx_hal_flash_ex.c ****   * @brief  Perform a mass erase or erase the specified FLASH memory pages with interrupt enabled.
 254:E:/LiteOS/LiteOS_Lab/drivers/third_party/ST/STM32L4xx_HAL_Driver/Src\stm32l4xx_hal_flash_ex.c ****   * @param  pEraseInit: pointer to an FLASH_EraseInitTypeDef structure that
 255:E:/LiteOS/LiteOS_Lab/drivers/third_party/ST/STM32L4xx_HAL_Driver/Src\stm32l4xx_hal_flash_ex.c ****   *         contains the configuration information for the erasing.
 256:E:/LiteOS/LiteOS_Lab/drivers/third_party/ST/STM32L4xx_HAL_Driver/Src\stm32l4xx_hal_flash_ex.c ****   * 
 257:E:/LiteOS/LiteOS_Lab/drivers/third_party/ST/STM32L4xx_HAL_Driver/Src\stm32l4xx_hal_flash_ex.c ****   * @retval HAL Status
 258:E:/LiteOS/LiteOS_Lab/drivers/third_party/ST/STM32L4xx_HAL_Driver/Src\stm32l4xx_hal_flash_ex.c ****   */
 259:E:/LiteOS/LiteOS_Lab/drivers/third_party/ST/STM32L4xx_HAL_Driver/Src\stm32l4xx_hal_flash_ex.c **** HAL_StatusTypeDef HAL_FLASHEx_Erase_IT(FLASH_EraseInitTypeDef *pEraseInit)
 260:E:/LiteOS/LiteOS_Lab/drivers/third_party/ST/STM32L4xx_HAL_Driver/Src\stm32l4xx_hal_flash_ex.c **** {
 251              		.loc 1 260 0
 252              		.cfi_startproc
 253              		@ args = 0, pretend = 0, frame = 16
 254              		@ frame_needed = 1, uses_anonymous_args = 0
ARM GAS  C:\Users\user\AppData\Local\Temp\cc2XHdAe.s 			page 10


 255 0000 80B5     		push	{r7, lr}
 256              	.LCFI5:
 257              		.cfi_def_cfa_offset 8
 258              		.cfi_offset 7, -8
 259              		.cfi_offset 14, -4
 260 0002 84B0     		sub	sp, sp, #16
 261              	.LCFI6:
 262              		.cfi_def_cfa_offset 24
 263 0004 00AF     		add	r7, sp, #0
 264              	.LCFI7:
 265              		.cfi_def_cfa_register 7
 266 0006 7860     		str	r0, [r7, #4]
 261:E:/LiteOS/LiteOS_Lab/drivers/third_party/ST/STM32L4xx_HAL_Driver/Src\stm32l4xx_hal_flash_ex.c ****   HAL_StatusTypeDef status = HAL_OK;
 267              		.loc 1 261 0
 268 0008 0023     		movs	r3, #0
 269 000a FB73     		strb	r3, [r7, #15]
 262:E:/LiteOS/LiteOS_Lab/drivers/third_party/ST/STM32L4xx_HAL_Driver/Src\stm32l4xx_hal_flash_ex.c **** 
 263:E:/LiteOS/LiteOS_Lab/drivers/third_party/ST/STM32L4xx_HAL_Driver/Src\stm32l4xx_hal_flash_ex.c ****   /* Process Locked */
 264:E:/LiteOS/LiteOS_Lab/drivers/third_party/ST/STM32L4xx_HAL_Driver/Src\stm32l4xx_hal_flash_ex.c ****   __HAL_LOCK(&pFlash);
 270              		.loc 1 264 0
 271 000c 364B     		ldr	r3, .L28
 272 000e 1B78     		ldrb	r3, [r3]	@ zero_extendqisi2
 273 0010 012B     		cmp	r3, #1
 274 0012 01D1     		bne	.L18
 275              		.loc 1 264 0 is_stmt 0 discriminator 1
 276 0014 0223     		movs	r3, #2
 277 0016 63E0     		b	.L19
 278              	.L18:
 279              		.loc 1 264 0 discriminator 2
 280 0018 334B     		ldr	r3, .L28
 281 001a 0122     		movs	r2, #1
 282 001c 1A70     		strb	r2, [r3]
 265:E:/LiteOS/LiteOS_Lab/drivers/third_party/ST/STM32L4xx_HAL_Driver/Src\stm32l4xx_hal_flash_ex.c **** 
 266:E:/LiteOS/LiteOS_Lab/drivers/third_party/ST/STM32L4xx_HAL_Driver/Src\stm32l4xx_hal_flash_ex.c ****   /* Check the parameters */
 267:E:/LiteOS/LiteOS_Lab/drivers/third_party/ST/STM32L4xx_HAL_Driver/Src\stm32l4xx_hal_flash_ex.c ****   assert_param(IS_FLASH_TYPEERASE(pEraseInit->TypeErase));
 268:E:/LiteOS/LiteOS_Lab/drivers/third_party/ST/STM32L4xx_HAL_Driver/Src\stm32l4xx_hal_flash_ex.c **** 
 269:E:/LiteOS/LiteOS_Lab/drivers/third_party/ST/STM32L4xx_HAL_Driver/Src\stm32l4xx_hal_flash_ex.c ****   pFlash.ErrorCode = HAL_FLASH_ERROR_NONE;
 283              		.loc 1 269 0 is_stmt 1 discriminator 2
 284 001e 324B     		ldr	r3, .L28
 285 0020 0022     		movs	r2, #0
 286 0022 5A60     		str	r2, [r3, #4]
 270:E:/LiteOS/LiteOS_Lab/drivers/third_party/ST/STM32L4xx_HAL_Driver/Src\stm32l4xx_hal_flash_ex.c **** 
 271:E:/LiteOS/LiteOS_Lab/drivers/third_party/ST/STM32L4xx_HAL_Driver/Src\stm32l4xx_hal_flash_ex.c ****   /* Deactivate the cache if they are activated to avoid data misbehavior */
 272:E:/LiteOS/LiteOS_Lab/drivers/third_party/ST/STM32L4xx_HAL_Driver/Src\stm32l4xx_hal_flash_ex.c ****   if(READ_BIT(FLASH->ACR, FLASH_ACR_ICEN) != RESET)
 287              		.loc 1 272 0 discriminator 2
 288 0024 314B     		ldr	r3, .L28+4
 289 0026 1B68     		ldr	r3, [r3]
 290 0028 03F40073 		and	r3, r3, #512
 291 002c 002B     		cmp	r3, #0
 292 002e 19D0     		beq	.L20
 273:E:/LiteOS/LiteOS_Lab/drivers/third_party/ST/STM32L4xx_HAL_Driver/Src\stm32l4xx_hal_flash_ex.c ****   {
 274:E:/LiteOS/LiteOS_Lab/drivers/third_party/ST/STM32L4xx_HAL_Driver/Src\stm32l4xx_hal_flash_ex.c ****     /* Disable instruction cache  */
 275:E:/LiteOS/LiteOS_Lab/drivers/third_party/ST/STM32L4xx_HAL_Driver/Src\stm32l4xx_hal_flash_ex.c ****     __HAL_FLASH_INSTRUCTION_CACHE_DISABLE();
 293              		.loc 1 275 0
 294 0030 2E4B     		ldr	r3, .L28+4
 295 0032 1B68     		ldr	r3, [r3]
 296 0034 2D4A     		ldr	r2, .L28+4
ARM GAS  C:\Users\user\AppData\Local\Temp\cc2XHdAe.s 			page 11


 297 0036 23F40073 		bic	r3, r3, #512
 298 003a 1360     		str	r3, [r2]
 276:E:/LiteOS/LiteOS_Lab/drivers/third_party/ST/STM32L4xx_HAL_Driver/Src\stm32l4xx_hal_flash_ex.c ****     
 277:E:/LiteOS/LiteOS_Lab/drivers/third_party/ST/STM32L4xx_HAL_Driver/Src\stm32l4xx_hal_flash_ex.c ****     if(READ_BIT(FLASH->ACR, FLASH_ACR_DCEN) != RESET)
 299              		.loc 1 277 0
 300 003c 2B4B     		ldr	r3, .L28+4
 301 003e 1B68     		ldr	r3, [r3]
 302 0040 03F48063 		and	r3, r3, #1024
 303 0044 002B     		cmp	r3, #0
 304 0046 09D0     		beq	.L21
 278:E:/LiteOS/LiteOS_Lab/drivers/third_party/ST/STM32L4xx_HAL_Driver/Src\stm32l4xx_hal_flash_ex.c ****     {
 279:E:/LiteOS/LiteOS_Lab/drivers/third_party/ST/STM32L4xx_HAL_Driver/Src\stm32l4xx_hal_flash_ex.c ****       /* Disable data cache  */
 280:E:/LiteOS/LiteOS_Lab/drivers/third_party/ST/STM32L4xx_HAL_Driver/Src\stm32l4xx_hal_flash_ex.c ****       __HAL_FLASH_DATA_CACHE_DISABLE();
 305              		.loc 1 280 0
 306 0048 284B     		ldr	r3, .L28+4
 307 004a 1B68     		ldr	r3, [r3]
 308 004c 274A     		ldr	r2, .L28+4
 309 004e 23F48063 		bic	r3, r3, #1024
 310 0052 1360     		str	r3, [r2]
 281:E:/LiteOS/LiteOS_Lab/drivers/third_party/ST/STM32L4xx_HAL_Driver/Src\stm32l4xx_hal_flash_ex.c ****       pFlash.CacheToReactivate = FLASH_CACHE_ICACHE_DCACHE_ENABLED;
 311              		.loc 1 281 0
 312 0054 244B     		ldr	r3, .L28
 313 0056 0322     		movs	r2, #3
 314 0058 1A77     		strb	r2, [r3, #28]
 315 005a 16E0     		b	.L27
 316              	.L21:
 282:E:/LiteOS/LiteOS_Lab/drivers/third_party/ST/STM32L4xx_HAL_Driver/Src\stm32l4xx_hal_flash_ex.c ****     }
 283:E:/LiteOS/LiteOS_Lab/drivers/third_party/ST/STM32L4xx_HAL_Driver/Src\stm32l4xx_hal_flash_ex.c ****     else
 284:E:/LiteOS/LiteOS_Lab/drivers/third_party/ST/STM32L4xx_HAL_Driver/Src\stm32l4xx_hal_flash_ex.c ****     {
 285:E:/LiteOS/LiteOS_Lab/drivers/third_party/ST/STM32L4xx_HAL_Driver/Src\stm32l4xx_hal_flash_ex.c ****       pFlash.CacheToReactivate = FLASH_CACHE_ICACHE_ENABLED;
 317              		.loc 1 285 0
 318 005c 224B     		ldr	r3, .L28
 319 005e 0122     		movs	r2, #1
 320 0060 1A77     		strb	r2, [r3, #28]
 321 0062 12E0     		b	.L27
 322              	.L20:
 286:E:/LiteOS/LiteOS_Lab/drivers/third_party/ST/STM32L4xx_HAL_Driver/Src\stm32l4xx_hal_flash_ex.c ****     }
 287:E:/LiteOS/LiteOS_Lab/drivers/third_party/ST/STM32L4xx_HAL_Driver/Src\stm32l4xx_hal_flash_ex.c ****   }
 288:E:/LiteOS/LiteOS_Lab/drivers/third_party/ST/STM32L4xx_HAL_Driver/Src\stm32l4xx_hal_flash_ex.c ****   else if(READ_BIT(FLASH->ACR, FLASH_ACR_DCEN) != RESET)
 323              		.loc 1 288 0
 324 0064 214B     		ldr	r3, .L28+4
 325 0066 1B68     		ldr	r3, [r3]
 326 0068 03F48063 		and	r3, r3, #1024
 327 006c 002B     		cmp	r3, #0
 328 006e 09D0     		beq	.L24
 289:E:/LiteOS/LiteOS_Lab/drivers/third_party/ST/STM32L4xx_HAL_Driver/Src\stm32l4xx_hal_flash_ex.c ****   {
 290:E:/LiteOS/LiteOS_Lab/drivers/third_party/ST/STM32L4xx_HAL_Driver/Src\stm32l4xx_hal_flash_ex.c ****     /* Disable data cache  */
 291:E:/LiteOS/LiteOS_Lab/drivers/third_party/ST/STM32L4xx_HAL_Driver/Src\stm32l4xx_hal_flash_ex.c ****     __HAL_FLASH_DATA_CACHE_DISABLE();
 329              		.loc 1 291 0
 330 0070 1E4B     		ldr	r3, .L28+4
 331 0072 1B68     		ldr	r3, [r3]
 332 0074 1D4A     		ldr	r2, .L28+4
 333 0076 23F48063 		bic	r3, r3, #1024
 334 007a 1360     		str	r3, [r2]
 292:E:/LiteOS/LiteOS_Lab/drivers/third_party/ST/STM32L4xx_HAL_Driver/Src\stm32l4xx_hal_flash_ex.c ****     pFlash.CacheToReactivate = FLASH_CACHE_DCACHE_ENABLED;
 335              		.loc 1 292 0
 336 007c 1A4B     		ldr	r3, .L28
ARM GAS  C:\Users\user\AppData\Local\Temp\cc2XHdAe.s 			page 12


 337 007e 0222     		movs	r2, #2
 338 0080 1A77     		strb	r2, [r3, #28]
 339 0082 02E0     		b	.L27
 340              	.L24:
 293:E:/LiteOS/LiteOS_Lab/drivers/third_party/ST/STM32L4xx_HAL_Driver/Src\stm32l4xx_hal_flash_ex.c ****   }
 294:E:/LiteOS/LiteOS_Lab/drivers/third_party/ST/STM32L4xx_HAL_Driver/Src\stm32l4xx_hal_flash_ex.c ****   else
 295:E:/LiteOS/LiteOS_Lab/drivers/third_party/ST/STM32L4xx_HAL_Driver/Src\stm32l4xx_hal_flash_ex.c ****   {
 296:E:/LiteOS/LiteOS_Lab/drivers/third_party/ST/STM32L4xx_HAL_Driver/Src\stm32l4xx_hal_flash_ex.c ****     pFlash.CacheToReactivate = FLASH_CACHE_DISABLED;
 341              		.loc 1 296 0
 342 0084 184B     		ldr	r3, .L28
 343 0086 0022     		movs	r2, #0
 344 0088 1A77     		strb	r2, [r3, #28]
 345              	.L27:
 297:E:/LiteOS/LiteOS_Lab/drivers/third_party/ST/STM32L4xx_HAL_Driver/Src\stm32l4xx_hal_flash_ex.c ****   }
 298:E:/LiteOS/LiteOS_Lab/drivers/third_party/ST/STM32L4xx_HAL_Driver/Src\stm32l4xx_hal_flash_ex.c **** 
 299:E:/LiteOS/LiteOS_Lab/drivers/third_party/ST/STM32L4xx_HAL_Driver/Src\stm32l4xx_hal_flash_ex.c ****   /* Enable End of Operation and Error interrupts */
 300:E:/LiteOS/LiteOS_Lab/drivers/third_party/ST/STM32L4xx_HAL_Driver/Src\stm32l4xx_hal_flash_ex.c ****   __HAL_FLASH_ENABLE_IT(FLASH_IT_EOP | FLASH_IT_OPERR);
 346              		.loc 1 300 0 discriminator 4
 347 008a 184B     		ldr	r3, .L28+4
 348 008c 5B69     		ldr	r3, [r3, #20]
 349 008e 174A     		ldr	r2, .L28+4
 350 0090 43F04073 		orr	r3, r3, #50331648
 351 0094 5361     		str	r3, [r2, #20]
 301:E:/LiteOS/LiteOS_Lab/drivers/third_party/ST/STM32L4xx_HAL_Driver/Src\stm32l4xx_hal_flash_ex.c **** 
 302:E:/LiteOS/LiteOS_Lab/drivers/third_party/ST/STM32L4xx_HAL_Driver/Src\stm32l4xx_hal_flash_ex.c ****   pFlash.Bank = pEraseInit->Banks;
 352              		.loc 1 302 0 discriminator 4
 353 0096 7B68     		ldr	r3, [r7, #4]
 354 0098 5B68     		ldr	r3, [r3, #4]
 355 009a 134A     		ldr	r2, .L28
 356 009c 1361     		str	r3, [r2, #16]
 303:E:/LiteOS/LiteOS_Lab/drivers/third_party/ST/STM32L4xx_HAL_Driver/Src\stm32l4xx_hal_flash_ex.c **** 
 304:E:/LiteOS/LiteOS_Lab/drivers/third_party/ST/STM32L4xx_HAL_Driver/Src\stm32l4xx_hal_flash_ex.c ****   if (pEraseInit->TypeErase == FLASH_TYPEERASE_MASSERASE)
 357              		.loc 1 304 0 discriminator 4
 358 009e 7B68     		ldr	r3, [r7, #4]
 359 00a0 1B68     		ldr	r3, [r3]
 360 00a2 012B     		cmp	r3, #1
 361 00a4 08D1     		bne	.L25
 305:E:/LiteOS/LiteOS_Lab/drivers/third_party/ST/STM32L4xx_HAL_Driver/Src\stm32l4xx_hal_flash_ex.c ****   {
 306:E:/LiteOS/LiteOS_Lab/drivers/third_party/ST/STM32L4xx_HAL_Driver/Src\stm32l4xx_hal_flash_ex.c ****     /* Mass erase to be done */
 307:E:/LiteOS/LiteOS_Lab/drivers/third_party/ST/STM32L4xx_HAL_Driver/Src\stm32l4xx_hal_flash_ex.c ****     pFlash.ProcedureOnGoing = FLASH_PROC_MASS_ERASE;
 362              		.loc 1 307 0
 363 00a6 104B     		ldr	r3, .L28
 364 00a8 0222     		movs	r2, #2
 365 00aa 1A72     		strb	r2, [r3, #8]
 308:E:/LiteOS/LiteOS_Lab/drivers/third_party/ST/STM32L4xx_HAL_Driver/Src\stm32l4xx_hal_flash_ex.c ****     FLASH_MassErase(pEraseInit->Banks);
 366              		.loc 1 308 0
 367 00ac 7B68     		ldr	r3, [r7, #4]
 368 00ae 5B68     		ldr	r3, [r3, #4]
 369 00b0 1846     		mov	r0, r3
 370 00b2 FFF7FEFF 		bl	FLASH_MassErase
 371 00b6 12E0     		b	.L26
 372              	.L25:
 309:E:/LiteOS/LiteOS_Lab/drivers/third_party/ST/STM32L4xx_HAL_Driver/Src\stm32l4xx_hal_flash_ex.c ****   }
 310:E:/LiteOS/LiteOS_Lab/drivers/third_party/ST/STM32L4xx_HAL_Driver/Src\stm32l4xx_hal_flash_ex.c ****   else
 311:E:/LiteOS/LiteOS_Lab/drivers/third_party/ST/STM32L4xx_HAL_Driver/Src\stm32l4xx_hal_flash_ex.c ****   {
 312:E:/LiteOS/LiteOS_Lab/drivers/third_party/ST/STM32L4xx_HAL_Driver/Src\stm32l4xx_hal_flash_ex.c ****     /* Erase by page to be done */
 313:E:/LiteOS/LiteOS_Lab/drivers/third_party/ST/STM32L4xx_HAL_Driver/Src\stm32l4xx_hal_flash_ex.c ****     pFlash.ProcedureOnGoing = FLASH_PROC_PAGE_ERASE;
ARM GAS  C:\Users\user\AppData\Local\Temp\cc2XHdAe.s 			page 13


 373              		.loc 1 313 0
 374 00b8 0B4B     		ldr	r3, .L28
 375 00ba 0122     		movs	r2, #1
 376 00bc 1A72     		strb	r2, [r3, #8]
 314:E:/LiteOS/LiteOS_Lab/drivers/third_party/ST/STM32L4xx_HAL_Driver/Src\stm32l4xx_hal_flash_ex.c ****     pFlash.NbPagesToErase = pEraseInit->NbPages;
 377              		.loc 1 314 0
 378 00be 7B68     		ldr	r3, [r7, #4]
 379 00c0 DB68     		ldr	r3, [r3, #12]
 380 00c2 094A     		ldr	r2, .L28
 381 00c4 9361     		str	r3, [r2, #24]
 315:E:/LiteOS/LiteOS_Lab/drivers/third_party/ST/STM32L4xx_HAL_Driver/Src\stm32l4xx_hal_flash_ex.c ****     pFlash.Page = pEraseInit->Page;
 382              		.loc 1 315 0
 383 00c6 7B68     		ldr	r3, [r7, #4]
 384 00c8 9B68     		ldr	r3, [r3, #8]
 385 00ca 074A     		ldr	r2, .L28
 386 00cc 5361     		str	r3, [r2, #20]
 316:E:/LiteOS/LiteOS_Lab/drivers/third_party/ST/STM32L4xx_HAL_Driver/Src\stm32l4xx_hal_flash_ex.c **** 
 317:E:/LiteOS/LiteOS_Lab/drivers/third_party/ST/STM32L4xx_HAL_Driver/Src\stm32l4xx_hal_flash_ex.c ****     /*Erase 1st page and wait for IT */
 318:E:/LiteOS/LiteOS_Lab/drivers/third_party/ST/STM32L4xx_HAL_Driver/Src\stm32l4xx_hal_flash_ex.c ****     FLASH_PageErase(pEraseInit->Page, pEraseInit->Banks);
 387              		.loc 1 318 0
 388 00ce 7B68     		ldr	r3, [r7, #4]
 389 00d0 9A68     		ldr	r2, [r3, #8]
 390 00d2 7B68     		ldr	r3, [r7, #4]
 391 00d4 5B68     		ldr	r3, [r3, #4]
 392 00d6 1946     		mov	r1, r3
 393 00d8 1046     		mov	r0, r2
 394 00da FFF7FEFF 		bl	FLASH_PageErase
 395              	.L26:
 319:E:/LiteOS/LiteOS_Lab/drivers/third_party/ST/STM32L4xx_HAL_Driver/Src\stm32l4xx_hal_flash_ex.c ****   }
 320:E:/LiteOS/LiteOS_Lab/drivers/third_party/ST/STM32L4xx_HAL_Driver/Src\stm32l4xx_hal_flash_ex.c ****   
 321:E:/LiteOS/LiteOS_Lab/drivers/third_party/ST/STM32L4xx_HAL_Driver/Src\stm32l4xx_hal_flash_ex.c ****   return status;
 396              		.loc 1 321 0
 397 00de FB7B     		ldrb	r3, [r7, #15]	@ zero_extendqisi2
 398              	.L19:
 322:E:/LiteOS/LiteOS_Lab/drivers/third_party/ST/STM32L4xx_HAL_Driver/Src\stm32l4xx_hal_flash_ex.c **** }
 399              		.loc 1 322 0
 400 00e0 1846     		mov	r0, r3
 401 00e2 1037     		adds	r7, r7, #16
 402              	.LCFI8:
 403              		.cfi_def_cfa_offset 8
 404 00e4 BD46     		mov	sp, r7
 405              	.LCFI9:
 406              		.cfi_def_cfa_register 13
 407              		@ sp needed
 408 00e6 80BD     		pop	{r7, pc}
 409              	.L29:
 410              		.align	2
 411              	.L28:
 412 00e8 00000000 		.word	pFlash
 413 00ec 00200240 		.word	1073881088
 414              		.cfi_endproc
 415              	.LFE134:
 417              		.section	.text.HAL_FLASHEx_OBProgram,"ax",%progbits
 418              		.align	1
 419              		.global	HAL_FLASHEx_OBProgram
 420              		.syntax unified
 421              		.thumb
ARM GAS  C:\Users\user\AppData\Local\Temp\cc2XHdAe.s 			page 14


 422              		.thumb_func
 423              		.fpu fpv4-sp-d16
 425              	HAL_FLASHEx_OBProgram:
 426              	.LFB135:
 323:E:/LiteOS/LiteOS_Lab/drivers/third_party/ST/STM32L4xx_HAL_Driver/Src\stm32l4xx_hal_flash_ex.c **** 
 324:E:/LiteOS/LiteOS_Lab/drivers/third_party/ST/STM32L4xx_HAL_Driver/Src\stm32l4xx_hal_flash_ex.c **** /**
 325:E:/LiteOS/LiteOS_Lab/drivers/third_party/ST/STM32L4xx_HAL_Driver/Src\stm32l4xx_hal_flash_ex.c ****   * @brief  Program Option bytes.
 326:E:/LiteOS/LiteOS_Lab/drivers/third_party/ST/STM32L4xx_HAL_Driver/Src\stm32l4xx_hal_flash_ex.c ****   * @param  pOBInit: pointer to an FLASH_OBInitStruct structure that
 327:E:/LiteOS/LiteOS_Lab/drivers/third_party/ST/STM32L4xx_HAL_Driver/Src\stm32l4xx_hal_flash_ex.c ****   *         contains the configuration information for the programming.
 328:E:/LiteOS/LiteOS_Lab/drivers/third_party/ST/STM32L4xx_HAL_Driver/Src\stm32l4xx_hal_flash_ex.c ****   * 
 329:E:/LiteOS/LiteOS_Lab/drivers/third_party/ST/STM32L4xx_HAL_Driver/Src\stm32l4xx_hal_flash_ex.c ****   * @retval HAL Status
 330:E:/LiteOS/LiteOS_Lab/drivers/third_party/ST/STM32L4xx_HAL_Driver/Src\stm32l4xx_hal_flash_ex.c ****   */
 331:E:/LiteOS/LiteOS_Lab/drivers/third_party/ST/STM32L4xx_HAL_Driver/Src\stm32l4xx_hal_flash_ex.c **** HAL_StatusTypeDef HAL_FLASHEx_OBProgram(FLASH_OBProgramInitTypeDef *pOBInit)
 332:E:/LiteOS/LiteOS_Lab/drivers/third_party/ST/STM32L4xx_HAL_Driver/Src\stm32l4xx_hal_flash_ex.c **** {
 427              		.loc 1 332 0
 428              		.cfi_startproc
 429              		@ args = 0, pretend = 0, frame = 16
 430              		@ frame_needed = 1, uses_anonymous_args = 0
 431 0000 80B5     		push	{r7, lr}
 432              	.LCFI10:
 433              		.cfi_def_cfa_offset 8
 434              		.cfi_offset 7, -8
 435              		.cfi_offset 14, -4
 436 0002 84B0     		sub	sp, sp, #16
 437              	.LCFI11:
 438              		.cfi_def_cfa_offset 24
 439 0004 00AF     		add	r7, sp, #0
 440              	.LCFI12:
 441              		.cfi_def_cfa_register 7
 442 0006 7860     		str	r0, [r7, #4]
 333:E:/LiteOS/LiteOS_Lab/drivers/third_party/ST/STM32L4xx_HAL_Driver/Src\stm32l4xx_hal_flash_ex.c ****   HAL_StatusTypeDef status = HAL_OK;
 443              		.loc 1 333 0
 444 0008 0023     		movs	r3, #0
 445 000a FB73     		strb	r3, [r7, #15]
 334:E:/LiteOS/LiteOS_Lab/drivers/third_party/ST/STM32L4xx_HAL_Driver/Src\stm32l4xx_hal_flash_ex.c ****   
 335:E:/LiteOS/LiteOS_Lab/drivers/third_party/ST/STM32L4xx_HAL_Driver/Src\stm32l4xx_hal_flash_ex.c ****   /* Process Locked */
 336:E:/LiteOS/LiteOS_Lab/drivers/third_party/ST/STM32L4xx_HAL_Driver/Src\stm32l4xx_hal_flash_ex.c ****   __HAL_LOCK(&pFlash);
 446              		.loc 1 336 0
 447 000c 324B     		ldr	r3, .L37
 448 000e 1B78     		ldrb	r3, [r3]	@ zero_extendqisi2
 449 0010 012B     		cmp	r3, #1
 450 0012 01D1     		bne	.L31
 451              		.loc 1 336 0 is_stmt 0 discriminator 1
 452 0014 0223     		movs	r3, #2
 453 0016 5AE0     		b	.L32
 454              	.L31:
 455              		.loc 1 336 0 discriminator 2
 456 0018 2F4B     		ldr	r3, .L37
 457 001a 0122     		movs	r2, #1
 458 001c 1A70     		strb	r2, [r3]
 337:E:/LiteOS/LiteOS_Lab/drivers/third_party/ST/STM32L4xx_HAL_Driver/Src\stm32l4xx_hal_flash_ex.c **** 
 338:E:/LiteOS/LiteOS_Lab/drivers/third_party/ST/STM32L4xx_HAL_Driver/Src\stm32l4xx_hal_flash_ex.c ****   /* Check the parameters */
 339:E:/LiteOS/LiteOS_Lab/drivers/third_party/ST/STM32L4xx_HAL_Driver/Src\stm32l4xx_hal_flash_ex.c ****   assert_param(IS_OPTIONBYTE(pOBInit->OptionType));
 340:E:/LiteOS/LiteOS_Lab/drivers/third_party/ST/STM32L4xx_HAL_Driver/Src\stm32l4xx_hal_flash_ex.c ****   
 341:E:/LiteOS/LiteOS_Lab/drivers/third_party/ST/STM32L4xx_HAL_Driver/Src\stm32l4xx_hal_flash_ex.c ****   pFlash.ErrorCode = HAL_FLASH_ERROR_NONE;
 459              		.loc 1 341 0 is_stmt 1 discriminator 2
 460 001e 2E4B     		ldr	r3, .L37
ARM GAS  C:\Users\user\AppData\Local\Temp\cc2XHdAe.s 			page 15


 461 0020 0022     		movs	r2, #0
 462 0022 5A60     		str	r2, [r3, #4]
 342:E:/LiteOS/LiteOS_Lab/drivers/third_party/ST/STM32L4xx_HAL_Driver/Src\stm32l4xx_hal_flash_ex.c **** 
 343:E:/LiteOS/LiteOS_Lab/drivers/third_party/ST/STM32L4xx_HAL_Driver/Src\stm32l4xx_hal_flash_ex.c ****   /* Write protection configuration */
 344:E:/LiteOS/LiteOS_Lab/drivers/third_party/ST/STM32L4xx_HAL_Driver/Src\stm32l4xx_hal_flash_ex.c ****   if((pOBInit->OptionType & OPTIONBYTE_WRP) != RESET)
 463              		.loc 1 344 0 discriminator 2
 464 0024 7B68     		ldr	r3, [r7, #4]
 465 0026 1B68     		ldr	r3, [r3]
 466 0028 03F00103 		and	r3, r3, #1
 467 002c 002B     		cmp	r3, #0
 468 002e 0DD0     		beq	.L33
 345:E:/LiteOS/LiteOS_Lab/drivers/third_party/ST/STM32L4xx_HAL_Driver/Src\stm32l4xx_hal_flash_ex.c ****   {
 346:E:/LiteOS/LiteOS_Lab/drivers/third_party/ST/STM32L4xx_HAL_Driver/Src\stm32l4xx_hal_flash_ex.c ****     /* Configure of Write protection on the selected area */
 347:E:/LiteOS/LiteOS_Lab/drivers/third_party/ST/STM32L4xx_HAL_Driver/Src\stm32l4xx_hal_flash_ex.c ****     if(FLASH_OB_WRPConfig(pOBInit->WRPArea, pOBInit->WRPStartOffset, pOBInit->WRPEndOffset) != HAL_
 469              		.loc 1 347 0
 470 0030 7B68     		ldr	r3, [r7, #4]
 471 0032 5868     		ldr	r0, [r3, #4]
 472 0034 7B68     		ldr	r3, [r7, #4]
 473 0036 9968     		ldr	r1, [r3, #8]
 474 0038 7B68     		ldr	r3, [r7, #4]
 475 003a DB68     		ldr	r3, [r3, #12]
 476 003c 1A46     		mov	r2, r3
 477 003e FFF7FEFF 		bl	FLASH_OB_WRPConfig
 478 0042 0346     		mov	r3, r0
 479 0044 002B     		cmp	r3, #0
 480 0046 01D0     		beq	.L33
 348:E:/LiteOS/LiteOS_Lab/drivers/third_party/ST/STM32L4xx_HAL_Driver/Src\stm32l4xx_hal_flash_ex.c ****     {
 349:E:/LiteOS/LiteOS_Lab/drivers/third_party/ST/STM32L4xx_HAL_Driver/Src\stm32l4xx_hal_flash_ex.c ****       status = HAL_ERROR;
 481              		.loc 1 349 0
 482 0048 0123     		movs	r3, #1
 483 004a FB73     		strb	r3, [r7, #15]
 484              	.L33:
 350:E:/LiteOS/LiteOS_Lab/drivers/third_party/ST/STM32L4xx_HAL_Driver/Src\stm32l4xx_hal_flash_ex.c ****     }
 351:E:/LiteOS/LiteOS_Lab/drivers/third_party/ST/STM32L4xx_HAL_Driver/Src\stm32l4xx_hal_flash_ex.c ****     
 352:E:/LiteOS/LiteOS_Lab/drivers/third_party/ST/STM32L4xx_HAL_Driver/Src\stm32l4xx_hal_flash_ex.c ****   }
 353:E:/LiteOS/LiteOS_Lab/drivers/third_party/ST/STM32L4xx_HAL_Driver/Src\stm32l4xx_hal_flash_ex.c ****   
 354:E:/LiteOS/LiteOS_Lab/drivers/third_party/ST/STM32L4xx_HAL_Driver/Src\stm32l4xx_hal_flash_ex.c ****   /* Read protection configuration */
 355:E:/LiteOS/LiteOS_Lab/drivers/third_party/ST/STM32L4xx_HAL_Driver/Src\stm32l4xx_hal_flash_ex.c ****   if((pOBInit->OptionType & OPTIONBYTE_RDP) != RESET)
 485              		.loc 1 355 0
 486 004c 7B68     		ldr	r3, [r7, #4]
 487 004e 1B68     		ldr	r3, [r3]
 488 0050 03F00203 		and	r3, r3, #2
 489 0054 002B     		cmp	r3, #0
 490 0056 09D0     		beq	.L34
 356:E:/LiteOS/LiteOS_Lab/drivers/third_party/ST/STM32L4xx_HAL_Driver/Src\stm32l4xx_hal_flash_ex.c ****   {
 357:E:/LiteOS/LiteOS_Lab/drivers/third_party/ST/STM32L4xx_HAL_Driver/Src\stm32l4xx_hal_flash_ex.c ****     /* Configure the Read protection level */
 358:E:/LiteOS/LiteOS_Lab/drivers/third_party/ST/STM32L4xx_HAL_Driver/Src\stm32l4xx_hal_flash_ex.c ****     if(FLASH_OB_RDPConfig(pOBInit->RDPLevel) != HAL_OK)
 491              		.loc 1 358 0
 492 0058 7B68     		ldr	r3, [r7, #4]
 493 005a 1B69     		ldr	r3, [r3, #16]
 494 005c 1846     		mov	r0, r3
 495 005e FFF7FEFF 		bl	FLASH_OB_RDPConfig
 496 0062 0346     		mov	r3, r0
 497 0064 002B     		cmp	r3, #0
 498 0066 01D0     		beq	.L34
 359:E:/LiteOS/LiteOS_Lab/drivers/third_party/ST/STM32L4xx_HAL_Driver/Src\stm32l4xx_hal_flash_ex.c ****     {
 360:E:/LiteOS/LiteOS_Lab/drivers/third_party/ST/STM32L4xx_HAL_Driver/Src\stm32l4xx_hal_flash_ex.c ****       status = HAL_ERROR;
ARM GAS  C:\Users\user\AppData\Local\Temp\cc2XHdAe.s 			page 16


 499              		.loc 1 360 0
 500 0068 0123     		movs	r3, #1
 501 006a FB73     		strb	r3, [r7, #15]
 502              	.L34:
 361:E:/LiteOS/LiteOS_Lab/drivers/third_party/ST/STM32L4xx_HAL_Driver/Src\stm32l4xx_hal_flash_ex.c ****     }
 362:E:/LiteOS/LiteOS_Lab/drivers/third_party/ST/STM32L4xx_HAL_Driver/Src\stm32l4xx_hal_flash_ex.c ****   }
 363:E:/LiteOS/LiteOS_Lab/drivers/third_party/ST/STM32L4xx_HAL_Driver/Src\stm32l4xx_hal_flash_ex.c ****   
 364:E:/LiteOS/LiteOS_Lab/drivers/third_party/ST/STM32L4xx_HAL_Driver/Src\stm32l4xx_hal_flash_ex.c ****   /* User Configuration */
 365:E:/LiteOS/LiteOS_Lab/drivers/third_party/ST/STM32L4xx_HAL_Driver/Src\stm32l4xx_hal_flash_ex.c ****   if((pOBInit->OptionType & OPTIONBYTE_USER) != RESET)
 503              		.loc 1 365 0
 504 006c 7B68     		ldr	r3, [r7, #4]
 505 006e 1B68     		ldr	r3, [r3]
 506 0070 03F00403 		and	r3, r3, #4
 507 0074 002B     		cmp	r3, #0
 508 0076 0CD0     		beq	.L35
 366:E:/LiteOS/LiteOS_Lab/drivers/third_party/ST/STM32L4xx_HAL_Driver/Src\stm32l4xx_hal_flash_ex.c ****   {
 367:E:/LiteOS/LiteOS_Lab/drivers/third_party/ST/STM32L4xx_HAL_Driver/Src\stm32l4xx_hal_flash_ex.c ****     /* Configure the user option bytes */
 368:E:/LiteOS/LiteOS_Lab/drivers/third_party/ST/STM32L4xx_HAL_Driver/Src\stm32l4xx_hal_flash_ex.c ****     if(FLASH_OB_UserConfig(pOBInit->USERType, pOBInit->USERConfig) != HAL_OK)
 509              		.loc 1 368 0
 510 0078 7B68     		ldr	r3, [r7, #4]
 511 007a 5A69     		ldr	r2, [r3, #20]
 512 007c 7B68     		ldr	r3, [r7, #4]
 513 007e 9B69     		ldr	r3, [r3, #24]
 514 0080 1946     		mov	r1, r3
 515 0082 1046     		mov	r0, r2
 516 0084 FFF7FEFF 		bl	FLASH_OB_UserConfig
 517 0088 0346     		mov	r3, r0
 518 008a 002B     		cmp	r3, #0
 519 008c 01D0     		beq	.L35
 369:E:/LiteOS/LiteOS_Lab/drivers/third_party/ST/STM32L4xx_HAL_Driver/Src\stm32l4xx_hal_flash_ex.c ****     {
 370:E:/LiteOS/LiteOS_Lab/drivers/third_party/ST/STM32L4xx_HAL_Driver/Src\stm32l4xx_hal_flash_ex.c ****       status = HAL_ERROR;
 520              		.loc 1 370 0
 521 008e 0123     		movs	r3, #1
 522 0090 FB73     		strb	r3, [r7, #15]
 523              	.L35:
 371:E:/LiteOS/LiteOS_Lab/drivers/third_party/ST/STM32L4xx_HAL_Driver/Src\stm32l4xx_hal_flash_ex.c ****     }
 372:E:/LiteOS/LiteOS_Lab/drivers/third_party/ST/STM32L4xx_HAL_Driver/Src\stm32l4xx_hal_flash_ex.c ****   }
 373:E:/LiteOS/LiteOS_Lab/drivers/third_party/ST/STM32L4xx_HAL_Driver/Src\stm32l4xx_hal_flash_ex.c ****   
 374:E:/LiteOS/LiteOS_Lab/drivers/third_party/ST/STM32L4xx_HAL_Driver/Src\stm32l4xx_hal_flash_ex.c ****   /* PCROP Configuration */
 375:E:/LiteOS/LiteOS_Lab/drivers/third_party/ST/STM32L4xx_HAL_Driver/Src\stm32l4xx_hal_flash_ex.c ****   if((pOBInit->OptionType & OPTIONBYTE_PCROP) != RESET)
 524              		.loc 1 375 0
 525 0092 7B68     		ldr	r3, [r7, #4]
 526 0094 1B68     		ldr	r3, [r3]
 527 0096 03F00803 		and	r3, r3, #8
 528 009a 002B     		cmp	r3, #0
 529 009c 13D0     		beq	.L36
 376:E:/LiteOS/LiteOS_Lab/drivers/third_party/ST/STM32L4xx_HAL_Driver/Src\stm32l4xx_hal_flash_ex.c ****   {
 377:E:/LiteOS/LiteOS_Lab/drivers/third_party/ST/STM32L4xx_HAL_Driver/Src\stm32l4xx_hal_flash_ex.c ****     if (pOBInit->PCROPStartAddr != pOBInit->PCROPEndAddr)
 530              		.loc 1 377 0
 531 009e 7B68     		ldr	r3, [r7, #4]
 532 00a0 1A6A     		ldr	r2, [r3, #32]
 533 00a2 7B68     		ldr	r3, [r7, #4]
 534 00a4 5B6A     		ldr	r3, [r3, #36]
 535 00a6 9A42     		cmp	r2, r3
 536 00a8 0DD0     		beq	.L36
 378:E:/LiteOS/LiteOS_Lab/drivers/third_party/ST/STM32L4xx_HAL_Driver/Src\stm32l4xx_hal_flash_ex.c ****     {
 379:E:/LiteOS/LiteOS_Lab/drivers/third_party/ST/STM32L4xx_HAL_Driver/Src\stm32l4xx_hal_flash_ex.c ****       /* Configure the Proprietary code readout protection */
ARM GAS  C:\Users\user\AppData\Local\Temp\cc2XHdAe.s 			page 17


 380:E:/LiteOS/LiteOS_Lab/drivers/third_party/ST/STM32L4xx_HAL_Driver/Src\stm32l4xx_hal_flash_ex.c ****       if(FLASH_OB_PCROPConfig(pOBInit->PCROPConfig, pOBInit->PCROPStartAddr, pOBInit->PCROPEndAddr)
 537              		.loc 1 380 0
 538 00aa 7B68     		ldr	r3, [r7, #4]
 539 00ac D869     		ldr	r0, [r3, #28]
 540 00ae 7B68     		ldr	r3, [r7, #4]
 541 00b0 196A     		ldr	r1, [r3, #32]
 542 00b2 7B68     		ldr	r3, [r7, #4]
 543 00b4 5B6A     		ldr	r3, [r3, #36]
 544 00b6 1A46     		mov	r2, r3
 545 00b8 FFF7FEFF 		bl	FLASH_OB_PCROPConfig
 546 00bc 0346     		mov	r3, r0
 547 00be 002B     		cmp	r3, #0
 548 00c0 01D0     		beq	.L36
 381:E:/LiteOS/LiteOS_Lab/drivers/third_party/ST/STM32L4xx_HAL_Driver/Src\stm32l4xx_hal_flash_ex.c ****       {
 382:E:/LiteOS/LiteOS_Lab/drivers/third_party/ST/STM32L4xx_HAL_Driver/Src\stm32l4xx_hal_flash_ex.c ****         status = HAL_ERROR;
 549              		.loc 1 382 0
 550 00c2 0123     		movs	r3, #1
 551 00c4 FB73     		strb	r3, [r7, #15]
 552              	.L36:
 383:E:/LiteOS/LiteOS_Lab/drivers/third_party/ST/STM32L4xx_HAL_Driver/Src\stm32l4xx_hal_flash_ex.c ****       }
 384:E:/LiteOS/LiteOS_Lab/drivers/third_party/ST/STM32L4xx_HAL_Driver/Src\stm32l4xx_hal_flash_ex.c ****     }
 385:E:/LiteOS/LiteOS_Lab/drivers/third_party/ST/STM32L4xx_HAL_Driver/Src\stm32l4xx_hal_flash_ex.c ****   }
 386:E:/LiteOS/LiteOS_Lab/drivers/third_party/ST/STM32L4xx_HAL_Driver/Src\stm32l4xx_hal_flash_ex.c **** 
 387:E:/LiteOS/LiteOS_Lab/drivers/third_party/ST/STM32L4xx_HAL_Driver/Src\stm32l4xx_hal_flash_ex.c ****   /* Process Unlocked */
 388:E:/LiteOS/LiteOS_Lab/drivers/third_party/ST/STM32L4xx_HAL_Driver/Src\stm32l4xx_hal_flash_ex.c ****   __HAL_UNLOCK(&pFlash);
 553              		.loc 1 388 0
 554 00c6 044B     		ldr	r3, .L37
 555 00c8 0022     		movs	r2, #0
 556 00ca 1A70     		strb	r2, [r3]
 389:E:/LiteOS/LiteOS_Lab/drivers/third_party/ST/STM32L4xx_HAL_Driver/Src\stm32l4xx_hal_flash_ex.c **** 
 390:E:/LiteOS/LiteOS_Lab/drivers/third_party/ST/STM32L4xx_HAL_Driver/Src\stm32l4xx_hal_flash_ex.c ****   return status;
 557              		.loc 1 390 0
 558 00cc FB7B     		ldrb	r3, [r7, #15]	@ zero_extendqisi2
 559              	.L32:
 391:E:/LiteOS/LiteOS_Lab/drivers/third_party/ST/STM32L4xx_HAL_Driver/Src\stm32l4xx_hal_flash_ex.c **** }
 560              		.loc 1 391 0
 561 00ce 1846     		mov	r0, r3
 562 00d0 1037     		adds	r7, r7, #16
 563              	.LCFI13:
 564              		.cfi_def_cfa_offset 8
 565 00d2 BD46     		mov	sp, r7
 566              	.LCFI14:
 567              		.cfi_def_cfa_register 13
 568              		@ sp needed
 569 00d4 80BD     		pop	{r7, pc}
 570              	.L38:
 571 00d6 00BF     		.align	2
 572              	.L37:
 573 00d8 00000000 		.word	pFlash
 574              		.cfi_endproc
 575              	.LFE135:
 577              		.section	.text.HAL_FLASHEx_OBGetConfig,"ax",%progbits
 578              		.align	1
 579              		.global	HAL_FLASHEx_OBGetConfig
 580              		.syntax unified
 581              		.thumb
 582              		.thumb_func
ARM GAS  C:\Users\user\AppData\Local\Temp\cc2XHdAe.s 			page 18


 583              		.fpu fpv4-sp-d16
 585              	HAL_FLASHEx_OBGetConfig:
 586              	.LFB136:
 392:E:/LiteOS/LiteOS_Lab/drivers/third_party/ST/STM32L4xx_HAL_Driver/Src\stm32l4xx_hal_flash_ex.c **** 
 393:E:/LiteOS/LiteOS_Lab/drivers/third_party/ST/STM32L4xx_HAL_Driver/Src\stm32l4xx_hal_flash_ex.c **** /**
 394:E:/LiteOS/LiteOS_Lab/drivers/third_party/ST/STM32L4xx_HAL_Driver/Src\stm32l4xx_hal_flash_ex.c ****   * @brief  Get the Option bytes configuration.
 395:E:/LiteOS/LiteOS_Lab/drivers/third_party/ST/STM32L4xx_HAL_Driver/Src\stm32l4xx_hal_flash_ex.c ****   * @param  pOBInit: pointer to an FLASH_OBInitStruct structure that contains the 
 396:E:/LiteOS/LiteOS_Lab/drivers/third_party/ST/STM32L4xx_HAL_Driver/Src\stm32l4xx_hal_flash_ex.c ****   *                  configuration information.
 397:E:/LiteOS/LiteOS_Lab/drivers/third_party/ST/STM32L4xx_HAL_Driver/Src\stm32l4xx_hal_flash_ex.c ****   * @note   The fields pOBInit->WRPArea and pOBInit->PCROPConfig should indicate 
 398:E:/LiteOS/LiteOS_Lab/drivers/third_party/ST/STM32L4xx_HAL_Driver/Src\stm32l4xx_hal_flash_ex.c ****   *         which area is requested for the WRP and PCROP, else no information will be returned
 399:E:/LiteOS/LiteOS_Lab/drivers/third_party/ST/STM32L4xx_HAL_Driver/Src\stm32l4xx_hal_flash_ex.c ****   * 
 400:E:/LiteOS/LiteOS_Lab/drivers/third_party/ST/STM32L4xx_HAL_Driver/Src\stm32l4xx_hal_flash_ex.c ****   * @retval None
 401:E:/LiteOS/LiteOS_Lab/drivers/third_party/ST/STM32L4xx_HAL_Driver/Src\stm32l4xx_hal_flash_ex.c ****   */
 402:E:/LiteOS/LiteOS_Lab/drivers/third_party/ST/STM32L4xx_HAL_Driver/Src\stm32l4xx_hal_flash_ex.c **** void HAL_FLASHEx_OBGetConfig(FLASH_OBProgramInitTypeDef *pOBInit)
 403:E:/LiteOS/LiteOS_Lab/drivers/third_party/ST/STM32L4xx_HAL_Driver/Src\stm32l4xx_hal_flash_ex.c **** {
 587              		.loc 1 403 0
 588              		.cfi_startproc
 589              		@ args = 0, pretend = 0, frame = 8
 590              		@ frame_needed = 1, uses_anonymous_args = 0
 591 0000 80B5     		push	{r7, lr}
 592              	.LCFI15:
 593              		.cfi_def_cfa_offset 8
 594              		.cfi_offset 7, -8
 595              		.cfi_offset 14, -4
 596 0002 82B0     		sub	sp, sp, #8
 597              	.LCFI16:
 598              		.cfi_def_cfa_offset 16
 599 0004 00AF     		add	r7, sp, #0
 600              	.LCFI17:
 601              		.cfi_def_cfa_register 7
 602 0006 7860     		str	r0, [r7, #4]
 404:E:/LiteOS/LiteOS_Lab/drivers/third_party/ST/STM32L4xx_HAL_Driver/Src\stm32l4xx_hal_flash_ex.c ****   pOBInit->OptionType = (OPTIONBYTE_RDP | OPTIONBYTE_USER);
 603              		.loc 1 404 0
 604 0008 7B68     		ldr	r3, [r7, #4]
 605 000a 0622     		movs	r2, #6
 606 000c 1A60     		str	r2, [r3]
 405:E:/LiteOS/LiteOS_Lab/drivers/third_party/ST/STM32L4xx_HAL_Driver/Src\stm32l4xx_hal_flash_ex.c **** 
 406:E:/LiteOS/LiteOS_Lab/drivers/third_party/ST/STM32L4xx_HAL_Driver/Src\stm32l4xx_hal_flash_ex.c **** #if defined (STM32L471xx) || defined (STM32L475xx) || defined (STM32L476xx) || defined (STM32L485xx
 407:E:/LiteOS/LiteOS_Lab/drivers/third_party/ST/STM32L4xx_HAL_Driver/Src\stm32l4xx_hal_flash_ex.c ****     defined (STM32L496xx) || defined (STM32L4A6xx) || \
 408:E:/LiteOS/LiteOS_Lab/drivers/third_party/ST/STM32L4xx_HAL_Driver/Src\stm32l4xx_hal_flash_ex.c ****     defined (STM32L4R5xx) || defined (STM32L4R7xx) || defined (STM32L4R9xx) || defined (STM32L4S5xx
 409:E:/LiteOS/LiteOS_Lab/drivers/third_party/ST/STM32L4xx_HAL_Driver/Src\stm32l4xx_hal_flash_ex.c ****   if((pOBInit->WRPArea == OB_WRPAREA_BANK1_AREAA) || (pOBInit->WRPArea == OB_WRPAREA_BANK1_AREAB) |
 410:E:/LiteOS/LiteOS_Lab/drivers/third_party/ST/STM32L4xx_HAL_Driver/Src\stm32l4xx_hal_flash_ex.c ****      (pOBInit->WRPArea == OB_WRPAREA_BANK2_AREAA) || (pOBInit->WRPArea == OB_WRPAREA_BANK2_AREAB))
 411:E:/LiteOS/LiteOS_Lab/drivers/third_party/ST/STM32L4xx_HAL_Driver/Src\stm32l4xx_hal_flash_ex.c **** #else
 412:E:/LiteOS/LiteOS_Lab/drivers/third_party/ST/STM32L4xx_HAL_Driver/Src\stm32l4xx_hal_flash_ex.c ****   if((pOBInit->WRPArea == OB_WRPAREA_BANK1_AREAA) || (pOBInit->WRPArea == OB_WRPAREA_BANK1_AREAB))
 607              		.loc 1 412 0
 608 000e 7B68     		ldr	r3, [r7, #4]
 609 0010 5B68     		ldr	r3, [r3, #4]
 610 0012 002B     		cmp	r3, #0
 611 0014 03D0     		beq	.L40
 612              		.loc 1 412 0 is_stmt 0 discriminator 1
 613 0016 7B68     		ldr	r3, [r7, #4]
 614 0018 5B68     		ldr	r3, [r3, #4]
 615 001a 012B     		cmp	r3, #1
 616 001c 0FD1     		bne	.L41
 617              	.L40:
 413:E:/LiteOS/LiteOS_Lab/drivers/third_party/ST/STM32L4xx_HAL_Driver/Src\stm32l4xx_hal_flash_ex.c **** #endif
 414:E:/LiteOS/LiteOS_Lab/drivers/third_party/ST/STM32L4xx_HAL_Driver/Src\stm32l4xx_hal_flash_ex.c ****   {
ARM GAS  C:\Users\user\AppData\Local\Temp\cc2XHdAe.s 			page 19


 415:E:/LiteOS/LiteOS_Lab/drivers/third_party/ST/STM32L4xx_HAL_Driver/Src\stm32l4xx_hal_flash_ex.c ****     pOBInit->OptionType |= OPTIONBYTE_WRP;
 618              		.loc 1 415 0 is_stmt 1
 619 001e 7B68     		ldr	r3, [r7, #4]
 620 0020 1B68     		ldr	r3, [r3]
 621 0022 43F00102 		orr	r2, r3, #1
 622 0026 7B68     		ldr	r3, [r7, #4]
 623 0028 1A60     		str	r2, [r3]
 416:E:/LiteOS/LiteOS_Lab/drivers/third_party/ST/STM32L4xx_HAL_Driver/Src\stm32l4xx_hal_flash_ex.c ****     /* Get write protection on the selected area */
 417:E:/LiteOS/LiteOS_Lab/drivers/third_party/ST/STM32L4xx_HAL_Driver/Src\stm32l4xx_hal_flash_ex.c ****     FLASH_OB_GetWRP(pOBInit->WRPArea, &(pOBInit->WRPStartOffset), &(pOBInit->WRPEndOffset));
 624              		.loc 1 417 0
 625 002a 7B68     		ldr	r3, [r7, #4]
 626 002c 5868     		ldr	r0, [r3, #4]
 627 002e 7B68     		ldr	r3, [r7, #4]
 628 0030 03F10801 		add	r1, r3, #8
 629 0034 7B68     		ldr	r3, [r7, #4]
 630 0036 0C33     		adds	r3, r3, #12
 631 0038 1A46     		mov	r2, r3
 632 003a FFF7FEFF 		bl	FLASH_OB_GetWRP
 633              	.L41:
 418:E:/LiteOS/LiteOS_Lab/drivers/third_party/ST/STM32L4xx_HAL_Driver/Src\stm32l4xx_hal_flash_ex.c ****   }
 419:E:/LiteOS/LiteOS_Lab/drivers/third_party/ST/STM32L4xx_HAL_Driver/Src\stm32l4xx_hal_flash_ex.c ****   
 420:E:/LiteOS/LiteOS_Lab/drivers/third_party/ST/STM32L4xx_HAL_Driver/Src\stm32l4xx_hal_flash_ex.c ****   /* Get Read protection level */
 421:E:/LiteOS/LiteOS_Lab/drivers/third_party/ST/STM32L4xx_HAL_Driver/Src\stm32l4xx_hal_flash_ex.c ****   pOBInit->RDPLevel = FLASH_OB_GetRDP();
 634              		.loc 1 421 0
 635 003e FFF7FEFF 		bl	FLASH_OB_GetRDP
 636 0042 0246     		mov	r2, r0
 637 0044 7B68     		ldr	r3, [r7, #4]
 638 0046 1A61     		str	r2, [r3, #16]
 422:E:/LiteOS/LiteOS_Lab/drivers/third_party/ST/STM32L4xx_HAL_Driver/Src\stm32l4xx_hal_flash_ex.c ****   
 423:E:/LiteOS/LiteOS_Lab/drivers/third_party/ST/STM32L4xx_HAL_Driver/Src\stm32l4xx_hal_flash_ex.c ****   /* Get the user option bytes */
 424:E:/LiteOS/LiteOS_Lab/drivers/third_party/ST/STM32L4xx_HAL_Driver/Src\stm32l4xx_hal_flash_ex.c ****   pOBInit->USERConfig = FLASH_OB_GetUser();
 639              		.loc 1 424 0
 640 0048 FFF7FEFF 		bl	FLASH_OB_GetUser
 641 004c 0246     		mov	r2, r0
 642 004e 7B68     		ldr	r3, [r7, #4]
 643 0050 9A61     		str	r2, [r3, #24]
 425:E:/LiteOS/LiteOS_Lab/drivers/third_party/ST/STM32L4xx_HAL_Driver/Src\stm32l4xx_hal_flash_ex.c ****   
 426:E:/LiteOS/LiteOS_Lab/drivers/third_party/ST/STM32L4xx_HAL_Driver/Src\stm32l4xx_hal_flash_ex.c **** #if defined (STM32L471xx) || defined (STM32L475xx) || defined (STM32L476xx) || defined (STM32L485xx
 427:E:/LiteOS/LiteOS_Lab/drivers/third_party/ST/STM32L4xx_HAL_Driver/Src\stm32l4xx_hal_flash_ex.c ****     defined (STM32L496xx) || defined (STM32L4A6xx) || \
 428:E:/LiteOS/LiteOS_Lab/drivers/third_party/ST/STM32L4xx_HAL_Driver/Src\stm32l4xx_hal_flash_ex.c ****     defined (STM32L4R5xx) || defined (STM32L4R7xx) || defined (STM32L4R9xx) || defined (STM32L4S5xx
 429:E:/LiteOS/LiteOS_Lab/drivers/third_party/ST/STM32L4xx_HAL_Driver/Src\stm32l4xx_hal_flash_ex.c ****   if((pOBInit->PCROPConfig == FLASH_BANK_1) || (pOBInit->PCROPConfig == FLASH_BANK_2))
 430:E:/LiteOS/LiteOS_Lab/drivers/third_party/ST/STM32L4xx_HAL_Driver/Src\stm32l4xx_hal_flash_ex.c **** #else
 431:E:/LiteOS/LiteOS_Lab/drivers/third_party/ST/STM32L4xx_HAL_Driver/Src\stm32l4xx_hal_flash_ex.c ****   if(pOBInit->PCROPConfig == FLASH_BANK_1)
 644              		.loc 1 431 0
 645 0052 7B68     		ldr	r3, [r7, #4]
 646 0054 DB69     		ldr	r3, [r3, #28]
 647 0056 012B     		cmp	r3, #1
 648 0058 10D1     		bne	.L43
 432:E:/LiteOS/LiteOS_Lab/drivers/third_party/ST/STM32L4xx_HAL_Driver/Src\stm32l4xx_hal_flash_ex.c **** #endif    
 433:E:/LiteOS/LiteOS_Lab/drivers/third_party/ST/STM32L4xx_HAL_Driver/Src\stm32l4xx_hal_flash_ex.c ****   {
 434:E:/LiteOS/LiteOS_Lab/drivers/third_party/ST/STM32L4xx_HAL_Driver/Src\stm32l4xx_hal_flash_ex.c ****     pOBInit->OptionType |= OPTIONBYTE_PCROP;
 649              		.loc 1 434 0
 650 005a 7B68     		ldr	r3, [r7, #4]
 651 005c 1B68     		ldr	r3, [r3]
 652 005e 43F00802 		orr	r2, r3, #8
 653 0062 7B68     		ldr	r3, [r7, #4]
 654 0064 1A60     		str	r2, [r3]
ARM GAS  C:\Users\user\AppData\Local\Temp\cc2XHdAe.s 			page 20


 435:E:/LiteOS/LiteOS_Lab/drivers/third_party/ST/STM32L4xx_HAL_Driver/Src\stm32l4xx_hal_flash_ex.c ****     /* Get the Proprietary code readout protection */
 436:E:/LiteOS/LiteOS_Lab/drivers/third_party/ST/STM32L4xx_HAL_Driver/Src\stm32l4xx_hal_flash_ex.c ****     FLASH_OB_GetPCROP(&(pOBInit->PCROPConfig), &(pOBInit->PCROPStartAddr), &(pOBInit->PCROPEndAddr)
 655              		.loc 1 436 0
 656 0066 7B68     		ldr	r3, [r7, #4]
 657 0068 03F11C00 		add	r0, r3, #28
 658 006c 7B68     		ldr	r3, [r7, #4]
 659 006e 03F12001 		add	r1, r3, #32
 660 0072 7B68     		ldr	r3, [r7, #4]
 661 0074 2433     		adds	r3, r3, #36
 662 0076 1A46     		mov	r2, r3
 663 0078 FFF7FEFF 		bl	FLASH_OB_GetPCROP
 664              	.L43:
 437:E:/LiteOS/LiteOS_Lab/drivers/third_party/ST/STM32L4xx_HAL_Driver/Src\stm32l4xx_hal_flash_ex.c ****   }
 438:E:/LiteOS/LiteOS_Lab/drivers/third_party/ST/STM32L4xx_HAL_Driver/Src\stm32l4xx_hal_flash_ex.c **** }
 665              		.loc 1 438 0
 666 007c 00BF     		nop
 667 007e 0837     		adds	r7, r7, #8
 668              	.LCFI18:
 669              		.cfi_def_cfa_offset 8
 670 0080 BD46     		mov	sp, r7
 671              	.LCFI19:
 672              		.cfi_def_cfa_register 13
 673              		@ sp needed
 674 0082 80BD     		pop	{r7, pc}
 675              		.cfi_endproc
 676              	.LFE136:
 678              		.section	.text.FLASH_MassErase,"ax",%progbits
 679              		.align	1
 680              		.syntax unified
 681              		.thumb
 682              		.thumb_func
 683              		.fpu fpv4-sp-d16
 685              	FLASH_MassErase:
 686              	.LFB137:
 439:E:/LiteOS/LiteOS_Lab/drivers/third_party/ST/STM32L4xx_HAL_Driver/Src\stm32l4xx_hal_flash_ex.c **** 
 440:E:/LiteOS/LiteOS_Lab/drivers/third_party/ST/STM32L4xx_HAL_Driver/Src\stm32l4xx_hal_flash_ex.c **** /**
 441:E:/LiteOS/LiteOS_Lab/drivers/third_party/ST/STM32L4xx_HAL_Driver/Src\stm32l4xx_hal_flash_ex.c ****   * @}
 442:E:/LiteOS/LiteOS_Lab/drivers/third_party/ST/STM32L4xx_HAL_Driver/Src\stm32l4xx_hal_flash_ex.c ****   */ 
 443:E:/LiteOS/LiteOS_Lab/drivers/third_party/ST/STM32L4xx_HAL_Driver/Src\stm32l4xx_hal_flash_ex.c **** 
 444:E:/LiteOS/LiteOS_Lab/drivers/third_party/ST/STM32L4xx_HAL_Driver/Src\stm32l4xx_hal_flash_ex.c **** #if defined (FLASH_CFGR_LVEN)
 445:E:/LiteOS/LiteOS_Lab/drivers/third_party/ST/STM32L4xx_HAL_Driver/Src\stm32l4xx_hal_flash_ex.c **** /** @defgroup FLASHEx_Exported_Functions_Group2 Extended specific configuration functions
 446:E:/LiteOS/LiteOS_Lab/drivers/third_party/ST/STM32L4xx_HAL_Driver/Src\stm32l4xx_hal_flash_ex.c ****  *  @brief   Extended specific configuration functions
 447:E:/LiteOS/LiteOS_Lab/drivers/third_party/ST/STM32L4xx_HAL_Driver/Src\stm32l4xx_hal_flash_ex.c ****  *
 448:E:/LiteOS/LiteOS_Lab/drivers/third_party/ST/STM32L4xx_HAL_Driver/Src\stm32l4xx_hal_flash_ex.c **** @verbatim
 449:E:/LiteOS/LiteOS_Lab/drivers/third_party/ST/STM32L4xx_HAL_Driver/Src\stm32l4xx_hal_flash_ex.c ****  ===============================================================================
 450:E:/LiteOS/LiteOS_Lab/drivers/third_party/ST/STM32L4xx_HAL_Driver/Src\stm32l4xx_hal_flash_ex.c ****                 ##### Extended specific configuration functions #####
 451:E:/LiteOS/LiteOS_Lab/drivers/third_party/ST/STM32L4xx_HAL_Driver/Src\stm32l4xx_hal_flash_ex.c ****  ===============================================================================
 452:E:/LiteOS/LiteOS_Lab/drivers/third_party/ST/STM32L4xx_HAL_Driver/Src\stm32l4xx_hal_flash_ex.c ****     [..]
 453:E:/LiteOS/LiteOS_Lab/drivers/third_party/ST/STM32L4xx_HAL_Driver/Src\stm32l4xx_hal_flash_ex.c ****     This subsection provides a set of functions allowing to manage the Extended FLASH
 454:E:/LiteOS/LiteOS_Lab/drivers/third_party/ST/STM32L4xx_HAL_Driver/Src\stm32l4xx_hal_flash_ex.c ****     specific configurations.
 455:E:/LiteOS/LiteOS_Lab/drivers/third_party/ST/STM32L4xx_HAL_Driver/Src\stm32l4xx_hal_flash_ex.c **** 
 456:E:/LiteOS/LiteOS_Lab/drivers/third_party/ST/STM32L4xx_HAL_Driver/Src\stm32l4xx_hal_flash_ex.c **** @endverbatim
 457:E:/LiteOS/LiteOS_Lab/drivers/third_party/ST/STM32L4xx_HAL_Driver/Src\stm32l4xx_hal_flash_ex.c ****   * @{
 458:E:/LiteOS/LiteOS_Lab/drivers/third_party/ST/STM32L4xx_HAL_Driver/Src\stm32l4xx_hal_flash_ex.c ****   */
 459:E:/LiteOS/LiteOS_Lab/drivers/third_party/ST/STM32L4xx_HAL_Driver/Src\stm32l4xx_hal_flash_ex.c **** 
 460:E:/LiteOS/LiteOS_Lab/drivers/third_party/ST/STM32L4xx_HAL_Driver/Src\stm32l4xx_hal_flash_ex.c **** /**
 461:E:/LiteOS/LiteOS_Lab/drivers/third_party/ST/STM32L4xx_HAL_Driver/Src\stm32l4xx_hal_flash_ex.c ****   * @brief  Configuration of the LVE pin of the Flash (managed by power controller
ARM GAS  C:\Users\user\AppData\Local\Temp\cc2XHdAe.s 			page 21


 462:E:/LiteOS/LiteOS_Lab/drivers/third_party/ST/STM32L4xx_HAL_Driver/Src\stm32l4xx_hal_flash_ex.c ****   *         or forced to low in order to use an external SMPS)
 463:E:/LiteOS/LiteOS_Lab/drivers/third_party/ST/STM32L4xx_HAL_Driver/Src\stm32l4xx_hal_flash_ex.c ****   * @param  ConfigLVE: Configuration of the LVE pin,
 464:E:/LiteOS/LiteOS_Lab/drivers/third_party/ST/STM32L4xx_HAL_Driver/Src\stm32l4xx_hal_flash_ex.c ****   *              This parameter can be one of the following values:
 465:E:/LiteOS/LiteOS_Lab/drivers/third_party/ST/STM32L4xx_HAL_Driver/Src\stm32l4xx_hal_flash_ex.c ****   *                @arg FLASH_LVE_PIN_CTRL: LVE FLASH pin controlled by power controller
 466:E:/LiteOS/LiteOS_Lab/drivers/third_party/ST/STM32L4xx_HAL_Driver/Src\stm32l4xx_hal_flash_ex.c ****   *                @arg FLASH_LVE_PIN_FORCED: LVE FLASH pin enforced to low (external SMPS used)
 467:E:/LiteOS/LiteOS_Lab/drivers/third_party/ST/STM32L4xx_HAL_Driver/Src\stm32l4xx_hal_flash_ex.c ****   *
 468:E:/LiteOS/LiteOS_Lab/drivers/third_party/ST/STM32L4xx_HAL_Driver/Src\stm32l4xx_hal_flash_ex.c ****   * @note   Before enforcing the LVE pin to low, the SOC should be in low voltage
 469:E:/LiteOS/LiteOS_Lab/drivers/third_party/ST/STM32L4xx_HAL_Driver/Src\stm32l4xx_hal_flash_ex.c ****   *         range 2 and the voltage VDD12 should be higher than 1.08V and SMPS is ON.
 470:E:/LiteOS/LiteOS_Lab/drivers/third_party/ST/STM32L4xx_HAL_Driver/Src\stm32l4xx_hal_flash_ex.c ****   *
 471:E:/LiteOS/LiteOS_Lab/drivers/third_party/ST/STM32L4xx_HAL_Driver/Src\stm32l4xx_hal_flash_ex.c ****   * @retval HAL Status
 472:E:/LiteOS/LiteOS_Lab/drivers/third_party/ST/STM32L4xx_HAL_Driver/Src\stm32l4xx_hal_flash_ex.c ****   */
 473:E:/LiteOS/LiteOS_Lab/drivers/third_party/ST/STM32L4xx_HAL_Driver/Src\stm32l4xx_hal_flash_ex.c **** HAL_StatusTypeDef HAL_FLASHEx_ConfigLVEPin(uint32_t ConfigLVE)
 474:E:/LiteOS/LiteOS_Lab/drivers/third_party/ST/STM32L4xx_HAL_Driver/Src\stm32l4xx_hal_flash_ex.c **** {
 475:E:/LiteOS/LiteOS_Lab/drivers/third_party/ST/STM32L4xx_HAL_Driver/Src\stm32l4xx_hal_flash_ex.c ****   HAL_StatusTypeDef status = HAL_OK;
 476:E:/LiteOS/LiteOS_Lab/drivers/third_party/ST/STM32L4xx_HAL_Driver/Src\stm32l4xx_hal_flash_ex.c **** 
 477:E:/LiteOS/LiteOS_Lab/drivers/third_party/ST/STM32L4xx_HAL_Driver/Src\stm32l4xx_hal_flash_ex.c ****   /* Process Locked */
 478:E:/LiteOS/LiteOS_Lab/drivers/third_party/ST/STM32L4xx_HAL_Driver/Src\stm32l4xx_hal_flash_ex.c ****   __HAL_LOCK(&pFlash);
 479:E:/LiteOS/LiteOS_Lab/drivers/third_party/ST/STM32L4xx_HAL_Driver/Src\stm32l4xx_hal_flash_ex.c **** 
 480:E:/LiteOS/LiteOS_Lab/drivers/third_party/ST/STM32L4xx_HAL_Driver/Src\stm32l4xx_hal_flash_ex.c ****   /* Check the parameters */
 481:E:/LiteOS/LiteOS_Lab/drivers/third_party/ST/STM32L4xx_HAL_Driver/Src\stm32l4xx_hal_flash_ex.c ****   assert_param(IS_FLASH_LVE_PIN(ConfigLVE));
 482:E:/LiteOS/LiteOS_Lab/drivers/third_party/ST/STM32L4xx_HAL_Driver/Src\stm32l4xx_hal_flash_ex.c **** 
 483:E:/LiteOS/LiteOS_Lab/drivers/third_party/ST/STM32L4xx_HAL_Driver/Src\stm32l4xx_hal_flash_ex.c ****   /* Wait for last operation to be completed */
 484:E:/LiteOS/LiteOS_Lab/drivers/third_party/ST/STM32L4xx_HAL_Driver/Src\stm32l4xx_hal_flash_ex.c ****   status = FLASH_WaitForLastOperation((uint32_t)FLASH_TIMEOUT_VALUE);
 485:E:/LiteOS/LiteOS_Lab/drivers/third_party/ST/STM32L4xx_HAL_Driver/Src\stm32l4xx_hal_flash_ex.c **** 
 486:E:/LiteOS/LiteOS_Lab/drivers/third_party/ST/STM32L4xx_HAL_Driver/Src\stm32l4xx_hal_flash_ex.c ****   if (status == HAL_OK)
 487:E:/LiteOS/LiteOS_Lab/drivers/third_party/ST/STM32L4xx_HAL_Driver/Src\stm32l4xx_hal_flash_ex.c ****   {
 488:E:/LiteOS/LiteOS_Lab/drivers/third_party/ST/STM32L4xx_HAL_Driver/Src\stm32l4xx_hal_flash_ex.c ****     /* Check that the voltage scaling is range 2 */
 489:E:/LiteOS/LiteOS_Lab/drivers/third_party/ST/STM32L4xx_HAL_Driver/Src\stm32l4xx_hal_flash_ex.c ****     if (HAL_PWREx_GetVoltageRange() == PWR_REGULATOR_VOLTAGE_SCALE2)
 490:E:/LiteOS/LiteOS_Lab/drivers/third_party/ST/STM32L4xx_HAL_Driver/Src\stm32l4xx_hal_flash_ex.c ****     {
 491:E:/LiteOS/LiteOS_Lab/drivers/third_party/ST/STM32L4xx_HAL_Driver/Src\stm32l4xx_hal_flash_ex.c ****       /* Configure the LVEN bit */
 492:E:/LiteOS/LiteOS_Lab/drivers/third_party/ST/STM32L4xx_HAL_Driver/Src\stm32l4xx_hal_flash_ex.c ****       MODIFY_REG(FLASH->CFGR, FLASH_CFGR_LVEN, ConfigLVE);
 493:E:/LiteOS/LiteOS_Lab/drivers/third_party/ST/STM32L4xx_HAL_Driver/Src\stm32l4xx_hal_flash_ex.c ****  
 494:E:/LiteOS/LiteOS_Lab/drivers/third_party/ST/STM32L4xx_HAL_Driver/Src\stm32l4xx_hal_flash_ex.c ****       /* Check that the bit has been correctly configured */
 495:E:/LiteOS/LiteOS_Lab/drivers/third_party/ST/STM32L4xx_HAL_Driver/Src\stm32l4xx_hal_flash_ex.c ****       if (READ_BIT(FLASH->CFGR, FLASH_CFGR_LVEN) != ConfigLVE)
 496:E:/LiteOS/LiteOS_Lab/drivers/third_party/ST/STM32L4xx_HAL_Driver/Src\stm32l4xx_hal_flash_ex.c ****       {
 497:E:/LiteOS/LiteOS_Lab/drivers/third_party/ST/STM32L4xx_HAL_Driver/Src\stm32l4xx_hal_flash_ex.c ****         status = HAL_ERROR;
 498:E:/LiteOS/LiteOS_Lab/drivers/third_party/ST/STM32L4xx_HAL_Driver/Src\stm32l4xx_hal_flash_ex.c ****       }
 499:E:/LiteOS/LiteOS_Lab/drivers/third_party/ST/STM32L4xx_HAL_Driver/Src\stm32l4xx_hal_flash_ex.c ****     }
 500:E:/LiteOS/LiteOS_Lab/drivers/third_party/ST/STM32L4xx_HAL_Driver/Src\stm32l4xx_hal_flash_ex.c ****     else
 501:E:/LiteOS/LiteOS_Lab/drivers/third_party/ST/STM32L4xx_HAL_Driver/Src\stm32l4xx_hal_flash_ex.c ****     {
 502:E:/LiteOS/LiteOS_Lab/drivers/third_party/ST/STM32L4xx_HAL_Driver/Src\stm32l4xx_hal_flash_ex.c ****       /* Not allow to force Flash LVE pin if not in voltage range 2 */
 503:E:/LiteOS/LiteOS_Lab/drivers/third_party/ST/STM32L4xx_HAL_Driver/Src\stm32l4xx_hal_flash_ex.c ****       status = HAL_ERROR;
 504:E:/LiteOS/LiteOS_Lab/drivers/third_party/ST/STM32L4xx_HAL_Driver/Src\stm32l4xx_hal_flash_ex.c ****     }
 505:E:/LiteOS/LiteOS_Lab/drivers/third_party/ST/STM32L4xx_HAL_Driver/Src\stm32l4xx_hal_flash_ex.c ****   }
 506:E:/LiteOS/LiteOS_Lab/drivers/third_party/ST/STM32L4xx_HAL_Driver/Src\stm32l4xx_hal_flash_ex.c **** 
 507:E:/LiteOS/LiteOS_Lab/drivers/third_party/ST/STM32L4xx_HAL_Driver/Src\stm32l4xx_hal_flash_ex.c ****   /* Process Unlocked */
 508:E:/LiteOS/LiteOS_Lab/drivers/third_party/ST/STM32L4xx_HAL_Driver/Src\stm32l4xx_hal_flash_ex.c ****   __HAL_UNLOCK(&pFlash);
 509:E:/LiteOS/LiteOS_Lab/drivers/third_party/ST/STM32L4xx_HAL_Driver/Src\stm32l4xx_hal_flash_ex.c **** 
 510:E:/LiteOS/LiteOS_Lab/drivers/third_party/ST/STM32L4xx_HAL_Driver/Src\stm32l4xx_hal_flash_ex.c ****   return status;
 511:E:/LiteOS/LiteOS_Lab/drivers/third_party/ST/STM32L4xx_HAL_Driver/Src\stm32l4xx_hal_flash_ex.c **** }
 512:E:/LiteOS/LiteOS_Lab/drivers/third_party/ST/STM32L4xx_HAL_Driver/Src\stm32l4xx_hal_flash_ex.c **** 
 513:E:/LiteOS/LiteOS_Lab/drivers/third_party/ST/STM32L4xx_HAL_Driver/Src\stm32l4xx_hal_flash_ex.c **** /**
 514:E:/LiteOS/LiteOS_Lab/drivers/third_party/ST/STM32L4xx_HAL_Driver/Src\stm32l4xx_hal_flash_ex.c ****   * @}
 515:E:/LiteOS/LiteOS_Lab/drivers/third_party/ST/STM32L4xx_HAL_Driver/Src\stm32l4xx_hal_flash_ex.c ****   */
 516:E:/LiteOS/LiteOS_Lab/drivers/third_party/ST/STM32L4xx_HAL_Driver/Src\stm32l4xx_hal_flash_ex.c **** #endif /* FLASH_CFGR_LVEN */
 517:E:/LiteOS/LiteOS_Lab/drivers/third_party/ST/STM32L4xx_HAL_Driver/Src\stm32l4xx_hal_flash_ex.c **** 
 518:E:/LiteOS/LiteOS_Lab/drivers/third_party/ST/STM32L4xx_HAL_Driver/Src\stm32l4xx_hal_flash_ex.c **** /**
ARM GAS  C:\Users\user\AppData\Local\Temp\cc2XHdAe.s 			page 22


 519:E:/LiteOS/LiteOS_Lab/drivers/third_party/ST/STM32L4xx_HAL_Driver/Src\stm32l4xx_hal_flash_ex.c ****   * @}
 520:E:/LiteOS/LiteOS_Lab/drivers/third_party/ST/STM32L4xx_HAL_Driver/Src\stm32l4xx_hal_flash_ex.c ****   */
 521:E:/LiteOS/LiteOS_Lab/drivers/third_party/ST/STM32L4xx_HAL_Driver/Src\stm32l4xx_hal_flash_ex.c **** 
 522:E:/LiteOS/LiteOS_Lab/drivers/third_party/ST/STM32L4xx_HAL_Driver/Src\stm32l4xx_hal_flash_ex.c **** /* Private functions ---------------------------------------------------------*/
 523:E:/LiteOS/LiteOS_Lab/drivers/third_party/ST/STM32L4xx_HAL_Driver/Src\stm32l4xx_hal_flash_ex.c **** 
 524:E:/LiteOS/LiteOS_Lab/drivers/third_party/ST/STM32L4xx_HAL_Driver/Src\stm32l4xx_hal_flash_ex.c **** /** @addtogroup FLASHEx_Private_Functions
 525:E:/LiteOS/LiteOS_Lab/drivers/third_party/ST/STM32L4xx_HAL_Driver/Src\stm32l4xx_hal_flash_ex.c ****   * @{
 526:E:/LiteOS/LiteOS_Lab/drivers/third_party/ST/STM32L4xx_HAL_Driver/Src\stm32l4xx_hal_flash_ex.c ****   */
 527:E:/LiteOS/LiteOS_Lab/drivers/third_party/ST/STM32L4xx_HAL_Driver/Src\stm32l4xx_hal_flash_ex.c **** /**
 528:E:/LiteOS/LiteOS_Lab/drivers/third_party/ST/STM32L4xx_HAL_Driver/Src\stm32l4xx_hal_flash_ex.c ****   * @brief  Mass erase of FLASH memory.
 529:E:/LiteOS/LiteOS_Lab/drivers/third_party/ST/STM32L4xx_HAL_Driver/Src\stm32l4xx_hal_flash_ex.c ****   * @param  Banks: Banks to be erased
 530:E:/LiteOS/LiteOS_Lab/drivers/third_party/ST/STM32L4xx_HAL_Driver/Src\stm32l4xx_hal_flash_ex.c ****   *          This parameter can be one of the following values:
 531:E:/LiteOS/LiteOS_Lab/drivers/third_party/ST/STM32L4xx_HAL_Driver/Src\stm32l4xx_hal_flash_ex.c ****   *            @arg FLASH_BANK_1: Bank1 to be erased
 532:E:/LiteOS/LiteOS_Lab/drivers/third_party/ST/STM32L4xx_HAL_Driver/Src\stm32l4xx_hal_flash_ex.c ****   *            @arg FLASH_BANK_2: Bank2 to be erased
 533:E:/LiteOS/LiteOS_Lab/drivers/third_party/ST/STM32L4xx_HAL_Driver/Src\stm32l4xx_hal_flash_ex.c ****   *            @arg FLASH_BANK_BOTH: Bank1 and Bank2 to be erased
 534:E:/LiteOS/LiteOS_Lab/drivers/third_party/ST/STM32L4xx_HAL_Driver/Src\stm32l4xx_hal_flash_ex.c ****   * @retval None
 535:E:/LiteOS/LiteOS_Lab/drivers/third_party/ST/STM32L4xx_HAL_Driver/Src\stm32l4xx_hal_flash_ex.c ****   */
 536:E:/LiteOS/LiteOS_Lab/drivers/third_party/ST/STM32L4xx_HAL_Driver/Src\stm32l4xx_hal_flash_ex.c **** static void FLASH_MassErase(uint32_t Banks)
 537:E:/LiteOS/LiteOS_Lab/drivers/third_party/ST/STM32L4xx_HAL_Driver/Src\stm32l4xx_hal_flash_ex.c **** {
 687              		.loc 1 537 0
 688              		.cfi_startproc
 689              		@ args = 0, pretend = 0, frame = 8
 690              		@ frame_needed = 1, uses_anonymous_args = 0
 691              		@ link register save eliminated.
 692 0000 80B4     		push	{r7}
 693              	.LCFI20:
 694              		.cfi_def_cfa_offset 4
 695              		.cfi_offset 7, -4
 696 0002 83B0     		sub	sp, sp, #12
 697              	.LCFI21:
 698              		.cfi_def_cfa_offset 16
 699 0004 00AF     		add	r7, sp, #0
 700              	.LCFI22:
 701              		.cfi_def_cfa_register 7
 702 0006 7860     		str	r0, [r7, #4]
 538:E:/LiteOS/LiteOS_Lab/drivers/third_party/ST/STM32L4xx_HAL_Driver/Src\stm32l4xx_hal_flash_ex.c **** #if defined (STM32L4R5xx) || defined (STM32L4R7xx) || defined (STM32L4R9xx) || defined (STM32L4S5xx
 539:E:/LiteOS/LiteOS_Lab/drivers/third_party/ST/STM32L4xx_HAL_Driver/Src\stm32l4xx_hal_flash_ex.c ****   if (READ_BIT(FLASH->OPTR, FLASH_OPTR_DBANK) != RESET)
 540:E:/LiteOS/LiteOS_Lab/drivers/third_party/ST/STM32L4xx_HAL_Driver/Src\stm32l4xx_hal_flash_ex.c **** #endif
 541:E:/LiteOS/LiteOS_Lab/drivers/third_party/ST/STM32L4xx_HAL_Driver/Src\stm32l4xx_hal_flash_ex.c ****   {
 542:E:/LiteOS/LiteOS_Lab/drivers/third_party/ST/STM32L4xx_HAL_Driver/Src\stm32l4xx_hal_flash_ex.c ****     /* Check the parameters */
 543:E:/LiteOS/LiteOS_Lab/drivers/third_party/ST/STM32L4xx_HAL_Driver/Src\stm32l4xx_hal_flash_ex.c ****     assert_param(IS_FLASH_BANK(Banks));
 544:E:/LiteOS/LiteOS_Lab/drivers/third_party/ST/STM32L4xx_HAL_Driver/Src\stm32l4xx_hal_flash_ex.c **** 
 545:E:/LiteOS/LiteOS_Lab/drivers/third_party/ST/STM32L4xx_HAL_Driver/Src\stm32l4xx_hal_flash_ex.c ****     /* Set the Mass Erase Bit for the bank 1 if requested */
 546:E:/LiteOS/LiteOS_Lab/drivers/third_party/ST/STM32L4xx_HAL_Driver/Src\stm32l4xx_hal_flash_ex.c ****     if((Banks & FLASH_BANK_1) != RESET)
 703              		.loc 1 546 0
 704 0008 7B68     		ldr	r3, [r7, #4]
 705 000a 03F00103 		and	r3, r3, #1
 706 000e 002B     		cmp	r3, #0
 707 0010 05D0     		beq	.L45
 547:E:/LiteOS/LiteOS_Lab/drivers/third_party/ST/STM32L4xx_HAL_Driver/Src\stm32l4xx_hal_flash_ex.c ****     {
 548:E:/LiteOS/LiteOS_Lab/drivers/third_party/ST/STM32L4xx_HAL_Driver/Src\stm32l4xx_hal_flash_ex.c ****       SET_BIT(FLASH->CR, FLASH_CR_MER1);
 708              		.loc 1 548 0
 709 0012 094B     		ldr	r3, .L46
 710 0014 5B69     		ldr	r3, [r3, #20]
 711 0016 084A     		ldr	r2, .L46
 712 0018 43F00403 		orr	r3, r3, #4
 713 001c 5361     		str	r3, [r2, #20]
ARM GAS  C:\Users\user\AppData\Local\Temp\cc2XHdAe.s 			page 23


 714              	.L45:
 549:E:/LiteOS/LiteOS_Lab/drivers/third_party/ST/STM32L4xx_HAL_Driver/Src\stm32l4xx_hal_flash_ex.c ****     }
 550:E:/LiteOS/LiteOS_Lab/drivers/third_party/ST/STM32L4xx_HAL_Driver/Src\stm32l4xx_hal_flash_ex.c ****     
 551:E:/LiteOS/LiteOS_Lab/drivers/third_party/ST/STM32L4xx_HAL_Driver/Src\stm32l4xx_hal_flash_ex.c **** #if defined (STM32L471xx) || defined (STM32L475xx) || defined (STM32L476xx) || defined (STM32L485xx
 552:E:/LiteOS/LiteOS_Lab/drivers/third_party/ST/STM32L4xx_HAL_Driver/Src\stm32l4xx_hal_flash_ex.c ****     defined (STM32L496xx) || defined (STM32L4A6xx) || \
 553:E:/LiteOS/LiteOS_Lab/drivers/third_party/ST/STM32L4xx_HAL_Driver/Src\stm32l4xx_hal_flash_ex.c ****     defined (STM32L4R5xx) || defined (STM32L4R7xx) || defined (STM32L4R9xx) || defined (STM32L4S5xx
 554:E:/LiteOS/LiteOS_Lab/drivers/third_party/ST/STM32L4xx_HAL_Driver/Src\stm32l4xx_hal_flash_ex.c ****     /* Set the Mass Erase Bit for the bank 2 if requested */
 555:E:/LiteOS/LiteOS_Lab/drivers/third_party/ST/STM32L4xx_HAL_Driver/Src\stm32l4xx_hal_flash_ex.c ****     if((Banks & FLASH_BANK_2) != RESET)
 556:E:/LiteOS/LiteOS_Lab/drivers/third_party/ST/STM32L4xx_HAL_Driver/Src\stm32l4xx_hal_flash_ex.c ****     {
 557:E:/LiteOS/LiteOS_Lab/drivers/third_party/ST/STM32L4xx_HAL_Driver/Src\stm32l4xx_hal_flash_ex.c ****       SET_BIT(FLASH->CR, FLASH_CR_MER2);
 558:E:/LiteOS/LiteOS_Lab/drivers/third_party/ST/STM32L4xx_HAL_Driver/Src\stm32l4xx_hal_flash_ex.c ****     }
 559:E:/LiteOS/LiteOS_Lab/drivers/third_party/ST/STM32L4xx_HAL_Driver/Src\stm32l4xx_hal_flash_ex.c **** #endif
 560:E:/LiteOS/LiteOS_Lab/drivers/third_party/ST/STM32L4xx_HAL_Driver/Src\stm32l4xx_hal_flash_ex.c ****   }
 561:E:/LiteOS/LiteOS_Lab/drivers/third_party/ST/STM32L4xx_HAL_Driver/Src\stm32l4xx_hal_flash_ex.c **** #if defined (STM32L4R5xx) || defined (STM32L4R7xx) || defined (STM32L4R9xx) || defined (STM32L4S5xx
 562:E:/LiteOS/LiteOS_Lab/drivers/third_party/ST/STM32L4xx_HAL_Driver/Src\stm32l4xx_hal_flash_ex.c ****   else
 563:E:/LiteOS/LiteOS_Lab/drivers/third_party/ST/STM32L4xx_HAL_Driver/Src\stm32l4xx_hal_flash_ex.c ****   {
 564:E:/LiteOS/LiteOS_Lab/drivers/third_party/ST/STM32L4xx_HAL_Driver/Src\stm32l4xx_hal_flash_ex.c ****     SET_BIT(FLASH->CR, (FLASH_CR_MER1 | FLASH_CR_MER2));
 565:E:/LiteOS/LiteOS_Lab/drivers/third_party/ST/STM32L4xx_HAL_Driver/Src\stm32l4xx_hal_flash_ex.c ****   }
 566:E:/LiteOS/LiteOS_Lab/drivers/third_party/ST/STM32L4xx_HAL_Driver/Src\stm32l4xx_hal_flash_ex.c **** #endif
 567:E:/LiteOS/LiteOS_Lab/drivers/third_party/ST/STM32L4xx_HAL_Driver/Src\stm32l4xx_hal_flash_ex.c **** 
 568:E:/LiteOS/LiteOS_Lab/drivers/third_party/ST/STM32L4xx_HAL_Driver/Src\stm32l4xx_hal_flash_ex.c ****   /* Proceed to erase all sectors */
 569:E:/LiteOS/LiteOS_Lab/drivers/third_party/ST/STM32L4xx_HAL_Driver/Src\stm32l4xx_hal_flash_ex.c ****   SET_BIT(FLASH->CR, FLASH_CR_STRT);
 715              		.loc 1 569 0
 716 001e 064B     		ldr	r3, .L46
 717 0020 5B69     		ldr	r3, [r3, #20]
 718 0022 054A     		ldr	r2, .L46
 719 0024 43F48033 		orr	r3, r3, #65536
 720 0028 5361     		str	r3, [r2, #20]
 570:E:/LiteOS/LiteOS_Lab/drivers/third_party/ST/STM32L4xx_HAL_Driver/Src\stm32l4xx_hal_flash_ex.c **** }
 721              		.loc 1 570 0
 722 002a 00BF     		nop
 723 002c 0C37     		adds	r7, r7, #12
 724              	.LCFI23:
 725              		.cfi_def_cfa_offset 4
 726 002e BD46     		mov	sp, r7
 727              	.LCFI24:
 728              		.cfi_def_cfa_register 13
 729              		@ sp needed
 730 0030 5DF8047B 		ldr	r7, [sp], #4
 731              	.LCFI25:
 732              		.cfi_restore 7
 733              		.cfi_def_cfa_offset 0
 734 0034 7047     		bx	lr
 735              	.L47:
 736 0036 00BF     		.align	2
 737              	.L46:
 738 0038 00200240 		.word	1073881088
 739              		.cfi_endproc
 740              	.LFE137:
 742              		.section	.text.FLASH_PageErase,"ax",%progbits
 743              		.align	1
 744              		.global	FLASH_PageErase
 745              		.syntax unified
 746              		.thumb
 747              		.thumb_func
 748              		.fpu fpv4-sp-d16
 750              	FLASH_PageErase:
ARM GAS  C:\Users\user\AppData\Local\Temp\cc2XHdAe.s 			page 24


 751              	.LFB138:
 571:E:/LiteOS/LiteOS_Lab/drivers/third_party/ST/STM32L4xx_HAL_Driver/Src\stm32l4xx_hal_flash_ex.c **** 
 572:E:/LiteOS/LiteOS_Lab/drivers/third_party/ST/STM32L4xx_HAL_Driver/Src\stm32l4xx_hal_flash_ex.c **** /**
 573:E:/LiteOS/LiteOS_Lab/drivers/third_party/ST/STM32L4xx_HAL_Driver/Src\stm32l4xx_hal_flash_ex.c ****   * @brief  Erase the specified FLASH memory page.
 574:E:/LiteOS/LiteOS_Lab/drivers/third_party/ST/STM32L4xx_HAL_Driver/Src\stm32l4xx_hal_flash_ex.c ****   * @param  Page: FLASH page to erase
 575:E:/LiteOS/LiteOS_Lab/drivers/third_party/ST/STM32L4xx_HAL_Driver/Src\stm32l4xx_hal_flash_ex.c ****   *         This parameter must be a value between 0 and (max number of pages in the bank - 1)     
 576:E:/LiteOS/LiteOS_Lab/drivers/third_party/ST/STM32L4xx_HAL_Driver/Src\stm32l4xx_hal_flash_ex.c ****   * @param  Banks: Bank(s) where the page will be erased
 577:E:/LiteOS/LiteOS_Lab/drivers/third_party/ST/STM32L4xx_HAL_Driver/Src\stm32l4xx_hal_flash_ex.c ****   *          This parameter can be one of the following values:
 578:E:/LiteOS/LiteOS_Lab/drivers/third_party/ST/STM32L4xx_HAL_Driver/Src\stm32l4xx_hal_flash_ex.c ****   *            @arg FLASH_BANK_1: Page in bank 1 to be erased
 579:E:/LiteOS/LiteOS_Lab/drivers/third_party/ST/STM32L4xx_HAL_Driver/Src\stm32l4xx_hal_flash_ex.c ****   *            @arg FLASH_BANK_2: Page in bank 2 to be erased
 580:E:/LiteOS/LiteOS_Lab/drivers/third_party/ST/STM32L4xx_HAL_Driver/Src\stm32l4xx_hal_flash_ex.c ****   * @retval None
 581:E:/LiteOS/LiteOS_Lab/drivers/third_party/ST/STM32L4xx_HAL_Driver/Src\stm32l4xx_hal_flash_ex.c ****   */
 582:E:/LiteOS/LiteOS_Lab/drivers/third_party/ST/STM32L4xx_HAL_Driver/Src\stm32l4xx_hal_flash_ex.c **** void FLASH_PageErase(uint32_t Page, uint32_t Banks)
 583:E:/LiteOS/LiteOS_Lab/drivers/third_party/ST/STM32L4xx_HAL_Driver/Src\stm32l4xx_hal_flash_ex.c **** {
 752              		.loc 1 583 0
 753              		.cfi_startproc
 754              		@ args = 0, pretend = 0, frame = 16
 755              		@ frame_needed = 1, uses_anonymous_args = 0
 756              		@ link register save eliminated.
 757 0000 80B4     		push	{r7}
 758              	.LCFI26:
 759              		.cfi_def_cfa_offset 4
 760              		.cfi_offset 7, -4
 761 0002 85B0     		sub	sp, sp, #20
 762              	.LCFI27:
 763              		.cfi_def_cfa_offset 24
 764 0004 00AF     		add	r7, sp, #0
 765              	.LCFI28:
 766              		.cfi_def_cfa_register 7
 767 0006 7860     		str	r0, [r7, #4]
 768 0008 3960     		str	r1, [r7]
 584:E:/LiteOS/LiteOS_Lab/drivers/third_party/ST/STM32L4xx_HAL_Driver/Src\stm32l4xx_hal_flash_ex.c ****   /* Check the parameters */
 585:E:/LiteOS/LiteOS_Lab/drivers/third_party/ST/STM32L4xx_HAL_Driver/Src\stm32l4xx_hal_flash_ex.c ****   assert_param(IS_FLASH_PAGE(Page));
 586:E:/LiteOS/LiteOS_Lab/drivers/third_party/ST/STM32L4xx_HAL_Driver/Src\stm32l4xx_hal_flash_ex.c **** 
 587:E:/LiteOS/LiteOS_Lab/drivers/third_party/ST/STM32L4xx_HAL_Driver/Src\stm32l4xx_hal_flash_ex.c **** #if defined (STM32L471xx) || defined (STM32L475xx) || defined (STM32L476xx) || defined (STM32L485xx
 588:E:/LiteOS/LiteOS_Lab/drivers/third_party/ST/STM32L4xx_HAL_Driver/Src\stm32l4xx_hal_flash_ex.c ****     defined (STM32L496xx) || defined (STM32L4A6xx) || \
 589:E:/LiteOS/LiteOS_Lab/drivers/third_party/ST/STM32L4xx_HAL_Driver/Src\stm32l4xx_hal_flash_ex.c ****     defined (STM32L4R5xx) || defined (STM32L4R7xx) || defined (STM32L4R9xx) || defined (STM32L4S5xx
 590:E:/LiteOS/LiteOS_Lab/drivers/third_party/ST/STM32L4xx_HAL_Driver/Src\stm32l4xx_hal_flash_ex.c **** #if defined (STM32L4R5xx) || defined (STM32L4R7xx) || defined (STM32L4R9xx) || defined (STM32L4S5xx
 591:E:/LiteOS/LiteOS_Lab/drivers/third_party/ST/STM32L4xx_HAL_Driver/Src\stm32l4xx_hal_flash_ex.c ****   if(READ_BIT(FLASH->OPTR, FLASH_OPTR_DBANK) == RESET)
 592:E:/LiteOS/LiteOS_Lab/drivers/third_party/ST/STM32L4xx_HAL_Driver/Src\stm32l4xx_hal_flash_ex.c ****   {
 593:E:/LiteOS/LiteOS_Lab/drivers/third_party/ST/STM32L4xx_HAL_Driver/Src\stm32l4xx_hal_flash_ex.c ****     CLEAR_BIT(FLASH->CR, FLASH_CR_BKER);
 594:E:/LiteOS/LiteOS_Lab/drivers/third_party/ST/STM32L4xx_HAL_Driver/Src\stm32l4xx_hal_flash_ex.c ****   }
 595:E:/LiteOS/LiteOS_Lab/drivers/third_party/ST/STM32L4xx_HAL_Driver/Src\stm32l4xx_hal_flash_ex.c ****   else
 596:E:/LiteOS/LiteOS_Lab/drivers/third_party/ST/STM32L4xx_HAL_Driver/Src\stm32l4xx_hal_flash_ex.c **** #endif
 597:E:/LiteOS/LiteOS_Lab/drivers/third_party/ST/STM32L4xx_HAL_Driver/Src\stm32l4xx_hal_flash_ex.c ****   {
 598:E:/LiteOS/LiteOS_Lab/drivers/third_party/ST/STM32L4xx_HAL_Driver/Src\stm32l4xx_hal_flash_ex.c ****     assert_param(IS_FLASH_BANK_EXCLUSIVE(Banks));
 599:E:/LiteOS/LiteOS_Lab/drivers/third_party/ST/STM32L4xx_HAL_Driver/Src\stm32l4xx_hal_flash_ex.c **** 
 600:E:/LiteOS/LiteOS_Lab/drivers/third_party/ST/STM32L4xx_HAL_Driver/Src\stm32l4xx_hal_flash_ex.c ****     if((Banks & FLASH_BANK_1) != RESET)
 601:E:/LiteOS/LiteOS_Lab/drivers/third_party/ST/STM32L4xx_HAL_Driver/Src\stm32l4xx_hal_flash_ex.c ****     {
 602:E:/LiteOS/LiteOS_Lab/drivers/third_party/ST/STM32L4xx_HAL_Driver/Src\stm32l4xx_hal_flash_ex.c ****       CLEAR_BIT(FLASH->CR, FLASH_CR_BKER);
 603:E:/LiteOS/LiteOS_Lab/drivers/third_party/ST/STM32L4xx_HAL_Driver/Src\stm32l4xx_hal_flash_ex.c ****     }
 604:E:/LiteOS/LiteOS_Lab/drivers/third_party/ST/STM32L4xx_HAL_Driver/Src\stm32l4xx_hal_flash_ex.c ****     else
 605:E:/LiteOS/LiteOS_Lab/drivers/third_party/ST/STM32L4xx_HAL_Driver/Src\stm32l4xx_hal_flash_ex.c ****     {
 606:E:/LiteOS/LiteOS_Lab/drivers/third_party/ST/STM32L4xx_HAL_Driver/Src\stm32l4xx_hal_flash_ex.c ****       SET_BIT(FLASH->CR, FLASH_CR_BKER);
 607:E:/LiteOS/LiteOS_Lab/drivers/third_party/ST/STM32L4xx_HAL_Driver/Src\stm32l4xx_hal_flash_ex.c ****     }
 608:E:/LiteOS/LiteOS_Lab/drivers/third_party/ST/STM32L4xx_HAL_Driver/Src\stm32l4xx_hal_flash_ex.c ****   }
 609:E:/LiteOS/LiteOS_Lab/drivers/third_party/ST/STM32L4xx_HAL_Driver/Src\stm32l4xx_hal_flash_ex.c **** #endif
ARM GAS  C:\Users\user\AppData\Local\Temp\cc2XHdAe.s 			page 25


 610:E:/LiteOS/LiteOS_Lab/drivers/third_party/ST/STM32L4xx_HAL_Driver/Src\stm32l4xx_hal_flash_ex.c **** 
 611:E:/LiteOS/LiteOS_Lab/drivers/third_party/ST/STM32L4xx_HAL_Driver/Src\stm32l4xx_hal_flash_ex.c ****   /* Proceed to erase the page */
 612:E:/LiteOS/LiteOS_Lab/drivers/third_party/ST/STM32L4xx_HAL_Driver/Src\stm32l4xx_hal_flash_ex.c ****   MODIFY_REG(FLASH->CR, FLASH_CR_PNB, (Page << POSITION_VAL(FLASH_CR_PNB)));
 769              		.loc 1 612 0
 770 000a 134B     		ldr	r3, .L50
 771 000c 5B69     		ldr	r3, [r3, #20]
 772 000e 23F4FF62 		bic	r2, r3, #2040
 773 0012 4FF4FF63 		mov	r3, #2040
 774 0016 FB60     		str	r3, [r7, #12]
 775              	.LBB4:
 776              	.LBB5:
 777              		.file 2 "E:/LiteOS/LiteOS_Lab/iot_link/os/os_imp/liteos/arch/arm/common/cmsis/cmsis_gcc.h"
   1:E:/LiteOS/LiteOS_Lab/iot_link/os/os_imp/liteos/arch/arm/common/cmsis\cmsis_gcc.h **** /**************************************************************************//**
   2:E:/LiteOS/LiteOS_Lab/iot_link/os/os_imp/liteos/arch/arm/common/cmsis\cmsis_gcc.h ****  * @file     cmsis_gcc.h
   3:E:/LiteOS/LiteOS_Lab/iot_link/os/os_imp/liteos/arch/arm/common/cmsis\cmsis_gcc.h ****  * @brief    CMSIS compiler GCC header file
   4:E:/LiteOS/LiteOS_Lab/iot_link/os/os_imp/liteos/arch/arm/common/cmsis\cmsis_gcc.h ****  * @version  V5.0.1
   5:E:/LiteOS/LiteOS_Lab/iot_link/os/os_imp/liteos/arch/arm/common/cmsis\cmsis_gcc.h ****  * @date     02. February 2017
   6:E:/LiteOS/LiteOS_Lab/iot_link/os/os_imp/liteos/arch/arm/common/cmsis\cmsis_gcc.h ****  ******************************************************************************/
   7:E:/LiteOS/LiteOS_Lab/iot_link/os/os_imp/liteos/arch/arm/common/cmsis\cmsis_gcc.h **** /*
   8:E:/LiteOS/LiteOS_Lab/iot_link/os/os_imp/liteos/arch/arm/common/cmsis\cmsis_gcc.h ****  * Copyright (c) 2009-2017 ARM Limited. All rights reserved.
   9:E:/LiteOS/LiteOS_Lab/iot_link/os/os_imp/liteos/arch/arm/common/cmsis\cmsis_gcc.h ****  *
  10:E:/LiteOS/LiteOS_Lab/iot_link/os/os_imp/liteos/arch/arm/common/cmsis\cmsis_gcc.h ****  * SPDX-License-Identifier: Apache-2.0
  11:E:/LiteOS/LiteOS_Lab/iot_link/os/os_imp/liteos/arch/arm/common/cmsis\cmsis_gcc.h ****  *
  12:E:/LiteOS/LiteOS_Lab/iot_link/os/os_imp/liteos/arch/arm/common/cmsis\cmsis_gcc.h ****  * Licensed under the Apache License, Version 2.0 (the License); you may
  13:E:/LiteOS/LiteOS_Lab/iot_link/os/os_imp/liteos/arch/arm/common/cmsis\cmsis_gcc.h ****  * not use this file except in compliance with the License.
  14:E:/LiteOS/LiteOS_Lab/iot_link/os/os_imp/liteos/arch/arm/common/cmsis\cmsis_gcc.h ****  * You may obtain a copy of the License at
  15:E:/LiteOS/LiteOS_Lab/iot_link/os/os_imp/liteos/arch/arm/common/cmsis\cmsis_gcc.h ****  *
  16:E:/LiteOS/LiteOS_Lab/iot_link/os/os_imp/liteos/arch/arm/common/cmsis\cmsis_gcc.h ****  * www.apache.org/licenses/LICENSE-2.0
  17:E:/LiteOS/LiteOS_Lab/iot_link/os/os_imp/liteos/arch/arm/common/cmsis\cmsis_gcc.h ****  *
  18:E:/LiteOS/LiteOS_Lab/iot_link/os/os_imp/liteos/arch/arm/common/cmsis\cmsis_gcc.h ****  * Unless required by applicable law or agreed to in writing, software
  19:E:/LiteOS/LiteOS_Lab/iot_link/os/os_imp/liteos/arch/arm/common/cmsis\cmsis_gcc.h ****  * distributed under the License is distributed on an AS IS BASIS, WITHOUT
  20:E:/LiteOS/LiteOS_Lab/iot_link/os/os_imp/liteos/arch/arm/common/cmsis\cmsis_gcc.h ****  * WARRANTIES OR CONDITIONS OF ANY KIND, either express or implied.
  21:E:/LiteOS/LiteOS_Lab/iot_link/os/os_imp/liteos/arch/arm/common/cmsis\cmsis_gcc.h ****  * See the License for the specific language governing permissions and
  22:E:/LiteOS/LiteOS_Lab/iot_link/os/os_imp/liteos/arch/arm/common/cmsis\cmsis_gcc.h ****  * limitations under the License.
  23:E:/LiteOS/LiteOS_Lab/iot_link/os/os_imp/liteos/arch/arm/common/cmsis\cmsis_gcc.h ****  */
  24:E:/LiteOS/LiteOS_Lab/iot_link/os/os_imp/liteos/arch/arm/common/cmsis\cmsis_gcc.h **** 
  25:E:/LiteOS/LiteOS_Lab/iot_link/os/os_imp/liteos/arch/arm/common/cmsis\cmsis_gcc.h **** #ifndef __CMSIS_GCC_H
  26:E:/LiteOS/LiteOS_Lab/iot_link/os/os_imp/liteos/arch/arm/common/cmsis\cmsis_gcc.h **** #define __CMSIS_GCC_H
  27:E:/LiteOS/LiteOS_Lab/iot_link/os/os_imp/liteos/arch/arm/common/cmsis\cmsis_gcc.h **** 
  28:E:/LiteOS/LiteOS_Lab/iot_link/os/os_imp/liteos/arch/arm/common/cmsis\cmsis_gcc.h **** /* ignore some GCC warnings */
  29:E:/LiteOS/LiteOS_Lab/iot_link/os/os_imp/liteos/arch/arm/common/cmsis\cmsis_gcc.h **** #pragma GCC diagnostic push
  30:E:/LiteOS/LiteOS_Lab/iot_link/os/os_imp/liteos/arch/arm/common/cmsis\cmsis_gcc.h **** #pragma GCC diagnostic ignored "-Wsign-conversion"
  31:E:/LiteOS/LiteOS_Lab/iot_link/os/os_imp/liteos/arch/arm/common/cmsis\cmsis_gcc.h **** #pragma GCC diagnostic ignored "-Wconversion"
  32:E:/LiteOS/LiteOS_Lab/iot_link/os/os_imp/liteos/arch/arm/common/cmsis\cmsis_gcc.h **** #pragma GCC diagnostic ignored "-Wunused-parameter"
  33:E:/LiteOS/LiteOS_Lab/iot_link/os/os_imp/liteos/arch/arm/common/cmsis\cmsis_gcc.h **** 
  34:E:/LiteOS/LiteOS_Lab/iot_link/os/os_imp/liteos/arch/arm/common/cmsis\cmsis_gcc.h **** /* CMSIS compiler specific defines */
  35:E:/LiteOS/LiteOS_Lab/iot_link/os/os_imp/liteos/arch/arm/common/cmsis\cmsis_gcc.h **** #ifndef   __ASM
  36:E:/LiteOS/LiteOS_Lab/iot_link/os/os_imp/liteos/arch/arm/common/cmsis\cmsis_gcc.h ****   #define __ASM                     __asm
  37:E:/LiteOS/LiteOS_Lab/iot_link/os/os_imp/liteos/arch/arm/common/cmsis\cmsis_gcc.h **** #endif
  38:E:/LiteOS/LiteOS_Lab/iot_link/os/os_imp/liteos/arch/arm/common/cmsis\cmsis_gcc.h **** #ifndef   __INLINE
  39:E:/LiteOS/LiteOS_Lab/iot_link/os/os_imp/liteos/arch/arm/common/cmsis\cmsis_gcc.h ****   #define __INLINE                  inline
  40:E:/LiteOS/LiteOS_Lab/iot_link/os/os_imp/liteos/arch/arm/common/cmsis\cmsis_gcc.h **** #endif
  41:E:/LiteOS/LiteOS_Lab/iot_link/os/os_imp/liteos/arch/arm/common/cmsis\cmsis_gcc.h **** #ifndef   __STATIC_INLINE
  42:E:/LiteOS/LiteOS_Lab/iot_link/os/os_imp/liteos/arch/arm/common/cmsis\cmsis_gcc.h ****   #define __STATIC_INLINE           static inline
  43:E:/LiteOS/LiteOS_Lab/iot_link/os/os_imp/liteos/arch/arm/common/cmsis\cmsis_gcc.h **** #endif
  44:E:/LiteOS/LiteOS_Lab/iot_link/os/os_imp/liteos/arch/arm/common/cmsis\cmsis_gcc.h **** #ifndef   __NO_RETURN
  45:E:/LiteOS/LiteOS_Lab/iot_link/os/os_imp/liteos/arch/arm/common/cmsis\cmsis_gcc.h ****   #define __NO_RETURN               __attribute__((noreturn))
ARM GAS  C:\Users\user\AppData\Local\Temp\cc2XHdAe.s 			page 26


  46:E:/LiteOS/LiteOS_Lab/iot_link/os/os_imp/liteos/arch/arm/common/cmsis\cmsis_gcc.h **** #endif
  47:E:/LiteOS/LiteOS_Lab/iot_link/os/os_imp/liteos/arch/arm/common/cmsis\cmsis_gcc.h **** #ifndef   __USED
  48:E:/LiteOS/LiteOS_Lab/iot_link/os/os_imp/liteos/arch/arm/common/cmsis\cmsis_gcc.h ****   #define __USED                    __attribute__((used))
  49:E:/LiteOS/LiteOS_Lab/iot_link/os/os_imp/liteos/arch/arm/common/cmsis\cmsis_gcc.h **** #endif
  50:E:/LiteOS/LiteOS_Lab/iot_link/os/os_imp/liteos/arch/arm/common/cmsis\cmsis_gcc.h **** #ifndef   __WEAK
  51:E:/LiteOS/LiteOS_Lab/iot_link/os/os_imp/liteos/arch/arm/common/cmsis\cmsis_gcc.h ****   #define __WEAK                    __attribute__((weak))
  52:E:/LiteOS/LiteOS_Lab/iot_link/os/os_imp/liteos/arch/arm/common/cmsis\cmsis_gcc.h **** #endif
  53:E:/LiteOS/LiteOS_Lab/iot_link/os/os_imp/liteos/arch/arm/common/cmsis\cmsis_gcc.h **** #ifndef   __UNALIGNED_UINT32
  54:E:/LiteOS/LiteOS_Lab/iot_link/os/os_imp/liteos/arch/arm/common/cmsis\cmsis_gcc.h **** #pragma GCC diagnostic push
  55:E:/LiteOS/LiteOS_Lab/iot_link/os/os_imp/liteos/arch/arm/common/cmsis\cmsis_gcc.h **** #pragma GCC diagnostic ignored "-Wpacked"
  56:E:/LiteOS/LiteOS_Lab/iot_link/os/os_imp/liteos/arch/arm/common/cmsis\cmsis_gcc.h **** #pragma GCC diagnostic ignored "-Wattributes"
  57:E:/LiteOS/LiteOS_Lab/iot_link/os/os_imp/liteos/arch/arm/common/cmsis\cmsis_gcc.h ****   struct __attribute__((packed)) T_UINT32 { uint32_t v; };
  58:E:/LiteOS/LiteOS_Lab/iot_link/os/os_imp/liteos/arch/arm/common/cmsis\cmsis_gcc.h **** #pragma GCC diagnostic pop
  59:E:/LiteOS/LiteOS_Lab/iot_link/os/os_imp/liteos/arch/arm/common/cmsis\cmsis_gcc.h ****   #define __UNALIGNED_UINT32(x)     (((struct T_UINT32 *)(x))->v)
  60:E:/LiteOS/LiteOS_Lab/iot_link/os/os_imp/liteos/arch/arm/common/cmsis\cmsis_gcc.h **** #endif
  61:E:/LiteOS/LiteOS_Lab/iot_link/os/os_imp/liteos/arch/arm/common/cmsis\cmsis_gcc.h **** #ifndef   __ALIGNED
  62:E:/LiteOS/LiteOS_Lab/iot_link/os/os_imp/liteos/arch/arm/common/cmsis\cmsis_gcc.h ****   #define __ALIGNED(x)              __attribute__((aligned(x)))
  63:E:/LiteOS/LiteOS_Lab/iot_link/os/os_imp/liteos/arch/arm/common/cmsis\cmsis_gcc.h **** #endif
  64:E:/LiteOS/LiteOS_Lab/iot_link/os/os_imp/liteos/arch/arm/common/cmsis\cmsis_gcc.h **** #ifndef   __PACKED
  65:E:/LiteOS/LiteOS_Lab/iot_link/os/os_imp/liteos/arch/arm/common/cmsis\cmsis_gcc.h ****   #define __PACKED                  __attribute__((packed, aligned(1)))
  66:E:/LiteOS/LiteOS_Lab/iot_link/os/os_imp/liteos/arch/arm/common/cmsis\cmsis_gcc.h **** #endif
  67:E:/LiteOS/LiteOS_Lab/iot_link/os/os_imp/liteos/arch/arm/common/cmsis\cmsis_gcc.h **** #ifndef   __PACKED_STRUCT
  68:E:/LiteOS/LiteOS_Lab/iot_link/os/os_imp/liteos/arch/arm/common/cmsis\cmsis_gcc.h ****   #define __PACKED_STRUCT           struct __attribute__((packed, aligned(1)))
  69:E:/LiteOS/LiteOS_Lab/iot_link/os/os_imp/liteos/arch/arm/common/cmsis\cmsis_gcc.h **** #endif
  70:E:/LiteOS/LiteOS_Lab/iot_link/os/os_imp/liteos/arch/arm/common/cmsis\cmsis_gcc.h **** 
  71:E:/LiteOS/LiteOS_Lab/iot_link/os/os_imp/liteos/arch/arm/common/cmsis\cmsis_gcc.h **** 
  72:E:/LiteOS/LiteOS_Lab/iot_link/os/os_imp/liteos/arch/arm/common/cmsis\cmsis_gcc.h **** /* ###########################  Core Function Access  ########################### */
  73:E:/LiteOS/LiteOS_Lab/iot_link/os/os_imp/liteos/arch/arm/common/cmsis\cmsis_gcc.h **** /** \ingroup  CMSIS_Core_FunctionInterface
  74:E:/LiteOS/LiteOS_Lab/iot_link/os/os_imp/liteos/arch/arm/common/cmsis\cmsis_gcc.h ****     \defgroup CMSIS_Core_RegAccFunctions CMSIS Core Register Access Functions
  75:E:/LiteOS/LiteOS_Lab/iot_link/os/os_imp/liteos/arch/arm/common/cmsis\cmsis_gcc.h ****   @{
  76:E:/LiteOS/LiteOS_Lab/iot_link/os/os_imp/liteos/arch/arm/common/cmsis\cmsis_gcc.h ****  */
  77:E:/LiteOS/LiteOS_Lab/iot_link/os/os_imp/liteos/arch/arm/common/cmsis\cmsis_gcc.h **** 
  78:E:/LiteOS/LiteOS_Lab/iot_link/os/os_imp/liteos/arch/arm/common/cmsis\cmsis_gcc.h **** /**
  79:E:/LiteOS/LiteOS_Lab/iot_link/os/os_imp/liteos/arch/arm/common/cmsis\cmsis_gcc.h ****   \brief   Enable IRQ Interrupts
  80:E:/LiteOS/LiteOS_Lab/iot_link/os/os_imp/liteos/arch/arm/common/cmsis\cmsis_gcc.h ****   \details Enables IRQ interrupts by clearing the I-bit in the CPSR.
  81:E:/LiteOS/LiteOS_Lab/iot_link/os/os_imp/liteos/arch/arm/common/cmsis\cmsis_gcc.h ****            Can only be executed in Privileged modes.
  82:E:/LiteOS/LiteOS_Lab/iot_link/os/os_imp/liteos/arch/arm/common/cmsis\cmsis_gcc.h ****  */
  83:E:/LiteOS/LiteOS_Lab/iot_link/os/os_imp/liteos/arch/arm/common/cmsis\cmsis_gcc.h **** __attribute__((always_inline)) __STATIC_INLINE void __enable_irq(void)
  84:E:/LiteOS/LiteOS_Lab/iot_link/os/os_imp/liteos/arch/arm/common/cmsis\cmsis_gcc.h **** {
  85:E:/LiteOS/LiteOS_Lab/iot_link/os/os_imp/liteos/arch/arm/common/cmsis\cmsis_gcc.h ****   __ASM volatile ("cpsie i" : : : "memory");
  86:E:/LiteOS/LiteOS_Lab/iot_link/os/os_imp/liteos/arch/arm/common/cmsis\cmsis_gcc.h **** }
  87:E:/LiteOS/LiteOS_Lab/iot_link/os/os_imp/liteos/arch/arm/common/cmsis\cmsis_gcc.h **** 
  88:E:/LiteOS/LiteOS_Lab/iot_link/os/os_imp/liteos/arch/arm/common/cmsis\cmsis_gcc.h **** 
  89:E:/LiteOS/LiteOS_Lab/iot_link/os/os_imp/liteos/arch/arm/common/cmsis\cmsis_gcc.h **** /**
  90:E:/LiteOS/LiteOS_Lab/iot_link/os/os_imp/liteos/arch/arm/common/cmsis\cmsis_gcc.h ****   \brief   Disable IRQ Interrupts
  91:E:/LiteOS/LiteOS_Lab/iot_link/os/os_imp/liteos/arch/arm/common/cmsis\cmsis_gcc.h ****   \details Disables IRQ interrupts by setting the I-bit in the CPSR.
  92:E:/LiteOS/LiteOS_Lab/iot_link/os/os_imp/liteos/arch/arm/common/cmsis\cmsis_gcc.h ****            Can only be executed in Privileged modes.
  93:E:/LiteOS/LiteOS_Lab/iot_link/os/os_imp/liteos/arch/arm/common/cmsis\cmsis_gcc.h ****  */
  94:E:/LiteOS/LiteOS_Lab/iot_link/os/os_imp/liteos/arch/arm/common/cmsis\cmsis_gcc.h **** __attribute__((always_inline)) __STATIC_INLINE void __disable_irq(void)
  95:E:/LiteOS/LiteOS_Lab/iot_link/os/os_imp/liteos/arch/arm/common/cmsis\cmsis_gcc.h **** {
  96:E:/LiteOS/LiteOS_Lab/iot_link/os/os_imp/liteos/arch/arm/common/cmsis\cmsis_gcc.h ****   __ASM volatile ("cpsid i" : : : "memory");
  97:E:/LiteOS/LiteOS_Lab/iot_link/os/os_imp/liteos/arch/arm/common/cmsis\cmsis_gcc.h **** }
  98:E:/LiteOS/LiteOS_Lab/iot_link/os/os_imp/liteos/arch/arm/common/cmsis\cmsis_gcc.h **** 
  99:E:/LiteOS/LiteOS_Lab/iot_link/os/os_imp/liteos/arch/arm/common/cmsis\cmsis_gcc.h **** 
 100:E:/LiteOS/LiteOS_Lab/iot_link/os/os_imp/liteos/arch/arm/common/cmsis\cmsis_gcc.h **** /**
 101:E:/LiteOS/LiteOS_Lab/iot_link/os/os_imp/liteos/arch/arm/common/cmsis\cmsis_gcc.h ****   \brief   Get Control Register
 102:E:/LiteOS/LiteOS_Lab/iot_link/os/os_imp/liteos/arch/arm/common/cmsis\cmsis_gcc.h ****   \details Returns the content of the Control Register.
ARM GAS  C:\Users\user\AppData\Local\Temp\cc2XHdAe.s 			page 27


 103:E:/LiteOS/LiteOS_Lab/iot_link/os/os_imp/liteos/arch/arm/common/cmsis\cmsis_gcc.h ****   \return               Control Register value
 104:E:/LiteOS/LiteOS_Lab/iot_link/os/os_imp/liteos/arch/arm/common/cmsis\cmsis_gcc.h ****  */
 105:E:/LiteOS/LiteOS_Lab/iot_link/os/os_imp/liteos/arch/arm/common/cmsis\cmsis_gcc.h **** __attribute__((always_inline)) __STATIC_INLINE uint32_t __get_CONTROL(void)
 106:E:/LiteOS/LiteOS_Lab/iot_link/os/os_imp/liteos/arch/arm/common/cmsis\cmsis_gcc.h **** {
 107:E:/LiteOS/LiteOS_Lab/iot_link/os/os_imp/liteos/arch/arm/common/cmsis\cmsis_gcc.h ****   uint32_t result;
 108:E:/LiteOS/LiteOS_Lab/iot_link/os/os_imp/liteos/arch/arm/common/cmsis\cmsis_gcc.h **** 
 109:E:/LiteOS/LiteOS_Lab/iot_link/os/os_imp/liteos/arch/arm/common/cmsis\cmsis_gcc.h ****   __ASM volatile ("MRS %0, control" : "=r" (result) );
 110:E:/LiteOS/LiteOS_Lab/iot_link/os/os_imp/liteos/arch/arm/common/cmsis\cmsis_gcc.h ****   return(result);
 111:E:/LiteOS/LiteOS_Lab/iot_link/os/os_imp/liteos/arch/arm/common/cmsis\cmsis_gcc.h **** }
 112:E:/LiteOS/LiteOS_Lab/iot_link/os/os_imp/liteos/arch/arm/common/cmsis\cmsis_gcc.h **** 
 113:E:/LiteOS/LiteOS_Lab/iot_link/os/os_imp/liteos/arch/arm/common/cmsis\cmsis_gcc.h **** 
 114:E:/LiteOS/LiteOS_Lab/iot_link/os/os_imp/liteos/arch/arm/common/cmsis\cmsis_gcc.h **** #if (defined (__ARM_FEATURE_CMSE ) && (__ARM_FEATURE_CMSE == 3))
 115:E:/LiteOS/LiteOS_Lab/iot_link/os/os_imp/liteos/arch/arm/common/cmsis\cmsis_gcc.h **** /**
 116:E:/LiteOS/LiteOS_Lab/iot_link/os/os_imp/liteos/arch/arm/common/cmsis\cmsis_gcc.h ****   \brief   Get Control Register (non-secure)
 117:E:/LiteOS/LiteOS_Lab/iot_link/os/os_imp/liteos/arch/arm/common/cmsis\cmsis_gcc.h ****   \details Returns the content of the non-secure Control Register when in secure mode.
 118:E:/LiteOS/LiteOS_Lab/iot_link/os/os_imp/liteos/arch/arm/common/cmsis\cmsis_gcc.h ****   \return               non-secure Control Register value
 119:E:/LiteOS/LiteOS_Lab/iot_link/os/os_imp/liteos/arch/arm/common/cmsis\cmsis_gcc.h ****  */
 120:E:/LiteOS/LiteOS_Lab/iot_link/os/os_imp/liteos/arch/arm/common/cmsis\cmsis_gcc.h **** __attribute__((always_inline)) __STATIC_INLINE uint32_t __TZ_get_CONTROL_NS(void)
 121:E:/LiteOS/LiteOS_Lab/iot_link/os/os_imp/liteos/arch/arm/common/cmsis\cmsis_gcc.h **** {
 122:E:/LiteOS/LiteOS_Lab/iot_link/os/os_imp/liteos/arch/arm/common/cmsis\cmsis_gcc.h ****   uint32_t result;
 123:E:/LiteOS/LiteOS_Lab/iot_link/os/os_imp/liteos/arch/arm/common/cmsis\cmsis_gcc.h **** 
 124:E:/LiteOS/LiteOS_Lab/iot_link/os/os_imp/liteos/arch/arm/common/cmsis\cmsis_gcc.h ****   __ASM volatile ("MRS %0, control_ns" : "=r" (result) );
 125:E:/LiteOS/LiteOS_Lab/iot_link/os/os_imp/liteos/arch/arm/common/cmsis\cmsis_gcc.h ****   return(result);
 126:E:/LiteOS/LiteOS_Lab/iot_link/os/os_imp/liteos/arch/arm/common/cmsis\cmsis_gcc.h **** }
 127:E:/LiteOS/LiteOS_Lab/iot_link/os/os_imp/liteos/arch/arm/common/cmsis\cmsis_gcc.h **** #endif
 128:E:/LiteOS/LiteOS_Lab/iot_link/os/os_imp/liteos/arch/arm/common/cmsis\cmsis_gcc.h **** 
 129:E:/LiteOS/LiteOS_Lab/iot_link/os/os_imp/liteos/arch/arm/common/cmsis\cmsis_gcc.h **** 
 130:E:/LiteOS/LiteOS_Lab/iot_link/os/os_imp/liteos/arch/arm/common/cmsis\cmsis_gcc.h **** /**
 131:E:/LiteOS/LiteOS_Lab/iot_link/os/os_imp/liteos/arch/arm/common/cmsis\cmsis_gcc.h ****   \brief   Set Control Register
 132:E:/LiteOS/LiteOS_Lab/iot_link/os/os_imp/liteos/arch/arm/common/cmsis\cmsis_gcc.h ****   \details Writes the given value to the Control Register.
 133:E:/LiteOS/LiteOS_Lab/iot_link/os/os_imp/liteos/arch/arm/common/cmsis\cmsis_gcc.h ****   \param [in]    control  Control Register value to set
 134:E:/LiteOS/LiteOS_Lab/iot_link/os/os_imp/liteos/arch/arm/common/cmsis\cmsis_gcc.h ****  */
 135:E:/LiteOS/LiteOS_Lab/iot_link/os/os_imp/liteos/arch/arm/common/cmsis\cmsis_gcc.h **** __attribute__((always_inline)) __STATIC_INLINE void __set_CONTROL(uint32_t control)
 136:E:/LiteOS/LiteOS_Lab/iot_link/os/os_imp/liteos/arch/arm/common/cmsis\cmsis_gcc.h **** {
 137:E:/LiteOS/LiteOS_Lab/iot_link/os/os_imp/liteos/arch/arm/common/cmsis\cmsis_gcc.h ****   __ASM volatile ("MSR control, %0" : : "r" (control) : "memory");
 138:E:/LiteOS/LiteOS_Lab/iot_link/os/os_imp/liteos/arch/arm/common/cmsis\cmsis_gcc.h **** }
 139:E:/LiteOS/LiteOS_Lab/iot_link/os/os_imp/liteos/arch/arm/common/cmsis\cmsis_gcc.h **** 
 140:E:/LiteOS/LiteOS_Lab/iot_link/os/os_imp/liteos/arch/arm/common/cmsis\cmsis_gcc.h **** 
 141:E:/LiteOS/LiteOS_Lab/iot_link/os/os_imp/liteos/arch/arm/common/cmsis\cmsis_gcc.h **** #if (defined (__ARM_FEATURE_CMSE ) && (__ARM_FEATURE_CMSE == 3))
 142:E:/LiteOS/LiteOS_Lab/iot_link/os/os_imp/liteos/arch/arm/common/cmsis\cmsis_gcc.h **** /**
 143:E:/LiteOS/LiteOS_Lab/iot_link/os/os_imp/liteos/arch/arm/common/cmsis\cmsis_gcc.h ****   \brief   Set Control Register (non-secure)
 144:E:/LiteOS/LiteOS_Lab/iot_link/os/os_imp/liteos/arch/arm/common/cmsis\cmsis_gcc.h ****   \details Writes the given value to the non-secure Control Register when in secure state.
 145:E:/LiteOS/LiteOS_Lab/iot_link/os/os_imp/liteos/arch/arm/common/cmsis\cmsis_gcc.h ****   \param [in]    control  Control Register value to set
 146:E:/LiteOS/LiteOS_Lab/iot_link/os/os_imp/liteos/arch/arm/common/cmsis\cmsis_gcc.h ****  */
 147:E:/LiteOS/LiteOS_Lab/iot_link/os/os_imp/liteos/arch/arm/common/cmsis\cmsis_gcc.h **** __attribute__((always_inline)) __STATIC_INLINE void __TZ_set_CONTROL_NS(uint32_t control)
 148:E:/LiteOS/LiteOS_Lab/iot_link/os/os_imp/liteos/arch/arm/common/cmsis\cmsis_gcc.h **** {
 149:E:/LiteOS/LiteOS_Lab/iot_link/os/os_imp/liteos/arch/arm/common/cmsis\cmsis_gcc.h ****   __ASM volatile ("MSR control_ns, %0" : : "r" (control) : "memory");
 150:E:/LiteOS/LiteOS_Lab/iot_link/os/os_imp/liteos/arch/arm/common/cmsis\cmsis_gcc.h **** }
 151:E:/LiteOS/LiteOS_Lab/iot_link/os/os_imp/liteos/arch/arm/common/cmsis\cmsis_gcc.h **** #endif
 152:E:/LiteOS/LiteOS_Lab/iot_link/os/os_imp/liteos/arch/arm/common/cmsis\cmsis_gcc.h **** 
 153:E:/LiteOS/LiteOS_Lab/iot_link/os/os_imp/liteos/arch/arm/common/cmsis\cmsis_gcc.h **** 
 154:E:/LiteOS/LiteOS_Lab/iot_link/os/os_imp/liteos/arch/arm/common/cmsis\cmsis_gcc.h **** /**
 155:E:/LiteOS/LiteOS_Lab/iot_link/os/os_imp/liteos/arch/arm/common/cmsis\cmsis_gcc.h ****   \brief   Get IPSR Register
 156:E:/LiteOS/LiteOS_Lab/iot_link/os/os_imp/liteos/arch/arm/common/cmsis\cmsis_gcc.h ****   \details Returns the content of the IPSR Register.
 157:E:/LiteOS/LiteOS_Lab/iot_link/os/os_imp/liteos/arch/arm/common/cmsis\cmsis_gcc.h ****   \return               IPSR Register value
 158:E:/LiteOS/LiteOS_Lab/iot_link/os/os_imp/liteos/arch/arm/common/cmsis\cmsis_gcc.h ****  */
 159:E:/LiteOS/LiteOS_Lab/iot_link/os/os_imp/liteos/arch/arm/common/cmsis\cmsis_gcc.h **** __attribute__((always_inline)) __STATIC_INLINE uint32_t __get_IPSR(void)
ARM GAS  C:\Users\user\AppData\Local\Temp\cc2XHdAe.s 			page 28


 160:E:/LiteOS/LiteOS_Lab/iot_link/os/os_imp/liteos/arch/arm/common/cmsis\cmsis_gcc.h **** {
 161:E:/LiteOS/LiteOS_Lab/iot_link/os/os_imp/liteos/arch/arm/common/cmsis\cmsis_gcc.h ****   uint32_t result;
 162:E:/LiteOS/LiteOS_Lab/iot_link/os/os_imp/liteos/arch/arm/common/cmsis\cmsis_gcc.h **** 
 163:E:/LiteOS/LiteOS_Lab/iot_link/os/os_imp/liteos/arch/arm/common/cmsis\cmsis_gcc.h ****   __ASM volatile ("MRS %0, ipsr" : "=r" (result) );
 164:E:/LiteOS/LiteOS_Lab/iot_link/os/os_imp/liteos/arch/arm/common/cmsis\cmsis_gcc.h ****   return(result);
 165:E:/LiteOS/LiteOS_Lab/iot_link/os/os_imp/liteos/arch/arm/common/cmsis\cmsis_gcc.h **** }
 166:E:/LiteOS/LiteOS_Lab/iot_link/os/os_imp/liteos/arch/arm/common/cmsis\cmsis_gcc.h **** 
 167:E:/LiteOS/LiteOS_Lab/iot_link/os/os_imp/liteos/arch/arm/common/cmsis\cmsis_gcc.h **** 
 168:E:/LiteOS/LiteOS_Lab/iot_link/os/os_imp/liteos/arch/arm/common/cmsis\cmsis_gcc.h **** /**
 169:E:/LiteOS/LiteOS_Lab/iot_link/os/os_imp/liteos/arch/arm/common/cmsis\cmsis_gcc.h ****   \brief   Get APSR Register
 170:E:/LiteOS/LiteOS_Lab/iot_link/os/os_imp/liteos/arch/arm/common/cmsis\cmsis_gcc.h ****   \details Returns the content of the APSR Register.
 171:E:/LiteOS/LiteOS_Lab/iot_link/os/os_imp/liteos/arch/arm/common/cmsis\cmsis_gcc.h ****   \return               APSR Register value
 172:E:/LiteOS/LiteOS_Lab/iot_link/os/os_imp/liteos/arch/arm/common/cmsis\cmsis_gcc.h ****  */
 173:E:/LiteOS/LiteOS_Lab/iot_link/os/os_imp/liteos/arch/arm/common/cmsis\cmsis_gcc.h **** __attribute__((always_inline)) __STATIC_INLINE uint32_t __get_APSR(void)
 174:E:/LiteOS/LiteOS_Lab/iot_link/os/os_imp/liteos/arch/arm/common/cmsis\cmsis_gcc.h **** {
 175:E:/LiteOS/LiteOS_Lab/iot_link/os/os_imp/liteos/arch/arm/common/cmsis\cmsis_gcc.h ****   uint32_t result;
 176:E:/LiteOS/LiteOS_Lab/iot_link/os/os_imp/liteos/arch/arm/common/cmsis\cmsis_gcc.h **** 
 177:E:/LiteOS/LiteOS_Lab/iot_link/os/os_imp/liteos/arch/arm/common/cmsis\cmsis_gcc.h ****   __ASM volatile ("MRS %0, apsr" : "=r" (result) );
 178:E:/LiteOS/LiteOS_Lab/iot_link/os/os_imp/liteos/arch/arm/common/cmsis\cmsis_gcc.h ****   return(result);
 179:E:/LiteOS/LiteOS_Lab/iot_link/os/os_imp/liteos/arch/arm/common/cmsis\cmsis_gcc.h **** }
 180:E:/LiteOS/LiteOS_Lab/iot_link/os/os_imp/liteos/arch/arm/common/cmsis\cmsis_gcc.h **** 
 181:E:/LiteOS/LiteOS_Lab/iot_link/os/os_imp/liteos/arch/arm/common/cmsis\cmsis_gcc.h **** 
 182:E:/LiteOS/LiteOS_Lab/iot_link/os/os_imp/liteos/arch/arm/common/cmsis\cmsis_gcc.h **** /**
 183:E:/LiteOS/LiteOS_Lab/iot_link/os/os_imp/liteos/arch/arm/common/cmsis\cmsis_gcc.h ****   \brief   Get xPSR Register
 184:E:/LiteOS/LiteOS_Lab/iot_link/os/os_imp/liteos/arch/arm/common/cmsis\cmsis_gcc.h ****   \details Returns the content of the xPSR Register.
 185:E:/LiteOS/LiteOS_Lab/iot_link/os/os_imp/liteos/arch/arm/common/cmsis\cmsis_gcc.h ****   \return               xPSR Register value
 186:E:/LiteOS/LiteOS_Lab/iot_link/os/os_imp/liteos/arch/arm/common/cmsis\cmsis_gcc.h ****  */
 187:E:/LiteOS/LiteOS_Lab/iot_link/os/os_imp/liteos/arch/arm/common/cmsis\cmsis_gcc.h **** __attribute__((always_inline)) __STATIC_INLINE uint32_t __get_xPSR(void)
 188:E:/LiteOS/LiteOS_Lab/iot_link/os/os_imp/liteos/arch/arm/common/cmsis\cmsis_gcc.h **** {
 189:E:/LiteOS/LiteOS_Lab/iot_link/os/os_imp/liteos/arch/arm/common/cmsis\cmsis_gcc.h ****   uint32_t result;
 190:E:/LiteOS/LiteOS_Lab/iot_link/os/os_imp/liteos/arch/arm/common/cmsis\cmsis_gcc.h **** 
 191:E:/LiteOS/LiteOS_Lab/iot_link/os/os_imp/liteos/arch/arm/common/cmsis\cmsis_gcc.h ****   __ASM volatile ("MRS %0, xpsr" : "=r" (result) );
 192:E:/LiteOS/LiteOS_Lab/iot_link/os/os_imp/liteos/arch/arm/common/cmsis\cmsis_gcc.h ****   return(result);
 193:E:/LiteOS/LiteOS_Lab/iot_link/os/os_imp/liteos/arch/arm/common/cmsis\cmsis_gcc.h **** }
 194:E:/LiteOS/LiteOS_Lab/iot_link/os/os_imp/liteos/arch/arm/common/cmsis\cmsis_gcc.h **** 
 195:E:/LiteOS/LiteOS_Lab/iot_link/os/os_imp/liteos/arch/arm/common/cmsis\cmsis_gcc.h **** 
 196:E:/LiteOS/LiteOS_Lab/iot_link/os/os_imp/liteos/arch/arm/common/cmsis\cmsis_gcc.h **** /**
 197:E:/LiteOS/LiteOS_Lab/iot_link/os/os_imp/liteos/arch/arm/common/cmsis\cmsis_gcc.h ****   \brief   Get Process Stack Pointer
 198:E:/LiteOS/LiteOS_Lab/iot_link/os/os_imp/liteos/arch/arm/common/cmsis\cmsis_gcc.h ****   \details Returns the current value of the Process Stack Pointer (PSP).
 199:E:/LiteOS/LiteOS_Lab/iot_link/os/os_imp/liteos/arch/arm/common/cmsis\cmsis_gcc.h ****   \return               PSP Register value
 200:E:/LiteOS/LiteOS_Lab/iot_link/os/os_imp/liteos/arch/arm/common/cmsis\cmsis_gcc.h ****  */
 201:E:/LiteOS/LiteOS_Lab/iot_link/os/os_imp/liteos/arch/arm/common/cmsis\cmsis_gcc.h **** __attribute__((always_inline)) __STATIC_INLINE uint32_t __get_PSP(void)
 202:E:/LiteOS/LiteOS_Lab/iot_link/os/os_imp/liteos/arch/arm/common/cmsis\cmsis_gcc.h **** {
 203:E:/LiteOS/LiteOS_Lab/iot_link/os/os_imp/liteos/arch/arm/common/cmsis\cmsis_gcc.h ****   register uint32_t result;
 204:E:/LiteOS/LiteOS_Lab/iot_link/os/os_imp/liteos/arch/arm/common/cmsis\cmsis_gcc.h **** 
 205:E:/LiteOS/LiteOS_Lab/iot_link/os/os_imp/liteos/arch/arm/common/cmsis\cmsis_gcc.h ****   __ASM volatile ("MRS %0, psp"  : "=r" (result) );
 206:E:/LiteOS/LiteOS_Lab/iot_link/os/os_imp/liteos/arch/arm/common/cmsis\cmsis_gcc.h ****   return(result);
 207:E:/LiteOS/LiteOS_Lab/iot_link/os/os_imp/liteos/arch/arm/common/cmsis\cmsis_gcc.h **** }
 208:E:/LiteOS/LiteOS_Lab/iot_link/os/os_imp/liteos/arch/arm/common/cmsis\cmsis_gcc.h **** 
 209:E:/LiteOS/LiteOS_Lab/iot_link/os/os_imp/liteos/arch/arm/common/cmsis\cmsis_gcc.h **** 
 210:E:/LiteOS/LiteOS_Lab/iot_link/os/os_imp/liteos/arch/arm/common/cmsis\cmsis_gcc.h **** #if (defined (__ARM_FEATURE_CMSE ) && (__ARM_FEATURE_CMSE == 3))
 211:E:/LiteOS/LiteOS_Lab/iot_link/os/os_imp/liteos/arch/arm/common/cmsis\cmsis_gcc.h **** /**
 212:E:/LiteOS/LiteOS_Lab/iot_link/os/os_imp/liteos/arch/arm/common/cmsis\cmsis_gcc.h ****   \brief   Get Process Stack Pointer (non-secure)
 213:E:/LiteOS/LiteOS_Lab/iot_link/os/os_imp/liteos/arch/arm/common/cmsis\cmsis_gcc.h ****   \details Returns the current value of the non-secure Process Stack Pointer (PSP) when in secure s
 214:E:/LiteOS/LiteOS_Lab/iot_link/os/os_imp/liteos/arch/arm/common/cmsis\cmsis_gcc.h ****   \return               PSP Register value
 215:E:/LiteOS/LiteOS_Lab/iot_link/os/os_imp/liteos/arch/arm/common/cmsis\cmsis_gcc.h ****  */
 216:E:/LiteOS/LiteOS_Lab/iot_link/os/os_imp/liteos/arch/arm/common/cmsis\cmsis_gcc.h **** __attribute__((always_inline)) __STATIC_INLINE uint32_t __TZ_get_PSP_NS(void)
ARM GAS  C:\Users\user\AppData\Local\Temp\cc2XHdAe.s 			page 29


 217:E:/LiteOS/LiteOS_Lab/iot_link/os/os_imp/liteos/arch/arm/common/cmsis\cmsis_gcc.h **** {
 218:E:/LiteOS/LiteOS_Lab/iot_link/os/os_imp/liteos/arch/arm/common/cmsis\cmsis_gcc.h ****   register uint32_t result;
 219:E:/LiteOS/LiteOS_Lab/iot_link/os/os_imp/liteos/arch/arm/common/cmsis\cmsis_gcc.h **** 
 220:E:/LiteOS/LiteOS_Lab/iot_link/os/os_imp/liteos/arch/arm/common/cmsis\cmsis_gcc.h ****   __ASM volatile ("MRS %0, psp_ns"  : "=r" (result) );
 221:E:/LiteOS/LiteOS_Lab/iot_link/os/os_imp/liteos/arch/arm/common/cmsis\cmsis_gcc.h ****   return(result);
 222:E:/LiteOS/LiteOS_Lab/iot_link/os/os_imp/liteos/arch/arm/common/cmsis\cmsis_gcc.h **** }
 223:E:/LiteOS/LiteOS_Lab/iot_link/os/os_imp/liteos/arch/arm/common/cmsis\cmsis_gcc.h **** #endif
 224:E:/LiteOS/LiteOS_Lab/iot_link/os/os_imp/liteos/arch/arm/common/cmsis\cmsis_gcc.h **** 
 225:E:/LiteOS/LiteOS_Lab/iot_link/os/os_imp/liteos/arch/arm/common/cmsis\cmsis_gcc.h **** 
 226:E:/LiteOS/LiteOS_Lab/iot_link/os/os_imp/liteos/arch/arm/common/cmsis\cmsis_gcc.h **** /**
 227:E:/LiteOS/LiteOS_Lab/iot_link/os/os_imp/liteos/arch/arm/common/cmsis\cmsis_gcc.h ****   \brief   Set Process Stack Pointer
 228:E:/LiteOS/LiteOS_Lab/iot_link/os/os_imp/liteos/arch/arm/common/cmsis\cmsis_gcc.h ****   \details Assigns the given value to the Process Stack Pointer (PSP).
 229:E:/LiteOS/LiteOS_Lab/iot_link/os/os_imp/liteos/arch/arm/common/cmsis\cmsis_gcc.h ****   \param [in]    topOfProcStack  Process Stack Pointer value to set
 230:E:/LiteOS/LiteOS_Lab/iot_link/os/os_imp/liteos/arch/arm/common/cmsis\cmsis_gcc.h ****  */
 231:E:/LiteOS/LiteOS_Lab/iot_link/os/os_imp/liteos/arch/arm/common/cmsis\cmsis_gcc.h **** __attribute__((always_inline)) __STATIC_INLINE void __set_PSP(uint32_t topOfProcStack)
 232:E:/LiteOS/LiteOS_Lab/iot_link/os/os_imp/liteos/arch/arm/common/cmsis\cmsis_gcc.h **** {
 233:E:/LiteOS/LiteOS_Lab/iot_link/os/os_imp/liteos/arch/arm/common/cmsis\cmsis_gcc.h ****   __ASM volatile ("MSR psp, %0" : : "r" (topOfProcStack) : );
 234:E:/LiteOS/LiteOS_Lab/iot_link/os/os_imp/liteos/arch/arm/common/cmsis\cmsis_gcc.h **** }
 235:E:/LiteOS/LiteOS_Lab/iot_link/os/os_imp/liteos/arch/arm/common/cmsis\cmsis_gcc.h **** 
 236:E:/LiteOS/LiteOS_Lab/iot_link/os/os_imp/liteos/arch/arm/common/cmsis\cmsis_gcc.h **** 
 237:E:/LiteOS/LiteOS_Lab/iot_link/os/os_imp/liteos/arch/arm/common/cmsis\cmsis_gcc.h **** #if (defined (__ARM_FEATURE_CMSE ) && (__ARM_FEATURE_CMSE == 3))
 238:E:/LiteOS/LiteOS_Lab/iot_link/os/os_imp/liteos/arch/arm/common/cmsis\cmsis_gcc.h **** /**
 239:E:/LiteOS/LiteOS_Lab/iot_link/os/os_imp/liteos/arch/arm/common/cmsis\cmsis_gcc.h ****   \brief   Set Process Stack Pointer (non-secure)
 240:E:/LiteOS/LiteOS_Lab/iot_link/os/os_imp/liteos/arch/arm/common/cmsis\cmsis_gcc.h ****   \details Assigns the given value to the non-secure Process Stack Pointer (PSP) when in secure sta
 241:E:/LiteOS/LiteOS_Lab/iot_link/os/os_imp/liteos/arch/arm/common/cmsis\cmsis_gcc.h ****   \param [in]    topOfProcStack  Process Stack Pointer value to set
 242:E:/LiteOS/LiteOS_Lab/iot_link/os/os_imp/liteos/arch/arm/common/cmsis\cmsis_gcc.h ****  */
 243:E:/LiteOS/LiteOS_Lab/iot_link/os/os_imp/liteos/arch/arm/common/cmsis\cmsis_gcc.h **** __attribute__((always_inline)) __STATIC_INLINE void __TZ_set_PSP_NS(uint32_t topOfProcStack)
 244:E:/LiteOS/LiteOS_Lab/iot_link/os/os_imp/liteos/arch/arm/common/cmsis\cmsis_gcc.h **** {
 245:E:/LiteOS/LiteOS_Lab/iot_link/os/os_imp/liteos/arch/arm/common/cmsis\cmsis_gcc.h ****   __ASM volatile ("MSR psp_ns, %0" : : "r" (topOfProcStack) : );
 246:E:/LiteOS/LiteOS_Lab/iot_link/os/os_imp/liteos/arch/arm/common/cmsis\cmsis_gcc.h **** }
 247:E:/LiteOS/LiteOS_Lab/iot_link/os/os_imp/liteos/arch/arm/common/cmsis\cmsis_gcc.h **** #endif
 248:E:/LiteOS/LiteOS_Lab/iot_link/os/os_imp/liteos/arch/arm/common/cmsis\cmsis_gcc.h **** 
 249:E:/LiteOS/LiteOS_Lab/iot_link/os/os_imp/liteos/arch/arm/common/cmsis\cmsis_gcc.h **** 
 250:E:/LiteOS/LiteOS_Lab/iot_link/os/os_imp/liteos/arch/arm/common/cmsis\cmsis_gcc.h **** /**
 251:E:/LiteOS/LiteOS_Lab/iot_link/os/os_imp/liteos/arch/arm/common/cmsis\cmsis_gcc.h ****   \brief   Get Main Stack Pointer
 252:E:/LiteOS/LiteOS_Lab/iot_link/os/os_imp/liteos/arch/arm/common/cmsis\cmsis_gcc.h ****   \details Returns the current value of the Main Stack Pointer (MSP).
 253:E:/LiteOS/LiteOS_Lab/iot_link/os/os_imp/liteos/arch/arm/common/cmsis\cmsis_gcc.h ****   \return               MSP Register value
 254:E:/LiteOS/LiteOS_Lab/iot_link/os/os_imp/liteos/arch/arm/common/cmsis\cmsis_gcc.h ****  */
 255:E:/LiteOS/LiteOS_Lab/iot_link/os/os_imp/liteos/arch/arm/common/cmsis\cmsis_gcc.h **** __attribute__((always_inline)) __STATIC_INLINE uint32_t __get_MSP(void)
 256:E:/LiteOS/LiteOS_Lab/iot_link/os/os_imp/liteos/arch/arm/common/cmsis\cmsis_gcc.h **** {
 257:E:/LiteOS/LiteOS_Lab/iot_link/os/os_imp/liteos/arch/arm/common/cmsis\cmsis_gcc.h ****   register uint32_t result;
 258:E:/LiteOS/LiteOS_Lab/iot_link/os/os_imp/liteos/arch/arm/common/cmsis\cmsis_gcc.h **** 
 259:E:/LiteOS/LiteOS_Lab/iot_link/os/os_imp/liteos/arch/arm/common/cmsis\cmsis_gcc.h ****   __ASM volatile ("MRS %0, msp" : "=r" (result) );
 260:E:/LiteOS/LiteOS_Lab/iot_link/os/os_imp/liteos/arch/arm/common/cmsis\cmsis_gcc.h ****   return(result);
 261:E:/LiteOS/LiteOS_Lab/iot_link/os/os_imp/liteos/arch/arm/common/cmsis\cmsis_gcc.h **** }
 262:E:/LiteOS/LiteOS_Lab/iot_link/os/os_imp/liteos/arch/arm/common/cmsis\cmsis_gcc.h **** 
 263:E:/LiteOS/LiteOS_Lab/iot_link/os/os_imp/liteos/arch/arm/common/cmsis\cmsis_gcc.h **** 
 264:E:/LiteOS/LiteOS_Lab/iot_link/os/os_imp/liteos/arch/arm/common/cmsis\cmsis_gcc.h **** #if (defined (__ARM_FEATURE_CMSE ) && (__ARM_FEATURE_CMSE == 3))
 265:E:/LiteOS/LiteOS_Lab/iot_link/os/os_imp/liteos/arch/arm/common/cmsis\cmsis_gcc.h **** /**
 266:E:/LiteOS/LiteOS_Lab/iot_link/os/os_imp/liteos/arch/arm/common/cmsis\cmsis_gcc.h ****   \brief   Get Main Stack Pointer (non-secure)
 267:E:/LiteOS/LiteOS_Lab/iot_link/os/os_imp/liteos/arch/arm/common/cmsis\cmsis_gcc.h ****   \details Returns the current value of the non-secure Main Stack Pointer (MSP) when in secure stat
 268:E:/LiteOS/LiteOS_Lab/iot_link/os/os_imp/liteos/arch/arm/common/cmsis\cmsis_gcc.h ****   \return               MSP Register value
 269:E:/LiteOS/LiteOS_Lab/iot_link/os/os_imp/liteos/arch/arm/common/cmsis\cmsis_gcc.h ****  */
 270:E:/LiteOS/LiteOS_Lab/iot_link/os/os_imp/liteos/arch/arm/common/cmsis\cmsis_gcc.h **** __attribute__((always_inline)) __STATIC_INLINE uint32_t __TZ_get_MSP_NS(void)
 271:E:/LiteOS/LiteOS_Lab/iot_link/os/os_imp/liteos/arch/arm/common/cmsis\cmsis_gcc.h **** {
 272:E:/LiteOS/LiteOS_Lab/iot_link/os/os_imp/liteos/arch/arm/common/cmsis\cmsis_gcc.h ****   register uint32_t result;
 273:E:/LiteOS/LiteOS_Lab/iot_link/os/os_imp/liteos/arch/arm/common/cmsis\cmsis_gcc.h **** 
ARM GAS  C:\Users\user\AppData\Local\Temp\cc2XHdAe.s 			page 30


 274:E:/LiteOS/LiteOS_Lab/iot_link/os/os_imp/liteos/arch/arm/common/cmsis\cmsis_gcc.h ****   __ASM volatile ("MRS %0, msp_ns" : "=r" (result) );
 275:E:/LiteOS/LiteOS_Lab/iot_link/os/os_imp/liteos/arch/arm/common/cmsis\cmsis_gcc.h ****   return(result);
 276:E:/LiteOS/LiteOS_Lab/iot_link/os/os_imp/liteos/arch/arm/common/cmsis\cmsis_gcc.h **** }
 277:E:/LiteOS/LiteOS_Lab/iot_link/os/os_imp/liteos/arch/arm/common/cmsis\cmsis_gcc.h **** #endif
 278:E:/LiteOS/LiteOS_Lab/iot_link/os/os_imp/liteos/arch/arm/common/cmsis\cmsis_gcc.h **** 
 279:E:/LiteOS/LiteOS_Lab/iot_link/os/os_imp/liteos/arch/arm/common/cmsis\cmsis_gcc.h **** 
 280:E:/LiteOS/LiteOS_Lab/iot_link/os/os_imp/liteos/arch/arm/common/cmsis\cmsis_gcc.h **** /**
 281:E:/LiteOS/LiteOS_Lab/iot_link/os/os_imp/liteos/arch/arm/common/cmsis\cmsis_gcc.h ****   \brief   Set Main Stack Pointer
 282:E:/LiteOS/LiteOS_Lab/iot_link/os/os_imp/liteos/arch/arm/common/cmsis\cmsis_gcc.h ****   \details Assigns the given value to the Main Stack Pointer (MSP).
 283:E:/LiteOS/LiteOS_Lab/iot_link/os/os_imp/liteos/arch/arm/common/cmsis\cmsis_gcc.h ****   \param [in]    topOfMainStack  Main Stack Pointer value to set
 284:E:/LiteOS/LiteOS_Lab/iot_link/os/os_imp/liteos/arch/arm/common/cmsis\cmsis_gcc.h ****  */
 285:E:/LiteOS/LiteOS_Lab/iot_link/os/os_imp/liteos/arch/arm/common/cmsis\cmsis_gcc.h **** __attribute__((always_inline)) __STATIC_INLINE void __set_MSP(uint32_t topOfMainStack)
 286:E:/LiteOS/LiteOS_Lab/iot_link/os/os_imp/liteos/arch/arm/common/cmsis\cmsis_gcc.h **** {
 287:E:/LiteOS/LiteOS_Lab/iot_link/os/os_imp/liteos/arch/arm/common/cmsis\cmsis_gcc.h ****   __ASM volatile ("MSR msp, %0" : : "r" (topOfMainStack) : );
 288:E:/LiteOS/LiteOS_Lab/iot_link/os/os_imp/liteos/arch/arm/common/cmsis\cmsis_gcc.h **** }
 289:E:/LiteOS/LiteOS_Lab/iot_link/os/os_imp/liteos/arch/arm/common/cmsis\cmsis_gcc.h **** 
 290:E:/LiteOS/LiteOS_Lab/iot_link/os/os_imp/liteos/arch/arm/common/cmsis\cmsis_gcc.h **** 
 291:E:/LiteOS/LiteOS_Lab/iot_link/os/os_imp/liteos/arch/arm/common/cmsis\cmsis_gcc.h **** #if (defined (__ARM_FEATURE_CMSE ) && (__ARM_FEATURE_CMSE == 3))
 292:E:/LiteOS/LiteOS_Lab/iot_link/os/os_imp/liteos/arch/arm/common/cmsis\cmsis_gcc.h **** /**
 293:E:/LiteOS/LiteOS_Lab/iot_link/os/os_imp/liteos/arch/arm/common/cmsis\cmsis_gcc.h ****   \brief   Set Main Stack Pointer (non-secure)
 294:E:/LiteOS/LiteOS_Lab/iot_link/os/os_imp/liteos/arch/arm/common/cmsis\cmsis_gcc.h ****   \details Assigns the given value to the non-secure Main Stack Pointer (MSP) when in secure state.
 295:E:/LiteOS/LiteOS_Lab/iot_link/os/os_imp/liteos/arch/arm/common/cmsis\cmsis_gcc.h ****   \param [in]    topOfMainStack  Main Stack Pointer value to set
 296:E:/LiteOS/LiteOS_Lab/iot_link/os/os_imp/liteos/arch/arm/common/cmsis\cmsis_gcc.h ****  */
 297:E:/LiteOS/LiteOS_Lab/iot_link/os/os_imp/liteos/arch/arm/common/cmsis\cmsis_gcc.h **** __attribute__((always_inline)) __STATIC_INLINE void __TZ_set_MSP_NS(uint32_t topOfMainStack)
 298:E:/LiteOS/LiteOS_Lab/iot_link/os/os_imp/liteos/arch/arm/common/cmsis\cmsis_gcc.h **** {
 299:E:/LiteOS/LiteOS_Lab/iot_link/os/os_imp/liteos/arch/arm/common/cmsis\cmsis_gcc.h ****   __ASM volatile ("MSR msp_ns, %0" : : "r" (topOfMainStack) : );
 300:E:/LiteOS/LiteOS_Lab/iot_link/os/os_imp/liteos/arch/arm/common/cmsis\cmsis_gcc.h **** }
 301:E:/LiteOS/LiteOS_Lab/iot_link/os/os_imp/liteos/arch/arm/common/cmsis\cmsis_gcc.h **** #endif
 302:E:/LiteOS/LiteOS_Lab/iot_link/os/os_imp/liteos/arch/arm/common/cmsis\cmsis_gcc.h **** 
 303:E:/LiteOS/LiteOS_Lab/iot_link/os/os_imp/liteos/arch/arm/common/cmsis\cmsis_gcc.h **** 
 304:E:/LiteOS/LiteOS_Lab/iot_link/os/os_imp/liteos/arch/arm/common/cmsis\cmsis_gcc.h **** /**
 305:E:/LiteOS/LiteOS_Lab/iot_link/os/os_imp/liteos/arch/arm/common/cmsis\cmsis_gcc.h ****   \brief   Get Priority Mask
 306:E:/LiteOS/LiteOS_Lab/iot_link/os/os_imp/liteos/arch/arm/common/cmsis\cmsis_gcc.h ****   \details Returns the current state of the priority mask bit from the Priority Mask Register.
 307:E:/LiteOS/LiteOS_Lab/iot_link/os/os_imp/liteos/arch/arm/common/cmsis\cmsis_gcc.h ****   \return               Priority Mask value
 308:E:/LiteOS/LiteOS_Lab/iot_link/os/os_imp/liteos/arch/arm/common/cmsis\cmsis_gcc.h ****  */
 309:E:/LiteOS/LiteOS_Lab/iot_link/os/os_imp/liteos/arch/arm/common/cmsis\cmsis_gcc.h **** __attribute__((always_inline)) __STATIC_INLINE uint32_t __get_PRIMASK(void)
 310:E:/LiteOS/LiteOS_Lab/iot_link/os/os_imp/liteos/arch/arm/common/cmsis\cmsis_gcc.h **** {
 311:E:/LiteOS/LiteOS_Lab/iot_link/os/os_imp/liteos/arch/arm/common/cmsis\cmsis_gcc.h ****   uint32_t result;
 312:E:/LiteOS/LiteOS_Lab/iot_link/os/os_imp/liteos/arch/arm/common/cmsis\cmsis_gcc.h **** 
 313:E:/LiteOS/LiteOS_Lab/iot_link/os/os_imp/liteos/arch/arm/common/cmsis\cmsis_gcc.h ****   __ASM volatile ("MRS %0, primask" : "=r" (result) );
 314:E:/LiteOS/LiteOS_Lab/iot_link/os/os_imp/liteos/arch/arm/common/cmsis\cmsis_gcc.h ****   return(result);
 315:E:/LiteOS/LiteOS_Lab/iot_link/os/os_imp/liteos/arch/arm/common/cmsis\cmsis_gcc.h **** }
 316:E:/LiteOS/LiteOS_Lab/iot_link/os/os_imp/liteos/arch/arm/common/cmsis\cmsis_gcc.h **** 
 317:E:/LiteOS/LiteOS_Lab/iot_link/os/os_imp/liteos/arch/arm/common/cmsis\cmsis_gcc.h **** 
 318:E:/LiteOS/LiteOS_Lab/iot_link/os/os_imp/liteos/arch/arm/common/cmsis\cmsis_gcc.h **** #if (defined (__ARM_FEATURE_CMSE ) && (__ARM_FEATURE_CMSE == 3))
 319:E:/LiteOS/LiteOS_Lab/iot_link/os/os_imp/liteos/arch/arm/common/cmsis\cmsis_gcc.h **** /**
 320:E:/LiteOS/LiteOS_Lab/iot_link/os/os_imp/liteos/arch/arm/common/cmsis\cmsis_gcc.h ****   \brief   Get Priority Mask (non-secure)
 321:E:/LiteOS/LiteOS_Lab/iot_link/os/os_imp/liteos/arch/arm/common/cmsis\cmsis_gcc.h ****   \details Returns the current state of the non-secure priority mask bit from the Priority Mask Reg
 322:E:/LiteOS/LiteOS_Lab/iot_link/os/os_imp/liteos/arch/arm/common/cmsis\cmsis_gcc.h ****   \return               Priority Mask value
 323:E:/LiteOS/LiteOS_Lab/iot_link/os/os_imp/liteos/arch/arm/common/cmsis\cmsis_gcc.h ****  */
 324:E:/LiteOS/LiteOS_Lab/iot_link/os/os_imp/liteos/arch/arm/common/cmsis\cmsis_gcc.h **** __attribute__((always_inline)) __STATIC_INLINE uint32_t __TZ_get_PRIMASK_NS(void)
 325:E:/LiteOS/LiteOS_Lab/iot_link/os/os_imp/liteos/arch/arm/common/cmsis\cmsis_gcc.h **** {
 326:E:/LiteOS/LiteOS_Lab/iot_link/os/os_imp/liteos/arch/arm/common/cmsis\cmsis_gcc.h ****   uint32_t result;
 327:E:/LiteOS/LiteOS_Lab/iot_link/os/os_imp/liteos/arch/arm/common/cmsis\cmsis_gcc.h **** 
 328:E:/LiteOS/LiteOS_Lab/iot_link/os/os_imp/liteos/arch/arm/common/cmsis\cmsis_gcc.h ****   __ASM volatile ("MRS %0, primask_ns" : "=r" (result) );
 329:E:/LiteOS/LiteOS_Lab/iot_link/os/os_imp/liteos/arch/arm/common/cmsis\cmsis_gcc.h ****   return(result);
 330:E:/LiteOS/LiteOS_Lab/iot_link/os/os_imp/liteos/arch/arm/common/cmsis\cmsis_gcc.h **** }
ARM GAS  C:\Users\user\AppData\Local\Temp\cc2XHdAe.s 			page 31


 331:E:/LiteOS/LiteOS_Lab/iot_link/os/os_imp/liteos/arch/arm/common/cmsis\cmsis_gcc.h **** #endif
 332:E:/LiteOS/LiteOS_Lab/iot_link/os/os_imp/liteos/arch/arm/common/cmsis\cmsis_gcc.h **** 
 333:E:/LiteOS/LiteOS_Lab/iot_link/os/os_imp/liteos/arch/arm/common/cmsis\cmsis_gcc.h **** 
 334:E:/LiteOS/LiteOS_Lab/iot_link/os/os_imp/liteos/arch/arm/common/cmsis\cmsis_gcc.h **** /**
 335:E:/LiteOS/LiteOS_Lab/iot_link/os/os_imp/liteos/arch/arm/common/cmsis\cmsis_gcc.h ****   \brief   Set Priority Mask
 336:E:/LiteOS/LiteOS_Lab/iot_link/os/os_imp/liteos/arch/arm/common/cmsis\cmsis_gcc.h ****   \details Assigns the given value to the Priority Mask Register.
 337:E:/LiteOS/LiteOS_Lab/iot_link/os/os_imp/liteos/arch/arm/common/cmsis\cmsis_gcc.h ****   \param [in]    priMask  Priority Mask
 338:E:/LiteOS/LiteOS_Lab/iot_link/os/os_imp/liteos/arch/arm/common/cmsis\cmsis_gcc.h ****  */
 339:E:/LiteOS/LiteOS_Lab/iot_link/os/os_imp/liteos/arch/arm/common/cmsis\cmsis_gcc.h **** __attribute__((always_inline)) __STATIC_INLINE void __set_PRIMASK(uint32_t priMask)
 340:E:/LiteOS/LiteOS_Lab/iot_link/os/os_imp/liteos/arch/arm/common/cmsis\cmsis_gcc.h **** {
 341:E:/LiteOS/LiteOS_Lab/iot_link/os/os_imp/liteos/arch/arm/common/cmsis\cmsis_gcc.h ****   __ASM volatile ("MSR primask, %0" : : "r" (priMask) : "memory");
 342:E:/LiteOS/LiteOS_Lab/iot_link/os/os_imp/liteos/arch/arm/common/cmsis\cmsis_gcc.h **** }
 343:E:/LiteOS/LiteOS_Lab/iot_link/os/os_imp/liteos/arch/arm/common/cmsis\cmsis_gcc.h **** 
 344:E:/LiteOS/LiteOS_Lab/iot_link/os/os_imp/liteos/arch/arm/common/cmsis\cmsis_gcc.h **** 
 345:E:/LiteOS/LiteOS_Lab/iot_link/os/os_imp/liteos/arch/arm/common/cmsis\cmsis_gcc.h **** #if (defined (__ARM_FEATURE_CMSE ) && (__ARM_FEATURE_CMSE == 3))
 346:E:/LiteOS/LiteOS_Lab/iot_link/os/os_imp/liteos/arch/arm/common/cmsis\cmsis_gcc.h **** /**
 347:E:/LiteOS/LiteOS_Lab/iot_link/os/os_imp/liteos/arch/arm/common/cmsis\cmsis_gcc.h ****   \brief   Set Priority Mask (non-secure)
 348:E:/LiteOS/LiteOS_Lab/iot_link/os/os_imp/liteos/arch/arm/common/cmsis\cmsis_gcc.h ****   \details Assigns the given value to the non-secure Priority Mask Register when in secure state.
 349:E:/LiteOS/LiteOS_Lab/iot_link/os/os_imp/liteos/arch/arm/common/cmsis\cmsis_gcc.h ****   \param [in]    priMask  Priority Mask
 350:E:/LiteOS/LiteOS_Lab/iot_link/os/os_imp/liteos/arch/arm/common/cmsis\cmsis_gcc.h ****  */
 351:E:/LiteOS/LiteOS_Lab/iot_link/os/os_imp/liteos/arch/arm/common/cmsis\cmsis_gcc.h **** __attribute__((always_inline)) __STATIC_INLINE void __TZ_set_PRIMASK_NS(uint32_t priMask)
 352:E:/LiteOS/LiteOS_Lab/iot_link/os/os_imp/liteos/arch/arm/common/cmsis\cmsis_gcc.h **** {
 353:E:/LiteOS/LiteOS_Lab/iot_link/os/os_imp/liteos/arch/arm/common/cmsis\cmsis_gcc.h ****   __ASM volatile ("MSR primask_ns, %0" : : "r" (priMask) : "memory");
 354:E:/LiteOS/LiteOS_Lab/iot_link/os/os_imp/liteos/arch/arm/common/cmsis\cmsis_gcc.h **** }
 355:E:/LiteOS/LiteOS_Lab/iot_link/os/os_imp/liteos/arch/arm/common/cmsis\cmsis_gcc.h **** #endif
 356:E:/LiteOS/LiteOS_Lab/iot_link/os/os_imp/liteos/arch/arm/common/cmsis\cmsis_gcc.h **** 
 357:E:/LiteOS/LiteOS_Lab/iot_link/os/os_imp/liteos/arch/arm/common/cmsis\cmsis_gcc.h **** 
 358:E:/LiteOS/LiteOS_Lab/iot_link/os/os_imp/liteos/arch/arm/common/cmsis\cmsis_gcc.h **** #if ((defined (__ARM_ARCH_7M__      ) && (__ARM_ARCH_7M__      == 1)) || \
 359:E:/LiteOS/LiteOS_Lab/iot_link/os/os_imp/liteos/arch/arm/common/cmsis\cmsis_gcc.h ****      (defined (__ARM_ARCH_7EM__     ) && (__ARM_ARCH_7EM__     == 1)) || \
 360:E:/LiteOS/LiteOS_Lab/iot_link/os/os_imp/liteos/arch/arm/common/cmsis\cmsis_gcc.h ****      (defined (__ARM_ARCH_8M_MAIN__ ) && (__ARM_ARCH_8M_MAIN__ == 1))    )
 361:E:/LiteOS/LiteOS_Lab/iot_link/os/os_imp/liteos/arch/arm/common/cmsis\cmsis_gcc.h **** /**
 362:E:/LiteOS/LiteOS_Lab/iot_link/os/os_imp/liteos/arch/arm/common/cmsis\cmsis_gcc.h ****   \brief   Enable FIQ
 363:E:/LiteOS/LiteOS_Lab/iot_link/os/os_imp/liteos/arch/arm/common/cmsis\cmsis_gcc.h ****   \details Enables FIQ interrupts by clearing the F-bit in the CPSR.
 364:E:/LiteOS/LiteOS_Lab/iot_link/os/os_imp/liteos/arch/arm/common/cmsis\cmsis_gcc.h ****            Can only be executed in Privileged modes.
 365:E:/LiteOS/LiteOS_Lab/iot_link/os/os_imp/liteos/arch/arm/common/cmsis\cmsis_gcc.h ****  */
 366:E:/LiteOS/LiteOS_Lab/iot_link/os/os_imp/liteos/arch/arm/common/cmsis\cmsis_gcc.h **** __attribute__((always_inline)) __STATIC_INLINE void __enable_fault_irq(void)
 367:E:/LiteOS/LiteOS_Lab/iot_link/os/os_imp/liteos/arch/arm/common/cmsis\cmsis_gcc.h **** {
 368:E:/LiteOS/LiteOS_Lab/iot_link/os/os_imp/liteos/arch/arm/common/cmsis\cmsis_gcc.h ****   __ASM volatile ("cpsie f" : : : "memory");
 369:E:/LiteOS/LiteOS_Lab/iot_link/os/os_imp/liteos/arch/arm/common/cmsis\cmsis_gcc.h **** }
 370:E:/LiteOS/LiteOS_Lab/iot_link/os/os_imp/liteos/arch/arm/common/cmsis\cmsis_gcc.h **** 
 371:E:/LiteOS/LiteOS_Lab/iot_link/os/os_imp/liteos/arch/arm/common/cmsis\cmsis_gcc.h **** 
 372:E:/LiteOS/LiteOS_Lab/iot_link/os/os_imp/liteos/arch/arm/common/cmsis\cmsis_gcc.h **** /**
 373:E:/LiteOS/LiteOS_Lab/iot_link/os/os_imp/liteos/arch/arm/common/cmsis\cmsis_gcc.h ****   \brief   Disable FIQ
 374:E:/LiteOS/LiteOS_Lab/iot_link/os/os_imp/liteos/arch/arm/common/cmsis\cmsis_gcc.h ****   \details Disables FIQ interrupts by setting the F-bit in the CPSR.
 375:E:/LiteOS/LiteOS_Lab/iot_link/os/os_imp/liteos/arch/arm/common/cmsis\cmsis_gcc.h ****            Can only be executed in Privileged modes.
 376:E:/LiteOS/LiteOS_Lab/iot_link/os/os_imp/liteos/arch/arm/common/cmsis\cmsis_gcc.h ****  */
 377:E:/LiteOS/LiteOS_Lab/iot_link/os/os_imp/liteos/arch/arm/common/cmsis\cmsis_gcc.h **** __attribute__((always_inline)) __STATIC_INLINE void __disable_fault_irq(void)
 378:E:/LiteOS/LiteOS_Lab/iot_link/os/os_imp/liteos/arch/arm/common/cmsis\cmsis_gcc.h **** {
 379:E:/LiteOS/LiteOS_Lab/iot_link/os/os_imp/liteos/arch/arm/common/cmsis\cmsis_gcc.h ****   __ASM volatile ("cpsid f" : : : "memory");
 380:E:/LiteOS/LiteOS_Lab/iot_link/os/os_imp/liteos/arch/arm/common/cmsis\cmsis_gcc.h **** }
 381:E:/LiteOS/LiteOS_Lab/iot_link/os/os_imp/liteos/arch/arm/common/cmsis\cmsis_gcc.h **** 
 382:E:/LiteOS/LiteOS_Lab/iot_link/os/os_imp/liteos/arch/arm/common/cmsis\cmsis_gcc.h **** 
 383:E:/LiteOS/LiteOS_Lab/iot_link/os/os_imp/liteos/arch/arm/common/cmsis\cmsis_gcc.h **** /**
 384:E:/LiteOS/LiteOS_Lab/iot_link/os/os_imp/liteos/arch/arm/common/cmsis\cmsis_gcc.h ****   \brief   Get Base Priority
 385:E:/LiteOS/LiteOS_Lab/iot_link/os/os_imp/liteos/arch/arm/common/cmsis\cmsis_gcc.h ****   \details Returns the current value of the Base Priority register.
 386:E:/LiteOS/LiteOS_Lab/iot_link/os/os_imp/liteos/arch/arm/common/cmsis\cmsis_gcc.h ****   \return               Base Priority register value
 387:E:/LiteOS/LiteOS_Lab/iot_link/os/os_imp/liteos/arch/arm/common/cmsis\cmsis_gcc.h ****  */
ARM GAS  C:\Users\user\AppData\Local\Temp\cc2XHdAe.s 			page 32


 388:E:/LiteOS/LiteOS_Lab/iot_link/os/os_imp/liteos/arch/arm/common/cmsis\cmsis_gcc.h **** __attribute__((always_inline)) __STATIC_INLINE uint32_t __get_BASEPRI(void)
 389:E:/LiteOS/LiteOS_Lab/iot_link/os/os_imp/liteos/arch/arm/common/cmsis\cmsis_gcc.h **** {
 390:E:/LiteOS/LiteOS_Lab/iot_link/os/os_imp/liteos/arch/arm/common/cmsis\cmsis_gcc.h ****   uint32_t result;
 391:E:/LiteOS/LiteOS_Lab/iot_link/os/os_imp/liteos/arch/arm/common/cmsis\cmsis_gcc.h **** 
 392:E:/LiteOS/LiteOS_Lab/iot_link/os/os_imp/liteos/arch/arm/common/cmsis\cmsis_gcc.h ****   __ASM volatile ("MRS %0, basepri" : "=r" (result) );
 393:E:/LiteOS/LiteOS_Lab/iot_link/os/os_imp/liteos/arch/arm/common/cmsis\cmsis_gcc.h ****   return(result);
 394:E:/LiteOS/LiteOS_Lab/iot_link/os/os_imp/liteos/arch/arm/common/cmsis\cmsis_gcc.h **** }
 395:E:/LiteOS/LiteOS_Lab/iot_link/os/os_imp/liteos/arch/arm/common/cmsis\cmsis_gcc.h **** 
 396:E:/LiteOS/LiteOS_Lab/iot_link/os/os_imp/liteos/arch/arm/common/cmsis\cmsis_gcc.h **** 
 397:E:/LiteOS/LiteOS_Lab/iot_link/os/os_imp/liteos/arch/arm/common/cmsis\cmsis_gcc.h **** #if (defined (__ARM_FEATURE_CMSE ) && (__ARM_FEATURE_CMSE == 3))
 398:E:/LiteOS/LiteOS_Lab/iot_link/os/os_imp/liteos/arch/arm/common/cmsis\cmsis_gcc.h **** /**
 399:E:/LiteOS/LiteOS_Lab/iot_link/os/os_imp/liteos/arch/arm/common/cmsis\cmsis_gcc.h ****   \brief   Get Base Priority (non-secure)
 400:E:/LiteOS/LiteOS_Lab/iot_link/os/os_imp/liteos/arch/arm/common/cmsis\cmsis_gcc.h ****   \details Returns the current value of the non-secure Base Priority register when in secure state.
 401:E:/LiteOS/LiteOS_Lab/iot_link/os/os_imp/liteos/arch/arm/common/cmsis\cmsis_gcc.h ****   \return               Base Priority register value
 402:E:/LiteOS/LiteOS_Lab/iot_link/os/os_imp/liteos/arch/arm/common/cmsis\cmsis_gcc.h ****  */
 403:E:/LiteOS/LiteOS_Lab/iot_link/os/os_imp/liteos/arch/arm/common/cmsis\cmsis_gcc.h **** __attribute__((always_inline)) __STATIC_INLINE uint32_t __TZ_get_BASEPRI_NS(void)
 404:E:/LiteOS/LiteOS_Lab/iot_link/os/os_imp/liteos/arch/arm/common/cmsis\cmsis_gcc.h **** {
 405:E:/LiteOS/LiteOS_Lab/iot_link/os/os_imp/liteos/arch/arm/common/cmsis\cmsis_gcc.h ****   uint32_t result;
 406:E:/LiteOS/LiteOS_Lab/iot_link/os/os_imp/liteos/arch/arm/common/cmsis\cmsis_gcc.h **** 
 407:E:/LiteOS/LiteOS_Lab/iot_link/os/os_imp/liteos/arch/arm/common/cmsis\cmsis_gcc.h ****   __ASM volatile ("MRS %0, basepri_ns" : "=r" (result) );
 408:E:/LiteOS/LiteOS_Lab/iot_link/os/os_imp/liteos/arch/arm/common/cmsis\cmsis_gcc.h ****   return(result);
 409:E:/LiteOS/LiteOS_Lab/iot_link/os/os_imp/liteos/arch/arm/common/cmsis\cmsis_gcc.h **** }
 410:E:/LiteOS/LiteOS_Lab/iot_link/os/os_imp/liteos/arch/arm/common/cmsis\cmsis_gcc.h **** #endif
 411:E:/LiteOS/LiteOS_Lab/iot_link/os/os_imp/liteos/arch/arm/common/cmsis\cmsis_gcc.h **** 
 412:E:/LiteOS/LiteOS_Lab/iot_link/os/os_imp/liteos/arch/arm/common/cmsis\cmsis_gcc.h **** 
 413:E:/LiteOS/LiteOS_Lab/iot_link/os/os_imp/liteos/arch/arm/common/cmsis\cmsis_gcc.h **** /**
 414:E:/LiteOS/LiteOS_Lab/iot_link/os/os_imp/liteos/arch/arm/common/cmsis\cmsis_gcc.h ****   \brief   Set Base Priority
 415:E:/LiteOS/LiteOS_Lab/iot_link/os/os_imp/liteos/arch/arm/common/cmsis\cmsis_gcc.h ****   \details Assigns the given value to the Base Priority register.
 416:E:/LiteOS/LiteOS_Lab/iot_link/os/os_imp/liteos/arch/arm/common/cmsis\cmsis_gcc.h ****   \param [in]    basePri  Base Priority value to set
 417:E:/LiteOS/LiteOS_Lab/iot_link/os/os_imp/liteos/arch/arm/common/cmsis\cmsis_gcc.h ****  */
 418:E:/LiteOS/LiteOS_Lab/iot_link/os/os_imp/liteos/arch/arm/common/cmsis\cmsis_gcc.h **** __attribute__((always_inline)) __STATIC_INLINE void __set_BASEPRI(uint32_t basePri)
 419:E:/LiteOS/LiteOS_Lab/iot_link/os/os_imp/liteos/arch/arm/common/cmsis\cmsis_gcc.h **** {
 420:E:/LiteOS/LiteOS_Lab/iot_link/os/os_imp/liteos/arch/arm/common/cmsis\cmsis_gcc.h ****   __ASM volatile ("MSR basepri, %0" : : "r" (basePri) : "memory");
 421:E:/LiteOS/LiteOS_Lab/iot_link/os/os_imp/liteos/arch/arm/common/cmsis\cmsis_gcc.h **** }
 422:E:/LiteOS/LiteOS_Lab/iot_link/os/os_imp/liteos/arch/arm/common/cmsis\cmsis_gcc.h **** 
 423:E:/LiteOS/LiteOS_Lab/iot_link/os/os_imp/liteos/arch/arm/common/cmsis\cmsis_gcc.h **** 
 424:E:/LiteOS/LiteOS_Lab/iot_link/os/os_imp/liteos/arch/arm/common/cmsis\cmsis_gcc.h **** #if (defined (__ARM_FEATURE_CMSE ) && (__ARM_FEATURE_CMSE == 3))
 425:E:/LiteOS/LiteOS_Lab/iot_link/os/os_imp/liteos/arch/arm/common/cmsis\cmsis_gcc.h **** /**
 426:E:/LiteOS/LiteOS_Lab/iot_link/os/os_imp/liteos/arch/arm/common/cmsis\cmsis_gcc.h ****   \brief   Set Base Priority (non-secure)
 427:E:/LiteOS/LiteOS_Lab/iot_link/os/os_imp/liteos/arch/arm/common/cmsis\cmsis_gcc.h ****   \details Assigns the given value to the non-secure Base Priority register when in secure state.
 428:E:/LiteOS/LiteOS_Lab/iot_link/os/os_imp/liteos/arch/arm/common/cmsis\cmsis_gcc.h ****   \param [in]    basePri  Base Priority value to set
 429:E:/LiteOS/LiteOS_Lab/iot_link/os/os_imp/liteos/arch/arm/common/cmsis\cmsis_gcc.h ****  */
 430:E:/LiteOS/LiteOS_Lab/iot_link/os/os_imp/liteos/arch/arm/common/cmsis\cmsis_gcc.h **** __attribute__((always_inline)) __STATIC_INLINE void __TZ_set_BASEPRI_NS(uint32_t basePri)
 431:E:/LiteOS/LiteOS_Lab/iot_link/os/os_imp/liteos/arch/arm/common/cmsis\cmsis_gcc.h **** {
 432:E:/LiteOS/LiteOS_Lab/iot_link/os/os_imp/liteos/arch/arm/common/cmsis\cmsis_gcc.h ****   __ASM volatile ("MSR basepri_ns, %0" : : "r" (basePri) : "memory");
 433:E:/LiteOS/LiteOS_Lab/iot_link/os/os_imp/liteos/arch/arm/common/cmsis\cmsis_gcc.h **** }
 434:E:/LiteOS/LiteOS_Lab/iot_link/os/os_imp/liteos/arch/arm/common/cmsis\cmsis_gcc.h **** #endif
 435:E:/LiteOS/LiteOS_Lab/iot_link/os/os_imp/liteos/arch/arm/common/cmsis\cmsis_gcc.h **** 
 436:E:/LiteOS/LiteOS_Lab/iot_link/os/os_imp/liteos/arch/arm/common/cmsis\cmsis_gcc.h **** 
 437:E:/LiteOS/LiteOS_Lab/iot_link/os/os_imp/liteos/arch/arm/common/cmsis\cmsis_gcc.h **** /**
 438:E:/LiteOS/LiteOS_Lab/iot_link/os/os_imp/liteos/arch/arm/common/cmsis\cmsis_gcc.h ****   \brief   Set Base Priority with condition
 439:E:/LiteOS/LiteOS_Lab/iot_link/os/os_imp/liteos/arch/arm/common/cmsis\cmsis_gcc.h ****   \details Assigns the given value to the Base Priority register only if BASEPRI masking is disable
 440:E:/LiteOS/LiteOS_Lab/iot_link/os/os_imp/liteos/arch/arm/common/cmsis\cmsis_gcc.h ****            or the new value increases the BASEPRI priority level.
 441:E:/LiteOS/LiteOS_Lab/iot_link/os/os_imp/liteos/arch/arm/common/cmsis\cmsis_gcc.h ****   \param [in]    basePri  Base Priority value to set
 442:E:/LiteOS/LiteOS_Lab/iot_link/os/os_imp/liteos/arch/arm/common/cmsis\cmsis_gcc.h ****  */
 443:E:/LiteOS/LiteOS_Lab/iot_link/os/os_imp/liteos/arch/arm/common/cmsis\cmsis_gcc.h **** __attribute__((always_inline)) __STATIC_INLINE void __set_BASEPRI_MAX(uint32_t basePri)
 444:E:/LiteOS/LiteOS_Lab/iot_link/os/os_imp/liteos/arch/arm/common/cmsis\cmsis_gcc.h **** {
ARM GAS  C:\Users\user\AppData\Local\Temp\cc2XHdAe.s 			page 33


 445:E:/LiteOS/LiteOS_Lab/iot_link/os/os_imp/liteos/arch/arm/common/cmsis\cmsis_gcc.h ****   __ASM volatile ("MSR basepri_max, %0" : : "r" (basePri) : "memory");
 446:E:/LiteOS/LiteOS_Lab/iot_link/os/os_imp/liteos/arch/arm/common/cmsis\cmsis_gcc.h **** }
 447:E:/LiteOS/LiteOS_Lab/iot_link/os/os_imp/liteos/arch/arm/common/cmsis\cmsis_gcc.h **** 
 448:E:/LiteOS/LiteOS_Lab/iot_link/os/os_imp/liteos/arch/arm/common/cmsis\cmsis_gcc.h **** 
 449:E:/LiteOS/LiteOS_Lab/iot_link/os/os_imp/liteos/arch/arm/common/cmsis\cmsis_gcc.h **** /**
 450:E:/LiteOS/LiteOS_Lab/iot_link/os/os_imp/liteos/arch/arm/common/cmsis\cmsis_gcc.h ****   \brief   Get Fault Mask
 451:E:/LiteOS/LiteOS_Lab/iot_link/os/os_imp/liteos/arch/arm/common/cmsis\cmsis_gcc.h ****   \details Returns the current value of the Fault Mask register.
 452:E:/LiteOS/LiteOS_Lab/iot_link/os/os_imp/liteos/arch/arm/common/cmsis\cmsis_gcc.h ****   \return               Fault Mask register value
 453:E:/LiteOS/LiteOS_Lab/iot_link/os/os_imp/liteos/arch/arm/common/cmsis\cmsis_gcc.h ****  */
 454:E:/LiteOS/LiteOS_Lab/iot_link/os/os_imp/liteos/arch/arm/common/cmsis\cmsis_gcc.h **** __attribute__((always_inline)) __STATIC_INLINE uint32_t __get_FAULTMASK(void)
 455:E:/LiteOS/LiteOS_Lab/iot_link/os/os_imp/liteos/arch/arm/common/cmsis\cmsis_gcc.h **** {
 456:E:/LiteOS/LiteOS_Lab/iot_link/os/os_imp/liteos/arch/arm/common/cmsis\cmsis_gcc.h ****   uint32_t result;
 457:E:/LiteOS/LiteOS_Lab/iot_link/os/os_imp/liteos/arch/arm/common/cmsis\cmsis_gcc.h **** 
 458:E:/LiteOS/LiteOS_Lab/iot_link/os/os_imp/liteos/arch/arm/common/cmsis\cmsis_gcc.h ****   __ASM volatile ("MRS %0, faultmask" : "=r" (result) );
 459:E:/LiteOS/LiteOS_Lab/iot_link/os/os_imp/liteos/arch/arm/common/cmsis\cmsis_gcc.h ****   return(result);
 460:E:/LiteOS/LiteOS_Lab/iot_link/os/os_imp/liteos/arch/arm/common/cmsis\cmsis_gcc.h **** }
 461:E:/LiteOS/LiteOS_Lab/iot_link/os/os_imp/liteos/arch/arm/common/cmsis\cmsis_gcc.h **** 
 462:E:/LiteOS/LiteOS_Lab/iot_link/os/os_imp/liteos/arch/arm/common/cmsis\cmsis_gcc.h **** 
 463:E:/LiteOS/LiteOS_Lab/iot_link/os/os_imp/liteos/arch/arm/common/cmsis\cmsis_gcc.h **** #if (defined (__ARM_FEATURE_CMSE ) && (__ARM_FEATURE_CMSE == 3))
 464:E:/LiteOS/LiteOS_Lab/iot_link/os/os_imp/liteos/arch/arm/common/cmsis\cmsis_gcc.h **** /**
 465:E:/LiteOS/LiteOS_Lab/iot_link/os/os_imp/liteos/arch/arm/common/cmsis\cmsis_gcc.h ****   \brief   Get Fault Mask (non-secure)
 466:E:/LiteOS/LiteOS_Lab/iot_link/os/os_imp/liteos/arch/arm/common/cmsis\cmsis_gcc.h ****   \details Returns the current value of the non-secure Fault Mask register when in secure state.
 467:E:/LiteOS/LiteOS_Lab/iot_link/os/os_imp/liteos/arch/arm/common/cmsis\cmsis_gcc.h ****   \return               Fault Mask register value
 468:E:/LiteOS/LiteOS_Lab/iot_link/os/os_imp/liteos/arch/arm/common/cmsis\cmsis_gcc.h ****  */
 469:E:/LiteOS/LiteOS_Lab/iot_link/os/os_imp/liteos/arch/arm/common/cmsis\cmsis_gcc.h **** __attribute__((always_inline)) __STATIC_INLINE uint32_t __TZ_get_FAULTMASK_NS(void)
 470:E:/LiteOS/LiteOS_Lab/iot_link/os/os_imp/liteos/arch/arm/common/cmsis\cmsis_gcc.h **** {
 471:E:/LiteOS/LiteOS_Lab/iot_link/os/os_imp/liteos/arch/arm/common/cmsis\cmsis_gcc.h ****   uint32_t result;
 472:E:/LiteOS/LiteOS_Lab/iot_link/os/os_imp/liteos/arch/arm/common/cmsis\cmsis_gcc.h **** 
 473:E:/LiteOS/LiteOS_Lab/iot_link/os/os_imp/liteos/arch/arm/common/cmsis\cmsis_gcc.h ****   __ASM volatile ("MRS %0, faultmask_ns" : "=r" (result) );
 474:E:/LiteOS/LiteOS_Lab/iot_link/os/os_imp/liteos/arch/arm/common/cmsis\cmsis_gcc.h ****   return(result);
 475:E:/LiteOS/LiteOS_Lab/iot_link/os/os_imp/liteos/arch/arm/common/cmsis\cmsis_gcc.h **** }
 476:E:/LiteOS/LiteOS_Lab/iot_link/os/os_imp/liteos/arch/arm/common/cmsis\cmsis_gcc.h **** #endif
 477:E:/LiteOS/LiteOS_Lab/iot_link/os/os_imp/liteos/arch/arm/common/cmsis\cmsis_gcc.h **** 
 478:E:/LiteOS/LiteOS_Lab/iot_link/os/os_imp/liteos/arch/arm/common/cmsis\cmsis_gcc.h **** 
 479:E:/LiteOS/LiteOS_Lab/iot_link/os/os_imp/liteos/arch/arm/common/cmsis\cmsis_gcc.h **** /**
 480:E:/LiteOS/LiteOS_Lab/iot_link/os/os_imp/liteos/arch/arm/common/cmsis\cmsis_gcc.h ****   \brief   Set Fault Mask
 481:E:/LiteOS/LiteOS_Lab/iot_link/os/os_imp/liteos/arch/arm/common/cmsis\cmsis_gcc.h ****   \details Assigns the given value to the Fault Mask register.
 482:E:/LiteOS/LiteOS_Lab/iot_link/os/os_imp/liteos/arch/arm/common/cmsis\cmsis_gcc.h ****   \param [in]    faultMask  Fault Mask value to set
 483:E:/LiteOS/LiteOS_Lab/iot_link/os/os_imp/liteos/arch/arm/common/cmsis\cmsis_gcc.h ****  */
 484:E:/LiteOS/LiteOS_Lab/iot_link/os/os_imp/liteos/arch/arm/common/cmsis\cmsis_gcc.h **** __attribute__((always_inline)) __STATIC_INLINE void __set_FAULTMASK(uint32_t faultMask)
 485:E:/LiteOS/LiteOS_Lab/iot_link/os/os_imp/liteos/arch/arm/common/cmsis\cmsis_gcc.h **** {
 486:E:/LiteOS/LiteOS_Lab/iot_link/os/os_imp/liteos/arch/arm/common/cmsis\cmsis_gcc.h ****   __ASM volatile ("MSR faultmask, %0" : : "r" (faultMask) : "memory");
 487:E:/LiteOS/LiteOS_Lab/iot_link/os/os_imp/liteos/arch/arm/common/cmsis\cmsis_gcc.h **** }
 488:E:/LiteOS/LiteOS_Lab/iot_link/os/os_imp/liteos/arch/arm/common/cmsis\cmsis_gcc.h **** 
 489:E:/LiteOS/LiteOS_Lab/iot_link/os/os_imp/liteos/arch/arm/common/cmsis\cmsis_gcc.h **** 
 490:E:/LiteOS/LiteOS_Lab/iot_link/os/os_imp/liteos/arch/arm/common/cmsis\cmsis_gcc.h **** #if (defined (__ARM_FEATURE_CMSE ) && (__ARM_FEATURE_CMSE == 3))
 491:E:/LiteOS/LiteOS_Lab/iot_link/os/os_imp/liteos/arch/arm/common/cmsis\cmsis_gcc.h **** /**
 492:E:/LiteOS/LiteOS_Lab/iot_link/os/os_imp/liteos/arch/arm/common/cmsis\cmsis_gcc.h ****   \brief   Set Fault Mask (non-secure)
 493:E:/LiteOS/LiteOS_Lab/iot_link/os/os_imp/liteos/arch/arm/common/cmsis\cmsis_gcc.h ****   \details Assigns the given value to the non-secure Fault Mask register when in secure state.
 494:E:/LiteOS/LiteOS_Lab/iot_link/os/os_imp/liteos/arch/arm/common/cmsis\cmsis_gcc.h ****   \param [in]    faultMask  Fault Mask value to set
 495:E:/LiteOS/LiteOS_Lab/iot_link/os/os_imp/liteos/arch/arm/common/cmsis\cmsis_gcc.h ****  */
 496:E:/LiteOS/LiteOS_Lab/iot_link/os/os_imp/liteos/arch/arm/common/cmsis\cmsis_gcc.h **** __attribute__((always_inline)) __STATIC_INLINE void __TZ_set_FAULTMASK_NS(uint32_t faultMask)
 497:E:/LiteOS/LiteOS_Lab/iot_link/os/os_imp/liteos/arch/arm/common/cmsis\cmsis_gcc.h **** {
 498:E:/LiteOS/LiteOS_Lab/iot_link/os/os_imp/liteos/arch/arm/common/cmsis\cmsis_gcc.h ****   __ASM volatile ("MSR faultmask_ns, %0" : : "r" (faultMask) : "memory");
 499:E:/LiteOS/LiteOS_Lab/iot_link/os/os_imp/liteos/arch/arm/common/cmsis\cmsis_gcc.h **** }
 500:E:/LiteOS/LiteOS_Lab/iot_link/os/os_imp/liteos/arch/arm/common/cmsis\cmsis_gcc.h **** #endif
 501:E:/LiteOS/LiteOS_Lab/iot_link/os/os_imp/liteos/arch/arm/common/cmsis\cmsis_gcc.h **** 
ARM GAS  C:\Users\user\AppData\Local\Temp\cc2XHdAe.s 			page 34


 502:E:/LiteOS/LiteOS_Lab/iot_link/os/os_imp/liteos/arch/arm/common/cmsis\cmsis_gcc.h **** #endif /* ((defined (__ARM_ARCH_7M__      ) && (__ARM_ARCH_7M__      == 1)) || \
 503:E:/LiteOS/LiteOS_Lab/iot_link/os/os_imp/liteos/arch/arm/common/cmsis\cmsis_gcc.h ****            (defined (__ARM_ARCH_7EM__     ) && (__ARM_ARCH_7EM__     == 1)) || \
 504:E:/LiteOS/LiteOS_Lab/iot_link/os/os_imp/liteos/arch/arm/common/cmsis\cmsis_gcc.h ****            (defined (__ARM_ARCH_8M_MAIN__ ) && (__ARM_ARCH_8M_MAIN__ == 1))    ) */
 505:E:/LiteOS/LiteOS_Lab/iot_link/os/os_imp/liteos/arch/arm/common/cmsis\cmsis_gcc.h **** 
 506:E:/LiteOS/LiteOS_Lab/iot_link/os/os_imp/liteos/arch/arm/common/cmsis\cmsis_gcc.h **** 
 507:E:/LiteOS/LiteOS_Lab/iot_link/os/os_imp/liteos/arch/arm/common/cmsis\cmsis_gcc.h **** #if ((defined (__ARM_ARCH_8M_MAIN__ ) && (__ARM_ARCH_8M_MAIN__ == 1)) || \
 508:E:/LiteOS/LiteOS_Lab/iot_link/os/os_imp/liteos/arch/arm/common/cmsis\cmsis_gcc.h ****      (defined (__ARM_ARCH_8M_BASE__ ) && (__ARM_ARCH_8M_BASE__ == 1))    )
 509:E:/LiteOS/LiteOS_Lab/iot_link/os/os_imp/liteos/arch/arm/common/cmsis\cmsis_gcc.h **** 
 510:E:/LiteOS/LiteOS_Lab/iot_link/os/os_imp/liteos/arch/arm/common/cmsis\cmsis_gcc.h **** /**
 511:E:/LiteOS/LiteOS_Lab/iot_link/os/os_imp/liteos/arch/arm/common/cmsis\cmsis_gcc.h ****   \brief   Get Process Stack Pointer Limit
 512:E:/LiteOS/LiteOS_Lab/iot_link/os/os_imp/liteos/arch/arm/common/cmsis\cmsis_gcc.h ****   \details Returns the current value of the Process Stack Pointer Limit (PSPLIM).
 513:E:/LiteOS/LiteOS_Lab/iot_link/os/os_imp/liteos/arch/arm/common/cmsis\cmsis_gcc.h ****   \return               PSPLIM Register value
 514:E:/LiteOS/LiteOS_Lab/iot_link/os/os_imp/liteos/arch/arm/common/cmsis\cmsis_gcc.h ****  */
 515:E:/LiteOS/LiteOS_Lab/iot_link/os/os_imp/liteos/arch/arm/common/cmsis\cmsis_gcc.h **** __attribute__((always_inline)) __STATIC_INLINE uint32_t __get_PSPLIM(void)
 516:E:/LiteOS/LiteOS_Lab/iot_link/os/os_imp/liteos/arch/arm/common/cmsis\cmsis_gcc.h **** {
 517:E:/LiteOS/LiteOS_Lab/iot_link/os/os_imp/liteos/arch/arm/common/cmsis\cmsis_gcc.h ****   register uint32_t result;
 518:E:/LiteOS/LiteOS_Lab/iot_link/os/os_imp/liteos/arch/arm/common/cmsis\cmsis_gcc.h **** 
 519:E:/LiteOS/LiteOS_Lab/iot_link/os/os_imp/liteos/arch/arm/common/cmsis\cmsis_gcc.h ****   __ASM volatile ("MRS %0, psplim"  : "=r" (result) );
 520:E:/LiteOS/LiteOS_Lab/iot_link/os/os_imp/liteos/arch/arm/common/cmsis\cmsis_gcc.h ****   return(result);
 521:E:/LiteOS/LiteOS_Lab/iot_link/os/os_imp/liteos/arch/arm/common/cmsis\cmsis_gcc.h **** }
 522:E:/LiteOS/LiteOS_Lab/iot_link/os/os_imp/liteos/arch/arm/common/cmsis\cmsis_gcc.h **** 
 523:E:/LiteOS/LiteOS_Lab/iot_link/os/os_imp/liteos/arch/arm/common/cmsis\cmsis_gcc.h **** 
 524:E:/LiteOS/LiteOS_Lab/iot_link/os/os_imp/liteos/arch/arm/common/cmsis\cmsis_gcc.h **** #if ((defined (__ARM_FEATURE_CMSE  ) && (__ARM_FEATURE_CMSE   == 3)) && \
 525:E:/LiteOS/LiteOS_Lab/iot_link/os/os_imp/liteos/arch/arm/common/cmsis\cmsis_gcc.h ****      (defined (__ARM_ARCH_8M_MAIN__) && (__ARM_ARCH_8M_MAIN__ == 1))    )
 526:E:/LiteOS/LiteOS_Lab/iot_link/os/os_imp/liteos/arch/arm/common/cmsis\cmsis_gcc.h **** /**
 527:E:/LiteOS/LiteOS_Lab/iot_link/os/os_imp/liteos/arch/arm/common/cmsis\cmsis_gcc.h ****   \brief   Get Process Stack Pointer Limit (non-secure)
 528:E:/LiteOS/LiteOS_Lab/iot_link/os/os_imp/liteos/arch/arm/common/cmsis\cmsis_gcc.h ****   \details Returns the current value of the non-secure Process Stack Pointer Limit (PSPLIM) when in
 529:E:/LiteOS/LiteOS_Lab/iot_link/os/os_imp/liteos/arch/arm/common/cmsis\cmsis_gcc.h ****   \return               PSPLIM Register value
 530:E:/LiteOS/LiteOS_Lab/iot_link/os/os_imp/liteos/arch/arm/common/cmsis\cmsis_gcc.h ****  */
 531:E:/LiteOS/LiteOS_Lab/iot_link/os/os_imp/liteos/arch/arm/common/cmsis\cmsis_gcc.h **** __attribute__((always_inline)) __STATIC_INLINE uint32_t __TZ_get_PSPLIM_NS(void)
 532:E:/LiteOS/LiteOS_Lab/iot_link/os/os_imp/liteos/arch/arm/common/cmsis\cmsis_gcc.h **** {
 533:E:/LiteOS/LiteOS_Lab/iot_link/os/os_imp/liteos/arch/arm/common/cmsis\cmsis_gcc.h ****   register uint32_t result;
 534:E:/LiteOS/LiteOS_Lab/iot_link/os/os_imp/liteos/arch/arm/common/cmsis\cmsis_gcc.h **** 
 535:E:/LiteOS/LiteOS_Lab/iot_link/os/os_imp/liteos/arch/arm/common/cmsis\cmsis_gcc.h ****   __ASM volatile ("MRS %0, psplim_ns"  : "=r" (result) );
 536:E:/LiteOS/LiteOS_Lab/iot_link/os/os_imp/liteos/arch/arm/common/cmsis\cmsis_gcc.h ****   return(result);
 537:E:/LiteOS/LiteOS_Lab/iot_link/os/os_imp/liteos/arch/arm/common/cmsis\cmsis_gcc.h **** }
 538:E:/LiteOS/LiteOS_Lab/iot_link/os/os_imp/liteos/arch/arm/common/cmsis\cmsis_gcc.h **** #endif
 539:E:/LiteOS/LiteOS_Lab/iot_link/os/os_imp/liteos/arch/arm/common/cmsis\cmsis_gcc.h **** 
 540:E:/LiteOS/LiteOS_Lab/iot_link/os/os_imp/liteos/arch/arm/common/cmsis\cmsis_gcc.h **** 
 541:E:/LiteOS/LiteOS_Lab/iot_link/os/os_imp/liteos/arch/arm/common/cmsis\cmsis_gcc.h **** /**
 542:E:/LiteOS/LiteOS_Lab/iot_link/os/os_imp/liteos/arch/arm/common/cmsis\cmsis_gcc.h ****   \brief   Set Process Stack Pointer Limit
 543:E:/LiteOS/LiteOS_Lab/iot_link/os/os_imp/liteos/arch/arm/common/cmsis\cmsis_gcc.h ****   \details Assigns the given value to the Process Stack Pointer Limit (PSPLIM).
 544:E:/LiteOS/LiteOS_Lab/iot_link/os/os_imp/liteos/arch/arm/common/cmsis\cmsis_gcc.h ****   \param [in]    ProcStackPtrLimit  Process Stack Pointer Limit value to set
 545:E:/LiteOS/LiteOS_Lab/iot_link/os/os_imp/liteos/arch/arm/common/cmsis\cmsis_gcc.h ****  */
 546:E:/LiteOS/LiteOS_Lab/iot_link/os/os_imp/liteos/arch/arm/common/cmsis\cmsis_gcc.h **** __attribute__((always_inline)) __STATIC_INLINE void __set_PSPLIM(uint32_t ProcStackPtrLimit)
 547:E:/LiteOS/LiteOS_Lab/iot_link/os/os_imp/liteos/arch/arm/common/cmsis\cmsis_gcc.h **** {
 548:E:/LiteOS/LiteOS_Lab/iot_link/os/os_imp/liteos/arch/arm/common/cmsis\cmsis_gcc.h ****   __ASM volatile ("MSR psplim, %0" : : "r" (ProcStackPtrLimit));
 549:E:/LiteOS/LiteOS_Lab/iot_link/os/os_imp/liteos/arch/arm/common/cmsis\cmsis_gcc.h **** }
 550:E:/LiteOS/LiteOS_Lab/iot_link/os/os_imp/liteos/arch/arm/common/cmsis\cmsis_gcc.h **** 
 551:E:/LiteOS/LiteOS_Lab/iot_link/os/os_imp/liteos/arch/arm/common/cmsis\cmsis_gcc.h **** 
 552:E:/LiteOS/LiteOS_Lab/iot_link/os/os_imp/liteos/arch/arm/common/cmsis\cmsis_gcc.h **** #if ((defined (__ARM_FEATURE_CMSE  ) && (__ARM_FEATURE_CMSE   == 3)) && \
 553:E:/LiteOS/LiteOS_Lab/iot_link/os/os_imp/liteos/arch/arm/common/cmsis\cmsis_gcc.h ****      (defined (__ARM_ARCH_8M_MAIN__) && (__ARM_ARCH_8M_MAIN__ == 1))    )
 554:E:/LiteOS/LiteOS_Lab/iot_link/os/os_imp/liteos/arch/arm/common/cmsis\cmsis_gcc.h **** /**
 555:E:/LiteOS/LiteOS_Lab/iot_link/os/os_imp/liteos/arch/arm/common/cmsis\cmsis_gcc.h ****   \brief   Set Process Stack Pointer (non-secure)
 556:E:/LiteOS/LiteOS_Lab/iot_link/os/os_imp/liteos/arch/arm/common/cmsis\cmsis_gcc.h ****   \details Assigns the given value to the non-secure Process Stack Pointer Limit (PSPLIM) when in s
 557:E:/LiteOS/LiteOS_Lab/iot_link/os/os_imp/liteos/arch/arm/common/cmsis\cmsis_gcc.h ****   \param [in]    ProcStackPtrLimit  Process Stack Pointer Limit value to set
 558:E:/LiteOS/LiteOS_Lab/iot_link/os/os_imp/liteos/arch/arm/common/cmsis\cmsis_gcc.h ****  */
ARM GAS  C:\Users\user\AppData\Local\Temp\cc2XHdAe.s 			page 35


 559:E:/LiteOS/LiteOS_Lab/iot_link/os/os_imp/liteos/arch/arm/common/cmsis\cmsis_gcc.h **** __attribute__((always_inline)) __STATIC_INLINE void __TZ_set_PSPLIM_NS(uint32_t ProcStackPtrLimit)
 560:E:/LiteOS/LiteOS_Lab/iot_link/os/os_imp/liteos/arch/arm/common/cmsis\cmsis_gcc.h **** {
 561:E:/LiteOS/LiteOS_Lab/iot_link/os/os_imp/liteos/arch/arm/common/cmsis\cmsis_gcc.h ****   __ASM volatile ("MSR psplim_ns, %0\n" : : "r" (ProcStackPtrLimit));
 562:E:/LiteOS/LiteOS_Lab/iot_link/os/os_imp/liteos/arch/arm/common/cmsis\cmsis_gcc.h **** }
 563:E:/LiteOS/LiteOS_Lab/iot_link/os/os_imp/liteos/arch/arm/common/cmsis\cmsis_gcc.h **** #endif
 564:E:/LiteOS/LiteOS_Lab/iot_link/os/os_imp/liteos/arch/arm/common/cmsis\cmsis_gcc.h **** 
 565:E:/LiteOS/LiteOS_Lab/iot_link/os/os_imp/liteos/arch/arm/common/cmsis\cmsis_gcc.h **** 
 566:E:/LiteOS/LiteOS_Lab/iot_link/os/os_imp/liteos/arch/arm/common/cmsis\cmsis_gcc.h **** /**
 567:E:/LiteOS/LiteOS_Lab/iot_link/os/os_imp/liteos/arch/arm/common/cmsis\cmsis_gcc.h ****   \brief   Get Main Stack Pointer Limit
 568:E:/LiteOS/LiteOS_Lab/iot_link/os/os_imp/liteos/arch/arm/common/cmsis\cmsis_gcc.h ****   \details Returns the current value of the Main Stack Pointer Limit (MSPLIM).
 569:E:/LiteOS/LiteOS_Lab/iot_link/os/os_imp/liteos/arch/arm/common/cmsis\cmsis_gcc.h ****   \return               MSPLIM Register value
 570:E:/LiteOS/LiteOS_Lab/iot_link/os/os_imp/liteos/arch/arm/common/cmsis\cmsis_gcc.h ****  */
 571:E:/LiteOS/LiteOS_Lab/iot_link/os/os_imp/liteos/arch/arm/common/cmsis\cmsis_gcc.h **** __attribute__((always_inline)) __STATIC_INLINE uint32_t __get_MSPLIM(void)
 572:E:/LiteOS/LiteOS_Lab/iot_link/os/os_imp/liteos/arch/arm/common/cmsis\cmsis_gcc.h **** {
 573:E:/LiteOS/LiteOS_Lab/iot_link/os/os_imp/liteos/arch/arm/common/cmsis\cmsis_gcc.h ****   register uint32_t result;
 574:E:/LiteOS/LiteOS_Lab/iot_link/os/os_imp/liteos/arch/arm/common/cmsis\cmsis_gcc.h **** 
 575:E:/LiteOS/LiteOS_Lab/iot_link/os/os_imp/liteos/arch/arm/common/cmsis\cmsis_gcc.h ****   __ASM volatile ("MRS %0, msplim" : "=r" (result) );
 576:E:/LiteOS/LiteOS_Lab/iot_link/os/os_imp/liteos/arch/arm/common/cmsis\cmsis_gcc.h **** 
 577:E:/LiteOS/LiteOS_Lab/iot_link/os/os_imp/liteos/arch/arm/common/cmsis\cmsis_gcc.h ****   return(result);
 578:E:/LiteOS/LiteOS_Lab/iot_link/os/os_imp/liteos/arch/arm/common/cmsis\cmsis_gcc.h **** }
 579:E:/LiteOS/LiteOS_Lab/iot_link/os/os_imp/liteos/arch/arm/common/cmsis\cmsis_gcc.h **** 
 580:E:/LiteOS/LiteOS_Lab/iot_link/os/os_imp/liteos/arch/arm/common/cmsis\cmsis_gcc.h **** 
 581:E:/LiteOS/LiteOS_Lab/iot_link/os/os_imp/liteos/arch/arm/common/cmsis\cmsis_gcc.h **** #if ((defined (__ARM_FEATURE_CMSE  ) && (__ARM_FEATURE_CMSE   == 3)) && \
 582:E:/LiteOS/LiteOS_Lab/iot_link/os/os_imp/liteos/arch/arm/common/cmsis\cmsis_gcc.h ****      (defined (__ARM_ARCH_8M_MAIN__) && (__ARM_ARCH_8M_MAIN__ == 1))    )
 583:E:/LiteOS/LiteOS_Lab/iot_link/os/os_imp/liteos/arch/arm/common/cmsis\cmsis_gcc.h **** /**
 584:E:/LiteOS/LiteOS_Lab/iot_link/os/os_imp/liteos/arch/arm/common/cmsis\cmsis_gcc.h ****   \brief   Get Main Stack Pointer Limit (non-secure)
 585:E:/LiteOS/LiteOS_Lab/iot_link/os/os_imp/liteos/arch/arm/common/cmsis\cmsis_gcc.h ****   \details Returns the current value of the non-secure Main Stack Pointer Limit(MSPLIM) when in sec
 586:E:/LiteOS/LiteOS_Lab/iot_link/os/os_imp/liteos/arch/arm/common/cmsis\cmsis_gcc.h ****   \return               MSPLIM Register value
 587:E:/LiteOS/LiteOS_Lab/iot_link/os/os_imp/liteos/arch/arm/common/cmsis\cmsis_gcc.h ****  */
 588:E:/LiteOS/LiteOS_Lab/iot_link/os/os_imp/liteos/arch/arm/common/cmsis\cmsis_gcc.h **** __attribute__((always_inline)) __STATIC_INLINE uint32_t __TZ_get_MSPLIM_NS(void)
 589:E:/LiteOS/LiteOS_Lab/iot_link/os/os_imp/liteos/arch/arm/common/cmsis\cmsis_gcc.h **** {
 590:E:/LiteOS/LiteOS_Lab/iot_link/os/os_imp/liteos/arch/arm/common/cmsis\cmsis_gcc.h ****   register uint32_t result;
 591:E:/LiteOS/LiteOS_Lab/iot_link/os/os_imp/liteos/arch/arm/common/cmsis\cmsis_gcc.h **** 
 592:E:/LiteOS/LiteOS_Lab/iot_link/os/os_imp/liteos/arch/arm/common/cmsis\cmsis_gcc.h ****   __ASM volatile ("MRS %0, msplim_ns" : "=r" (result) );
 593:E:/LiteOS/LiteOS_Lab/iot_link/os/os_imp/liteos/arch/arm/common/cmsis\cmsis_gcc.h ****   return(result);
 594:E:/LiteOS/LiteOS_Lab/iot_link/os/os_imp/liteos/arch/arm/common/cmsis\cmsis_gcc.h **** }
 595:E:/LiteOS/LiteOS_Lab/iot_link/os/os_imp/liteos/arch/arm/common/cmsis\cmsis_gcc.h **** #endif
 596:E:/LiteOS/LiteOS_Lab/iot_link/os/os_imp/liteos/arch/arm/common/cmsis\cmsis_gcc.h **** 
 597:E:/LiteOS/LiteOS_Lab/iot_link/os/os_imp/liteos/arch/arm/common/cmsis\cmsis_gcc.h **** 
 598:E:/LiteOS/LiteOS_Lab/iot_link/os/os_imp/liteos/arch/arm/common/cmsis\cmsis_gcc.h **** /**
 599:E:/LiteOS/LiteOS_Lab/iot_link/os/os_imp/liteos/arch/arm/common/cmsis\cmsis_gcc.h ****   \brief   Set Main Stack Pointer Limit
 600:E:/LiteOS/LiteOS_Lab/iot_link/os/os_imp/liteos/arch/arm/common/cmsis\cmsis_gcc.h ****   \details Assigns the given value to the Main Stack Pointer Limit (MSPLIM).
 601:E:/LiteOS/LiteOS_Lab/iot_link/os/os_imp/liteos/arch/arm/common/cmsis\cmsis_gcc.h ****   \param [in]    MainStackPtrLimit  Main Stack Pointer Limit value to set
 602:E:/LiteOS/LiteOS_Lab/iot_link/os/os_imp/liteos/arch/arm/common/cmsis\cmsis_gcc.h ****  */
 603:E:/LiteOS/LiteOS_Lab/iot_link/os/os_imp/liteos/arch/arm/common/cmsis\cmsis_gcc.h **** __attribute__((always_inline)) __STATIC_INLINE void __set_MSPLIM(uint32_t MainStackPtrLimit)
 604:E:/LiteOS/LiteOS_Lab/iot_link/os/os_imp/liteos/arch/arm/common/cmsis\cmsis_gcc.h **** {
 605:E:/LiteOS/LiteOS_Lab/iot_link/os/os_imp/liteos/arch/arm/common/cmsis\cmsis_gcc.h ****   __ASM volatile ("MSR msplim, %0" : : "r" (MainStackPtrLimit));
 606:E:/LiteOS/LiteOS_Lab/iot_link/os/os_imp/liteos/arch/arm/common/cmsis\cmsis_gcc.h **** }
 607:E:/LiteOS/LiteOS_Lab/iot_link/os/os_imp/liteos/arch/arm/common/cmsis\cmsis_gcc.h **** 
 608:E:/LiteOS/LiteOS_Lab/iot_link/os/os_imp/liteos/arch/arm/common/cmsis\cmsis_gcc.h **** 
 609:E:/LiteOS/LiteOS_Lab/iot_link/os/os_imp/liteos/arch/arm/common/cmsis\cmsis_gcc.h **** #if ((defined (__ARM_FEATURE_CMSE  ) && (__ARM_FEATURE_CMSE   == 3)) && \
 610:E:/LiteOS/LiteOS_Lab/iot_link/os/os_imp/liteos/arch/arm/common/cmsis\cmsis_gcc.h ****      (defined (__ARM_ARCH_8M_MAIN__) && (__ARM_ARCH_8M_MAIN__ == 1))    )
 611:E:/LiteOS/LiteOS_Lab/iot_link/os/os_imp/liteos/arch/arm/common/cmsis\cmsis_gcc.h **** /**
 612:E:/LiteOS/LiteOS_Lab/iot_link/os/os_imp/liteos/arch/arm/common/cmsis\cmsis_gcc.h ****   \brief   Set Main Stack Pointer Limit (non-secure)
 613:E:/LiteOS/LiteOS_Lab/iot_link/os/os_imp/liteos/arch/arm/common/cmsis\cmsis_gcc.h ****   \details Assigns the given value to the non-secure Main Stack Pointer Limit (MSPLIM) when in secu
 614:E:/LiteOS/LiteOS_Lab/iot_link/os/os_imp/liteos/arch/arm/common/cmsis\cmsis_gcc.h ****   \param [in]    MainStackPtrLimit  Main Stack Pointer value to set
 615:E:/LiteOS/LiteOS_Lab/iot_link/os/os_imp/liteos/arch/arm/common/cmsis\cmsis_gcc.h ****  */
ARM GAS  C:\Users\user\AppData\Local\Temp\cc2XHdAe.s 			page 36


 616:E:/LiteOS/LiteOS_Lab/iot_link/os/os_imp/liteos/arch/arm/common/cmsis\cmsis_gcc.h **** __attribute__((always_inline)) __STATIC_INLINE void __TZ_set_MSPLIM_NS(uint32_t MainStackPtrLimit)
 617:E:/LiteOS/LiteOS_Lab/iot_link/os/os_imp/liteos/arch/arm/common/cmsis\cmsis_gcc.h **** {
 618:E:/LiteOS/LiteOS_Lab/iot_link/os/os_imp/liteos/arch/arm/common/cmsis\cmsis_gcc.h ****   __ASM volatile ("MSR msplim_ns, %0" : : "r" (MainStackPtrLimit));
 619:E:/LiteOS/LiteOS_Lab/iot_link/os/os_imp/liteos/arch/arm/common/cmsis\cmsis_gcc.h **** }
 620:E:/LiteOS/LiteOS_Lab/iot_link/os/os_imp/liteos/arch/arm/common/cmsis\cmsis_gcc.h **** #endif
 621:E:/LiteOS/LiteOS_Lab/iot_link/os/os_imp/liteos/arch/arm/common/cmsis\cmsis_gcc.h **** 
 622:E:/LiteOS/LiteOS_Lab/iot_link/os/os_imp/liteos/arch/arm/common/cmsis\cmsis_gcc.h **** #endif /* ((defined (__ARM_ARCH_8M_MAIN__ ) && (__ARM_ARCH_8M_MAIN__ == 1)) || \
 623:E:/LiteOS/LiteOS_Lab/iot_link/os/os_imp/liteos/arch/arm/common/cmsis\cmsis_gcc.h ****            (defined (__ARM_ARCH_8M_BASE__ ) && (__ARM_ARCH_8M_BASE__ == 1))    ) */
 624:E:/LiteOS/LiteOS_Lab/iot_link/os/os_imp/liteos/arch/arm/common/cmsis\cmsis_gcc.h **** 
 625:E:/LiteOS/LiteOS_Lab/iot_link/os/os_imp/liteos/arch/arm/common/cmsis\cmsis_gcc.h **** 
 626:E:/LiteOS/LiteOS_Lab/iot_link/os/os_imp/liteos/arch/arm/common/cmsis\cmsis_gcc.h **** #if ((defined (__ARM_ARCH_7EM__     ) && (__ARM_ARCH_7EM__     == 1)) || \
 627:E:/LiteOS/LiteOS_Lab/iot_link/os/os_imp/liteos/arch/arm/common/cmsis\cmsis_gcc.h ****      (defined (__ARM_ARCH_8M_MAIN__ ) && (__ARM_ARCH_8M_MAIN__ == 1))    )
 628:E:/LiteOS/LiteOS_Lab/iot_link/os/os_imp/liteos/arch/arm/common/cmsis\cmsis_gcc.h **** 
 629:E:/LiteOS/LiteOS_Lab/iot_link/os/os_imp/liteos/arch/arm/common/cmsis\cmsis_gcc.h **** /**
 630:E:/LiteOS/LiteOS_Lab/iot_link/os/os_imp/liteos/arch/arm/common/cmsis\cmsis_gcc.h ****   \brief   Get FPSCR
 631:E:/LiteOS/LiteOS_Lab/iot_link/os/os_imp/liteos/arch/arm/common/cmsis\cmsis_gcc.h ****   \details Returns the current value of the Floating Point Status/Control register.
 632:E:/LiteOS/LiteOS_Lab/iot_link/os/os_imp/liteos/arch/arm/common/cmsis\cmsis_gcc.h ****   \return               Floating Point Status/Control register value
 633:E:/LiteOS/LiteOS_Lab/iot_link/os/os_imp/liteos/arch/arm/common/cmsis\cmsis_gcc.h ****  */
 634:E:/LiteOS/LiteOS_Lab/iot_link/os/os_imp/liteos/arch/arm/common/cmsis\cmsis_gcc.h **** __attribute__((always_inline)) __STATIC_INLINE uint32_t __get_FPSCR(void)
 635:E:/LiteOS/LiteOS_Lab/iot_link/os/os_imp/liteos/arch/arm/common/cmsis\cmsis_gcc.h **** {
 636:E:/LiteOS/LiteOS_Lab/iot_link/os/os_imp/liteos/arch/arm/common/cmsis\cmsis_gcc.h **** #if ((defined (__FPU_PRESENT) && (__FPU_PRESENT == 1U)) && \
 637:E:/LiteOS/LiteOS_Lab/iot_link/os/os_imp/liteos/arch/arm/common/cmsis\cmsis_gcc.h ****      (defined (__FPU_USED   ) && (__FPU_USED    == 1U))     )
 638:E:/LiteOS/LiteOS_Lab/iot_link/os/os_imp/liteos/arch/arm/common/cmsis\cmsis_gcc.h ****   uint32_t result;
 639:E:/LiteOS/LiteOS_Lab/iot_link/os/os_imp/liteos/arch/arm/common/cmsis\cmsis_gcc.h **** 
 640:E:/LiteOS/LiteOS_Lab/iot_link/os/os_imp/liteos/arch/arm/common/cmsis\cmsis_gcc.h ****   __ASM volatile ("VMRS %0, fpscr" : "=r" (result) );
 641:E:/LiteOS/LiteOS_Lab/iot_link/os/os_imp/liteos/arch/arm/common/cmsis\cmsis_gcc.h ****   return(result);
 642:E:/LiteOS/LiteOS_Lab/iot_link/os/os_imp/liteos/arch/arm/common/cmsis\cmsis_gcc.h **** #else
 643:E:/LiteOS/LiteOS_Lab/iot_link/os/os_imp/liteos/arch/arm/common/cmsis\cmsis_gcc.h ****    return(0U);
 644:E:/LiteOS/LiteOS_Lab/iot_link/os/os_imp/liteos/arch/arm/common/cmsis\cmsis_gcc.h **** #endif
 645:E:/LiteOS/LiteOS_Lab/iot_link/os/os_imp/liteos/arch/arm/common/cmsis\cmsis_gcc.h **** }
 646:E:/LiteOS/LiteOS_Lab/iot_link/os/os_imp/liteos/arch/arm/common/cmsis\cmsis_gcc.h **** 
 647:E:/LiteOS/LiteOS_Lab/iot_link/os/os_imp/liteos/arch/arm/common/cmsis\cmsis_gcc.h **** 
 648:E:/LiteOS/LiteOS_Lab/iot_link/os/os_imp/liteos/arch/arm/common/cmsis\cmsis_gcc.h **** /**
 649:E:/LiteOS/LiteOS_Lab/iot_link/os/os_imp/liteos/arch/arm/common/cmsis\cmsis_gcc.h ****   \brief   Set FPSCR
 650:E:/LiteOS/LiteOS_Lab/iot_link/os/os_imp/liteos/arch/arm/common/cmsis\cmsis_gcc.h ****   \details Assigns the given value to the Floating Point Status/Control register.
 651:E:/LiteOS/LiteOS_Lab/iot_link/os/os_imp/liteos/arch/arm/common/cmsis\cmsis_gcc.h ****   \param [in]    fpscr  Floating Point Status/Control value to set
 652:E:/LiteOS/LiteOS_Lab/iot_link/os/os_imp/liteos/arch/arm/common/cmsis\cmsis_gcc.h ****  */
 653:E:/LiteOS/LiteOS_Lab/iot_link/os/os_imp/liteos/arch/arm/common/cmsis\cmsis_gcc.h **** __attribute__((always_inline)) __STATIC_INLINE void __set_FPSCR(uint32_t fpscr)
 654:E:/LiteOS/LiteOS_Lab/iot_link/os/os_imp/liteos/arch/arm/common/cmsis\cmsis_gcc.h **** {
 655:E:/LiteOS/LiteOS_Lab/iot_link/os/os_imp/liteos/arch/arm/common/cmsis\cmsis_gcc.h **** #if ((defined (__FPU_PRESENT) && (__FPU_PRESENT == 1U)) && \
 656:E:/LiteOS/LiteOS_Lab/iot_link/os/os_imp/liteos/arch/arm/common/cmsis\cmsis_gcc.h ****      (defined (__FPU_USED   ) && (__FPU_USED    == 1U))     )
 657:E:/LiteOS/LiteOS_Lab/iot_link/os/os_imp/liteos/arch/arm/common/cmsis\cmsis_gcc.h ****   __ASM volatile ("VMSR fpscr, %0" : : "r" (fpscr) : "vfpcc", "memory");
 658:E:/LiteOS/LiteOS_Lab/iot_link/os/os_imp/liteos/arch/arm/common/cmsis\cmsis_gcc.h **** #else
 659:E:/LiteOS/LiteOS_Lab/iot_link/os/os_imp/liteos/arch/arm/common/cmsis\cmsis_gcc.h ****   (void)fpscr;
 660:E:/LiteOS/LiteOS_Lab/iot_link/os/os_imp/liteos/arch/arm/common/cmsis\cmsis_gcc.h **** #endif
 661:E:/LiteOS/LiteOS_Lab/iot_link/os/os_imp/liteos/arch/arm/common/cmsis\cmsis_gcc.h **** }
 662:E:/LiteOS/LiteOS_Lab/iot_link/os/os_imp/liteos/arch/arm/common/cmsis\cmsis_gcc.h **** 
 663:E:/LiteOS/LiteOS_Lab/iot_link/os/os_imp/liteos/arch/arm/common/cmsis\cmsis_gcc.h **** #endif /* ((defined (__ARM_ARCH_7EM__     ) && (__ARM_ARCH_7EM__     == 1)) || \
 664:E:/LiteOS/LiteOS_Lab/iot_link/os/os_imp/liteos/arch/arm/common/cmsis\cmsis_gcc.h ****            (defined (__ARM_ARCH_8M_MAIN__ ) && (__ARM_ARCH_8M_MAIN__ == 1))    ) */
 665:E:/LiteOS/LiteOS_Lab/iot_link/os/os_imp/liteos/arch/arm/common/cmsis\cmsis_gcc.h **** 
 666:E:/LiteOS/LiteOS_Lab/iot_link/os/os_imp/liteos/arch/arm/common/cmsis\cmsis_gcc.h **** 
 667:E:/LiteOS/LiteOS_Lab/iot_link/os/os_imp/liteos/arch/arm/common/cmsis\cmsis_gcc.h **** 
 668:E:/LiteOS/LiteOS_Lab/iot_link/os/os_imp/liteos/arch/arm/common/cmsis\cmsis_gcc.h **** /*@} end of CMSIS_Core_RegAccFunctions */
 669:E:/LiteOS/LiteOS_Lab/iot_link/os/os_imp/liteos/arch/arm/common/cmsis\cmsis_gcc.h **** 
 670:E:/LiteOS/LiteOS_Lab/iot_link/os/os_imp/liteos/arch/arm/common/cmsis\cmsis_gcc.h **** 
 671:E:/LiteOS/LiteOS_Lab/iot_link/os/os_imp/liteos/arch/arm/common/cmsis\cmsis_gcc.h **** /* ##########################  Core Instruction Access  ######################### */
 672:E:/LiteOS/LiteOS_Lab/iot_link/os/os_imp/liteos/arch/arm/common/cmsis\cmsis_gcc.h **** /** \defgroup CMSIS_Core_InstructionInterface CMSIS Core Instruction Interface
ARM GAS  C:\Users\user\AppData\Local\Temp\cc2XHdAe.s 			page 37


 673:E:/LiteOS/LiteOS_Lab/iot_link/os/os_imp/liteos/arch/arm/common/cmsis\cmsis_gcc.h ****   Access to dedicated instructions
 674:E:/LiteOS/LiteOS_Lab/iot_link/os/os_imp/liteos/arch/arm/common/cmsis\cmsis_gcc.h ****   @{
 675:E:/LiteOS/LiteOS_Lab/iot_link/os/os_imp/liteos/arch/arm/common/cmsis\cmsis_gcc.h **** */
 676:E:/LiteOS/LiteOS_Lab/iot_link/os/os_imp/liteos/arch/arm/common/cmsis\cmsis_gcc.h **** 
 677:E:/LiteOS/LiteOS_Lab/iot_link/os/os_imp/liteos/arch/arm/common/cmsis\cmsis_gcc.h **** /* Define macros for porting to both thumb1 and thumb2.
 678:E:/LiteOS/LiteOS_Lab/iot_link/os/os_imp/liteos/arch/arm/common/cmsis\cmsis_gcc.h ****  * For thumb1, use low register (r0-r7), specified by constraint "l"
 679:E:/LiteOS/LiteOS_Lab/iot_link/os/os_imp/liteos/arch/arm/common/cmsis\cmsis_gcc.h ****  * Otherwise, use general registers, specified by constraint "r" */
 680:E:/LiteOS/LiteOS_Lab/iot_link/os/os_imp/liteos/arch/arm/common/cmsis\cmsis_gcc.h **** #if defined (__thumb__) && !defined (__thumb2__)
 681:E:/LiteOS/LiteOS_Lab/iot_link/os/os_imp/liteos/arch/arm/common/cmsis\cmsis_gcc.h **** #define __CMSIS_GCC_OUT_REG(r) "=l" (r)
 682:E:/LiteOS/LiteOS_Lab/iot_link/os/os_imp/liteos/arch/arm/common/cmsis\cmsis_gcc.h **** #define __CMSIS_GCC_RW_REG(r) "+l" (r)
 683:E:/LiteOS/LiteOS_Lab/iot_link/os/os_imp/liteos/arch/arm/common/cmsis\cmsis_gcc.h **** #define __CMSIS_GCC_USE_REG(r) "l" (r)
 684:E:/LiteOS/LiteOS_Lab/iot_link/os/os_imp/liteos/arch/arm/common/cmsis\cmsis_gcc.h **** #else
 685:E:/LiteOS/LiteOS_Lab/iot_link/os/os_imp/liteos/arch/arm/common/cmsis\cmsis_gcc.h **** #define __CMSIS_GCC_OUT_REG(r) "=r" (r)
 686:E:/LiteOS/LiteOS_Lab/iot_link/os/os_imp/liteos/arch/arm/common/cmsis\cmsis_gcc.h **** #define __CMSIS_GCC_RW_REG(r) "+r" (r)
 687:E:/LiteOS/LiteOS_Lab/iot_link/os/os_imp/liteos/arch/arm/common/cmsis\cmsis_gcc.h **** #define __CMSIS_GCC_USE_REG(r) "r" (r)
 688:E:/LiteOS/LiteOS_Lab/iot_link/os/os_imp/liteos/arch/arm/common/cmsis\cmsis_gcc.h **** #endif
 689:E:/LiteOS/LiteOS_Lab/iot_link/os/os_imp/liteos/arch/arm/common/cmsis\cmsis_gcc.h **** 
 690:E:/LiteOS/LiteOS_Lab/iot_link/os/os_imp/liteos/arch/arm/common/cmsis\cmsis_gcc.h **** /**
 691:E:/LiteOS/LiteOS_Lab/iot_link/os/os_imp/liteos/arch/arm/common/cmsis\cmsis_gcc.h ****   \brief   No Operation
 692:E:/LiteOS/LiteOS_Lab/iot_link/os/os_imp/liteos/arch/arm/common/cmsis\cmsis_gcc.h ****   \details No Operation does nothing. This instruction can be used for code alignment purposes.
 693:E:/LiteOS/LiteOS_Lab/iot_link/os/os_imp/liteos/arch/arm/common/cmsis\cmsis_gcc.h ****  */
 694:E:/LiteOS/LiteOS_Lab/iot_link/os/os_imp/liteos/arch/arm/common/cmsis\cmsis_gcc.h **** //__attribute__((always_inline)) __STATIC_INLINE void __NOP(void)
 695:E:/LiteOS/LiteOS_Lab/iot_link/os/os_imp/liteos/arch/arm/common/cmsis\cmsis_gcc.h **** //{
 696:E:/LiteOS/LiteOS_Lab/iot_link/os/os_imp/liteos/arch/arm/common/cmsis\cmsis_gcc.h **** //  __ASM volatile ("nop");
 697:E:/LiteOS/LiteOS_Lab/iot_link/os/os_imp/liteos/arch/arm/common/cmsis\cmsis_gcc.h **** //}
 698:E:/LiteOS/LiteOS_Lab/iot_link/os/os_imp/liteos/arch/arm/common/cmsis\cmsis_gcc.h **** #define __NOP()                             __ASM volatile ("nop")       /* This implementation gen
 699:E:/LiteOS/LiteOS_Lab/iot_link/os/os_imp/liteos/arch/arm/common/cmsis\cmsis_gcc.h **** 
 700:E:/LiteOS/LiteOS_Lab/iot_link/os/os_imp/liteos/arch/arm/common/cmsis\cmsis_gcc.h **** /**
 701:E:/LiteOS/LiteOS_Lab/iot_link/os/os_imp/liteos/arch/arm/common/cmsis\cmsis_gcc.h ****   \brief   Wait For Interrupt
 702:E:/LiteOS/LiteOS_Lab/iot_link/os/os_imp/liteos/arch/arm/common/cmsis\cmsis_gcc.h ****   \details Wait For Interrupt is a hint instruction that suspends execution until one of a number o
 703:E:/LiteOS/LiteOS_Lab/iot_link/os/os_imp/liteos/arch/arm/common/cmsis\cmsis_gcc.h ****  */
 704:E:/LiteOS/LiteOS_Lab/iot_link/os/os_imp/liteos/arch/arm/common/cmsis\cmsis_gcc.h **** //__attribute__((always_inline)) __STATIC_INLINE void __WFI(void)
 705:E:/LiteOS/LiteOS_Lab/iot_link/os/os_imp/liteos/arch/arm/common/cmsis\cmsis_gcc.h **** //{
 706:E:/LiteOS/LiteOS_Lab/iot_link/os/os_imp/liteos/arch/arm/common/cmsis\cmsis_gcc.h **** //  __ASM volatile ("wfi");
 707:E:/LiteOS/LiteOS_Lab/iot_link/os/os_imp/liteos/arch/arm/common/cmsis\cmsis_gcc.h **** //}
 708:E:/LiteOS/LiteOS_Lab/iot_link/os/os_imp/liteos/arch/arm/common/cmsis\cmsis_gcc.h **** #define __WFI()                             __ASM volatile ("wfi")       /* This implementation gen
 709:E:/LiteOS/LiteOS_Lab/iot_link/os/os_imp/liteos/arch/arm/common/cmsis\cmsis_gcc.h **** 
 710:E:/LiteOS/LiteOS_Lab/iot_link/os/os_imp/liteos/arch/arm/common/cmsis\cmsis_gcc.h **** 
 711:E:/LiteOS/LiteOS_Lab/iot_link/os/os_imp/liteos/arch/arm/common/cmsis\cmsis_gcc.h **** /**
 712:E:/LiteOS/LiteOS_Lab/iot_link/os/os_imp/liteos/arch/arm/common/cmsis\cmsis_gcc.h ****   \brief   Wait For Event
 713:E:/LiteOS/LiteOS_Lab/iot_link/os/os_imp/liteos/arch/arm/common/cmsis\cmsis_gcc.h ****   \details Wait For Event is a hint instruction that permits the processor to enter
 714:E:/LiteOS/LiteOS_Lab/iot_link/os/os_imp/liteos/arch/arm/common/cmsis\cmsis_gcc.h ****            a low-power state until one of a number of events occurs.
 715:E:/LiteOS/LiteOS_Lab/iot_link/os/os_imp/liteos/arch/arm/common/cmsis\cmsis_gcc.h ****  */
 716:E:/LiteOS/LiteOS_Lab/iot_link/os/os_imp/liteos/arch/arm/common/cmsis\cmsis_gcc.h **** //__attribute__((always_inline)) __STATIC_INLINE void __WFE(void)
 717:E:/LiteOS/LiteOS_Lab/iot_link/os/os_imp/liteos/arch/arm/common/cmsis\cmsis_gcc.h **** //{
 718:E:/LiteOS/LiteOS_Lab/iot_link/os/os_imp/liteos/arch/arm/common/cmsis\cmsis_gcc.h **** //  __ASM volatile ("wfe");
 719:E:/LiteOS/LiteOS_Lab/iot_link/os/os_imp/liteos/arch/arm/common/cmsis\cmsis_gcc.h **** //}
 720:E:/LiteOS/LiteOS_Lab/iot_link/os/os_imp/liteos/arch/arm/common/cmsis\cmsis_gcc.h **** #define __WFE()                             __ASM volatile ("wfe")       /* This implementation gen
 721:E:/LiteOS/LiteOS_Lab/iot_link/os/os_imp/liteos/arch/arm/common/cmsis\cmsis_gcc.h **** 
 722:E:/LiteOS/LiteOS_Lab/iot_link/os/os_imp/liteos/arch/arm/common/cmsis\cmsis_gcc.h **** 
 723:E:/LiteOS/LiteOS_Lab/iot_link/os/os_imp/liteos/arch/arm/common/cmsis\cmsis_gcc.h **** /**
 724:E:/LiteOS/LiteOS_Lab/iot_link/os/os_imp/liteos/arch/arm/common/cmsis\cmsis_gcc.h ****   \brief   Send Event
 725:E:/LiteOS/LiteOS_Lab/iot_link/os/os_imp/liteos/arch/arm/common/cmsis\cmsis_gcc.h ****   \details Send Event is a hint instruction. It causes an event to be signaled to the CPU.
 726:E:/LiteOS/LiteOS_Lab/iot_link/os/os_imp/liteos/arch/arm/common/cmsis\cmsis_gcc.h ****  */
 727:E:/LiteOS/LiteOS_Lab/iot_link/os/os_imp/liteos/arch/arm/common/cmsis\cmsis_gcc.h **** //__attribute__((always_inline)) __STATIC_INLINE void __SEV(void)
 728:E:/LiteOS/LiteOS_Lab/iot_link/os/os_imp/liteos/arch/arm/common/cmsis\cmsis_gcc.h **** //{
 729:E:/LiteOS/LiteOS_Lab/iot_link/os/os_imp/liteos/arch/arm/common/cmsis\cmsis_gcc.h **** //  __ASM volatile ("sev");
ARM GAS  C:\Users\user\AppData\Local\Temp\cc2XHdAe.s 			page 38


 730:E:/LiteOS/LiteOS_Lab/iot_link/os/os_imp/liteos/arch/arm/common/cmsis\cmsis_gcc.h **** //}
 731:E:/LiteOS/LiteOS_Lab/iot_link/os/os_imp/liteos/arch/arm/common/cmsis\cmsis_gcc.h **** #define __SEV()                             __ASM volatile ("sev")       /* This implementation gen
 732:E:/LiteOS/LiteOS_Lab/iot_link/os/os_imp/liteos/arch/arm/common/cmsis\cmsis_gcc.h **** 
 733:E:/LiteOS/LiteOS_Lab/iot_link/os/os_imp/liteos/arch/arm/common/cmsis\cmsis_gcc.h **** 
 734:E:/LiteOS/LiteOS_Lab/iot_link/os/os_imp/liteos/arch/arm/common/cmsis\cmsis_gcc.h **** /**
 735:E:/LiteOS/LiteOS_Lab/iot_link/os/os_imp/liteos/arch/arm/common/cmsis\cmsis_gcc.h ****   \brief   Instruction Synchronization Barrier
 736:E:/LiteOS/LiteOS_Lab/iot_link/os/os_imp/liteos/arch/arm/common/cmsis\cmsis_gcc.h ****   \details Instruction Synchronization Barrier flushes the pipeline in the processor,
 737:E:/LiteOS/LiteOS_Lab/iot_link/os/os_imp/liteos/arch/arm/common/cmsis\cmsis_gcc.h ****            so that all instructions following the ISB are fetched from cache or memory,
 738:E:/LiteOS/LiteOS_Lab/iot_link/os/os_imp/liteos/arch/arm/common/cmsis\cmsis_gcc.h ****            after the instruction has been completed.
 739:E:/LiteOS/LiteOS_Lab/iot_link/os/os_imp/liteos/arch/arm/common/cmsis\cmsis_gcc.h ****  */
 740:E:/LiteOS/LiteOS_Lab/iot_link/os/os_imp/liteos/arch/arm/common/cmsis\cmsis_gcc.h **** __attribute__((always_inline)) __STATIC_INLINE void __ISB(void)
 741:E:/LiteOS/LiteOS_Lab/iot_link/os/os_imp/liteos/arch/arm/common/cmsis\cmsis_gcc.h **** {
 742:E:/LiteOS/LiteOS_Lab/iot_link/os/os_imp/liteos/arch/arm/common/cmsis\cmsis_gcc.h ****   __ASM volatile ("isb 0xF":::"memory");
 743:E:/LiteOS/LiteOS_Lab/iot_link/os/os_imp/liteos/arch/arm/common/cmsis\cmsis_gcc.h **** }
 744:E:/LiteOS/LiteOS_Lab/iot_link/os/os_imp/liteos/arch/arm/common/cmsis\cmsis_gcc.h **** 
 745:E:/LiteOS/LiteOS_Lab/iot_link/os/os_imp/liteos/arch/arm/common/cmsis\cmsis_gcc.h **** 
 746:E:/LiteOS/LiteOS_Lab/iot_link/os/os_imp/liteos/arch/arm/common/cmsis\cmsis_gcc.h **** /**
 747:E:/LiteOS/LiteOS_Lab/iot_link/os/os_imp/liteos/arch/arm/common/cmsis\cmsis_gcc.h ****   \brief   Data Synchronization Barrier
 748:E:/LiteOS/LiteOS_Lab/iot_link/os/os_imp/liteos/arch/arm/common/cmsis\cmsis_gcc.h ****   \details Acts as a special kind of Data Memory Barrier.
 749:E:/LiteOS/LiteOS_Lab/iot_link/os/os_imp/liteos/arch/arm/common/cmsis\cmsis_gcc.h ****            It completes when all explicit memory accesses before this instruction complete.
 750:E:/LiteOS/LiteOS_Lab/iot_link/os/os_imp/liteos/arch/arm/common/cmsis\cmsis_gcc.h ****  */
 751:E:/LiteOS/LiteOS_Lab/iot_link/os/os_imp/liteos/arch/arm/common/cmsis\cmsis_gcc.h **** __attribute__((always_inline)) __STATIC_INLINE void __DSB(void)
 752:E:/LiteOS/LiteOS_Lab/iot_link/os/os_imp/liteos/arch/arm/common/cmsis\cmsis_gcc.h **** {
 753:E:/LiteOS/LiteOS_Lab/iot_link/os/os_imp/liteos/arch/arm/common/cmsis\cmsis_gcc.h ****   __ASM volatile ("dsb 0xF":::"memory");
 754:E:/LiteOS/LiteOS_Lab/iot_link/os/os_imp/liteos/arch/arm/common/cmsis\cmsis_gcc.h **** }
 755:E:/LiteOS/LiteOS_Lab/iot_link/os/os_imp/liteos/arch/arm/common/cmsis\cmsis_gcc.h **** 
 756:E:/LiteOS/LiteOS_Lab/iot_link/os/os_imp/liteos/arch/arm/common/cmsis\cmsis_gcc.h **** 
 757:E:/LiteOS/LiteOS_Lab/iot_link/os/os_imp/liteos/arch/arm/common/cmsis\cmsis_gcc.h **** /**
 758:E:/LiteOS/LiteOS_Lab/iot_link/os/os_imp/liteos/arch/arm/common/cmsis\cmsis_gcc.h ****   \brief   Data Memory Barrier
 759:E:/LiteOS/LiteOS_Lab/iot_link/os/os_imp/liteos/arch/arm/common/cmsis\cmsis_gcc.h ****   \details Ensures the apparent order of the explicit memory operations before
 760:E:/LiteOS/LiteOS_Lab/iot_link/os/os_imp/liteos/arch/arm/common/cmsis\cmsis_gcc.h ****            and after the instruction, without ensuring their completion.
 761:E:/LiteOS/LiteOS_Lab/iot_link/os/os_imp/liteos/arch/arm/common/cmsis\cmsis_gcc.h ****  */
 762:E:/LiteOS/LiteOS_Lab/iot_link/os/os_imp/liteos/arch/arm/common/cmsis\cmsis_gcc.h **** __attribute__((always_inline)) __STATIC_INLINE void __DMB(void)
 763:E:/LiteOS/LiteOS_Lab/iot_link/os/os_imp/liteos/arch/arm/common/cmsis\cmsis_gcc.h **** {
 764:E:/LiteOS/LiteOS_Lab/iot_link/os/os_imp/liteos/arch/arm/common/cmsis\cmsis_gcc.h ****   __ASM volatile ("dmb 0xF":::"memory");
 765:E:/LiteOS/LiteOS_Lab/iot_link/os/os_imp/liteos/arch/arm/common/cmsis\cmsis_gcc.h **** }
 766:E:/LiteOS/LiteOS_Lab/iot_link/os/os_imp/liteos/arch/arm/common/cmsis\cmsis_gcc.h **** 
 767:E:/LiteOS/LiteOS_Lab/iot_link/os/os_imp/liteos/arch/arm/common/cmsis\cmsis_gcc.h **** 
 768:E:/LiteOS/LiteOS_Lab/iot_link/os/os_imp/liteos/arch/arm/common/cmsis\cmsis_gcc.h **** /**
 769:E:/LiteOS/LiteOS_Lab/iot_link/os/os_imp/liteos/arch/arm/common/cmsis\cmsis_gcc.h ****   \brief   Reverse byte order (32 bit)
 770:E:/LiteOS/LiteOS_Lab/iot_link/os/os_imp/liteos/arch/arm/common/cmsis\cmsis_gcc.h ****   \details Reverses the byte order in integer value.
 771:E:/LiteOS/LiteOS_Lab/iot_link/os/os_imp/liteos/arch/arm/common/cmsis\cmsis_gcc.h ****   \param [in]    value  Value to reverse
 772:E:/LiteOS/LiteOS_Lab/iot_link/os/os_imp/liteos/arch/arm/common/cmsis\cmsis_gcc.h ****   \return               Reversed value
 773:E:/LiteOS/LiteOS_Lab/iot_link/os/os_imp/liteos/arch/arm/common/cmsis\cmsis_gcc.h ****  */
 774:E:/LiteOS/LiteOS_Lab/iot_link/os/os_imp/liteos/arch/arm/common/cmsis\cmsis_gcc.h **** __attribute__((always_inline)) __STATIC_INLINE uint32_t __REV(uint32_t value)
 775:E:/LiteOS/LiteOS_Lab/iot_link/os/os_imp/liteos/arch/arm/common/cmsis\cmsis_gcc.h **** {
 776:E:/LiteOS/LiteOS_Lab/iot_link/os/os_imp/liteos/arch/arm/common/cmsis\cmsis_gcc.h **** #if (__GNUC__ > 4) || (__GNUC__ == 4 && __GNUC_MINOR__ >= 5)
 777:E:/LiteOS/LiteOS_Lab/iot_link/os/os_imp/liteos/arch/arm/common/cmsis\cmsis_gcc.h ****   return __builtin_bswap32(value);
 778:E:/LiteOS/LiteOS_Lab/iot_link/os/os_imp/liteos/arch/arm/common/cmsis\cmsis_gcc.h **** #else
 779:E:/LiteOS/LiteOS_Lab/iot_link/os/os_imp/liteos/arch/arm/common/cmsis\cmsis_gcc.h ****   uint32_t result;
 780:E:/LiteOS/LiteOS_Lab/iot_link/os/os_imp/liteos/arch/arm/common/cmsis\cmsis_gcc.h **** 
 781:E:/LiteOS/LiteOS_Lab/iot_link/os/os_imp/liteos/arch/arm/common/cmsis\cmsis_gcc.h ****   __ASM volatile ("rev %0, %1" : __CMSIS_GCC_OUT_REG (result) : __CMSIS_GCC_USE_REG (value) );
 782:E:/LiteOS/LiteOS_Lab/iot_link/os/os_imp/liteos/arch/arm/common/cmsis\cmsis_gcc.h ****   return(result);
 783:E:/LiteOS/LiteOS_Lab/iot_link/os/os_imp/liteos/arch/arm/common/cmsis\cmsis_gcc.h **** #endif
 784:E:/LiteOS/LiteOS_Lab/iot_link/os/os_imp/liteos/arch/arm/common/cmsis\cmsis_gcc.h **** }
 785:E:/LiteOS/LiteOS_Lab/iot_link/os/os_imp/liteos/arch/arm/common/cmsis\cmsis_gcc.h **** 
 786:E:/LiteOS/LiteOS_Lab/iot_link/os/os_imp/liteos/arch/arm/common/cmsis\cmsis_gcc.h **** 
ARM GAS  C:\Users\user\AppData\Local\Temp\cc2XHdAe.s 			page 39


 787:E:/LiteOS/LiteOS_Lab/iot_link/os/os_imp/liteos/arch/arm/common/cmsis\cmsis_gcc.h **** /**
 788:E:/LiteOS/LiteOS_Lab/iot_link/os/os_imp/liteos/arch/arm/common/cmsis\cmsis_gcc.h ****   \brief   Reverse byte order (16 bit)
 789:E:/LiteOS/LiteOS_Lab/iot_link/os/os_imp/liteos/arch/arm/common/cmsis\cmsis_gcc.h ****   \details Reverses the byte order in two unsigned short values.
 790:E:/LiteOS/LiteOS_Lab/iot_link/os/os_imp/liteos/arch/arm/common/cmsis\cmsis_gcc.h ****   \param [in]    value  Value to reverse
 791:E:/LiteOS/LiteOS_Lab/iot_link/os/os_imp/liteos/arch/arm/common/cmsis\cmsis_gcc.h ****   \return               Reversed value
 792:E:/LiteOS/LiteOS_Lab/iot_link/os/os_imp/liteos/arch/arm/common/cmsis\cmsis_gcc.h ****  */
 793:E:/LiteOS/LiteOS_Lab/iot_link/os/os_imp/liteos/arch/arm/common/cmsis\cmsis_gcc.h **** __attribute__((always_inline)) __STATIC_INLINE uint32_t __REV16(uint32_t value)
 794:E:/LiteOS/LiteOS_Lab/iot_link/os/os_imp/liteos/arch/arm/common/cmsis\cmsis_gcc.h **** {
 795:E:/LiteOS/LiteOS_Lab/iot_link/os/os_imp/liteos/arch/arm/common/cmsis\cmsis_gcc.h ****   uint32_t result;
 796:E:/LiteOS/LiteOS_Lab/iot_link/os/os_imp/liteos/arch/arm/common/cmsis\cmsis_gcc.h **** 
 797:E:/LiteOS/LiteOS_Lab/iot_link/os/os_imp/liteos/arch/arm/common/cmsis\cmsis_gcc.h ****   __ASM volatile ("rev16 %0, %1" : __CMSIS_GCC_OUT_REG (result) : __CMSIS_GCC_USE_REG (value) );
 798:E:/LiteOS/LiteOS_Lab/iot_link/os/os_imp/liteos/arch/arm/common/cmsis\cmsis_gcc.h ****   return(result);
 799:E:/LiteOS/LiteOS_Lab/iot_link/os/os_imp/liteos/arch/arm/common/cmsis\cmsis_gcc.h **** }
 800:E:/LiteOS/LiteOS_Lab/iot_link/os/os_imp/liteos/arch/arm/common/cmsis\cmsis_gcc.h **** 
 801:E:/LiteOS/LiteOS_Lab/iot_link/os/os_imp/liteos/arch/arm/common/cmsis\cmsis_gcc.h **** 
 802:E:/LiteOS/LiteOS_Lab/iot_link/os/os_imp/liteos/arch/arm/common/cmsis\cmsis_gcc.h **** /**
 803:E:/LiteOS/LiteOS_Lab/iot_link/os/os_imp/liteos/arch/arm/common/cmsis\cmsis_gcc.h ****   \brief   Reverse byte order in signed short value
 804:E:/LiteOS/LiteOS_Lab/iot_link/os/os_imp/liteos/arch/arm/common/cmsis\cmsis_gcc.h ****   \details Reverses the byte order in a signed short value with sign extension to integer.
 805:E:/LiteOS/LiteOS_Lab/iot_link/os/os_imp/liteos/arch/arm/common/cmsis\cmsis_gcc.h ****   \param [in]    value  Value to reverse
 806:E:/LiteOS/LiteOS_Lab/iot_link/os/os_imp/liteos/arch/arm/common/cmsis\cmsis_gcc.h ****   \return               Reversed value
 807:E:/LiteOS/LiteOS_Lab/iot_link/os/os_imp/liteos/arch/arm/common/cmsis\cmsis_gcc.h ****  */
 808:E:/LiteOS/LiteOS_Lab/iot_link/os/os_imp/liteos/arch/arm/common/cmsis\cmsis_gcc.h **** __attribute__((always_inline)) __STATIC_INLINE int32_t __REVSH(int32_t value)
 809:E:/LiteOS/LiteOS_Lab/iot_link/os/os_imp/liteos/arch/arm/common/cmsis\cmsis_gcc.h **** {
 810:E:/LiteOS/LiteOS_Lab/iot_link/os/os_imp/liteos/arch/arm/common/cmsis\cmsis_gcc.h **** #if (__GNUC__ > 4) || (__GNUC__ == 4 && __GNUC_MINOR__ >= 8)
 811:E:/LiteOS/LiteOS_Lab/iot_link/os/os_imp/liteos/arch/arm/common/cmsis\cmsis_gcc.h ****   return (short)__builtin_bswap16(value);
 812:E:/LiteOS/LiteOS_Lab/iot_link/os/os_imp/liteos/arch/arm/common/cmsis\cmsis_gcc.h **** #else
 813:E:/LiteOS/LiteOS_Lab/iot_link/os/os_imp/liteos/arch/arm/common/cmsis\cmsis_gcc.h ****   int32_t result;
 814:E:/LiteOS/LiteOS_Lab/iot_link/os/os_imp/liteos/arch/arm/common/cmsis\cmsis_gcc.h **** 
 815:E:/LiteOS/LiteOS_Lab/iot_link/os/os_imp/liteos/arch/arm/common/cmsis\cmsis_gcc.h ****   __ASM volatile ("revsh %0, %1" : __CMSIS_GCC_OUT_REG (result) : __CMSIS_GCC_USE_REG (value) );
 816:E:/LiteOS/LiteOS_Lab/iot_link/os/os_imp/liteos/arch/arm/common/cmsis\cmsis_gcc.h ****   return(result);
 817:E:/LiteOS/LiteOS_Lab/iot_link/os/os_imp/liteos/arch/arm/common/cmsis\cmsis_gcc.h **** #endif
 818:E:/LiteOS/LiteOS_Lab/iot_link/os/os_imp/liteos/arch/arm/common/cmsis\cmsis_gcc.h **** }
 819:E:/LiteOS/LiteOS_Lab/iot_link/os/os_imp/liteos/arch/arm/common/cmsis\cmsis_gcc.h **** 
 820:E:/LiteOS/LiteOS_Lab/iot_link/os/os_imp/liteos/arch/arm/common/cmsis\cmsis_gcc.h **** 
 821:E:/LiteOS/LiteOS_Lab/iot_link/os/os_imp/liteos/arch/arm/common/cmsis\cmsis_gcc.h **** /**
 822:E:/LiteOS/LiteOS_Lab/iot_link/os/os_imp/liteos/arch/arm/common/cmsis\cmsis_gcc.h ****   \brief   Rotate Right in unsigned value (32 bit)
 823:E:/LiteOS/LiteOS_Lab/iot_link/os/os_imp/liteos/arch/arm/common/cmsis\cmsis_gcc.h ****   \details Rotate Right (immediate) provides the value of the contents of a register rotated by a v
 824:E:/LiteOS/LiteOS_Lab/iot_link/os/os_imp/liteos/arch/arm/common/cmsis\cmsis_gcc.h ****   \param [in]    op1  Value to rotate
 825:E:/LiteOS/LiteOS_Lab/iot_link/os/os_imp/liteos/arch/arm/common/cmsis\cmsis_gcc.h ****   \param [in]    op2  Number of Bits to rotate
 826:E:/LiteOS/LiteOS_Lab/iot_link/os/os_imp/liteos/arch/arm/common/cmsis\cmsis_gcc.h ****   \return               Rotated value
 827:E:/LiteOS/LiteOS_Lab/iot_link/os/os_imp/liteos/arch/arm/common/cmsis\cmsis_gcc.h ****  */
 828:E:/LiteOS/LiteOS_Lab/iot_link/os/os_imp/liteos/arch/arm/common/cmsis\cmsis_gcc.h **** __attribute__((always_inline)) __STATIC_INLINE uint32_t __ROR(uint32_t op1, uint32_t op2)
 829:E:/LiteOS/LiteOS_Lab/iot_link/os/os_imp/liteos/arch/arm/common/cmsis\cmsis_gcc.h **** {
 830:E:/LiteOS/LiteOS_Lab/iot_link/os/os_imp/liteos/arch/arm/common/cmsis\cmsis_gcc.h ****   return (op1 >> op2) | (op1 << (32U - op2));
 831:E:/LiteOS/LiteOS_Lab/iot_link/os/os_imp/liteos/arch/arm/common/cmsis\cmsis_gcc.h **** }
 832:E:/LiteOS/LiteOS_Lab/iot_link/os/os_imp/liteos/arch/arm/common/cmsis\cmsis_gcc.h **** 
 833:E:/LiteOS/LiteOS_Lab/iot_link/os/os_imp/liteos/arch/arm/common/cmsis\cmsis_gcc.h **** 
 834:E:/LiteOS/LiteOS_Lab/iot_link/os/os_imp/liteos/arch/arm/common/cmsis\cmsis_gcc.h **** /**
 835:E:/LiteOS/LiteOS_Lab/iot_link/os/os_imp/liteos/arch/arm/common/cmsis\cmsis_gcc.h ****   \brief   Breakpoint
 836:E:/LiteOS/LiteOS_Lab/iot_link/os/os_imp/liteos/arch/arm/common/cmsis\cmsis_gcc.h ****   \details Causes the processor to enter Debug state.
 837:E:/LiteOS/LiteOS_Lab/iot_link/os/os_imp/liteos/arch/arm/common/cmsis\cmsis_gcc.h ****            Debug tools can use this to investigate system state when the instruction at a particula
 838:E:/LiteOS/LiteOS_Lab/iot_link/os/os_imp/liteos/arch/arm/common/cmsis\cmsis_gcc.h ****   \param [in]    value  is ignored by the processor.
 839:E:/LiteOS/LiteOS_Lab/iot_link/os/os_imp/liteos/arch/arm/common/cmsis\cmsis_gcc.h ****                  If required, a debugger can use it to store additional information about the break
 840:E:/LiteOS/LiteOS_Lab/iot_link/os/os_imp/liteos/arch/arm/common/cmsis\cmsis_gcc.h ****  */
 841:E:/LiteOS/LiteOS_Lab/iot_link/os/os_imp/liteos/arch/arm/common/cmsis\cmsis_gcc.h **** #define __BKPT(value)                       __ASM volatile ("bkpt "#value)
 842:E:/LiteOS/LiteOS_Lab/iot_link/os/os_imp/liteos/arch/arm/common/cmsis\cmsis_gcc.h **** 
 843:E:/LiteOS/LiteOS_Lab/iot_link/os/os_imp/liteos/arch/arm/common/cmsis\cmsis_gcc.h **** 
ARM GAS  C:\Users\user\AppData\Local\Temp\cc2XHdAe.s 			page 40


 844:E:/LiteOS/LiteOS_Lab/iot_link/os/os_imp/liteos/arch/arm/common/cmsis\cmsis_gcc.h **** /**
 845:E:/LiteOS/LiteOS_Lab/iot_link/os/os_imp/liteos/arch/arm/common/cmsis\cmsis_gcc.h ****   \brief   Reverse bit order of value
 846:E:/LiteOS/LiteOS_Lab/iot_link/os/os_imp/liteos/arch/arm/common/cmsis\cmsis_gcc.h ****   \details Reverses the bit order of the given value.
 847:E:/LiteOS/LiteOS_Lab/iot_link/os/os_imp/liteos/arch/arm/common/cmsis\cmsis_gcc.h ****   \param [in]    value  Value to reverse
 848:E:/LiteOS/LiteOS_Lab/iot_link/os/os_imp/liteos/arch/arm/common/cmsis\cmsis_gcc.h ****   \return               Reversed value
 849:E:/LiteOS/LiteOS_Lab/iot_link/os/os_imp/liteos/arch/arm/common/cmsis\cmsis_gcc.h ****  */
 850:E:/LiteOS/LiteOS_Lab/iot_link/os/os_imp/liteos/arch/arm/common/cmsis\cmsis_gcc.h **** __attribute__((always_inline)) __STATIC_INLINE uint32_t __RBIT(uint32_t value)
 851:E:/LiteOS/LiteOS_Lab/iot_link/os/os_imp/liteos/arch/arm/common/cmsis\cmsis_gcc.h **** {
 852:E:/LiteOS/LiteOS_Lab/iot_link/os/os_imp/liteos/arch/arm/common/cmsis\cmsis_gcc.h ****   uint32_t result;
 853:E:/LiteOS/LiteOS_Lab/iot_link/os/os_imp/liteos/arch/arm/common/cmsis\cmsis_gcc.h **** 
 854:E:/LiteOS/LiteOS_Lab/iot_link/os/os_imp/liteos/arch/arm/common/cmsis\cmsis_gcc.h **** #if ((defined (__ARM_ARCH_7M__      ) && (__ARM_ARCH_7M__      == 1)) || \
 855:E:/LiteOS/LiteOS_Lab/iot_link/os/os_imp/liteos/arch/arm/common/cmsis\cmsis_gcc.h ****      (defined (__ARM_ARCH_7EM__     ) && (__ARM_ARCH_7EM__     == 1)) || \
 856:E:/LiteOS/LiteOS_Lab/iot_link/os/os_imp/liteos/arch/arm/common/cmsis\cmsis_gcc.h ****      (defined (__ARM_ARCH_8M_MAIN__ ) && (__ARM_ARCH_8M_MAIN__ == 1))    )
 857:E:/LiteOS/LiteOS_Lab/iot_link/os/os_imp/liteos/arch/arm/common/cmsis\cmsis_gcc.h ****    __ASM volatile ("rbit %0, %1" : "=r" (result) : "r" (value) );
 778              		.loc 2 857 0
 779 0018 FB68     		ldr	r3, [r7, #12]
 780              		.syntax unified
 781              	@ 857 "E:/LiteOS/LiteOS_Lab/iot_link/os/os_imp/liteos/arch/arm/common/cmsis/cmsis_gcc.h" 1
 782 001a 93FAA3F3 		rbit r3, r3
 783              	@ 0 "" 2
 784              		.thumb
 785              		.syntax unified
 786 001e BB60     		str	r3, [r7, #8]
 858:E:/LiteOS/LiteOS_Lab/iot_link/os/os_imp/liteos/arch/arm/common/cmsis\cmsis_gcc.h **** #else
 859:E:/LiteOS/LiteOS_Lab/iot_link/os/os_imp/liteos/arch/arm/common/cmsis\cmsis_gcc.h ****   int32_t s = (4 /*sizeof(v)*/ * 8) - 1; /* extra shift needed at end */
 860:E:/LiteOS/LiteOS_Lab/iot_link/os/os_imp/liteos/arch/arm/common/cmsis\cmsis_gcc.h **** 
 861:E:/LiteOS/LiteOS_Lab/iot_link/os/os_imp/liteos/arch/arm/common/cmsis\cmsis_gcc.h ****   result = value;                      /* r will be reversed bits of v; first get LSB of v */
 862:E:/LiteOS/LiteOS_Lab/iot_link/os/os_imp/liteos/arch/arm/common/cmsis\cmsis_gcc.h ****   for (value >>= 1U; value; value >>= 1U)
 863:E:/LiteOS/LiteOS_Lab/iot_link/os/os_imp/liteos/arch/arm/common/cmsis\cmsis_gcc.h ****   {
 864:E:/LiteOS/LiteOS_Lab/iot_link/os/os_imp/liteos/arch/arm/common/cmsis\cmsis_gcc.h ****     result <<= 1U;
 865:E:/LiteOS/LiteOS_Lab/iot_link/os/os_imp/liteos/arch/arm/common/cmsis\cmsis_gcc.h ****     result |= value & 1U;
 866:E:/LiteOS/LiteOS_Lab/iot_link/os/os_imp/liteos/arch/arm/common/cmsis\cmsis_gcc.h ****     s--;
 867:E:/LiteOS/LiteOS_Lab/iot_link/os/os_imp/liteos/arch/arm/common/cmsis\cmsis_gcc.h ****   }
 868:E:/LiteOS/LiteOS_Lab/iot_link/os/os_imp/liteos/arch/arm/common/cmsis\cmsis_gcc.h ****   result <<= s;                        /* shift when v's highest bits are zero */
 869:E:/LiteOS/LiteOS_Lab/iot_link/os/os_imp/liteos/arch/arm/common/cmsis\cmsis_gcc.h **** #endif
 870:E:/LiteOS/LiteOS_Lab/iot_link/os/os_imp/liteos/arch/arm/common/cmsis\cmsis_gcc.h ****   return(result);
 787              		.loc 2 870 0
 788 0020 BB68     		ldr	r3, [r7, #8]
 789              	.LBE5:
 790              	.LBE4:
 791              		.loc 1 612 0
 792 0022 B3FA83F3 		clz	r3, r3
 793 0026 7968     		ldr	r1, [r7, #4]
 794 0028 01FA03F3 		lsl	r3, r1, r3
 795 002c 0A49     		ldr	r1, .L50
 796 002e 1343     		orrs	r3, r3, r2
 797 0030 4B61     		str	r3, [r1, #20]
 613:E:/LiteOS/LiteOS_Lab/drivers/third_party/ST/STM32L4xx_HAL_Driver/Src\stm32l4xx_hal_flash_ex.c ****   SET_BIT(FLASH->CR, FLASH_CR_PER);
 798              		.loc 1 613 0
 799 0032 094B     		ldr	r3, .L50
 800 0034 5B69     		ldr	r3, [r3, #20]
 801 0036 084A     		ldr	r2, .L50
 802 0038 43F00203 		orr	r3, r3, #2
 803 003c 5361     		str	r3, [r2, #20]
 614:E:/LiteOS/LiteOS_Lab/drivers/third_party/ST/STM32L4xx_HAL_Driver/Src\stm32l4xx_hal_flash_ex.c ****   SET_BIT(FLASH->CR, FLASH_CR_STRT);
 804              		.loc 1 614 0
 805 003e 064B     		ldr	r3, .L50
ARM GAS  C:\Users\user\AppData\Local\Temp\cc2XHdAe.s 			page 41


 806 0040 5B69     		ldr	r3, [r3, #20]
 807 0042 054A     		ldr	r2, .L50
 808 0044 43F48033 		orr	r3, r3, #65536
 809 0048 5361     		str	r3, [r2, #20]
 615:E:/LiteOS/LiteOS_Lab/drivers/third_party/ST/STM32L4xx_HAL_Driver/Src\stm32l4xx_hal_flash_ex.c **** }
 810              		.loc 1 615 0
 811 004a 00BF     		nop
 812 004c 1437     		adds	r7, r7, #20
 813              	.LCFI29:
 814              		.cfi_def_cfa_offset 4
 815 004e BD46     		mov	sp, r7
 816              	.LCFI30:
 817              		.cfi_def_cfa_register 13
 818              		@ sp needed
 819 0050 5DF8047B 		ldr	r7, [sp], #4
 820              	.LCFI31:
 821              		.cfi_restore 7
 822              		.cfi_def_cfa_offset 0
 823 0054 7047     		bx	lr
 824              	.L51:
 825 0056 00BF     		.align	2
 826              	.L50:
 827 0058 00200240 		.word	1073881088
 828              		.cfi_endproc
 829              	.LFE138:
 831              		.section	.text.FLASH_FlushCaches,"ax",%progbits
 832              		.align	1
 833              		.global	FLASH_FlushCaches
 834              		.syntax unified
 835              		.thumb
 836              		.thumb_func
 837              		.fpu fpv4-sp-d16
 839              	FLASH_FlushCaches:
 840              	.LFB139:
 616:E:/LiteOS/LiteOS_Lab/drivers/third_party/ST/STM32L4xx_HAL_Driver/Src\stm32l4xx_hal_flash_ex.c **** 
 617:E:/LiteOS/LiteOS_Lab/drivers/third_party/ST/STM32L4xx_HAL_Driver/Src\stm32l4xx_hal_flash_ex.c **** /**
 618:E:/LiteOS/LiteOS_Lab/drivers/third_party/ST/STM32L4xx_HAL_Driver/Src\stm32l4xx_hal_flash_ex.c ****   * @brief  Flush the instruction and data caches.
 619:E:/LiteOS/LiteOS_Lab/drivers/third_party/ST/STM32L4xx_HAL_Driver/Src\stm32l4xx_hal_flash_ex.c ****   * @retval None
 620:E:/LiteOS/LiteOS_Lab/drivers/third_party/ST/STM32L4xx_HAL_Driver/Src\stm32l4xx_hal_flash_ex.c ****   */
 621:E:/LiteOS/LiteOS_Lab/drivers/third_party/ST/STM32L4xx_HAL_Driver/Src\stm32l4xx_hal_flash_ex.c **** void FLASH_FlushCaches(void)
 622:E:/LiteOS/LiteOS_Lab/drivers/third_party/ST/STM32L4xx_HAL_Driver/Src\stm32l4xx_hal_flash_ex.c **** {
 841              		.loc 1 622 0
 842              		.cfi_startproc
 843              		@ args = 0, pretend = 0, frame = 0
 844              		@ frame_needed = 1, uses_anonymous_args = 0
 845              		@ link register save eliminated.
 846 0000 80B4     		push	{r7}
 847              	.LCFI32:
 848              		.cfi_def_cfa_offset 4
 849              		.cfi_offset 7, -4
 850 0002 00AF     		add	r7, sp, #0
 851              	.LCFI33:
 852              		.cfi_def_cfa_register 7
 623:E:/LiteOS/LiteOS_Lab/drivers/third_party/ST/STM32L4xx_HAL_Driver/Src\stm32l4xx_hal_flash_ex.c ****   /* Flush instruction cache  */
 624:E:/LiteOS/LiteOS_Lab/drivers/third_party/ST/STM32L4xx_HAL_Driver/Src\stm32l4xx_hal_flash_ex.c ****   if((pFlash.CacheToReactivate == FLASH_CACHE_ICACHE_ENABLED) || 
 853              		.loc 1 624 0
 854 0004 1F4B     		ldr	r3, .L57
ARM GAS  C:\Users\user\AppData\Local\Temp\cc2XHdAe.s 			page 42


 855 0006 1B7F     		ldrb	r3, [r3, #28]
 856 0008 DBB2     		uxtb	r3, r3
 857 000a 012B     		cmp	r3, #1
 858 000c 04D0     		beq	.L53
 625:E:/LiteOS/LiteOS_Lab/drivers/third_party/ST/STM32L4xx_HAL_Driver/Src\stm32l4xx_hal_flash_ex.c ****      (pFlash.CacheToReactivate == FLASH_CACHE_ICACHE_DCACHE_ENABLED))
 859              		.loc 1 625 0 discriminator 1
 860 000e 1D4B     		ldr	r3, .L57
 861 0010 1B7F     		ldrb	r3, [r3, #28]
 862 0012 DBB2     		uxtb	r3, r3
 624:E:/LiteOS/LiteOS_Lab/drivers/third_party/ST/STM32L4xx_HAL_Driver/Src\stm32l4xx_hal_flash_ex.c ****      (pFlash.CacheToReactivate == FLASH_CACHE_ICACHE_DCACHE_ENABLED))
 863              		.loc 1 624 0 discriminator 1
 864 0014 032B     		cmp	r3, #3
 865 0016 11D1     		bne	.L54
 866              	.L53:
 626:E:/LiteOS/LiteOS_Lab/drivers/third_party/ST/STM32L4xx_HAL_Driver/Src\stm32l4xx_hal_flash_ex.c ****   {
 627:E:/LiteOS/LiteOS_Lab/drivers/third_party/ST/STM32L4xx_HAL_Driver/Src\stm32l4xx_hal_flash_ex.c ****     /* Reset instruction cache */
 628:E:/LiteOS/LiteOS_Lab/drivers/third_party/ST/STM32L4xx_HAL_Driver/Src\stm32l4xx_hal_flash_ex.c ****     __HAL_FLASH_INSTRUCTION_CACHE_RESET();
 867              		.loc 1 628 0
 868 0018 1B4B     		ldr	r3, .L57+4
 869 001a 1B68     		ldr	r3, [r3]
 870 001c 1A4A     		ldr	r2, .L57+4
 871 001e 43F40063 		orr	r3, r3, #2048
 872 0022 1360     		str	r3, [r2]
 873 0024 184B     		ldr	r3, .L57+4
 874 0026 1B68     		ldr	r3, [r3]
 875 0028 174A     		ldr	r2, .L57+4
 876 002a 23F40063 		bic	r3, r3, #2048
 877 002e 1360     		str	r3, [r2]
 629:E:/LiteOS/LiteOS_Lab/drivers/third_party/ST/STM32L4xx_HAL_Driver/Src\stm32l4xx_hal_flash_ex.c ****     /* Enable instruction cache */
 630:E:/LiteOS/LiteOS_Lab/drivers/third_party/ST/STM32L4xx_HAL_Driver/Src\stm32l4xx_hal_flash_ex.c ****     __HAL_FLASH_INSTRUCTION_CACHE_ENABLE();
 878              		.loc 1 630 0
 879 0030 154B     		ldr	r3, .L57+4
 880 0032 1B68     		ldr	r3, [r3]
 881 0034 144A     		ldr	r2, .L57+4
 882 0036 43F40073 		orr	r3, r3, #512
 883 003a 1360     		str	r3, [r2]
 884              	.L54:
 631:E:/LiteOS/LiteOS_Lab/drivers/third_party/ST/STM32L4xx_HAL_Driver/Src\stm32l4xx_hal_flash_ex.c ****   }
 632:E:/LiteOS/LiteOS_Lab/drivers/third_party/ST/STM32L4xx_HAL_Driver/Src\stm32l4xx_hal_flash_ex.c ****   
 633:E:/LiteOS/LiteOS_Lab/drivers/third_party/ST/STM32L4xx_HAL_Driver/Src\stm32l4xx_hal_flash_ex.c ****   /* Flush data cache */
 634:E:/LiteOS/LiteOS_Lab/drivers/third_party/ST/STM32L4xx_HAL_Driver/Src\stm32l4xx_hal_flash_ex.c ****   if((pFlash.CacheToReactivate == FLASH_CACHE_DCACHE_ENABLED) || 
 885              		.loc 1 634 0
 886 003c 114B     		ldr	r3, .L57
 887 003e 1B7F     		ldrb	r3, [r3, #28]
 888 0040 DBB2     		uxtb	r3, r3
 889 0042 022B     		cmp	r3, #2
 890 0044 04D0     		beq	.L55
 635:E:/LiteOS/LiteOS_Lab/drivers/third_party/ST/STM32L4xx_HAL_Driver/Src\stm32l4xx_hal_flash_ex.c ****      (pFlash.CacheToReactivate == FLASH_CACHE_ICACHE_DCACHE_ENABLED))
 891              		.loc 1 635 0 discriminator 1
 892 0046 0F4B     		ldr	r3, .L57
 893 0048 1B7F     		ldrb	r3, [r3, #28]
 894 004a DBB2     		uxtb	r3, r3
 634:E:/LiteOS/LiteOS_Lab/drivers/third_party/ST/STM32L4xx_HAL_Driver/Src\stm32l4xx_hal_flash_ex.c ****      (pFlash.CacheToReactivate == FLASH_CACHE_ICACHE_DCACHE_ENABLED))
 895              		.loc 1 634 0 discriminator 1
 896 004c 032B     		cmp	r3, #3
 897 004e 11D1     		bne	.L56
 898              	.L55:
ARM GAS  C:\Users\user\AppData\Local\Temp\cc2XHdAe.s 			page 43


 636:E:/LiteOS/LiteOS_Lab/drivers/third_party/ST/STM32L4xx_HAL_Driver/Src\stm32l4xx_hal_flash_ex.c ****   {
 637:E:/LiteOS/LiteOS_Lab/drivers/third_party/ST/STM32L4xx_HAL_Driver/Src\stm32l4xx_hal_flash_ex.c ****     /* Reset data cache */
 638:E:/LiteOS/LiteOS_Lab/drivers/third_party/ST/STM32L4xx_HAL_Driver/Src\stm32l4xx_hal_flash_ex.c ****     __HAL_FLASH_DATA_CACHE_RESET();
 899              		.loc 1 638 0
 900 0050 0D4B     		ldr	r3, .L57+4
 901 0052 1B68     		ldr	r3, [r3]
 902 0054 0C4A     		ldr	r2, .L57+4
 903 0056 43F48053 		orr	r3, r3, #4096
 904 005a 1360     		str	r3, [r2]
 905 005c 0A4B     		ldr	r3, .L57+4
 906 005e 1B68     		ldr	r3, [r3]
 907 0060 094A     		ldr	r2, .L57+4
 908 0062 23F48053 		bic	r3, r3, #4096
 909 0066 1360     		str	r3, [r2]
 639:E:/LiteOS/LiteOS_Lab/drivers/third_party/ST/STM32L4xx_HAL_Driver/Src\stm32l4xx_hal_flash_ex.c ****     /* Enable data cache */
 640:E:/LiteOS/LiteOS_Lab/drivers/third_party/ST/STM32L4xx_HAL_Driver/Src\stm32l4xx_hal_flash_ex.c ****     __HAL_FLASH_DATA_CACHE_ENABLE();
 910              		.loc 1 640 0
 911 0068 074B     		ldr	r3, .L57+4
 912 006a 1B68     		ldr	r3, [r3]
 913 006c 064A     		ldr	r2, .L57+4
 914 006e 43F48063 		orr	r3, r3, #1024
 915 0072 1360     		str	r3, [r2]
 916              	.L56:
 641:E:/LiteOS/LiteOS_Lab/drivers/third_party/ST/STM32L4xx_HAL_Driver/Src\stm32l4xx_hal_flash_ex.c ****   }
 642:E:/LiteOS/LiteOS_Lab/drivers/third_party/ST/STM32L4xx_HAL_Driver/Src\stm32l4xx_hal_flash_ex.c ****   
 643:E:/LiteOS/LiteOS_Lab/drivers/third_party/ST/STM32L4xx_HAL_Driver/Src\stm32l4xx_hal_flash_ex.c ****   /* Reset internal variable */
 644:E:/LiteOS/LiteOS_Lab/drivers/third_party/ST/STM32L4xx_HAL_Driver/Src\stm32l4xx_hal_flash_ex.c ****   pFlash.CacheToReactivate = FLASH_CACHE_DISABLED;
 917              		.loc 1 644 0
 918 0074 034B     		ldr	r3, .L57
 919 0076 0022     		movs	r2, #0
 920 0078 1A77     		strb	r2, [r3, #28]
 645:E:/LiteOS/LiteOS_Lab/drivers/third_party/ST/STM32L4xx_HAL_Driver/Src\stm32l4xx_hal_flash_ex.c **** }
 921              		.loc 1 645 0
 922 007a 00BF     		nop
 923 007c BD46     		mov	sp, r7
 924              	.LCFI34:
 925              		.cfi_def_cfa_register 13
 926              		@ sp needed
 927 007e 5DF8047B 		ldr	r7, [sp], #4
 928              	.LCFI35:
 929              		.cfi_restore 7
 930              		.cfi_def_cfa_offset 0
 931 0082 7047     		bx	lr
 932              	.L58:
 933              		.align	2
 934              	.L57:
 935 0084 00000000 		.word	pFlash
 936 0088 00200240 		.word	1073881088
 937              		.cfi_endproc
 938              	.LFE139:
 940              		.section	.text.FLASH_OB_WRPConfig,"ax",%progbits
 941              		.align	1
 942              		.syntax unified
 943              		.thumb
 944              		.thumb_func
 945              		.fpu fpv4-sp-d16
 947              	FLASH_OB_WRPConfig:
ARM GAS  C:\Users\user\AppData\Local\Temp\cc2XHdAe.s 			page 44


 948              	.LFB140:
 646:E:/LiteOS/LiteOS_Lab/drivers/third_party/ST/STM32L4xx_HAL_Driver/Src\stm32l4xx_hal_flash_ex.c **** 
 647:E:/LiteOS/LiteOS_Lab/drivers/third_party/ST/STM32L4xx_HAL_Driver/Src\stm32l4xx_hal_flash_ex.c **** /**
 648:E:/LiteOS/LiteOS_Lab/drivers/third_party/ST/STM32L4xx_HAL_Driver/Src\stm32l4xx_hal_flash_ex.c ****   * @brief  Configure the write protection of the desired pages.
 649:E:/LiteOS/LiteOS_Lab/drivers/third_party/ST/STM32L4xx_HAL_Driver/Src\stm32l4xx_hal_flash_ex.c ****   *
 650:E:/LiteOS/LiteOS_Lab/drivers/third_party/ST/STM32L4xx_HAL_Driver/Src\stm32l4xx_hal_flash_ex.c ****   * @note   When the memory read protection level is selected (RDP level = 1), 
 651:E:/LiteOS/LiteOS_Lab/drivers/third_party/ST/STM32L4xx_HAL_Driver/Src\stm32l4xx_hal_flash_ex.c ****   *         it is not possible to program or erase Flash memory if the CPU debug 
 652:E:/LiteOS/LiteOS_Lab/drivers/third_party/ST/STM32L4xx_HAL_Driver/Src\stm32l4xx_hal_flash_ex.c ****   *         features are connected (JTAG or single wire) or boot code is being 
 653:E:/LiteOS/LiteOS_Lab/drivers/third_party/ST/STM32L4xx_HAL_Driver/Src\stm32l4xx_hal_flash_ex.c ****   *         executed from RAM or System flash, even if WRP is not activated. 
 654:E:/LiteOS/LiteOS_Lab/drivers/third_party/ST/STM32L4xx_HAL_Driver/Src\stm32l4xx_hal_flash_ex.c ****   * @note   To configure the WRP options, the option lock bit OPTLOCK must be 
 655:E:/LiteOS/LiteOS_Lab/drivers/third_party/ST/STM32L4xx_HAL_Driver/Src\stm32l4xx_hal_flash_ex.c ****   *         cleared with the call of the HAL_FLASH_OB_Unlock() function.
 656:E:/LiteOS/LiteOS_Lab/drivers/third_party/ST/STM32L4xx_HAL_Driver/Src\stm32l4xx_hal_flash_ex.c ****   * @note   To validate the WRP options, the option bytes must be reloaded 
 657:E:/LiteOS/LiteOS_Lab/drivers/third_party/ST/STM32L4xx_HAL_Driver/Src\stm32l4xx_hal_flash_ex.c ****   *         through the call of the HAL_FLASH_OB_Launch() function.
 658:E:/LiteOS/LiteOS_Lab/drivers/third_party/ST/STM32L4xx_HAL_Driver/Src\stm32l4xx_hal_flash_ex.c ****   *
 659:E:/LiteOS/LiteOS_Lab/drivers/third_party/ST/STM32L4xx_HAL_Driver/Src\stm32l4xx_hal_flash_ex.c ****   * @param  WRPArea: specifies the area to be configured.
 660:E:/LiteOS/LiteOS_Lab/drivers/third_party/ST/STM32L4xx_HAL_Driver/Src\stm32l4xx_hal_flash_ex.c ****   *          This parameter can be one of the following values:
 661:E:/LiteOS/LiteOS_Lab/drivers/third_party/ST/STM32L4xx_HAL_Driver/Src\stm32l4xx_hal_flash_ex.c ****   *            @arg OB_WRPAREA_BANK1_AREAA: Flash Bank 1 Area A                      
 662:E:/LiteOS/LiteOS_Lab/drivers/third_party/ST/STM32L4xx_HAL_Driver/Src\stm32l4xx_hal_flash_ex.c ****   *            @arg OB_WRPAREA_BANK1_AREAB: Flash Bank 1 Area B                      
 663:E:/LiteOS/LiteOS_Lab/drivers/third_party/ST/STM32L4xx_HAL_Driver/Src\stm32l4xx_hal_flash_ex.c ****   *            @arg OB_WRPAREA_BANK2_AREAA: Flash Bank 2 Area A  (don't apply for STM32L43x/STM32L4
 664:E:/LiteOS/LiteOS_Lab/drivers/third_party/ST/STM32L4xx_HAL_Driver/Src\stm32l4xx_hal_flash_ex.c ****   *            @arg OB_WRPAREA_BANK2_AREAB: Flash Bank 2 Area B  (don't apply for STM32L43x/STM32L4
 665:E:/LiteOS/LiteOS_Lab/drivers/third_party/ST/STM32L4xx_HAL_Driver/Src\stm32l4xx_hal_flash_ex.c ****   *
 666:E:/LiteOS/LiteOS_Lab/drivers/third_party/ST/STM32L4xx_HAL_Driver/Src\stm32l4xx_hal_flash_ex.c ****   * @param  WRPStartOffset: specifies the start page of the write protected area
 667:E:/LiteOS/LiteOS_Lab/drivers/third_party/ST/STM32L4xx_HAL_Driver/Src\stm32l4xx_hal_flash_ex.c ****   *          This parameter can be page number between 0 and (max number of pages in the bank - 1) 
 668:E:/LiteOS/LiteOS_Lab/drivers/third_party/ST/STM32L4xx_HAL_Driver/Src\stm32l4xx_hal_flash_ex.c ****   *
 669:E:/LiteOS/LiteOS_Lab/drivers/third_party/ST/STM32L4xx_HAL_Driver/Src\stm32l4xx_hal_flash_ex.c ****   * @param  WRDPEndOffset: specifies the end page of the write protected area
 670:E:/LiteOS/LiteOS_Lab/drivers/third_party/ST/STM32L4xx_HAL_Driver/Src\stm32l4xx_hal_flash_ex.c ****   *          This parameter can be page number between WRPStartOffset and (max number of pages in t
 671:E:/LiteOS/LiteOS_Lab/drivers/third_party/ST/STM32L4xx_HAL_Driver/Src\stm32l4xx_hal_flash_ex.c ****   *
 672:E:/LiteOS/LiteOS_Lab/drivers/third_party/ST/STM32L4xx_HAL_Driver/Src\stm32l4xx_hal_flash_ex.c ****   * @retval HAL Status
 673:E:/LiteOS/LiteOS_Lab/drivers/third_party/ST/STM32L4xx_HAL_Driver/Src\stm32l4xx_hal_flash_ex.c ****   */
 674:E:/LiteOS/LiteOS_Lab/drivers/third_party/ST/STM32L4xx_HAL_Driver/Src\stm32l4xx_hal_flash_ex.c **** static HAL_StatusTypeDef FLASH_OB_WRPConfig(uint32_t WRPArea, uint32_t WRPStartOffset, uint32_t WRD
 675:E:/LiteOS/LiteOS_Lab/drivers/third_party/ST/STM32L4xx_HAL_Driver/Src\stm32l4xx_hal_flash_ex.c **** {
 949              		.loc 1 675 0
 950              		.cfi_startproc
 951              		@ args = 0, pretend = 0, frame = 24
 952              		@ frame_needed = 1, uses_anonymous_args = 0
 953 0000 80B5     		push	{r7, lr}
 954              	.LCFI36:
 955              		.cfi_def_cfa_offset 8
 956              		.cfi_offset 7, -8
 957              		.cfi_offset 14, -4
 958 0002 86B0     		sub	sp, sp, #24
 959              	.LCFI37:
 960              		.cfi_def_cfa_offset 32
 961 0004 00AF     		add	r7, sp, #0
 962              	.LCFI38:
 963              		.cfi_def_cfa_register 7
 964 0006 F860     		str	r0, [r7, #12]
 965 0008 B960     		str	r1, [r7, #8]
 966 000a 7A60     		str	r2, [r7, #4]
 676:E:/LiteOS/LiteOS_Lab/drivers/third_party/ST/STM32L4xx_HAL_Driver/Src\stm32l4xx_hal_flash_ex.c ****   HAL_StatusTypeDef status = HAL_OK;
 967              		.loc 1 676 0
 968 000c 0023     		movs	r3, #0
 969 000e FB75     		strb	r3, [r7, #23]
 677:E:/LiteOS/LiteOS_Lab/drivers/third_party/ST/STM32L4xx_HAL_Driver/Src\stm32l4xx_hal_flash_ex.c **** 
 678:E:/LiteOS/LiteOS_Lab/drivers/third_party/ST/STM32L4xx_HAL_Driver/Src\stm32l4xx_hal_flash_ex.c ****   /* Check the parameters */
 679:E:/LiteOS/LiteOS_Lab/drivers/third_party/ST/STM32L4xx_HAL_Driver/Src\stm32l4xx_hal_flash_ex.c ****   assert_param(IS_OB_WRPAREA(WRPArea));
 680:E:/LiteOS/LiteOS_Lab/drivers/third_party/ST/STM32L4xx_HAL_Driver/Src\stm32l4xx_hal_flash_ex.c ****   assert_param(IS_FLASH_PAGE(WRPStartOffset));
ARM GAS  C:\Users\user\AppData\Local\Temp\cc2XHdAe.s 			page 45


 681:E:/LiteOS/LiteOS_Lab/drivers/third_party/ST/STM32L4xx_HAL_Driver/Src\stm32l4xx_hal_flash_ex.c ****   assert_param(IS_FLASH_PAGE(WRDPEndOffset));
 682:E:/LiteOS/LiteOS_Lab/drivers/third_party/ST/STM32L4xx_HAL_Driver/Src\stm32l4xx_hal_flash_ex.c **** 
 683:E:/LiteOS/LiteOS_Lab/drivers/third_party/ST/STM32L4xx_HAL_Driver/Src\stm32l4xx_hal_flash_ex.c ****   /* Wait for last operation to be completed */
 684:E:/LiteOS/LiteOS_Lab/drivers/third_party/ST/STM32L4xx_HAL_Driver/Src\stm32l4xx_hal_flash_ex.c ****   status = FLASH_WaitForLastOperation((uint32_t)FLASH_TIMEOUT_VALUE);
 970              		.loc 1 684 0
 971 0010 4CF25030 		movw	r0, #50000
 972 0014 FFF7FEFF 		bl	FLASH_WaitForLastOperation
 973 0018 0346     		mov	r3, r0
 974 001a FB75     		strb	r3, [r7, #23]
 685:E:/LiteOS/LiteOS_Lab/drivers/third_party/ST/STM32L4xx_HAL_Driver/Src\stm32l4xx_hal_flash_ex.c **** 
 686:E:/LiteOS/LiteOS_Lab/drivers/third_party/ST/STM32L4xx_HAL_Driver/Src\stm32l4xx_hal_flash_ex.c ****   if(status == HAL_OK)
 975              		.loc 1 686 0
 976 001c FB7D     		ldrb	r3, [r7, #23]	@ zero_extendqisi2
 977 001e 002B     		cmp	r3, #0
 978 0020 2ED1     		bne	.L60
 687:E:/LiteOS/LiteOS_Lab/drivers/third_party/ST/STM32L4xx_HAL_Driver/Src\stm32l4xx_hal_flash_ex.c ****   {
 688:E:/LiteOS/LiteOS_Lab/drivers/third_party/ST/STM32L4xx_HAL_Driver/Src\stm32l4xx_hal_flash_ex.c ****     /* Configure the write protected area */
 689:E:/LiteOS/LiteOS_Lab/drivers/third_party/ST/STM32L4xx_HAL_Driver/Src\stm32l4xx_hal_flash_ex.c ****     if(WRPArea == OB_WRPAREA_BANK1_AREAA)
 979              		.loc 1 689 0
 980 0022 FB68     		ldr	r3, [r7, #12]
 981 0024 002B     		cmp	r3, #0
 982 0026 0BD1     		bne	.L61
 690:E:/LiteOS/LiteOS_Lab/drivers/third_party/ST/STM32L4xx_HAL_Driver/Src\stm32l4xx_hal_flash_ex.c ****     {
 691:E:/LiteOS/LiteOS_Lab/drivers/third_party/ST/STM32L4xx_HAL_Driver/Src\stm32l4xx_hal_flash_ex.c ****       MODIFY_REG(FLASH->WRP1AR, (FLASH_WRP1AR_WRP1A_STRT | FLASH_WRP1AR_WRP1A_END), 
 983              		.loc 1 691 0
 984 0028 184B     		ldr	r3, .L64
 985 002a DB6A     		ldr	r3, [r3, #44]
 986 002c 03F0FF22 		and	r2, r3, #-16711936
 987 0030 7B68     		ldr	r3, [r7, #4]
 988 0032 1904     		lsls	r1, r3, #16
 989 0034 BB68     		ldr	r3, [r7, #8]
 990 0036 0B43     		orrs	r3, r3, r1
 991 0038 1449     		ldr	r1, .L64
 992 003a 1343     		orrs	r3, r3, r2
 993 003c CB62     		str	r3, [r1, #44]
 994 003e 0DE0     		b	.L62
 995              	.L61:
 692:E:/LiteOS/LiteOS_Lab/drivers/third_party/ST/STM32L4xx_HAL_Driver/Src\stm32l4xx_hal_flash_ex.c ****                  (WRPStartOffset | (WRDPEndOffset << 16)));
 693:E:/LiteOS/LiteOS_Lab/drivers/third_party/ST/STM32L4xx_HAL_Driver/Src\stm32l4xx_hal_flash_ex.c ****     }
 694:E:/LiteOS/LiteOS_Lab/drivers/third_party/ST/STM32L4xx_HAL_Driver/Src\stm32l4xx_hal_flash_ex.c ****     else if(WRPArea == OB_WRPAREA_BANK1_AREAB)
 996              		.loc 1 694 0
 997 0040 FB68     		ldr	r3, [r7, #12]
 998 0042 012B     		cmp	r3, #1
 999 0044 0AD1     		bne	.L62
 695:E:/LiteOS/LiteOS_Lab/drivers/third_party/ST/STM32L4xx_HAL_Driver/Src\stm32l4xx_hal_flash_ex.c ****     {
 696:E:/LiteOS/LiteOS_Lab/drivers/third_party/ST/STM32L4xx_HAL_Driver/Src\stm32l4xx_hal_flash_ex.c ****       MODIFY_REG(FLASH->WRP1BR, (FLASH_WRP1BR_WRP1B_STRT | FLASH_WRP1BR_WRP1B_END), 
 1000              		.loc 1 696 0
 1001 0046 114B     		ldr	r3, .L64
 1002 0048 1B6B     		ldr	r3, [r3, #48]
 1003 004a 03F0FF22 		and	r2, r3, #-16711936
 1004 004e 7B68     		ldr	r3, [r7, #4]
 1005 0050 1904     		lsls	r1, r3, #16
 1006 0052 BB68     		ldr	r3, [r7, #8]
 1007 0054 0B43     		orrs	r3, r3, r1
 1008 0056 0D49     		ldr	r1, .L64
 1009 0058 1343     		orrs	r3, r3, r2
 1010 005a 0B63     		str	r3, [r1, #48]
ARM GAS  C:\Users\user\AppData\Local\Temp\cc2XHdAe.s 			page 46


 1011              	.L62:
 697:E:/LiteOS/LiteOS_Lab/drivers/third_party/ST/STM32L4xx_HAL_Driver/Src\stm32l4xx_hal_flash_ex.c ****                  (WRPStartOffset | (WRDPEndOffset << 16)));
 698:E:/LiteOS/LiteOS_Lab/drivers/third_party/ST/STM32L4xx_HAL_Driver/Src\stm32l4xx_hal_flash_ex.c ****     }
 699:E:/LiteOS/LiteOS_Lab/drivers/third_party/ST/STM32L4xx_HAL_Driver/Src\stm32l4xx_hal_flash_ex.c **** #if defined (STM32L471xx) || defined (STM32L475xx) || defined (STM32L476xx) || defined (STM32L485xx
 700:E:/LiteOS/LiteOS_Lab/drivers/third_party/ST/STM32L4xx_HAL_Driver/Src\stm32l4xx_hal_flash_ex.c ****     defined (STM32L496xx) || defined (STM32L4A6xx) || \
 701:E:/LiteOS/LiteOS_Lab/drivers/third_party/ST/STM32L4xx_HAL_Driver/Src\stm32l4xx_hal_flash_ex.c ****     defined (STM32L4R5xx) || defined (STM32L4R7xx) || defined (STM32L4R9xx) || defined (STM32L4S5xx
 702:E:/LiteOS/LiteOS_Lab/drivers/third_party/ST/STM32L4xx_HAL_Driver/Src\stm32l4xx_hal_flash_ex.c ****     else if(WRPArea == OB_WRPAREA_BANK2_AREAA)
 703:E:/LiteOS/LiteOS_Lab/drivers/third_party/ST/STM32L4xx_HAL_Driver/Src\stm32l4xx_hal_flash_ex.c ****     {
 704:E:/LiteOS/LiteOS_Lab/drivers/third_party/ST/STM32L4xx_HAL_Driver/Src\stm32l4xx_hal_flash_ex.c ****       MODIFY_REG(FLASH->WRP2AR, (FLASH_WRP2AR_WRP2A_STRT | FLASH_WRP2AR_WRP2A_END), 
 705:E:/LiteOS/LiteOS_Lab/drivers/third_party/ST/STM32L4xx_HAL_Driver/Src\stm32l4xx_hal_flash_ex.c ****                  (WRPStartOffset | (WRDPEndOffset << 16)));
 706:E:/LiteOS/LiteOS_Lab/drivers/third_party/ST/STM32L4xx_HAL_Driver/Src\stm32l4xx_hal_flash_ex.c ****     }
 707:E:/LiteOS/LiteOS_Lab/drivers/third_party/ST/STM32L4xx_HAL_Driver/Src\stm32l4xx_hal_flash_ex.c ****     else if(WRPArea == OB_WRPAREA_BANK2_AREAB)
 708:E:/LiteOS/LiteOS_Lab/drivers/third_party/ST/STM32L4xx_HAL_Driver/Src\stm32l4xx_hal_flash_ex.c ****     {
 709:E:/LiteOS/LiteOS_Lab/drivers/third_party/ST/STM32L4xx_HAL_Driver/Src\stm32l4xx_hal_flash_ex.c ****       MODIFY_REG(FLASH->WRP2BR, (FLASH_WRP2BR_WRP2B_STRT | FLASH_WRP2BR_WRP2B_END), 
 710:E:/LiteOS/LiteOS_Lab/drivers/third_party/ST/STM32L4xx_HAL_Driver/Src\stm32l4xx_hal_flash_ex.c ****                  (WRPStartOffset | (WRDPEndOffset << 16)));
 711:E:/LiteOS/LiteOS_Lab/drivers/third_party/ST/STM32L4xx_HAL_Driver/Src\stm32l4xx_hal_flash_ex.c ****     }
 712:E:/LiteOS/LiteOS_Lab/drivers/third_party/ST/STM32L4xx_HAL_Driver/Src\stm32l4xx_hal_flash_ex.c **** #endif
 713:E:/LiteOS/LiteOS_Lab/drivers/third_party/ST/STM32L4xx_HAL_Driver/Src\stm32l4xx_hal_flash_ex.c ****     
 714:E:/LiteOS/LiteOS_Lab/drivers/third_party/ST/STM32L4xx_HAL_Driver/Src\stm32l4xx_hal_flash_ex.c ****     /* Set OPTSTRT Bit */
 715:E:/LiteOS/LiteOS_Lab/drivers/third_party/ST/STM32L4xx_HAL_Driver/Src\stm32l4xx_hal_flash_ex.c ****     SET_BIT(FLASH->CR, FLASH_CR_OPTSTRT);
 1012              		.loc 1 715 0
 1013 005c 0B4B     		ldr	r3, .L64
 1014 005e 5B69     		ldr	r3, [r3, #20]
 1015 0060 0A4A     		ldr	r2, .L64
 1016 0062 43F40033 		orr	r3, r3, #131072
 1017 0066 5361     		str	r3, [r2, #20]
 716:E:/LiteOS/LiteOS_Lab/drivers/third_party/ST/STM32L4xx_HAL_Driver/Src\stm32l4xx_hal_flash_ex.c ****     
 717:E:/LiteOS/LiteOS_Lab/drivers/third_party/ST/STM32L4xx_HAL_Driver/Src\stm32l4xx_hal_flash_ex.c ****     /* Wait for last operation to be completed */
 718:E:/LiteOS/LiteOS_Lab/drivers/third_party/ST/STM32L4xx_HAL_Driver/Src\stm32l4xx_hal_flash_ex.c ****     status = FLASH_WaitForLastOperation((uint32_t)FLASH_TIMEOUT_VALUE);
 1018              		.loc 1 718 0
 1019 0068 4CF25030 		movw	r0, #50000
 1020 006c FFF7FEFF 		bl	FLASH_WaitForLastOperation
 1021 0070 0346     		mov	r3, r0
 1022 0072 FB75     		strb	r3, [r7, #23]
 719:E:/LiteOS/LiteOS_Lab/drivers/third_party/ST/STM32L4xx_HAL_Driver/Src\stm32l4xx_hal_flash_ex.c **** 
 720:E:/LiteOS/LiteOS_Lab/drivers/third_party/ST/STM32L4xx_HAL_Driver/Src\stm32l4xx_hal_flash_ex.c ****     /* If the option byte program operation is completed, disable the OPTSTRT Bit */
 721:E:/LiteOS/LiteOS_Lab/drivers/third_party/ST/STM32L4xx_HAL_Driver/Src\stm32l4xx_hal_flash_ex.c ****     CLEAR_BIT(FLASH->CR, FLASH_CR_OPTSTRT);
 1023              		.loc 1 721 0
 1024 0074 054B     		ldr	r3, .L64
 1025 0076 5B69     		ldr	r3, [r3, #20]
 1026 0078 044A     		ldr	r2, .L64
 1027 007a 23F40033 		bic	r3, r3, #131072
 1028 007e 5361     		str	r3, [r2, #20]
 1029              	.L60:
 722:E:/LiteOS/LiteOS_Lab/drivers/third_party/ST/STM32L4xx_HAL_Driver/Src\stm32l4xx_hal_flash_ex.c ****   }
 723:E:/LiteOS/LiteOS_Lab/drivers/third_party/ST/STM32L4xx_HAL_Driver/Src\stm32l4xx_hal_flash_ex.c ****   
 724:E:/LiteOS/LiteOS_Lab/drivers/third_party/ST/STM32L4xx_HAL_Driver/Src\stm32l4xx_hal_flash_ex.c ****   return status;
 1030              		.loc 1 724 0
 1031 0080 FB7D     		ldrb	r3, [r7, #23]	@ zero_extendqisi2
 725:E:/LiteOS/LiteOS_Lab/drivers/third_party/ST/STM32L4xx_HAL_Driver/Src\stm32l4xx_hal_flash_ex.c **** }
 1032              		.loc 1 725 0
 1033 0082 1846     		mov	r0, r3
 1034 0084 1837     		adds	r7, r7, #24
 1035              	.LCFI39:
 1036              		.cfi_def_cfa_offset 8
 1037 0086 BD46     		mov	sp, r7
 1038              	.LCFI40:
ARM GAS  C:\Users\user\AppData\Local\Temp\cc2XHdAe.s 			page 47


 1039              		.cfi_def_cfa_register 13
 1040              		@ sp needed
 1041 0088 80BD     		pop	{r7, pc}
 1042              	.L65:
 1043 008a 00BF     		.align	2
 1044              	.L64:
 1045 008c 00200240 		.word	1073881088
 1046              		.cfi_endproc
 1047              	.LFE140:
 1049              		.section	.text.FLASH_OB_RDPConfig,"ax",%progbits
 1050              		.align	1
 1051              		.syntax unified
 1052              		.thumb
 1053              		.thumb_func
 1054              		.fpu fpv4-sp-d16
 1056              	FLASH_OB_RDPConfig:
 1057              	.LFB141:
 726:E:/LiteOS/LiteOS_Lab/drivers/third_party/ST/STM32L4xx_HAL_Driver/Src\stm32l4xx_hal_flash_ex.c **** 
 727:E:/LiteOS/LiteOS_Lab/drivers/third_party/ST/STM32L4xx_HAL_Driver/Src\stm32l4xx_hal_flash_ex.c **** /**
 728:E:/LiteOS/LiteOS_Lab/drivers/third_party/ST/STM32L4xx_HAL_Driver/Src\stm32l4xx_hal_flash_ex.c ****   * @brief  Set the read protection level.
 729:E:/LiteOS/LiteOS_Lab/drivers/third_party/ST/STM32L4xx_HAL_Driver/Src\stm32l4xx_hal_flash_ex.c ****   *    
 730:E:/LiteOS/LiteOS_Lab/drivers/third_party/ST/STM32L4xx_HAL_Driver/Src\stm32l4xx_hal_flash_ex.c ****   * @note   To configure the RDP level, the option lock bit OPTLOCK must be 
 731:E:/LiteOS/LiteOS_Lab/drivers/third_party/ST/STM32L4xx_HAL_Driver/Src\stm32l4xx_hal_flash_ex.c ****   *         cleared with the call of the HAL_FLASH_OB_Unlock() function.
 732:E:/LiteOS/LiteOS_Lab/drivers/third_party/ST/STM32L4xx_HAL_Driver/Src\stm32l4xx_hal_flash_ex.c ****   * @note   To validate the RDP level, the option bytes must be reloaded 
 733:E:/LiteOS/LiteOS_Lab/drivers/third_party/ST/STM32L4xx_HAL_Driver/Src\stm32l4xx_hal_flash_ex.c ****   *         through the call of the HAL_FLASH_OB_Launch() function.
 734:E:/LiteOS/LiteOS_Lab/drivers/third_party/ST/STM32L4xx_HAL_Driver/Src\stm32l4xx_hal_flash_ex.c ****   * @note   !!! Warning : When enabling OB_RDP level 2 it's no more possible 
 735:E:/LiteOS/LiteOS_Lab/drivers/third_party/ST/STM32L4xx_HAL_Driver/Src\stm32l4xx_hal_flash_ex.c ****   *         to go back to level 1 or 0 !!!
 736:E:/LiteOS/LiteOS_Lab/drivers/third_party/ST/STM32L4xx_HAL_Driver/Src\stm32l4xx_hal_flash_ex.c ****   *    
 737:E:/LiteOS/LiteOS_Lab/drivers/third_party/ST/STM32L4xx_HAL_Driver/Src\stm32l4xx_hal_flash_ex.c ****   * @param  RDPLevel: specifies the read protection level.
 738:E:/LiteOS/LiteOS_Lab/drivers/third_party/ST/STM32L4xx_HAL_Driver/Src\stm32l4xx_hal_flash_ex.c ****   *         This parameter can be one of the following values:
 739:E:/LiteOS/LiteOS_Lab/drivers/third_party/ST/STM32L4xx_HAL_Driver/Src\stm32l4xx_hal_flash_ex.c ****   *            @arg OB_RDP_LEVEL_0: No protection
