ARM GAS  C:\Users\user\AppData\Local\Temp\ccvQ1M9B.s 			page 1


   1              		.cpu cortex-m4
   2              		.eabi_attribute 27, 1
   3              		.eabi_attribute 28, 1
   4              		.eabi_attribute 20, 1
   5              		.eabi_attribute 21, 1
   6              		.eabi_attribute 23, 3
   7              		.eabi_attribute 24, 1
   8              		.eabi_attribute 25, 1
   9              		.eabi_attribute 26, 1
  10              		.eabi_attribute 30, 6
  11              		.eabi_attribute 34, 1
  12              		.eabi_attribute 18, 4
  13              		.file	"stm32l4xx_hal_spi.c"
  14              		.text
  15              	.Ltext0:
  16              		.cfi_sections	.debug_frame
  17              		.section	.text.HAL_SPI_Init,"ax",%progbits
  18              		.align	1
  19              		.global	HAL_SPI_Init
  20              		.syntax unified
  21              		.thumb
  22              		.thumb_func
  23              		.fpu fpv4-sp-d16
  25              	HAL_SPI_Init:
  26              	.LFB133:
  27              		.file 1 "E:/LiteOS/LiteOS_Lab/drivers/third_party/ST/STM32L4xx_HAL_Driver/Src/stm32l4xx_hal_spi.c"
   1:E:/LiteOS/LiteOS_Lab/drivers/third_party/ST/STM32L4xx_HAL_Driver/Src\stm32l4xx_hal_spi.c **** /**
   2:E:/LiteOS/LiteOS_Lab/drivers/third_party/ST/STM32L4xx_HAL_Driver/Src\stm32l4xx_hal_spi.c ****   ******************************************************************************
   3:E:/LiteOS/LiteOS_Lab/drivers/third_party/ST/STM32L4xx_HAL_Driver/Src\stm32l4xx_hal_spi.c ****   * @file    stm32l4xx_hal_spi.c
   4:E:/LiteOS/LiteOS_Lab/drivers/third_party/ST/STM32L4xx_HAL_Driver/Src\stm32l4xx_hal_spi.c ****   * @author  MCD Application Team
   5:E:/LiteOS/LiteOS_Lab/drivers/third_party/ST/STM32L4xx_HAL_Driver/Src\stm32l4xx_hal_spi.c ****   * @brief   SPI HAL module driver.
   6:E:/LiteOS/LiteOS_Lab/drivers/third_party/ST/STM32L4xx_HAL_Driver/Src\stm32l4xx_hal_spi.c ****   *          This file provides firmware functions to manage the following
   7:E:/LiteOS/LiteOS_Lab/drivers/third_party/ST/STM32L4xx_HAL_Driver/Src\stm32l4xx_hal_spi.c ****   *          functionalities of the Serial Peripheral Interface (SPI) peripheral:
   8:E:/LiteOS/LiteOS_Lab/drivers/third_party/ST/STM32L4xx_HAL_Driver/Src\stm32l4xx_hal_spi.c ****   *           + Initialization and de-initialization functions
   9:E:/LiteOS/LiteOS_Lab/drivers/third_party/ST/STM32L4xx_HAL_Driver/Src\stm32l4xx_hal_spi.c ****   *           + IO operation functions
  10:E:/LiteOS/LiteOS_Lab/drivers/third_party/ST/STM32L4xx_HAL_Driver/Src\stm32l4xx_hal_spi.c ****   *           + Peripheral Control functions
  11:E:/LiteOS/LiteOS_Lab/drivers/third_party/ST/STM32L4xx_HAL_Driver/Src\stm32l4xx_hal_spi.c ****   *           + Peripheral State functions
  12:E:/LiteOS/LiteOS_Lab/drivers/third_party/ST/STM32L4xx_HAL_Driver/Src\stm32l4xx_hal_spi.c ****   *
  13:E:/LiteOS/LiteOS_Lab/drivers/third_party/ST/STM32L4xx_HAL_Driver/Src\stm32l4xx_hal_spi.c ****   @verbatim
  14:E:/LiteOS/LiteOS_Lab/drivers/third_party/ST/STM32L4xx_HAL_Driver/Src\stm32l4xx_hal_spi.c ****   ==============================================================================
  15:E:/LiteOS/LiteOS_Lab/drivers/third_party/ST/STM32L4xx_HAL_Driver/Src\stm32l4xx_hal_spi.c ****                         ##### How to use this driver #####
  16:E:/LiteOS/LiteOS_Lab/drivers/third_party/ST/STM32L4xx_HAL_Driver/Src\stm32l4xx_hal_spi.c ****   ==============================================================================
  17:E:/LiteOS/LiteOS_Lab/drivers/third_party/ST/STM32L4xx_HAL_Driver/Src\stm32l4xx_hal_spi.c ****     [..]
  18:E:/LiteOS/LiteOS_Lab/drivers/third_party/ST/STM32L4xx_HAL_Driver/Src\stm32l4xx_hal_spi.c ****       The SPI HAL driver can be used as follows:
  19:E:/LiteOS/LiteOS_Lab/drivers/third_party/ST/STM32L4xx_HAL_Driver/Src\stm32l4xx_hal_spi.c **** 
  20:E:/LiteOS/LiteOS_Lab/drivers/third_party/ST/STM32L4xx_HAL_Driver/Src\stm32l4xx_hal_spi.c ****       (#) Declare a SPI_HandleTypeDef handle structure, for example:
  21:E:/LiteOS/LiteOS_Lab/drivers/third_party/ST/STM32L4xx_HAL_Driver/Src\stm32l4xx_hal_spi.c ****           SPI_HandleTypeDef  hspi;
  22:E:/LiteOS/LiteOS_Lab/drivers/third_party/ST/STM32L4xx_HAL_Driver/Src\stm32l4xx_hal_spi.c **** 
  23:E:/LiteOS/LiteOS_Lab/drivers/third_party/ST/STM32L4xx_HAL_Driver/Src\stm32l4xx_hal_spi.c ****       (#)Initialize the SPI low level resources by implementing the HAL_SPI_MspInit() API:
  24:E:/LiteOS/LiteOS_Lab/drivers/third_party/ST/STM32L4xx_HAL_Driver/Src\stm32l4xx_hal_spi.c ****           (##) Enable the SPIx interface clock
  25:E:/LiteOS/LiteOS_Lab/drivers/third_party/ST/STM32L4xx_HAL_Driver/Src\stm32l4xx_hal_spi.c ****           (##) SPI pins configuration
  26:E:/LiteOS/LiteOS_Lab/drivers/third_party/ST/STM32L4xx_HAL_Driver/Src\stm32l4xx_hal_spi.c ****               (+++) Enable the clock for the SPI GPIOs
  27:E:/LiteOS/LiteOS_Lab/drivers/third_party/ST/STM32L4xx_HAL_Driver/Src\stm32l4xx_hal_spi.c ****               (+++) Configure these SPI pins as alternate function push-pull
  28:E:/LiteOS/LiteOS_Lab/drivers/third_party/ST/STM32L4xx_HAL_Driver/Src\stm32l4xx_hal_spi.c ****           (##) NVIC configuration if you need to use interrupt process
  29:E:/LiteOS/LiteOS_Lab/drivers/third_party/ST/STM32L4xx_HAL_Driver/Src\stm32l4xx_hal_spi.c ****               (+++) Configure the SPIx interrupt priority
  30:E:/LiteOS/LiteOS_Lab/drivers/third_party/ST/STM32L4xx_HAL_Driver/Src\stm32l4xx_hal_spi.c ****               (+++) Enable the NVIC SPI IRQ handle
  31:E:/LiteOS/LiteOS_Lab/drivers/third_party/ST/STM32L4xx_HAL_Driver/Src\stm32l4xx_hal_spi.c ****           (##) DMA Configuration if you need to use DMA process
ARM GAS  C:\Users\user\AppData\Local\Temp\ccvQ1M9B.s 			page 2


  32:E:/LiteOS/LiteOS_Lab/drivers/third_party/ST/STM32L4xx_HAL_Driver/Src\stm32l4xx_hal_spi.c ****               (+++) Declare a DMA_HandleTypeDef handle structure for the transmit or receive Stream
  33:E:/LiteOS/LiteOS_Lab/drivers/third_party/ST/STM32L4xx_HAL_Driver/Src\stm32l4xx_hal_spi.c ****               (+++) Enable the DMAx clock
  34:E:/LiteOS/LiteOS_Lab/drivers/third_party/ST/STM32L4xx_HAL_Driver/Src\stm32l4xx_hal_spi.c ****               (+++) Configure the DMA handle parameters
  35:E:/LiteOS/LiteOS_Lab/drivers/third_party/ST/STM32L4xx_HAL_Driver/Src\stm32l4xx_hal_spi.c ****               (+++) Configure the DMA Tx or Rx Stream/Channel
  36:E:/LiteOS/LiteOS_Lab/drivers/third_party/ST/STM32L4xx_HAL_Driver/Src\stm32l4xx_hal_spi.c ****               (+++) Associate the initialized hdma_tx(or _rx)  handle to the hspi DMA Tx or Rx hand
  37:E:/LiteOS/LiteOS_Lab/drivers/third_party/ST/STM32L4xx_HAL_Driver/Src\stm32l4xx_hal_spi.c ****               (+++) Configure the priority and enable the NVIC for the transfer complete interrupt 
  38:E:/LiteOS/LiteOS_Lab/drivers/third_party/ST/STM32L4xx_HAL_Driver/Src\stm32l4xx_hal_spi.c **** 
  39:E:/LiteOS/LiteOS_Lab/drivers/third_party/ST/STM32L4xx_HAL_Driver/Src\stm32l4xx_hal_spi.c ****       (#) Program the Mode, BidirectionalMode , Data size, Baudrate Prescaler, NSS
  40:E:/LiteOS/LiteOS_Lab/drivers/third_party/ST/STM32L4xx_HAL_Driver/Src\stm32l4xx_hal_spi.c ****           management, Clock polarity and phase, FirstBit and CRC configuration in the hspi Init str
  41:E:/LiteOS/LiteOS_Lab/drivers/third_party/ST/STM32L4xx_HAL_Driver/Src\stm32l4xx_hal_spi.c **** 
  42:E:/LiteOS/LiteOS_Lab/drivers/third_party/ST/STM32L4xx_HAL_Driver/Src\stm32l4xx_hal_spi.c ****       (#) Initialize the SPI registers by calling the HAL_SPI_Init() API:
  43:E:/LiteOS/LiteOS_Lab/drivers/third_party/ST/STM32L4xx_HAL_Driver/Src\stm32l4xx_hal_spi.c ****           (++) This API configures also the low level Hardware GPIO, CLOCK, CORTEX...etc)
  44:E:/LiteOS/LiteOS_Lab/drivers/third_party/ST/STM32L4xx_HAL_Driver/Src\stm32l4xx_hal_spi.c ****               by calling the customized HAL_SPI_MspInit() API.
  45:E:/LiteOS/LiteOS_Lab/drivers/third_party/ST/STM32L4xx_HAL_Driver/Src\stm32l4xx_hal_spi.c ****      [..]
  46:E:/LiteOS/LiteOS_Lab/drivers/third_party/ST/STM32L4xx_HAL_Driver/Src\stm32l4xx_hal_spi.c ****        Circular mode restriction:
  47:E:/LiteOS/LiteOS_Lab/drivers/third_party/ST/STM32L4xx_HAL_Driver/Src\stm32l4xx_hal_spi.c ****       (#) The DMA circular mode cannot be used when the SPI is configured in these modes:
  48:E:/LiteOS/LiteOS_Lab/drivers/third_party/ST/STM32L4xx_HAL_Driver/Src\stm32l4xx_hal_spi.c ****           (##) Master 2Lines RxOnly
  49:E:/LiteOS/LiteOS_Lab/drivers/third_party/ST/STM32L4xx_HAL_Driver/Src\stm32l4xx_hal_spi.c ****           (##) Master 1Line Rx
  50:E:/LiteOS/LiteOS_Lab/drivers/third_party/ST/STM32L4xx_HAL_Driver/Src\stm32l4xx_hal_spi.c ****       (#) The CRC feature is not managed when the DMA circular mode is enabled
  51:E:/LiteOS/LiteOS_Lab/drivers/third_party/ST/STM32L4xx_HAL_Driver/Src\stm32l4xx_hal_spi.c ****       (#) When the SPI DMA Pause/Stop features are used, we must use the following APIs
  52:E:/LiteOS/LiteOS_Lab/drivers/third_party/ST/STM32L4xx_HAL_Driver/Src\stm32l4xx_hal_spi.c ****           the HAL_SPI_DMAPause()/ HAL_SPI_DMAStop() only under the SPI callbacks
  53:E:/LiteOS/LiteOS_Lab/drivers/third_party/ST/STM32L4xx_HAL_Driver/Src\stm32l4xx_hal_spi.c ****      [..]
  54:E:/LiteOS/LiteOS_Lab/drivers/third_party/ST/STM32L4xx_HAL_Driver/Src\stm32l4xx_hal_spi.c ****        Master Receive mode restriction:
  55:E:/LiteOS/LiteOS_Lab/drivers/third_party/ST/STM32L4xx_HAL_Driver/Src\stm32l4xx_hal_spi.c ****       (#) In Master unidirectional receive-only mode (MSTR =1, BIDIMODE=0, RXONLY=1) or
  56:E:/LiteOS/LiteOS_Lab/drivers/third_party/ST/STM32L4xx_HAL_Driver/Src\stm32l4xx_hal_spi.c ****           bidirectional receive mode (MSTR=1, BIDIMODE=1, BIDIOE=0), to ensure that the SPI
  57:E:/LiteOS/LiteOS_Lab/drivers/third_party/ST/STM32L4xx_HAL_Driver/Src\stm32l4xx_hal_spi.c ****           does not initiate a new transfer the following procedure has to be respected:
  58:E:/LiteOS/LiteOS_Lab/drivers/third_party/ST/STM32L4xx_HAL_Driver/Src\stm32l4xx_hal_spi.c ****           (##) HAL_SPI_DeInit()
  59:E:/LiteOS/LiteOS_Lab/drivers/third_party/ST/STM32L4xx_HAL_Driver/Src\stm32l4xx_hal_spi.c ****           (##) HAL_SPI_Init()
  60:E:/LiteOS/LiteOS_Lab/drivers/third_party/ST/STM32L4xx_HAL_Driver/Src\stm32l4xx_hal_spi.c ****      [..]
  61:E:/LiteOS/LiteOS_Lab/drivers/third_party/ST/STM32L4xx_HAL_Driver/Src\stm32l4xx_hal_spi.c ****        Using the HAL it is not possible to reach all supported SPI frequency with the differents SP
  62:E:/LiteOS/LiteOS_Lab/drivers/third_party/ST/STM32L4xx_HAL_Driver/Src\stm32l4xx_hal_spi.c ****        the following table resume the max SPI frequency reached with data size 8bits/16bits,
  63:E:/LiteOS/LiteOS_Lab/drivers/third_party/ST/STM32L4xx_HAL_Driver/Src\stm32l4xx_hal_spi.c ****          according to frequency of the APBx Peripheral Clock (fPCLK) used by the SPI instance.
  64:E:/LiteOS/LiteOS_Lab/drivers/third_party/ST/STM32L4xx_HAL_Driver/Src\stm32l4xx_hal_spi.c **** 
  65:E:/LiteOS/LiteOS_Lab/drivers/third_party/ST/STM32L4xx_HAL_Driver/Src\stm32l4xx_hal_spi.c ****   @endverbatim
  66:E:/LiteOS/LiteOS_Lab/drivers/third_party/ST/STM32L4xx_HAL_Driver/Src\stm32l4xx_hal_spi.c **** 
  67:E:/LiteOS/LiteOS_Lab/drivers/third_party/ST/STM32L4xx_HAL_Driver/Src\stm32l4xx_hal_spi.c ****   Additional table :
  68:E:/LiteOS/LiteOS_Lab/drivers/third_party/ST/STM32L4xx_HAL_Driver/Src\stm32l4xx_hal_spi.c **** 
  69:E:/LiteOS/LiteOS_Lab/drivers/third_party/ST/STM32L4xx_HAL_Driver/Src\stm32l4xx_hal_spi.c ****        DataSize = SPI_DATASIZE_8BIT:
  70:E:/LiteOS/LiteOS_Lab/drivers/third_party/ST/STM32L4xx_HAL_Driver/Src\stm32l4xx_hal_spi.c ****        +-------------------------------------------------------------------------------------------
  71:E:/LiteOS/LiteOS_Lab/drivers/third_party/ST/STM32L4xx_HAL_Driver/Src\stm32l4xx_hal_spi.c ****        |         |                | 2Lines Fullduplex   |     2Lines RxOnly    |         1Line     
  72:E:/LiteOS/LiteOS_Lab/drivers/third_party/ST/STM32L4xx_HAL_Driver/Src\stm32l4xx_hal_spi.c ****        | Process | Tranfert mode  |---------------------|----------------------|-------------------
  73:E:/LiteOS/LiteOS_Lab/drivers/third_party/ST/STM32L4xx_HAL_Driver/Src\stm32l4xx_hal_spi.c ****        |         |                |  Master  |  Slave   |  Master   |  Slave   |  Master   |  Slave
  74:E:/LiteOS/LiteOS_Lab/drivers/third_party/ST/STM32L4xx_HAL_Driver/Src\stm32l4xx_hal_spi.c ****        |===========================================================================================
  75:E:/LiteOS/LiteOS_Lab/drivers/third_party/ST/STM32L4xx_HAL_Driver/Src\stm32l4xx_hal_spi.c ****        |    T    |     Polling    | Fpclk/4  | Fpclk/8  |    NA     |    NA    |    NA     |   NA  
  76:E:/LiteOS/LiteOS_Lab/drivers/third_party/ST/STM32L4xx_HAL_Driver/Src\stm32l4xx_hal_spi.c ****        |    X    |----------------|----------|----------|-----------|----------|-----------|-------
  77:E:/LiteOS/LiteOS_Lab/drivers/third_party/ST/STM32L4xx_HAL_Driver/Src\stm32l4xx_hal_spi.c ****        |    /    |     Interrupt  | Fpclk/4  | Fpclk/16 |    NA     |    NA    |    NA     |   NA  
  78:E:/LiteOS/LiteOS_Lab/drivers/third_party/ST/STM32L4xx_HAL_Driver/Src\stm32l4xx_hal_spi.c ****        |    R    |----------------|----------|----------|-----------|----------|-----------|-------
  79:E:/LiteOS/LiteOS_Lab/drivers/third_party/ST/STM32L4xx_HAL_Driver/Src\stm32l4xx_hal_spi.c ****        |    X    |       DMA      | Fpclk/2  | Fpclk/2  |    NA     |    NA    |    NA     |   NA  
  80:E:/LiteOS/LiteOS_Lab/drivers/third_party/ST/STM32L4xx_HAL_Driver/Src\stm32l4xx_hal_spi.c ****        |=========|================|==========|==========|===========|==========|===========|=======
  81:E:/LiteOS/LiteOS_Lab/drivers/third_party/ST/STM32L4xx_HAL_Driver/Src\stm32l4xx_hal_spi.c ****        |         |     Polling    | Fpclk/4  | Fpclk/8  | Fpclk/16  | Fpclk/8  | Fpclk/8   | Fpclk/
  82:E:/LiteOS/LiteOS_Lab/drivers/third_party/ST/STM32L4xx_HAL_Driver/Src\stm32l4xx_hal_spi.c ****        |         |----------------|----------|----------|-----------|----------|-----------|-------
  83:E:/LiteOS/LiteOS_Lab/drivers/third_party/ST/STM32L4xx_HAL_Driver/Src\stm32l4xx_hal_spi.c ****        |    R    |     Interrupt  | Fpclk/8  | Fpclk/16 | Fpclk/8   | Fpclk/8  | Fpclk/8   | Fpclk/
  84:E:/LiteOS/LiteOS_Lab/drivers/third_party/ST/STM32L4xx_HAL_Driver/Src\stm32l4xx_hal_spi.c ****        |    X    |----------------|----------|----------|-----------|----------|-----------|-------
  85:E:/LiteOS/LiteOS_Lab/drivers/third_party/ST/STM32L4xx_HAL_Driver/Src\stm32l4xx_hal_spi.c ****        |         |       DMA      | Fpclk/4  | Fpclk/2  | Fpclk/2   | Fpclk/16 | Fpclk/2   | Fpclk/
  86:E:/LiteOS/LiteOS_Lab/drivers/third_party/ST/STM32L4xx_HAL_Driver/Src\stm32l4xx_hal_spi.c ****        |=========|================|==========|==========|===========|==========|===========|=======
  87:E:/LiteOS/LiteOS_Lab/drivers/third_party/ST/STM32L4xx_HAL_Driver/Src\stm32l4xx_hal_spi.c ****        |         |     Polling    | Fpclk/8  | Fpclk/2  |     NA    |    NA    | Fpclk/8   | Fpclk/
  88:E:/LiteOS/LiteOS_Lab/drivers/third_party/ST/STM32L4xx_HAL_Driver/Src\stm32l4xx_hal_spi.c ****        |         |----------------|----------|----------|-----------|----------|-----------|-------
ARM GAS  C:\Users\user\AppData\Local\Temp\ccvQ1M9B.s 			page 3


  89:E:/LiteOS/LiteOS_Lab/drivers/third_party/ST/STM32L4xx_HAL_Driver/Src\stm32l4xx_hal_spi.c ****        |    T    |     Interrupt  | Fpclk/2  | Fpclk/4  |     NA    |    NA    | Fpclk/16  | Fpclk/
  90:E:/LiteOS/LiteOS_Lab/drivers/third_party/ST/STM32L4xx_HAL_Driver/Src\stm32l4xx_hal_spi.c ****        |    X    |----------------|----------|----------|-----------|----------|-----------|-------
  91:E:/LiteOS/LiteOS_Lab/drivers/third_party/ST/STM32L4xx_HAL_Driver/Src\stm32l4xx_hal_spi.c ****        |         |       DMA      | Fpclk/2  | Fpclk/2  |     NA    |    NA    | Fpclk/8   | Fpclk/
  92:E:/LiteOS/LiteOS_Lab/drivers/third_party/ST/STM32L4xx_HAL_Driver/Src\stm32l4xx_hal_spi.c ****        +-------------------------------------------------------------------------------------------
  93:E:/LiteOS/LiteOS_Lab/drivers/third_party/ST/STM32L4xx_HAL_Driver/Src\stm32l4xx_hal_spi.c **** 
  94:E:/LiteOS/LiteOS_Lab/drivers/third_party/ST/STM32L4xx_HAL_Driver/Src\stm32l4xx_hal_spi.c ****        DataSize = SPI_DATASIZE_16BIT:
  95:E:/LiteOS/LiteOS_Lab/drivers/third_party/ST/STM32L4xx_HAL_Driver/Src\stm32l4xx_hal_spi.c ****        +-------------------------------------------------------------------------------------------
  96:E:/LiteOS/LiteOS_Lab/drivers/third_party/ST/STM32L4xx_HAL_Driver/Src\stm32l4xx_hal_spi.c ****        |         |                | 2Lines Fullduplex   |     2Lines RxOnly    |         1Line     
  97:E:/LiteOS/LiteOS_Lab/drivers/third_party/ST/STM32L4xx_HAL_Driver/Src\stm32l4xx_hal_spi.c ****        | Process | Tranfert mode  |---------------------|----------------------|-------------------
  98:E:/LiteOS/LiteOS_Lab/drivers/third_party/ST/STM32L4xx_HAL_Driver/Src\stm32l4xx_hal_spi.c ****        |         |                |  Master  |  Slave   |  Master   |  Slave   |  Master   |  Slave
  99:E:/LiteOS/LiteOS_Lab/drivers/third_party/ST/STM32L4xx_HAL_Driver/Src\stm32l4xx_hal_spi.c ****        |===========================================================================================
 100:E:/LiteOS/LiteOS_Lab/drivers/third_party/ST/STM32L4xx_HAL_Driver/Src\stm32l4xx_hal_spi.c ****        |    T    |     Polling    | Fpclk/4  | Fpclk/8  |    NA     |    NA    |    NA     |   NA  
 101:E:/LiteOS/LiteOS_Lab/drivers/third_party/ST/STM32L4xx_HAL_Driver/Src\stm32l4xx_hal_spi.c ****        |    X    |----------------|----------|----------|-----------|----------|-----------|-------
 102:E:/LiteOS/LiteOS_Lab/drivers/third_party/ST/STM32L4xx_HAL_Driver/Src\stm32l4xx_hal_spi.c ****        |    /    |     Interrupt  | Fpclk/4  | Fpclk/16 |    NA     |    NA    |    NA     |   NA  
 103:E:/LiteOS/LiteOS_Lab/drivers/third_party/ST/STM32L4xx_HAL_Driver/Src\stm32l4xx_hal_spi.c ****        |    R    |----------------|----------|----------|-----------|----------|-----------|-------
 104:E:/LiteOS/LiteOS_Lab/drivers/third_party/ST/STM32L4xx_HAL_Driver/Src\stm32l4xx_hal_spi.c ****        |    X    |       DMA      | Fpclk/2  | Fpclk/2  |    NA     |    NA    |    NA     |   NA  
 105:E:/LiteOS/LiteOS_Lab/drivers/third_party/ST/STM32L4xx_HAL_Driver/Src\stm32l4xx_hal_spi.c ****        |=========|================|==========|==========|===========|==========|===========|=======
 106:E:/LiteOS/LiteOS_Lab/drivers/third_party/ST/STM32L4xx_HAL_Driver/Src\stm32l4xx_hal_spi.c ****        |         |     Polling    | Fpclk/4  | Fpclk/8  | Fpclk/16  | Fpclk/8  | Fpclk/8   | Fpclk/
 107:E:/LiteOS/LiteOS_Lab/drivers/third_party/ST/STM32L4xx_HAL_Driver/Src\stm32l4xx_hal_spi.c ****        |         |----------------|----------|----------|-----------|----------|-----------|-------
 108:E:/LiteOS/LiteOS_Lab/drivers/third_party/ST/STM32L4xx_HAL_Driver/Src\stm32l4xx_hal_spi.c ****        |    R    |     Interrupt  | Fpclk/8  | Fpclk/16 | Fpclk/8   | Fpclk/8  | Fpclk/8   | Fpclk/
 109:E:/LiteOS/LiteOS_Lab/drivers/third_party/ST/STM32L4xx_HAL_Driver/Src\stm32l4xx_hal_spi.c ****        |    X    |----------------|----------|----------|-----------|----------|-----------|-------
 110:E:/LiteOS/LiteOS_Lab/drivers/third_party/ST/STM32L4xx_HAL_Driver/Src\stm32l4xx_hal_spi.c ****        |         |       DMA      | Fpclk/4  | Fpclk/2  | Fpclk/2   | Fpclk/16 | Fpclk/2   | Fpclk/
 111:E:/LiteOS/LiteOS_Lab/drivers/third_party/ST/STM32L4xx_HAL_Driver/Src\stm32l4xx_hal_spi.c ****        |=========|================|==========|==========|===========|==========|===========|=======
 112:E:/LiteOS/LiteOS_Lab/drivers/third_party/ST/STM32L4xx_HAL_Driver/Src\stm32l4xx_hal_spi.c ****        |         |     Polling    | Fpclk/8  | Fpclk/2  |     NA    |    NA    | Fpclk/8   | Fpclk/
 113:E:/LiteOS/LiteOS_Lab/drivers/third_party/ST/STM32L4xx_HAL_Driver/Src\stm32l4xx_hal_spi.c ****        |         |----------------|----------|----------|-----------|----------|-----------|-------
 114:E:/LiteOS/LiteOS_Lab/drivers/third_party/ST/STM32L4xx_HAL_Driver/Src\stm32l4xx_hal_spi.c ****        |    T    |     Interrupt  | Fpclk/2  | Fpclk/4  |     NA    |    NA    | Fpclk/16  | Fpclk/
 115:E:/LiteOS/LiteOS_Lab/drivers/third_party/ST/STM32L4xx_HAL_Driver/Src\stm32l4xx_hal_spi.c ****        |    X    |----------------|----------|----------|-----------|----------|-----------|-------
 116:E:/LiteOS/LiteOS_Lab/drivers/third_party/ST/STM32L4xx_HAL_Driver/Src\stm32l4xx_hal_spi.c ****        |         |       DMA      | Fpclk/2  | Fpclk/2  |     NA    |    NA    | Fpclk/8   | Fpclk/
 117:E:/LiteOS/LiteOS_Lab/drivers/third_party/ST/STM32L4xx_HAL_Driver/Src\stm32l4xx_hal_spi.c ****        +-------------------------------------------------------------------------------------------
 118:E:/LiteOS/LiteOS_Lab/drivers/third_party/ST/STM32L4xx_HAL_Driver/Src\stm32l4xx_hal_spi.c ****        @note The max SPI frequency depend on SPI data size (4bits, 5bits,..., 8bits,...15bits, 16bi
 119:E:/LiteOS/LiteOS_Lab/drivers/third_party/ST/STM32L4xx_HAL_Driver/Src\stm32l4xx_hal_spi.c ****              SPI mode(2 Lines fullduplex, 2 lines RxOnly, 1 line TX/RX) and Process mode (Polling, 
 120:E:/LiteOS/LiteOS_Lab/drivers/third_party/ST/STM32L4xx_HAL_Driver/Src\stm32l4xx_hal_spi.c ****        @note
 121:E:/LiteOS/LiteOS_Lab/drivers/third_party/ST/STM32L4xx_HAL_Driver/Src\stm32l4xx_hal_spi.c ****             (#) TX/RX processes are HAL_SPI_TransmitReceive(), HAL_SPI_TransmitReceive_IT() and HAL
 122:E:/LiteOS/LiteOS_Lab/drivers/third_party/ST/STM32L4xx_HAL_Driver/Src\stm32l4xx_hal_spi.c ****             (#) RX processes are HAL_SPI_Receive(), HAL_SPI_Receive_IT() and HAL_SPI_Receive_DMA()
 123:E:/LiteOS/LiteOS_Lab/drivers/third_party/ST/STM32L4xx_HAL_Driver/Src\stm32l4xx_hal_spi.c ****             (#) TX processes are HAL_SPI_Transmit(), HAL_SPI_Transmit_IT() and HAL_SPI_Transmit_DMA
 124:E:/LiteOS/LiteOS_Lab/drivers/third_party/ST/STM32L4xx_HAL_Driver/Src\stm32l4xx_hal_spi.c **** 
 125:E:/LiteOS/LiteOS_Lab/drivers/third_party/ST/STM32L4xx_HAL_Driver/Src\stm32l4xx_hal_spi.c ****   ******************************************************************************
 126:E:/LiteOS/LiteOS_Lab/drivers/third_party/ST/STM32L4xx_HAL_Driver/Src\stm32l4xx_hal_spi.c ****   * @attention
 127:E:/LiteOS/LiteOS_Lab/drivers/third_party/ST/STM32L4xx_HAL_Driver/Src\stm32l4xx_hal_spi.c ****   *
 128:E:/LiteOS/LiteOS_Lab/drivers/third_party/ST/STM32L4xx_HAL_Driver/Src\stm32l4xx_hal_spi.c ****   * <h2><center>&copy; COPYRIGHT(c) 2017 STMicroelectronics</center></h2>
 129:E:/LiteOS/LiteOS_Lab/drivers/third_party/ST/STM32L4xx_HAL_Driver/Src\stm32l4xx_hal_spi.c ****   *
 130:E:/LiteOS/LiteOS_Lab/drivers/third_party/ST/STM32L4xx_HAL_Driver/Src\stm32l4xx_hal_spi.c ****   * Redistribution and use in source and binary forms, with or without modification,
 131:E:/LiteOS/LiteOS_Lab/drivers/third_party/ST/STM32L4xx_HAL_Driver/Src\stm32l4xx_hal_spi.c ****   * are permitted provided that the following conditions are met:
 132:E:/LiteOS/LiteOS_Lab/drivers/third_party/ST/STM32L4xx_HAL_Driver/Src\stm32l4xx_hal_spi.c ****   *   1. Redistributions of source code must retain the above copyright notice,
 133:E:/LiteOS/LiteOS_Lab/drivers/third_party/ST/STM32L4xx_HAL_Driver/Src\stm32l4xx_hal_spi.c ****   *      this list of conditions and the following disclaimer.
 134:E:/LiteOS/LiteOS_Lab/drivers/third_party/ST/STM32L4xx_HAL_Driver/Src\stm32l4xx_hal_spi.c ****   *   2. Redistributions in binary form must reproduce the above copyright notice,
 135:E:/LiteOS/LiteOS_Lab/drivers/third_party/ST/STM32L4xx_HAL_Driver/Src\stm32l4xx_hal_spi.c ****   *      this list of conditions and the following disclaimer in the documentation
 136:E:/LiteOS/LiteOS_Lab/drivers/third_party/ST/STM32L4xx_HAL_Driver/Src\stm32l4xx_hal_spi.c ****   *      and/or other materials provided with the distribution.
 137:E:/LiteOS/LiteOS_Lab/drivers/third_party/ST/STM32L4xx_HAL_Driver/Src\stm32l4xx_hal_spi.c ****   *   3. Neither the name of STMicroelectronics nor the names of its contributors
 138:E:/LiteOS/LiteOS_Lab/drivers/third_party/ST/STM32L4xx_HAL_Driver/Src\stm32l4xx_hal_spi.c ****   *      may be used to endorse or promote products derived from this software
 139:E:/LiteOS/LiteOS_Lab/drivers/third_party/ST/STM32L4xx_HAL_Driver/Src\stm32l4xx_hal_spi.c ****   *      without specific prior written permission.
 140:E:/LiteOS/LiteOS_Lab/drivers/third_party/ST/STM32L4xx_HAL_Driver/Src\stm32l4xx_hal_spi.c ****   *
 141:E:/LiteOS/LiteOS_Lab/drivers/third_party/ST/STM32L4xx_HAL_Driver/Src\stm32l4xx_hal_spi.c ****   * THIS SOFTWARE IS PROVIDED BY THE COPYRIGHT HOLDERS AND CONTRIBUTORS "AS IS"
 142:E:/LiteOS/LiteOS_Lab/drivers/third_party/ST/STM32L4xx_HAL_Driver/Src\stm32l4xx_hal_spi.c ****   * AND ANY EXPRESS OR IMPLIED WARRANTIES, INCLUDING, BUT NOT LIMITED TO, THE
 143:E:/LiteOS/LiteOS_Lab/drivers/third_party/ST/STM32L4xx_HAL_Driver/Src\stm32l4xx_hal_spi.c ****   * IMPLIED WARRANTIES OF MERCHANTABILITY AND FITNESS FOR A PARTICULAR PURPOSE ARE
 144:E:/LiteOS/LiteOS_Lab/drivers/third_party/ST/STM32L4xx_HAL_Driver/Src\stm32l4xx_hal_spi.c ****   * DISCLAIMED. IN NO EVENT SHALL THE COPYRIGHT HOLDER OR CONTRIBUTORS BE LIABLE
 145:E:/LiteOS/LiteOS_Lab/drivers/third_party/ST/STM32L4xx_HAL_Driver/Src\stm32l4xx_hal_spi.c ****   * FOR ANY DIRECT, INDIRECT, INCIDENTAL, SPECIAL, EXEMPLARY, OR CONSEQUENTIAL
ARM GAS  C:\Users\user\AppData\Local\Temp\ccvQ1M9B.s 			page 4


 146:E:/LiteOS/LiteOS_Lab/drivers/third_party/ST/STM32L4xx_HAL_Driver/Src\stm32l4xx_hal_spi.c ****   * DAMAGES (INCLUDING, BUT NOT LIMITED TO, PROCUREMENT OF SUBSTITUTE GOODS OR
 147:E:/LiteOS/LiteOS_Lab/drivers/third_party/ST/STM32L4xx_HAL_Driver/Src\stm32l4xx_hal_spi.c ****   * SERVICES; LOSS OF USE, DATA, OR PROFITS; OR BUSINESS INTERRUPTION) HOWEVER
 148:E:/LiteOS/LiteOS_Lab/drivers/third_party/ST/STM32L4xx_HAL_Driver/Src\stm32l4xx_hal_spi.c ****   * CAUSED AND ON ANY THEORY OF LIABILITY, WHETHER IN CONTRACT, STRICT LIABILITY,
 149:E:/LiteOS/LiteOS_Lab/drivers/third_party/ST/STM32L4xx_HAL_Driver/Src\stm32l4xx_hal_spi.c ****   * OR TORT (INCLUDING NEGLIGENCE OR OTHERWISE) ARISING IN ANY WAY OUT OF THE USE
 150:E:/LiteOS/LiteOS_Lab/drivers/third_party/ST/STM32L4xx_HAL_Driver/Src\stm32l4xx_hal_spi.c ****   * OF THIS SOFTWARE, EVEN IF ADVISED OF THE POSSIBILITY OF SUCH DAMAGE.
 151:E:/LiteOS/LiteOS_Lab/drivers/third_party/ST/STM32L4xx_HAL_Driver/Src\stm32l4xx_hal_spi.c ****   *
 152:E:/LiteOS/LiteOS_Lab/drivers/third_party/ST/STM32L4xx_HAL_Driver/Src\stm32l4xx_hal_spi.c ****   ******************************************************************************
 153:E:/LiteOS/LiteOS_Lab/drivers/third_party/ST/STM32L4xx_HAL_Driver/Src\stm32l4xx_hal_spi.c ****   */
 154:E:/LiteOS/LiteOS_Lab/drivers/third_party/ST/STM32L4xx_HAL_Driver/Src\stm32l4xx_hal_spi.c **** 
 155:E:/LiteOS/LiteOS_Lab/drivers/third_party/ST/STM32L4xx_HAL_Driver/Src\stm32l4xx_hal_spi.c **** /* Includes ------------------------------------------------------------------*/
 156:E:/LiteOS/LiteOS_Lab/drivers/third_party/ST/STM32L4xx_HAL_Driver/Src\stm32l4xx_hal_spi.c **** #include "stm32l4xx_hal.h"
 157:E:/LiteOS/LiteOS_Lab/drivers/third_party/ST/STM32L4xx_HAL_Driver/Src\stm32l4xx_hal_spi.c **** 
 158:E:/LiteOS/LiteOS_Lab/drivers/third_party/ST/STM32L4xx_HAL_Driver/Src\stm32l4xx_hal_spi.c **** /** @addtogroup STM32L4xx_HAL_Driver
 159:E:/LiteOS/LiteOS_Lab/drivers/third_party/ST/STM32L4xx_HAL_Driver/Src\stm32l4xx_hal_spi.c ****   * @{
 160:E:/LiteOS/LiteOS_Lab/drivers/third_party/ST/STM32L4xx_HAL_Driver/Src\stm32l4xx_hal_spi.c ****   */
 161:E:/LiteOS/LiteOS_Lab/drivers/third_party/ST/STM32L4xx_HAL_Driver/Src\stm32l4xx_hal_spi.c **** 
 162:E:/LiteOS/LiteOS_Lab/drivers/third_party/ST/STM32L4xx_HAL_Driver/Src\stm32l4xx_hal_spi.c **** /** @defgroup SPI SPI
 163:E:/LiteOS/LiteOS_Lab/drivers/third_party/ST/STM32L4xx_HAL_Driver/Src\stm32l4xx_hal_spi.c ****   * @brief SPI HAL module driver
 164:E:/LiteOS/LiteOS_Lab/drivers/third_party/ST/STM32L4xx_HAL_Driver/Src\stm32l4xx_hal_spi.c ****   * @{
 165:E:/LiteOS/LiteOS_Lab/drivers/third_party/ST/STM32L4xx_HAL_Driver/Src\stm32l4xx_hal_spi.c ****   */
 166:E:/LiteOS/LiteOS_Lab/drivers/third_party/ST/STM32L4xx_HAL_Driver/Src\stm32l4xx_hal_spi.c **** #ifdef HAL_SPI_MODULE_ENABLED
 167:E:/LiteOS/LiteOS_Lab/drivers/third_party/ST/STM32L4xx_HAL_Driver/Src\stm32l4xx_hal_spi.c **** 
 168:E:/LiteOS/LiteOS_Lab/drivers/third_party/ST/STM32L4xx_HAL_Driver/Src\stm32l4xx_hal_spi.c **** /* Private typedef -----------------------------------------------------------*/
 169:E:/LiteOS/LiteOS_Lab/drivers/third_party/ST/STM32L4xx_HAL_Driver/Src\stm32l4xx_hal_spi.c **** /* Private defines -----------------------------------------------------------*/
 170:E:/LiteOS/LiteOS_Lab/drivers/third_party/ST/STM32L4xx_HAL_Driver/Src\stm32l4xx_hal_spi.c **** /** @defgroup SPI_Private_Constants SPI Private Constants
 171:E:/LiteOS/LiteOS_Lab/drivers/third_party/ST/STM32L4xx_HAL_Driver/Src\stm32l4xx_hal_spi.c ****   * @{
 172:E:/LiteOS/LiteOS_Lab/drivers/third_party/ST/STM32L4xx_HAL_Driver/Src\stm32l4xx_hal_spi.c ****   */
 173:E:/LiteOS/LiteOS_Lab/drivers/third_party/ST/STM32L4xx_HAL_Driver/Src\stm32l4xx_hal_spi.c **** #define SPI_DEFAULT_TIMEOUT 100U
 174:E:/LiteOS/LiteOS_Lab/drivers/third_party/ST/STM32L4xx_HAL_Driver/Src\stm32l4xx_hal_spi.c **** /**
 175:E:/LiteOS/LiteOS_Lab/drivers/third_party/ST/STM32L4xx_HAL_Driver/Src\stm32l4xx_hal_spi.c ****   * @}
 176:E:/LiteOS/LiteOS_Lab/drivers/third_party/ST/STM32L4xx_HAL_Driver/Src\stm32l4xx_hal_spi.c ****   */
 177:E:/LiteOS/LiteOS_Lab/drivers/third_party/ST/STM32L4xx_HAL_Driver/Src\stm32l4xx_hal_spi.c **** 
 178:E:/LiteOS/LiteOS_Lab/drivers/third_party/ST/STM32L4xx_HAL_Driver/Src\stm32l4xx_hal_spi.c **** /* Private macros ------------------------------------------------------------*/
 179:E:/LiteOS/LiteOS_Lab/drivers/third_party/ST/STM32L4xx_HAL_Driver/Src\stm32l4xx_hal_spi.c **** /* Private variables ---------------------------------------------------------*/
 180:E:/LiteOS/LiteOS_Lab/drivers/third_party/ST/STM32L4xx_HAL_Driver/Src\stm32l4xx_hal_spi.c **** /* Private function prototypes -----------------------------------------------*/
 181:E:/LiteOS/LiteOS_Lab/drivers/third_party/ST/STM32L4xx_HAL_Driver/Src\stm32l4xx_hal_spi.c **** /** @defgroup SPI_Private_Functions SPI Private Functions
 182:E:/LiteOS/LiteOS_Lab/drivers/third_party/ST/STM32L4xx_HAL_Driver/Src\stm32l4xx_hal_spi.c ****   * @{
 183:E:/LiteOS/LiteOS_Lab/drivers/third_party/ST/STM32L4xx_HAL_Driver/Src\stm32l4xx_hal_spi.c ****   */
 184:E:/LiteOS/LiteOS_Lab/drivers/third_party/ST/STM32L4xx_HAL_Driver/Src\stm32l4xx_hal_spi.c **** static void SPI_DMATransmitCplt(DMA_HandleTypeDef *hdma);
 185:E:/LiteOS/LiteOS_Lab/drivers/third_party/ST/STM32L4xx_HAL_Driver/Src\stm32l4xx_hal_spi.c **** static void SPI_DMAReceiveCplt(DMA_HandleTypeDef *hdma);
 186:E:/LiteOS/LiteOS_Lab/drivers/third_party/ST/STM32L4xx_HAL_Driver/Src\stm32l4xx_hal_spi.c **** static void SPI_DMATransmitReceiveCplt(DMA_HandleTypeDef *hdma);
 187:E:/LiteOS/LiteOS_Lab/drivers/third_party/ST/STM32L4xx_HAL_Driver/Src\stm32l4xx_hal_spi.c **** static void SPI_DMAHalfTransmitCplt(DMA_HandleTypeDef *hdma);
 188:E:/LiteOS/LiteOS_Lab/drivers/third_party/ST/STM32L4xx_HAL_Driver/Src\stm32l4xx_hal_spi.c **** static void SPI_DMAHalfReceiveCplt(DMA_HandleTypeDef *hdma);
 189:E:/LiteOS/LiteOS_Lab/drivers/third_party/ST/STM32L4xx_HAL_Driver/Src\stm32l4xx_hal_spi.c **** static void SPI_DMAHalfTransmitReceiveCplt(DMA_HandleTypeDef *hdma);
 190:E:/LiteOS/LiteOS_Lab/drivers/third_party/ST/STM32L4xx_HAL_Driver/Src\stm32l4xx_hal_spi.c **** static void SPI_DMAError(DMA_HandleTypeDef *hdma);
 191:E:/LiteOS/LiteOS_Lab/drivers/third_party/ST/STM32L4xx_HAL_Driver/Src\stm32l4xx_hal_spi.c **** static void SPI_DMAAbortOnError(DMA_HandleTypeDef *hdma);
 192:E:/LiteOS/LiteOS_Lab/drivers/third_party/ST/STM32L4xx_HAL_Driver/Src\stm32l4xx_hal_spi.c **** static void SPI_DMATxAbortCallback(DMA_HandleTypeDef *hdma);
 193:E:/LiteOS/LiteOS_Lab/drivers/third_party/ST/STM32L4xx_HAL_Driver/Src\stm32l4xx_hal_spi.c **** static void SPI_DMARxAbortCallback(DMA_HandleTypeDef *hdma);
 194:E:/LiteOS/LiteOS_Lab/drivers/third_party/ST/STM32L4xx_HAL_Driver/Src\stm32l4xx_hal_spi.c **** static HAL_StatusTypeDef SPI_WaitFlagStateUntilTimeout(SPI_HandleTypeDef *hspi, uint32_t Flag, uint
 195:E:/LiteOS/LiteOS_Lab/drivers/third_party/ST/STM32L4xx_HAL_Driver/Src\stm32l4xx_hal_spi.c ****                                                        uint32_t Timeout, uint32_t Tickstart);
 196:E:/LiteOS/LiteOS_Lab/drivers/third_party/ST/STM32L4xx_HAL_Driver/Src\stm32l4xx_hal_spi.c **** static HAL_StatusTypeDef SPI_WaitFifoStateUntilTimeout(SPI_HandleTypeDef *hspi, uint32_t Fifo, uint
 197:E:/LiteOS/LiteOS_Lab/drivers/third_party/ST/STM32L4xx_HAL_Driver/Src\stm32l4xx_hal_spi.c ****                                                        uint32_t Timeout, uint32_t Tickstart);
 198:E:/LiteOS/LiteOS_Lab/drivers/third_party/ST/STM32L4xx_HAL_Driver/Src\stm32l4xx_hal_spi.c **** static void SPI_TxISR_8BIT(struct __SPI_HandleTypeDef *hspi);
 199:E:/LiteOS/LiteOS_Lab/drivers/third_party/ST/STM32L4xx_HAL_Driver/Src\stm32l4xx_hal_spi.c **** static void SPI_TxISR_16BIT(struct __SPI_HandleTypeDef *hspi);
 200:E:/LiteOS/LiteOS_Lab/drivers/third_party/ST/STM32L4xx_HAL_Driver/Src\stm32l4xx_hal_spi.c **** static void SPI_RxISR_8BIT(struct __SPI_HandleTypeDef *hspi);
 201:E:/LiteOS/LiteOS_Lab/drivers/third_party/ST/STM32L4xx_HAL_Driver/Src\stm32l4xx_hal_spi.c **** static void SPI_RxISR_16BIT(struct __SPI_HandleTypeDef *hspi);
 202:E:/LiteOS/LiteOS_Lab/drivers/third_party/ST/STM32L4xx_HAL_Driver/Src\stm32l4xx_hal_spi.c **** static void SPI_2linesRxISR_8BIT(struct __SPI_HandleTypeDef *hspi);
ARM GAS  C:\Users\user\AppData\Local\Temp\ccvQ1M9B.s 			page 5


 203:E:/LiteOS/LiteOS_Lab/drivers/third_party/ST/STM32L4xx_HAL_Driver/Src\stm32l4xx_hal_spi.c **** static void SPI_2linesTxISR_8BIT(struct __SPI_HandleTypeDef *hspi);
 204:E:/LiteOS/LiteOS_Lab/drivers/third_party/ST/STM32L4xx_HAL_Driver/Src\stm32l4xx_hal_spi.c **** static void SPI_2linesTxISR_16BIT(struct __SPI_HandleTypeDef *hspi);
 205:E:/LiteOS/LiteOS_Lab/drivers/third_party/ST/STM32L4xx_HAL_Driver/Src\stm32l4xx_hal_spi.c **** static void SPI_2linesRxISR_16BIT(struct __SPI_HandleTypeDef *hspi);
 206:E:/LiteOS/LiteOS_Lab/drivers/third_party/ST/STM32L4xx_HAL_Driver/Src\stm32l4xx_hal_spi.c **** #if (USE_SPI_CRC != 0U)
 207:E:/LiteOS/LiteOS_Lab/drivers/third_party/ST/STM32L4xx_HAL_Driver/Src\stm32l4xx_hal_spi.c **** static void SPI_RxISR_8BITCRC(struct __SPI_HandleTypeDef *hspi);
 208:E:/LiteOS/LiteOS_Lab/drivers/third_party/ST/STM32L4xx_HAL_Driver/Src\stm32l4xx_hal_spi.c **** static void SPI_RxISR_16BITCRC(struct __SPI_HandleTypeDef *hspi);
 209:E:/LiteOS/LiteOS_Lab/drivers/third_party/ST/STM32L4xx_HAL_Driver/Src\stm32l4xx_hal_spi.c **** static void SPI_2linesRxISR_8BITCRC(struct __SPI_HandleTypeDef *hspi);
 210:E:/LiteOS/LiteOS_Lab/drivers/third_party/ST/STM32L4xx_HAL_Driver/Src\stm32l4xx_hal_spi.c **** static void SPI_2linesRxISR_16BITCRC(struct __SPI_HandleTypeDef *hspi);
 211:E:/LiteOS/LiteOS_Lab/drivers/third_party/ST/STM32L4xx_HAL_Driver/Src\stm32l4xx_hal_spi.c **** #endif /* USE_SPI_CRC */
 212:E:/LiteOS/LiteOS_Lab/drivers/third_party/ST/STM32L4xx_HAL_Driver/Src\stm32l4xx_hal_spi.c **** static void SPI_AbortRx_ISR(SPI_HandleTypeDef *hspi);
 213:E:/LiteOS/LiteOS_Lab/drivers/third_party/ST/STM32L4xx_HAL_Driver/Src\stm32l4xx_hal_spi.c **** static void SPI_AbortTx_ISR(SPI_HandleTypeDef *hspi);
 214:E:/LiteOS/LiteOS_Lab/drivers/third_party/ST/STM32L4xx_HAL_Driver/Src\stm32l4xx_hal_spi.c **** static void SPI_CloseRxTx_ISR(SPI_HandleTypeDef *hspi);
 215:E:/LiteOS/LiteOS_Lab/drivers/third_party/ST/STM32L4xx_HAL_Driver/Src\stm32l4xx_hal_spi.c **** static void SPI_CloseRx_ISR(SPI_HandleTypeDef *hspi);
 216:E:/LiteOS/LiteOS_Lab/drivers/third_party/ST/STM32L4xx_HAL_Driver/Src\stm32l4xx_hal_spi.c **** static void SPI_CloseTx_ISR(SPI_HandleTypeDef *hspi);
 217:E:/LiteOS/LiteOS_Lab/drivers/third_party/ST/STM32L4xx_HAL_Driver/Src\stm32l4xx_hal_spi.c **** static HAL_StatusTypeDef SPI_EndRxTransaction(SPI_HandleTypeDef *hspi, uint32_t Timeout, uint32_t T
 218:E:/LiteOS/LiteOS_Lab/drivers/third_party/ST/STM32L4xx_HAL_Driver/Src\stm32l4xx_hal_spi.c **** static HAL_StatusTypeDef SPI_EndRxTxTransaction(SPI_HandleTypeDef *hspi, uint32_t Timeout, uint32_t
 219:E:/LiteOS/LiteOS_Lab/drivers/third_party/ST/STM32L4xx_HAL_Driver/Src\stm32l4xx_hal_spi.c **** /**
 220:E:/LiteOS/LiteOS_Lab/drivers/third_party/ST/STM32L4xx_HAL_Driver/Src\stm32l4xx_hal_spi.c ****   * @}
 221:E:/LiteOS/LiteOS_Lab/drivers/third_party/ST/STM32L4xx_HAL_Driver/Src\stm32l4xx_hal_spi.c ****   */
 222:E:/LiteOS/LiteOS_Lab/drivers/third_party/ST/STM32L4xx_HAL_Driver/Src\stm32l4xx_hal_spi.c **** 
 223:E:/LiteOS/LiteOS_Lab/drivers/third_party/ST/STM32L4xx_HAL_Driver/Src\stm32l4xx_hal_spi.c **** /* Exported functions --------------------------------------------------------*/
 224:E:/LiteOS/LiteOS_Lab/drivers/third_party/ST/STM32L4xx_HAL_Driver/Src\stm32l4xx_hal_spi.c **** /** @defgroup SPI_Exported_Functions SPI Exported Functions
 225:E:/LiteOS/LiteOS_Lab/drivers/third_party/ST/STM32L4xx_HAL_Driver/Src\stm32l4xx_hal_spi.c ****   * @{
 226:E:/LiteOS/LiteOS_Lab/drivers/third_party/ST/STM32L4xx_HAL_Driver/Src\stm32l4xx_hal_spi.c ****   */
 227:E:/LiteOS/LiteOS_Lab/drivers/third_party/ST/STM32L4xx_HAL_Driver/Src\stm32l4xx_hal_spi.c **** 
 228:E:/LiteOS/LiteOS_Lab/drivers/third_party/ST/STM32L4xx_HAL_Driver/Src\stm32l4xx_hal_spi.c **** /** @defgroup SPI_Exported_Functions_Group1 Initialization and de-initialization functions
 229:E:/LiteOS/LiteOS_Lab/drivers/third_party/ST/STM32L4xx_HAL_Driver/Src\stm32l4xx_hal_spi.c ****  *  @brief    Initialization and Configuration functions
 230:E:/LiteOS/LiteOS_Lab/drivers/third_party/ST/STM32L4xx_HAL_Driver/Src\stm32l4xx_hal_spi.c ****  *
 231:E:/LiteOS/LiteOS_Lab/drivers/third_party/ST/STM32L4xx_HAL_Driver/Src\stm32l4xx_hal_spi.c **** @verbatim
 232:E:/LiteOS/LiteOS_Lab/drivers/third_party/ST/STM32L4xx_HAL_Driver/Src\stm32l4xx_hal_spi.c ****  ===============================================================================
 233:E:/LiteOS/LiteOS_Lab/drivers/third_party/ST/STM32L4xx_HAL_Driver/Src\stm32l4xx_hal_spi.c ****               ##### Initialization and de-initialization functions #####
 234:E:/LiteOS/LiteOS_Lab/drivers/third_party/ST/STM32L4xx_HAL_Driver/Src\stm32l4xx_hal_spi.c ****  ===============================================================================
 235:E:/LiteOS/LiteOS_Lab/drivers/third_party/ST/STM32L4xx_HAL_Driver/Src\stm32l4xx_hal_spi.c ****     [..]  This subsection provides a set of functions allowing to initialize and
 236:E:/LiteOS/LiteOS_Lab/drivers/third_party/ST/STM32L4xx_HAL_Driver/Src\stm32l4xx_hal_spi.c ****           de-initialize the SPIx peripheral:
 237:E:/LiteOS/LiteOS_Lab/drivers/third_party/ST/STM32L4xx_HAL_Driver/Src\stm32l4xx_hal_spi.c **** 
 238:E:/LiteOS/LiteOS_Lab/drivers/third_party/ST/STM32L4xx_HAL_Driver/Src\stm32l4xx_hal_spi.c ****       (+) User must implement HAL_SPI_MspInit() function in which he configures
 239:E:/LiteOS/LiteOS_Lab/drivers/third_party/ST/STM32L4xx_HAL_Driver/Src\stm32l4xx_hal_spi.c ****           all related peripherals resources (CLOCK, GPIO, DMA, IT and NVIC ).
 240:E:/LiteOS/LiteOS_Lab/drivers/third_party/ST/STM32L4xx_HAL_Driver/Src\stm32l4xx_hal_spi.c **** 
 241:E:/LiteOS/LiteOS_Lab/drivers/third_party/ST/STM32L4xx_HAL_Driver/Src\stm32l4xx_hal_spi.c ****       (+) Call the function HAL_SPI_Init() to configure the selected device with
 242:E:/LiteOS/LiteOS_Lab/drivers/third_party/ST/STM32L4xx_HAL_Driver/Src\stm32l4xx_hal_spi.c ****           the selected configuration:
 243:E:/LiteOS/LiteOS_Lab/drivers/third_party/ST/STM32L4xx_HAL_Driver/Src\stm32l4xx_hal_spi.c ****         (++) Mode
 244:E:/LiteOS/LiteOS_Lab/drivers/third_party/ST/STM32L4xx_HAL_Driver/Src\stm32l4xx_hal_spi.c ****         (++) Direction
 245:E:/LiteOS/LiteOS_Lab/drivers/third_party/ST/STM32L4xx_HAL_Driver/Src\stm32l4xx_hal_spi.c ****         (++) Data Size
 246:E:/LiteOS/LiteOS_Lab/drivers/third_party/ST/STM32L4xx_HAL_Driver/Src\stm32l4xx_hal_spi.c ****         (++) Clock Polarity and Phase
 247:E:/LiteOS/LiteOS_Lab/drivers/third_party/ST/STM32L4xx_HAL_Driver/Src\stm32l4xx_hal_spi.c ****         (++) NSS Management
 248:E:/LiteOS/LiteOS_Lab/drivers/third_party/ST/STM32L4xx_HAL_Driver/Src\stm32l4xx_hal_spi.c ****         (++) BaudRate Prescaler
 249:E:/LiteOS/LiteOS_Lab/drivers/third_party/ST/STM32L4xx_HAL_Driver/Src\stm32l4xx_hal_spi.c ****         (++) FirstBit
 250:E:/LiteOS/LiteOS_Lab/drivers/third_party/ST/STM32L4xx_HAL_Driver/Src\stm32l4xx_hal_spi.c ****         (++) TIMode
 251:E:/LiteOS/LiteOS_Lab/drivers/third_party/ST/STM32L4xx_HAL_Driver/Src\stm32l4xx_hal_spi.c ****         (++) CRC Calculation
 252:E:/LiteOS/LiteOS_Lab/drivers/third_party/ST/STM32L4xx_HAL_Driver/Src\stm32l4xx_hal_spi.c ****         (++) CRC Polynomial if CRC enabled
 253:E:/LiteOS/LiteOS_Lab/drivers/third_party/ST/STM32L4xx_HAL_Driver/Src\stm32l4xx_hal_spi.c ****         (++) CRC Length, used only with Data8 and Data16
 254:E:/LiteOS/LiteOS_Lab/drivers/third_party/ST/STM32L4xx_HAL_Driver/Src\stm32l4xx_hal_spi.c ****         (++) FIFO reception threshold
 255:E:/LiteOS/LiteOS_Lab/drivers/third_party/ST/STM32L4xx_HAL_Driver/Src\stm32l4xx_hal_spi.c **** 
 256:E:/LiteOS/LiteOS_Lab/drivers/third_party/ST/STM32L4xx_HAL_Driver/Src\stm32l4xx_hal_spi.c ****       (+) Call the function HAL_SPI_DeInit() to restore the default configuration
 257:E:/LiteOS/LiteOS_Lab/drivers/third_party/ST/STM32L4xx_HAL_Driver/Src\stm32l4xx_hal_spi.c ****           of the selected SPIx peripheral.
 258:E:/LiteOS/LiteOS_Lab/drivers/third_party/ST/STM32L4xx_HAL_Driver/Src\stm32l4xx_hal_spi.c **** 
 259:E:/LiteOS/LiteOS_Lab/drivers/third_party/ST/STM32L4xx_HAL_Driver/Src\stm32l4xx_hal_spi.c **** @endverbatim
ARM GAS  C:\Users\user\AppData\Local\Temp\ccvQ1M9B.s 			page 6


 260:E:/LiteOS/LiteOS_Lab/drivers/third_party/ST/STM32L4xx_HAL_Driver/Src\stm32l4xx_hal_spi.c ****   * @{
 261:E:/LiteOS/LiteOS_Lab/drivers/third_party/ST/STM32L4xx_HAL_Driver/Src\stm32l4xx_hal_spi.c ****   */
 262:E:/LiteOS/LiteOS_Lab/drivers/third_party/ST/STM32L4xx_HAL_Driver/Src\stm32l4xx_hal_spi.c **** 
 263:E:/LiteOS/LiteOS_Lab/drivers/third_party/ST/STM32L4xx_HAL_Driver/Src\stm32l4xx_hal_spi.c **** /**
 264:E:/LiteOS/LiteOS_Lab/drivers/third_party/ST/STM32L4xx_HAL_Driver/Src\stm32l4xx_hal_spi.c ****   * @brief  Initialize the SPI according to the specified parameters
 265:E:/LiteOS/LiteOS_Lab/drivers/third_party/ST/STM32L4xx_HAL_Driver/Src\stm32l4xx_hal_spi.c ****   *         in the SPI_InitTypeDef and initialize the associated handle.
 266:E:/LiteOS/LiteOS_Lab/drivers/third_party/ST/STM32L4xx_HAL_Driver/Src\stm32l4xx_hal_spi.c ****   * @param  hspi pointer to a SPI_HandleTypeDef structure that contains
 267:E:/LiteOS/LiteOS_Lab/drivers/third_party/ST/STM32L4xx_HAL_Driver/Src\stm32l4xx_hal_spi.c ****   *               the configuration information for SPI module.
 268:E:/LiteOS/LiteOS_Lab/drivers/third_party/ST/STM32L4xx_HAL_Driver/Src\stm32l4xx_hal_spi.c ****   * @retval HAL status
 269:E:/LiteOS/LiteOS_Lab/drivers/third_party/ST/STM32L4xx_HAL_Driver/Src\stm32l4xx_hal_spi.c ****   */
 270:E:/LiteOS/LiteOS_Lab/drivers/third_party/ST/STM32L4xx_HAL_Driver/Src\stm32l4xx_hal_spi.c **** HAL_StatusTypeDef HAL_SPI_Init(SPI_HandleTypeDef *hspi)
 271:E:/LiteOS/LiteOS_Lab/drivers/third_party/ST/STM32L4xx_HAL_Driver/Src\stm32l4xx_hal_spi.c **** {
  28              		.loc 1 271 0
  29              		.cfi_startproc
  30              		@ args = 0, pretend = 0, frame = 16
  31              		@ frame_needed = 1, uses_anonymous_args = 0
  32 0000 80B5     		push	{r7, lr}
  33              	.LCFI0:
  34              		.cfi_def_cfa_offset 8
  35              		.cfi_offset 7, -8
  36              		.cfi_offset 14, -4
  37 0002 84B0     		sub	sp, sp, #16
  38              	.LCFI1:
  39              		.cfi_def_cfa_offset 24
  40 0004 00AF     		add	r7, sp, #0
  41              	.LCFI2:
  42              		.cfi_def_cfa_register 7
  43 0006 7860     		str	r0, [r7, #4]
 272:E:/LiteOS/LiteOS_Lab/drivers/third_party/ST/STM32L4xx_HAL_Driver/Src\stm32l4xx_hal_spi.c ****   uint32_t frxth;
 273:E:/LiteOS/LiteOS_Lab/drivers/third_party/ST/STM32L4xx_HAL_Driver/Src\stm32l4xx_hal_spi.c **** 
 274:E:/LiteOS/LiteOS_Lab/drivers/third_party/ST/STM32L4xx_HAL_Driver/Src\stm32l4xx_hal_spi.c ****   /* Check the SPI handle allocation */
 275:E:/LiteOS/LiteOS_Lab/drivers/third_party/ST/STM32L4xx_HAL_Driver/Src\stm32l4xx_hal_spi.c ****   if (hspi == NULL)
  44              		.loc 1 275 0
  45 0008 7B68     		ldr	r3, [r7, #4]
  46 000a 002B     		cmp	r3, #0
  47 000c 01D1     		bne	.L2
 276:E:/LiteOS/LiteOS_Lab/drivers/third_party/ST/STM32L4xx_HAL_Driver/Src\stm32l4xx_hal_spi.c ****   {
 277:E:/LiteOS/LiteOS_Lab/drivers/third_party/ST/STM32L4xx_HAL_Driver/Src\stm32l4xx_hal_spi.c ****     return HAL_ERROR;
  48              		.loc 1 277 0
  49 000e 0123     		movs	r3, #1
  50 0010 7CE0     		b	.L3
  51              	.L2:
 278:E:/LiteOS/LiteOS_Lab/drivers/third_party/ST/STM32L4xx_HAL_Driver/Src\stm32l4xx_hal_spi.c ****   }
 279:E:/LiteOS/LiteOS_Lab/drivers/third_party/ST/STM32L4xx_HAL_Driver/Src\stm32l4xx_hal_spi.c **** 
 280:E:/LiteOS/LiteOS_Lab/drivers/third_party/ST/STM32L4xx_HAL_Driver/Src\stm32l4xx_hal_spi.c ****   /* Check the parameters */
 281:E:/LiteOS/LiteOS_Lab/drivers/third_party/ST/STM32L4xx_HAL_Driver/Src\stm32l4xx_hal_spi.c ****   assert_param(IS_SPI_ALL_INSTANCE(hspi->Instance));
 282:E:/LiteOS/LiteOS_Lab/drivers/third_party/ST/STM32L4xx_HAL_Driver/Src\stm32l4xx_hal_spi.c ****   assert_param(IS_SPI_MODE(hspi->Init.Mode));
 283:E:/LiteOS/LiteOS_Lab/drivers/third_party/ST/STM32L4xx_HAL_Driver/Src\stm32l4xx_hal_spi.c ****   assert_param(IS_SPI_DIRECTION(hspi->Init.Direction));
 284:E:/LiteOS/LiteOS_Lab/drivers/third_party/ST/STM32L4xx_HAL_Driver/Src\stm32l4xx_hal_spi.c ****   assert_param(IS_SPI_DATASIZE(hspi->Init.DataSize));
 285:E:/LiteOS/LiteOS_Lab/drivers/third_party/ST/STM32L4xx_HAL_Driver/Src\stm32l4xx_hal_spi.c ****   assert_param(IS_SPI_NSS(hspi->Init.NSS));
 286:E:/LiteOS/LiteOS_Lab/drivers/third_party/ST/STM32L4xx_HAL_Driver/Src\stm32l4xx_hal_spi.c ****   assert_param(IS_SPI_NSSP(hspi->Init.NSSPMode));
 287:E:/LiteOS/LiteOS_Lab/drivers/third_party/ST/STM32L4xx_HAL_Driver/Src\stm32l4xx_hal_spi.c ****   assert_param(IS_SPI_BAUDRATE_PRESCALER(hspi->Init.BaudRatePrescaler));
 288:E:/LiteOS/LiteOS_Lab/drivers/third_party/ST/STM32L4xx_HAL_Driver/Src\stm32l4xx_hal_spi.c ****   assert_param(IS_SPI_FIRST_BIT(hspi->Init.FirstBit));
 289:E:/LiteOS/LiteOS_Lab/drivers/third_party/ST/STM32L4xx_HAL_Driver/Src\stm32l4xx_hal_spi.c ****   assert_param(IS_SPI_TIMODE(hspi->Init.TIMode));
 290:E:/LiteOS/LiteOS_Lab/drivers/third_party/ST/STM32L4xx_HAL_Driver/Src\stm32l4xx_hal_spi.c ****   if (hspi->Init.TIMode == SPI_TIMODE_DISABLE)
 291:E:/LiteOS/LiteOS_Lab/drivers/third_party/ST/STM32L4xx_HAL_Driver/Src\stm32l4xx_hal_spi.c ****   {
 292:E:/LiteOS/LiteOS_Lab/drivers/third_party/ST/STM32L4xx_HAL_Driver/Src\stm32l4xx_hal_spi.c ****     assert_param(IS_SPI_CPOL(hspi->Init.CLKPolarity));
ARM GAS  C:\Users\user\AppData\Local\Temp\ccvQ1M9B.s 			page 7


 293:E:/LiteOS/LiteOS_Lab/drivers/third_party/ST/STM32L4xx_HAL_Driver/Src\stm32l4xx_hal_spi.c ****     assert_param(IS_SPI_CPHA(hspi->Init.CLKPhase));
 294:E:/LiteOS/LiteOS_Lab/drivers/third_party/ST/STM32L4xx_HAL_Driver/Src\stm32l4xx_hal_spi.c ****   }
 295:E:/LiteOS/LiteOS_Lab/drivers/third_party/ST/STM32L4xx_HAL_Driver/Src\stm32l4xx_hal_spi.c **** #if (USE_SPI_CRC != 0U)
 296:E:/LiteOS/LiteOS_Lab/drivers/third_party/ST/STM32L4xx_HAL_Driver/Src\stm32l4xx_hal_spi.c ****   assert_param(IS_SPI_CRC_CALCULATION(hspi->Init.CRCCalculation));
 297:E:/LiteOS/LiteOS_Lab/drivers/third_party/ST/STM32L4xx_HAL_Driver/Src\stm32l4xx_hal_spi.c ****   if (hspi->Init.CRCCalculation == SPI_CRCCALCULATION_ENABLE)
 298:E:/LiteOS/LiteOS_Lab/drivers/third_party/ST/STM32L4xx_HAL_Driver/Src\stm32l4xx_hal_spi.c ****   {
 299:E:/LiteOS/LiteOS_Lab/drivers/third_party/ST/STM32L4xx_HAL_Driver/Src\stm32l4xx_hal_spi.c ****     assert_param(IS_SPI_CRC_POLYNOMIAL(hspi->Init.CRCPolynomial));
 300:E:/LiteOS/LiteOS_Lab/drivers/third_party/ST/STM32L4xx_HAL_Driver/Src\stm32l4xx_hal_spi.c ****     assert_param(IS_SPI_CRC_LENGTH(hspi->Init.CRCLength));
 301:E:/LiteOS/LiteOS_Lab/drivers/third_party/ST/STM32L4xx_HAL_Driver/Src\stm32l4xx_hal_spi.c ****   }
 302:E:/LiteOS/LiteOS_Lab/drivers/third_party/ST/STM32L4xx_HAL_Driver/Src\stm32l4xx_hal_spi.c **** #else
 303:E:/LiteOS/LiteOS_Lab/drivers/third_party/ST/STM32L4xx_HAL_Driver/Src\stm32l4xx_hal_spi.c ****   hspi->Init.CRCCalculation = SPI_CRCCALCULATION_DISABLE;
  52              		.loc 1 303 0
  53 0012 7B68     		ldr	r3, [r7, #4]
  54 0014 0022     		movs	r2, #0
  55 0016 9A62     		str	r2, [r3, #40]
 304:E:/LiteOS/LiteOS_Lab/drivers/third_party/ST/STM32L4xx_HAL_Driver/Src\stm32l4xx_hal_spi.c **** #endif /* USE_SPI_CRC */
 305:E:/LiteOS/LiteOS_Lab/drivers/third_party/ST/STM32L4xx_HAL_Driver/Src\stm32l4xx_hal_spi.c **** 
 306:E:/LiteOS/LiteOS_Lab/drivers/third_party/ST/STM32L4xx_HAL_Driver/Src\stm32l4xx_hal_spi.c ****   if (hspi->State == HAL_SPI_STATE_RESET)
  56              		.loc 1 306 0
  57 0018 7B68     		ldr	r3, [r7, #4]
  58 001a 93F85D30 		ldrb	r3, [r3, #93]
  59 001e DBB2     		uxtb	r3, r3
  60 0020 002B     		cmp	r3, #0
  61 0022 06D1     		bne	.L4
 307:E:/LiteOS/LiteOS_Lab/drivers/third_party/ST/STM32L4xx_HAL_Driver/Src\stm32l4xx_hal_spi.c ****   {
 308:E:/LiteOS/LiteOS_Lab/drivers/third_party/ST/STM32L4xx_HAL_Driver/Src\stm32l4xx_hal_spi.c ****     /* Allocate lock resource and initialize it */
 309:E:/LiteOS/LiteOS_Lab/drivers/third_party/ST/STM32L4xx_HAL_Driver/Src\stm32l4xx_hal_spi.c ****     hspi->Lock = HAL_UNLOCKED;
  62              		.loc 1 309 0
  63 0024 7B68     		ldr	r3, [r7, #4]
  64 0026 0022     		movs	r2, #0
  65 0028 83F85C20 		strb	r2, [r3, #92]
 310:E:/LiteOS/LiteOS_Lab/drivers/third_party/ST/STM32L4xx_HAL_Driver/Src\stm32l4xx_hal_spi.c **** 
 311:E:/LiteOS/LiteOS_Lab/drivers/third_party/ST/STM32L4xx_HAL_Driver/Src\stm32l4xx_hal_spi.c ****     /* Init the low level hardware : GPIO, CLOCK, NVIC... */
 312:E:/LiteOS/LiteOS_Lab/drivers/third_party/ST/STM32L4xx_HAL_Driver/Src\stm32l4xx_hal_spi.c ****     HAL_SPI_MspInit(hspi);
  66              		.loc 1 312 0
  67 002c 7868     		ldr	r0, [r7, #4]
  68 002e FFF7FEFF 		bl	HAL_SPI_MspInit
  69              	.L4:
 313:E:/LiteOS/LiteOS_Lab/drivers/third_party/ST/STM32L4xx_HAL_Driver/Src\stm32l4xx_hal_spi.c ****   }
 314:E:/LiteOS/LiteOS_Lab/drivers/third_party/ST/STM32L4xx_HAL_Driver/Src\stm32l4xx_hal_spi.c **** 
 315:E:/LiteOS/LiteOS_Lab/drivers/third_party/ST/STM32L4xx_HAL_Driver/Src\stm32l4xx_hal_spi.c ****   hspi->State = HAL_SPI_STATE_BUSY;
  70              		.loc 1 315 0
  71 0032 7B68     		ldr	r3, [r7, #4]
  72 0034 0222     		movs	r2, #2
  73 0036 83F85D20 		strb	r2, [r3, #93]
 316:E:/LiteOS/LiteOS_Lab/drivers/third_party/ST/STM32L4xx_HAL_Driver/Src\stm32l4xx_hal_spi.c **** 
 317:E:/LiteOS/LiteOS_Lab/drivers/third_party/ST/STM32L4xx_HAL_Driver/Src\stm32l4xx_hal_spi.c ****   /* Disable the selected SPI peripheral */
 318:E:/LiteOS/LiteOS_Lab/drivers/third_party/ST/STM32L4xx_HAL_Driver/Src\stm32l4xx_hal_spi.c ****   __HAL_SPI_DISABLE(hspi);
  74              		.loc 1 318 0
  75 003a 7B68     		ldr	r3, [r7, #4]
  76 003c 1B68     		ldr	r3, [r3]
  77 003e 1A68     		ldr	r2, [r3]
  78 0040 7B68     		ldr	r3, [r7, #4]
  79 0042 1B68     		ldr	r3, [r3]
  80 0044 22F04002 		bic	r2, r2, #64
  81 0048 1A60     		str	r2, [r3]
 319:E:/LiteOS/LiteOS_Lab/drivers/third_party/ST/STM32L4xx_HAL_Driver/Src\stm32l4xx_hal_spi.c **** 
ARM GAS  C:\Users\user\AppData\Local\Temp\ccvQ1M9B.s 			page 8


 320:E:/LiteOS/LiteOS_Lab/drivers/third_party/ST/STM32L4xx_HAL_Driver/Src\stm32l4xx_hal_spi.c ****   /* Align by default the rs fifo threshold on the data size */
 321:E:/LiteOS/LiteOS_Lab/drivers/third_party/ST/STM32L4xx_HAL_Driver/Src\stm32l4xx_hal_spi.c ****   if (hspi->Init.DataSize > SPI_DATASIZE_8BIT)
  82              		.loc 1 321 0
  83 004a 7B68     		ldr	r3, [r7, #4]
  84 004c DB68     		ldr	r3, [r3, #12]
  85 004e B3F5E06F 		cmp	r3, #1792
  86 0052 02D9     		bls	.L5
 322:E:/LiteOS/LiteOS_Lab/drivers/third_party/ST/STM32L4xx_HAL_Driver/Src\stm32l4xx_hal_spi.c ****   {
 323:E:/LiteOS/LiteOS_Lab/drivers/third_party/ST/STM32L4xx_HAL_Driver/Src\stm32l4xx_hal_spi.c ****     frxth = SPI_RXFIFO_THRESHOLD_HF;
  87              		.loc 1 323 0
  88 0054 0023     		movs	r3, #0
  89 0056 FB60     		str	r3, [r7, #12]
  90 0058 02E0     		b	.L6
  91              	.L5:
 324:E:/LiteOS/LiteOS_Lab/drivers/third_party/ST/STM32L4xx_HAL_Driver/Src\stm32l4xx_hal_spi.c ****   }
 325:E:/LiteOS/LiteOS_Lab/drivers/third_party/ST/STM32L4xx_HAL_Driver/Src\stm32l4xx_hal_spi.c ****   else
 326:E:/LiteOS/LiteOS_Lab/drivers/third_party/ST/STM32L4xx_HAL_Driver/Src\stm32l4xx_hal_spi.c ****   {
 327:E:/LiteOS/LiteOS_Lab/drivers/third_party/ST/STM32L4xx_HAL_Driver/Src\stm32l4xx_hal_spi.c ****     frxth = SPI_RXFIFO_THRESHOLD_QF;
  92              		.loc 1 327 0
  93 005a 4FF48053 		mov	r3, #4096
  94 005e FB60     		str	r3, [r7, #12]
  95              	.L6:
 328:E:/LiteOS/LiteOS_Lab/drivers/third_party/ST/STM32L4xx_HAL_Driver/Src\stm32l4xx_hal_spi.c ****   }
 329:E:/LiteOS/LiteOS_Lab/drivers/third_party/ST/STM32L4xx_HAL_Driver/Src\stm32l4xx_hal_spi.c **** 
 330:E:/LiteOS/LiteOS_Lab/drivers/third_party/ST/STM32L4xx_HAL_Driver/Src\stm32l4xx_hal_spi.c ****   /* CRC calculation is valid only for 16Bit and 8 Bit */
 331:E:/LiteOS/LiteOS_Lab/drivers/third_party/ST/STM32L4xx_HAL_Driver/Src\stm32l4xx_hal_spi.c ****   if ((hspi->Init.DataSize != SPI_DATASIZE_16BIT) && (hspi->Init.DataSize != SPI_DATASIZE_8BIT))
  96              		.loc 1 331 0
  97 0060 7B68     		ldr	r3, [r7, #4]
  98 0062 DB68     		ldr	r3, [r3, #12]
  99 0064 B3F5706F 		cmp	r3, #3840
 100 0068 07D0     		beq	.L7
 101              		.loc 1 331 0 is_stmt 0 discriminator 1
 102 006a 7B68     		ldr	r3, [r7, #4]
 103 006c DB68     		ldr	r3, [r3, #12]
 104 006e B3F5E06F 		cmp	r3, #1792
 105 0072 02D0     		beq	.L7
 332:E:/LiteOS/LiteOS_Lab/drivers/third_party/ST/STM32L4xx_HAL_Driver/Src\stm32l4xx_hal_spi.c ****   {
 333:E:/LiteOS/LiteOS_Lab/drivers/third_party/ST/STM32L4xx_HAL_Driver/Src\stm32l4xx_hal_spi.c ****     /* CRC must be disabled */
 334:E:/LiteOS/LiteOS_Lab/drivers/third_party/ST/STM32L4xx_HAL_Driver/Src\stm32l4xx_hal_spi.c ****     hspi->Init.CRCCalculation = SPI_CRCCALCULATION_DISABLE;
 106              		.loc 1 334 0 is_stmt 1
 107 0074 7B68     		ldr	r3, [r7, #4]
 108 0076 0022     		movs	r2, #0
 109 0078 9A62     		str	r2, [r3, #40]
 110              	.L7:
 335:E:/LiteOS/LiteOS_Lab/drivers/third_party/ST/STM32L4xx_HAL_Driver/Src\stm32l4xx_hal_spi.c ****   }
 336:E:/LiteOS/LiteOS_Lab/drivers/third_party/ST/STM32L4xx_HAL_Driver/Src\stm32l4xx_hal_spi.c **** 
 337:E:/LiteOS/LiteOS_Lab/drivers/third_party/ST/STM32L4xx_HAL_Driver/Src\stm32l4xx_hal_spi.c ****   /* Align the CRC Length on the data size */
 338:E:/LiteOS/LiteOS_Lab/drivers/third_party/ST/STM32L4xx_HAL_Driver/Src\stm32l4xx_hal_spi.c ****   if (hspi->Init.CRCLength == SPI_CRC_LENGTH_DATASIZE)
 111              		.loc 1 338 0
 112 007a 7B68     		ldr	r3, [r7, #4]
 113 007c 1B6B     		ldr	r3, [r3, #48]
 114 007e 002B     		cmp	r3, #0
 115 0080 0BD1     		bne	.L8
 339:E:/LiteOS/LiteOS_Lab/drivers/third_party/ST/STM32L4xx_HAL_Driver/Src\stm32l4xx_hal_spi.c ****   {
 340:E:/LiteOS/LiteOS_Lab/drivers/third_party/ST/STM32L4xx_HAL_Driver/Src\stm32l4xx_hal_spi.c ****     /* CRC Length aligned on the data size : value set by default */
 341:E:/LiteOS/LiteOS_Lab/drivers/third_party/ST/STM32L4xx_HAL_Driver/Src\stm32l4xx_hal_spi.c ****     if (hspi->Init.DataSize > SPI_DATASIZE_8BIT)
 116              		.loc 1 341 0
ARM GAS  C:\Users\user\AppData\Local\Temp\ccvQ1M9B.s 			page 9


 117 0082 7B68     		ldr	r3, [r7, #4]
 118 0084 DB68     		ldr	r3, [r3, #12]
 119 0086 B3F5E06F 		cmp	r3, #1792
 120 008a 03D9     		bls	.L9
 342:E:/LiteOS/LiteOS_Lab/drivers/third_party/ST/STM32L4xx_HAL_Driver/Src\stm32l4xx_hal_spi.c ****     {
 343:E:/LiteOS/LiteOS_Lab/drivers/third_party/ST/STM32L4xx_HAL_Driver/Src\stm32l4xx_hal_spi.c ****       hspi->Init.CRCLength = SPI_CRC_LENGTH_16BIT;
 121              		.loc 1 343 0
 122 008c 7B68     		ldr	r3, [r7, #4]
 123 008e 0222     		movs	r2, #2
 124 0090 1A63     		str	r2, [r3, #48]
 125 0092 02E0     		b	.L8
 126              	.L9:
 344:E:/LiteOS/LiteOS_Lab/drivers/third_party/ST/STM32L4xx_HAL_Driver/Src\stm32l4xx_hal_spi.c ****     }
 345:E:/LiteOS/LiteOS_Lab/drivers/third_party/ST/STM32L4xx_HAL_Driver/Src\stm32l4xx_hal_spi.c ****     else
 346:E:/LiteOS/LiteOS_Lab/drivers/third_party/ST/STM32L4xx_HAL_Driver/Src\stm32l4xx_hal_spi.c ****     {
 347:E:/LiteOS/LiteOS_Lab/drivers/third_party/ST/STM32L4xx_HAL_Driver/Src\stm32l4xx_hal_spi.c ****       hspi->Init.CRCLength = SPI_CRC_LENGTH_8BIT;
 127              		.loc 1 347 0
 128 0094 7B68     		ldr	r3, [r7, #4]
 129 0096 0122     		movs	r2, #1
 130 0098 1A63     		str	r2, [r3, #48]
 131              	.L8:
 348:E:/LiteOS/LiteOS_Lab/drivers/third_party/ST/STM32L4xx_HAL_Driver/Src\stm32l4xx_hal_spi.c ****     }
 349:E:/LiteOS/LiteOS_Lab/drivers/third_party/ST/STM32L4xx_HAL_Driver/Src\stm32l4xx_hal_spi.c ****   }
 350:E:/LiteOS/LiteOS_Lab/drivers/third_party/ST/STM32L4xx_HAL_Driver/Src\stm32l4xx_hal_spi.c **** 
 351:E:/LiteOS/LiteOS_Lab/drivers/third_party/ST/STM32L4xx_HAL_Driver/Src\stm32l4xx_hal_spi.c ****   /*----------------------- SPIx CR1 & CR2 Configuration ---------------------*/
 352:E:/LiteOS/LiteOS_Lab/drivers/third_party/ST/STM32L4xx_HAL_Driver/Src\stm32l4xx_hal_spi.c ****   /* Configure : SPI Mode, Communication Mode, Clock polarity and phase, NSS management,
 353:E:/LiteOS/LiteOS_Lab/drivers/third_party/ST/STM32L4xx_HAL_Driver/Src\stm32l4xx_hal_spi.c ****   Communication speed, First bit and CRC calculation state */
 354:E:/LiteOS/LiteOS_Lab/drivers/third_party/ST/STM32L4xx_HAL_Driver/Src\stm32l4xx_hal_spi.c ****   WRITE_REG(hspi->Instance->CR1, (hspi->Init.Mode | hspi->Init.Direction |
 132              		.loc 1 354 0
 133 009a 7B68     		ldr	r3, [r7, #4]
 134 009c 5A68     		ldr	r2, [r3, #4]
 135 009e 7B68     		ldr	r3, [r7, #4]
 136 00a0 9B68     		ldr	r3, [r3, #8]
 137 00a2 1A43     		orrs	r2, r2, r3
 138 00a4 7B68     		ldr	r3, [r7, #4]
 139 00a6 1B69     		ldr	r3, [r3, #16]
 140 00a8 1A43     		orrs	r2, r2, r3
 141 00aa 7B68     		ldr	r3, [r7, #4]
 142 00ac 5B69     		ldr	r3, [r3, #20]
 143 00ae 1A43     		orrs	r2, r2, r3
 144 00b0 7B68     		ldr	r3, [r7, #4]
 145 00b2 9B69     		ldr	r3, [r3, #24]
 146 00b4 03F40073 		and	r3, r3, #512
 147 00b8 1A43     		orrs	r2, r2, r3
 148 00ba 7B68     		ldr	r3, [r7, #4]
 149 00bc DB69     		ldr	r3, [r3, #28]
 150 00be 1A43     		orrs	r2, r2, r3
 151 00c0 7B68     		ldr	r3, [r7, #4]
 152 00c2 1B6A     		ldr	r3, [r3, #32]
 153 00c4 42EA0301 		orr	r1, r2, r3
 154 00c8 7B68     		ldr	r3, [r7, #4]
 155 00ca 9A6A     		ldr	r2, [r3, #40]
 156 00cc 7B68     		ldr	r3, [r7, #4]
 157 00ce 1B68     		ldr	r3, [r3]
 158 00d0 0A43     		orrs	r2, r2, r1
 159 00d2 1A60     		str	r2, [r3]
 355:E:/LiteOS/LiteOS_Lab/drivers/third_party/ST/STM32L4xx_HAL_Driver/Src\stm32l4xx_hal_spi.c ****                                   hspi->Init.CLKPolarity | hspi->Init.CLKPhase | (hspi->Init.NSS & 
ARM GAS  C:\Users\user\AppData\Local\Temp\ccvQ1M9B.s 			page 10


 356:E:/LiteOS/LiteOS_Lab/drivers/third_party/ST/STM32L4xx_HAL_Driver/Src\stm32l4xx_hal_spi.c ****                                   hspi->Init.BaudRatePrescaler | hspi->Init.FirstBit  | hspi->Init.
 357:E:/LiteOS/LiteOS_Lab/drivers/third_party/ST/STM32L4xx_HAL_Driver/Src\stm32l4xx_hal_spi.c **** #if (USE_SPI_CRC != 0U)
 358:E:/LiteOS/LiteOS_Lab/drivers/third_party/ST/STM32L4xx_HAL_Driver/Src\stm32l4xx_hal_spi.c ****   /* Configure : CRC Length */
 359:E:/LiteOS/LiteOS_Lab/drivers/third_party/ST/STM32L4xx_HAL_Driver/Src\stm32l4xx_hal_spi.c ****   if (hspi->Init.CRCLength == SPI_CRC_LENGTH_16BIT)
 360:E:/LiteOS/LiteOS_Lab/drivers/third_party/ST/STM32L4xx_HAL_Driver/Src\stm32l4xx_hal_spi.c ****   {
 361:E:/LiteOS/LiteOS_Lab/drivers/third_party/ST/STM32L4xx_HAL_Driver/Src\stm32l4xx_hal_spi.c ****     hspi->Instance->CR1 |= SPI_CR1_CRCL;
 362:E:/LiteOS/LiteOS_Lab/drivers/third_party/ST/STM32L4xx_HAL_Driver/Src\stm32l4xx_hal_spi.c ****   }
 363:E:/LiteOS/LiteOS_Lab/drivers/third_party/ST/STM32L4xx_HAL_Driver/Src\stm32l4xx_hal_spi.c **** #endif /* USE_SPI_CRC */
 364:E:/LiteOS/LiteOS_Lab/drivers/third_party/ST/STM32L4xx_HAL_Driver/Src\stm32l4xx_hal_spi.c **** 
 365:E:/LiteOS/LiteOS_Lab/drivers/third_party/ST/STM32L4xx_HAL_Driver/Src\stm32l4xx_hal_spi.c ****   /* Configure : NSS management, TI Mode, NSS Pulse, Data size and Rx Fifo threshold */
 366:E:/LiteOS/LiteOS_Lab/drivers/third_party/ST/STM32L4xx_HAL_Driver/Src\stm32l4xx_hal_spi.c ****   WRITE_REG(hspi->Instance->CR2, (((hspi->Init.NSS >> 16U) & SPI_CR2_SSOE) | hspi->Init.TIMode |
 160              		.loc 1 366 0
 161 00d4 7B68     		ldr	r3, [r7, #4]
 162 00d6 9B69     		ldr	r3, [r3, #24]
 163 00d8 1B0C     		lsrs	r3, r3, #16
 164 00da 03F00402 		and	r2, r3, #4
 165 00de 7B68     		ldr	r3, [r7, #4]
 166 00e0 5B6A     		ldr	r3, [r3, #36]
 167 00e2 1A43     		orrs	r2, r2, r3
 168 00e4 7B68     		ldr	r3, [r7, #4]
 169 00e6 5B6B     		ldr	r3, [r3, #52]
 170 00e8 1A43     		orrs	r2, r2, r3
 171 00ea 7B68     		ldr	r3, [r7, #4]
 172 00ec DB68     		ldr	r3, [r3, #12]
 173 00ee 42EA0301 		orr	r1, r2, r3
 174 00f2 7B68     		ldr	r3, [r7, #4]
 175 00f4 1B68     		ldr	r3, [r3]
 176 00f6 FA68     		ldr	r2, [r7, #12]
 177 00f8 0A43     		orrs	r2, r2, r1
 178 00fa 5A60     		str	r2, [r3, #4]
 367:E:/LiteOS/LiteOS_Lab/drivers/third_party/ST/STM32L4xx_HAL_Driver/Src\stm32l4xx_hal_spi.c ****                                   hspi->Init.NSSPMode | hspi->Init.DataSize) | frxth);
 368:E:/LiteOS/LiteOS_Lab/drivers/third_party/ST/STM32L4xx_HAL_Driver/Src\stm32l4xx_hal_spi.c **** 
 369:E:/LiteOS/LiteOS_Lab/drivers/third_party/ST/STM32L4xx_HAL_Driver/Src\stm32l4xx_hal_spi.c **** #if (USE_SPI_CRC != 0U)
 370:E:/LiteOS/LiteOS_Lab/drivers/third_party/ST/STM32L4xx_HAL_Driver/Src\stm32l4xx_hal_spi.c ****   /*---------------------------- SPIx CRCPOLY Configuration ------------------*/
 371:E:/LiteOS/LiteOS_Lab/drivers/third_party/ST/STM32L4xx_HAL_Driver/Src\stm32l4xx_hal_spi.c ****   /* Configure : CRC Polynomial */
 372:E:/LiteOS/LiteOS_Lab/drivers/third_party/ST/STM32L4xx_HAL_Driver/Src\stm32l4xx_hal_spi.c ****   if (hspi->Init.CRCCalculation == SPI_CRCCALCULATION_ENABLE)
 373:E:/LiteOS/LiteOS_Lab/drivers/third_party/ST/STM32L4xx_HAL_Driver/Src\stm32l4xx_hal_spi.c ****   {
 374:E:/LiteOS/LiteOS_Lab/drivers/third_party/ST/STM32L4xx_HAL_Driver/Src\stm32l4xx_hal_spi.c ****     WRITE_REG(hspi->Instance->CRCPR, hspi->Init.CRCPolynomial);
 375:E:/LiteOS/LiteOS_Lab/drivers/third_party/ST/STM32L4xx_HAL_Driver/Src\stm32l4xx_hal_spi.c ****   }
 376:E:/LiteOS/LiteOS_Lab/drivers/third_party/ST/STM32L4xx_HAL_Driver/Src\stm32l4xx_hal_spi.c **** #endif /* USE_SPI_CRC */
 377:E:/LiteOS/LiteOS_Lab/drivers/third_party/ST/STM32L4xx_HAL_Driver/Src\stm32l4xx_hal_spi.c **** 
 378:E:/LiteOS/LiteOS_Lab/drivers/third_party/ST/STM32L4xx_HAL_Driver/Src\stm32l4xx_hal_spi.c **** #if defined(SPI_I2SCFGR_I2SMOD)
 379:E:/LiteOS/LiteOS_Lab/drivers/third_party/ST/STM32L4xx_HAL_Driver/Src\stm32l4xx_hal_spi.c ****   /* Activate the SPI mode (Make sure that I2SMOD bit in I2SCFGR register is reset) */
 380:E:/LiteOS/LiteOS_Lab/drivers/third_party/ST/STM32L4xx_HAL_Driver/Src\stm32l4xx_hal_spi.c ****   CLEAR_BIT(hspi->Instance->I2SCFGR, SPI_I2SCFGR_I2SMOD);
 381:E:/LiteOS/LiteOS_Lab/drivers/third_party/ST/STM32L4xx_HAL_Driver/Src\stm32l4xx_hal_spi.c **** #endif /* SPI_I2SCFGR_I2SMOD */
 382:E:/LiteOS/LiteOS_Lab/drivers/third_party/ST/STM32L4xx_HAL_Driver/Src\stm32l4xx_hal_spi.c **** 
 383:E:/LiteOS/LiteOS_Lab/drivers/third_party/ST/STM32L4xx_HAL_Driver/Src\stm32l4xx_hal_spi.c ****   hspi->ErrorCode = HAL_SPI_ERROR_NONE;
 179              		.loc 1 383 0
 180 00fc 7B68     		ldr	r3, [r7, #4]
 181 00fe 0022     		movs	r2, #0
 182 0100 1A66     		str	r2, [r3, #96]
 384:E:/LiteOS/LiteOS_Lab/drivers/third_party/ST/STM32L4xx_HAL_Driver/Src\stm32l4xx_hal_spi.c ****   hspi->State     = HAL_SPI_STATE_READY;
 183              		.loc 1 384 0
 184 0102 7B68     		ldr	r3, [r7, #4]
 185 0104 0122     		movs	r2, #1
 186 0106 83F85D20 		strb	r2, [r3, #93]
 385:E:/LiteOS/LiteOS_Lab/drivers/third_party/ST/STM32L4xx_HAL_Driver/Src\stm32l4xx_hal_spi.c **** 
ARM GAS  C:\Users\user\AppData\Local\Temp\ccvQ1M9B.s 			page 11


 386:E:/LiteOS/LiteOS_Lab/drivers/third_party/ST/STM32L4xx_HAL_Driver/Src\stm32l4xx_hal_spi.c ****   return HAL_OK;
 187              		.loc 1 386 0
 188 010a 0023     		movs	r3, #0
 189              	.L3:
 387:E:/LiteOS/LiteOS_Lab/drivers/third_party/ST/STM32L4xx_HAL_Driver/Src\stm32l4xx_hal_spi.c **** }
 190              		.loc 1 387 0
 191 010c 1846     		mov	r0, r3
 192 010e 1037     		adds	r7, r7, #16
 193              	.LCFI3:
 194              		.cfi_def_cfa_offset 8
 195 0110 BD46     		mov	sp, r7
 196              	.LCFI4:
 197              		.cfi_def_cfa_register 13
 198              		@ sp needed
 199 0112 80BD     		pop	{r7, pc}
 200              		.cfi_endproc
 201              	.LFE133:
 203              		.section	.text.HAL_SPI_DeInit,"ax",%progbits
 204              		.align	1
 205              		.global	HAL_SPI_DeInit
 206              		.syntax unified
 207              		.thumb
 208              		.thumb_func
 209              		.fpu fpv4-sp-d16
 211              	HAL_SPI_DeInit:
 212              	.LFB134:
 388:E:/LiteOS/LiteOS_Lab/drivers/third_party/ST/STM32L4xx_HAL_Driver/Src\stm32l4xx_hal_spi.c **** 
 389:E:/LiteOS/LiteOS_Lab/drivers/third_party/ST/STM32L4xx_HAL_Driver/Src\stm32l4xx_hal_spi.c **** /**
 390:E:/LiteOS/LiteOS_Lab/drivers/third_party/ST/STM32L4xx_HAL_Driver/Src\stm32l4xx_hal_spi.c ****   * @brief  De-Initialize the SPI peripheral.
 391:E:/LiteOS/LiteOS_Lab/drivers/third_party/ST/STM32L4xx_HAL_Driver/Src\stm32l4xx_hal_spi.c ****   * @param  hspi pointer to a SPI_HandleTypeDef structure that contains
 392:E:/LiteOS/LiteOS_Lab/drivers/third_party/ST/STM32L4xx_HAL_Driver/Src\stm32l4xx_hal_spi.c ****   *               the configuration information for SPI module.
 393:E:/LiteOS/LiteOS_Lab/drivers/third_party/ST/STM32L4xx_HAL_Driver/Src\stm32l4xx_hal_spi.c ****   * @retval HAL status
 394:E:/LiteOS/LiteOS_Lab/drivers/third_party/ST/STM32L4xx_HAL_Driver/Src\stm32l4xx_hal_spi.c ****   */
 395:E:/LiteOS/LiteOS_Lab/drivers/third_party/ST/STM32L4xx_HAL_Driver/Src\stm32l4xx_hal_spi.c **** HAL_StatusTypeDef HAL_SPI_DeInit(SPI_HandleTypeDef *hspi)
 396:E:/LiteOS/LiteOS_Lab/drivers/third_party/ST/STM32L4xx_HAL_Driver/Src\stm32l4xx_hal_spi.c **** {
 213              		.loc 1 396 0
 214              		.cfi_startproc
 215              		@ args = 0, pretend = 0, frame = 8
 216              		@ frame_needed = 1, uses_anonymous_args = 0
 217 0000 80B5     		push	{r7, lr}
 218              	.LCFI5:
 219              		.cfi_def_cfa_offset 8
 220              		.cfi_offset 7, -8
 221              		.cfi_offset 14, -4
 222 0002 82B0     		sub	sp, sp, #8
 223              	.LCFI6:
 224              		.cfi_def_cfa_offset 16
 225 0004 00AF     		add	r7, sp, #0
 226              	.LCFI7:
 227              		.cfi_def_cfa_register 7
 228 0006 7860     		str	r0, [r7, #4]
 397:E:/LiteOS/LiteOS_Lab/drivers/third_party/ST/STM32L4xx_HAL_Driver/Src\stm32l4xx_hal_spi.c ****   /* Check the SPI handle allocation */
 398:E:/LiteOS/LiteOS_Lab/drivers/third_party/ST/STM32L4xx_HAL_Driver/Src\stm32l4xx_hal_spi.c ****   if (hspi == NULL)
 229              		.loc 1 398 0
 230 0008 7B68     		ldr	r3, [r7, #4]
 231 000a 002B     		cmp	r3, #0
 232 000c 01D1     		bne	.L11
ARM GAS  C:\Users\user\AppData\Local\Temp\ccvQ1M9B.s 			page 12


 399:E:/LiteOS/LiteOS_Lab/drivers/third_party/ST/STM32L4xx_HAL_Driver/Src\stm32l4xx_hal_spi.c ****   {
 400:E:/LiteOS/LiteOS_Lab/drivers/third_party/ST/STM32L4xx_HAL_Driver/Src\stm32l4xx_hal_spi.c ****     return HAL_ERROR;
 233              		.loc 1 400 0
 234 000e 0123     		movs	r3, #1
 235 0010 1AE0     		b	.L12
 236              	.L11:
 401:E:/LiteOS/LiteOS_Lab/drivers/third_party/ST/STM32L4xx_HAL_Driver/Src\stm32l4xx_hal_spi.c ****   }
 402:E:/LiteOS/LiteOS_Lab/drivers/third_party/ST/STM32L4xx_HAL_Driver/Src\stm32l4xx_hal_spi.c **** 
 403:E:/LiteOS/LiteOS_Lab/drivers/third_party/ST/STM32L4xx_HAL_Driver/Src\stm32l4xx_hal_spi.c ****   /* Check SPI Instance parameter */
 404:E:/LiteOS/LiteOS_Lab/drivers/third_party/ST/STM32L4xx_HAL_Driver/Src\stm32l4xx_hal_spi.c ****   assert_param(IS_SPI_ALL_INSTANCE(hspi->Instance));
 405:E:/LiteOS/LiteOS_Lab/drivers/third_party/ST/STM32L4xx_HAL_Driver/Src\stm32l4xx_hal_spi.c **** 
 406:E:/LiteOS/LiteOS_Lab/drivers/third_party/ST/STM32L4xx_HAL_Driver/Src\stm32l4xx_hal_spi.c ****   hspi->State = HAL_SPI_STATE_BUSY;
 237              		.loc 1 406 0
 238 0012 7B68     		ldr	r3, [r7, #4]
 239 0014 0222     		movs	r2, #2
 240 0016 83F85D20 		strb	r2, [r3, #93]
 407:E:/LiteOS/LiteOS_Lab/drivers/third_party/ST/STM32L4xx_HAL_Driver/Src\stm32l4xx_hal_spi.c **** 
 408:E:/LiteOS/LiteOS_Lab/drivers/third_party/ST/STM32L4xx_HAL_Driver/Src\stm32l4xx_hal_spi.c ****   /* Disable the SPI Peripheral Clock */
 409:E:/LiteOS/LiteOS_Lab/drivers/third_party/ST/STM32L4xx_HAL_Driver/Src\stm32l4xx_hal_spi.c ****   __HAL_SPI_DISABLE(hspi);
 241              		.loc 1 409 0
 242 001a 7B68     		ldr	r3, [r7, #4]
 243 001c 1B68     		ldr	r3, [r3]
 244 001e 1A68     		ldr	r2, [r3]
 245 0020 7B68     		ldr	r3, [r7, #4]
 246 0022 1B68     		ldr	r3, [r3]
 247 0024 22F04002 		bic	r2, r2, #64
 248 0028 1A60     		str	r2, [r3]
 410:E:/LiteOS/LiteOS_Lab/drivers/third_party/ST/STM32L4xx_HAL_Driver/Src\stm32l4xx_hal_spi.c **** 
 411:E:/LiteOS/LiteOS_Lab/drivers/third_party/ST/STM32L4xx_HAL_Driver/Src\stm32l4xx_hal_spi.c ****   /* DeInit the low level hardware: GPIO, CLOCK, NVIC... */
 412:E:/LiteOS/LiteOS_Lab/drivers/third_party/ST/STM32L4xx_HAL_Driver/Src\stm32l4xx_hal_spi.c ****   HAL_SPI_MspDeInit(hspi);
 249              		.loc 1 412 0
 250 002a 7868     		ldr	r0, [r7, #4]
 251 002c FFF7FEFF 		bl	HAL_SPI_MspDeInit
 413:E:/LiteOS/LiteOS_Lab/drivers/third_party/ST/STM32L4xx_HAL_Driver/Src\stm32l4xx_hal_spi.c **** 
 414:E:/LiteOS/LiteOS_Lab/drivers/third_party/ST/STM32L4xx_HAL_Driver/Src\stm32l4xx_hal_spi.c ****   hspi->ErrorCode = HAL_SPI_ERROR_NONE;
 252              		.loc 1 414 0
 253 0030 7B68     		ldr	r3, [r7, #4]
 254 0032 0022     		movs	r2, #0
 255 0034 1A66     		str	r2, [r3, #96]
 415:E:/LiteOS/LiteOS_Lab/drivers/third_party/ST/STM32L4xx_HAL_Driver/Src\stm32l4xx_hal_spi.c ****   hspi->State = HAL_SPI_STATE_RESET;
 256              		.loc 1 415 0
 257 0036 7B68     		ldr	r3, [r7, #4]
 258 0038 0022     		movs	r2, #0
 259 003a 83F85D20 		strb	r2, [r3, #93]
 416:E:/LiteOS/LiteOS_Lab/drivers/third_party/ST/STM32L4xx_HAL_Driver/Src\stm32l4xx_hal_spi.c **** 
 417:E:/LiteOS/LiteOS_Lab/drivers/third_party/ST/STM32L4xx_HAL_Driver/Src\stm32l4xx_hal_spi.c ****   /* Release Lock */
 418:E:/LiteOS/LiteOS_Lab/drivers/third_party/ST/STM32L4xx_HAL_Driver/Src\stm32l4xx_hal_spi.c ****   __HAL_UNLOCK(hspi);
 260              		.loc 1 418 0
 261 003e 7B68     		ldr	r3, [r7, #4]
 262 0040 0022     		movs	r2, #0
 263 0042 83F85C20 		strb	r2, [r3, #92]
 419:E:/LiteOS/LiteOS_Lab/drivers/third_party/ST/STM32L4xx_HAL_Driver/Src\stm32l4xx_hal_spi.c **** 
 420:E:/LiteOS/LiteOS_Lab/drivers/third_party/ST/STM32L4xx_HAL_Driver/Src\stm32l4xx_hal_spi.c ****   return HAL_OK;
 264              		.loc 1 420 0
 265 0046 0023     		movs	r3, #0
 266              	.L12:
 421:E:/LiteOS/LiteOS_Lab/drivers/third_party/ST/STM32L4xx_HAL_Driver/Src\stm32l4xx_hal_spi.c **** }
ARM GAS  C:\Users\user\AppData\Local\Temp\ccvQ1M9B.s 			page 13


 267              		.loc 1 421 0
 268 0048 1846     		mov	r0, r3
 269 004a 0837     		adds	r7, r7, #8
 270              	.LCFI8:
 271              		.cfi_def_cfa_offset 8
 272 004c BD46     		mov	sp, r7
 273              	.LCFI9:
 274              		.cfi_def_cfa_register 13
 275              		@ sp needed
 276 004e 80BD     		pop	{r7, pc}
 277              		.cfi_endproc
 278              	.LFE134:
 280              		.section	.text.HAL_SPI_MspInit,"ax",%progbits
 281              		.align	1
 282              		.weak	HAL_SPI_MspInit
 283              		.syntax unified
 284              		.thumb
 285              		.thumb_func
 286              		.fpu fpv4-sp-d16
 288              	HAL_SPI_MspInit:
 289              	.LFB135:
 422:E:/LiteOS/LiteOS_Lab/drivers/third_party/ST/STM32L4xx_HAL_Driver/Src\stm32l4xx_hal_spi.c **** 
 423:E:/LiteOS/LiteOS_Lab/drivers/third_party/ST/STM32L4xx_HAL_Driver/Src\stm32l4xx_hal_spi.c **** /**
 424:E:/LiteOS/LiteOS_Lab/drivers/third_party/ST/STM32L4xx_HAL_Driver/Src\stm32l4xx_hal_spi.c ****   * @brief  Initialize the SPI MSP.
 425:E:/LiteOS/LiteOS_Lab/drivers/third_party/ST/STM32L4xx_HAL_Driver/Src\stm32l4xx_hal_spi.c ****   * @param  hspi pointer to a SPI_HandleTypeDef structure that contains
 426:E:/LiteOS/LiteOS_Lab/drivers/third_party/ST/STM32L4xx_HAL_Driver/Src\stm32l4xx_hal_spi.c ****   *               the configuration information for SPI module.
 427:E:/LiteOS/LiteOS_Lab/drivers/third_party/ST/STM32L4xx_HAL_Driver/Src\stm32l4xx_hal_spi.c ****   * @retval None
 428:E:/LiteOS/LiteOS_Lab/drivers/third_party/ST/STM32L4xx_HAL_Driver/Src\stm32l4xx_hal_spi.c ****   */
 429:E:/LiteOS/LiteOS_Lab/drivers/third_party/ST/STM32L4xx_HAL_Driver/Src\stm32l4xx_hal_spi.c **** __weak void HAL_SPI_MspInit(SPI_HandleTypeDef *hspi)
 430:E:/LiteOS/LiteOS_Lab/drivers/third_party/ST/STM32L4xx_HAL_Driver/Src\stm32l4xx_hal_spi.c **** {
 290              		.loc 1 430 0
 291              		.cfi_startproc
 292              		@ args = 0, pretend = 0, frame = 8
 293              		@ frame_needed = 1, uses_anonymous_args = 0
 294              		@ link register save eliminated.
 295 0000 80B4     		push	{r7}
 296              	.LCFI10:
 297              		.cfi_def_cfa_offset 4
 298              		.cfi_offset 7, -4
 299 0002 83B0     		sub	sp, sp, #12
 300              	.LCFI11:
 301              		.cfi_def_cfa_offset 16
 302 0004 00AF     		add	r7, sp, #0
 303              	.LCFI12:
 304              		.cfi_def_cfa_register 7
 305 0006 7860     		str	r0, [r7, #4]
 431:E:/LiteOS/LiteOS_Lab/drivers/third_party/ST/STM32L4xx_HAL_Driver/Src\stm32l4xx_hal_spi.c ****   /* Prevent unused argument(s) compilation warning */
 432:E:/LiteOS/LiteOS_Lab/drivers/third_party/ST/STM32L4xx_HAL_Driver/Src\stm32l4xx_hal_spi.c ****   UNUSED(hspi);
 433:E:/LiteOS/LiteOS_Lab/drivers/third_party/ST/STM32L4xx_HAL_Driver/Src\stm32l4xx_hal_spi.c **** 
 434:E:/LiteOS/LiteOS_Lab/drivers/third_party/ST/STM32L4xx_HAL_Driver/Src\stm32l4xx_hal_spi.c ****   /* NOTE : This function should not be modified, when the callback is needed,
 435:E:/LiteOS/LiteOS_Lab/drivers/third_party/ST/STM32L4xx_HAL_Driver/Src\stm32l4xx_hal_spi.c ****             the HAL_SPI_MspInit should be implemented in the user file
 436:E:/LiteOS/LiteOS_Lab/drivers/third_party/ST/STM32L4xx_HAL_Driver/Src\stm32l4xx_hal_spi.c ****    */
 437:E:/LiteOS/LiteOS_Lab/drivers/third_party/ST/STM32L4xx_HAL_Driver/Src\stm32l4xx_hal_spi.c **** }
 306              		.loc 1 437 0
 307 0008 00BF     		nop
 308 000a 0C37     		adds	r7, r7, #12
 309              	.LCFI13:
ARM GAS  C:\Users\user\AppData\Local\Temp\ccvQ1M9B.s 			page 14


 310              		.cfi_def_cfa_offset 4
 311 000c BD46     		mov	sp, r7
 312              	.LCFI14:
 313              		.cfi_def_cfa_register 13
 314              		@ sp needed
 315 000e 5DF8047B 		ldr	r7, [sp], #4
 316              	.LCFI15:
 317              		.cfi_restore 7
 318              		.cfi_def_cfa_offset 0
 319 0012 7047     		bx	lr
 320              		.cfi_endproc
 321              	.LFE135:
 323              		.section	.text.HAL_SPI_MspDeInit,"ax",%progbits
 324              		.align	1
 325              		.weak	HAL_SPI_MspDeInit
 326              		.syntax unified
 327              		.thumb
 328              		.thumb_func
 329              		.fpu fpv4-sp-d16
 331              	HAL_SPI_MspDeInit:
 332              	.LFB136:
 438:E:/LiteOS/LiteOS_Lab/drivers/third_party/ST/STM32L4xx_HAL_Driver/Src\stm32l4xx_hal_spi.c **** 
 439:E:/LiteOS/LiteOS_Lab/drivers/third_party/ST/STM32L4xx_HAL_Driver/Src\stm32l4xx_hal_spi.c **** /**
 440:E:/LiteOS/LiteOS_Lab/drivers/third_party/ST/STM32L4xx_HAL_Driver/Src\stm32l4xx_hal_spi.c ****   * @brief  De-Initialize the SPI MSP.
 441:E:/LiteOS/LiteOS_Lab/drivers/third_party/ST/STM32L4xx_HAL_Driver/Src\stm32l4xx_hal_spi.c ****   * @param  hspi pointer to a SPI_HandleTypeDef structure that contains
 442:E:/LiteOS/LiteOS_Lab/drivers/third_party/ST/STM32L4xx_HAL_Driver/Src\stm32l4xx_hal_spi.c ****   *               the configuration information for SPI module.
 443:E:/LiteOS/LiteOS_Lab/drivers/third_party/ST/STM32L4xx_HAL_Driver/Src\stm32l4xx_hal_spi.c ****   * @retval None
 444:E:/LiteOS/LiteOS_Lab/drivers/third_party/ST/STM32L4xx_HAL_Driver/Src\stm32l4xx_hal_spi.c ****   */
 445:E:/LiteOS/LiteOS_Lab/drivers/third_party/ST/STM32L4xx_HAL_Driver/Src\stm32l4xx_hal_spi.c **** __weak void HAL_SPI_MspDeInit(SPI_HandleTypeDef *hspi)
 446:E:/LiteOS/LiteOS_Lab/drivers/third_party/ST/STM32L4xx_HAL_Driver/Src\stm32l4xx_hal_spi.c **** {
 333              		.loc 1 446 0
 334              		.cfi_startproc
 335              		@ args = 0, pretend = 0, frame = 8
 336              		@ frame_needed = 1, uses_anonymous_args = 0
 337              		@ link register save eliminated.
 338 0000 80B4     		push	{r7}
 339              	.LCFI16:
 340              		.cfi_def_cfa_offset 4
 341              		.cfi_offset 7, -4
 342 0002 83B0     		sub	sp, sp, #12
 343              	.LCFI17:
 344              		.cfi_def_cfa_offset 16
 345 0004 00AF     		add	r7, sp, #0
 346              	.LCFI18:
 347              		.cfi_def_cfa_register 7
 348 0006 7860     		str	r0, [r7, #4]
 447:E:/LiteOS/LiteOS_Lab/drivers/third_party/ST/STM32L4xx_HAL_Driver/Src\stm32l4xx_hal_spi.c ****   /* Prevent unused argument(s) compilation warning */
 448:E:/LiteOS/LiteOS_Lab/drivers/third_party/ST/STM32L4xx_HAL_Driver/Src\stm32l4xx_hal_spi.c ****   UNUSED(hspi);
 449:E:/LiteOS/LiteOS_Lab/drivers/third_party/ST/STM32L4xx_HAL_Driver/Src\stm32l4xx_hal_spi.c **** 
 450:E:/LiteOS/LiteOS_Lab/drivers/third_party/ST/STM32L4xx_HAL_Driver/Src\stm32l4xx_hal_spi.c ****   /* NOTE : This function should not be modified, when the callback is needed,
 451:E:/LiteOS/LiteOS_Lab/drivers/third_party/ST/STM32L4xx_HAL_Driver/Src\stm32l4xx_hal_spi.c ****             the HAL_SPI_MspDeInit should be implemented in the user file
 452:E:/LiteOS/LiteOS_Lab/drivers/third_party/ST/STM32L4xx_HAL_Driver/Src\stm32l4xx_hal_spi.c ****    */
 453:E:/LiteOS/LiteOS_Lab/drivers/third_party/ST/STM32L4xx_HAL_Driver/Src\stm32l4xx_hal_spi.c **** }
 349              		.loc 1 453 0
 350 0008 00BF     		nop
 351 000a 0C37     		adds	r7, r7, #12
 352              	.LCFI19:
ARM GAS  C:\Users\user\AppData\Local\Temp\ccvQ1M9B.s 			page 15


 353              		.cfi_def_cfa_offset 4
 354 000c BD46     		mov	sp, r7
 355              	.LCFI20:
 356              		.cfi_def_cfa_register 13
 357              		@ sp needed
 358 000e 5DF8047B 		ldr	r7, [sp], #4
 359              	.LCFI21:
 360              		.cfi_restore 7
 361              		.cfi_def_cfa_offset 0
 362 0012 7047     		bx	lr
 363              		.cfi_endproc
 364              	.LFE136:
 366              		.section	.text.HAL_SPI_Transmit,"ax",%progbits
 367              		.align	1
 368              		.global	HAL_SPI_Transmit
 369              		.syntax unified
 370              		.thumb
 371              		.thumb_func
 372              		.fpu fpv4-sp-d16
 374              	HAL_SPI_Transmit:
 375              	.LFB137:
 454:E:/LiteOS/LiteOS_Lab/drivers/third_party/ST/STM32L4xx_HAL_Driver/Src\stm32l4xx_hal_spi.c **** 
 455:E:/LiteOS/LiteOS_Lab/drivers/third_party/ST/STM32L4xx_HAL_Driver/Src\stm32l4xx_hal_spi.c **** /**
 456:E:/LiteOS/LiteOS_Lab/drivers/third_party/ST/STM32L4xx_HAL_Driver/Src\stm32l4xx_hal_spi.c ****   * @}
 457:E:/LiteOS/LiteOS_Lab/drivers/third_party/ST/STM32L4xx_HAL_Driver/Src\stm32l4xx_hal_spi.c ****   */
 458:E:/LiteOS/LiteOS_Lab/drivers/third_party/ST/STM32L4xx_HAL_Driver/Src\stm32l4xx_hal_spi.c **** 
 459:E:/LiteOS/LiteOS_Lab/drivers/third_party/ST/STM32L4xx_HAL_Driver/Src\stm32l4xx_hal_spi.c **** /** @defgroup SPI_Exported_Functions_Group2 IO operation functions
 460:E:/LiteOS/LiteOS_Lab/drivers/third_party/ST/STM32L4xx_HAL_Driver/Src\stm32l4xx_hal_spi.c ****  *  @brief   Data transfers functions
 461:E:/LiteOS/LiteOS_Lab/drivers/third_party/ST/STM32L4xx_HAL_Driver/Src\stm32l4xx_hal_spi.c ****  *
 462:E:/LiteOS/LiteOS_Lab/drivers/third_party/ST/STM32L4xx_HAL_Driver/Src\stm32l4xx_hal_spi.c **** @verbatim
 463:E:/LiteOS/LiteOS_Lab/drivers/third_party/ST/STM32L4xx_HAL_Driver/Src\stm32l4xx_hal_spi.c ****   ==============================================================================
 464:E:/LiteOS/LiteOS_Lab/drivers/third_party/ST/STM32L4xx_HAL_Driver/Src\stm32l4xx_hal_spi.c ****                       ##### IO operation functions #####
 465:E:/LiteOS/LiteOS_Lab/drivers/third_party/ST/STM32L4xx_HAL_Driver/Src\stm32l4xx_hal_spi.c ****  ===============================================================================
 466:E:/LiteOS/LiteOS_Lab/drivers/third_party/ST/STM32L4xx_HAL_Driver/Src\stm32l4xx_hal_spi.c ****  [..]
 467:E:/LiteOS/LiteOS_Lab/drivers/third_party/ST/STM32L4xx_HAL_Driver/Src\stm32l4xx_hal_spi.c ****     This subsection provides a set of functions allowing to manage the SPI
 468:E:/LiteOS/LiteOS_Lab/drivers/third_party/ST/STM32L4xx_HAL_Driver/Src\stm32l4xx_hal_spi.c ****     data transfers.
 469:E:/LiteOS/LiteOS_Lab/drivers/third_party/ST/STM32L4xx_HAL_Driver/Src\stm32l4xx_hal_spi.c **** 
 470:E:/LiteOS/LiteOS_Lab/drivers/third_party/ST/STM32L4xx_HAL_Driver/Src\stm32l4xx_hal_spi.c ****     [..] The SPI supports master and slave mode :
 471:E:/LiteOS/LiteOS_Lab/drivers/third_party/ST/STM32L4xx_HAL_Driver/Src\stm32l4xx_hal_spi.c **** 
 472:E:/LiteOS/LiteOS_Lab/drivers/third_party/ST/STM32L4xx_HAL_Driver/Src\stm32l4xx_hal_spi.c ****     (#) There are two modes of transfer:
 473:E:/LiteOS/LiteOS_Lab/drivers/third_party/ST/STM32L4xx_HAL_Driver/Src\stm32l4xx_hal_spi.c ****        (++) Blocking mode: The communication is performed in polling mode.
 474:E:/LiteOS/LiteOS_Lab/drivers/third_party/ST/STM32L4xx_HAL_Driver/Src\stm32l4xx_hal_spi.c ****             The HAL status of all data processing is returned by the same function
 475:E:/LiteOS/LiteOS_Lab/drivers/third_party/ST/STM32L4xx_HAL_Driver/Src\stm32l4xx_hal_spi.c ****             after finishing transfer.
 476:E:/LiteOS/LiteOS_Lab/drivers/third_party/ST/STM32L4xx_HAL_Driver/Src\stm32l4xx_hal_spi.c ****        (++) No-Blocking mode: The communication is performed using Interrupts
 477:E:/LiteOS/LiteOS_Lab/drivers/third_party/ST/STM32L4xx_HAL_Driver/Src\stm32l4xx_hal_spi.c ****             or DMA, These APIs return the HAL status.
 478:E:/LiteOS/LiteOS_Lab/drivers/third_party/ST/STM32L4xx_HAL_Driver/Src\stm32l4xx_hal_spi.c ****             The end of the data processing will be indicated through the
 479:E:/LiteOS/LiteOS_Lab/drivers/third_party/ST/STM32L4xx_HAL_Driver/Src\stm32l4xx_hal_spi.c ****             dedicated SPI IRQ when using Interrupt mode or the DMA IRQ when
 480:E:/LiteOS/LiteOS_Lab/drivers/third_party/ST/STM32L4xx_HAL_Driver/Src\stm32l4xx_hal_spi.c ****             using DMA mode.
 481:E:/LiteOS/LiteOS_Lab/drivers/third_party/ST/STM32L4xx_HAL_Driver/Src\stm32l4xx_hal_spi.c ****             The HAL_SPI_TxCpltCallback(), HAL_SPI_RxCpltCallback() and HAL_SPI_TxRxCpltCallback() u
 482:E:/LiteOS/LiteOS_Lab/drivers/third_party/ST/STM32L4xx_HAL_Driver/Src\stm32l4xx_hal_spi.c ****             will be executed respectively at the end of the transmit or Receive process
 483:E:/LiteOS/LiteOS_Lab/drivers/third_party/ST/STM32L4xx_HAL_Driver/Src\stm32l4xx_hal_spi.c ****             The HAL_SPI_ErrorCallback()user callback will be executed when a communication error is
 484:E:/LiteOS/LiteOS_Lab/drivers/third_party/ST/STM32L4xx_HAL_Driver/Src\stm32l4xx_hal_spi.c **** 
 485:E:/LiteOS/LiteOS_Lab/drivers/third_party/ST/STM32L4xx_HAL_Driver/Src\stm32l4xx_hal_spi.c ****     (#) APIs provided for these 2 transfer modes (Blocking mode or Non blocking mode using either I
 486:E:/LiteOS/LiteOS_Lab/drivers/third_party/ST/STM32L4xx_HAL_Driver/Src\stm32l4xx_hal_spi.c ****         exist for 1Line (simplex) and 2Lines (full duplex) modes.
 487:E:/LiteOS/LiteOS_Lab/drivers/third_party/ST/STM32L4xx_HAL_Driver/Src\stm32l4xx_hal_spi.c **** 
 488:E:/LiteOS/LiteOS_Lab/drivers/third_party/ST/STM32L4xx_HAL_Driver/Src\stm32l4xx_hal_spi.c **** @endverbatim
 489:E:/LiteOS/LiteOS_Lab/drivers/third_party/ST/STM32L4xx_HAL_Driver/Src\stm32l4xx_hal_spi.c ****   * @{
ARM GAS  C:\Users\user\AppData\Local\Temp\ccvQ1M9B.s 			page 16


 490:E:/LiteOS/LiteOS_Lab/drivers/third_party/ST/STM32L4xx_HAL_Driver/Src\stm32l4xx_hal_spi.c ****   */
 491:E:/LiteOS/LiteOS_Lab/drivers/third_party/ST/STM32L4xx_HAL_Driver/Src\stm32l4xx_hal_spi.c **** 
 492:E:/LiteOS/LiteOS_Lab/drivers/third_party/ST/STM32L4xx_HAL_Driver/Src\stm32l4xx_hal_spi.c **** /**
 493:E:/LiteOS/LiteOS_Lab/drivers/third_party/ST/STM32L4xx_HAL_Driver/Src\stm32l4xx_hal_spi.c ****   * @brief  Transmit an amount of data in blocking mode.
 494:E:/LiteOS/LiteOS_Lab/drivers/third_party/ST/STM32L4xx_HAL_Driver/Src\stm32l4xx_hal_spi.c ****   * @param  hspi pointer to a SPI_HandleTypeDef structure that contains
 495:E:/LiteOS/LiteOS_Lab/drivers/third_party/ST/STM32L4xx_HAL_Driver/Src\stm32l4xx_hal_spi.c ****   *               the configuration information for SPI module.
 496:E:/LiteOS/LiteOS_Lab/drivers/third_party/ST/STM32L4xx_HAL_Driver/Src\stm32l4xx_hal_spi.c ****   * @param  pData pointer to data buffer
 497:E:/LiteOS/LiteOS_Lab/drivers/third_party/ST/STM32L4xx_HAL_Driver/Src\stm32l4xx_hal_spi.c ****   * @param  Size amount of data to be sent
 498:E:/LiteOS/LiteOS_Lab/drivers/third_party/ST/STM32L4xx_HAL_Driver/Src\stm32l4xx_hal_spi.c ****   * @param  Timeout Timeout duration
 499:E:/LiteOS/LiteOS_Lab/drivers/third_party/ST/STM32L4xx_HAL_Driver/Src\stm32l4xx_hal_spi.c ****   * @retval HAL status
 500:E:/LiteOS/LiteOS_Lab/drivers/third_party/ST/STM32L4xx_HAL_Driver/Src\stm32l4xx_hal_spi.c ****   */
 501:E:/LiteOS/LiteOS_Lab/drivers/third_party/ST/STM32L4xx_HAL_Driver/Src\stm32l4xx_hal_spi.c **** HAL_StatusTypeDef HAL_SPI_Transmit(SPI_HandleTypeDef *hspi, uint8_t *pData, uint16_t Size, uint32_t
 502:E:/LiteOS/LiteOS_Lab/drivers/third_party/ST/STM32L4xx_HAL_Driver/Src\stm32l4xx_hal_spi.c **** {
 376              		.loc 1 502 0
 377              		.cfi_startproc
 378              		@ args = 0, pretend = 0, frame = 32
 379              		@ frame_needed = 1, uses_anonymous_args = 0
 380 0000 80B5     		push	{r7, lr}
 381              	.LCFI22:
 382              		.cfi_def_cfa_offset 8
 383              		.cfi_offset 7, -8
 384              		.cfi_offset 14, -4
 385 0002 88B0     		sub	sp, sp, #32
 386              	.LCFI23:
 387              		.cfi_def_cfa_offset 40
 388 0004 00AF     		add	r7, sp, #0
 389              	.LCFI24:
 390              		.cfi_def_cfa_register 7
 391 0006 F860     		str	r0, [r7, #12]
 392 0008 B960     		str	r1, [r7, #8]
 393 000a 3B60     		str	r3, [r7]
 394 000c 1346     		mov	r3, r2	@ movhi
 395 000e FB80     		strh	r3, [r7, #6]	@ movhi
 503:E:/LiteOS/LiteOS_Lab/drivers/third_party/ST/STM32L4xx_HAL_Driver/Src\stm32l4xx_hal_spi.c ****   uint32_t tickstart = 0U;
 396              		.loc 1 503 0
 397 0010 0023     		movs	r3, #0
 398 0012 BB61     		str	r3, [r7, #24]
 504:E:/LiteOS/LiteOS_Lab/drivers/third_party/ST/STM32L4xx_HAL_Driver/Src\stm32l4xx_hal_spi.c ****   HAL_StatusTypeDef errorcode = HAL_OK;
 399              		.loc 1 504 0
 400 0014 0023     		movs	r3, #0
 401 0016 FB77     		strb	r3, [r7, #31]
 505:E:/LiteOS/LiteOS_Lab/drivers/third_party/ST/STM32L4xx_HAL_Driver/Src\stm32l4xx_hal_spi.c **** 
 506:E:/LiteOS/LiteOS_Lab/drivers/third_party/ST/STM32L4xx_HAL_Driver/Src\stm32l4xx_hal_spi.c ****   /* Check Direction parameter */
 507:E:/LiteOS/LiteOS_Lab/drivers/third_party/ST/STM32L4xx_HAL_Driver/Src\stm32l4xx_hal_spi.c ****   assert_param(IS_SPI_DIRECTION_2LINES_OR_1LINE(hspi->Init.Direction));
 508:E:/LiteOS/LiteOS_Lab/drivers/third_party/ST/STM32L4xx_HAL_Driver/Src\stm32l4xx_hal_spi.c **** 
 509:E:/LiteOS/LiteOS_Lab/drivers/third_party/ST/STM32L4xx_HAL_Driver/Src\stm32l4xx_hal_spi.c ****   /* Process Locked */
 510:E:/LiteOS/LiteOS_Lab/drivers/third_party/ST/STM32L4xx_HAL_Driver/Src\stm32l4xx_hal_spi.c ****   __HAL_LOCK(hspi);
 402              		.loc 1 510 0
 403 0018 FB68     		ldr	r3, [r7, #12]
 404 001a 93F85C30 		ldrb	r3, [r3, #92]	@ zero_extendqisi2
 405 001e 012B     		cmp	r3, #1
 406 0020 01D1     		bne	.L16
 407              		.loc 1 510 0 is_stmt 0 discriminator 1
 408 0022 0223     		movs	r3, #2
 409 0024 3EE1     		b	.L17
 410              	.L16:
 411              		.loc 1 510 0 discriminator 2
ARM GAS  C:\Users\user\AppData\Local\Temp\ccvQ1M9B.s 			page 17


 412 0026 FB68     		ldr	r3, [r7, #12]
 413 0028 0122     		movs	r2, #1
 414 002a 83F85C20 		strb	r2, [r3, #92]
 511:E:/LiteOS/LiteOS_Lab/drivers/third_party/ST/STM32L4xx_HAL_Driver/Src\stm32l4xx_hal_spi.c **** 
 512:E:/LiteOS/LiteOS_Lab/drivers/third_party/ST/STM32L4xx_HAL_Driver/Src\stm32l4xx_hal_spi.c ****   /* Init tickstart for timeout management*/
 513:E:/LiteOS/LiteOS_Lab/drivers/third_party/ST/STM32L4xx_HAL_Driver/Src\stm32l4xx_hal_spi.c ****   tickstart = HAL_GetTick();
 415              		.loc 1 513 0 is_stmt 1 discriminator 2
 416 002e FFF7FEFF 		bl	HAL_GetTick
 417 0032 B861     		str	r0, [r7, #24]
 514:E:/LiteOS/LiteOS_Lab/drivers/third_party/ST/STM32L4xx_HAL_Driver/Src\stm32l4xx_hal_spi.c **** 
 515:E:/LiteOS/LiteOS_Lab/drivers/third_party/ST/STM32L4xx_HAL_Driver/Src\stm32l4xx_hal_spi.c ****   if (hspi->State != HAL_SPI_STATE_READY)
 418              		.loc 1 515 0 discriminator 2
 419 0034 FB68     		ldr	r3, [r7, #12]
 420 0036 93F85D30 		ldrb	r3, [r3, #93]
 421 003a DBB2     		uxtb	r3, r3
 422 003c 012B     		cmp	r3, #1
 423 003e 02D0     		beq	.L18
 516:E:/LiteOS/LiteOS_Lab/drivers/third_party/ST/STM32L4xx_HAL_Driver/Src\stm32l4xx_hal_spi.c ****   {
 517:E:/LiteOS/LiteOS_Lab/drivers/third_party/ST/STM32L4xx_HAL_Driver/Src\stm32l4xx_hal_spi.c ****     errorcode = HAL_BUSY;
 424              		.loc 1 517 0
 425 0040 0223     		movs	r3, #2
 426 0042 FB77     		strb	r3, [r7, #31]
 518:E:/LiteOS/LiteOS_Lab/drivers/third_party/ST/STM32L4xx_HAL_Driver/Src\stm32l4xx_hal_spi.c ****     goto error;
 427              		.loc 1 518 0
 428 0044 25E1     		b	.L19
 429              	.L18:
 519:E:/LiteOS/LiteOS_Lab/drivers/third_party/ST/STM32L4xx_HAL_Driver/Src\stm32l4xx_hal_spi.c ****   }
 520:E:/LiteOS/LiteOS_Lab/drivers/third_party/ST/STM32L4xx_HAL_Driver/Src\stm32l4xx_hal_spi.c **** 
 521:E:/LiteOS/LiteOS_Lab/drivers/third_party/ST/STM32L4xx_HAL_Driver/Src\stm32l4xx_hal_spi.c ****   if ((pData == NULL) || (Size == 0U))
 430              		.loc 1 521 0
 431 0046 BB68     		ldr	r3, [r7, #8]
 432 0048 002B     		cmp	r3, #0
 433 004a 02D0     		beq	.L20
 434              		.loc 1 521 0 is_stmt 0 discriminator 1
 435 004c FB88     		ldrh	r3, [r7, #6]
 436 004e 002B     		cmp	r3, #0
 437 0050 02D1     		bne	.L21
 438              	.L20:
 522:E:/LiteOS/LiteOS_Lab/drivers/third_party/ST/STM32L4xx_HAL_Driver/Src\stm32l4xx_hal_spi.c ****   {
 523:E:/LiteOS/LiteOS_Lab/drivers/third_party/ST/STM32L4xx_HAL_Driver/Src\stm32l4xx_hal_spi.c ****     errorcode = HAL_ERROR;
 439              		.loc 1 523 0 is_stmt 1
 440 0052 0123     		movs	r3, #1
 441 0054 FB77     		strb	r3, [r7, #31]
 524:E:/LiteOS/LiteOS_Lab/drivers/third_party/ST/STM32L4xx_HAL_Driver/Src\stm32l4xx_hal_spi.c ****     goto error;
 442              		.loc 1 524 0
 443 0056 1CE1     		b	.L19
 444              	.L21:
 525:E:/LiteOS/LiteOS_Lab/drivers/third_party/ST/STM32L4xx_HAL_Driver/Src\stm32l4xx_hal_spi.c ****   }
 526:E:/LiteOS/LiteOS_Lab/drivers/third_party/ST/STM32L4xx_HAL_Driver/Src\stm32l4xx_hal_spi.c **** 
 527:E:/LiteOS/LiteOS_Lab/drivers/third_party/ST/STM32L4xx_HAL_Driver/Src\stm32l4xx_hal_spi.c ****   /* Set the transaction information */
 528:E:/LiteOS/LiteOS_Lab/drivers/third_party/ST/STM32L4xx_HAL_Driver/Src\stm32l4xx_hal_spi.c ****   hspi->State       = HAL_SPI_STATE_BUSY_TX;
 445              		.loc 1 528 0
 446 0058 FB68     		ldr	r3, [r7, #12]
 447 005a 0322     		movs	r2, #3
 448 005c 83F85D20 		strb	r2, [r3, #93]
 529:E:/LiteOS/LiteOS_Lab/drivers/third_party/ST/STM32L4xx_HAL_Driver/Src\stm32l4xx_hal_spi.c ****   hspi->ErrorCode   = HAL_SPI_ERROR_NONE;
 449              		.loc 1 529 0
ARM GAS  C:\Users\user\AppData\Local\Temp\ccvQ1M9B.s 			page 18


 450 0060 FB68     		ldr	r3, [r7, #12]
 451 0062 0022     		movs	r2, #0
 452 0064 1A66     		str	r2, [r3, #96]
 530:E:/LiteOS/LiteOS_Lab/drivers/third_party/ST/STM32L4xx_HAL_Driver/Src\stm32l4xx_hal_spi.c ****   hspi->pTxBuffPtr  = (uint8_t *)pData;
 453              		.loc 1 530 0
 454 0066 FB68     		ldr	r3, [r7, #12]
 455 0068 BA68     		ldr	r2, [r7, #8]
 456 006a 9A63     		str	r2, [r3, #56]
 531:E:/LiteOS/LiteOS_Lab/drivers/third_party/ST/STM32L4xx_HAL_Driver/Src\stm32l4xx_hal_spi.c ****   hspi->TxXferSize  = Size;
 457              		.loc 1 531 0
 458 006c FB68     		ldr	r3, [r7, #12]
 459 006e FA88     		ldrh	r2, [r7, #6]	@ movhi
 460 0070 9A87     		strh	r2, [r3, #60]	@ movhi
 532:E:/LiteOS/LiteOS_Lab/drivers/third_party/ST/STM32L4xx_HAL_Driver/Src\stm32l4xx_hal_spi.c ****   hspi->TxXferCount = Size;
 461              		.loc 1 532 0
 462 0072 FB68     		ldr	r3, [r7, #12]
 463 0074 FA88     		ldrh	r2, [r7, #6]	@ movhi
 464 0076 DA87     		strh	r2, [r3, #62]	@ movhi
 533:E:/LiteOS/LiteOS_Lab/drivers/third_party/ST/STM32L4xx_HAL_Driver/Src\stm32l4xx_hal_spi.c **** 
 534:E:/LiteOS/LiteOS_Lab/drivers/third_party/ST/STM32L4xx_HAL_Driver/Src\stm32l4xx_hal_spi.c ****   /*Init field not used in handle to zero */
 535:E:/LiteOS/LiteOS_Lab/drivers/third_party/ST/STM32L4xx_HAL_Driver/Src\stm32l4xx_hal_spi.c ****   hspi->pRxBuffPtr  = (uint8_t *)NULL;
 465              		.loc 1 535 0
 466 0078 FB68     		ldr	r3, [r7, #12]
 467 007a 0022     		movs	r2, #0
 468 007c 1A64     		str	r2, [r3, #64]
 536:E:/LiteOS/LiteOS_Lab/drivers/third_party/ST/STM32L4xx_HAL_Driver/Src\stm32l4xx_hal_spi.c ****   hspi->RxXferSize  = 0U;
 469              		.loc 1 536 0
 470 007e FB68     		ldr	r3, [r7, #12]
 471 0080 0022     		movs	r2, #0
 472 0082 A3F84420 		strh	r2, [r3, #68]	@ movhi
 537:E:/LiteOS/LiteOS_Lab/drivers/third_party/ST/STM32L4xx_HAL_Driver/Src\stm32l4xx_hal_spi.c ****   hspi->RxXferCount = 0U;
 473              		.loc 1 537 0
 474 0086 FB68     		ldr	r3, [r7, #12]
 475 0088 0022     		movs	r2, #0
 476 008a A3F84620 		strh	r2, [r3, #70]	@ movhi
 538:E:/LiteOS/LiteOS_Lab/drivers/third_party/ST/STM32L4xx_HAL_Driver/Src\stm32l4xx_hal_spi.c ****   hspi->TxISR       = NULL;
 477              		.loc 1 538 0
 478 008e FB68     		ldr	r3, [r7, #12]
 479 0090 0022     		movs	r2, #0
 480 0092 1A65     		str	r2, [r3, #80]
 539:E:/LiteOS/LiteOS_Lab/drivers/third_party/ST/STM32L4xx_HAL_Driver/Src\stm32l4xx_hal_spi.c ****   hspi->RxISR       = NULL;
 481              		.loc 1 539 0
 482 0094 FB68     		ldr	r3, [r7, #12]
 483 0096 0022     		movs	r2, #0
 484 0098 DA64     		str	r2, [r3, #76]
 540:E:/LiteOS/LiteOS_Lab/drivers/third_party/ST/STM32L4xx_HAL_Driver/Src\stm32l4xx_hal_spi.c **** 
 541:E:/LiteOS/LiteOS_Lab/drivers/third_party/ST/STM32L4xx_HAL_Driver/Src\stm32l4xx_hal_spi.c ****   /* Configure communication direction : 1Line */
 542:E:/LiteOS/LiteOS_Lab/drivers/third_party/ST/STM32L4xx_HAL_Driver/Src\stm32l4xx_hal_spi.c ****   if (hspi->Init.Direction == SPI_DIRECTION_1LINE)
 485              		.loc 1 542 0
 486 009a FB68     		ldr	r3, [r7, #12]
 487 009c 9B68     		ldr	r3, [r3, #8]
 488 009e B3F5004F 		cmp	r3, #32768
 489 00a2 07D1     		bne	.L22
 543:E:/LiteOS/LiteOS_Lab/drivers/third_party/ST/STM32L4xx_HAL_Driver/Src\stm32l4xx_hal_spi.c ****   {
 544:E:/LiteOS/LiteOS_Lab/drivers/third_party/ST/STM32L4xx_HAL_Driver/Src\stm32l4xx_hal_spi.c ****     SPI_1LINE_TX(hspi);
 490              		.loc 1 544 0
 491 00a4 FB68     		ldr	r3, [r7, #12]
ARM GAS  C:\Users\user\AppData\Local\Temp\ccvQ1M9B.s 			page 19


 492 00a6 1B68     		ldr	r3, [r3]
 493 00a8 1A68     		ldr	r2, [r3]
 494 00aa FB68     		ldr	r3, [r7, #12]
 495 00ac 1B68     		ldr	r3, [r3]
 496 00ae 42F48042 		orr	r2, r2, #16384
 497 00b2 1A60     		str	r2, [r3]
 498              	.L22:
 545:E:/LiteOS/LiteOS_Lab/drivers/third_party/ST/STM32L4xx_HAL_Driver/Src\stm32l4xx_hal_spi.c ****   }
 546:E:/LiteOS/LiteOS_Lab/drivers/third_party/ST/STM32L4xx_HAL_Driver/Src\stm32l4xx_hal_spi.c **** 
 547:E:/LiteOS/LiteOS_Lab/drivers/third_party/ST/STM32L4xx_HAL_Driver/Src\stm32l4xx_hal_spi.c **** #if (USE_SPI_CRC != 0U)
 548:E:/LiteOS/LiteOS_Lab/drivers/third_party/ST/STM32L4xx_HAL_Driver/Src\stm32l4xx_hal_spi.c ****   /* Reset CRC Calculation */
 549:E:/LiteOS/LiteOS_Lab/drivers/third_party/ST/STM32L4xx_HAL_Driver/Src\stm32l4xx_hal_spi.c ****   if (hspi->Init.CRCCalculation == SPI_CRCCALCULATION_ENABLE)
 550:E:/LiteOS/LiteOS_Lab/drivers/third_party/ST/STM32L4xx_HAL_Driver/Src\stm32l4xx_hal_spi.c ****   {
 551:E:/LiteOS/LiteOS_Lab/drivers/third_party/ST/STM32L4xx_HAL_Driver/Src\stm32l4xx_hal_spi.c ****     SPI_RESET_CRC(hspi);
 552:E:/LiteOS/LiteOS_Lab/drivers/third_party/ST/STM32L4xx_HAL_Driver/Src\stm32l4xx_hal_spi.c ****   }
 553:E:/LiteOS/LiteOS_Lab/drivers/third_party/ST/STM32L4xx_HAL_Driver/Src\stm32l4xx_hal_spi.c **** #endif /* USE_SPI_CRC */
 554:E:/LiteOS/LiteOS_Lab/drivers/third_party/ST/STM32L4xx_HAL_Driver/Src\stm32l4xx_hal_spi.c **** 
 555:E:/LiteOS/LiteOS_Lab/drivers/third_party/ST/STM32L4xx_HAL_Driver/Src\stm32l4xx_hal_spi.c ****   /* Check if the SPI is already enabled */
 556:E:/LiteOS/LiteOS_Lab/drivers/third_party/ST/STM32L4xx_HAL_Driver/Src\stm32l4xx_hal_spi.c ****   if ((hspi->Instance->CR1 & SPI_CR1_SPE) != SPI_CR1_SPE)
 499              		.loc 1 556 0
 500 00b4 FB68     		ldr	r3, [r7, #12]
 501 00b6 1B68     		ldr	r3, [r3]
 502 00b8 1B68     		ldr	r3, [r3]
 503 00ba 03F04003 		and	r3, r3, #64
 504 00be 402B     		cmp	r3, #64
 505 00c0 07D0     		beq	.L23
 557:E:/LiteOS/LiteOS_Lab/drivers/third_party/ST/STM32L4xx_HAL_Driver/Src\stm32l4xx_hal_spi.c ****   {
 558:E:/LiteOS/LiteOS_Lab/drivers/third_party/ST/STM32L4xx_HAL_Driver/Src\stm32l4xx_hal_spi.c ****     /* Enable SPI peripheral */
 559:E:/LiteOS/LiteOS_Lab/drivers/third_party/ST/STM32L4xx_HAL_Driver/Src\stm32l4xx_hal_spi.c ****     __HAL_SPI_ENABLE(hspi);
 506              		.loc 1 559 0
 507 00c2 FB68     		ldr	r3, [r7, #12]
 508 00c4 1B68     		ldr	r3, [r3]
 509 00c6 1A68     		ldr	r2, [r3]
 510 00c8 FB68     		ldr	r3, [r7, #12]
 511 00ca 1B68     		ldr	r3, [r3]
 512 00cc 42F04002 		orr	r2, r2, #64
 513 00d0 1A60     		str	r2, [r3]
 514              	.L23:
 560:E:/LiteOS/LiteOS_Lab/drivers/third_party/ST/STM32L4xx_HAL_Driver/Src\stm32l4xx_hal_spi.c ****   }
 561:E:/LiteOS/LiteOS_Lab/drivers/third_party/ST/STM32L4xx_HAL_Driver/Src\stm32l4xx_hal_spi.c **** 
 562:E:/LiteOS/LiteOS_Lab/drivers/third_party/ST/STM32L4xx_HAL_Driver/Src\stm32l4xx_hal_spi.c ****   /* Transmit data in 16 Bit mode */
 563:E:/LiteOS/LiteOS_Lab/drivers/third_party/ST/STM32L4xx_HAL_Driver/Src\stm32l4xx_hal_spi.c ****   if (hspi->Init.DataSize > SPI_DATASIZE_8BIT)
 515              		.loc 1 563 0
 516 00d2 FB68     		ldr	r3, [r7, #12]
 517 00d4 DB68     		ldr	r3, [r3, #12]
 518 00d6 B3F5E06F 		cmp	r3, #1792
 519 00da 47D9     		bls	.L24
 564:E:/LiteOS/LiteOS_Lab/drivers/third_party/ST/STM32L4xx_HAL_Driver/Src\stm32l4xx_hal_spi.c ****   {
 565:E:/LiteOS/LiteOS_Lab/drivers/third_party/ST/STM32L4xx_HAL_Driver/Src\stm32l4xx_hal_spi.c ****     if ((hspi->Init.Mode == SPI_MODE_SLAVE) || (hspi->TxXferCount == 0x01U))
 520              		.loc 1 565 0
 521 00dc FB68     		ldr	r3, [r7, #12]
 522 00de 5B68     		ldr	r3, [r3, #4]
 523 00e0 002B     		cmp	r3, #0
 524 00e2 04D0     		beq	.L25
 525              		.loc 1 565 0 is_stmt 0 discriminator 1
 526 00e4 FB68     		ldr	r3, [r7, #12]
 527 00e6 DB8F     		ldrh	r3, [r3, #62]	@ movhi
ARM GAS  C:\Users\user\AppData\Local\Temp\ccvQ1M9B.s 			page 20


 528 00e8 9BB2     		uxth	r3, r3
 529 00ea 012B     		cmp	r3, #1
 530 00ec 38D1     		bne	.L27
 531              	.L25:
 566:E:/LiteOS/LiteOS_Lab/drivers/third_party/ST/STM32L4xx_HAL_Driver/Src\stm32l4xx_hal_spi.c ****     {
 567:E:/LiteOS/LiteOS_Lab/drivers/third_party/ST/STM32L4xx_HAL_Driver/Src\stm32l4xx_hal_spi.c ****       hspi->Instance->DR = *((uint16_t *)pData);
 532              		.loc 1 567 0 is_stmt 1
 533 00ee BB68     		ldr	r3, [r7, #8]
 534 00f0 1A88     		ldrh	r2, [r3]
 535 00f2 FB68     		ldr	r3, [r7, #12]
 536 00f4 1B68     		ldr	r3, [r3]
 537 00f6 DA60     		str	r2, [r3, #12]
 568:E:/LiteOS/LiteOS_Lab/drivers/third_party/ST/STM32L4xx_HAL_Driver/Src\stm32l4xx_hal_spi.c ****       pData += sizeof(uint16_t);
 538              		.loc 1 568 0
 539 00f8 BB68     		ldr	r3, [r7, #8]
 540 00fa 0233     		adds	r3, r3, #2
 541 00fc BB60     		str	r3, [r7, #8]
 569:E:/LiteOS/LiteOS_Lab/drivers/third_party/ST/STM32L4xx_HAL_Driver/Src\stm32l4xx_hal_spi.c ****       hspi->TxXferCount--;
 542              		.loc 1 569 0
 543 00fe FB68     		ldr	r3, [r7, #12]
 544 0100 DB8F     		ldrh	r3, [r3, #62]	@ movhi
 545 0102 9BB2     		uxth	r3, r3
 546 0104 013B     		subs	r3, r3, #1
 547 0106 9AB2     		uxth	r2, r3
 548 0108 FB68     		ldr	r3, [r7, #12]
 549 010a DA87     		strh	r2, [r3, #62]	@ movhi
 570:E:/LiteOS/LiteOS_Lab/drivers/third_party/ST/STM32L4xx_HAL_Driver/Src\stm32l4xx_hal_spi.c ****     }
 571:E:/LiteOS/LiteOS_Lab/drivers/third_party/ST/STM32L4xx_HAL_Driver/Src\stm32l4xx_hal_spi.c ****     /* Transmit data in 16 Bit mode */
 572:E:/LiteOS/LiteOS_Lab/drivers/third_party/ST/STM32L4xx_HAL_Driver/Src\stm32l4xx_hal_spi.c ****     while (hspi->TxXferCount > 0U)
 550              		.loc 1 572 0
 551 010c 28E0     		b	.L27
 552              	.L30:
 573:E:/LiteOS/LiteOS_Lab/drivers/third_party/ST/STM32L4xx_HAL_Driver/Src\stm32l4xx_hal_spi.c ****     {
 574:E:/LiteOS/LiteOS_Lab/drivers/third_party/ST/STM32L4xx_HAL_Driver/Src\stm32l4xx_hal_spi.c ****       /* Wait until TXE flag is set to send data */
 575:E:/LiteOS/LiteOS_Lab/drivers/third_party/ST/STM32L4xx_HAL_Driver/Src\stm32l4xx_hal_spi.c ****       if (__HAL_SPI_GET_FLAG(hspi, SPI_FLAG_TXE))
 553              		.loc 1 575 0
 554 010e FB68     		ldr	r3, [r7, #12]
 555 0110 1B68     		ldr	r3, [r3]
 556 0112 9B68     		ldr	r3, [r3, #8]
 557 0114 03F00203 		and	r3, r3, #2
 558 0118 022B     		cmp	r3, #2
 559 011a 0FD1     		bne	.L28
 576:E:/LiteOS/LiteOS_Lab/drivers/third_party/ST/STM32L4xx_HAL_Driver/Src\stm32l4xx_hal_spi.c ****       {
 577:E:/LiteOS/LiteOS_Lab/drivers/third_party/ST/STM32L4xx_HAL_Driver/Src\stm32l4xx_hal_spi.c ****         hspi->Instance->DR = *((uint16_t *)pData);
 560              		.loc 1 577 0
 561 011c BB68     		ldr	r3, [r7, #8]
 562 011e 1A88     		ldrh	r2, [r3]
 563 0120 FB68     		ldr	r3, [r7, #12]
 564 0122 1B68     		ldr	r3, [r3]
 565 0124 DA60     		str	r2, [r3, #12]
 578:E:/LiteOS/LiteOS_Lab/drivers/third_party/ST/STM32L4xx_HAL_Driver/Src\stm32l4xx_hal_spi.c ****         pData += sizeof(uint16_t);
 566              		.loc 1 578 0
 567 0126 BB68     		ldr	r3, [r7, #8]
 568 0128 0233     		adds	r3, r3, #2
 569 012a BB60     		str	r3, [r7, #8]
 579:E:/LiteOS/LiteOS_Lab/drivers/third_party/ST/STM32L4xx_HAL_Driver/Src\stm32l4xx_hal_spi.c ****         hspi->TxXferCount--;
 570              		.loc 1 579 0
ARM GAS  C:\Users\user\AppData\Local\Temp\ccvQ1M9B.s 			page 21


 571 012c FB68     		ldr	r3, [r7, #12]
 572 012e DB8F     		ldrh	r3, [r3, #62]	@ movhi
 573 0130 9BB2     		uxth	r3, r3
 574 0132 013B     		subs	r3, r3, #1
 575 0134 9AB2     		uxth	r2, r3
 576 0136 FB68     		ldr	r3, [r7, #12]
 577 0138 DA87     		strh	r2, [r3, #62]	@ movhi
 578 013a 11E0     		b	.L27
 579              	.L28:
 580:E:/LiteOS/LiteOS_Lab/drivers/third_party/ST/STM32L4xx_HAL_Driver/Src\stm32l4xx_hal_spi.c ****       }
 581:E:/LiteOS/LiteOS_Lab/drivers/third_party/ST/STM32L4xx_HAL_Driver/Src\stm32l4xx_hal_spi.c ****       else
 582:E:/LiteOS/LiteOS_Lab/drivers/third_party/ST/STM32L4xx_HAL_Driver/Src\stm32l4xx_hal_spi.c ****       {
 583:E:/LiteOS/LiteOS_Lab/drivers/third_party/ST/STM32L4xx_HAL_Driver/Src\stm32l4xx_hal_spi.c ****         /* Timeout management */
 584:E:/LiteOS/LiteOS_Lab/drivers/third_party/ST/STM32L4xx_HAL_Driver/Src\stm32l4xx_hal_spi.c ****         if ((Timeout == 0U) || ((Timeout != HAL_MAX_DELAY) && ((HAL_GetTick() - tickstart) >=  Time
 580              		.loc 1 584 0
 581 013c 3B68     		ldr	r3, [r7]
 582 013e 002B     		cmp	r3, #0
 583 0140 0BD0     		beq	.L29
 584              		.loc 1 584 0 is_stmt 0 discriminator 1
 585 0142 3B68     		ldr	r3, [r7]
 586 0144 B3F1FF3F 		cmp	r3, #-1
 587 0148 0AD0     		beq	.L27
 588              		.loc 1 584 0 discriminator 2
 589 014a FFF7FEFF 		bl	HAL_GetTick
 590 014e 0246     		mov	r2, r0
 591 0150 BB69     		ldr	r3, [r7, #24]
 592 0152 D31A     		subs	r3, r2, r3
 593 0154 3A68     		ldr	r2, [r7]
 594 0156 9A42     		cmp	r2, r3
 595 0158 02D8     		bhi	.L27
 596              	.L29:
 585:E:/LiteOS/LiteOS_Lab/drivers/third_party/ST/STM32L4xx_HAL_Driver/Src\stm32l4xx_hal_spi.c ****         {
 586:E:/LiteOS/LiteOS_Lab/drivers/third_party/ST/STM32L4xx_HAL_Driver/Src\stm32l4xx_hal_spi.c ****           errorcode = HAL_TIMEOUT;
 597              		.loc 1 586 0 is_stmt 1
 598 015a 0323     		movs	r3, #3
 599 015c FB77     		strb	r3, [r7, #31]
 587:E:/LiteOS/LiteOS_Lab/drivers/third_party/ST/STM32L4xx_HAL_Driver/Src\stm32l4xx_hal_spi.c ****           goto error;
 600              		.loc 1 587 0
 601 015e 98E0     		b	.L19
 602              	.L27:
 572:E:/LiteOS/LiteOS_Lab/drivers/third_party/ST/STM32L4xx_HAL_Driver/Src\stm32l4xx_hal_spi.c ****     {
 603              		.loc 1 572 0
 604 0160 FB68     		ldr	r3, [r7, #12]
 605 0162 DB8F     		ldrh	r3, [r3, #62]	@ movhi
 606 0164 9BB2     		uxth	r3, r3
 607 0166 002B     		cmp	r3, #0
 608 0168 D1D1     		bne	.L30
 609 016a 70E0     		b	.L31
 610              	.L24:
 588:E:/LiteOS/LiteOS_Lab/drivers/third_party/ST/STM32L4xx_HAL_Driver/Src\stm32l4xx_hal_spi.c ****         }
 589:E:/LiteOS/LiteOS_Lab/drivers/third_party/ST/STM32L4xx_HAL_Driver/Src\stm32l4xx_hal_spi.c ****       }
 590:E:/LiteOS/LiteOS_Lab/drivers/third_party/ST/STM32L4xx_HAL_Driver/Src\stm32l4xx_hal_spi.c ****     }
 591:E:/LiteOS/LiteOS_Lab/drivers/third_party/ST/STM32L4xx_HAL_Driver/Src\stm32l4xx_hal_spi.c ****   }
 592:E:/LiteOS/LiteOS_Lab/drivers/third_party/ST/STM32L4xx_HAL_Driver/Src\stm32l4xx_hal_spi.c ****   /* Transmit data in 8 Bit mode */
 593:E:/LiteOS/LiteOS_Lab/drivers/third_party/ST/STM32L4xx_HAL_Driver/Src\stm32l4xx_hal_spi.c ****   else
 594:E:/LiteOS/LiteOS_Lab/drivers/third_party/ST/STM32L4xx_HAL_Driver/Src\stm32l4xx_hal_spi.c ****   {
 595:E:/LiteOS/LiteOS_Lab/drivers/third_party/ST/STM32L4xx_HAL_Driver/Src\stm32l4xx_hal_spi.c ****     if ((hspi->Init.Mode == SPI_MODE_SLAVE) || (hspi->TxXferCount == 0x01U))
ARM GAS  C:\Users\user\AppData\Local\Temp\ccvQ1M9B.s 			page 22


 611              		.loc 1 595 0
 612 016c FB68     		ldr	r3, [r7, #12]
 613 016e 5B68     		ldr	r3, [r3, #4]
 614 0170 002B     		cmp	r3, #0
 615 0172 04D0     		beq	.L32
 616              		.loc 1 595 0 is_stmt 0 discriminator 1
 617 0174 FB68     		ldr	r3, [r7, #12]
 618 0176 DB8F     		ldrh	r3, [r3, #62]	@ movhi
 619 0178 9BB2     		uxth	r3, r3
 620 017a 012B     		cmp	r3, #1
 621 017c 62D1     		bne	.L35
 622              	.L32:
 596:E:/LiteOS/LiteOS_Lab/drivers/third_party/ST/STM32L4xx_HAL_Driver/Src\stm32l4xx_hal_spi.c ****     {
 597:E:/LiteOS/LiteOS_Lab/drivers/third_party/ST/STM32L4xx_HAL_Driver/Src\stm32l4xx_hal_spi.c ****       if (hspi->TxXferCount > 1U)
 623              		.loc 1 597 0 is_stmt 1
 624 017e FB68     		ldr	r3, [r7, #12]
 625 0180 DB8F     		ldrh	r3, [r3, #62]	@ movhi
 626 0182 9BB2     		uxth	r3, r3
 627 0184 012B     		cmp	r3, #1
 628 0186 0FD9     		bls	.L34
 598:E:/LiteOS/LiteOS_Lab/drivers/third_party/ST/STM32L4xx_HAL_Driver/Src\stm32l4xx_hal_spi.c ****       {
 599:E:/LiteOS/LiteOS_Lab/drivers/third_party/ST/STM32L4xx_HAL_Driver/Src\stm32l4xx_hal_spi.c ****         /* write on the data register in packing mode */
 600:E:/LiteOS/LiteOS_Lab/drivers/third_party/ST/STM32L4xx_HAL_Driver/Src\stm32l4xx_hal_spi.c ****         hspi->Instance->DR = *((uint16_t *)pData);
 629              		.loc 1 600 0
 630 0188 BB68     		ldr	r3, [r7, #8]
 631 018a 1A88     		ldrh	r2, [r3]
 632 018c FB68     		ldr	r3, [r7, #12]
 633 018e 1B68     		ldr	r3, [r3]
 634 0190 DA60     		str	r2, [r3, #12]
 601:E:/LiteOS/LiteOS_Lab/drivers/third_party/ST/STM32L4xx_HAL_Driver/Src\stm32l4xx_hal_spi.c ****         pData += sizeof(uint16_t);
 635              		.loc 1 601 0
 636 0192 BB68     		ldr	r3, [r7, #8]
 637 0194 0233     		adds	r3, r3, #2
 638 0196 BB60     		str	r3, [r7, #8]
 602:E:/LiteOS/LiteOS_Lab/drivers/third_party/ST/STM32L4xx_HAL_Driver/Src\stm32l4xx_hal_spi.c ****         hspi->TxXferCount -= 2U;
 639              		.loc 1 602 0
 640 0198 FB68     		ldr	r3, [r7, #12]
 641 019a DB8F     		ldrh	r3, [r3, #62]	@ movhi
 642 019c 9BB2     		uxth	r3, r3
 643 019e 023B     		subs	r3, r3, #2
 644 01a0 9AB2     		uxth	r2, r3
 645 01a2 FB68     		ldr	r3, [r7, #12]
 646 01a4 DA87     		strh	r2, [r3, #62]	@ movhi
 647 01a6 4DE0     		b	.L35
 648              	.L34:
 603:E:/LiteOS/LiteOS_Lab/drivers/third_party/ST/STM32L4xx_HAL_Driver/Src\stm32l4xx_hal_spi.c ****       }
 604:E:/LiteOS/LiteOS_Lab/drivers/third_party/ST/STM32L4xx_HAL_Driver/Src\stm32l4xx_hal_spi.c ****       else
 605:E:/LiteOS/LiteOS_Lab/drivers/third_party/ST/STM32L4xx_HAL_Driver/Src\stm32l4xx_hal_spi.c ****       {
 606:E:/LiteOS/LiteOS_Lab/drivers/third_party/ST/STM32L4xx_HAL_Driver/Src\stm32l4xx_hal_spi.c ****         *((__IO uint8_t *)&hspi->Instance->DR) = (*pData++);
 649              		.loc 1 606 0
 650 01a8 BB68     		ldr	r3, [r7, #8]
 651 01aa 5A1C     		adds	r2, r3, #1
 652 01ac BA60     		str	r2, [r7, #8]
 653 01ae FA68     		ldr	r2, [r7, #12]
 654 01b0 1268     		ldr	r2, [r2]
 655 01b2 0C32     		adds	r2, r2, #12
 656 01b4 1B78     		ldrb	r3, [r3]	@ zero_extendqisi2
ARM GAS  C:\Users\user\AppData\Local\Temp\ccvQ1M9B.s 			page 23


 657 01b6 1370     		strb	r3, [r2]
 607:E:/LiteOS/LiteOS_Lab/drivers/third_party/ST/STM32L4xx_HAL_Driver/Src\stm32l4xx_hal_spi.c ****         hspi->TxXferCount--;
 658              		.loc 1 607 0
 659 01b8 FB68     		ldr	r3, [r7, #12]
 660 01ba DB8F     		ldrh	r3, [r3, #62]	@ movhi
 661 01bc 9BB2     		uxth	r3, r3
 662 01be 013B     		subs	r3, r3, #1
 663 01c0 9AB2     		uxth	r2, r3
 664 01c2 FB68     		ldr	r3, [r7, #12]
 665 01c4 DA87     		strh	r2, [r3, #62]	@ movhi
 608:E:/LiteOS/LiteOS_Lab/drivers/third_party/ST/STM32L4xx_HAL_Driver/Src\stm32l4xx_hal_spi.c ****       }
 609:E:/LiteOS/LiteOS_Lab/drivers/third_party/ST/STM32L4xx_HAL_Driver/Src\stm32l4xx_hal_spi.c ****     }
 610:E:/LiteOS/LiteOS_Lab/drivers/third_party/ST/STM32L4xx_HAL_Driver/Src\stm32l4xx_hal_spi.c ****     while (hspi->TxXferCount > 0U)
 666              		.loc 1 610 0
 667 01c6 3DE0     		b	.L35
 668              	.L40:
 611:E:/LiteOS/LiteOS_Lab/drivers/third_party/ST/STM32L4xx_HAL_Driver/Src\stm32l4xx_hal_spi.c ****     {
 612:E:/LiteOS/LiteOS_Lab/drivers/third_party/ST/STM32L4xx_HAL_Driver/Src\stm32l4xx_hal_spi.c ****       /* Wait until TXE flag is set to send data */
 613:E:/LiteOS/LiteOS_Lab/drivers/third_party/ST/STM32L4xx_HAL_Driver/Src\stm32l4xx_hal_spi.c ****       if (__HAL_SPI_GET_FLAG(hspi, SPI_FLAG_TXE))
 669              		.loc 1 613 0
 670 01c8 FB68     		ldr	r3, [r7, #12]
 671 01ca 1B68     		ldr	r3, [r3]
 672 01cc 9B68     		ldr	r3, [r3, #8]
 673 01ce 03F00203 		and	r3, r3, #2
 674 01d2 022B     		cmp	r3, #2
 675 01d4 24D1     		bne	.L36
 614:E:/LiteOS/LiteOS_Lab/drivers/third_party/ST/STM32L4xx_HAL_Driver/Src\stm32l4xx_hal_spi.c ****       {
 615:E:/LiteOS/LiteOS_Lab/drivers/third_party/ST/STM32L4xx_HAL_Driver/Src\stm32l4xx_hal_spi.c ****         if (hspi->TxXferCount > 1U)
 676              		.loc 1 615 0
 677 01d6 FB68     		ldr	r3, [r7, #12]
 678 01d8 DB8F     		ldrh	r3, [r3, #62]	@ movhi
 679 01da 9BB2     		uxth	r3, r3
 680 01dc 012B     		cmp	r3, #1
 681 01de 0FD9     		bls	.L37
 616:E:/LiteOS/LiteOS_Lab/drivers/third_party/ST/STM32L4xx_HAL_Driver/Src\stm32l4xx_hal_spi.c ****         {
 617:E:/LiteOS/LiteOS_Lab/drivers/third_party/ST/STM32L4xx_HAL_Driver/Src\stm32l4xx_hal_spi.c ****           /* write on the data register in packing mode */
 618:E:/LiteOS/LiteOS_Lab/drivers/third_party/ST/STM32L4xx_HAL_Driver/Src\stm32l4xx_hal_spi.c ****           hspi->Instance->DR = *((uint16_t *)pData);
 682              		.loc 1 618 0
 683 01e0 BB68     		ldr	r3, [r7, #8]
 684 01e2 1A88     		ldrh	r2, [r3]
 685 01e4 FB68     		ldr	r3, [r7, #12]
 686 01e6 1B68     		ldr	r3, [r3]
 687 01e8 DA60     		str	r2, [r3, #12]
 619:E:/LiteOS/LiteOS_Lab/drivers/third_party/ST/STM32L4xx_HAL_Driver/Src\stm32l4xx_hal_spi.c ****           pData += sizeof(uint16_t);
 688              		.loc 1 619 0
 689 01ea BB68     		ldr	r3, [r7, #8]
 690 01ec 0233     		adds	r3, r3, #2
 691 01ee BB60     		str	r3, [r7, #8]
 620:E:/LiteOS/LiteOS_Lab/drivers/third_party/ST/STM32L4xx_HAL_Driver/Src\stm32l4xx_hal_spi.c ****           hspi->TxXferCount -= 2U;
 692              		.loc 1 620 0
 693 01f0 FB68     		ldr	r3, [r7, #12]
 694 01f2 DB8F     		ldrh	r3, [r3, #62]	@ movhi
 695 01f4 9BB2     		uxth	r3, r3
 696 01f6 023B     		subs	r3, r3, #2
 697 01f8 9AB2     		uxth	r2, r3
 698 01fa FB68     		ldr	r3, [r7, #12]
 699 01fc DA87     		strh	r2, [r3, #62]	@ movhi
ARM GAS  C:\Users\user\AppData\Local\Temp\ccvQ1M9B.s 			page 24


 700 01fe 21E0     		b	.L35
 701              	.L37:
 621:E:/LiteOS/LiteOS_Lab/drivers/third_party/ST/STM32L4xx_HAL_Driver/Src\stm32l4xx_hal_spi.c ****         }
 622:E:/LiteOS/LiteOS_Lab/drivers/third_party/ST/STM32L4xx_HAL_Driver/Src\stm32l4xx_hal_spi.c ****         else
 623:E:/LiteOS/LiteOS_Lab/drivers/third_party/ST/STM32L4xx_HAL_Driver/Src\stm32l4xx_hal_spi.c ****         {
 624:E:/LiteOS/LiteOS_Lab/drivers/third_party/ST/STM32L4xx_HAL_Driver/Src\stm32l4xx_hal_spi.c ****           *((__IO uint8_t *)&hspi->Instance->DR) = (*pData++);
 702              		.loc 1 624 0
 703 0200 BB68     		ldr	r3, [r7, #8]
 704 0202 5A1C     		adds	r2, r3, #1
 705 0204 BA60     		str	r2, [r7, #8]
 706 0206 FA68     		ldr	r2, [r7, #12]
 707 0208 1268     		ldr	r2, [r2]
 708 020a 0C32     		adds	r2, r2, #12
 709 020c 1B78     		ldrb	r3, [r3]	@ zero_extendqisi2
 710 020e 1370     		strb	r3, [r2]
 625:E:/LiteOS/LiteOS_Lab/drivers/third_party/ST/STM32L4xx_HAL_Driver/Src\stm32l4xx_hal_spi.c ****           hspi->TxXferCount--;
 711              		.loc 1 625 0
 712 0210 FB68     		ldr	r3, [r7, #12]
 713 0212 DB8F     		ldrh	r3, [r3, #62]	@ movhi
 714 0214 9BB2     		uxth	r3, r3
 715 0216 013B     		subs	r3, r3, #1
 716 0218 9AB2     		uxth	r2, r3
 717 021a FB68     		ldr	r3, [r7, #12]
 718 021c DA87     		strh	r2, [r3, #62]	@ movhi
 719 021e 11E0     		b	.L35
 720              	.L36:
 626:E:/LiteOS/LiteOS_Lab/drivers/third_party/ST/STM32L4xx_HAL_Driver/Src\stm32l4xx_hal_spi.c ****         }
 627:E:/LiteOS/LiteOS_Lab/drivers/third_party/ST/STM32L4xx_HAL_Driver/Src\stm32l4xx_hal_spi.c ****       }
 628:E:/LiteOS/LiteOS_Lab/drivers/third_party/ST/STM32L4xx_HAL_Driver/Src\stm32l4xx_hal_spi.c ****       else
 629:E:/LiteOS/LiteOS_Lab/drivers/third_party/ST/STM32L4xx_HAL_Driver/Src\stm32l4xx_hal_spi.c ****       {
 630:E:/LiteOS/LiteOS_Lab/drivers/third_party/ST/STM32L4xx_HAL_Driver/Src\stm32l4xx_hal_spi.c ****         /* Timeout management */
 631:E:/LiteOS/LiteOS_Lab/drivers/third_party/ST/STM32L4xx_HAL_Driver/Src\stm32l4xx_hal_spi.c ****         if ((Timeout == 0U) || ((Timeout != HAL_MAX_DELAY) && ((HAL_GetTick() - tickstart) >=  Time
 721              		.loc 1 631 0
 722 0220 3B68     		ldr	r3, [r7]
 723 0222 002B     		cmp	r3, #0
 724 0224 0BD0     		beq	.L39
 725              		.loc 1 631 0 is_stmt 0 discriminator 1
 726 0226 3B68     		ldr	r3, [r7]
 727 0228 B3F1FF3F 		cmp	r3, #-1
 728 022c 0AD0     		beq	.L35
 729              		.loc 1 631 0 discriminator 2
 730 022e FFF7FEFF 		bl	HAL_GetTick
 731 0232 0246     		mov	r2, r0
 732 0234 BB69     		ldr	r3, [r7, #24]
 733 0236 D31A     		subs	r3, r2, r3
 734 0238 3A68     		ldr	r2, [r7]
 735 023a 9A42     		cmp	r2, r3
 736 023c 02D8     		bhi	.L35
 737              	.L39:
 632:E:/LiteOS/LiteOS_Lab/drivers/third_party/ST/STM32L4xx_HAL_Driver/Src\stm32l4xx_hal_spi.c ****         {
 633:E:/LiteOS/LiteOS_Lab/drivers/third_party/ST/STM32L4xx_HAL_Driver/Src\stm32l4xx_hal_spi.c ****           errorcode = HAL_TIMEOUT;
 738              		.loc 1 633 0 is_stmt 1
 739 023e 0323     		movs	r3, #3
 740 0240 FB77     		strb	r3, [r7, #31]
 634:E:/LiteOS/LiteOS_Lab/drivers/third_party/ST/STM32L4xx_HAL_Driver/Src\stm32l4xx_hal_spi.c ****           goto error;
 741              		.loc 1 634 0
 742 0242 26E0     		b	.L19
ARM GAS  C:\Users\user\AppData\Local\Temp\ccvQ1M9B.s 			page 25


 743              	.L35:
 610:E:/LiteOS/LiteOS_Lab/drivers/third_party/ST/STM32L4xx_HAL_Driver/Src\stm32l4xx_hal_spi.c ****     {
 744              		.loc 1 610 0
 745 0244 FB68     		ldr	r3, [r7, #12]
 746 0246 DB8F     		ldrh	r3, [r3, #62]	@ movhi
 747 0248 9BB2     		uxth	r3, r3
 748 024a 002B     		cmp	r3, #0
 749 024c BCD1     		bne	.L40
 750              	.L31:
 635:E:/LiteOS/LiteOS_Lab/drivers/third_party/ST/STM32L4xx_HAL_Driver/Src\stm32l4xx_hal_spi.c ****         }
 636:E:/LiteOS/LiteOS_Lab/drivers/third_party/ST/STM32L4xx_HAL_Driver/Src\stm32l4xx_hal_spi.c ****       }
 637:E:/LiteOS/LiteOS_Lab/drivers/third_party/ST/STM32L4xx_HAL_Driver/Src\stm32l4xx_hal_spi.c ****     }
 638:E:/LiteOS/LiteOS_Lab/drivers/third_party/ST/STM32L4xx_HAL_Driver/Src\stm32l4xx_hal_spi.c ****   }
 639:E:/LiteOS/LiteOS_Lab/drivers/third_party/ST/STM32L4xx_HAL_Driver/Src\stm32l4xx_hal_spi.c **** #if (USE_SPI_CRC != 0U)
 640:E:/LiteOS/LiteOS_Lab/drivers/third_party/ST/STM32L4xx_HAL_Driver/Src\stm32l4xx_hal_spi.c ****   /* Enable CRC Transmission */
 641:E:/LiteOS/LiteOS_Lab/drivers/third_party/ST/STM32L4xx_HAL_Driver/Src\stm32l4xx_hal_spi.c ****   if (hspi->Init.CRCCalculation == SPI_CRCCALCULATION_ENABLE)
 642:E:/LiteOS/LiteOS_Lab/drivers/third_party/ST/STM32L4xx_HAL_Driver/Src\stm32l4xx_hal_spi.c ****   {
 643:E:/LiteOS/LiteOS_Lab/drivers/third_party/ST/STM32L4xx_HAL_Driver/Src\stm32l4xx_hal_spi.c ****     SET_BIT(hspi->Instance->CR1, SPI_CR1_CRCNEXT);
 644:E:/LiteOS/LiteOS_Lab/drivers/third_party/ST/STM32L4xx_HAL_Driver/Src\stm32l4xx_hal_spi.c ****   }
 645:E:/LiteOS/LiteOS_Lab/drivers/third_party/ST/STM32L4xx_HAL_Driver/Src\stm32l4xx_hal_spi.c **** #endif /* USE_SPI_CRC */
 646:E:/LiteOS/LiteOS_Lab/drivers/third_party/ST/STM32L4xx_HAL_Driver/Src\stm32l4xx_hal_spi.c **** 
 647:E:/LiteOS/LiteOS_Lab/drivers/third_party/ST/STM32L4xx_HAL_Driver/Src\stm32l4xx_hal_spi.c ****   /* Check the end of the transaction */
 648:E:/LiteOS/LiteOS_Lab/drivers/third_party/ST/STM32L4xx_HAL_Driver/Src\stm32l4xx_hal_spi.c ****   if (SPI_EndRxTxTransaction(hspi, Timeout, tickstart) != HAL_OK)
 751              		.loc 1 648 0
 752 024e BA69     		ldr	r2, [r7, #24]
 753 0250 3968     		ldr	r1, [r7]
 754 0252 F868     		ldr	r0, [r7, #12]
 755 0254 FFF7FEFF 		bl	SPI_EndRxTxTransaction
 756 0258 0346     		mov	r3, r0
 757 025a 002B     		cmp	r3, #0
 758 025c 02D0     		beq	.L41
 649:E:/LiteOS/LiteOS_Lab/drivers/third_party/ST/STM32L4xx_HAL_Driver/Src\stm32l4xx_hal_spi.c ****   {
 650:E:/LiteOS/LiteOS_Lab/drivers/third_party/ST/STM32L4xx_HAL_Driver/Src\stm32l4xx_hal_spi.c ****     hspi->ErrorCode = HAL_SPI_ERROR_FLAG;
 759              		.loc 1 650 0
 760 025e FB68     		ldr	r3, [r7, #12]
 761 0260 2022     		movs	r2, #32
 762 0262 1A66     		str	r2, [r3, #96]
 763              	.L41:
 651:E:/LiteOS/LiteOS_Lab/drivers/third_party/ST/STM32L4xx_HAL_Driver/Src\stm32l4xx_hal_spi.c ****   }
 652:E:/LiteOS/LiteOS_Lab/drivers/third_party/ST/STM32L4xx_HAL_Driver/Src\stm32l4xx_hal_spi.c **** 
 653:E:/LiteOS/LiteOS_Lab/drivers/third_party/ST/STM32L4xx_HAL_Driver/Src\stm32l4xx_hal_spi.c ****   /* Clear overrun flag in 2 Lines communication mode because received is not read */
 654:E:/LiteOS/LiteOS_Lab/drivers/third_party/ST/STM32L4xx_HAL_Driver/Src\stm32l4xx_hal_spi.c ****   if (hspi->Init.Direction == SPI_DIRECTION_2LINES)
 764              		.loc 1 654 0
 765 0264 FB68     		ldr	r3, [r7, #12]
 766 0266 9B68     		ldr	r3, [r3, #8]
 767 0268 002B     		cmp	r3, #0
 768 026a 0AD1     		bne	.L42
 769              	.LBB2:
 655:E:/LiteOS/LiteOS_Lab/drivers/third_party/ST/STM32L4xx_HAL_Driver/Src\stm32l4xx_hal_spi.c ****   {
 656:E:/LiteOS/LiteOS_Lab/drivers/third_party/ST/STM32L4xx_HAL_Driver/Src\stm32l4xx_hal_spi.c ****     __HAL_SPI_CLEAR_OVRFLAG(hspi);
 770              		.loc 1 656 0
 771 026c 0023     		movs	r3, #0
 772 026e 7B61     		str	r3, [r7, #20]
 773 0270 FB68     		ldr	r3, [r7, #12]
 774 0272 1B68     		ldr	r3, [r3]
 775 0274 DB68     		ldr	r3, [r3, #12]
 776 0276 7B61     		str	r3, [r7, #20]
ARM GAS  C:\Users\user\AppData\Local\Temp\ccvQ1M9B.s 			page 26


 777 0278 FB68     		ldr	r3, [r7, #12]
 778 027a 1B68     		ldr	r3, [r3]
 779 027c 9B68     		ldr	r3, [r3, #8]
 780 027e 7B61     		str	r3, [r7, #20]
 781 0280 7B69     		ldr	r3, [r7, #20]
 782              	.L42:
 783              	.LBE2:
 657:E:/LiteOS/LiteOS_Lab/drivers/third_party/ST/STM32L4xx_HAL_Driver/Src\stm32l4xx_hal_spi.c ****   }
 658:E:/LiteOS/LiteOS_Lab/drivers/third_party/ST/STM32L4xx_HAL_Driver/Src\stm32l4xx_hal_spi.c **** 
 659:E:/LiteOS/LiteOS_Lab/drivers/third_party/ST/STM32L4xx_HAL_Driver/Src\stm32l4xx_hal_spi.c ****   if (hspi->ErrorCode != HAL_SPI_ERROR_NONE)
 784              		.loc 1 659 0
 785 0282 FB68     		ldr	r3, [r7, #12]
 786 0284 1B6E     		ldr	r3, [r3, #96]
 787 0286 002B     		cmp	r3, #0
 788 0288 02D0     		beq	.L43
 660:E:/LiteOS/LiteOS_Lab/drivers/third_party/ST/STM32L4xx_HAL_Driver/Src\stm32l4xx_hal_spi.c ****   {
 661:E:/LiteOS/LiteOS_Lab/drivers/third_party/ST/STM32L4xx_HAL_Driver/Src\stm32l4xx_hal_spi.c ****     errorcode = HAL_ERROR;
 789              		.loc 1 661 0
 790 028a 0123     		movs	r3, #1
 791 028c FB77     		strb	r3, [r7, #31]
 792 028e 00E0     		b	.L19
 793              	.L43:
 662:E:/LiteOS/LiteOS_Lab/drivers/third_party/ST/STM32L4xx_HAL_Driver/Src\stm32l4xx_hal_spi.c ****   }
 663:E:/LiteOS/LiteOS_Lab/drivers/third_party/ST/STM32L4xx_HAL_Driver/Src\stm32l4xx_hal_spi.c **** 
 664:E:/LiteOS/LiteOS_Lab/drivers/third_party/ST/STM32L4xx_HAL_Driver/Src\stm32l4xx_hal_spi.c **** error:
 794              		.loc 1 664 0
 795 0290 00BF     		nop
 796              	.L19:
 665:E:/LiteOS/LiteOS_Lab/drivers/third_party/ST/STM32L4xx_HAL_Driver/Src\stm32l4xx_hal_spi.c ****   hspi->State = HAL_SPI_STATE_READY;
 797              		.loc 1 665 0
 798 0292 FB68     		ldr	r3, [r7, #12]
 799 0294 0122     		movs	r2, #1
 800 0296 83F85D20 		strb	r2, [r3, #93]
 666:E:/LiteOS/LiteOS_Lab/drivers/third_party/ST/STM32L4xx_HAL_Driver/Src\stm32l4xx_hal_spi.c ****   /* Process Unlocked */
 667:E:/LiteOS/LiteOS_Lab/drivers/third_party/ST/STM32L4xx_HAL_Driver/Src\stm32l4xx_hal_spi.c ****   __HAL_UNLOCK(hspi);
 801              		.loc 1 667 0
 802 029a FB68     		ldr	r3, [r7, #12]
 803 029c 0022     		movs	r2, #0
 804 029e 83F85C20 		strb	r2, [r3, #92]
 668:E:/LiteOS/LiteOS_Lab/drivers/third_party/ST/STM32L4xx_HAL_Driver/Src\stm32l4xx_hal_spi.c ****   return errorcode;
 805              		.loc 1 668 0
 806 02a2 FB7F     		ldrb	r3, [r7, #31]	@ zero_extendqisi2
 807              	.L17:
 669:E:/LiteOS/LiteOS_Lab/drivers/third_party/ST/STM32L4xx_HAL_Driver/Src\stm32l4xx_hal_spi.c **** }
 808              		.loc 1 669 0
 809 02a4 1846     		mov	r0, r3
 810 02a6 2037     		adds	r7, r7, #32
 811              	.LCFI25:
 812              		.cfi_def_cfa_offset 8
 813 02a8 BD46     		mov	sp, r7
 814              	.LCFI26:
 815              		.cfi_def_cfa_register 13
 816              		@ sp needed
 817 02aa 80BD     		pop	{r7, pc}
 818              		.cfi_endproc
 819              	.LFE137:
 821              		.section	.text.HAL_SPI_Receive,"ax",%progbits
ARM GAS  C:\Users\user\AppData\Local\Temp\ccvQ1M9B.s 			page 27


 822              		.align	1
 823              		.global	HAL_SPI_Receive
 824              		.syntax unified
 825              		.thumb
 826              		.thumb_func
 827              		.fpu fpv4-sp-d16
 829              	HAL_SPI_Receive:
 830              	.LFB138:
 670:E:/LiteOS/LiteOS_Lab/drivers/third_party/ST/STM32L4xx_HAL_Driver/Src\stm32l4xx_hal_spi.c **** 
 671:E:/LiteOS/LiteOS_Lab/drivers/third_party/ST/STM32L4xx_HAL_Driver/Src\stm32l4xx_hal_spi.c **** /**
 672:E:/LiteOS/LiteOS_Lab/drivers/third_party/ST/STM32L4xx_HAL_Driver/Src\stm32l4xx_hal_spi.c ****   * @brief  Receive an amount of data in blocking mode.
 673:E:/LiteOS/LiteOS_Lab/drivers/third_party/ST/STM32L4xx_HAL_Driver/Src\stm32l4xx_hal_spi.c ****   * @param  hspi pointer to a SPI_HandleTypeDef structure that contains
 674:E:/LiteOS/LiteOS_Lab/drivers/third_party/ST/STM32L4xx_HAL_Driver/Src\stm32l4xx_hal_spi.c ****   *               the configuration information for SPI module.
 675:E:/LiteOS/LiteOS_Lab/drivers/third_party/ST/STM32L4xx_HAL_Driver/Src\stm32l4xx_hal_spi.c ****   * @param  pData pointer to data buffer
 676:E:/LiteOS/LiteOS_Lab/drivers/third_party/ST/STM32L4xx_HAL_Driver/Src\stm32l4xx_hal_spi.c ****   * @param  Size amount of data to be received
 677:E:/LiteOS/LiteOS_Lab/drivers/third_party/ST/STM32L4xx_HAL_Driver/Src\stm32l4xx_hal_spi.c ****   * @param  Timeout Timeout duration
 678:E:/LiteOS/LiteOS_Lab/drivers/third_party/ST/STM32L4xx_HAL_Driver/Src\stm32l4xx_hal_spi.c ****   * @retval HAL status
 679:E:/LiteOS/LiteOS_Lab/drivers/third_party/ST/STM32L4xx_HAL_Driver/Src\stm32l4xx_hal_spi.c ****   */
 680:E:/LiteOS/LiteOS_Lab/drivers/third_party/ST/STM32L4xx_HAL_Driver/Src\stm32l4xx_hal_spi.c **** HAL_StatusTypeDef HAL_SPI_Receive(SPI_HandleTypeDef *hspi, uint8_t *pData, uint16_t Size, uint32_t 
 681:E:/LiteOS/LiteOS_Lab/drivers/third_party/ST/STM32L4xx_HAL_Driver/Src\stm32l4xx_hal_spi.c **** {
 831              		.loc 1 681 0
 832              		.cfi_startproc
 833              		@ args = 0, pretend = 0, frame = 24
 834              		@ frame_needed = 1, uses_anonymous_args = 0
 835 0000 80B5     		push	{r7, lr}
 836              	.LCFI27:
 837              		.cfi_def_cfa_offset 8
 838              		.cfi_offset 7, -8
 839              		.cfi_offset 14, -4
 840 0002 88B0     		sub	sp, sp, #32
 841              	.LCFI28:
 842              		.cfi_def_cfa_offset 40
 843 0004 02AF     		add	r7, sp, #8
 844              	.LCFI29:
 845              		.cfi_def_cfa 7, 32
 846 0006 F860     		str	r0, [r7, #12]
 847 0008 B960     		str	r1, [r7, #8]
 848 000a 3B60     		str	r3, [r7]
 849 000c 1346     		mov	r3, r2	@ movhi
 850 000e FB80     		strh	r3, [r7, #6]	@ movhi
 682:E:/LiteOS/LiteOS_Lab/drivers/third_party/ST/STM32L4xx_HAL_Driver/Src\stm32l4xx_hal_spi.c **** #if (USE_SPI_CRC != 0U)
 683:E:/LiteOS/LiteOS_Lab/drivers/third_party/ST/STM32L4xx_HAL_Driver/Src\stm32l4xx_hal_spi.c ****   __IO uint16_t tmpreg = 0U;
 684:E:/LiteOS/LiteOS_Lab/drivers/third_party/ST/STM32L4xx_HAL_Driver/Src\stm32l4xx_hal_spi.c **** #endif /* USE_SPI_CRC */
 685:E:/LiteOS/LiteOS_Lab/drivers/third_party/ST/STM32L4xx_HAL_Driver/Src\stm32l4xx_hal_spi.c ****   uint32_t tickstart = 0U;
 851              		.loc 1 685 0
 852 0010 0023     		movs	r3, #0
 853 0012 3B61     		str	r3, [r7, #16]
 686:E:/LiteOS/LiteOS_Lab/drivers/third_party/ST/STM32L4xx_HAL_Driver/Src\stm32l4xx_hal_spi.c ****   HAL_StatusTypeDef errorcode = HAL_OK;
 854              		.loc 1 686 0
 855 0014 0023     		movs	r3, #0
 856 0016 FB75     		strb	r3, [r7, #23]
 687:E:/LiteOS/LiteOS_Lab/drivers/third_party/ST/STM32L4xx_HAL_Driver/Src\stm32l4xx_hal_spi.c **** 
 688:E:/LiteOS/LiteOS_Lab/drivers/third_party/ST/STM32L4xx_HAL_Driver/Src\stm32l4xx_hal_spi.c ****   if ((hspi->Init.Mode == SPI_MODE_MASTER) && (hspi->Init.Direction == SPI_DIRECTION_2LINES))
 857              		.loc 1 688 0
 858 0018 FB68     		ldr	r3, [r7, #12]
 859 001a 5B68     		ldr	r3, [r3, #4]
 860 001c B3F5827F 		cmp	r3, #260
ARM GAS  C:\Users\user\AppData\Local\Temp\ccvQ1M9B.s 			page 28


 861 0020 12D1     		bne	.L45
 862              		.loc 1 688 0 is_stmt 0 discriminator 1
 863 0022 FB68     		ldr	r3, [r7, #12]
 864 0024 9B68     		ldr	r3, [r3, #8]
 865 0026 002B     		cmp	r3, #0
 866 0028 0ED1     		bne	.L45
 689:E:/LiteOS/LiteOS_Lab/drivers/third_party/ST/STM32L4xx_HAL_Driver/Src\stm32l4xx_hal_spi.c ****   {
 690:E:/LiteOS/LiteOS_Lab/drivers/third_party/ST/STM32L4xx_HAL_Driver/Src\stm32l4xx_hal_spi.c ****     hspi->State = HAL_SPI_STATE_BUSY_RX;
 867              		.loc 1 690 0 is_stmt 1
 868 002a FB68     		ldr	r3, [r7, #12]
 869 002c 0422     		movs	r2, #4
 870 002e 83F85D20 		strb	r2, [r3, #93]
 691:E:/LiteOS/LiteOS_Lab/drivers/third_party/ST/STM32L4xx_HAL_Driver/Src\stm32l4xx_hal_spi.c ****     /* Call transmit-receive function to send Dummy data on Tx line and generate clock on CLK line 
 692:E:/LiteOS/LiteOS_Lab/drivers/third_party/ST/STM32L4xx_HAL_Driver/Src\stm32l4xx_hal_spi.c ****     return HAL_SPI_TransmitReceive(hspi, pData, pData, Size, Timeout);
 871              		.loc 1 692 0
 872 0032 FA88     		ldrh	r2, [r7, #6]
 873 0034 3B68     		ldr	r3, [r7]
 874 0036 0093     		str	r3, [sp]
 875 0038 1346     		mov	r3, r2
 876 003a BA68     		ldr	r2, [r7, #8]
 877 003c B968     		ldr	r1, [r7, #8]
 878 003e F868     		ldr	r0, [r7, #12]
 879 0040 FFF7FEFF 		bl	HAL_SPI_TransmitReceive
 880 0044 0346     		mov	r3, r0
 881 0046 FAE0     		b	.L46
 882              	.L45:
 693:E:/LiteOS/LiteOS_Lab/drivers/third_party/ST/STM32L4xx_HAL_Driver/Src\stm32l4xx_hal_spi.c ****   }
 694:E:/LiteOS/LiteOS_Lab/drivers/third_party/ST/STM32L4xx_HAL_Driver/Src\stm32l4xx_hal_spi.c **** 
 695:E:/LiteOS/LiteOS_Lab/drivers/third_party/ST/STM32L4xx_HAL_Driver/Src\stm32l4xx_hal_spi.c ****   /* Process Locked */
 696:E:/LiteOS/LiteOS_Lab/drivers/third_party/ST/STM32L4xx_HAL_Driver/Src\stm32l4xx_hal_spi.c ****   __HAL_LOCK(hspi);
 883              		.loc 1 696 0
 884 0048 FB68     		ldr	r3, [r7, #12]
 885 004a 93F85C30 		ldrb	r3, [r3, #92]	@ zero_extendqisi2
 886 004e 012B     		cmp	r3, #1
 887 0050 01D1     		bne	.L47
 888              		.loc 1 696 0 is_stmt 0 discriminator 1
 889 0052 0223     		movs	r3, #2
 890 0054 F3E0     		b	.L46
 891              	.L47:
 892              		.loc 1 696 0 discriminator 2
 893 0056 FB68     		ldr	r3, [r7, #12]
 894 0058 0122     		movs	r2, #1
 895 005a 83F85C20 		strb	r2, [r3, #92]
 697:E:/LiteOS/LiteOS_Lab/drivers/third_party/ST/STM32L4xx_HAL_Driver/Src\stm32l4xx_hal_spi.c **** 
 698:E:/LiteOS/LiteOS_Lab/drivers/third_party/ST/STM32L4xx_HAL_Driver/Src\stm32l4xx_hal_spi.c ****   /* Init tickstart for timeout management*/
 699:E:/LiteOS/LiteOS_Lab/drivers/third_party/ST/STM32L4xx_HAL_Driver/Src\stm32l4xx_hal_spi.c ****   tickstart = HAL_GetTick();
 896              		.loc 1 699 0 is_stmt 1 discriminator 2
 897 005e FFF7FEFF 		bl	HAL_GetTick
 898 0062 3861     		str	r0, [r7, #16]
 700:E:/LiteOS/LiteOS_Lab/drivers/third_party/ST/STM32L4xx_HAL_Driver/Src\stm32l4xx_hal_spi.c **** 
 701:E:/LiteOS/LiteOS_Lab/drivers/third_party/ST/STM32L4xx_HAL_Driver/Src\stm32l4xx_hal_spi.c ****   if (hspi->State != HAL_SPI_STATE_READY)
 899              		.loc 1 701 0 discriminator 2
 900 0064 FB68     		ldr	r3, [r7, #12]
 901 0066 93F85D30 		ldrb	r3, [r3, #93]
 902 006a DBB2     		uxtb	r3, r3
 903 006c 012B     		cmp	r3, #1
 904 006e 02D0     		beq	.L48
ARM GAS  C:\Users\user\AppData\Local\Temp\ccvQ1M9B.s 			page 29


 702:E:/LiteOS/LiteOS_Lab/drivers/third_party/ST/STM32L4xx_HAL_Driver/Src\stm32l4xx_hal_spi.c ****   {
 703:E:/LiteOS/LiteOS_Lab/drivers/third_party/ST/STM32L4xx_HAL_Driver/Src\stm32l4xx_hal_spi.c ****     errorcode = HAL_BUSY;
 905              		.loc 1 703 0
 906 0070 0223     		movs	r3, #2
 907 0072 FB75     		strb	r3, [r7, #23]
 704:E:/LiteOS/LiteOS_Lab/drivers/third_party/ST/STM32L4xx_HAL_Driver/Src\stm32l4xx_hal_spi.c ****     goto error;
 908              		.loc 1 704 0
 909 0074 DAE0     		b	.L49
 910              	.L48:
 705:E:/LiteOS/LiteOS_Lab/drivers/third_party/ST/STM32L4xx_HAL_Driver/Src\stm32l4xx_hal_spi.c ****   }
 706:E:/LiteOS/LiteOS_Lab/drivers/third_party/ST/STM32L4xx_HAL_Driver/Src\stm32l4xx_hal_spi.c **** 
 707:E:/LiteOS/LiteOS_Lab/drivers/third_party/ST/STM32L4xx_HAL_Driver/Src\stm32l4xx_hal_spi.c ****   if ((pData == NULL) || (Size == 0U))
 911              		.loc 1 707 0
 912 0076 BB68     		ldr	r3, [r7, #8]
 913 0078 002B     		cmp	r3, #0
 914 007a 02D0     		beq	.L50
 915              		.loc 1 707 0 is_stmt 0 discriminator 1
 916 007c FB88     		ldrh	r3, [r7, #6]
 917 007e 002B     		cmp	r3, #0
 918 0080 02D1     		bne	.L51
 919              	.L50:
 708:E:/LiteOS/LiteOS_Lab/drivers/third_party/ST/STM32L4xx_HAL_Driver/Src\stm32l4xx_hal_spi.c ****   {
 709:E:/LiteOS/LiteOS_Lab/drivers/third_party/ST/STM32L4xx_HAL_Driver/Src\stm32l4xx_hal_spi.c ****     errorcode = HAL_ERROR;
 920              		.loc 1 709 0 is_stmt 1
 921 0082 0123     		movs	r3, #1
 922 0084 FB75     		strb	r3, [r7, #23]
 710:E:/LiteOS/LiteOS_Lab/drivers/third_party/ST/STM32L4xx_HAL_Driver/Src\stm32l4xx_hal_spi.c ****     goto error;
 923              		.loc 1 710 0
 924 0086 D1E0     		b	.L49
 925              	.L51:
 711:E:/LiteOS/LiteOS_Lab/drivers/third_party/ST/STM32L4xx_HAL_Driver/Src\stm32l4xx_hal_spi.c ****   }
 712:E:/LiteOS/LiteOS_Lab/drivers/third_party/ST/STM32L4xx_HAL_Driver/Src\stm32l4xx_hal_spi.c **** 
 713:E:/LiteOS/LiteOS_Lab/drivers/third_party/ST/STM32L4xx_HAL_Driver/Src\stm32l4xx_hal_spi.c ****   /* Set the transaction information */
 714:E:/LiteOS/LiteOS_Lab/drivers/third_party/ST/STM32L4xx_HAL_Driver/Src\stm32l4xx_hal_spi.c ****   hspi->State       = HAL_SPI_STATE_BUSY_RX;
 926              		.loc 1 714 0
 927 0088 FB68     		ldr	r3, [r7, #12]
 928 008a 0422     		movs	r2, #4
 929 008c 83F85D20 		strb	r2, [r3, #93]
 715:E:/LiteOS/LiteOS_Lab/drivers/third_party/ST/STM32L4xx_HAL_Driver/Src\stm32l4xx_hal_spi.c ****   hspi->ErrorCode   = HAL_SPI_ERROR_NONE;
 930              		.loc 1 715 0
 931 0090 FB68     		ldr	r3, [r7, #12]
 932 0092 0022     		movs	r2, #0
 933 0094 1A66     		str	r2, [r3, #96]
 716:E:/LiteOS/LiteOS_Lab/drivers/third_party/ST/STM32L4xx_HAL_Driver/Src\stm32l4xx_hal_spi.c ****   hspi->pRxBuffPtr  = (uint8_t *)pData;
 934              		.loc 1 716 0
 935 0096 FB68     		ldr	r3, [r7, #12]
 936 0098 BA68     		ldr	r2, [r7, #8]
 937 009a 1A64     		str	r2, [r3, #64]
 717:E:/LiteOS/LiteOS_Lab/drivers/third_party/ST/STM32L4xx_HAL_Driver/Src\stm32l4xx_hal_spi.c ****   hspi->RxXferSize  = Size;
 938              		.loc 1 717 0
 939 009c FB68     		ldr	r3, [r7, #12]
 940 009e FA88     		ldrh	r2, [r7, #6]	@ movhi
 941 00a0 A3F84420 		strh	r2, [r3, #68]	@ movhi
 718:E:/LiteOS/LiteOS_Lab/drivers/third_party/ST/STM32L4xx_HAL_Driver/Src\stm32l4xx_hal_spi.c ****   hspi->RxXferCount = Size;
 942              		.loc 1 718 0
 943 00a4 FB68     		ldr	r3, [r7, #12]
 944 00a6 FA88     		ldrh	r2, [r7, #6]	@ movhi
ARM GAS  C:\Users\user\AppData\Local\Temp\ccvQ1M9B.s 			page 30


 945 00a8 A3F84620 		strh	r2, [r3, #70]	@ movhi
 719:E:/LiteOS/LiteOS_Lab/drivers/third_party/ST/STM32L4xx_HAL_Driver/Src\stm32l4xx_hal_spi.c **** 
 720:E:/LiteOS/LiteOS_Lab/drivers/third_party/ST/STM32L4xx_HAL_Driver/Src\stm32l4xx_hal_spi.c ****   /*Init field not used in handle to zero */
 721:E:/LiteOS/LiteOS_Lab/drivers/third_party/ST/STM32L4xx_HAL_Driver/Src\stm32l4xx_hal_spi.c ****   hspi->pTxBuffPtr  = (uint8_t *)NULL;
 946              		.loc 1 721 0
 947 00ac FB68     		ldr	r3, [r7, #12]
 948 00ae 0022     		movs	r2, #0
 949 00b0 9A63     		str	r2, [r3, #56]
 722:E:/LiteOS/LiteOS_Lab/drivers/third_party/ST/STM32L4xx_HAL_Driver/Src\stm32l4xx_hal_spi.c ****   hspi->TxXferSize  = 0U;
 950              		.loc 1 722 0
 951 00b2 FB68     		ldr	r3, [r7, #12]
 952 00b4 0022     		movs	r2, #0
 953 00b6 9A87     		strh	r2, [r3, #60]	@ movhi
 723:E:/LiteOS/LiteOS_Lab/drivers/third_party/ST/STM32L4xx_HAL_Driver/Src\stm32l4xx_hal_spi.c ****   hspi->TxXferCount = 0U;
 954              		.loc 1 723 0
 955 00b8 FB68     		ldr	r3, [r7, #12]
 956 00ba 0022     		movs	r2, #0
 957 00bc DA87     		strh	r2, [r3, #62]	@ movhi
 724:E:/LiteOS/LiteOS_Lab/drivers/third_party/ST/STM32L4xx_HAL_Driver/Src\stm32l4xx_hal_spi.c ****   hspi->RxISR       = NULL;
 958              		.loc 1 724 0
 959 00be FB68     		ldr	r3, [r7, #12]
 960 00c0 0022     		movs	r2, #0
 961 00c2 DA64     		str	r2, [r3, #76]
 725:E:/LiteOS/LiteOS_Lab/drivers/third_party/ST/STM32L4xx_HAL_Driver/Src\stm32l4xx_hal_spi.c ****   hspi->TxISR       = NULL;
 962              		.loc 1 725 0
 963 00c4 FB68     		ldr	r3, [r7, #12]
 964 00c6 0022     		movs	r2, #0
 965 00c8 1A65     		str	r2, [r3, #80]
 726:E:/LiteOS/LiteOS_Lab/drivers/third_party/ST/STM32L4xx_HAL_Driver/Src\stm32l4xx_hal_spi.c **** 
 727:E:/LiteOS/LiteOS_Lab/drivers/third_party/ST/STM32L4xx_HAL_Driver/Src\stm32l4xx_hal_spi.c **** #if (USE_SPI_CRC != 0U)
 728:E:/LiteOS/LiteOS_Lab/drivers/third_party/ST/STM32L4xx_HAL_Driver/Src\stm32l4xx_hal_spi.c ****   /* Reset CRC Calculation */
 729:E:/LiteOS/LiteOS_Lab/drivers/third_party/ST/STM32L4xx_HAL_Driver/Src\stm32l4xx_hal_spi.c ****   if (hspi->Init.CRCCalculation == SPI_CRCCALCULATION_ENABLE)
 730:E:/LiteOS/LiteOS_Lab/drivers/third_party/ST/STM32L4xx_HAL_Driver/Src\stm32l4xx_hal_spi.c ****   {
 731:E:/LiteOS/LiteOS_Lab/drivers/third_party/ST/STM32L4xx_HAL_Driver/Src\stm32l4xx_hal_spi.c ****     SPI_RESET_CRC(hspi);
 732:E:/LiteOS/LiteOS_Lab/drivers/third_party/ST/STM32L4xx_HAL_Driver/Src\stm32l4xx_hal_spi.c ****     /* this is done to handle the CRCNEXT before the latest data */
 733:E:/LiteOS/LiteOS_Lab/drivers/third_party/ST/STM32L4xx_HAL_Driver/Src\stm32l4xx_hal_spi.c ****     hspi->RxXferCount--;
 734:E:/LiteOS/LiteOS_Lab/drivers/third_party/ST/STM32L4xx_HAL_Driver/Src\stm32l4xx_hal_spi.c ****   }
 735:E:/LiteOS/LiteOS_Lab/drivers/third_party/ST/STM32L4xx_HAL_Driver/Src\stm32l4xx_hal_spi.c **** #endif /* USE_SPI_CRC */
 736:E:/LiteOS/LiteOS_Lab/drivers/third_party/ST/STM32L4xx_HAL_Driver/Src\stm32l4xx_hal_spi.c **** 
 737:E:/LiteOS/LiteOS_Lab/drivers/third_party/ST/STM32L4xx_HAL_Driver/Src\stm32l4xx_hal_spi.c ****   /* Set the Rx Fifo threshold */
 738:E:/LiteOS/LiteOS_Lab/drivers/third_party/ST/STM32L4xx_HAL_Driver/Src\stm32l4xx_hal_spi.c ****   if (hspi->Init.DataSize > SPI_DATASIZE_8BIT)
 966              		.loc 1 738 0
 967 00ca FB68     		ldr	r3, [r7, #12]
 968 00cc DB68     		ldr	r3, [r3, #12]
 969 00ce B3F5E06F 		cmp	r3, #1792
 970 00d2 08D9     		bls	.L52
 739:E:/LiteOS/LiteOS_Lab/drivers/third_party/ST/STM32L4xx_HAL_Driver/Src\stm32l4xx_hal_spi.c ****   {
 740:E:/LiteOS/LiteOS_Lab/drivers/third_party/ST/STM32L4xx_HAL_Driver/Src\stm32l4xx_hal_spi.c ****     /* Set RX Fifo threshold according the reception data length: 16bit */
 741:E:/LiteOS/LiteOS_Lab/drivers/third_party/ST/STM32L4xx_HAL_Driver/Src\stm32l4xx_hal_spi.c ****     CLEAR_BIT(hspi->Instance->CR2, SPI_RXFIFO_THRESHOLD);
 971              		.loc 1 741 0
 972 00d4 FB68     		ldr	r3, [r7, #12]
 973 00d6 1B68     		ldr	r3, [r3]
 974 00d8 5A68     		ldr	r2, [r3, #4]
 975 00da FB68     		ldr	r3, [r7, #12]
 976 00dc 1B68     		ldr	r3, [r3]
 977 00de 22F48052 		bic	r2, r2, #4096
 978 00e2 5A60     		str	r2, [r3, #4]
ARM GAS  C:\Users\user\AppData\Local\Temp\ccvQ1M9B.s 			page 31


 979 00e4 07E0     		b	.L53
 980              	.L52:
 742:E:/LiteOS/LiteOS_Lab/drivers/third_party/ST/STM32L4xx_HAL_Driver/Src\stm32l4xx_hal_spi.c ****   }
 743:E:/LiteOS/LiteOS_Lab/drivers/third_party/ST/STM32L4xx_HAL_Driver/Src\stm32l4xx_hal_spi.c ****   else
 744:E:/LiteOS/LiteOS_Lab/drivers/third_party/ST/STM32L4xx_HAL_Driver/Src\stm32l4xx_hal_spi.c ****   {
 745:E:/LiteOS/LiteOS_Lab/drivers/third_party/ST/STM32L4xx_HAL_Driver/Src\stm32l4xx_hal_spi.c ****     /* Set RX Fifo threshold according the reception data length: 8bit */
 746:E:/LiteOS/LiteOS_Lab/drivers/third_party/ST/STM32L4xx_HAL_Driver/Src\stm32l4xx_hal_spi.c ****     SET_BIT(hspi->Instance->CR2, SPI_RXFIFO_THRESHOLD);
 981              		.loc 1 746 0
 982 00e6 FB68     		ldr	r3, [r7, #12]
 983 00e8 1B68     		ldr	r3, [r3]
 984 00ea 5A68     		ldr	r2, [r3, #4]
 985 00ec FB68     		ldr	r3, [r7, #12]
 986 00ee 1B68     		ldr	r3, [r3]
 987 00f0 42F48052 		orr	r2, r2, #4096
 988 00f4 5A60     		str	r2, [r3, #4]
 989              	.L53:
 747:E:/LiteOS/LiteOS_Lab/drivers/third_party/ST/STM32L4xx_HAL_Driver/Src\stm32l4xx_hal_spi.c ****   }
 748:E:/LiteOS/LiteOS_Lab/drivers/third_party/ST/STM32L4xx_HAL_Driver/Src\stm32l4xx_hal_spi.c **** 
 749:E:/LiteOS/LiteOS_Lab/drivers/third_party/ST/STM32L4xx_HAL_Driver/Src\stm32l4xx_hal_spi.c ****   /* Configure communication direction: 1Line */
 750:E:/LiteOS/LiteOS_Lab/drivers/third_party/ST/STM32L4xx_HAL_Driver/Src\stm32l4xx_hal_spi.c ****   if (hspi->Init.Direction == SPI_DIRECTION_1LINE)
 990              		.loc 1 750 0
 991 00f6 FB68     		ldr	r3, [r7, #12]
 992 00f8 9B68     		ldr	r3, [r3, #8]
 993 00fa B3F5004F 		cmp	r3, #32768
 994 00fe 07D1     		bne	.L54
 751:E:/LiteOS/LiteOS_Lab/drivers/third_party/ST/STM32L4xx_HAL_Driver/Src\stm32l4xx_hal_spi.c ****   {
 752:E:/LiteOS/LiteOS_Lab/drivers/third_party/ST/STM32L4xx_HAL_Driver/Src\stm32l4xx_hal_spi.c ****     SPI_1LINE_RX(hspi);
 995              		.loc 1 752 0
 996 0100 FB68     		ldr	r3, [r7, #12]
 997 0102 1B68     		ldr	r3, [r3]
 998 0104 1A68     		ldr	r2, [r3]
 999 0106 FB68     		ldr	r3, [r7, #12]
 1000 0108 1B68     		ldr	r3, [r3]
 1001 010a 22F48042 		bic	r2, r2, #16384
 1002 010e 1A60     		str	r2, [r3]
 1003              	.L54:
 753:E:/LiteOS/LiteOS_Lab/drivers/third_party/ST/STM32L4xx_HAL_Driver/Src\stm32l4xx_hal_spi.c ****   }
 754:E:/LiteOS/LiteOS_Lab/drivers/third_party/ST/STM32L4xx_HAL_Driver/Src\stm32l4xx_hal_spi.c **** 
 755:E:/LiteOS/LiteOS_Lab/drivers/third_party/ST/STM32L4xx_HAL_Driver/Src\stm32l4xx_hal_spi.c ****   /* Check if the SPI is already enabled */
 756:E:/LiteOS/LiteOS_Lab/drivers/third_party/ST/STM32L4xx_HAL_Driver/Src\stm32l4xx_hal_spi.c ****   if ((hspi->Instance->CR1 & SPI_CR1_SPE) != SPI_CR1_SPE)
 1004              		.loc 1 756 0
 1005 0110 FB68     		ldr	r3, [r7, #12]
 1006 0112 1B68     		ldr	r3, [r3]
 1007 0114 1B68     		ldr	r3, [r3]
 1008 0116 03F04003 		and	r3, r3, #64
 1009 011a 402B     		cmp	r3, #64
 1010 011c 07D0     		beq	.L55
 757:E:/LiteOS/LiteOS_Lab/drivers/third_party/ST/STM32L4xx_HAL_Driver/Src\stm32l4xx_hal_spi.c ****   {
 758:E:/LiteOS/LiteOS_Lab/drivers/third_party/ST/STM32L4xx_HAL_Driver/Src\stm32l4xx_hal_spi.c ****     /* Enable SPI peripheral */
 759:E:/LiteOS/LiteOS_Lab/drivers/third_party/ST/STM32L4xx_HAL_Driver/Src\stm32l4xx_hal_spi.c ****     __HAL_SPI_ENABLE(hspi);
 1011              		.loc 1 759 0
 1012 011e FB68     		ldr	r3, [r7, #12]
 1013 0120 1B68     		ldr	r3, [r3]
 1014 0122 1A68     		ldr	r2, [r3]
 1015 0124 FB68     		ldr	r3, [r7, #12]
 1016 0126 1B68     		ldr	r3, [r3]
 1017 0128 42F04002 		orr	r2, r2, #64
ARM GAS  C:\Users\user\AppData\Local\Temp\ccvQ1M9B.s 			page 32


 1018 012c 1A60     		str	r2, [r3]
 1019              	.L55:
 760:E:/LiteOS/LiteOS_Lab/drivers/third_party/ST/STM32L4xx_HAL_Driver/Src\stm32l4xx_hal_spi.c ****   }
 761:E:/LiteOS/LiteOS_Lab/drivers/third_party/ST/STM32L4xx_HAL_Driver/Src\stm32l4xx_hal_spi.c **** 
 762:E:/LiteOS/LiteOS_Lab/drivers/third_party/ST/STM32L4xx_HAL_Driver/Src\stm32l4xx_hal_spi.c ****   /* Receive data in 8 Bit mode */
 763:E:/LiteOS/LiteOS_Lab/drivers/third_party/ST/STM32L4xx_HAL_Driver/Src\stm32l4xx_hal_spi.c ****   if (hspi->Init.DataSize <= SPI_DATASIZE_8BIT)
 1020              		.loc 1 763 0
 1021 012e FB68     		ldr	r3, [r7, #12]
 1022 0130 DB68     		ldr	r3, [r3, #12]
 1023 0132 B3F5E06F 		cmp	r3, #1792
 1024 0136 60D8     		bhi	.L62
 764:E:/LiteOS/LiteOS_Lab/drivers/third_party/ST/STM32L4xx_HAL_Driver/Src\stm32l4xx_hal_spi.c ****   {
 765:E:/LiteOS/LiteOS_Lab/drivers/third_party/ST/STM32L4xx_HAL_Driver/Src\stm32l4xx_hal_spi.c ****     /* Transfer loop */
 766:E:/LiteOS/LiteOS_Lab/drivers/third_party/ST/STM32L4xx_HAL_Driver/Src\stm32l4xx_hal_spi.c ****     while (hspi->RxXferCount > 0U)
 1025              		.loc 1 766 0
 1026 0138 2CE0     		b	.L57
 1027              	.L60:
 767:E:/LiteOS/LiteOS_Lab/drivers/third_party/ST/STM32L4xx_HAL_Driver/Src\stm32l4xx_hal_spi.c ****     {
 768:E:/LiteOS/LiteOS_Lab/drivers/third_party/ST/STM32L4xx_HAL_Driver/Src\stm32l4xx_hal_spi.c ****       /* Check the RXNE flag */
 769:E:/LiteOS/LiteOS_Lab/drivers/third_party/ST/STM32L4xx_HAL_Driver/Src\stm32l4xx_hal_spi.c ****       if (__HAL_SPI_GET_FLAG(hspi, SPI_FLAG_RXNE))
 1028              		.loc 1 769 0
 1029 013a FB68     		ldr	r3, [r7, #12]
 1030 013c 1B68     		ldr	r3, [r3]
 1031 013e 9B68     		ldr	r3, [r3, #8]
 1032 0140 03F00103 		and	r3, r3, #1
 1033 0144 012B     		cmp	r3, #1
 1034 0146 13D1     		bne	.L58
 770:E:/LiteOS/LiteOS_Lab/drivers/third_party/ST/STM32L4xx_HAL_Driver/Src\stm32l4xx_hal_spi.c ****       {
 771:E:/LiteOS/LiteOS_Lab/drivers/third_party/ST/STM32L4xx_HAL_Driver/Src\stm32l4xx_hal_spi.c ****         /* read the received data */
 772:E:/LiteOS/LiteOS_Lab/drivers/third_party/ST/STM32L4xx_HAL_Driver/Src\stm32l4xx_hal_spi.c ****         (* (uint8_t *)pData) = *(__IO uint8_t *)&hspi->Instance->DR;
 1035              		.loc 1 772 0
 1036 0148 FB68     		ldr	r3, [r7, #12]
 1037 014a 1B68     		ldr	r3, [r3]
 1038 014c 0C33     		adds	r3, r3, #12
 1039 014e 1B78     		ldrb	r3, [r3]
 1040 0150 DAB2     		uxtb	r2, r3
 1041 0152 BB68     		ldr	r3, [r7, #8]
 1042 0154 1A70     		strb	r2, [r3]
 773:E:/LiteOS/LiteOS_Lab/drivers/third_party/ST/STM32L4xx_HAL_Driver/Src\stm32l4xx_hal_spi.c ****         pData += sizeof(uint8_t);
 1043              		.loc 1 773 0
 1044 0156 BB68     		ldr	r3, [r7, #8]
 1045 0158 0133     		adds	r3, r3, #1
 1046 015a BB60     		str	r3, [r7, #8]
 774:E:/LiteOS/LiteOS_Lab/drivers/third_party/ST/STM32L4xx_HAL_Driver/Src\stm32l4xx_hal_spi.c ****         hspi->RxXferCount--;
 1047              		.loc 1 774 0
 1048 015c FB68     		ldr	r3, [r7, #12]
 1049 015e B3F84630 		ldrh	r3, [r3, #70]	@ movhi
 1050 0162 9BB2     		uxth	r3, r3
 1051 0164 013B     		subs	r3, r3, #1
 1052 0166 9AB2     		uxth	r2, r3
 1053 0168 FB68     		ldr	r3, [r7, #12]
 1054 016a A3F84620 		strh	r2, [r3, #70]	@ movhi
 1055 016e 11E0     		b	.L57
 1056              	.L58:
 775:E:/LiteOS/LiteOS_Lab/drivers/third_party/ST/STM32L4xx_HAL_Driver/Src\stm32l4xx_hal_spi.c ****       }
 776:E:/LiteOS/LiteOS_Lab/drivers/third_party/ST/STM32L4xx_HAL_Driver/Src\stm32l4xx_hal_spi.c ****       else
 777:E:/LiteOS/LiteOS_Lab/drivers/third_party/ST/STM32L4xx_HAL_Driver/Src\stm32l4xx_hal_spi.c ****       {
ARM GAS  C:\Users\user\AppData\Local\Temp\ccvQ1M9B.s 			page 33


 778:E:/LiteOS/LiteOS_Lab/drivers/third_party/ST/STM32L4xx_HAL_Driver/Src\stm32l4xx_hal_spi.c ****         /* Timeout management */
 779:E:/LiteOS/LiteOS_Lab/drivers/third_party/ST/STM32L4xx_HAL_Driver/Src\stm32l4xx_hal_spi.c ****         if ((Timeout == 0U) || ((Timeout != HAL_MAX_DELAY) && ((HAL_GetTick() - tickstart) >=  Time
 1057              		.loc 1 779 0
 1058 0170 3B68     		ldr	r3, [r7]
 1059 0172 002B     		cmp	r3, #0
 1060 0174 0BD0     		beq	.L59
 1061              		.loc 1 779 0 is_stmt 0 discriminator 1
 1062 0176 3B68     		ldr	r3, [r7]
 1063 0178 B3F1FF3F 		cmp	r3, #-1
 1064 017c 0AD0     		beq	.L57
 1065              		.loc 1 779 0 discriminator 2
 1066 017e FFF7FEFF 		bl	HAL_GetTick
 1067 0182 0246     		mov	r2, r0
 1068 0184 3B69     		ldr	r3, [r7, #16]
 1069 0186 D31A     		subs	r3, r2, r3
 1070 0188 3A68     		ldr	r2, [r7]
 1071 018a 9A42     		cmp	r2, r3
 1072 018c 02D8     		bhi	.L57
 1073              	.L59:
 780:E:/LiteOS/LiteOS_Lab/drivers/third_party/ST/STM32L4xx_HAL_Driver/Src\stm32l4xx_hal_spi.c ****         {
 781:E:/LiteOS/LiteOS_Lab/drivers/third_party/ST/STM32L4xx_HAL_Driver/Src\stm32l4xx_hal_spi.c ****           errorcode = HAL_TIMEOUT;
 1074              		.loc 1 781 0 is_stmt 1
 1075 018e 0323     		movs	r3, #3
 1076 0190 FB75     		strb	r3, [r7, #23]
 782:E:/LiteOS/LiteOS_Lab/drivers/third_party/ST/STM32L4xx_HAL_Driver/Src\stm32l4xx_hal_spi.c ****           goto error;
 1077              		.loc 1 782 0
 1078 0192 4BE0     		b	.L49
 1079              	.L57:
 766:E:/LiteOS/LiteOS_Lab/drivers/third_party/ST/STM32L4xx_HAL_Driver/Src\stm32l4xx_hal_spi.c ****     {
 1080              		.loc 1 766 0
 1081 0194 FB68     		ldr	r3, [r7, #12]
 1082 0196 B3F84630 		ldrh	r3, [r3, #70]	@ movhi
 1083 019a 9BB2     		uxth	r3, r3
 1084 019c 002B     		cmp	r3, #0
 1085 019e CCD1     		bne	.L60
 1086 01a0 31E0     		b	.L61
 1087              	.L65:
 783:E:/LiteOS/LiteOS_Lab/drivers/third_party/ST/STM32L4xx_HAL_Driver/Src\stm32l4xx_hal_spi.c ****         }
 784:E:/LiteOS/LiteOS_Lab/drivers/third_party/ST/STM32L4xx_HAL_Driver/Src\stm32l4xx_hal_spi.c ****       }
 785:E:/LiteOS/LiteOS_Lab/drivers/third_party/ST/STM32L4xx_HAL_Driver/Src\stm32l4xx_hal_spi.c ****     }
 786:E:/LiteOS/LiteOS_Lab/drivers/third_party/ST/STM32L4xx_HAL_Driver/Src\stm32l4xx_hal_spi.c ****   }
 787:E:/LiteOS/LiteOS_Lab/drivers/third_party/ST/STM32L4xx_HAL_Driver/Src\stm32l4xx_hal_spi.c ****   else
 788:E:/LiteOS/LiteOS_Lab/drivers/third_party/ST/STM32L4xx_HAL_Driver/Src\stm32l4xx_hal_spi.c ****   {
 789:E:/LiteOS/LiteOS_Lab/drivers/third_party/ST/STM32L4xx_HAL_Driver/Src\stm32l4xx_hal_spi.c ****     /* Transfer loop */
 790:E:/LiteOS/LiteOS_Lab/drivers/third_party/ST/STM32L4xx_HAL_Driver/Src\stm32l4xx_hal_spi.c ****     while (hspi->RxXferCount > 0U)
 791:E:/LiteOS/LiteOS_Lab/drivers/third_party/ST/STM32L4xx_HAL_Driver/Src\stm32l4xx_hal_spi.c ****     {
 792:E:/LiteOS/LiteOS_Lab/drivers/third_party/ST/STM32L4xx_HAL_Driver/Src\stm32l4xx_hal_spi.c ****       /* Check the RXNE flag */
 793:E:/LiteOS/LiteOS_Lab/drivers/third_party/ST/STM32L4xx_HAL_Driver/Src\stm32l4xx_hal_spi.c ****       if (__HAL_SPI_GET_FLAG(hspi, SPI_FLAG_RXNE))
 1088              		.loc 1 793 0
 1089 01a2 FB68     		ldr	r3, [r7, #12]
 1090 01a4 1B68     		ldr	r3, [r3]
 1091 01a6 9B68     		ldr	r3, [r3, #8]
 1092 01a8 03F00103 		and	r3, r3, #1
 1093 01ac 012B     		cmp	r3, #1
 1094 01ae 12D1     		bne	.L63
 794:E:/LiteOS/LiteOS_Lab/drivers/third_party/ST/STM32L4xx_HAL_Driver/Src\stm32l4xx_hal_spi.c ****       {
 795:E:/LiteOS/LiteOS_Lab/drivers/third_party/ST/STM32L4xx_HAL_Driver/Src\stm32l4xx_hal_spi.c ****         *((uint16_t *)pData) = hspi->Instance->DR;
ARM GAS  C:\Users\user\AppData\Local\Temp\ccvQ1M9B.s 			page 34


 1095              		.loc 1 795 0
 1096 01b0 FB68     		ldr	r3, [r7, #12]
 1097 01b2 1B68     		ldr	r3, [r3]
 1098 01b4 DB68     		ldr	r3, [r3, #12]
 1099 01b6 9AB2     		uxth	r2, r3
 1100 01b8 BB68     		ldr	r3, [r7, #8]
 1101 01ba 1A80     		strh	r2, [r3]	@ movhi
 796:E:/LiteOS/LiteOS_Lab/drivers/third_party/ST/STM32L4xx_HAL_Driver/Src\stm32l4xx_hal_spi.c ****         pData += sizeof(uint16_t);
 1102              		.loc 1 796 0
 1103 01bc BB68     		ldr	r3, [r7, #8]
 1104 01be 0233     		adds	r3, r3, #2
 1105 01c0 BB60     		str	r3, [r7, #8]
 797:E:/LiteOS/LiteOS_Lab/drivers/third_party/ST/STM32L4xx_HAL_Driver/Src\stm32l4xx_hal_spi.c ****         hspi->RxXferCount--;
 1106              		.loc 1 797 0
 1107 01c2 FB68     		ldr	r3, [r7, #12]
 1108 01c4 B3F84630 		ldrh	r3, [r3, #70]	@ movhi
 1109 01c8 9BB2     		uxth	r3, r3
 1110 01ca 013B     		subs	r3, r3, #1
 1111 01cc 9AB2     		uxth	r2, r3
 1112 01ce FB68     		ldr	r3, [r7, #12]
 1113 01d0 A3F84620 		strh	r2, [r3, #70]	@ movhi
 1114 01d4 11E0     		b	.L62
 1115              	.L63:
 798:E:/LiteOS/LiteOS_Lab/drivers/third_party/ST/STM32L4xx_HAL_Driver/Src\stm32l4xx_hal_spi.c ****       }
 799:E:/LiteOS/LiteOS_Lab/drivers/third_party/ST/STM32L4xx_HAL_Driver/Src\stm32l4xx_hal_spi.c ****       else
 800:E:/LiteOS/LiteOS_Lab/drivers/third_party/ST/STM32L4xx_HAL_Driver/Src\stm32l4xx_hal_spi.c ****       {
 801:E:/LiteOS/LiteOS_Lab/drivers/third_party/ST/STM32L4xx_HAL_Driver/Src\stm32l4xx_hal_spi.c ****         /* Timeout management */
 802:E:/LiteOS/LiteOS_Lab/drivers/third_party/ST/STM32L4xx_HAL_Driver/Src\stm32l4xx_hal_spi.c ****         if ((Timeout == 0U) || ((Timeout != HAL_MAX_DELAY) && ((HAL_GetTick() - tickstart) >=  Time
 1116              		.loc 1 802 0
 1117 01d6 3B68     		ldr	r3, [r7]
 1118 01d8 002B     		cmp	r3, #0
 1119 01da 0BD0     		beq	.L64
 1120              		.loc 1 802 0 is_stmt 0 discriminator 1
 1121 01dc 3B68     		ldr	r3, [r7]
 1122 01de B3F1FF3F 		cmp	r3, #-1
 1123 01e2 0AD0     		beq	.L62
 1124              		.loc 1 802 0 discriminator 2
 1125 01e4 FFF7FEFF 		bl	HAL_GetTick
 1126 01e8 0246     		mov	r2, r0
 1127 01ea 3B69     		ldr	r3, [r7, #16]
 1128 01ec D31A     		subs	r3, r2, r3
 1129 01ee 3A68     		ldr	r2, [r7]
 1130 01f0 9A42     		cmp	r2, r3
 1131 01f2 02D8     		bhi	.L62
 1132              	.L64:
 803:E:/LiteOS/LiteOS_Lab/drivers/third_party/ST/STM32L4xx_HAL_Driver/Src\stm32l4xx_hal_spi.c ****         {
 804:E:/LiteOS/LiteOS_Lab/drivers/third_party/ST/STM32L4xx_HAL_Driver/Src\stm32l4xx_hal_spi.c ****           errorcode = HAL_TIMEOUT;
 1133              		.loc 1 804 0 is_stmt 1
 1134 01f4 0323     		movs	r3, #3
 1135 01f6 FB75     		strb	r3, [r7, #23]
 805:E:/LiteOS/LiteOS_Lab/drivers/third_party/ST/STM32L4xx_HAL_Driver/Src\stm32l4xx_hal_spi.c ****           goto error;
 1136              		.loc 1 805 0
 1137 01f8 18E0     		b	.L49
 1138              	.L62:
 790:E:/LiteOS/LiteOS_Lab/drivers/third_party/ST/STM32L4xx_HAL_Driver/Src\stm32l4xx_hal_spi.c ****     {
 1139              		.loc 1 790 0
 1140 01fa FB68     		ldr	r3, [r7, #12]
ARM GAS  C:\Users\user\AppData\Local\Temp\ccvQ1M9B.s 			page 35


 1141 01fc B3F84630 		ldrh	r3, [r3, #70]	@ movhi
 1142 0200 9BB2     		uxth	r3, r3
 1143 0202 002B     		cmp	r3, #0
 1144 0204 CDD1     		bne	.L65
 1145              	.L61:
 806:E:/LiteOS/LiteOS_Lab/drivers/third_party/ST/STM32L4xx_HAL_Driver/Src\stm32l4xx_hal_spi.c ****         }
 807:E:/LiteOS/LiteOS_Lab/drivers/third_party/ST/STM32L4xx_HAL_Driver/Src\stm32l4xx_hal_spi.c ****       }
 808:E:/LiteOS/LiteOS_Lab/drivers/third_party/ST/STM32L4xx_HAL_Driver/Src\stm32l4xx_hal_spi.c ****     }
 809:E:/LiteOS/LiteOS_Lab/drivers/third_party/ST/STM32L4xx_HAL_Driver/Src\stm32l4xx_hal_spi.c ****   }
 810:E:/LiteOS/LiteOS_Lab/drivers/third_party/ST/STM32L4xx_HAL_Driver/Src\stm32l4xx_hal_spi.c **** 
 811:E:/LiteOS/LiteOS_Lab/drivers/third_party/ST/STM32L4xx_HAL_Driver/Src\stm32l4xx_hal_spi.c **** #if (USE_SPI_CRC != 0U)
 812:E:/LiteOS/LiteOS_Lab/drivers/third_party/ST/STM32L4xx_HAL_Driver/Src\stm32l4xx_hal_spi.c ****   /* Handle the CRC Transmission */
 813:E:/LiteOS/LiteOS_Lab/drivers/third_party/ST/STM32L4xx_HAL_Driver/Src\stm32l4xx_hal_spi.c ****   if (hspi->Init.CRCCalculation == SPI_CRCCALCULATION_ENABLE)
 814:E:/LiteOS/LiteOS_Lab/drivers/third_party/ST/STM32L4xx_HAL_Driver/Src\stm32l4xx_hal_spi.c ****   {
 815:E:/LiteOS/LiteOS_Lab/drivers/third_party/ST/STM32L4xx_HAL_Driver/Src\stm32l4xx_hal_spi.c ****     /* freeze the CRC before the latest data */
 816:E:/LiteOS/LiteOS_Lab/drivers/third_party/ST/STM32L4xx_HAL_Driver/Src\stm32l4xx_hal_spi.c ****     SET_BIT(hspi->Instance->CR1, SPI_CR1_CRCNEXT);
 817:E:/LiteOS/LiteOS_Lab/drivers/third_party/ST/STM32L4xx_HAL_Driver/Src\stm32l4xx_hal_spi.c **** 
 818:E:/LiteOS/LiteOS_Lab/drivers/third_party/ST/STM32L4xx_HAL_Driver/Src\stm32l4xx_hal_spi.c ****     /* Read the latest data */
 819:E:/LiteOS/LiteOS_Lab/drivers/third_party/ST/STM32L4xx_HAL_Driver/Src\stm32l4xx_hal_spi.c ****     if (SPI_WaitFlagStateUntilTimeout(hspi, SPI_FLAG_RXNE, SET, Timeout, tickstart) != HAL_OK)
 820:E:/LiteOS/LiteOS_Lab/drivers/third_party/ST/STM32L4xx_HAL_Driver/Src\stm32l4xx_hal_spi.c ****     {
 821:E:/LiteOS/LiteOS_Lab/drivers/third_party/ST/STM32L4xx_HAL_Driver/Src\stm32l4xx_hal_spi.c ****       /* the latest data has not been received */
 822:E:/LiteOS/LiteOS_Lab/drivers/third_party/ST/STM32L4xx_HAL_Driver/Src\stm32l4xx_hal_spi.c ****       errorcode = HAL_TIMEOUT;
 823:E:/LiteOS/LiteOS_Lab/drivers/third_party/ST/STM32L4xx_HAL_Driver/Src\stm32l4xx_hal_spi.c ****       goto error;
 824:E:/LiteOS/LiteOS_Lab/drivers/third_party/ST/STM32L4xx_HAL_Driver/Src\stm32l4xx_hal_spi.c ****     }
 825:E:/LiteOS/LiteOS_Lab/drivers/third_party/ST/STM32L4xx_HAL_Driver/Src\stm32l4xx_hal_spi.c **** 
 826:E:/LiteOS/LiteOS_Lab/drivers/third_party/ST/STM32L4xx_HAL_Driver/Src\stm32l4xx_hal_spi.c ****     /* Receive last data in 16 Bit mode */
 827:E:/LiteOS/LiteOS_Lab/drivers/third_party/ST/STM32L4xx_HAL_Driver/Src\stm32l4xx_hal_spi.c ****     if (hspi->Init.DataSize > SPI_DATASIZE_8BIT)
 828:E:/LiteOS/LiteOS_Lab/drivers/third_party/ST/STM32L4xx_HAL_Driver/Src\stm32l4xx_hal_spi.c ****     {
 829:E:/LiteOS/LiteOS_Lab/drivers/third_party/ST/STM32L4xx_HAL_Driver/Src\stm32l4xx_hal_spi.c ****       *((uint16_t *)pData) = hspi->Instance->DR;
 830:E:/LiteOS/LiteOS_Lab/drivers/third_party/ST/STM32L4xx_HAL_Driver/Src\stm32l4xx_hal_spi.c ****     }
 831:E:/LiteOS/LiteOS_Lab/drivers/third_party/ST/STM32L4xx_HAL_Driver/Src\stm32l4xx_hal_spi.c ****     /* Receive last data in 8 Bit mode */
 832:E:/LiteOS/LiteOS_Lab/drivers/third_party/ST/STM32L4xx_HAL_Driver/Src\stm32l4xx_hal_spi.c ****     else
 833:E:/LiteOS/LiteOS_Lab/drivers/third_party/ST/STM32L4xx_HAL_Driver/Src\stm32l4xx_hal_spi.c ****     {
 834:E:/LiteOS/LiteOS_Lab/drivers/third_party/ST/STM32L4xx_HAL_Driver/Src\stm32l4xx_hal_spi.c ****       (*(uint8_t *)pData) = *(__IO uint8_t *)&hspi->Instance->DR;
 835:E:/LiteOS/LiteOS_Lab/drivers/third_party/ST/STM32L4xx_HAL_Driver/Src\stm32l4xx_hal_spi.c ****     }
 836:E:/LiteOS/LiteOS_Lab/drivers/third_party/ST/STM32L4xx_HAL_Driver/Src\stm32l4xx_hal_spi.c **** 
 837:E:/LiteOS/LiteOS_Lab/drivers/third_party/ST/STM32L4xx_HAL_Driver/Src\stm32l4xx_hal_spi.c ****     /* Wait the CRC data */
 838:E:/LiteOS/LiteOS_Lab/drivers/third_party/ST/STM32L4xx_HAL_Driver/Src\stm32l4xx_hal_spi.c ****     if (SPI_WaitFlagStateUntilTimeout(hspi, SPI_FLAG_RXNE, SET, Timeout, tickstart) != HAL_OK)
 839:E:/LiteOS/LiteOS_Lab/drivers/third_party/ST/STM32L4xx_HAL_Driver/Src\stm32l4xx_hal_spi.c ****     {
 840:E:/LiteOS/LiteOS_Lab/drivers/third_party/ST/STM32L4xx_HAL_Driver/Src\stm32l4xx_hal_spi.c ****       SET_BIT(hspi->ErrorCode, HAL_SPI_ERROR_CRC);
 841:E:/LiteOS/LiteOS_Lab/drivers/third_party/ST/STM32L4xx_HAL_Driver/Src\stm32l4xx_hal_spi.c ****       errorcode = HAL_TIMEOUT;
 842:E:/LiteOS/LiteOS_Lab/drivers/third_party/ST/STM32L4xx_HAL_Driver/Src\stm32l4xx_hal_spi.c ****       goto error;
 843:E:/LiteOS/LiteOS_Lab/drivers/third_party/ST/STM32L4xx_HAL_Driver/Src\stm32l4xx_hal_spi.c ****     }
 844:E:/LiteOS/LiteOS_Lab/drivers/third_party/ST/STM32L4xx_HAL_Driver/Src\stm32l4xx_hal_spi.c **** 
 845:E:/LiteOS/LiteOS_Lab/drivers/third_party/ST/STM32L4xx_HAL_Driver/Src\stm32l4xx_hal_spi.c ****     /* Read CRC to Flush DR and RXNE flag */
 846:E:/LiteOS/LiteOS_Lab/drivers/third_party/ST/STM32L4xx_HAL_Driver/Src\stm32l4xx_hal_spi.c ****     if (hspi->Init.DataSize == SPI_DATASIZE_16BIT)
 847:E:/LiteOS/LiteOS_Lab/drivers/third_party/ST/STM32L4xx_HAL_Driver/Src\stm32l4xx_hal_spi.c ****     {
 848:E:/LiteOS/LiteOS_Lab/drivers/third_party/ST/STM32L4xx_HAL_Driver/Src\stm32l4xx_hal_spi.c ****       tmpreg = hspi->Instance->DR;
 849:E:/LiteOS/LiteOS_Lab/drivers/third_party/ST/STM32L4xx_HAL_Driver/Src\stm32l4xx_hal_spi.c ****       /* To avoid GCC warning */
 850:E:/LiteOS/LiteOS_Lab/drivers/third_party/ST/STM32L4xx_HAL_Driver/Src\stm32l4xx_hal_spi.c ****       UNUSED(tmpreg);
 851:E:/LiteOS/LiteOS_Lab/drivers/third_party/ST/STM32L4xx_HAL_Driver/Src\stm32l4xx_hal_spi.c ****     }
 852:E:/LiteOS/LiteOS_Lab/drivers/third_party/ST/STM32L4xx_HAL_Driver/Src\stm32l4xx_hal_spi.c ****     else
 853:E:/LiteOS/LiteOS_Lab/drivers/third_party/ST/STM32L4xx_HAL_Driver/Src\stm32l4xx_hal_spi.c ****     {
 854:E:/LiteOS/LiteOS_Lab/drivers/third_party/ST/STM32L4xx_HAL_Driver/Src\stm32l4xx_hal_spi.c ****       tmpreg = *(__IO uint8_t *)&hspi->Instance->DR;
 855:E:/LiteOS/LiteOS_Lab/drivers/third_party/ST/STM32L4xx_HAL_Driver/Src\stm32l4xx_hal_spi.c ****       /* To avoid GCC warning */
 856:E:/LiteOS/LiteOS_Lab/drivers/third_party/ST/STM32L4xx_HAL_Driver/Src\stm32l4xx_hal_spi.c ****       UNUSED(tmpreg);
 857:E:/LiteOS/LiteOS_Lab/drivers/third_party/ST/STM32L4xx_HAL_Driver/Src\stm32l4xx_hal_spi.c **** 
ARM GAS  C:\Users\user\AppData\Local\Temp\ccvQ1M9B.s 			page 36


 858:E:/LiteOS/LiteOS_Lab/drivers/third_party/ST/STM32L4xx_HAL_Driver/Src\stm32l4xx_hal_spi.c ****       if ((hspi->Init.DataSize == SPI_DATASIZE_8BIT) && (hspi->Init.CRCLength == SPI_CRC_LENGTH_16B
 859:E:/LiteOS/LiteOS_Lab/drivers/third_party/ST/STM32L4xx_HAL_Driver/Src\stm32l4xx_hal_spi.c ****       {
 860:E:/LiteOS/LiteOS_Lab/drivers/third_party/ST/STM32L4xx_HAL_Driver/Src\stm32l4xx_hal_spi.c ****         if (SPI_WaitFlagStateUntilTimeout(hspi, SPI_FLAG_RXNE, SPI_FLAG_RXNE, Timeout, tickstart) !
 861:E:/LiteOS/LiteOS_Lab/drivers/third_party/ST/STM32L4xx_HAL_Driver/Src\stm32l4xx_hal_spi.c ****         {
 862:E:/LiteOS/LiteOS_Lab/drivers/third_party/ST/STM32L4xx_HAL_Driver/Src\stm32l4xx_hal_spi.c ****           /* Error on the CRC reception */
 863:E:/LiteOS/LiteOS_Lab/drivers/third_party/ST/STM32L4xx_HAL_Driver/Src\stm32l4xx_hal_spi.c ****           SET_BIT(hspi->ErrorCode, HAL_SPI_ERROR_CRC);
 864:E:/LiteOS/LiteOS_Lab/drivers/third_party/ST/STM32L4xx_HAL_Driver/Src\stm32l4xx_hal_spi.c ****           errorcode = HAL_TIMEOUT;
 865:E:/LiteOS/LiteOS_Lab/drivers/third_party/ST/STM32L4xx_HAL_Driver/Src\stm32l4xx_hal_spi.c ****           goto error;
 866:E:/LiteOS/LiteOS_Lab/drivers/third_party/ST/STM32L4xx_HAL_Driver/Src\stm32l4xx_hal_spi.c ****         }
 867:E:/LiteOS/LiteOS_Lab/drivers/third_party/ST/STM32L4xx_HAL_Driver/Src\stm32l4xx_hal_spi.c ****         tmpreg = *(__IO uint8_t *)&hspi->Instance->DR;
 868:E:/LiteOS/LiteOS_Lab/drivers/third_party/ST/STM32L4xx_HAL_Driver/Src\stm32l4xx_hal_spi.c ****         /* To avoid GCC warning */
 869:E:/LiteOS/LiteOS_Lab/drivers/third_party/ST/STM32L4xx_HAL_Driver/Src\stm32l4xx_hal_spi.c ****         UNUSED(tmpreg);
 870:E:/LiteOS/LiteOS_Lab/drivers/third_party/ST/STM32L4xx_HAL_Driver/Src\stm32l4xx_hal_spi.c ****       }
 871:E:/LiteOS/LiteOS_Lab/drivers/third_party/ST/STM32L4xx_HAL_Driver/Src\stm32l4xx_hal_spi.c ****     }
 872:E:/LiteOS/LiteOS_Lab/drivers/third_party/ST/STM32L4xx_HAL_Driver/Src\stm32l4xx_hal_spi.c ****   }
 873:E:/LiteOS/LiteOS_Lab/drivers/third_party/ST/STM32L4xx_HAL_Driver/Src\stm32l4xx_hal_spi.c **** #endif /* USE_SPI_CRC */
 874:E:/LiteOS/LiteOS_Lab/drivers/third_party/ST/STM32L4xx_HAL_Driver/Src\stm32l4xx_hal_spi.c **** 
 875:E:/LiteOS/LiteOS_Lab/drivers/third_party/ST/STM32L4xx_HAL_Driver/Src\stm32l4xx_hal_spi.c ****   /* Check the end of the transaction */
 876:E:/LiteOS/LiteOS_Lab/drivers/third_party/ST/STM32L4xx_HAL_Driver/Src\stm32l4xx_hal_spi.c ****   if (SPI_EndRxTransaction(hspi, Timeout, tickstart) != HAL_OK)
 1146              		.loc 1 876 0
 1147 0206 3A69     		ldr	r2, [r7, #16]
 1148 0208 3968     		ldr	r1, [r7]
 1149 020a F868     		ldr	r0, [r7, #12]
 1150 020c FFF7FEFF 		bl	SPI_EndRxTransaction
 1151 0210 0346     		mov	r3, r0
 1152 0212 002B     		cmp	r3, #0
 1153 0214 02D0     		beq	.L66
 877:E:/LiteOS/LiteOS_Lab/drivers/third_party/ST/STM32L4xx_HAL_Driver/Src\stm32l4xx_hal_spi.c ****   {
 878:E:/LiteOS/LiteOS_Lab/drivers/third_party/ST/STM32L4xx_HAL_Driver/Src\stm32l4xx_hal_spi.c ****     hspi->ErrorCode = HAL_SPI_ERROR_FLAG;
 1154              		.loc 1 878 0
 1155 0216 FB68     		ldr	r3, [r7, #12]
 1156 0218 2022     		movs	r2, #32
 1157 021a 1A66     		str	r2, [r3, #96]
 1158              	.L66:
 879:E:/LiteOS/LiteOS_Lab/drivers/third_party/ST/STM32L4xx_HAL_Driver/Src\stm32l4xx_hal_spi.c ****   }
 880:E:/LiteOS/LiteOS_Lab/drivers/third_party/ST/STM32L4xx_HAL_Driver/Src\stm32l4xx_hal_spi.c **** 
 881:E:/LiteOS/LiteOS_Lab/drivers/third_party/ST/STM32L4xx_HAL_Driver/Src\stm32l4xx_hal_spi.c **** #if (USE_SPI_CRC != 0U)
 882:E:/LiteOS/LiteOS_Lab/drivers/third_party/ST/STM32L4xx_HAL_Driver/Src\stm32l4xx_hal_spi.c ****   /* Check if CRC error occurred */
 883:E:/LiteOS/LiteOS_Lab/drivers/third_party/ST/STM32L4xx_HAL_Driver/Src\stm32l4xx_hal_spi.c ****   if (__HAL_SPI_GET_FLAG(hspi, SPI_FLAG_CRCERR))
 884:E:/LiteOS/LiteOS_Lab/drivers/third_party/ST/STM32L4xx_HAL_Driver/Src\stm32l4xx_hal_spi.c ****   {
 885:E:/LiteOS/LiteOS_Lab/drivers/third_party/ST/STM32L4xx_HAL_Driver/Src\stm32l4xx_hal_spi.c ****     SET_BIT(hspi->ErrorCode, HAL_SPI_ERROR_CRC);
 886:E:/LiteOS/LiteOS_Lab/drivers/third_party/ST/STM32L4xx_HAL_Driver/Src\stm32l4xx_hal_spi.c ****     __HAL_SPI_CLEAR_CRCERRFLAG(hspi);
 887:E:/LiteOS/LiteOS_Lab/drivers/third_party/ST/STM32L4xx_HAL_Driver/Src\stm32l4xx_hal_spi.c ****   }
 888:E:/LiteOS/LiteOS_Lab/drivers/third_party/ST/STM32L4xx_HAL_Driver/Src\stm32l4xx_hal_spi.c **** #endif /* USE_SPI_CRC */
 889:E:/LiteOS/LiteOS_Lab/drivers/third_party/ST/STM32L4xx_HAL_Driver/Src\stm32l4xx_hal_spi.c **** 
 890:E:/LiteOS/LiteOS_Lab/drivers/third_party/ST/STM32L4xx_HAL_Driver/Src\stm32l4xx_hal_spi.c ****   if (hspi->ErrorCode != HAL_SPI_ERROR_NONE)
 1159              		.loc 1 890 0
 1160 021c FB68     		ldr	r3, [r7, #12]
 1161 021e 1B6E     		ldr	r3, [r3, #96]
 1162 0220 002B     		cmp	r3, #0
 1163 0222 02D0     		beq	.L67
 891:E:/LiteOS/LiteOS_Lab/drivers/third_party/ST/STM32L4xx_HAL_Driver/Src\stm32l4xx_hal_spi.c ****   {
 892:E:/LiteOS/LiteOS_Lab/drivers/third_party/ST/STM32L4xx_HAL_Driver/Src\stm32l4xx_hal_spi.c ****     errorcode = HAL_ERROR;
 1164              		.loc 1 892 0
 1165 0224 0123     		movs	r3, #1
 1166 0226 FB75     		strb	r3, [r7, #23]
 1167 0228 00E0     		b	.L49
ARM GAS  C:\Users\user\AppData\Local\Temp\ccvQ1M9B.s 			page 37


 1168              	.L67:
 893:E:/LiteOS/LiteOS_Lab/drivers/third_party/ST/STM32L4xx_HAL_Driver/Src\stm32l4xx_hal_spi.c ****   }
 894:E:/LiteOS/LiteOS_Lab/drivers/third_party/ST/STM32L4xx_HAL_Driver/Src\stm32l4xx_hal_spi.c **** 
 895:E:/LiteOS/LiteOS_Lab/drivers/third_party/ST/STM32L4xx_HAL_Driver/Src\stm32l4xx_hal_spi.c **** error :
 1169              		.loc 1 895 0
 1170 022a 00BF     		nop
 1171              	.L49:
 896:E:/LiteOS/LiteOS_Lab/drivers/third_party/ST/STM32L4xx_HAL_Driver/Src\stm32l4xx_hal_spi.c ****   hspi->State = HAL_SPI_STATE_READY;
 1172              		.loc 1 896 0
 1173 022c FB68     		ldr	r3, [r7, #12]
 1174 022e 0122     		movs	r2, #1
 1175 0230 83F85D20 		strb	r2, [r3, #93]
 897:E:/LiteOS/LiteOS_Lab/drivers/third_party/ST/STM32L4xx_HAL_Driver/Src\stm32l4xx_hal_spi.c ****   __HAL_UNLOCK(hspi);
 1176              		.loc 1 897 0
 1177 0234 FB68     		ldr	r3, [r7, #12]
 1178 0236 0022     		movs	r2, #0
 1179 0238 83F85C20 		strb	r2, [r3, #92]
 898:E:/LiteOS/LiteOS_Lab/drivers/third_party/ST/STM32L4xx_HAL_Driver/Src\stm32l4xx_hal_spi.c ****   return errorcode;
 1180              		.loc 1 898 0
 1181 023c FB7D     		ldrb	r3, [r7, #23]	@ zero_extendqisi2
 1182              	.L46:
 899:E:/LiteOS/LiteOS_Lab/drivers/third_party/ST/STM32L4xx_HAL_Driver/Src\stm32l4xx_hal_spi.c **** }
 1183              		.loc 1 899 0
 1184 023e 1846     		mov	r0, r3
 1185 0240 1837     		adds	r7, r7, #24
 1186              	.LCFI30:
 1187              		.cfi_def_cfa_offset 8
 1188 0242 BD46     		mov	sp, r7
 1189              	.LCFI31:
 1190              		.cfi_def_cfa_register 13
 1191              		@ sp needed
 1192 0244 80BD     		pop	{r7, pc}
 1193              		.cfi_endproc
 1194              	.LFE138:
 1196              		.section	.text.HAL_SPI_TransmitReceive,"ax",%progbits
 1197              		.align	1
 1198              		.global	HAL_SPI_TransmitReceive
 1199              		.syntax unified
 1200              		.thumb
 1201              		.thumb_func
 1202              		.fpu fpv4-sp-d16
 1204              	HAL_SPI_TransmitReceive:
 1205              	.LFB139:
 900:E:/LiteOS/LiteOS_Lab/drivers/third_party/ST/STM32L4xx_HAL_Driver/Src\stm32l4xx_hal_spi.c **** 
 901:E:/LiteOS/LiteOS_Lab/drivers/third_party/ST/STM32L4xx_HAL_Driver/Src\stm32l4xx_hal_spi.c **** /**
 902:E:/LiteOS/LiteOS_Lab/drivers/third_party/ST/STM32L4xx_HAL_Driver/Src\stm32l4xx_hal_spi.c ****   * @brief  Transmit and Receive an amount of data in blocking mode.
 903:E:/LiteOS/LiteOS_Lab/drivers/third_party/ST/STM32L4xx_HAL_Driver/Src\stm32l4xx_hal_spi.c ****   * @param  hspi pointer to a SPI_HandleTypeDef structure that contains
 904:E:/LiteOS/LiteOS_Lab/drivers/third_party/ST/STM32L4xx_HAL_Driver/Src\stm32l4xx_hal_spi.c ****   *               the configuration information for SPI module.
 905:E:/LiteOS/LiteOS_Lab/drivers/third_party/ST/STM32L4xx_HAL_Driver/Src\stm32l4xx_hal_spi.c ****   * @param  pTxData pointer to transmission data buffer
 906:E:/LiteOS/LiteOS_Lab/drivers/third_party/ST/STM32L4xx_HAL_Driver/Src\stm32l4xx_hal_spi.c ****   * @param  pRxData pointer to reception data buffer
 907:E:/LiteOS/LiteOS_Lab/drivers/third_party/ST/STM32L4xx_HAL_Driver/Src\stm32l4xx_hal_spi.c ****   * @param  Size amount of data to be sent and received
 908:E:/LiteOS/LiteOS_Lab/drivers/third_party/ST/STM32L4xx_HAL_Driver/Src\stm32l4xx_hal_spi.c ****   * @param  Timeout Timeout duration
 909:E:/LiteOS/LiteOS_Lab/drivers/third_party/ST/STM32L4xx_HAL_Driver/Src\stm32l4xx_hal_spi.c ****   * @retval HAL status
 910:E:/LiteOS/LiteOS_Lab/drivers/third_party/ST/STM32L4xx_HAL_Driver/Src\stm32l4xx_hal_spi.c ****   */
 911:E:/LiteOS/LiteOS_Lab/drivers/third_party/ST/STM32L4xx_HAL_Driver/Src\stm32l4xx_hal_spi.c **** HAL_StatusTypeDef HAL_SPI_TransmitReceive(SPI_HandleTypeDef *hspi, uint8_t *pTxData, uint8_t *pRxDa
 912:E:/LiteOS/LiteOS_Lab/drivers/third_party/ST/STM32L4xx_HAL_Driver/Src\stm32l4xx_hal_spi.c ****                                           uint32_t Timeout)
 913:E:/LiteOS/LiteOS_Lab/drivers/third_party/ST/STM32L4xx_HAL_Driver/Src\stm32l4xx_hal_spi.c **** {
ARM GAS  C:\Users\user\AppData\Local\Temp\ccvQ1M9B.s 			page 38


 1206              		.loc 1 913 0
 1207              		.cfi_startproc
 1208              		@ args = 4, pretend = 0, frame = 40
 1209              		@ frame_needed = 1, uses_anonymous_args = 0
 1210 0000 80B5     		push	{r7, lr}
 1211              	.LCFI32:
 1212              		.cfi_def_cfa_offset 8
 1213              		.cfi_offset 7, -8
 1214              		.cfi_offset 14, -4
 1215 0002 8AB0     		sub	sp, sp, #40
 1216              	.LCFI33:
 1217              		.cfi_def_cfa_offset 48
 1218 0004 00AF     		add	r7, sp, #0
 1219              	.LCFI34:
 1220              		.cfi_def_cfa_register 7
 1221 0006 F860     		str	r0, [r7, #12]
 1222 0008 B960     		str	r1, [r7, #8]
 1223 000a 7A60     		str	r2, [r7, #4]
 1224 000c 7B80     		strh	r3, [r7, #2]	@ movhi
 914:E:/LiteOS/LiteOS_Lab/drivers/third_party/ST/STM32L4xx_HAL_Driver/Src\stm32l4xx_hal_spi.c ****   uint32_t tmp = 0U, tmp1 = 0U;
 1225              		.loc 1 914 0
 1226 000e 0023     		movs	r3, #0
 1227 0010 FB61     		str	r3, [r7, #28]
 1228 0012 0023     		movs	r3, #0
 1229 0014 BB61     		str	r3, [r7, #24]
 915:E:/LiteOS/LiteOS_Lab/drivers/third_party/ST/STM32L4xx_HAL_Driver/Src\stm32l4xx_hal_spi.c **** #if (USE_SPI_CRC != 0U)
 916:E:/LiteOS/LiteOS_Lab/drivers/third_party/ST/STM32L4xx_HAL_Driver/Src\stm32l4xx_hal_spi.c ****   __IO uint16_t tmpreg = 0U;
 917:E:/LiteOS/LiteOS_Lab/drivers/third_party/ST/STM32L4xx_HAL_Driver/Src\stm32l4xx_hal_spi.c **** #endif /* USE_SPI_CRC */
 918:E:/LiteOS/LiteOS_Lab/drivers/third_party/ST/STM32L4xx_HAL_Driver/Src\stm32l4xx_hal_spi.c ****   uint32_t tickstart = 0U;
 1230              		.loc 1 918 0
 1231 0016 0023     		movs	r3, #0
 1232 0018 7B61     		str	r3, [r7, #20]
 919:E:/LiteOS/LiteOS_Lab/drivers/third_party/ST/STM32L4xx_HAL_Driver/Src\stm32l4xx_hal_spi.c ****   /* Variable used to alternate Rx and Tx during transfer */
 920:E:/LiteOS/LiteOS_Lab/drivers/third_party/ST/STM32L4xx_HAL_Driver/Src\stm32l4xx_hal_spi.c ****   uint32_t txallowed = 1U;
 1233              		.loc 1 920 0
 1234 001a 0123     		movs	r3, #1
 1235 001c 7B62     		str	r3, [r7, #36]
 921:E:/LiteOS/LiteOS_Lab/drivers/third_party/ST/STM32L4xx_HAL_Driver/Src\stm32l4xx_hal_spi.c ****   HAL_StatusTypeDef errorcode = HAL_OK;
 1236              		.loc 1 921 0
 1237 001e 0023     		movs	r3, #0
 1238 0020 87F82330 		strb	r3, [r7, #35]
 922:E:/LiteOS/LiteOS_Lab/drivers/third_party/ST/STM32L4xx_HAL_Driver/Src\stm32l4xx_hal_spi.c **** 
 923:E:/LiteOS/LiteOS_Lab/drivers/third_party/ST/STM32L4xx_HAL_Driver/Src\stm32l4xx_hal_spi.c ****   /* Check Direction parameter */
 924:E:/LiteOS/LiteOS_Lab/drivers/third_party/ST/STM32L4xx_HAL_Driver/Src\stm32l4xx_hal_spi.c ****   assert_param(IS_SPI_DIRECTION_2LINES(hspi->Init.Direction));
 925:E:/LiteOS/LiteOS_Lab/drivers/third_party/ST/STM32L4xx_HAL_Driver/Src\stm32l4xx_hal_spi.c **** 
 926:E:/LiteOS/LiteOS_Lab/drivers/third_party/ST/STM32L4xx_HAL_Driver/Src\stm32l4xx_hal_spi.c ****   /* Process Locked */
 927:E:/LiteOS/LiteOS_Lab/drivers/third_party/ST/STM32L4xx_HAL_Driver/Src\stm32l4xx_hal_spi.c ****   __HAL_LOCK(hspi);
 1239              		.loc 1 927 0
 1240 0024 FB68     		ldr	r3, [r7, #12]
 1241 0026 93F85C30 		ldrb	r3, [r3, #92]	@ zero_extendqisi2
 1242 002a 012B     		cmp	r3, #1
 1243 002c 01D1     		bne	.L69
 1244              		.loc 1 927 0 is_stmt 0 discriminator 1
 1245 002e 0223     		movs	r3, #2
 1246 0030 DEE1     		b	.L70
 1247              	.L69:
 1248              		.loc 1 927 0 discriminator 2
ARM GAS  C:\Users\user\AppData\Local\Temp\ccvQ1M9B.s 			page 39


 1249 0032 FB68     		ldr	r3, [r7, #12]
 1250 0034 0122     		movs	r2, #1
 1251 0036 83F85C20 		strb	r2, [r3, #92]
 928:E:/LiteOS/LiteOS_Lab/drivers/third_party/ST/STM32L4xx_HAL_Driver/Src\stm32l4xx_hal_spi.c **** 
 929:E:/LiteOS/LiteOS_Lab/drivers/third_party/ST/STM32L4xx_HAL_Driver/Src\stm32l4xx_hal_spi.c ****   /* Init tickstart for timeout management*/
 930:E:/LiteOS/LiteOS_Lab/drivers/third_party/ST/STM32L4xx_HAL_Driver/Src\stm32l4xx_hal_spi.c ****   tickstart = HAL_GetTick();
 1252              		.loc 1 930 0 is_stmt 1 discriminator 2
 1253 003a FFF7FEFF 		bl	HAL_GetTick
 1254 003e 7861     		str	r0, [r7, #20]
 931:E:/LiteOS/LiteOS_Lab/drivers/third_party/ST/STM32L4xx_HAL_Driver/Src\stm32l4xx_hal_spi.c **** 
 932:E:/LiteOS/LiteOS_Lab/drivers/third_party/ST/STM32L4xx_HAL_Driver/Src\stm32l4xx_hal_spi.c ****   tmp  = hspi->State;
 1255              		.loc 1 932 0 discriminator 2
 1256 0040 FB68     		ldr	r3, [r7, #12]
 1257 0042 93F85D30 		ldrb	r3, [r3, #93]
 1258 0046 DBB2     		uxtb	r3, r3
 1259 0048 FB61     		str	r3, [r7, #28]
 933:E:/LiteOS/LiteOS_Lab/drivers/third_party/ST/STM32L4xx_HAL_Driver/Src\stm32l4xx_hal_spi.c ****   tmp1 = hspi->Init.Mode;
 1260              		.loc 1 933 0 discriminator 2
 1261 004a FB68     		ldr	r3, [r7, #12]
 1262 004c 5B68     		ldr	r3, [r3, #4]
 1263 004e BB61     		str	r3, [r7, #24]
 934:E:/LiteOS/LiteOS_Lab/drivers/third_party/ST/STM32L4xx_HAL_Driver/Src\stm32l4xx_hal_spi.c **** 
 935:E:/LiteOS/LiteOS_Lab/drivers/third_party/ST/STM32L4xx_HAL_Driver/Src\stm32l4xx_hal_spi.c ****   if (!((tmp == HAL_SPI_STATE_READY) || \
 1264              		.loc 1 935 0 discriminator 2
 1265 0050 FB69     		ldr	r3, [r7, #28]
 1266 0052 012B     		cmp	r3, #1
 1267 0054 0ED0     		beq	.L71
 1268              		.loc 1 935 0 is_stmt 0 discriminator 1
 1269 0056 BB69     		ldr	r3, [r7, #24]
 1270 0058 B3F5827F 		cmp	r3, #260
 1271 005c 06D1     		bne	.L72
 936:E:/LiteOS/LiteOS_Lab/drivers/third_party/ST/STM32L4xx_HAL_Driver/Src\stm32l4xx_hal_spi.c ****         ((tmp1 == SPI_MODE_MASTER) && (hspi->Init.Direction == SPI_DIRECTION_2LINES) && (tmp == HAL
 1272              		.loc 1 936 0 is_stmt 1
 1273 005e FB68     		ldr	r3, [r7, #12]
 1274 0060 9B68     		ldr	r3, [r3, #8]
 1275 0062 002B     		cmp	r3, #0
 1276 0064 02D1     		bne	.L72
 1277              		.loc 1 936 0 is_stmt 0 discriminator 1
 1278 0066 FB69     		ldr	r3, [r7, #28]
 1279 0068 042B     		cmp	r3, #4
 1280 006a 03D0     		beq	.L71
 1281              	.L72:
 937:E:/LiteOS/LiteOS_Lab/drivers/third_party/ST/STM32L4xx_HAL_Driver/Src\stm32l4xx_hal_spi.c ****   {
 938:E:/LiteOS/LiteOS_Lab/drivers/third_party/ST/STM32L4xx_HAL_Driver/Src\stm32l4xx_hal_spi.c ****     errorcode = HAL_BUSY;
 1282              		.loc 1 938 0 is_stmt 1
 1283 006c 0223     		movs	r3, #2
 1284 006e 87F82330 		strb	r3, [r7, #35]
 939:E:/LiteOS/LiteOS_Lab/drivers/third_party/ST/STM32L4xx_HAL_Driver/Src\stm32l4xx_hal_spi.c ****     goto error;
 1285              		.loc 1 939 0
 1286 0072 B3E1     		b	.L73
 1287              	.L71:
 940:E:/LiteOS/LiteOS_Lab/drivers/third_party/ST/STM32L4xx_HAL_Driver/Src\stm32l4xx_hal_spi.c ****   }
 941:E:/LiteOS/LiteOS_Lab/drivers/third_party/ST/STM32L4xx_HAL_Driver/Src\stm32l4xx_hal_spi.c **** 
 942:E:/LiteOS/LiteOS_Lab/drivers/third_party/ST/STM32L4xx_HAL_Driver/Src\stm32l4xx_hal_spi.c ****   if ((pTxData == NULL) || (pRxData == NULL) || (Size == 0U))
 1288              		.loc 1 942 0
 1289 0074 BB68     		ldr	r3, [r7, #8]
 1290 0076 002B     		cmp	r3, #0
ARM GAS  C:\Users\user\AppData\Local\Temp\ccvQ1M9B.s 			page 40


 1291 0078 05D0     		beq	.L74
 1292              		.loc 1 942 0 is_stmt 0 discriminator 1
 1293 007a 7B68     		ldr	r3, [r7, #4]
 1294 007c 002B     		cmp	r3, #0
 1295 007e 02D0     		beq	.L74
 1296              		.loc 1 942 0 discriminator 2
 1297 0080 7B88     		ldrh	r3, [r7, #2]
 1298 0082 002B     		cmp	r3, #0
 1299 0084 03D1     		bne	.L75
 1300              	.L74:
 943:E:/LiteOS/LiteOS_Lab/drivers/third_party/ST/STM32L4xx_HAL_Driver/Src\stm32l4xx_hal_spi.c ****   {
 944:E:/LiteOS/LiteOS_Lab/drivers/third_party/ST/STM32L4xx_HAL_Driver/Src\stm32l4xx_hal_spi.c ****     errorcode = HAL_ERROR;
 1301              		.loc 1 944 0 is_stmt 1
 1302 0086 0123     		movs	r3, #1
 1303 0088 87F82330 		strb	r3, [r7, #35]
 945:E:/LiteOS/LiteOS_Lab/drivers/third_party/ST/STM32L4xx_HAL_Driver/Src\stm32l4xx_hal_spi.c ****     goto error;
 1304              		.loc 1 945 0
 1305 008c A6E1     		b	.L73
 1306              	.L75:
 946:E:/LiteOS/LiteOS_Lab/drivers/third_party/ST/STM32L4xx_HAL_Driver/Src\stm32l4xx_hal_spi.c ****   }
 947:E:/LiteOS/LiteOS_Lab/drivers/third_party/ST/STM32L4xx_HAL_Driver/Src\stm32l4xx_hal_spi.c **** 
 948:E:/LiteOS/LiteOS_Lab/drivers/third_party/ST/STM32L4xx_HAL_Driver/Src\stm32l4xx_hal_spi.c ****   /* Don't overwrite in case of HAL_SPI_STATE_BUSY_RX */
 949:E:/LiteOS/LiteOS_Lab/drivers/third_party/ST/STM32L4xx_HAL_Driver/Src\stm32l4xx_hal_spi.c ****   if (hspi->State != HAL_SPI_STATE_BUSY_RX)
 1307              		.loc 1 949 0
 1308 008e FB68     		ldr	r3, [r7, #12]
 1309 0090 93F85D30 		ldrb	r3, [r3, #93]
 1310 0094 DBB2     		uxtb	r3, r3
 1311 0096 042B     		cmp	r3, #4
 1312 0098 03D0     		beq	.L76
 950:E:/LiteOS/LiteOS_Lab/drivers/third_party/ST/STM32L4xx_HAL_Driver/Src\stm32l4xx_hal_spi.c ****   {
 951:E:/LiteOS/LiteOS_Lab/drivers/third_party/ST/STM32L4xx_HAL_Driver/Src\stm32l4xx_hal_spi.c ****     hspi->State = HAL_SPI_STATE_BUSY_TX_RX;
 1313              		.loc 1 951 0
 1314 009a FB68     		ldr	r3, [r7, #12]
 1315 009c 0522     		movs	r2, #5
 1316 009e 83F85D20 		strb	r2, [r3, #93]
 1317              	.L76:
 952:E:/LiteOS/LiteOS_Lab/drivers/third_party/ST/STM32L4xx_HAL_Driver/Src\stm32l4xx_hal_spi.c ****   }
 953:E:/LiteOS/LiteOS_Lab/drivers/third_party/ST/STM32L4xx_HAL_Driver/Src\stm32l4xx_hal_spi.c **** 
 954:E:/LiteOS/LiteOS_Lab/drivers/third_party/ST/STM32L4xx_HAL_Driver/Src\stm32l4xx_hal_spi.c ****   /* Set the transaction information */
 955:E:/LiteOS/LiteOS_Lab/drivers/third_party/ST/STM32L4xx_HAL_Driver/Src\stm32l4xx_hal_spi.c ****   hspi->ErrorCode   = HAL_SPI_ERROR_NONE;
 1318              		.loc 1 955 0
 1319 00a2 FB68     		ldr	r3, [r7, #12]
 1320 00a4 0022     		movs	r2, #0
 1321 00a6 1A66     		str	r2, [r3, #96]
 956:E:/LiteOS/LiteOS_Lab/drivers/third_party/ST/STM32L4xx_HAL_Driver/Src\stm32l4xx_hal_spi.c ****   hspi->pRxBuffPtr  = (uint8_t *)pRxData;
 1322              		.loc 1 956 0
 1323 00a8 FB68     		ldr	r3, [r7, #12]
 1324 00aa 7A68     		ldr	r2, [r7, #4]
 1325 00ac 1A64     		str	r2, [r3, #64]
 957:E:/LiteOS/LiteOS_Lab/drivers/third_party/ST/STM32L4xx_HAL_Driver/Src\stm32l4xx_hal_spi.c ****   hspi->RxXferCount = Size;
 1326              		.loc 1 957 0
 1327 00ae FB68     		ldr	r3, [r7, #12]
 1328 00b0 7A88     		ldrh	r2, [r7, #2]	@ movhi
 1329 00b2 A3F84620 		strh	r2, [r3, #70]	@ movhi
 958:E:/LiteOS/LiteOS_Lab/drivers/third_party/ST/STM32L4xx_HAL_Driver/Src\stm32l4xx_hal_spi.c ****   hspi->RxXferSize  = Size;
 1330              		.loc 1 958 0
 1331 00b6 FB68     		ldr	r3, [r7, #12]
ARM GAS  C:\Users\user\AppData\Local\Temp\ccvQ1M9B.s 			page 41


 1332 00b8 7A88     		ldrh	r2, [r7, #2]	@ movhi
 1333 00ba A3F84420 		strh	r2, [r3, #68]	@ movhi
 959:E:/LiteOS/LiteOS_Lab/drivers/third_party/ST/STM32L4xx_HAL_Driver/Src\stm32l4xx_hal_spi.c ****   hspi->pTxBuffPtr  = (uint8_t *)pTxData;
 1334              		.loc 1 959 0
 1335 00be FB68     		ldr	r3, [r7, #12]
 1336 00c0 BA68     		ldr	r2, [r7, #8]
 1337 00c2 9A63     		str	r2, [r3, #56]
 960:E:/LiteOS/LiteOS_Lab/drivers/third_party/ST/STM32L4xx_HAL_Driver/Src\stm32l4xx_hal_spi.c ****   hspi->TxXferCount = Size;
 1338              		.loc 1 960 0
 1339 00c4 FB68     		ldr	r3, [r7, #12]
 1340 00c6 7A88     		ldrh	r2, [r7, #2]	@ movhi
 1341 00c8 DA87     		strh	r2, [r3, #62]	@ movhi
 961:E:/LiteOS/LiteOS_Lab/drivers/third_party/ST/STM32L4xx_HAL_Driver/Src\stm32l4xx_hal_spi.c ****   hspi->TxXferSize  = Size;
 1342              		.loc 1 961 0
 1343 00ca FB68     		ldr	r3, [r7, #12]
 1344 00cc 7A88     		ldrh	r2, [r7, #2]	@ movhi
 1345 00ce 9A87     		strh	r2, [r3, #60]	@ movhi
 962:E:/LiteOS/LiteOS_Lab/drivers/third_party/ST/STM32L4xx_HAL_Driver/Src\stm32l4xx_hal_spi.c **** 
 963:E:/LiteOS/LiteOS_Lab/drivers/third_party/ST/STM32L4xx_HAL_Driver/Src\stm32l4xx_hal_spi.c ****   /*Init field not used in handle to zero */
 964:E:/LiteOS/LiteOS_Lab/drivers/third_party/ST/STM32L4xx_HAL_Driver/Src\stm32l4xx_hal_spi.c ****   hspi->RxISR       = NULL;
 1346              		.loc 1 964 0
 1347 00d0 FB68     		ldr	r3, [r7, #12]
 1348 00d2 0022     		movs	r2, #0
 1349 00d4 DA64     		str	r2, [r3, #76]
 965:E:/LiteOS/LiteOS_Lab/drivers/third_party/ST/STM32L4xx_HAL_Driver/Src\stm32l4xx_hal_spi.c ****   hspi->TxISR       = NULL;
 1350              		.loc 1 965 0
 1351 00d6 FB68     		ldr	r3, [r7, #12]
 1352 00d8 0022     		movs	r2, #0
 1353 00da 1A65     		str	r2, [r3, #80]
 966:E:/LiteOS/LiteOS_Lab/drivers/third_party/ST/STM32L4xx_HAL_Driver/Src\stm32l4xx_hal_spi.c **** 
 967:E:/LiteOS/LiteOS_Lab/drivers/third_party/ST/STM32L4xx_HAL_Driver/Src\stm32l4xx_hal_spi.c **** #if (USE_SPI_CRC != 0U)
 968:E:/LiteOS/LiteOS_Lab/drivers/third_party/ST/STM32L4xx_HAL_Driver/Src\stm32l4xx_hal_spi.c ****   /* Reset CRC Calculation */
 969:E:/LiteOS/LiteOS_Lab/drivers/third_party/ST/STM32L4xx_HAL_Driver/Src\stm32l4xx_hal_spi.c ****   if (hspi->Init.CRCCalculation == SPI_CRCCALCULATION_ENABLE)
 970:E:/LiteOS/LiteOS_Lab/drivers/third_party/ST/STM32L4xx_HAL_Driver/Src\stm32l4xx_hal_spi.c ****   {
 971:E:/LiteOS/LiteOS_Lab/drivers/third_party/ST/STM32L4xx_HAL_Driver/Src\stm32l4xx_hal_spi.c ****     SPI_RESET_CRC(hspi);
 972:E:/LiteOS/LiteOS_Lab/drivers/third_party/ST/STM32L4xx_HAL_Driver/Src\stm32l4xx_hal_spi.c ****   }
 973:E:/LiteOS/LiteOS_Lab/drivers/third_party/ST/STM32L4xx_HAL_Driver/Src\stm32l4xx_hal_spi.c **** #endif /* USE_SPI_CRC */
 974:E:/LiteOS/LiteOS_Lab/drivers/third_party/ST/STM32L4xx_HAL_Driver/Src\stm32l4xx_hal_spi.c **** 
 975:E:/LiteOS/LiteOS_Lab/drivers/third_party/ST/STM32L4xx_HAL_Driver/Src\stm32l4xx_hal_spi.c ****   /* Set the Rx Fifo threshold */
 976:E:/LiteOS/LiteOS_Lab/drivers/third_party/ST/STM32L4xx_HAL_Driver/Src\stm32l4xx_hal_spi.c ****   if ((hspi->Init.DataSize > SPI_DATASIZE_8BIT) || (hspi->RxXferCount > 1U))
 1354              		.loc 1 976 0
 1355 00dc FB68     		ldr	r3, [r7, #12]
 1356 00de DB68     		ldr	r3, [r3, #12]
 1357 00e0 B3F5E06F 		cmp	r3, #1792
 1358 00e4 05D8     		bhi	.L77
 1359              		.loc 1 976 0 is_stmt 0 discriminator 1
 1360 00e6 FB68     		ldr	r3, [r7, #12]
 1361 00e8 B3F84630 		ldrh	r3, [r3, #70]	@ movhi
 1362 00ec 9BB2     		uxth	r3, r3
 1363 00ee 012B     		cmp	r3, #1
 1364 00f0 08D9     		bls	.L78
 1365              	.L77:
 977:E:/LiteOS/LiteOS_Lab/drivers/third_party/ST/STM32L4xx_HAL_Driver/Src\stm32l4xx_hal_spi.c ****   {
 978:E:/LiteOS/LiteOS_Lab/drivers/third_party/ST/STM32L4xx_HAL_Driver/Src\stm32l4xx_hal_spi.c ****     /* Set fiforxthreshold according the reception data length: 16bit */
 979:E:/LiteOS/LiteOS_Lab/drivers/third_party/ST/STM32L4xx_HAL_Driver/Src\stm32l4xx_hal_spi.c ****     CLEAR_BIT(hspi->Instance->CR2, SPI_RXFIFO_THRESHOLD);
 1366              		.loc 1 979 0 is_stmt 1
 1367 00f2 FB68     		ldr	r3, [r7, #12]
ARM GAS  C:\Users\user\AppData\Local\Temp\ccvQ1M9B.s 			page 42


 1368 00f4 1B68     		ldr	r3, [r3]
 1369 00f6 5A68     		ldr	r2, [r3, #4]
 1370 00f8 FB68     		ldr	r3, [r7, #12]
 1371 00fa 1B68     		ldr	r3, [r3]
 1372 00fc 22F48052 		bic	r2, r2, #4096
 1373 0100 5A60     		str	r2, [r3, #4]
 1374 0102 07E0     		b	.L79
 1375              	.L78:
 980:E:/LiteOS/LiteOS_Lab/drivers/third_party/ST/STM32L4xx_HAL_Driver/Src\stm32l4xx_hal_spi.c ****   }
 981:E:/LiteOS/LiteOS_Lab/drivers/third_party/ST/STM32L4xx_HAL_Driver/Src\stm32l4xx_hal_spi.c ****   else
 982:E:/LiteOS/LiteOS_Lab/drivers/third_party/ST/STM32L4xx_HAL_Driver/Src\stm32l4xx_hal_spi.c ****   {
 983:E:/LiteOS/LiteOS_Lab/drivers/third_party/ST/STM32L4xx_HAL_Driver/Src\stm32l4xx_hal_spi.c ****     /* Set fiforxthreshold according the reception data length: 8bit */
 984:E:/LiteOS/LiteOS_Lab/drivers/third_party/ST/STM32L4xx_HAL_Driver/Src\stm32l4xx_hal_spi.c ****     SET_BIT(hspi->Instance->CR2, SPI_RXFIFO_THRESHOLD);
 1376              		.loc 1 984 0
 1377 0104 FB68     		ldr	r3, [r7, #12]
 1378 0106 1B68     		ldr	r3, [r3]
 1379 0108 5A68     		ldr	r2, [r3, #4]
 1380 010a FB68     		ldr	r3, [r7, #12]
 1381 010c 1B68     		ldr	r3, [r3]
 1382 010e 42F48052 		orr	r2, r2, #4096
 1383 0112 5A60     		str	r2, [r3, #4]
 1384              	.L79:
 985:E:/LiteOS/LiteOS_Lab/drivers/third_party/ST/STM32L4xx_HAL_Driver/Src\stm32l4xx_hal_spi.c ****   }
 986:E:/LiteOS/LiteOS_Lab/drivers/third_party/ST/STM32L4xx_HAL_Driver/Src\stm32l4xx_hal_spi.c **** 
 987:E:/LiteOS/LiteOS_Lab/drivers/third_party/ST/STM32L4xx_HAL_Driver/Src\stm32l4xx_hal_spi.c ****   /* Check if the SPI is already enabled */
 988:E:/LiteOS/LiteOS_Lab/drivers/third_party/ST/STM32L4xx_HAL_Driver/Src\stm32l4xx_hal_spi.c ****   if ((hspi->Instance->CR1 & SPI_CR1_SPE) != SPI_CR1_SPE)
 1385              		.loc 1 988 0
 1386 0114 FB68     		ldr	r3, [r7, #12]
 1387 0116 1B68     		ldr	r3, [r3]
 1388 0118 1B68     		ldr	r3, [r3]
 1389 011a 03F04003 		and	r3, r3, #64
 1390 011e 402B     		cmp	r3, #64
 1391 0120 07D0     		beq	.L80
 989:E:/LiteOS/LiteOS_Lab/drivers/third_party/ST/STM32L4xx_HAL_Driver/Src\stm32l4xx_hal_spi.c ****   {
 990:E:/LiteOS/LiteOS_Lab/drivers/third_party/ST/STM32L4xx_HAL_Driver/Src\stm32l4xx_hal_spi.c ****     /* Enable SPI peripheral */
 991:E:/LiteOS/LiteOS_Lab/drivers/third_party/ST/STM32L4xx_HAL_Driver/Src\stm32l4xx_hal_spi.c ****     __HAL_SPI_ENABLE(hspi);
 1392              		.loc 1 991 0
 1393 0122 FB68     		ldr	r3, [r7, #12]
 1394 0124 1B68     		ldr	r3, [r3]
 1395 0126 1A68     		ldr	r2, [r3]
 1396 0128 FB68     		ldr	r3, [r7, #12]
 1397 012a 1B68     		ldr	r3, [r3]
 1398 012c 42F04002 		orr	r2, r2, #64
 1399 0130 1A60     		str	r2, [r3]
 1400              	.L80:
 992:E:/LiteOS/LiteOS_Lab/drivers/third_party/ST/STM32L4xx_HAL_Driver/Src\stm32l4xx_hal_spi.c ****   }
 993:E:/LiteOS/LiteOS_Lab/drivers/third_party/ST/STM32L4xx_HAL_Driver/Src\stm32l4xx_hal_spi.c **** 
 994:E:/LiteOS/LiteOS_Lab/drivers/third_party/ST/STM32L4xx_HAL_Driver/Src\stm32l4xx_hal_spi.c ****   /* Transmit and Receive data in 16 Bit mode */
 995:E:/LiteOS/LiteOS_Lab/drivers/third_party/ST/STM32L4xx_HAL_Driver/Src\stm32l4xx_hal_spi.c ****   if (hspi->Init.DataSize > SPI_DATASIZE_8BIT)
 1401              		.loc 1 995 0
 1402 0132 FB68     		ldr	r3, [r7, #12]
 1403 0134 DB68     		ldr	r3, [r3, #12]
 1404 0136 B3F5E06F 		cmp	r3, #1792
 1405 013a 75D9     		bls	.L81
 996:E:/LiteOS/LiteOS_Lab/drivers/third_party/ST/STM32L4xx_HAL_Driver/Src\stm32l4xx_hal_spi.c ****   {
 997:E:/LiteOS/LiteOS_Lab/drivers/third_party/ST/STM32L4xx_HAL_Driver/Src\stm32l4xx_hal_spi.c ****     if ((hspi->Init.Mode == SPI_MODE_SLAVE) || (hspi->TxXferCount == 0x01U))
 1406              		.loc 1 997 0
ARM GAS  C:\Users\user\AppData\Local\Temp\ccvQ1M9B.s 			page 43


 1407 013c FB68     		ldr	r3, [r7, #12]
 1408 013e 5B68     		ldr	r3, [r3, #4]
 1409 0140 002B     		cmp	r3, #0
 1410 0142 04D0     		beq	.L82
 1411              		.loc 1 997 0 is_stmt 0 discriminator 1
 1412 0144 FB68     		ldr	r3, [r7, #12]
 1413 0146 DB8F     		ldrh	r3, [r3, #62]	@ movhi
 1414 0148 9BB2     		uxth	r3, r3
 1415 014a 012B     		cmp	r3, #1
 1416 014c 60D1     		bne	.L84
 1417              	.L82:
 998:E:/LiteOS/LiteOS_Lab/drivers/third_party/ST/STM32L4xx_HAL_Driver/Src\stm32l4xx_hal_spi.c ****     {
 999:E:/LiteOS/LiteOS_Lab/drivers/third_party/ST/STM32L4xx_HAL_Driver/Src\stm32l4xx_hal_spi.c ****       hspi->Instance->DR = *((uint16_t *)pTxData);
 1418              		.loc 1 999 0 is_stmt 1
 1419 014e BB68     		ldr	r3, [r7, #8]
 1420 0150 1A88     		ldrh	r2, [r3]
 1421 0152 FB68     		ldr	r3, [r7, #12]
 1422 0154 1B68     		ldr	r3, [r3]
 1423 0156 DA60     		str	r2, [r3, #12]
1000:E:/LiteOS/LiteOS_Lab/drivers/third_party/ST/STM32L4xx_HAL_Driver/Src\stm32l4xx_hal_spi.c ****       pTxData += sizeof(uint16_t);
 1424              		.loc 1 1000 0
 1425 0158 BB68     		ldr	r3, [r7, #8]
 1426 015a 0233     		adds	r3, r3, #2
 1427 015c BB60     		str	r3, [r7, #8]
1001:E:/LiteOS/LiteOS_Lab/drivers/third_party/ST/STM32L4xx_HAL_Driver/Src\stm32l4xx_hal_spi.c ****       hspi->TxXferCount--;
 1428              		.loc 1 1001 0
 1429 015e FB68     		ldr	r3, [r7, #12]
 1430 0160 DB8F     		ldrh	r3, [r3, #62]	@ movhi
 1431 0162 9BB2     		uxth	r3, r3
 1432 0164 013B     		subs	r3, r3, #1
 1433 0166 9AB2     		uxth	r2, r3
 1434 0168 FB68     		ldr	r3, [r7, #12]
 1435 016a DA87     		strh	r2, [r3, #62]	@ movhi
1002:E:/LiteOS/LiteOS_Lab/drivers/third_party/ST/STM32L4xx_HAL_Driver/Src\stm32l4xx_hal_spi.c ****     }
1003:E:/LiteOS/LiteOS_Lab/drivers/third_party/ST/STM32L4xx_HAL_Driver/Src\stm32l4xx_hal_spi.c ****     while ((hspi->TxXferCount > 0U) || (hspi->RxXferCount > 0U))
 1436              		.loc 1 1003 0
 1437 016c 50E0     		b	.L84
 1438              	.L87:
1004:E:/LiteOS/LiteOS_Lab/drivers/third_party/ST/STM32L4xx_HAL_Driver/Src\stm32l4xx_hal_spi.c ****     {
1005:E:/LiteOS/LiteOS_Lab/drivers/third_party/ST/STM32L4xx_HAL_Driver/Src\stm32l4xx_hal_spi.c ****       /* Check TXE flag */
1006:E:/LiteOS/LiteOS_Lab/drivers/third_party/ST/STM32L4xx_HAL_Driver/Src\stm32l4xx_hal_spi.c ****       if (txallowed && (hspi->TxXferCount > 0U) && (__HAL_SPI_GET_FLAG(hspi, SPI_FLAG_TXE)))
 1439              		.loc 1 1006 0
 1440 016e 7B6A     		ldr	r3, [r7, #36]
 1441 0170 002B     		cmp	r3, #0
 1442 0172 1CD0     		beq	.L85
 1443              		.loc 1 1006 0 is_stmt 0 discriminator 1
 1444 0174 FB68     		ldr	r3, [r7, #12]
 1445 0176 DB8F     		ldrh	r3, [r3, #62]	@ movhi
 1446 0178 9BB2     		uxth	r3, r3
 1447 017a 002B     		cmp	r3, #0
 1448 017c 17D0     		beq	.L85
 1449              		.loc 1 1006 0 discriminator 2
 1450 017e FB68     		ldr	r3, [r7, #12]
 1451 0180 1B68     		ldr	r3, [r3]
 1452 0182 9B68     		ldr	r3, [r3, #8]
 1453 0184 03F00203 		and	r3, r3, #2
 1454 0188 022B     		cmp	r3, #2
ARM GAS  C:\Users\user\AppData\Local\Temp\ccvQ1M9B.s 			page 44


 1455 018a 10D1     		bne	.L85
1007:E:/LiteOS/LiteOS_Lab/drivers/third_party/ST/STM32L4xx_HAL_Driver/Src\stm32l4xx_hal_spi.c ****       {
1008:E:/LiteOS/LiteOS_Lab/drivers/third_party/ST/STM32L4xx_HAL_Driver/Src\stm32l4xx_hal_spi.c ****         hspi->Instance->DR = *((uint16_t *)pTxData);
 1456              		.loc 1 1008 0 is_stmt 1
 1457 018c BB68     		ldr	r3, [r7, #8]
 1458 018e 1A88     		ldrh	r2, [r3]
 1459 0190 FB68     		ldr	r3, [r7, #12]
 1460 0192 1B68     		ldr	r3, [r3]
 1461 0194 DA60     		str	r2, [r3, #12]
1009:E:/LiteOS/LiteOS_Lab/drivers/third_party/ST/STM32L4xx_HAL_Driver/Src\stm32l4xx_hal_spi.c ****         pTxData += sizeof(uint16_t);
 1462              		.loc 1 1009 0
 1463 0196 BB68     		ldr	r3, [r7, #8]
 1464 0198 0233     		adds	r3, r3, #2
 1465 019a BB60     		str	r3, [r7, #8]
1010:E:/LiteOS/LiteOS_Lab/drivers/third_party/ST/STM32L4xx_HAL_Driver/Src\stm32l4xx_hal_spi.c ****         hspi->TxXferCount--;
 1466              		.loc 1 1010 0
 1467 019c FB68     		ldr	r3, [r7, #12]
 1468 019e DB8F     		ldrh	r3, [r3, #62]	@ movhi
 1469 01a0 9BB2     		uxth	r3, r3
 1470 01a2 013B     		subs	r3, r3, #1
 1471 01a4 9AB2     		uxth	r2, r3
 1472 01a6 FB68     		ldr	r3, [r7, #12]
 1473 01a8 DA87     		strh	r2, [r3, #62]	@ movhi
1011:E:/LiteOS/LiteOS_Lab/drivers/third_party/ST/STM32L4xx_HAL_Driver/Src\stm32l4xx_hal_spi.c ****         /* Next Data is a reception (Rx). Tx not allowed */
1012:E:/LiteOS/LiteOS_Lab/drivers/third_party/ST/STM32L4xx_HAL_Driver/Src\stm32l4xx_hal_spi.c ****         txallowed = 0U;
 1474              		.loc 1 1012 0
 1475 01aa 0023     		movs	r3, #0
 1476 01ac 7B62     		str	r3, [r7, #36]
 1477              	.L85:
1013:E:/LiteOS/LiteOS_Lab/drivers/third_party/ST/STM32L4xx_HAL_Driver/Src\stm32l4xx_hal_spi.c **** 
1014:E:/LiteOS/LiteOS_Lab/drivers/third_party/ST/STM32L4xx_HAL_Driver/Src\stm32l4xx_hal_spi.c **** #if (USE_SPI_CRC != 0U)
1015:E:/LiteOS/LiteOS_Lab/drivers/third_party/ST/STM32L4xx_HAL_Driver/Src\stm32l4xx_hal_spi.c ****         /* Enable CRC Transmission */
1016:E:/LiteOS/LiteOS_Lab/drivers/third_party/ST/STM32L4xx_HAL_Driver/Src\stm32l4xx_hal_spi.c ****         if ((hspi->TxXferCount == 0U) && (hspi->Init.CRCCalculation == SPI_CRCCALCULATION_ENABLE))
1017:E:/LiteOS/LiteOS_Lab/drivers/third_party/ST/STM32L4xx_HAL_Driver/Src\stm32l4xx_hal_spi.c ****         {
1018:E:/LiteOS/LiteOS_Lab/drivers/third_party/ST/STM32L4xx_HAL_Driver/Src\stm32l4xx_hal_spi.c ****           /* Set NSS Soft to received correctly the CRC on slave mode with NSS pulse activated */
1019:E:/LiteOS/LiteOS_Lab/drivers/third_party/ST/STM32L4xx_HAL_Driver/Src\stm32l4xx_hal_spi.c ****           if (((hspi->Instance->CR1 & SPI_CR1_MSTR) == 0U) && ((hspi->Instance->CR2 & SPI_CR2_NSSP)
1020:E:/LiteOS/LiteOS_Lab/drivers/third_party/ST/STM32L4xx_HAL_Driver/Src\stm32l4xx_hal_spi.c ****           {
1021:E:/LiteOS/LiteOS_Lab/drivers/third_party/ST/STM32L4xx_HAL_Driver/Src\stm32l4xx_hal_spi.c ****             SET_BIT(hspi->Instance->CR1, SPI_CR1_SSM);
1022:E:/LiteOS/LiteOS_Lab/drivers/third_party/ST/STM32L4xx_HAL_Driver/Src\stm32l4xx_hal_spi.c ****           }
1023:E:/LiteOS/LiteOS_Lab/drivers/third_party/ST/STM32L4xx_HAL_Driver/Src\stm32l4xx_hal_spi.c ****           SET_BIT(hspi->Instance->CR1, SPI_CR1_CRCNEXT);
1024:E:/LiteOS/LiteOS_Lab/drivers/third_party/ST/STM32L4xx_HAL_Driver/Src\stm32l4xx_hal_spi.c ****         }
1025:E:/LiteOS/LiteOS_Lab/drivers/third_party/ST/STM32L4xx_HAL_Driver/Src\stm32l4xx_hal_spi.c **** #endif /* USE_SPI_CRC */
1026:E:/LiteOS/LiteOS_Lab/drivers/third_party/ST/STM32L4xx_HAL_Driver/Src\stm32l4xx_hal_spi.c ****       }
1027:E:/LiteOS/LiteOS_Lab/drivers/third_party/ST/STM32L4xx_HAL_Driver/Src\stm32l4xx_hal_spi.c **** 
1028:E:/LiteOS/LiteOS_Lab/drivers/third_party/ST/STM32L4xx_HAL_Driver/Src\stm32l4xx_hal_spi.c ****       /* Check RXNE flag */
1029:E:/LiteOS/LiteOS_Lab/drivers/third_party/ST/STM32L4xx_HAL_Driver/Src\stm32l4xx_hal_spi.c ****       if ((hspi->RxXferCount > 0U) && (__HAL_SPI_GET_FLAG(hspi, SPI_FLAG_RXNE)))
 1478              		.loc 1 1029 0
 1479 01ae FB68     		ldr	r3, [r7, #12]
 1480 01b0 B3F84630 		ldrh	r3, [r3, #70]	@ movhi
 1481 01b4 9BB2     		uxth	r3, r3
 1482 01b6 002B     		cmp	r3, #0
 1483 01b8 1AD0     		beq	.L86
 1484              		.loc 1 1029 0 is_stmt 0 discriminator 1
 1485 01ba FB68     		ldr	r3, [r7, #12]
 1486 01bc 1B68     		ldr	r3, [r3]
 1487 01be 9B68     		ldr	r3, [r3, #8]
 1488 01c0 03F00103 		and	r3, r3, #1
ARM GAS  C:\Users\user\AppData\Local\Temp\ccvQ1M9B.s 			page 45


 1489 01c4 012B     		cmp	r3, #1
 1490 01c6 13D1     		bne	.L86
1030:E:/LiteOS/LiteOS_Lab/drivers/third_party/ST/STM32L4xx_HAL_Driver/Src\stm32l4xx_hal_spi.c ****       {
1031:E:/LiteOS/LiteOS_Lab/drivers/third_party/ST/STM32L4xx_HAL_Driver/Src\stm32l4xx_hal_spi.c ****         *((uint16_t *)pRxData) = hspi->Instance->DR;
 1491              		.loc 1 1031 0 is_stmt 1
 1492 01c8 FB68     		ldr	r3, [r7, #12]
 1493 01ca 1B68     		ldr	r3, [r3]
 1494 01cc DB68     		ldr	r3, [r3, #12]
 1495 01ce 9AB2     		uxth	r2, r3
 1496 01d0 7B68     		ldr	r3, [r7, #4]
 1497 01d2 1A80     		strh	r2, [r3]	@ movhi
1032:E:/LiteOS/LiteOS_Lab/drivers/third_party/ST/STM32L4xx_HAL_Driver/Src\stm32l4xx_hal_spi.c ****         pRxData += sizeof(uint16_t);
 1498              		.loc 1 1032 0
 1499 01d4 7B68     		ldr	r3, [r7, #4]
 1500 01d6 0233     		adds	r3, r3, #2
 1501 01d8 7B60     		str	r3, [r7, #4]
1033:E:/LiteOS/LiteOS_Lab/drivers/third_party/ST/STM32L4xx_HAL_Driver/Src\stm32l4xx_hal_spi.c ****         hspi->RxXferCount--;
 1502              		.loc 1 1033 0
 1503 01da FB68     		ldr	r3, [r7, #12]
 1504 01dc B3F84630 		ldrh	r3, [r3, #70]	@ movhi
 1505 01e0 9BB2     		uxth	r3, r3
 1506 01e2 013B     		subs	r3, r3, #1
 1507 01e4 9AB2     		uxth	r2, r3
 1508 01e6 FB68     		ldr	r3, [r7, #12]
 1509 01e8 A3F84620 		strh	r2, [r3, #70]	@ movhi
1034:E:/LiteOS/LiteOS_Lab/drivers/third_party/ST/STM32L4xx_HAL_Driver/Src\stm32l4xx_hal_spi.c ****         /* Next Data is a Transmission (Tx). Tx is allowed */
1035:E:/LiteOS/LiteOS_Lab/drivers/third_party/ST/STM32L4xx_HAL_Driver/Src\stm32l4xx_hal_spi.c ****         txallowed = 1U;
 1510              		.loc 1 1035 0
 1511 01ec 0123     		movs	r3, #1
 1512 01ee 7B62     		str	r3, [r7, #36]
 1513              	.L86:
1036:E:/LiteOS/LiteOS_Lab/drivers/third_party/ST/STM32L4xx_HAL_Driver/Src\stm32l4xx_hal_spi.c ****       }
1037:E:/LiteOS/LiteOS_Lab/drivers/third_party/ST/STM32L4xx_HAL_Driver/Src\stm32l4xx_hal_spi.c ****       if ((Timeout != HAL_MAX_DELAY) && ((HAL_GetTick() - tickstart) >=  Timeout))
 1514              		.loc 1 1037 0
 1515 01f0 3B6B     		ldr	r3, [r7, #48]
 1516 01f2 B3F1FF3F 		cmp	r3, #-1
 1517 01f6 0BD0     		beq	.L84
 1518              		.loc 1 1037 0 is_stmt 0 discriminator 1
 1519 01f8 FFF7FEFF 		bl	HAL_GetTick
 1520 01fc 0246     		mov	r2, r0
 1521 01fe 7B69     		ldr	r3, [r7, #20]
 1522 0200 D31A     		subs	r3, r2, r3
 1523 0202 3A6B     		ldr	r2, [r7, #48]
 1524 0204 9A42     		cmp	r2, r3
 1525 0206 03D8     		bhi	.L84
1038:E:/LiteOS/LiteOS_Lab/drivers/third_party/ST/STM32L4xx_HAL_Driver/Src\stm32l4xx_hal_spi.c ****       {
1039:E:/LiteOS/LiteOS_Lab/drivers/third_party/ST/STM32L4xx_HAL_Driver/Src\stm32l4xx_hal_spi.c ****         errorcode = HAL_TIMEOUT;
 1526              		.loc 1 1039 0 is_stmt 1
 1527 0208 0323     		movs	r3, #3
 1528 020a 87F82330 		strb	r3, [r7, #35]
1040:E:/LiteOS/LiteOS_Lab/drivers/third_party/ST/STM32L4xx_HAL_Driver/Src\stm32l4xx_hal_spi.c ****         goto error;
 1529              		.loc 1 1040 0
 1530 020e E5E0     		b	.L73
 1531              	.L84:
1003:E:/LiteOS/LiteOS_Lab/drivers/third_party/ST/STM32L4xx_HAL_Driver/Src\stm32l4xx_hal_spi.c ****     {
 1532              		.loc 1 1003 0
 1533 0210 FB68     		ldr	r3, [r7, #12]
ARM GAS  C:\Users\user\AppData\Local\Temp\ccvQ1M9B.s 			page 46


 1534 0212 DB8F     		ldrh	r3, [r3, #62]	@ movhi
 1535 0214 9BB2     		uxth	r3, r3
 1536 0216 002B     		cmp	r3, #0
 1537 0218 A9D1     		bne	.L87
1003:E:/LiteOS/LiteOS_Lab/drivers/third_party/ST/STM32L4xx_HAL_Driver/Src\stm32l4xx_hal_spi.c ****     {
 1538              		.loc 1 1003 0 is_stmt 0 discriminator 1
 1539 021a FB68     		ldr	r3, [r7, #12]
 1540 021c B3F84630 		ldrh	r3, [r3, #70]	@ movhi
 1541 0220 9BB2     		uxth	r3, r3
 1542 0222 002B     		cmp	r3, #0
 1543 0224 A3D1     		bne	.L87
 1544 0226 C9E0     		b	.L88
 1545              	.L81:
1041:E:/LiteOS/LiteOS_Lab/drivers/third_party/ST/STM32L4xx_HAL_Driver/Src\stm32l4xx_hal_spi.c ****       }
1042:E:/LiteOS/LiteOS_Lab/drivers/third_party/ST/STM32L4xx_HAL_Driver/Src\stm32l4xx_hal_spi.c ****     }
1043:E:/LiteOS/LiteOS_Lab/drivers/third_party/ST/STM32L4xx_HAL_Driver/Src\stm32l4xx_hal_spi.c ****   }
1044:E:/LiteOS/LiteOS_Lab/drivers/third_party/ST/STM32L4xx_HAL_Driver/Src\stm32l4xx_hal_spi.c ****   /* Transmit and Receive data in 8 Bit mode */
1045:E:/LiteOS/LiteOS_Lab/drivers/third_party/ST/STM32L4xx_HAL_Driver/Src\stm32l4xx_hal_spi.c ****   else
1046:E:/LiteOS/LiteOS_Lab/drivers/third_party/ST/STM32L4xx_HAL_Driver/Src\stm32l4xx_hal_spi.c ****   {
1047:E:/LiteOS/LiteOS_Lab/drivers/third_party/ST/STM32L4xx_HAL_Driver/Src\stm32l4xx_hal_spi.c ****     if ((hspi->Init.Mode == SPI_MODE_SLAVE) || (hspi->TxXferCount == 0x01U))
 1546              		.loc 1 1047 0 is_stmt 1
 1547 0228 FB68     		ldr	r3, [r7, #12]
 1548 022a 5B68     		ldr	r3, [r3, #4]
 1549 022c 002B     		cmp	r3, #0
 1550 022e 05D0     		beq	.L89
 1551              		.loc 1 1047 0 is_stmt 0 discriminator 1
 1552 0230 FB68     		ldr	r3, [r7, #12]
 1553 0232 DB8F     		ldrh	r3, [r3, #62]	@ movhi
 1554 0234 9BB2     		uxth	r3, r3
 1555 0236 012B     		cmp	r3, #1
 1556 0238 40F0B380 		bne	.L92
 1557              	.L89:
1048:E:/LiteOS/LiteOS_Lab/drivers/third_party/ST/STM32L4xx_HAL_Driver/Src\stm32l4xx_hal_spi.c ****     {
1049:E:/LiteOS/LiteOS_Lab/drivers/third_party/ST/STM32L4xx_HAL_Driver/Src\stm32l4xx_hal_spi.c ****       if (hspi->TxXferCount > 1U)
 1558              		.loc 1 1049 0 is_stmt 1
 1559 023c FB68     		ldr	r3, [r7, #12]
 1560 023e DB8F     		ldrh	r3, [r3, #62]	@ movhi
 1561 0240 9BB2     		uxth	r3, r3
 1562 0242 012B     		cmp	r3, #1
 1563 0244 0FD9     		bls	.L91
1050:E:/LiteOS/LiteOS_Lab/drivers/third_party/ST/STM32L4xx_HAL_Driver/Src\stm32l4xx_hal_spi.c ****       {
1051:E:/LiteOS/LiteOS_Lab/drivers/third_party/ST/STM32L4xx_HAL_Driver/Src\stm32l4xx_hal_spi.c ****         hspi->Instance->DR = *((uint16_t *)pTxData);
 1564              		.loc 1 1051 0
 1565 0246 BB68     		ldr	r3, [r7, #8]
 1566 0248 1A88     		ldrh	r2, [r3]
 1567 024a FB68     		ldr	r3, [r7, #12]
 1568 024c 1B68     		ldr	r3, [r3]
 1569 024e DA60     		str	r2, [r3, #12]
1052:E:/LiteOS/LiteOS_Lab/drivers/third_party/ST/STM32L4xx_HAL_Driver/Src\stm32l4xx_hal_spi.c ****         pTxData += sizeof(uint16_t);
 1570              		.loc 1 1052 0
 1571 0250 BB68     		ldr	r3, [r7, #8]
 1572 0252 0233     		adds	r3, r3, #2
 1573 0254 BB60     		str	r3, [r7, #8]
1053:E:/LiteOS/LiteOS_Lab/drivers/third_party/ST/STM32L4xx_HAL_Driver/Src\stm32l4xx_hal_spi.c ****         hspi->TxXferCount -= 2U;
 1574              		.loc 1 1053 0
 1575 0256 FB68     		ldr	r3, [r7, #12]
 1576 0258 DB8F     		ldrh	r3, [r3, #62]	@ movhi
ARM GAS  C:\Users\user\AppData\Local\Temp\ccvQ1M9B.s 			page 47


 1577 025a 9BB2     		uxth	r3, r3
 1578 025c 023B     		subs	r3, r3, #2
 1579 025e 9AB2     		uxth	r2, r3
 1580 0260 FB68     		ldr	r3, [r7, #12]
 1581 0262 DA87     		strh	r2, [r3, #62]	@ movhi
 1582 0264 9DE0     		b	.L92
 1583              	.L91:
1054:E:/LiteOS/LiteOS_Lab/drivers/third_party/ST/STM32L4xx_HAL_Driver/Src\stm32l4xx_hal_spi.c ****       }
1055:E:/LiteOS/LiteOS_Lab/drivers/third_party/ST/STM32L4xx_HAL_Driver/Src\stm32l4xx_hal_spi.c ****       else
1056:E:/LiteOS/LiteOS_Lab/drivers/third_party/ST/STM32L4xx_HAL_Driver/Src\stm32l4xx_hal_spi.c ****       {
1057:E:/LiteOS/LiteOS_Lab/drivers/third_party/ST/STM32L4xx_HAL_Driver/Src\stm32l4xx_hal_spi.c ****         *(__IO uint8_t *)&hspi->Instance->DR = (*pTxData++);
 1584              		.loc 1 1057 0
 1585 0266 BB68     		ldr	r3, [r7, #8]
 1586 0268 5A1C     		adds	r2, r3, #1
 1587 026a BA60     		str	r2, [r7, #8]
 1588 026c FA68     		ldr	r2, [r7, #12]
 1589 026e 1268     		ldr	r2, [r2]
 1590 0270 0C32     		adds	r2, r2, #12
 1591 0272 1B78     		ldrb	r3, [r3]	@ zero_extendqisi2
 1592 0274 1370     		strb	r3, [r2]
1058:E:/LiteOS/LiteOS_Lab/drivers/third_party/ST/STM32L4xx_HAL_Driver/Src\stm32l4xx_hal_spi.c ****         hspi->TxXferCount--;
 1593              		.loc 1 1058 0
 1594 0276 FB68     		ldr	r3, [r7, #12]
 1595 0278 DB8F     		ldrh	r3, [r3, #62]	@ movhi
 1596 027a 9BB2     		uxth	r3, r3
 1597 027c 013B     		subs	r3, r3, #1
 1598 027e 9AB2     		uxth	r2, r3
 1599 0280 FB68     		ldr	r3, [r7, #12]
 1600 0282 DA87     		strh	r2, [r3, #62]	@ movhi
1059:E:/LiteOS/LiteOS_Lab/drivers/third_party/ST/STM32L4xx_HAL_Driver/Src\stm32l4xx_hal_spi.c ****       }
1060:E:/LiteOS/LiteOS_Lab/drivers/third_party/ST/STM32L4xx_HAL_Driver/Src\stm32l4xx_hal_spi.c ****     }
1061:E:/LiteOS/LiteOS_Lab/drivers/third_party/ST/STM32L4xx_HAL_Driver/Src\stm32l4xx_hal_spi.c ****     while ((hspi->TxXferCount > 0U) || (hspi->RxXferCount > 0U))
 1601              		.loc 1 1061 0
 1602 0284 8DE0     		b	.L92
 1603              	.L100:
1062:E:/LiteOS/LiteOS_Lab/drivers/third_party/ST/STM32L4xx_HAL_Driver/Src\stm32l4xx_hal_spi.c ****     {
1063:E:/LiteOS/LiteOS_Lab/drivers/third_party/ST/STM32L4xx_HAL_Driver/Src\stm32l4xx_hal_spi.c ****       /* Check TXE flag */
1064:E:/LiteOS/LiteOS_Lab/drivers/third_party/ST/STM32L4xx_HAL_Driver/Src\stm32l4xx_hal_spi.c ****       if (txallowed && (hspi->TxXferCount > 0U) && (__HAL_SPI_GET_FLAG(hspi, SPI_FLAG_TXE)))
 1604              		.loc 1 1064 0
 1605 0286 7B6A     		ldr	r3, [r7, #36]
 1606 0288 002B     		cmp	r3, #0
 1607 028a 31D0     		beq	.L93
 1608              		.loc 1 1064 0 is_stmt 0 discriminator 1
 1609 028c FB68     		ldr	r3, [r7, #12]
 1610 028e DB8F     		ldrh	r3, [r3, #62]	@ movhi
 1611 0290 9BB2     		uxth	r3, r3
 1612 0292 002B     		cmp	r3, #0
 1613 0294 2CD0     		beq	.L93
 1614              		.loc 1 1064 0 discriminator 2
 1615 0296 FB68     		ldr	r3, [r7, #12]
 1616 0298 1B68     		ldr	r3, [r3]
 1617 029a 9B68     		ldr	r3, [r3, #8]
 1618 029c 03F00203 		and	r3, r3, #2
 1619 02a0 022B     		cmp	r3, #2
 1620 02a2 25D1     		bne	.L93
1065:E:/LiteOS/LiteOS_Lab/drivers/third_party/ST/STM32L4xx_HAL_Driver/Src\stm32l4xx_hal_spi.c ****       {
1066:E:/LiteOS/LiteOS_Lab/drivers/third_party/ST/STM32L4xx_HAL_Driver/Src\stm32l4xx_hal_spi.c ****         if (hspi->TxXferCount > 1U)
ARM GAS  C:\Users\user\AppData\Local\Temp\ccvQ1M9B.s 			page 48


 1621              		.loc 1 1066 0 is_stmt 1
 1622 02a4 FB68     		ldr	r3, [r7, #12]
 1623 02a6 DB8F     		ldrh	r3, [r3, #62]	@ movhi
 1624 02a8 9BB2     		uxth	r3, r3
 1625 02aa 012B     		cmp	r3, #1
 1626 02ac 0FD9     		bls	.L94
1067:E:/LiteOS/LiteOS_Lab/drivers/third_party/ST/STM32L4xx_HAL_Driver/Src\stm32l4xx_hal_spi.c ****         {
1068:E:/LiteOS/LiteOS_Lab/drivers/third_party/ST/STM32L4xx_HAL_Driver/Src\stm32l4xx_hal_spi.c ****           hspi->Instance->DR = *((uint16_t *)pTxData);
 1627              		.loc 1 1068 0
 1628 02ae BB68     		ldr	r3, [r7, #8]
 1629 02b0 1A88     		ldrh	r2, [r3]
 1630 02b2 FB68     		ldr	r3, [r7, #12]
 1631 02b4 1B68     		ldr	r3, [r3]
 1632 02b6 DA60     		str	r2, [r3, #12]
1069:E:/LiteOS/LiteOS_Lab/drivers/third_party/ST/STM32L4xx_HAL_Driver/Src\stm32l4xx_hal_spi.c ****           pTxData += sizeof(uint16_t);
 1633              		.loc 1 1069 0
 1634 02b8 BB68     		ldr	r3, [r7, #8]
 1635 02ba 0233     		adds	r3, r3, #2
 1636 02bc BB60     		str	r3, [r7, #8]
1070:E:/LiteOS/LiteOS_Lab/drivers/third_party/ST/STM32L4xx_HAL_Driver/Src\stm32l4xx_hal_spi.c ****           hspi->TxXferCount -= 2U;
 1637              		.loc 1 1070 0
 1638 02be FB68     		ldr	r3, [r7, #12]
 1639 02c0 DB8F     		ldrh	r3, [r3, #62]	@ movhi
 1640 02c2 9BB2     		uxth	r3, r3
 1641 02c4 023B     		subs	r3, r3, #2
 1642 02c6 9AB2     		uxth	r2, r3
 1643 02c8 FB68     		ldr	r3, [r7, #12]
 1644 02ca DA87     		strh	r2, [r3, #62]	@ movhi
 1645 02cc 0EE0     		b	.L95
 1646              	.L94:
1071:E:/LiteOS/LiteOS_Lab/drivers/third_party/ST/STM32L4xx_HAL_Driver/Src\stm32l4xx_hal_spi.c ****         }
1072:E:/LiteOS/LiteOS_Lab/drivers/third_party/ST/STM32L4xx_HAL_Driver/Src\stm32l4xx_hal_spi.c ****         else
1073:E:/LiteOS/LiteOS_Lab/drivers/third_party/ST/STM32L4xx_HAL_Driver/Src\stm32l4xx_hal_spi.c ****         {
1074:E:/LiteOS/LiteOS_Lab/drivers/third_party/ST/STM32L4xx_HAL_Driver/Src\stm32l4xx_hal_spi.c ****           *(__IO uint8_t *)&hspi->Instance->DR = (*pTxData++);
 1647              		.loc 1 1074 0
 1648 02ce BB68     		ldr	r3, [r7, #8]
 1649 02d0 5A1C     		adds	r2, r3, #1
 1650 02d2 BA60     		str	r2, [r7, #8]
 1651 02d4 FA68     		ldr	r2, [r7, #12]
 1652 02d6 1268     		ldr	r2, [r2]
 1653 02d8 0C32     		adds	r2, r2, #12
 1654 02da 1B78     		ldrb	r3, [r3]	@ zero_extendqisi2
 1655 02dc 1370     		strb	r3, [r2]
1075:E:/LiteOS/LiteOS_Lab/drivers/third_party/ST/STM32L4xx_HAL_Driver/Src\stm32l4xx_hal_spi.c ****           hspi->TxXferCount--;
 1656              		.loc 1 1075 0
 1657 02de FB68     		ldr	r3, [r7, #12]
 1658 02e0 DB8F     		ldrh	r3, [r3, #62]	@ movhi
 1659 02e2 9BB2     		uxth	r3, r3
 1660 02e4 013B     		subs	r3, r3, #1
 1661 02e6 9AB2     		uxth	r2, r3
 1662 02e8 FB68     		ldr	r3, [r7, #12]
 1663 02ea DA87     		strh	r2, [r3, #62]	@ movhi
 1664              	.L95:
1076:E:/LiteOS/LiteOS_Lab/drivers/third_party/ST/STM32L4xx_HAL_Driver/Src\stm32l4xx_hal_spi.c ****         }
1077:E:/LiteOS/LiteOS_Lab/drivers/third_party/ST/STM32L4xx_HAL_Driver/Src\stm32l4xx_hal_spi.c ****         /* Next Data is a reception (Rx). Tx not allowed */
1078:E:/LiteOS/LiteOS_Lab/drivers/third_party/ST/STM32L4xx_HAL_Driver/Src\stm32l4xx_hal_spi.c ****         txallowed = 0U;
 1665              		.loc 1 1078 0
ARM GAS  C:\Users\user\AppData\Local\Temp\ccvQ1M9B.s 			page 49


 1666 02ec 0023     		movs	r3, #0
 1667 02ee 7B62     		str	r3, [r7, #36]
 1668              	.L93:
1079:E:/LiteOS/LiteOS_Lab/drivers/third_party/ST/STM32L4xx_HAL_Driver/Src\stm32l4xx_hal_spi.c **** 
1080:E:/LiteOS/LiteOS_Lab/drivers/third_party/ST/STM32L4xx_HAL_Driver/Src\stm32l4xx_hal_spi.c **** #if (USE_SPI_CRC != 0U)
1081:E:/LiteOS/LiteOS_Lab/drivers/third_party/ST/STM32L4xx_HAL_Driver/Src\stm32l4xx_hal_spi.c ****         /* Enable CRC Transmission */
1082:E:/LiteOS/LiteOS_Lab/drivers/third_party/ST/STM32L4xx_HAL_Driver/Src\stm32l4xx_hal_spi.c ****         if ((hspi->TxXferCount == 0U) && (hspi->Init.CRCCalculation == SPI_CRCCALCULATION_ENABLE))
1083:E:/LiteOS/LiteOS_Lab/drivers/third_party/ST/STM32L4xx_HAL_Driver/Src\stm32l4xx_hal_spi.c ****         {
1084:E:/LiteOS/LiteOS_Lab/drivers/third_party/ST/STM32L4xx_HAL_Driver/Src\stm32l4xx_hal_spi.c ****           /* Set NSS Soft to received correctly the CRC on slave mode with NSS pulse activated */
1085:E:/LiteOS/LiteOS_Lab/drivers/third_party/ST/STM32L4xx_HAL_Driver/Src\stm32l4xx_hal_spi.c ****           if (((hspi->Instance->CR1 & SPI_CR1_MSTR) == 0U) && ((hspi->Instance->CR2 & SPI_CR2_NSSP)
1086:E:/LiteOS/LiteOS_Lab/drivers/third_party/ST/STM32L4xx_HAL_Driver/Src\stm32l4xx_hal_spi.c ****           {
1087:E:/LiteOS/LiteOS_Lab/drivers/third_party/ST/STM32L4xx_HAL_Driver/Src\stm32l4xx_hal_spi.c ****             SET_BIT(hspi->Instance->CR1, SPI_CR1_SSM);
1088:E:/LiteOS/LiteOS_Lab/drivers/third_party/ST/STM32L4xx_HAL_Driver/Src\stm32l4xx_hal_spi.c ****           }
1089:E:/LiteOS/LiteOS_Lab/drivers/third_party/ST/STM32L4xx_HAL_Driver/Src\stm32l4xx_hal_spi.c ****           SET_BIT(hspi->Instance->CR1, SPI_CR1_CRCNEXT);
1090:E:/LiteOS/LiteOS_Lab/drivers/third_party/ST/STM32L4xx_HAL_Driver/Src\stm32l4xx_hal_spi.c ****         }
1091:E:/LiteOS/LiteOS_Lab/drivers/third_party/ST/STM32L4xx_HAL_Driver/Src\stm32l4xx_hal_spi.c **** #endif /* USE_SPI_CRC */
1092:E:/LiteOS/LiteOS_Lab/drivers/third_party/ST/STM32L4xx_HAL_Driver/Src\stm32l4xx_hal_spi.c ****       }
1093:E:/LiteOS/LiteOS_Lab/drivers/third_party/ST/STM32L4xx_HAL_Driver/Src\stm32l4xx_hal_spi.c **** 
1094:E:/LiteOS/LiteOS_Lab/drivers/third_party/ST/STM32L4xx_HAL_Driver/Src\stm32l4xx_hal_spi.c ****       /* Wait until RXNE flag is reset */
1095:E:/LiteOS/LiteOS_Lab/drivers/third_party/ST/STM32L4xx_HAL_Driver/Src\stm32l4xx_hal_spi.c ****       if ((hspi->RxXferCount > 0U) && (__HAL_SPI_GET_FLAG(hspi, SPI_FLAG_RXNE)))
 1669              		.loc 1 1095 0
 1670 02f0 FB68     		ldr	r3, [r7, #12]
 1671 02f2 B3F84630 		ldrh	r3, [r3, #70]	@ movhi
 1672 02f6 9BB2     		uxth	r3, r3
 1673 02f8 002B     		cmp	r3, #0
 1674 02fa 42D0     		beq	.L96
 1675              		.loc 1 1095 0 is_stmt 0 discriminator 1
 1676 02fc FB68     		ldr	r3, [r7, #12]
 1677 02fe 1B68     		ldr	r3, [r3]
 1678 0300 9B68     		ldr	r3, [r3, #8]
 1679 0302 03F00103 		and	r3, r3, #1
 1680 0306 012B     		cmp	r3, #1
 1681 0308 3BD1     		bne	.L96
1096:E:/LiteOS/LiteOS_Lab/drivers/third_party/ST/STM32L4xx_HAL_Driver/Src\stm32l4xx_hal_spi.c ****       {
1097:E:/LiteOS/LiteOS_Lab/drivers/third_party/ST/STM32L4xx_HAL_Driver/Src\stm32l4xx_hal_spi.c ****         if (hspi->RxXferCount > 1U)
 1682              		.loc 1 1097 0 is_stmt 1
 1683 030a FB68     		ldr	r3, [r7, #12]
 1684 030c B3F84630 		ldrh	r3, [r3, #70]	@ movhi
 1685 0310 9BB2     		uxth	r3, r3
 1686 0312 012B     		cmp	r3, #1
 1687 0314 20D9     		bls	.L97
1098:E:/LiteOS/LiteOS_Lab/drivers/third_party/ST/STM32L4xx_HAL_Driver/Src\stm32l4xx_hal_spi.c ****         {
1099:E:/LiteOS/LiteOS_Lab/drivers/third_party/ST/STM32L4xx_HAL_Driver/Src\stm32l4xx_hal_spi.c ****           *((uint16_t *)pRxData) = hspi->Instance->DR;
 1688              		.loc 1 1099 0
 1689 0316 FB68     		ldr	r3, [r7, #12]
 1690 0318 1B68     		ldr	r3, [r3]
 1691 031a DB68     		ldr	r3, [r3, #12]
 1692 031c 9AB2     		uxth	r2, r3
 1693 031e 7B68     		ldr	r3, [r7, #4]
 1694 0320 1A80     		strh	r2, [r3]	@ movhi
1100:E:/LiteOS/LiteOS_Lab/drivers/third_party/ST/STM32L4xx_HAL_Driver/Src\stm32l4xx_hal_spi.c ****           pRxData += sizeof(uint16_t);
 1695              		.loc 1 1100 0
 1696 0322 7B68     		ldr	r3, [r7, #4]
 1697 0324 0233     		adds	r3, r3, #2
 1698 0326 7B60     		str	r3, [r7, #4]
1101:E:/LiteOS/LiteOS_Lab/drivers/third_party/ST/STM32L4xx_HAL_Driver/Src\stm32l4xx_hal_spi.c ****           hspi->RxXferCount -= 2U;
 1699              		.loc 1 1101 0
ARM GAS  C:\Users\user\AppData\Local\Temp\ccvQ1M9B.s 			page 50


 1700 0328 FB68     		ldr	r3, [r7, #12]
 1701 032a B3F84630 		ldrh	r3, [r3, #70]	@ movhi
 1702 032e 9BB2     		uxth	r3, r3
 1703 0330 023B     		subs	r3, r3, #2
 1704 0332 9AB2     		uxth	r2, r3
 1705 0334 FB68     		ldr	r3, [r7, #12]
 1706 0336 A3F84620 		strh	r2, [r3, #70]	@ movhi
1102:E:/LiteOS/LiteOS_Lab/drivers/third_party/ST/STM32L4xx_HAL_Driver/Src\stm32l4xx_hal_spi.c ****           if (hspi->RxXferCount <= 1U)
 1707              		.loc 1 1102 0
 1708 033a FB68     		ldr	r3, [r7, #12]
 1709 033c B3F84630 		ldrh	r3, [r3, #70]	@ movhi
 1710 0340 9BB2     		uxth	r3, r3
 1711 0342 012B     		cmp	r3, #1
 1712 0344 1BD8     		bhi	.L99
1103:E:/LiteOS/LiteOS_Lab/drivers/third_party/ST/STM32L4xx_HAL_Driver/Src\stm32l4xx_hal_spi.c ****           {
1104:E:/LiteOS/LiteOS_Lab/drivers/third_party/ST/STM32L4xx_HAL_Driver/Src\stm32l4xx_hal_spi.c ****             /* Set RX Fifo threshold before to switch on 8 bit data size */
1105:E:/LiteOS/LiteOS_Lab/drivers/third_party/ST/STM32L4xx_HAL_Driver/Src\stm32l4xx_hal_spi.c ****             SET_BIT(hspi->Instance->CR2, SPI_RXFIFO_THRESHOLD);
 1713              		.loc 1 1105 0
 1714 0346 FB68     		ldr	r3, [r7, #12]
 1715 0348 1B68     		ldr	r3, [r3]
 1716 034a 5A68     		ldr	r2, [r3, #4]
 1717 034c FB68     		ldr	r3, [r7, #12]
 1718 034e 1B68     		ldr	r3, [r3]
 1719 0350 42F48052 		orr	r2, r2, #4096
 1720 0354 5A60     		str	r2, [r3, #4]
 1721 0356 12E0     		b	.L99
 1722              	.L97:
1106:E:/LiteOS/LiteOS_Lab/drivers/third_party/ST/STM32L4xx_HAL_Driver/Src\stm32l4xx_hal_spi.c ****           }
1107:E:/LiteOS/LiteOS_Lab/drivers/third_party/ST/STM32L4xx_HAL_Driver/Src\stm32l4xx_hal_spi.c ****         }
1108:E:/LiteOS/LiteOS_Lab/drivers/third_party/ST/STM32L4xx_HAL_Driver/Src\stm32l4xx_hal_spi.c ****         else
1109:E:/LiteOS/LiteOS_Lab/drivers/third_party/ST/STM32L4xx_HAL_Driver/Src\stm32l4xx_hal_spi.c ****         {
1110:E:/LiteOS/LiteOS_Lab/drivers/third_party/ST/STM32L4xx_HAL_Driver/Src\stm32l4xx_hal_spi.c ****           (*(uint8_t *)pRxData++) = *(__IO uint8_t *)&hspi->Instance->DR;
 1723              		.loc 1 1110 0
 1724 0358 FB68     		ldr	r3, [r7, #12]
 1725 035a 1B68     		ldr	r3, [r3]
 1726 035c 03F10C02 		add	r2, r3, #12
 1727 0360 7B68     		ldr	r3, [r7, #4]
 1728 0362 591C     		adds	r1, r3, #1
 1729 0364 7960     		str	r1, [r7, #4]
 1730 0366 1278     		ldrb	r2, [r2]
 1731 0368 D2B2     		uxtb	r2, r2
 1732 036a 1A70     		strb	r2, [r3]
1111:E:/LiteOS/LiteOS_Lab/drivers/third_party/ST/STM32L4xx_HAL_Driver/Src\stm32l4xx_hal_spi.c ****           hspi->RxXferCount--;
 1733              		.loc 1 1111 0
 1734 036c FB68     		ldr	r3, [r7, #12]
 1735 036e B3F84630 		ldrh	r3, [r3, #70]	@ movhi
 1736 0372 9BB2     		uxth	r3, r3
 1737 0374 013B     		subs	r3, r3, #1
 1738 0376 9AB2     		uxth	r2, r3
 1739 0378 FB68     		ldr	r3, [r7, #12]
 1740 037a A3F84620 		strh	r2, [r3, #70]	@ movhi
 1741              	.L99:
1112:E:/LiteOS/LiteOS_Lab/drivers/third_party/ST/STM32L4xx_HAL_Driver/Src\stm32l4xx_hal_spi.c ****         }
1113:E:/LiteOS/LiteOS_Lab/drivers/third_party/ST/STM32L4xx_HAL_Driver/Src\stm32l4xx_hal_spi.c ****         /* Next Data is a Transmission (Tx). Tx is allowed */
1114:E:/LiteOS/LiteOS_Lab/drivers/third_party/ST/STM32L4xx_HAL_Driver/Src\stm32l4xx_hal_spi.c ****         txallowed = 1U;
 1742              		.loc 1 1114 0
 1743 037e 0123     		movs	r3, #1
ARM GAS  C:\Users\user\AppData\Local\Temp\ccvQ1M9B.s 			page 51


 1744 0380 7B62     		str	r3, [r7, #36]
 1745              	.L96:
1115:E:/LiteOS/LiteOS_Lab/drivers/third_party/ST/STM32L4xx_HAL_Driver/Src\stm32l4xx_hal_spi.c ****       }
1116:E:/LiteOS/LiteOS_Lab/drivers/third_party/ST/STM32L4xx_HAL_Driver/Src\stm32l4xx_hal_spi.c ****       if ((Timeout != HAL_MAX_DELAY) && ((HAL_GetTick() - tickstart) >=  Timeout))
 1746              		.loc 1 1116 0
 1747 0382 3B6B     		ldr	r3, [r7, #48]
 1748 0384 B3F1FF3F 		cmp	r3, #-1
 1749 0388 0BD0     		beq	.L92
 1750              		.loc 1 1116 0 is_stmt 0 discriminator 1
 1751 038a FFF7FEFF 		bl	HAL_GetTick
 1752 038e 0246     		mov	r2, r0
 1753 0390 7B69     		ldr	r3, [r7, #20]
 1754 0392 D31A     		subs	r3, r2, r3
 1755 0394 3A6B     		ldr	r2, [r7, #48]
 1756 0396 9A42     		cmp	r2, r3
 1757 0398 03D8     		bhi	.L92
1117:E:/LiteOS/LiteOS_Lab/drivers/third_party/ST/STM32L4xx_HAL_Driver/Src\stm32l4xx_hal_spi.c ****       {
1118:E:/LiteOS/LiteOS_Lab/drivers/third_party/ST/STM32L4xx_HAL_Driver/Src\stm32l4xx_hal_spi.c ****         errorcode = HAL_TIMEOUT;
 1758              		.loc 1 1118 0 is_stmt 1
 1759 039a 0323     		movs	r3, #3
 1760 039c 87F82330 		strb	r3, [r7, #35]
1119:E:/LiteOS/LiteOS_Lab/drivers/third_party/ST/STM32L4xx_HAL_Driver/Src\stm32l4xx_hal_spi.c ****         goto error;
 1761              		.loc 1 1119 0
 1762 03a0 1CE0     		b	.L73
 1763              	.L92:
1061:E:/LiteOS/LiteOS_Lab/drivers/third_party/ST/STM32L4xx_HAL_Driver/Src\stm32l4xx_hal_spi.c ****     {
 1764              		.loc 1 1061 0
 1765 03a2 FB68     		ldr	r3, [r7, #12]
 1766 03a4 DB8F     		ldrh	r3, [r3, #62]	@ movhi
 1767 03a6 9BB2     		uxth	r3, r3
 1768 03a8 002B     		cmp	r3, #0
 1769 03aa 7FF46CAF 		bne	.L100
1061:E:/LiteOS/LiteOS_Lab/drivers/third_party/ST/STM32L4xx_HAL_Driver/Src\stm32l4xx_hal_spi.c ****     {
 1770              		.loc 1 1061 0 is_stmt 0 discriminator 1
 1771 03ae FB68     		ldr	r3, [r7, #12]
 1772 03b0 B3F84630 		ldrh	r3, [r3, #70]	@ movhi
 1773 03b4 9BB2     		uxth	r3, r3
 1774 03b6 002B     		cmp	r3, #0
 1775 03b8 7FF465AF 		bne	.L100
 1776              	.L88:
1120:E:/LiteOS/LiteOS_Lab/drivers/third_party/ST/STM32L4xx_HAL_Driver/Src\stm32l4xx_hal_spi.c ****       }
1121:E:/LiteOS/LiteOS_Lab/drivers/third_party/ST/STM32L4xx_HAL_Driver/Src\stm32l4xx_hal_spi.c ****     }
1122:E:/LiteOS/LiteOS_Lab/drivers/third_party/ST/STM32L4xx_HAL_Driver/Src\stm32l4xx_hal_spi.c ****   }
1123:E:/LiteOS/LiteOS_Lab/drivers/third_party/ST/STM32L4xx_HAL_Driver/Src\stm32l4xx_hal_spi.c **** 
1124:E:/LiteOS/LiteOS_Lab/drivers/third_party/ST/STM32L4xx_HAL_Driver/Src\stm32l4xx_hal_spi.c **** #if (USE_SPI_CRC != 0U)
1125:E:/LiteOS/LiteOS_Lab/drivers/third_party/ST/STM32L4xx_HAL_Driver/Src\stm32l4xx_hal_spi.c ****   /* Read CRC from DR to close CRC calculation process */
1126:E:/LiteOS/LiteOS_Lab/drivers/third_party/ST/STM32L4xx_HAL_Driver/Src\stm32l4xx_hal_spi.c ****   if (hspi->Init.CRCCalculation == SPI_CRCCALCULATION_ENABLE)
1127:E:/LiteOS/LiteOS_Lab/drivers/third_party/ST/STM32L4xx_HAL_Driver/Src\stm32l4xx_hal_spi.c ****   {
1128:E:/LiteOS/LiteOS_Lab/drivers/third_party/ST/STM32L4xx_HAL_Driver/Src\stm32l4xx_hal_spi.c ****     /* Wait until TXE flag */
1129:E:/LiteOS/LiteOS_Lab/drivers/third_party/ST/STM32L4xx_HAL_Driver/Src\stm32l4xx_hal_spi.c ****     if (SPI_WaitFlagStateUntilTimeout(hspi, SPI_FLAG_RXNE, SET, Timeout, tickstart) != HAL_OK)
1130:E:/LiteOS/LiteOS_Lab/drivers/third_party/ST/STM32L4xx_HAL_Driver/Src\stm32l4xx_hal_spi.c ****     {
1131:E:/LiteOS/LiteOS_Lab/drivers/third_party/ST/STM32L4xx_HAL_Driver/Src\stm32l4xx_hal_spi.c ****       /* Error on the CRC reception */
1132:E:/LiteOS/LiteOS_Lab/drivers/third_party/ST/STM32L4xx_HAL_Driver/Src\stm32l4xx_hal_spi.c ****       SET_BIT(hspi->ErrorCode, HAL_SPI_ERROR_CRC);
1133:E:/LiteOS/LiteOS_Lab/drivers/third_party/ST/STM32L4xx_HAL_Driver/Src\stm32l4xx_hal_spi.c ****       errorcode = HAL_TIMEOUT;
1134:E:/LiteOS/LiteOS_Lab/drivers/third_party/ST/STM32L4xx_HAL_Driver/Src\stm32l4xx_hal_spi.c ****       goto error;
1135:E:/LiteOS/LiteOS_Lab/drivers/third_party/ST/STM32L4xx_HAL_Driver/Src\stm32l4xx_hal_spi.c ****     }
1136:E:/LiteOS/LiteOS_Lab/drivers/third_party/ST/STM32L4xx_HAL_Driver/Src\stm32l4xx_hal_spi.c ****     /* Read CRC */
ARM GAS  C:\Users\user\AppData\Local\Temp\ccvQ1M9B.s 			page 52


1137:E:/LiteOS/LiteOS_Lab/drivers/third_party/ST/STM32L4xx_HAL_Driver/Src\stm32l4xx_hal_spi.c ****     if (hspi->Init.DataSize == SPI_DATASIZE_16BIT)
1138:E:/LiteOS/LiteOS_Lab/drivers/third_party/ST/STM32L4xx_HAL_Driver/Src\stm32l4xx_hal_spi.c ****     {
1139:E:/LiteOS/LiteOS_Lab/drivers/third_party/ST/STM32L4xx_HAL_Driver/Src\stm32l4xx_hal_spi.c ****       tmpreg = hspi->Instance->DR;
1140:E:/LiteOS/LiteOS_Lab/drivers/third_party/ST/STM32L4xx_HAL_Driver/Src\stm32l4xx_hal_spi.c ****       /* To avoid GCC warning */
1141:E:/LiteOS/LiteOS_Lab/drivers/third_party/ST/STM32L4xx_HAL_Driver/Src\stm32l4xx_hal_spi.c ****       UNUSED(tmpreg);
1142:E:/LiteOS/LiteOS_Lab/drivers/third_party/ST/STM32L4xx_HAL_Driver/Src\stm32l4xx_hal_spi.c ****     }
1143:E:/LiteOS/LiteOS_Lab/drivers/third_party/ST/STM32L4xx_HAL_Driver/Src\stm32l4xx_hal_spi.c ****     else
1144:E:/LiteOS/LiteOS_Lab/drivers/third_party/ST/STM32L4xx_HAL_Driver/Src\stm32l4xx_hal_spi.c ****     {
1145:E:/LiteOS/LiteOS_Lab/drivers/third_party/ST/STM32L4xx_HAL_Driver/Src\stm32l4xx_hal_spi.c ****       tmpreg = *(__IO uint8_t *)&hspi->Instance->DR;
1146:E:/LiteOS/LiteOS_Lab/drivers/third_party/ST/STM32L4xx_HAL_Driver/Src\stm32l4xx_hal_spi.c ****       /* To avoid GCC warning */
1147:E:/LiteOS/LiteOS_Lab/drivers/third_party/ST/STM32L4xx_HAL_Driver/Src\stm32l4xx_hal_spi.c ****       UNUSED(tmpreg);
1148:E:/LiteOS/LiteOS_Lab/drivers/third_party/ST/STM32L4xx_HAL_Driver/Src\stm32l4xx_hal_spi.c **** 
1149:E:/LiteOS/LiteOS_Lab/drivers/third_party/ST/STM32L4xx_HAL_Driver/Src\stm32l4xx_hal_spi.c ****       if (hspi->Init.CRCLength == SPI_CRC_LENGTH_16BIT)
1150:E:/LiteOS/LiteOS_Lab/drivers/third_party/ST/STM32L4xx_HAL_Driver/Src\stm32l4xx_hal_spi.c ****       {
1151:E:/LiteOS/LiteOS_Lab/drivers/third_party/ST/STM32L4xx_HAL_Driver/Src\stm32l4xx_hal_spi.c ****         if (SPI_WaitFlagStateUntilTimeout(hspi, SPI_FLAG_RXNE, SET, Timeout, tickstart) != HAL_OK)
1152:E:/LiteOS/LiteOS_Lab/drivers/third_party/ST/STM32L4xx_HAL_Driver/Src\stm32l4xx_hal_spi.c ****         {
1153:E:/LiteOS/LiteOS_Lab/drivers/third_party/ST/STM32L4xx_HAL_Driver/Src\stm32l4xx_hal_spi.c ****           /* Error on the CRC reception */
1154:E:/LiteOS/LiteOS_Lab/drivers/third_party/ST/STM32L4xx_HAL_Driver/Src\stm32l4xx_hal_spi.c ****           SET_BIT(hspi->ErrorCode, HAL_SPI_ERROR_CRC);
1155:E:/LiteOS/LiteOS_Lab/drivers/third_party/ST/STM32L4xx_HAL_Driver/Src\stm32l4xx_hal_spi.c ****           errorcode = HAL_TIMEOUT;
1156:E:/LiteOS/LiteOS_Lab/drivers/third_party/ST/STM32L4xx_HAL_Driver/Src\stm32l4xx_hal_spi.c ****           goto error;
1157:E:/LiteOS/LiteOS_Lab/drivers/third_party/ST/STM32L4xx_HAL_Driver/Src\stm32l4xx_hal_spi.c ****         }
1158:E:/LiteOS/LiteOS_Lab/drivers/third_party/ST/STM32L4xx_HAL_Driver/Src\stm32l4xx_hal_spi.c ****         tmpreg = *(__IO uint8_t *)&hspi->Instance->DR;
1159:E:/LiteOS/LiteOS_Lab/drivers/third_party/ST/STM32L4xx_HAL_Driver/Src\stm32l4xx_hal_spi.c ****         /* To avoid GCC warning */
1160:E:/LiteOS/LiteOS_Lab/drivers/third_party/ST/STM32L4xx_HAL_Driver/Src\stm32l4xx_hal_spi.c ****         UNUSED(tmpreg);
1161:E:/LiteOS/LiteOS_Lab/drivers/third_party/ST/STM32L4xx_HAL_Driver/Src\stm32l4xx_hal_spi.c ****       }
1162:E:/LiteOS/LiteOS_Lab/drivers/third_party/ST/STM32L4xx_HAL_Driver/Src\stm32l4xx_hal_spi.c ****     }
1163:E:/LiteOS/LiteOS_Lab/drivers/third_party/ST/STM32L4xx_HAL_Driver/Src\stm32l4xx_hal_spi.c ****   }
1164:E:/LiteOS/LiteOS_Lab/drivers/third_party/ST/STM32L4xx_HAL_Driver/Src\stm32l4xx_hal_spi.c **** 
1165:E:/LiteOS/LiteOS_Lab/drivers/third_party/ST/STM32L4xx_HAL_Driver/Src\stm32l4xx_hal_spi.c ****   /* Check if CRC error occurred */
1166:E:/LiteOS/LiteOS_Lab/drivers/third_party/ST/STM32L4xx_HAL_Driver/Src\stm32l4xx_hal_spi.c ****   if (__HAL_SPI_GET_FLAG(hspi, SPI_FLAG_CRCERR))
1167:E:/LiteOS/LiteOS_Lab/drivers/third_party/ST/STM32L4xx_HAL_Driver/Src\stm32l4xx_hal_spi.c ****   {
1168:E:/LiteOS/LiteOS_Lab/drivers/third_party/ST/STM32L4xx_HAL_Driver/Src\stm32l4xx_hal_spi.c ****     SET_BIT(hspi->ErrorCode, HAL_SPI_ERROR_CRC);
1169:E:/LiteOS/LiteOS_Lab/drivers/third_party/ST/STM32L4xx_HAL_Driver/Src\stm32l4xx_hal_spi.c ****     /* Clear CRC Flag */
1170:E:/LiteOS/LiteOS_Lab/drivers/third_party/ST/STM32L4xx_HAL_Driver/Src\stm32l4xx_hal_spi.c ****     __HAL_SPI_CLEAR_CRCERRFLAG(hspi);
1171:E:/LiteOS/LiteOS_Lab/drivers/third_party/ST/STM32L4xx_HAL_Driver/Src\stm32l4xx_hal_spi.c **** 
1172:E:/LiteOS/LiteOS_Lab/drivers/third_party/ST/STM32L4xx_HAL_Driver/Src\stm32l4xx_hal_spi.c ****     errorcode = HAL_ERROR;
1173:E:/LiteOS/LiteOS_Lab/drivers/third_party/ST/STM32L4xx_HAL_Driver/Src\stm32l4xx_hal_spi.c ****   }
1174:E:/LiteOS/LiteOS_Lab/drivers/third_party/ST/STM32L4xx_HAL_Driver/Src\stm32l4xx_hal_spi.c **** #endif /* USE_SPI_CRC */
1175:E:/LiteOS/LiteOS_Lab/drivers/third_party/ST/STM32L4xx_HAL_Driver/Src\stm32l4xx_hal_spi.c **** 
1176:E:/LiteOS/LiteOS_Lab/drivers/third_party/ST/STM32L4xx_HAL_Driver/Src\stm32l4xx_hal_spi.c ****   /* Check the end of the transaction */
1177:E:/LiteOS/LiteOS_Lab/drivers/third_party/ST/STM32L4xx_HAL_Driver/Src\stm32l4xx_hal_spi.c ****   if (SPI_EndRxTxTransaction(hspi, Timeout, tickstart) != HAL_OK)
 1777              		.loc 1 1177 0 is_stmt 1
 1778 03bc 7A69     		ldr	r2, [r7, #20]
 1779 03be 396B     		ldr	r1, [r7, #48]
 1780 03c0 F868     		ldr	r0, [r7, #12]
 1781 03c2 FFF7FEFF 		bl	SPI_EndRxTxTransaction
 1782 03c6 0346     		mov	r3, r0
 1783 03c8 002B     		cmp	r3, #0
 1784 03ca 06D0     		beq	.L101
1178:E:/LiteOS/LiteOS_Lab/drivers/third_party/ST/STM32L4xx_HAL_Driver/Src\stm32l4xx_hal_spi.c ****   {
1179:E:/LiteOS/LiteOS_Lab/drivers/third_party/ST/STM32L4xx_HAL_Driver/Src\stm32l4xx_hal_spi.c ****     errorcode = HAL_ERROR;
 1785              		.loc 1 1179 0
 1786 03cc 0123     		movs	r3, #1
 1787 03ce 87F82330 		strb	r3, [r7, #35]
1180:E:/LiteOS/LiteOS_Lab/drivers/third_party/ST/STM32L4xx_HAL_Driver/Src\stm32l4xx_hal_spi.c ****     hspi->ErrorCode = HAL_SPI_ERROR_FLAG;
 1788              		.loc 1 1180 0
 1789 03d2 FB68     		ldr	r3, [r7, #12]
ARM GAS  C:\Users\user\AppData\Local\Temp\ccvQ1M9B.s 			page 53


 1790 03d4 2022     		movs	r2, #32
 1791 03d6 1A66     		str	r2, [r3, #96]
 1792 03d8 00E0     		b	.L73
 1793              	.L101:
1181:E:/LiteOS/LiteOS_Lab/drivers/third_party/ST/STM32L4xx_HAL_Driver/Src\stm32l4xx_hal_spi.c ****   }
1182:E:/LiteOS/LiteOS_Lab/drivers/third_party/ST/STM32L4xx_HAL_Driver/Src\stm32l4xx_hal_spi.c **** 
1183:E:/LiteOS/LiteOS_Lab/drivers/third_party/ST/STM32L4xx_HAL_Driver/Src\stm32l4xx_hal_spi.c **** error :
 1794              		.loc 1 1183 0
 1795 03da 00BF     		nop
 1796              	.L73:
1184:E:/LiteOS/LiteOS_Lab/drivers/third_party/ST/STM32L4xx_HAL_Driver/Src\stm32l4xx_hal_spi.c ****   hspi->State = HAL_SPI_STATE_READY;
 1797              		.loc 1 1184 0
 1798 03dc FB68     		ldr	r3, [r7, #12]
 1799 03de 0122     		movs	r2, #1
 1800 03e0 83F85D20 		strb	r2, [r3, #93]
1185:E:/LiteOS/LiteOS_Lab/drivers/third_party/ST/STM32L4xx_HAL_Driver/Src\stm32l4xx_hal_spi.c ****   __HAL_UNLOCK(hspi);
 1801              		.loc 1 1185 0
 1802 03e4 FB68     		ldr	r3, [r7, #12]
 1803 03e6 0022     		movs	r2, #0
 1804 03e8 83F85C20 		strb	r2, [r3, #92]
1186:E:/LiteOS/LiteOS_Lab/drivers/third_party/ST/STM32L4xx_HAL_Driver/Src\stm32l4xx_hal_spi.c ****   return errorcode;
 1805              		.loc 1 1186 0
 1806 03ec 97F82330 		ldrb	r3, [r7, #35]	@ zero_extendqisi2
 1807              	.L70:
1187:E:/LiteOS/LiteOS_Lab/drivers/third_party/ST/STM32L4xx_HAL_Driver/Src\stm32l4xx_hal_spi.c **** }
 1808              		.loc 1 1187 0
 1809 03f0 1846     		mov	r0, r3
 1810 03f2 2837     		adds	r7, r7, #40
 1811              	.LCFI35:
 1812              		.cfi_def_cfa_offset 8
 1813 03f4 BD46     		mov	sp, r7
 1814              	.LCFI36:
 1815              		.cfi_def_cfa_register 13
 1816              		@ sp needed
 1817 03f6 80BD     		pop	{r7, pc}
 1818              		.cfi_endproc
 1819              	.LFE139:
 1821              		.section	.text.HAL_SPI_Transmit_IT,"ax",%progbits
 1822              		.align	1
 1823              		.global	HAL_SPI_Transmit_IT
 1824              		.syntax unified
 1825              		.thumb
 1826              		.thumb_func
 1827              		.fpu fpv4-sp-d16
 1829              	HAL_SPI_Transmit_IT:
 1830              	.LFB140:
1188:E:/LiteOS/LiteOS_Lab/drivers/third_party/ST/STM32L4xx_HAL_Driver/Src\stm32l4xx_hal_spi.c **** 
1189:E:/LiteOS/LiteOS_Lab/drivers/third_party/ST/STM32L4xx_HAL_Driver/Src\stm32l4xx_hal_spi.c **** /**
1190:E:/LiteOS/LiteOS_Lab/drivers/third_party/ST/STM32L4xx_HAL_Driver/Src\stm32l4xx_hal_spi.c ****   * @brief  Transmit an amount of data in non-blocking mode with Interrupt.
1191:E:/LiteOS/LiteOS_Lab/drivers/third_party/ST/STM32L4xx_HAL_Driver/Src\stm32l4xx_hal_spi.c ****   * @param  hspi pointer to a SPI_HandleTypeDef structure that contains
1192:E:/LiteOS/LiteOS_Lab/drivers/third_party/ST/STM32L4xx_HAL_Driver/Src\stm32l4xx_hal_spi.c ****   *               the configuration information for SPI module.
1193:E:/LiteOS/LiteOS_Lab/drivers/third_party/ST/STM32L4xx_HAL_Driver/Src\stm32l4xx_hal_spi.c ****   * @param  pData pointer to data buffer
1194:E:/LiteOS/LiteOS_Lab/drivers/third_party/ST/STM32L4xx_HAL_Driver/Src\stm32l4xx_hal_spi.c ****   * @param  Size amount of data to be sent
1195:E:/LiteOS/LiteOS_Lab/drivers/third_party/ST/STM32L4xx_HAL_Driver/Src\stm32l4xx_hal_spi.c ****   * @retval HAL status
1196:E:/LiteOS/LiteOS_Lab/drivers/third_party/ST/STM32L4xx_HAL_Driver/Src\stm32l4xx_hal_spi.c ****   */
1197:E:/LiteOS/LiteOS_Lab/drivers/third_party/ST/STM32L4xx_HAL_Driver/Src\stm32l4xx_hal_spi.c **** HAL_StatusTypeDef HAL_SPI_Transmit_IT(SPI_HandleTypeDef *hspi, uint8_t *pData, uint16_t Size)
1198:E:/LiteOS/LiteOS_Lab/drivers/third_party/ST/STM32L4xx_HAL_Driver/Src\stm32l4xx_hal_spi.c **** {
ARM GAS  C:\Users\user\AppData\Local\Temp\ccvQ1M9B.s 			page 54


 1831              		.loc 1 1198 0
 1832              		.cfi_startproc
 1833              		@ args = 0, pretend = 0, frame = 24
 1834              		@ frame_needed = 1, uses_anonymous_args = 0
 1835              		@ link register save eliminated.
 1836 0000 80B4     		push	{r7}
 1837              	.LCFI37:
 1838              		.cfi_def_cfa_offset 4
 1839              		.cfi_offset 7, -4
 1840 0002 87B0     		sub	sp, sp, #28
 1841              	.LCFI38:
 1842              		.cfi_def_cfa_offset 32
 1843 0004 00AF     		add	r7, sp, #0
 1844              	.LCFI39:
 1845              		.cfi_def_cfa_register 7
 1846 0006 F860     		str	r0, [r7, #12]
 1847 0008 B960     		str	r1, [r7, #8]
 1848 000a 1346     		mov	r3, r2
 1849 000c FB80     		strh	r3, [r7, #6]	@ movhi
1199:E:/LiteOS/LiteOS_Lab/drivers/third_party/ST/STM32L4xx_HAL_Driver/Src\stm32l4xx_hal_spi.c ****   HAL_StatusTypeDef errorcode = HAL_OK;
 1850              		.loc 1 1199 0
 1851 000e 0023     		movs	r3, #0
 1852 0010 FB75     		strb	r3, [r7, #23]
1200:E:/LiteOS/LiteOS_Lab/drivers/third_party/ST/STM32L4xx_HAL_Driver/Src\stm32l4xx_hal_spi.c **** 
1201:E:/LiteOS/LiteOS_Lab/drivers/third_party/ST/STM32L4xx_HAL_Driver/Src\stm32l4xx_hal_spi.c ****   /* Check Direction parameter */
1202:E:/LiteOS/LiteOS_Lab/drivers/third_party/ST/STM32L4xx_HAL_Driver/Src\stm32l4xx_hal_spi.c ****   assert_param(IS_SPI_DIRECTION_2LINES_OR_1LINE(hspi->Init.Direction));
1203:E:/LiteOS/LiteOS_Lab/drivers/third_party/ST/STM32L4xx_HAL_Driver/Src\stm32l4xx_hal_spi.c **** 
1204:E:/LiteOS/LiteOS_Lab/drivers/third_party/ST/STM32L4xx_HAL_Driver/Src\stm32l4xx_hal_spi.c ****   /* Process Locked */
1205:E:/LiteOS/LiteOS_Lab/drivers/third_party/ST/STM32L4xx_HAL_Driver/Src\stm32l4xx_hal_spi.c ****   __HAL_LOCK(hspi);
 1853              		.loc 1 1205 0
 1854 0012 FB68     		ldr	r3, [r7, #12]
 1855 0014 93F85C30 		ldrb	r3, [r3, #92]	@ zero_extendqisi2
 1856 0018 012B     		cmp	r3, #1
 1857 001a 01D1     		bne	.L103
 1858              		.loc 1 1205 0 is_stmt 0 discriminator 1
 1859 001c 0223     		movs	r3, #2
 1860 001e 6AE0     		b	.L104
 1861              	.L103:
 1862              		.loc 1 1205 0 discriminator 2
 1863 0020 FB68     		ldr	r3, [r7, #12]
 1864 0022 0122     		movs	r2, #1
 1865 0024 83F85C20 		strb	r2, [r3, #92]
1206:E:/LiteOS/LiteOS_Lab/drivers/third_party/ST/STM32L4xx_HAL_Driver/Src\stm32l4xx_hal_spi.c **** 
1207:E:/LiteOS/LiteOS_Lab/drivers/third_party/ST/STM32L4xx_HAL_Driver/Src\stm32l4xx_hal_spi.c ****   if ((pData == NULL) || (Size == 0U))
 1866              		.loc 1 1207 0 is_stmt 1 discriminator 2
 1867 0028 BB68     		ldr	r3, [r7, #8]
 1868 002a 002B     		cmp	r3, #0
 1869 002c 02D0     		beq	.L105
 1870              		.loc 1 1207 0 is_stmt 0 discriminator 1
 1871 002e FB88     		ldrh	r3, [r7, #6]
 1872 0030 002B     		cmp	r3, #0
 1873 0032 02D1     		bne	.L106
 1874              	.L105:
1208:E:/LiteOS/LiteOS_Lab/drivers/third_party/ST/STM32L4xx_HAL_Driver/Src\stm32l4xx_hal_spi.c ****   {
1209:E:/LiteOS/LiteOS_Lab/drivers/third_party/ST/STM32L4xx_HAL_Driver/Src\stm32l4xx_hal_spi.c ****     errorcode = HAL_ERROR;
 1875              		.loc 1 1209 0 is_stmt 1
 1876 0034 0123     		movs	r3, #1
ARM GAS  C:\Users\user\AppData\Local\Temp\ccvQ1M9B.s 			page 55


 1877 0036 FB75     		strb	r3, [r7, #23]
1210:E:/LiteOS/LiteOS_Lab/drivers/third_party/ST/STM32L4xx_HAL_Driver/Src\stm32l4xx_hal_spi.c ****     goto error;
 1878              		.loc 1 1210 0
 1879 0038 58E0     		b	.L107
 1880              	.L106:
1211:E:/LiteOS/LiteOS_Lab/drivers/third_party/ST/STM32L4xx_HAL_Driver/Src\stm32l4xx_hal_spi.c ****   }
1212:E:/LiteOS/LiteOS_Lab/drivers/third_party/ST/STM32L4xx_HAL_Driver/Src\stm32l4xx_hal_spi.c **** 
1213:E:/LiteOS/LiteOS_Lab/drivers/third_party/ST/STM32L4xx_HAL_Driver/Src\stm32l4xx_hal_spi.c ****   if (hspi->State != HAL_SPI_STATE_READY)
 1881              		.loc 1 1213 0
 1882 003a FB68     		ldr	r3, [r7, #12]
 1883 003c 93F85D30 		ldrb	r3, [r3, #93]
 1884 0040 DBB2     		uxtb	r3, r3
 1885 0042 012B     		cmp	r3, #1
 1886 0044 02D0     		beq	.L108
1214:E:/LiteOS/LiteOS_Lab/drivers/third_party/ST/STM32L4xx_HAL_Driver/Src\stm32l4xx_hal_spi.c ****   {
1215:E:/LiteOS/LiteOS_Lab/drivers/third_party/ST/STM32L4xx_HAL_Driver/Src\stm32l4xx_hal_spi.c ****     errorcode = HAL_BUSY;
 1887              		.loc 1 1215 0
 1888 0046 0223     		movs	r3, #2
 1889 0048 FB75     		strb	r3, [r7, #23]
1216:E:/LiteOS/LiteOS_Lab/drivers/third_party/ST/STM32L4xx_HAL_Driver/Src\stm32l4xx_hal_spi.c ****     goto error;
 1890              		.loc 1 1216 0
 1891 004a 4FE0     		b	.L107
 1892              	.L108:
1217:E:/LiteOS/LiteOS_Lab/drivers/third_party/ST/STM32L4xx_HAL_Driver/Src\stm32l4xx_hal_spi.c ****   }
1218:E:/LiteOS/LiteOS_Lab/drivers/third_party/ST/STM32L4xx_HAL_Driver/Src\stm32l4xx_hal_spi.c **** 
1219:E:/LiteOS/LiteOS_Lab/drivers/third_party/ST/STM32L4xx_HAL_Driver/Src\stm32l4xx_hal_spi.c ****   /* Set the transaction information */
1220:E:/LiteOS/LiteOS_Lab/drivers/third_party/ST/STM32L4xx_HAL_Driver/Src\stm32l4xx_hal_spi.c ****   hspi->State       = HAL_SPI_STATE_BUSY_TX;
 1893              		.loc 1 1220 0
 1894 004c FB68     		ldr	r3, [r7, #12]
 1895 004e 0322     		movs	r2, #3
 1896 0050 83F85D20 		strb	r2, [r3, #93]
1221:E:/LiteOS/LiteOS_Lab/drivers/third_party/ST/STM32L4xx_HAL_Driver/Src\stm32l4xx_hal_spi.c ****   hspi->ErrorCode   = HAL_SPI_ERROR_NONE;
 1897              		.loc 1 1221 0
 1898 0054 FB68     		ldr	r3, [r7, #12]
 1899 0056 0022     		movs	r2, #0
 1900 0058 1A66     		str	r2, [r3, #96]
1222:E:/LiteOS/LiteOS_Lab/drivers/third_party/ST/STM32L4xx_HAL_Driver/Src\stm32l4xx_hal_spi.c ****   hspi->pTxBuffPtr  = (uint8_t *)pData;
 1901              		.loc 1 1222 0
 1902 005a FB68     		ldr	r3, [r7, #12]
 1903 005c BA68     		ldr	r2, [r7, #8]
 1904 005e 9A63     		str	r2, [r3, #56]
1223:E:/LiteOS/LiteOS_Lab/drivers/third_party/ST/STM32L4xx_HAL_Driver/Src\stm32l4xx_hal_spi.c ****   hspi->TxXferSize  = Size;
 1905              		.loc 1 1223 0
 1906 0060 FB68     		ldr	r3, [r7, #12]
 1907 0062 FA88     		ldrh	r2, [r7, #6]	@ movhi
 1908 0064 9A87     		strh	r2, [r3, #60]	@ movhi
1224:E:/LiteOS/LiteOS_Lab/drivers/third_party/ST/STM32L4xx_HAL_Driver/Src\stm32l4xx_hal_spi.c ****   hspi->TxXferCount = Size;
 1909              		.loc 1 1224 0
 1910 0066 FB68     		ldr	r3, [r7, #12]
 1911 0068 FA88     		ldrh	r2, [r7, #6]	@ movhi
 1912 006a DA87     		strh	r2, [r3, #62]	@ movhi
1225:E:/LiteOS/LiteOS_Lab/drivers/third_party/ST/STM32L4xx_HAL_Driver/Src\stm32l4xx_hal_spi.c **** 
1226:E:/LiteOS/LiteOS_Lab/drivers/third_party/ST/STM32L4xx_HAL_Driver/Src\stm32l4xx_hal_spi.c ****   /* Init field not used in handle to zero */
1227:E:/LiteOS/LiteOS_Lab/drivers/third_party/ST/STM32L4xx_HAL_Driver/Src\stm32l4xx_hal_spi.c ****   hspi->pRxBuffPtr  = (uint8_t *)NULL;
 1913              		.loc 1 1227 0
 1914 006c FB68     		ldr	r3, [r7, #12]
 1915 006e 0022     		movs	r2, #0
ARM GAS  C:\Users\user\AppData\Local\Temp\ccvQ1M9B.s 			page 56


 1916 0070 1A64     		str	r2, [r3, #64]
1228:E:/LiteOS/LiteOS_Lab/drivers/third_party/ST/STM32L4xx_HAL_Driver/Src\stm32l4xx_hal_spi.c ****   hspi->RxXferSize  = 0U;
 1917              		.loc 1 1228 0
 1918 0072 FB68     		ldr	r3, [r7, #12]
 1919 0074 0022     		movs	r2, #0
 1920 0076 A3F84420 		strh	r2, [r3, #68]	@ movhi
1229:E:/LiteOS/LiteOS_Lab/drivers/third_party/ST/STM32L4xx_HAL_Driver/Src\stm32l4xx_hal_spi.c ****   hspi->RxXferCount = 0U;
 1921              		.loc 1 1229 0
 1922 007a FB68     		ldr	r3, [r7, #12]
 1923 007c 0022     		movs	r2, #0
 1924 007e A3F84620 		strh	r2, [r3, #70]	@ movhi
1230:E:/LiteOS/LiteOS_Lab/drivers/third_party/ST/STM32L4xx_HAL_Driver/Src\stm32l4xx_hal_spi.c ****   hspi->RxISR       = NULL;
 1925              		.loc 1 1230 0
 1926 0082 FB68     		ldr	r3, [r7, #12]
 1927 0084 0022     		movs	r2, #0
 1928 0086 DA64     		str	r2, [r3, #76]
1231:E:/LiteOS/LiteOS_Lab/drivers/third_party/ST/STM32L4xx_HAL_Driver/Src\stm32l4xx_hal_spi.c **** 
1232:E:/LiteOS/LiteOS_Lab/drivers/third_party/ST/STM32L4xx_HAL_Driver/Src\stm32l4xx_hal_spi.c ****   /* Set the function for IT treatment */
1233:E:/LiteOS/LiteOS_Lab/drivers/third_party/ST/STM32L4xx_HAL_Driver/Src\stm32l4xx_hal_spi.c ****   if (hspi->Init.DataSize > SPI_DATASIZE_8BIT)
 1929              		.loc 1 1233 0
 1930 0088 FB68     		ldr	r3, [r7, #12]
 1931 008a DB68     		ldr	r3, [r3, #12]
 1932 008c B3F5E06F 		cmp	r3, #1792
 1933 0090 03D9     		bls	.L109
1234:E:/LiteOS/LiteOS_Lab/drivers/third_party/ST/STM32L4xx_HAL_Driver/Src\stm32l4xx_hal_spi.c ****   {
1235:E:/LiteOS/LiteOS_Lab/drivers/third_party/ST/STM32L4xx_HAL_Driver/Src\stm32l4xx_hal_spi.c ****     hspi->TxISR = SPI_TxISR_16BIT;
 1934              		.loc 1 1235 0
 1935 0092 FB68     		ldr	r3, [r7, #12]
 1936 0094 1B4A     		ldr	r2, .L113
 1937 0096 1A65     		str	r2, [r3, #80]
 1938 0098 02E0     		b	.L110
 1939              	.L109:
1236:E:/LiteOS/LiteOS_Lab/drivers/third_party/ST/STM32L4xx_HAL_Driver/Src\stm32l4xx_hal_spi.c ****   }
1237:E:/LiteOS/LiteOS_Lab/drivers/third_party/ST/STM32L4xx_HAL_Driver/Src\stm32l4xx_hal_spi.c ****   else
1238:E:/LiteOS/LiteOS_Lab/drivers/third_party/ST/STM32L4xx_HAL_Driver/Src\stm32l4xx_hal_spi.c ****   {
1239:E:/LiteOS/LiteOS_Lab/drivers/third_party/ST/STM32L4xx_HAL_Driver/Src\stm32l4xx_hal_spi.c ****     hspi->TxISR = SPI_TxISR_8BIT;
 1940              		.loc 1 1239 0
 1941 009a FB68     		ldr	r3, [r7, #12]
 1942 009c 1A4A     		ldr	r2, .L113+4
 1943 009e 1A65     		str	r2, [r3, #80]
 1944              	.L110:
1240:E:/LiteOS/LiteOS_Lab/drivers/third_party/ST/STM32L4xx_HAL_Driver/Src\stm32l4xx_hal_spi.c ****   }
1241:E:/LiteOS/LiteOS_Lab/drivers/third_party/ST/STM32L4xx_HAL_Driver/Src\stm32l4xx_hal_spi.c **** 
1242:E:/LiteOS/LiteOS_Lab/drivers/third_party/ST/STM32L4xx_HAL_Driver/Src\stm32l4xx_hal_spi.c ****   /* Configure communication direction : 1Line */
1243:E:/LiteOS/LiteOS_Lab/drivers/third_party/ST/STM32L4xx_HAL_Driver/Src\stm32l4xx_hal_spi.c ****   if (hspi->Init.Direction == SPI_DIRECTION_1LINE)
 1945              		.loc 1 1243 0
 1946 00a0 FB68     		ldr	r3, [r7, #12]
 1947 00a2 9B68     		ldr	r3, [r3, #8]
 1948 00a4 B3F5004F 		cmp	r3, #32768
 1949 00a8 07D1     		bne	.L111
1244:E:/LiteOS/LiteOS_Lab/drivers/third_party/ST/STM32L4xx_HAL_Driver/Src\stm32l4xx_hal_spi.c ****   {
1245:E:/LiteOS/LiteOS_Lab/drivers/third_party/ST/STM32L4xx_HAL_Driver/Src\stm32l4xx_hal_spi.c ****     SPI_1LINE_TX(hspi);
 1950              		.loc 1 1245 0
 1951 00aa FB68     		ldr	r3, [r7, #12]
 1952 00ac 1B68     		ldr	r3, [r3]
 1953 00ae 1A68     		ldr	r2, [r3]
 1954 00b0 FB68     		ldr	r3, [r7, #12]
ARM GAS  C:\Users\user\AppData\Local\Temp\ccvQ1M9B.s 			page 57


 1955 00b2 1B68     		ldr	r3, [r3]
 1956 00b4 42F48042 		orr	r2, r2, #16384
 1957 00b8 1A60     		str	r2, [r3]
 1958              	.L111:
1246:E:/LiteOS/LiteOS_Lab/drivers/third_party/ST/STM32L4xx_HAL_Driver/Src\stm32l4xx_hal_spi.c ****   }
1247:E:/LiteOS/LiteOS_Lab/drivers/third_party/ST/STM32L4xx_HAL_Driver/Src\stm32l4xx_hal_spi.c **** 
1248:E:/LiteOS/LiteOS_Lab/drivers/third_party/ST/STM32L4xx_HAL_Driver/Src\stm32l4xx_hal_spi.c **** #if (USE_SPI_CRC != 0U)
1249:E:/LiteOS/LiteOS_Lab/drivers/third_party/ST/STM32L4xx_HAL_Driver/Src\stm32l4xx_hal_spi.c ****   /* Reset CRC Calculation */
1250:E:/LiteOS/LiteOS_Lab/drivers/third_party/ST/STM32L4xx_HAL_Driver/Src\stm32l4xx_hal_spi.c ****   if (hspi->Init.CRCCalculation == SPI_CRCCALCULATION_ENABLE)
1251:E:/LiteOS/LiteOS_Lab/drivers/third_party/ST/STM32L4xx_HAL_Driver/Src\stm32l4xx_hal_spi.c ****   {
1252:E:/LiteOS/LiteOS_Lab/drivers/third_party/ST/STM32L4xx_HAL_Driver/Src\stm32l4xx_hal_spi.c ****     SPI_RESET_CRC(hspi);
1253:E:/LiteOS/LiteOS_Lab/drivers/third_party/ST/STM32L4xx_HAL_Driver/Src\stm32l4xx_hal_spi.c ****   }
1254:E:/LiteOS/LiteOS_Lab/drivers/third_party/ST/STM32L4xx_HAL_Driver/Src\stm32l4xx_hal_spi.c **** #endif /* USE_SPI_CRC */
1255:E:/LiteOS/LiteOS_Lab/drivers/third_party/ST/STM32L4xx_HAL_Driver/Src\stm32l4xx_hal_spi.c **** 
1256:E:/LiteOS/LiteOS_Lab/drivers/third_party/ST/STM32L4xx_HAL_Driver/Src\stm32l4xx_hal_spi.c ****   /* Enable TXE and ERR interrupt */
1257:E:/LiteOS/LiteOS_Lab/drivers/third_party/ST/STM32L4xx_HAL_Driver/Src\stm32l4xx_hal_spi.c ****   __HAL_SPI_ENABLE_IT(hspi, (SPI_IT_TXE | SPI_IT_ERR));
 1959              		.loc 1 1257 0
 1960 00ba FB68     		ldr	r3, [r7, #12]
 1961 00bc 1B68     		ldr	r3, [r3]
 1962 00be 5A68     		ldr	r2, [r3, #4]
 1963 00c0 FB68     		ldr	r3, [r7, #12]
 1964 00c2 1B68     		ldr	r3, [r3]
 1965 00c4 42F0A002 		orr	r2, r2, #160
 1966 00c8 5A60     		str	r2, [r3, #4]
1258:E:/LiteOS/LiteOS_Lab/drivers/third_party/ST/STM32L4xx_HAL_Driver/Src\stm32l4xx_hal_spi.c **** 
1259:E:/LiteOS/LiteOS_Lab/drivers/third_party/ST/STM32L4xx_HAL_Driver/Src\stm32l4xx_hal_spi.c **** 
1260:E:/LiteOS/LiteOS_Lab/drivers/third_party/ST/STM32L4xx_HAL_Driver/Src\stm32l4xx_hal_spi.c ****   /* Check if the SPI is already enabled */
1261:E:/LiteOS/LiteOS_Lab/drivers/third_party/ST/STM32L4xx_HAL_Driver/Src\stm32l4xx_hal_spi.c ****   if ((hspi->Instance->CR1 & SPI_CR1_SPE) != SPI_CR1_SPE)
 1967              		.loc 1 1261 0
 1968 00ca FB68     		ldr	r3, [r7, #12]
 1969 00cc 1B68     		ldr	r3, [r3]
 1970 00ce 1B68     		ldr	r3, [r3]
 1971 00d0 03F04003 		and	r3, r3, #64
 1972 00d4 402B     		cmp	r3, #64
 1973 00d6 08D0     		beq	.L112
1262:E:/LiteOS/LiteOS_Lab/drivers/third_party/ST/STM32L4xx_HAL_Driver/Src\stm32l4xx_hal_spi.c ****   {
1263:E:/LiteOS/LiteOS_Lab/drivers/third_party/ST/STM32L4xx_HAL_Driver/Src\stm32l4xx_hal_spi.c ****     /* Enable SPI peripheral */
1264:E:/LiteOS/LiteOS_Lab/drivers/third_party/ST/STM32L4xx_HAL_Driver/Src\stm32l4xx_hal_spi.c ****     __HAL_SPI_ENABLE(hspi);
 1974              		.loc 1 1264 0
 1975 00d8 FB68     		ldr	r3, [r7, #12]
 1976 00da 1B68     		ldr	r3, [r3]
 1977 00dc 1A68     		ldr	r2, [r3]
 1978 00de FB68     		ldr	r3, [r7, #12]
 1979 00e0 1B68     		ldr	r3, [r3]
 1980 00e2 42F04002 		orr	r2, r2, #64
 1981 00e6 1A60     		str	r2, [r3]
 1982 00e8 00E0     		b	.L107
 1983              	.L112:
1265:E:/LiteOS/LiteOS_Lab/drivers/third_party/ST/STM32L4xx_HAL_Driver/Src\stm32l4xx_hal_spi.c ****   }
1266:E:/LiteOS/LiteOS_Lab/drivers/third_party/ST/STM32L4xx_HAL_Driver/Src\stm32l4xx_hal_spi.c **** 
1267:E:/LiteOS/LiteOS_Lab/drivers/third_party/ST/STM32L4xx_HAL_Driver/Src\stm32l4xx_hal_spi.c **** error :
 1984              		.loc 1 1267 0
 1985 00ea 00BF     		nop
 1986              	.L107:
1268:E:/LiteOS/LiteOS_Lab/drivers/third_party/ST/STM32L4xx_HAL_Driver/Src\stm32l4xx_hal_spi.c ****   __HAL_UNLOCK(hspi);
 1987              		.loc 1 1268 0
 1988 00ec FB68     		ldr	r3, [r7, #12]
ARM GAS  C:\Users\user\AppData\Local\Temp\ccvQ1M9B.s 			page 58


 1989 00ee 0022     		movs	r2, #0
 1990 00f0 83F85C20 		strb	r2, [r3, #92]
1269:E:/LiteOS/LiteOS_Lab/drivers/third_party/ST/STM32L4xx_HAL_Driver/Src\stm32l4xx_hal_spi.c ****   return errorcode;
 1991              		.loc 1 1269 0
 1992 00f4 FB7D     		ldrb	r3, [r7, #23]	@ zero_extendqisi2
 1993              	.L104:
1270:E:/LiteOS/LiteOS_Lab/drivers/third_party/ST/STM32L4xx_HAL_Driver/Src\stm32l4xx_hal_spi.c **** }
 1994              		.loc 1 1270 0
 1995 00f6 1846     		mov	r0, r3
 1996 00f8 1C37     		adds	r7, r7, #28
 1997              	.LCFI40:
 1998              		.cfi_def_cfa_offset 4
 1999 00fa BD46     		mov	sp, r7
 2000              	.LCFI41:
 2001              		.cfi_def_cfa_register 13
 2002              		@ sp needed
 2003 00fc 5DF8047B 		ldr	r7, [sp], #4
 2004              	.LCFI42:
 2005              		.cfi_restore 7
 2006              		.cfi_def_cfa_offset 0
 2007 0100 7047     		bx	lr
 2008              	.L114:
 2009 0102 00BF     		.align	2
 2010              	.L113:
 2011 0104 00000000 		.word	SPI_TxISR_16BIT
 2012 0108 00000000 		.word	SPI_TxISR_8BIT
 2013              		.cfi_endproc
 2014              	.LFE140:
 2016              		.section	.text.HAL_SPI_Receive_IT,"ax",%progbits
 2017              		.align	1
 2018              		.global	HAL_SPI_Receive_IT
 2019              		.syntax unified
 2020              		.thumb
 2021              		.thumb_func
 2022              		.fpu fpv4-sp-d16
 2024              	HAL_SPI_Receive_IT:
 2025              	.LFB141:
1271:E:/LiteOS/LiteOS_Lab/drivers/third_party/ST/STM32L4xx_HAL_Driver/Src\stm32l4xx_hal_spi.c **** 
1272:E:/LiteOS/LiteOS_Lab/drivers/third_party/ST/STM32L4xx_HAL_Driver/Src\stm32l4xx_hal_spi.c **** /**
1273:E:/LiteOS/LiteOS_Lab/drivers/third_party/ST/STM32L4xx_HAL_Driver/Src\stm32l4xx_hal_spi.c ****   * @brief  Receive an amount of data in non-blocking mode with Interrupt.
1274:E:/LiteOS/LiteOS_Lab/drivers/third_party/ST/STM32L4xx_HAL_Driver/Src\stm32l4xx_hal_spi.c ****   * @param  hspi pointer to a SPI_HandleTypeDef structure that contains
1275:E:/LiteOS/LiteOS_Lab/drivers/third_party/ST/STM32L4xx_HAL_Driver/Src\stm32l4xx_hal_spi.c ****   *               the configuration information for SPI module.
1276:E:/LiteOS/LiteOS_Lab/drivers/third_party/ST/STM32L4xx_HAL_Driver/Src\stm32l4xx_hal_spi.c ****   * @param  pData pointer to data buffer
1277:E:/LiteOS/LiteOS_Lab/drivers/third_party/ST/STM32L4xx_HAL_Driver/Src\stm32l4xx_hal_spi.c ****   * @param  Size amount of data to be sent
1278:E:/LiteOS/LiteOS_Lab/drivers/third_party/ST/STM32L4xx_HAL_Driver/Src\stm32l4xx_hal_spi.c ****   * @retval HAL status
1279:E:/LiteOS/LiteOS_Lab/drivers/third_party/ST/STM32L4xx_HAL_Driver/Src\stm32l4xx_hal_spi.c ****   */
