ARM GAS  C:\Users\user\AppData\Local\Temp\ccmqW6jC.s 			page 1


   1              		.cpu cortex-m4
   2              		.eabi_attribute 27, 1
   3              		.eabi_attribute 28, 1
   4              		.eabi_attribute 20, 1
   5              		.eabi_attribute 21, 1
   6              		.eabi_attribute 23, 3
   7              		.eabi_attribute 24, 1
   8              		.eabi_attribute 25, 1
   9              		.eabi_attribute 26, 1
  10              		.eabi_attribute 30, 6
  11              		.eabi_attribute 34, 1
  12              		.eabi_attribute 18, 4
  13              		.file	"stm32l4xx_hal_rcc.c"
  14              		.text
  15              	.Ltext0:
  16              		.cfi_sections	.debug_frame
  17              		.section	.text.HAL_RCC_DeInit,"ax",%progbits
  18              		.align	1
  19              		.global	HAL_RCC_DeInit
  20              		.syntax unified
  21              		.thumb
  22              		.thumb_func
  23              		.fpu fpv4-sp-d16
  25              	HAL_RCC_DeInit:
  26              	.LFB133:
  27              		.file 1 "E:/LiteOS/LiteOS_Lab/drivers/third_party/ST/STM32L4xx_HAL_Driver/Src/stm32l4xx_hal_rcc.c"
   1:E:/LiteOS/LiteOS_Lab/drivers/third_party/ST/STM32L4xx_HAL_Driver/Src\stm32l4xx_hal_rcc.c **** /**
   2:E:/LiteOS/LiteOS_Lab/drivers/third_party/ST/STM32L4xx_HAL_Driver/Src\stm32l4xx_hal_rcc.c ****   ******************************************************************************
   3:E:/LiteOS/LiteOS_Lab/drivers/third_party/ST/STM32L4xx_HAL_Driver/Src\stm32l4xx_hal_rcc.c ****   * @file    stm32l4xx_hal_rcc.c
   4:E:/LiteOS/LiteOS_Lab/drivers/third_party/ST/STM32L4xx_HAL_Driver/Src\stm32l4xx_hal_rcc.c ****   * @author  MCD Application Team
   5:E:/LiteOS/LiteOS_Lab/drivers/third_party/ST/STM32L4xx_HAL_Driver/Src\stm32l4xx_hal_rcc.c ****   * @brief   RCC HAL module driver.
   6:E:/LiteOS/LiteOS_Lab/drivers/third_party/ST/STM32L4xx_HAL_Driver/Src\stm32l4xx_hal_rcc.c ****   *          This file provides firmware functions to manage the following
   7:E:/LiteOS/LiteOS_Lab/drivers/third_party/ST/STM32L4xx_HAL_Driver/Src\stm32l4xx_hal_rcc.c ****   *          functionalities of the Reset and Clock Control (RCC) peripheral:
   8:E:/LiteOS/LiteOS_Lab/drivers/third_party/ST/STM32L4xx_HAL_Driver/Src\stm32l4xx_hal_rcc.c ****   *           + Initialization and de-initialization functions
   9:E:/LiteOS/LiteOS_Lab/drivers/third_party/ST/STM32L4xx_HAL_Driver/Src\stm32l4xx_hal_rcc.c ****   *           + Peripheral Control functions
  10:E:/LiteOS/LiteOS_Lab/drivers/third_party/ST/STM32L4xx_HAL_Driver/Src\stm32l4xx_hal_rcc.c ****   *
  11:E:/LiteOS/LiteOS_Lab/drivers/third_party/ST/STM32L4xx_HAL_Driver/Src\stm32l4xx_hal_rcc.c ****   @verbatim
  12:E:/LiteOS/LiteOS_Lab/drivers/third_party/ST/STM32L4xx_HAL_Driver/Src\stm32l4xx_hal_rcc.c ****   ==============================================================================
  13:E:/LiteOS/LiteOS_Lab/drivers/third_party/ST/STM32L4xx_HAL_Driver/Src\stm32l4xx_hal_rcc.c ****                       ##### RCC specific features #####
  14:E:/LiteOS/LiteOS_Lab/drivers/third_party/ST/STM32L4xx_HAL_Driver/Src\stm32l4xx_hal_rcc.c ****   ==============================================================================
  15:E:/LiteOS/LiteOS_Lab/drivers/third_party/ST/STM32L4xx_HAL_Driver/Src\stm32l4xx_hal_rcc.c ****     [..]
  16:E:/LiteOS/LiteOS_Lab/drivers/third_party/ST/STM32L4xx_HAL_Driver/Src\stm32l4xx_hal_rcc.c ****       After reset the device is running from Multiple Speed Internal oscillator
  17:E:/LiteOS/LiteOS_Lab/drivers/third_party/ST/STM32L4xx_HAL_Driver/Src\stm32l4xx_hal_rcc.c ****       (4 MHz) with Flash 0 wait state. Flash prefetch buffer, D-Cache
  18:E:/LiteOS/LiteOS_Lab/drivers/third_party/ST/STM32L4xx_HAL_Driver/Src\stm32l4xx_hal_rcc.c ****       and I-Cache are disabled, and all peripherals are off except internal
  19:E:/LiteOS/LiteOS_Lab/drivers/third_party/ST/STM32L4xx_HAL_Driver/Src\stm32l4xx_hal_rcc.c ****       SRAM, Flash and JTAG.
  20:E:/LiteOS/LiteOS_Lab/drivers/third_party/ST/STM32L4xx_HAL_Driver/Src\stm32l4xx_hal_rcc.c **** 
  21:E:/LiteOS/LiteOS_Lab/drivers/third_party/ST/STM32L4xx_HAL_Driver/Src\stm32l4xx_hal_rcc.c ****       (+) There is no prescaler on High speed (AHBs) and Low speed (APBs) busses:
  22:E:/LiteOS/LiteOS_Lab/drivers/third_party/ST/STM32L4xx_HAL_Driver/Src\stm32l4xx_hal_rcc.c ****           all peripherals mapped on these busses are running at MSI speed.
  23:E:/LiteOS/LiteOS_Lab/drivers/third_party/ST/STM32L4xx_HAL_Driver/Src\stm32l4xx_hal_rcc.c ****       (+) The clock for all peripherals is switched off, except the SRAM and FLASH.
  24:E:/LiteOS/LiteOS_Lab/drivers/third_party/ST/STM32L4xx_HAL_Driver/Src\stm32l4xx_hal_rcc.c ****       (+) All GPIOs are in analog mode, except the JTAG pins which
  25:E:/LiteOS/LiteOS_Lab/drivers/third_party/ST/STM32L4xx_HAL_Driver/Src\stm32l4xx_hal_rcc.c ****           are assigned to be used for debug purpose.
  26:E:/LiteOS/LiteOS_Lab/drivers/third_party/ST/STM32L4xx_HAL_Driver/Src\stm32l4xx_hal_rcc.c **** 
  27:E:/LiteOS/LiteOS_Lab/drivers/third_party/ST/STM32L4xx_HAL_Driver/Src\stm32l4xx_hal_rcc.c ****     [..]
  28:E:/LiteOS/LiteOS_Lab/drivers/third_party/ST/STM32L4xx_HAL_Driver/Src\stm32l4xx_hal_rcc.c ****       Once the device started from reset, the user application has to:
  29:E:/LiteOS/LiteOS_Lab/drivers/third_party/ST/STM32L4xx_HAL_Driver/Src\stm32l4xx_hal_rcc.c ****       (+) Configure the clock source to be used to drive the System clock
  30:E:/LiteOS/LiteOS_Lab/drivers/third_party/ST/STM32L4xx_HAL_Driver/Src\stm32l4xx_hal_rcc.c ****           (if the application needs higher frequency/performance)
  31:E:/LiteOS/LiteOS_Lab/drivers/third_party/ST/STM32L4xx_HAL_Driver/Src\stm32l4xx_hal_rcc.c ****       (+) Configure the System clock frequency and Flash settings
ARM GAS  C:\Users\user\AppData\Local\Temp\ccmqW6jC.s 			page 2


  32:E:/LiteOS/LiteOS_Lab/drivers/third_party/ST/STM32L4xx_HAL_Driver/Src\stm32l4xx_hal_rcc.c ****       (+) Configure the AHB and APB busses prescalers
  33:E:/LiteOS/LiteOS_Lab/drivers/third_party/ST/STM32L4xx_HAL_Driver/Src\stm32l4xx_hal_rcc.c ****       (+) Enable the clock for the peripheral(s) to be used
  34:E:/LiteOS/LiteOS_Lab/drivers/third_party/ST/STM32L4xx_HAL_Driver/Src\stm32l4xx_hal_rcc.c ****       (+) Configure the clock source(s) for peripherals which clocks are not
  35:E:/LiteOS/LiteOS_Lab/drivers/third_party/ST/STM32L4xx_HAL_Driver/Src\stm32l4xx_hal_rcc.c ****           derived from the System clock (SAIx, RTC, ADC, USB OTG FS/SDMMC1/RNG)
  36:E:/LiteOS/LiteOS_Lab/drivers/third_party/ST/STM32L4xx_HAL_Driver/Src\stm32l4xx_hal_rcc.c **** 
  37:E:/LiteOS/LiteOS_Lab/drivers/third_party/ST/STM32L4xx_HAL_Driver/Src\stm32l4xx_hal_rcc.c ****   @endverbatim
  38:E:/LiteOS/LiteOS_Lab/drivers/third_party/ST/STM32L4xx_HAL_Driver/Src\stm32l4xx_hal_rcc.c ****   ******************************************************************************
  39:E:/LiteOS/LiteOS_Lab/drivers/third_party/ST/STM32L4xx_HAL_Driver/Src\stm32l4xx_hal_rcc.c ****   * @attention
  40:E:/LiteOS/LiteOS_Lab/drivers/third_party/ST/STM32L4xx_HAL_Driver/Src\stm32l4xx_hal_rcc.c ****   *
  41:E:/LiteOS/LiteOS_Lab/drivers/third_party/ST/STM32L4xx_HAL_Driver/Src\stm32l4xx_hal_rcc.c ****   * <h2><center>&copy; COPYRIGHT(c) 2017 STMicroelectronics</center></h2>
  42:E:/LiteOS/LiteOS_Lab/drivers/third_party/ST/STM32L4xx_HAL_Driver/Src\stm32l4xx_hal_rcc.c ****   *
  43:E:/LiteOS/LiteOS_Lab/drivers/third_party/ST/STM32L4xx_HAL_Driver/Src\stm32l4xx_hal_rcc.c ****   * Redistribution and use in source and binary forms, with or without modification,
  44:E:/LiteOS/LiteOS_Lab/drivers/third_party/ST/STM32L4xx_HAL_Driver/Src\stm32l4xx_hal_rcc.c ****   * are permitted provided that the following conditions are met:
  45:E:/LiteOS/LiteOS_Lab/drivers/third_party/ST/STM32L4xx_HAL_Driver/Src\stm32l4xx_hal_rcc.c ****   *   1. Redistributions of source code must retain the above copyright notice,
  46:E:/LiteOS/LiteOS_Lab/drivers/third_party/ST/STM32L4xx_HAL_Driver/Src\stm32l4xx_hal_rcc.c ****   *      this list of conditions and the following disclaimer.
  47:E:/LiteOS/LiteOS_Lab/drivers/third_party/ST/STM32L4xx_HAL_Driver/Src\stm32l4xx_hal_rcc.c ****   *   2. Redistributions in binary form must reproduce the above copyright notice,
  48:E:/LiteOS/LiteOS_Lab/drivers/third_party/ST/STM32L4xx_HAL_Driver/Src\stm32l4xx_hal_rcc.c ****   *      this list of conditions and the following disclaimer in the documentation
  49:E:/LiteOS/LiteOS_Lab/drivers/third_party/ST/STM32L4xx_HAL_Driver/Src\stm32l4xx_hal_rcc.c ****   *      and/or other materials provided with the distribution.
  50:E:/LiteOS/LiteOS_Lab/drivers/third_party/ST/STM32L4xx_HAL_Driver/Src\stm32l4xx_hal_rcc.c ****   *   3. Neither the name of STMicroelectronics nor the names of its contributors
  51:E:/LiteOS/LiteOS_Lab/drivers/third_party/ST/STM32L4xx_HAL_Driver/Src\stm32l4xx_hal_rcc.c ****   *      may be used to endorse or promote products derived from this software
  52:E:/LiteOS/LiteOS_Lab/drivers/third_party/ST/STM32L4xx_HAL_Driver/Src\stm32l4xx_hal_rcc.c ****   *      without specific prior written permission.
  53:E:/LiteOS/LiteOS_Lab/drivers/third_party/ST/STM32L4xx_HAL_Driver/Src\stm32l4xx_hal_rcc.c ****   *
  54:E:/LiteOS/LiteOS_Lab/drivers/third_party/ST/STM32L4xx_HAL_Driver/Src\stm32l4xx_hal_rcc.c ****   * THIS SOFTWARE IS PROVIDED BY THE COPYRIGHT HOLDERS AND CONTRIBUTORS "AS IS"
  55:E:/LiteOS/LiteOS_Lab/drivers/third_party/ST/STM32L4xx_HAL_Driver/Src\stm32l4xx_hal_rcc.c ****   * AND ANY EXPRESS OR IMPLIED WARRANTIES, INCLUDING, BUT NOT LIMITED TO, THE
  56:E:/LiteOS/LiteOS_Lab/drivers/third_party/ST/STM32L4xx_HAL_Driver/Src\stm32l4xx_hal_rcc.c ****   * IMPLIED WARRANTIES OF MERCHANTABILITY AND FITNESS FOR A PARTICULAR PURPOSE ARE
  57:E:/LiteOS/LiteOS_Lab/drivers/third_party/ST/STM32L4xx_HAL_Driver/Src\stm32l4xx_hal_rcc.c ****   * DISCLAIMED. IN NO EVENT SHALL THE COPYRIGHT HOLDER OR CONTRIBUTORS BE LIABLE
  58:E:/LiteOS/LiteOS_Lab/drivers/third_party/ST/STM32L4xx_HAL_Driver/Src\stm32l4xx_hal_rcc.c ****   * FOR ANY DIRECT, INDIRECT, INCIDENTAL, SPECIAL, EXEMPLARY, OR CONSEQUENTIAL
  59:E:/LiteOS/LiteOS_Lab/drivers/third_party/ST/STM32L4xx_HAL_Driver/Src\stm32l4xx_hal_rcc.c ****   * DAMAGES (INCLUDING, BUT NOT LIMITED TO, PROCUREMENT OF SUBSTITUTE GOODS OR
  60:E:/LiteOS/LiteOS_Lab/drivers/third_party/ST/STM32L4xx_HAL_Driver/Src\stm32l4xx_hal_rcc.c ****   * SERVICES; LOSS OF USE, DATA, OR PROFITS; OR BUSINESS INTERRUPTION) HOWEVER
  61:E:/LiteOS/LiteOS_Lab/drivers/third_party/ST/STM32L4xx_HAL_Driver/Src\stm32l4xx_hal_rcc.c ****   * CAUSED AND ON ANY THEORY OF LIABILITY, WHETHER IN CONTRACT, STRICT LIABILITY,
  62:E:/LiteOS/LiteOS_Lab/drivers/third_party/ST/STM32L4xx_HAL_Driver/Src\stm32l4xx_hal_rcc.c ****   * OR TORT (INCLUDING NEGLIGENCE OR OTHERWISE) ARISING IN ANY WAY OUT OF THE USE
  63:E:/LiteOS/LiteOS_Lab/drivers/third_party/ST/STM32L4xx_HAL_Driver/Src\stm32l4xx_hal_rcc.c ****   * OF THIS SOFTWARE, EVEN IF ADVISED OF THE POSSIBILITY OF SUCH DAMAGE.
  64:E:/LiteOS/LiteOS_Lab/drivers/third_party/ST/STM32L4xx_HAL_Driver/Src\stm32l4xx_hal_rcc.c ****   *
  65:E:/LiteOS/LiteOS_Lab/drivers/third_party/ST/STM32L4xx_HAL_Driver/Src\stm32l4xx_hal_rcc.c ****   ******************************************************************************
  66:E:/LiteOS/LiteOS_Lab/drivers/third_party/ST/STM32L4xx_HAL_Driver/Src\stm32l4xx_hal_rcc.c ****   */
  67:E:/LiteOS/LiteOS_Lab/drivers/third_party/ST/STM32L4xx_HAL_Driver/Src\stm32l4xx_hal_rcc.c **** 
  68:E:/LiteOS/LiteOS_Lab/drivers/third_party/ST/STM32L4xx_HAL_Driver/Src\stm32l4xx_hal_rcc.c **** /* Includes ------------------------------------------------------------------*/
  69:E:/LiteOS/LiteOS_Lab/drivers/third_party/ST/STM32L4xx_HAL_Driver/Src\stm32l4xx_hal_rcc.c **** #include "stm32l4xx_hal.h"
  70:E:/LiteOS/LiteOS_Lab/drivers/third_party/ST/STM32L4xx_HAL_Driver/Src\stm32l4xx_hal_rcc.c **** 
  71:E:/LiteOS/LiteOS_Lab/drivers/third_party/ST/STM32L4xx_HAL_Driver/Src\stm32l4xx_hal_rcc.c **** /** @addtogroup STM32L4xx_HAL_Driver
  72:E:/LiteOS/LiteOS_Lab/drivers/third_party/ST/STM32L4xx_HAL_Driver/Src\stm32l4xx_hal_rcc.c ****   * @{
  73:E:/LiteOS/LiteOS_Lab/drivers/third_party/ST/STM32L4xx_HAL_Driver/Src\stm32l4xx_hal_rcc.c ****   */
  74:E:/LiteOS/LiteOS_Lab/drivers/third_party/ST/STM32L4xx_HAL_Driver/Src\stm32l4xx_hal_rcc.c **** 
  75:E:/LiteOS/LiteOS_Lab/drivers/third_party/ST/STM32L4xx_HAL_Driver/Src\stm32l4xx_hal_rcc.c **** /** @defgroup RCC RCC
  76:E:/LiteOS/LiteOS_Lab/drivers/third_party/ST/STM32L4xx_HAL_Driver/Src\stm32l4xx_hal_rcc.c ****   * @brief RCC HAL module driver
  77:E:/LiteOS/LiteOS_Lab/drivers/third_party/ST/STM32L4xx_HAL_Driver/Src\stm32l4xx_hal_rcc.c ****   * @{
  78:E:/LiteOS/LiteOS_Lab/drivers/third_party/ST/STM32L4xx_HAL_Driver/Src\stm32l4xx_hal_rcc.c ****   */
  79:E:/LiteOS/LiteOS_Lab/drivers/third_party/ST/STM32L4xx_HAL_Driver/Src\stm32l4xx_hal_rcc.c **** 
  80:E:/LiteOS/LiteOS_Lab/drivers/third_party/ST/STM32L4xx_HAL_Driver/Src\stm32l4xx_hal_rcc.c **** #ifdef HAL_RCC_MODULE_ENABLED
  81:E:/LiteOS/LiteOS_Lab/drivers/third_party/ST/STM32L4xx_HAL_Driver/Src\stm32l4xx_hal_rcc.c **** 
  82:E:/LiteOS/LiteOS_Lab/drivers/third_party/ST/STM32L4xx_HAL_Driver/Src\stm32l4xx_hal_rcc.c **** /* Private typedef -----------------------------------------------------------*/
  83:E:/LiteOS/LiteOS_Lab/drivers/third_party/ST/STM32L4xx_HAL_Driver/Src\stm32l4xx_hal_rcc.c **** /* Private define ------------------------------------------------------------*/
  84:E:/LiteOS/LiteOS_Lab/drivers/third_party/ST/STM32L4xx_HAL_Driver/Src\stm32l4xx_hal_rcc.c **** /** @defgroup RCC_Private_Constants RCC Private Constants
  85:E:/LiteOS/LiteOS_Lab/drivers/third_party/ST/STM32L4xx_HAL_Driver/Src\stm32l4xx_hal_rcc.c ****  * @{
  86:E:/LiteOS/LiteOS_Lab/drivers/third_party/ST/STM32L4xx_HAL_Driver/Src\stm32l4xx_hal_rcc.c ****  */
  87:E:/LiteOS/LiteOS_Lab/drivers/third_party/ST/STM32L4xx_HAL_Driver/Src\stm32l4xx_hal_rcc.c **** #define HSE_TIMEOUT_VALUE          HSE_STARTUP_TIMEOUT
  88:E:/LiteOS/LiteOS_Lab/drivers/third_party/ST/STM32L4xx_HAL_Driver/Src\stm32l4xx_hal_rcc.c **** #define HSI_TIMEOUT_VALUE          2U    /* 2 ms (minimum Tick + 1) */
ARM GAS  C:\Users\user\AppData\Local\Temp\ccmqW6jC.s 			page 3


  89:E:/LiteOS/LiteOS_Lab/drivers/third_party/ST/STM32L4xx_HAL_Driver/Src\stm32l4xx_hal_rcc.c **** #define MSI_TIMEOUT_VALUE          2U    /* 2 ms (minimum Tick + 1) */
  90:E:/LiteOS/LiteOS_Lab/drivers/third_party/ST/STM32L4xx_HAL_Driver/Src\stm32l4xx_hal_rcc.c **** #define LSI_TIMEOUT_VALUE          2U    /* 2 ms (minimum Tick + 1) */
  91:E:/LiteOS/LiteOS_Lab/drivers/third_party/ST/STM32L4xx_HAL_Driver/Src\stm32l4xx_hal_rcc.c **** #define HSI48_TIMEOUT_VALUE        2U    /* 2 ms (minimum Tick + 1) */
  92:E:/LiteOS/LiteOS_Lab/drivers/third_party/ST/STM32L4xx_HAL_Driver/Src\stm32l4xx_hal_rcc.c **** #define PLL_TIMEOUT_VALUE          2U    /* 2 ms (minimum Tick + 1) */
  93:E:/LiteOS/LiteOS_Lab/drivers/third_party/ST/STM32L4xx_HAL_Driver/Src\stm32l4xx_hal_rcc.c **** #define CLOCKSWITCH_TIMEOUT_VALUE  5000U /* 5 s    */
  94:E:/LiteOS/LiteOS_Lab/drivers/third_party/ST/STM32L4xx_HAL_Driver/Src\stm32l4xx_hal_rcc.c **** /**
  95:E:/LiteOS/LiteOS_Lab/drivers/third_party/ST/STM32L4xx_HAL_Driver/Src\stm32l4xx_hal_rcc.c ****   * @}
  96:E:/LiteOS/LiteOS_Lab/drivers/third_party/ST/STM32L4xx_HAL_Driver/Src\stm32l4xx_hal_rcc.c ****   */
  97:E:/LiteOS/LiteOS_Lab/drivers/third_party/ST/STM32L4xx_HAL_Driver/Src\stm32l4xx_hal_rcc.c **** 
  98:E:/LiteOS/LiteOS_Lab/drivers/third_party/ST/STM32L4xx_HAL_Driver/Src\stm32l4xx_hal_rcc.c **** /* Private macro -------------------------------------------------------------*/
  99:E:/LiteOS/LiteOS_Lab/drivers/third_party/ST/STM32L4xx_HAL_Driver/Src\stm32l4xx_hal_rcc.c **** /** @defgroup RCC_Private_Macros RCC Private Macros
 100:E:/LiteOS/LiteOS_Lab/drivers/third_party/ST/STM32L4xx_HAL_Driver/Src\stm32l4xx_hal_rcc.c ****   * @{
 101:E:/LiteOS/LiteOS_Lab/drivers/third_party/ST/STM32L4xx_HAL_Driver/Src\stm32l4xx_hal_rcc.c ****   */
 102:E:/LiteOS/LiteOS_Lab/drivers/third_party/ST/STM32L4xx_HAL_Driver/Src\stm32l4xx_hal_rcc.c **** #define __MCO1_CLK_ENABLE()   __HAL_RCC_GPIOA_CLK_ENABLE()
 103:E:/LiteOS/LiteOS_Lab/drivers/third_party/ST/STM32L4xx_HAL_Driver/Src\stm32l4xx_hal_rcc.c **** #define MCO1_GPIO_PORT        GPIOA
 104:E:/LiteOS/LiteOS_Lab/drivers/third_party/ST/STM32L4xx_HAL_Driver/Src\stm32l4xx_hal_rcc.c **** #define MCO1_PIN              GPIO_PIN_8
 105:E:/LiteOS/LiteOS_Lab/drivers/third_party/ST/STM32L4xx_HAL_Driver/Src\stm32l4xx_hal_rcc.c **** 
 106:E:/LiteOS/LiteOS_Lab/drivers/third_party/ST/STM32L4xx_HAL_Driver/Src\stm32l4xx_hal_rcc.c **** #define RCC_PLL_OSCSOURCE_CONFIG(__HAL_RCC_PLLSOURCE__) \
 107:E:/LiteOS/LiteOS_Lab/drivers/third_party/ST/STM32L4xx_HAL_Driver/Src\stm32l4xx_hal_rcc.c ****             (MODIFY_REG(RCC->PLLCFGR, RCC_PLLCFGR_PLLSRC, (__HAL_RCC_PLLSOURCE__)))
 108:E:/LiteOS/LiteOS_Lab/drivers/third_party/ST/STM32L4xx_HAL_Driver/Src\stm32l4xx_hal_rcc.c **** /**
 109:E:/LiteOS/LiteOS_Lab/drivers/third_party/ST/STM32L4xx_HAL_Driver/Src\stm32l4xx_hal_rcc.c ****   * @}
 110:E:/LiteOS/LiteOS_Lab/drivers/third_party/ST/STM32L4xx_HAL_Driver/Src\stm32l4xx_hal_rcc.c ****   */
 111:E:/LiteOS/LiteOS_Lab/drivers/third_party/ST/STM32L4xx_HAL_Driver/Src\stm32l4xx_hal_rcc.c **** 
 112:E:/LiteOS/LiteOS_Lab/drivers/third_party/ST/STM32L4xx_HAL_Driver/Src\stm32l4xx_hal_rcc.c **** /* Private variables ---------------------------------------------------------*/
 113:E:/LiteOS/LiteOS_Lab/drivers/third_party/ST/STM32L4xx_HAL_Driver/Src\stm32l4xx_hal_rcc.c **** 
 114:E:/LiteOS/LiteOS_Lab/drivers/third_party/ST/STM32L4xx_HAL_Driver/Src\stm32l4xx_hal_rcc.c **** /* Private function prototypes -----------------------------------------------*/
 115:E:/LiteOS/LiteOS_Lab/drivers/third_party/ST/STM32L4xx_HAL_Driver/Src\stm32l4xx_hal_rcc.c **** /** @defgroup RCC_Private_Functions RCC Private Functions
 116:E:/LiteOS/LiteOS_Lab/drivers/third_party/ST/STM32L4xx_HAL_Driver/Src\stm32l4xx_hal_rcc.c ****   * @{
 117:E:/LiteOS/LiteOS_Lab/drivers/third_party/ST/STM32L4xx_HAL_Driver/Src\stm32l4xx_hal_rcc.c ****   */
 118:E:/LiteOS/LiteOS_Lab/drivers/third_party/ST/STM32L4xx_HAL_Driver/Src\stm32l4xx_hal_rcc.c **** static HAL_StatusTypeDef RCC_SetFlashLatencyFromMSIRange(uint32_t msirange);
 119:E:/LiteOS/LiteOS_Lab/drivers/third_party/ST/STM32L4xx_HAL_Driver/Src\stm32l4xx_hal_rcc.c **** #if defined(STM32L4R5xx) || defined(STM32L4R7xx) || defined(STM32L4R9xx) || defined(STM32L4S5xx) ||
 120:E:/LiteOS/LiteOS_Lab/drivers/third_party/ST/STM32L4xx_HAL_Driver/Src\stm32l4xx_hal_rcc.c **** static uint32_t          RCC_GetSysClockFreqFromPLLSource(void);
 121:E:/LiteOS/LiteOS_Lab/drivers/third_party/ST/STM32L4xx_HAL_Driver/Src\stm32l4xx_hal_rcc.c **** #endif
 122:E:/LiteOS/LiteOS_Lab/drivers/third_party/ST/STM32L4xx_HAL_Driver/Src\stm32l4xx_hal_rcc.c **** /**
 123:E:/LiteOS/LiteOS_Lab/drivers/third_party/ST/STM32L4xx_HAL_Driver/Src\stm32l4xx_hal_rcc.c ****   * @}
 124:E:/LiteOS/LiteOS_Lab/drivers/third_party/ST/STM32L4xx_HAL_Driver/Src\stm32l4xx_hal_rcc.c ****   */
 125:E:/LiteOS/LiteOS_Lab/drivers/third_party/ST/STM32L4xx_HAL_Driver/Src\stm32l4xx_hal_rcc.c **** 
 126:E:/LiteOS/LiteOS_Lab/drivers/third_party/ST/STM32L4xx_HAL_Driver/Src\stm32l4xx_hal_rcc.c **** /* Exported functions --------------------------------------------------------*/
 127:E:/LiteOS/LiteOS_Lab/drivers/third_party/ST/STM32L4xx_HAL_Driver/Src\stm32l4xx_hal_rcc.c **** 
 128:E:/LiteOS/LiteOS_Lab/drivers/third_party/ST/STM32L4xx_HAL_Driver/Src\stm32l4xx_hal_rcc.c **** /** @defgroup RCC_Exported_Functions RCC Exported Functions
 129:E:/LiteOS/LiteOS_Lab/drivers/third_party/ST/STM32L4xx_HAL_Driver/Src\stm32l4xx_hal_rcc.c ****   * @{
 130:E:/LiteOS/LiteOS_Lab/drivers/third_party/ST/STM32L4xx_HAL_Driver/Src\stm32l4xx_hal_rcc.c ****   */
 131:E:/LiteOS/LiteOS_Lab/drivers/third_party/ST/STM32L4xx_HAL_Driver/Src\stm32l4xx_hal_rcc.c **** 
 132:E:/LiteOS/LiteOS_Lab/drivers/third_party/ST/STM32L4xx_HAL_Driver/Src\stm32l4xx_hal_rcc.c **** /** @defgroup RCC_Exported_Functions_Group1 Initialization and de-initialization functions
 133:E:/LiteOS/LiteOS_Lab/drivers/third_party/ST/STM32L4xx_HAL_Driver/Src\stm32l4xx_hal_rcc.c ****   *  @brief    Initialization and Configuration functions
 134:E:/LiteOS/LiteOS_Lab/drivers/third_party/ST/STM32L4xx_HAL_Driver/Src\stm32l4xx_hal_rcc.c ****   *
 135:E:/LiteOS/LiteOS_Lab/drivers/third_party/ST/STM32L4xx_HAL_Driver/Src\stm32l4xx_hal_rcc.c ****   @verbatim
 136:E:/LiteOS/LiteOS_Lab/drivers/third_party/ST/STM32L4xx_HAL_Driver/Src\stm32l4xx_hal_rcc.c ****  ===============================================================================
 137:E:/LiteOS/LiteOS_Lab/drivers/third_party/ST/STM32L4xx_HAL_Driver/Src\stm32l4xx_hal_rcc.c ****            ##### Initialization and de-initialization functions #####
 138:E:/LiteOS/LiteOS_Lab/drivers/third_party/ST/STM32L4xx_HAL_Driver/Src\stm32l4xx_hal_rcc.c ****  ===============================================================================
 139:E:/LiteOS/LiteOS_Lab/drivers/third_party/ST/STM32L4xx_HAL_Driver/Src\stm32l4xx_hal_rcc.c ****     [..]
 140:E:/LiteOS/LiteOS_Lab/drivers/third_party/ST/STM32L4xx_HAL_Driver/Src\stm32l4xx_hal_rcc.c ****       This section provides functions allowing to configure the internal and external oscillators
 141:E:/LiteOS/LiteOS_Lab/drivers/third_party/ST/STM32L4xx_HAL_Driver/Src\stm32l4xx_hal_rcc.c ****       (HSE, HSI, LSE, MSI, LSI, PLL, CSS and MCO) and the System busses clocks (SYSCLK, AHB, APB1
 142:E:/LiteOS/LiteOS_Lab/drivers/third_party/ST/STM32L4xx_HAL_Driver/Src\stm32l4xx_hal_rcc.c ****        and APB2).
 143:E:/LiteOS/LiteOS_Lab/drivers/third_party/ST/STM32L4xx_HAL_Driver/Src\stm32l4xx_hal_rcc.c **** 
 144:E:/LiteOS/LiteOS_Lab/drivers/third_party/ST/STM32L4xx_HAL_Driver/Src\stm32l4xx_hal_rcc.c ****     [..] Internal/external clock and PLL configuration
 145:E:/LiteOS/LiteOS_Lab/drivers/third_party/ST/STM32L4xx_HAL_Driver/Src\stm32l4xx_hal_rcc.c ****          (+) HSI (high-speed internal): 16 MHz factory-trimmed RC used directly or through
ARM GAS  C:\Users\user\AppData\Local\Temp\ccmqW6jC.s 			page 4


 146:E:/LiteOS/LiteOS_Lab/drivers/third_party/ST/STM32L4xx_HAL_Driver/Src\stm32l4xx_hal_rcc.c ****              the PLL as System clock source.
 147:E:/LiteOS/LiteOS_Lab/drivers/third_party/ST/STM32L4xx_HAL_Driver/Src\stm32l4xx_hal_rcc.c **** 
 148:E:/LiteOS/LiteOS_Lab/drivers/third_party/ST/STM32L4xx_HAL_Driver/Src\stm32l4xx_hal_rcc.c ****          (+) MSI (Mutiple Speed Internal): Its frequency is software trimmable from 100KHZ to 48MHZ
 149:E:/LiteOS/LiteOS_Lab/drivers/third_party/ST/STM32L4xx_HAL_Driver/Src\stm32l4xx_hal_rcc.c ****              It can be used to generate the clock for the USB OTG FS (48 MHz).
 150:E:/LiteOS/LiteOS_Lab/drivers/third_party/ST/STM32L4xx_HAL_Driver/Src\stm32l4xx_hal_rcc.c ****              The number of flash wait states is automatically adjusted when MSI range is updated wi
 151:E:/LiteOS/LiteOS_Lab/drivers/third_party/ST/STM32L4xx_HAL_Driver/Src\stm32l4xx_hal_rcc.c ****              HAL_RCC_OscConfig() and the MSI is used as System clock source.
 152:E:/LiteOS/LiteOS_Lab/drivers/third_party/ST/STM32L4xx_HAL_Driver/Src\stm32l4xx_hal_rcc.c **** 
 153:E:/LiteOS/LiteOS_Lab/drivers/third_party/ST/STM32L4xx_HAL_Driver/Src\stm32l4xx_hal_rcc.c ****          (+) LSI (low-speed internal): 32 KHz low consumption RC used as IWDG and/or RTC
 154:E:/LiteOS/LiteOS_Lab/drivers/third_party/ST/STM32L4xx_HAL_Driver/Src\stm32l4xx_hal_rcc.c ****              clock source.
 155:E:/LiteOS/LiteOS_Lab/drivers/third_party/ST/STM32L4xx_HAL_Driver/Src\stm32l4xx_hal_rcc.c **** 
 156:E:/LiteOS/LiteOS_Lab/drivers/third_party/ST/STM32L4xx_HAL_Driver/Src\stm32l4xx_hal_rcc.c ****          (+) HSE (high-speed external): 4 to 48 MHz crystal oscillator used directly or
 157:E:/LiteOS/LiteOS_Lab/drivers/third_party/ST/STM32L4xx_HAL_Driver/Src\stm32l4xx_hal_rcc.c ****              through the PLL as System clock source. Can be used also optionally as RTC clock sourc
 158:E:/LiteOS/LiteOS_Lab/drivers/third_party/ST/STM32L4xx_HAL_Driver/Src\stm32l4xx_hal_rcc.c **** 
 159:E:/LiteOS/LiteOS_Lab/drivers/third_party/ST/STM32L4xx_HAL_Driver/Src\stm32l4xx_hal_rcc.c ****          (+) LSE (low-speed external): 32.768 KHz oscillator used optionally as RTC clock source.
 160:E:/LiteOS/LiteOS_Lab/drivers/third_party/ST/STM32L4xx_HAL_Driver/Src\stm32l4xx_hal_rcc.c **** 
 161:E:/LiteOS/LiteOS_Lab/drivers/third_party/ST/STM32L4xx_HAL_Driver/Src\stm32l4xx_hal_rcc.c ****          (+) PLL (clocked by HSI, HSE or MSI) providing up to three independent output clocks:
 162:E:/LiteOS/LiteOS_Lab/drivers/third_party/ST/STM32L4xx_HAL_Driver/Src\stm32l4xx_hal_rcc.c ****            (++) The first output is used to generate the high speed system clock (up to 80MHz).
 163:E:/LiteOS/LiteOS_Lab/drivers/third_party/ST/STM32L4xx_HAL_Driver/Src\stm32l4xx_hal_rcc.c ****            (++) The second output is used to generate the clock for the USB OTG FS (48 MHz),
 164:E:/LiteOS/LiteOS_Lab/drivers/third_party/ST/STM32L4xx_HAL_Driver/Src\stm32l4xx_hal_rcc.c ****                 the random analog generator (<=48 MHz) and the SDMMC1 (<= 48 MHz).
 165:E:/LiteOS/LiteOS_Lab/drivers/third_party/ST/STM32L4xx_HAL_Driver/Src\stm32l4xx_hal_rcc.c ****            (++) The third output is used to generate an accurate clock to achieve
 166:E:/LiteOS/LiteOS_Lab/drivers/third_party/ST/STM32L4xx_HAL_Driver/Src\stm32l4xx_hal_rcc.c ****                 high-quality audio performance on SAI interface.
 167:E:/LiteOS/LiteOS_Lab/drivers/third_party/ST/STM32L4xx_HAL_Driver/Src\stm32l4xx_hal_rcc.c **** 
 168:E:/LiteOS/LiteOS_Lab/drivers/third_party/ST/STM32L4xx_HAL_Driver/Src\stm32l4xx_hal_rcc.c ****          (+) PLLSAI1 (clocked by HSI, HSE or MSI) providing up to three independent output clocks:
 169:E:/LiteOS/LiteOS_Lab/drivers/third_party/ST/STM32L4xx_HAL_Driver/Src\stm32l4xx_hal_rcc.c ****            (++) The first output is used to generate SAR ADC1 clock.
 170:E:/LiteOS/LiteOS_Lab/drivers/third_party/ST/STM32L4xx_HAL_Driver/Src\stm32l4xx_hal_rcc.c ****            (++) The second output is used to generate the clock for the USB OTG FS (48 MHz),
 171:E:/LiteOS/LiteOS_Lab/drivers/third_party/ST/STM32L4xx_HAL_Driver/Src\stm32l4xx_hal_rcc.c ****                 the random analog generator (<=48 MHz) and the SDMMC1 (<= 48 MHz).
 172:E:/LiteOS/LiteOS_Lab/drivers/third_party/ST/STM32L4xx_HAL_Driver/Src\stm32l4xx_hal_rcc.c ****            (++) The Third output is used to generate an accurate clock to achieve
 173:E:/LiteOS/LiteOS_Lab/drivers/third_party/ST/STM32L4xx_HAL_Driver/Src\stm32l4xx_hal_rcc.c ****                 high-quality audio performance on SAI interface.
 174:E:/LiteOS/LiteOS_Lab/drivers/third_party/ST/STM32L4xx_HAL_Driver/Src\stm32l4xx_hal_rcc.c **** 
 175:E:/LiteOS/LiteOS_Lab/drivers/third_party/ST/STM32L4xx_HAL_Driver/Src\stm32l4xx_hal_rcc.c ****          (+) PLLSAI2 (clocked by HSI , HSE or MSI) providing up to two independent output clocks:
 176:E:/LiteOS/LiteOS_Lab/drivers/third_party/ST/STM32L4xx_HAL_Driver/Src\stm32l4xx_hal_rcc.c ****            (++) The first output is used to generate SAR ADC2 clock.
 177:E:/LiteOS/LiteOS_Lab/drivers/third_party/ST/STM32L4xx_HAL_Driver/Src\stm32l4xx_hal_rcc.c ****            (++) The second  output is used to generate an accurate clock to achieve
 178:E:/LiteOS/LiteOS_Lab/drivers/third_party/ST/STM32L4xx_HAL_Driver/Src\stm32l4xx_hal_rcc.c ****                 high-quality audio performance on SAI interface.
 179:E:/LiteOS/LiteOS_Lab/drivers/third_party/ST/STM32L4xx_HAL_Driver/Src\stm32l4xx_hal_rcc.c **** 
 180:E:/LiteOS/LiteOS_Lab/drivers/third_party/ST/STM32L4xx_HAL_Driver/Src\stm32l4xx_hal_rcc.c ****          (+) CSS (Clock security system): once enabled, if a HSE clock failure occurs
 181:E:/LiteOS/LiteOS_Lab/drivers/third_party/ST/STM32L4xx_HAL_Driver/Src\stm32l4xx_hal_rcc.c ****             (HSE used directly or through PLL as System clock source), the System clock
 182:E:/LiteOS/LiteOS_Lab/drivers/third_party/ST/STM32L4xx_HAL_Driver/Src\stm32l4xx_hal_rcc.c ****              is automatically switched to HSI and an interrupt is generated if enabled.
 183:E:/LiteOS/LiteOS_Lab/drivers/third_party/ST/STM32L4xx_HAL_Driver/Src\stm32l4xx_hal_rcc.c ****              The interrupt is linked to the Cortex-M4 NMI (Non-Maskable Interrupt)
 184:E:/LiteOS/LiteOS_Lab/drivers/third_party/ST/STM32L4xx_HAL_Driver/Src\stm32l4xx_hal_rcc.c ****              exception vector.
 185:E:/LiteOS/LiteOS_Lab/drivers/third_party/ST/STM32L4xx_HAL_Driver/Src\stm32l4xx_hal_rcc.c **** 
 186:E:/LiteOS/LiteOS_Lab/drivers/third_party/ST/STM32L4xx_HAL_Driver/Src\stm32l4xx_hal_rcc.c ****          (+) MCO (microcontroller clock output): used to output MSI, LSI, HSI, LSE, HSE or
 187:E:/LiteOS/LiteOS_Lab/drivers/third_party/ST/STM32L4xx_HAL_Driver/Src\stm32l4xx_hal_rcc.c ****              main PLL clock (through a configurable prescaler) on PA8 pin.
 188:E:/LiteOS/LiteOS_Lab/drivers/third_party/ST/STM32L4xx_HAL_Driver/Src\stm32l4xx_hal_rcc.c **** 
 189:E:/LiteOS/LiteOS_Lab/drivers/third_party/ST/STM32L4xx_HAL_Driver/Src\stm32l4xx_hal_rcc.c ****     [..] System, AHB and APB busses clocks configuration
 190:E:/LiteOS/LiteOS_Lab/drivers/third_party/ST/STM32L4xx_HAL_Driver/Src\stm32l4xx_hal_rcc.c ****          (+) Several clock sources can be used to drive the System clock (SYSCLK): MSI, HSI,
 191:E:/LiteOS/LiteOS_Lab/drivers/third_party/ST/STM32L4xx_HAL_Driver/Src\stm32l4xx_hal_rcc.c ****              HSE and main PLL.
 192:E:/LiteOS/LiteOS_Lab/drivers/third_party/ST/STM32L4xx_HAL_Driver/Src\stm32l4xx_hal_rcc.c ****              The AHB clock (HCLK) is derived from System clock through configurable
 193:E:/LiteOS/LiteOS_Lab/drivers/third_party/ST/STM32L4xx_HAL_Driver/Src\stm32l4xx_hal_rcc.c ****              prescaler and used to clock the CPU, memory and peripherals mapped
 194:E:/LiteOS/LiteOS_Lab/drivers/third_party/ST/STM32L4xx_HAL_Driver/Src\stm32l4xx_hal_rcc.c ****              on AHB bus (DMA, GPIO...). APB1 (PCLK1) and APB2 (PCLK2) clocks are derived
 195:E:/LiteOS/LiteOS_Lab/drivers/third_party/ST/STM32L4xx_HAL_Driver/Src\stm32l4xx_hal_rcc.c ****              from AHB clock through configurable prescalers and used to clock
 196:E:/LiteOS/LiteOS_Lab/drivers/third_party/ST/STM32L4xx_HAL_Driver/Src\stm32l4xx_hal_rcc.c ****              the peripherals mapped on these busses. You can use
 197:E:/LiteOS/LiteOS_Lab/drivers/third_party/ST/STM32L4xx_HAL_Driver/Src\stm32l4xx_hal_rcc.c ****              "HAL_RCC_GetSysClockFreq()" function to retrieve the frequencies of these clocks.
 198:E:/LiteOS/LiteOS_Lab/drivers/third_party/ST/STM32L4xx_HAL_Driver/Src\stm32l4xx_hal_rcc.c **** 
 199:E:/LiteOS/LiteOS_Lab/drivers/third_party/ST/STM32L4xx_HAL_Driver/Src\stm32l4xx_hal_rcc.c ****          -@- All the peripheral clocks are derived from the System clock (SYSCLK) except:
 200:E:/LiteOS/LiteOS_Lab/drivers/third_party/ST/STM32L4xx_HAL_Driver/Src\stm32l4xx_hal_rcc.c **** 
 201:E:/LiteOS/LiteOS_Lab/drivers/third_party/ST/STM32L4xx_HAL_Driver/Src\stm32l4xx_hal_rcc.c ****            (+@) SAI: the SAI clock can be derived either from a specific PLL (PLLSAI1) or (PLLSAI2)
 202:E:/LiteOS/LiteOS_Lab/drivers/third_party/ST/STM32L4xx_HAL_Driver/Src\stm32l4xx_hal_rcc.c ****                 from an external clock mapped on the SAI_CKIN pin.
ARM GAS  C:\Users\user\AppData\Local\Temp\ccmqW6jC.s 			page 5


 203:E:/LiteOS/LiteOS_Lab/drivers/third_party/ST/STM32L4xx_HAL_Driver/Src\stm32l4xx_hal_rcc.c ****                 You have to use HAL_RCCEx_PeriphCLKConfig() function to configure this clock.
 204:E:/LiteOS/LiteOS_Lab/drivers/third_party/ST/STM32L4xx_HAL_Driver/Src\stm32l4xx_hal_rcc.c ****            (+@) RTC: the RTC clock can be derived either from the LSI, LSE or HSE clock
 205:E:/LiteOS/LiteOS_Lab/drivers/third_party/ST/STM32L4xx_HAL_Driver/Src\stm32l4xx_hal_rcc.c ****                 divided by 2 to 31.
 206:E:/LiteOS/LiteOS_Lab/drivers/third_party/ST/STM32L4xx_HAL_Driver/Src\stm32l4xx_hal_rcc.c ****                 You have to use __HAL_RCC_RTC_ENABLE() and HAL_RCCEx_PeriphCLKConfig() function
 207:E:/LiteOS/LiteOS_Lab/drivers/third_party/ST/STM32L4xx_HAL_Driver/Src\stm32l4xx_hal_rcc.c ****                 to configure this clock.
 208:E:/LiteOS/LiteOS_Lab/drivers/third_party/ST/STM32L4xx_HAL_Driver/Src\stm32l4xx_hal_rcc.c ****            (+@) USB OTG FS, SDMMC1 and RNG: USB OTG FS requires a frequency equal to 48 MHz
 209:E:/LiteOS/LiteOS_Lab/drivers/third_party/ST/STM32L4xx_HAL_Driver/Src\stm32l4xx_hal_rcc.c ****                 to work correctly, while the SDMMC1 and RNG peripherals require a frequency
 210:E:/LiteOS/LiteOS_Lab/drivers/third_party/ST/STM32L4xx_HAL_Driver/Src\stm32l4xx_hal_rcc.c ****                 equal or lower than to 48 MHz. This clock is derived of the main PLL or PLLSAI1
 211:E:/LiteOS/LiteOS_Lab/drivers/third_party/ST/STM32L4xx_HAL_Driver/Src\stm32l4xx_hal_rcc.c ****                 through PLLQ divider. You have to enable the peripheral clock and use
 212:E:/LiteOS/LiteOS_Lab/drivers/third_party/ST/STM32L4xx_HAL_Driver/Src\stm32l4xx_hal_rcc.c ****                 HAL_RCCEx_PeriphCLKConfig() function to configure this clock.
 213:E:/LiteOS/LiteOS_Lab/drivers/third_party/ST/STM32L4xx_HAL_Driver/Src\stm32l4xx_hal_rcc.c ****            (+@) IWDG clock which is always the LSI clock.
 214:E:/LiteOS/LiteOS_Lab/drivers/third_party/ST/STM32L4xx_HAL_Driver/Src\stm32l4xx_hal_rcc.c **** 
 215:E:/LiteOS/LiteOS_Lab/drivers/third_party/ST/STM32L4xx_HAL_Driver/Src\stm32l4xx_hal_rcc.c **** 
 216:E:/LiteOS/LiteOS_Lab/drivers/third_party/ST/STM32L4xx_HAL_Driver/Src\stm32l4xx_hal_rcc.c ****          (+) The maximum frequency of the SYSCLK, HCLK, PCLK1 and PCLK2 is 80 MHz.
 217:E:/LiteOS/LiteOS_Lab/drivers/third_party/ST/STM32L4xx_HAL_Driver/Src\stm32l4xx_hal_rcc.c ****              The clock source frequency should be adapted depending on the device voltage range
 218:E:/LiteOS/LiteOS_Lab/drivers/third_party/ST/STM32L4xx_HAL_Driver/Src\stm32l4xx_hal_rcc.c ****              as listed in the Reference Manual "Clock source frequency versus voltage scaling" chap
 219:E:/LiteOS/LiteOS_Lab/drivers/third_party/ST/STM32L4xx_HAL_Driver/Src\stm32l4xx_hal_rcc.c **** 
 220:E:/LiteOS/LiteOS_Lab/drivers/third_party/ST/STM32L4xx_HAL_Driver/Src\stm32l4xx_hal_rcc.c ****   @endverbatim
 221:E:/LiteOS/LiteOS_Lab/drivers/third_party/ST/STM32L4xx_HAL_Driver/Src\stm32l4xx_hal_rcc.c **** 
 222:E:/LiteOS/LiteOS_Lab/drivers/third_party/ST/STM32L4xx_HAL_Driver/Src\stm32l4xx_hal_rcc.c ****            Table 1. HCLK clock frequency for STM32L4Rx/STM32L4Sx devices
 223:E:/LiteOS/LiteOS_Lab/drivers/third_party/ST/STM32L4xx_HAL_Driver/Src\stm32l4xx_hal_rcc.c ****            +--------------------------------------------------------+
 224:E:/LiteOS/LiteOS_Lab/drivers/third_party/ST/STM32L4xx_HAL_Driver/Src\stm32l4xx_hal_rcc.c ****            | Latency         |     HCLK clock frequency (MHz)       |
 225:E:/LiteOS/LiteOS_Lab/drivers/third_party/ST/STM32L4xx_HAL_Driver/Src\stm32l4xx_hal_rcc.c ****            |                 |--------------------------------------|
 226:E:/LiteOS/LiteOS_Lab/drivers/third_party/ST/STM32L4xx_HAL_Driver/Src\stm32l4xx_hal_rcc.c ****            |                 |  voltage range 1  | voltage range 2  |
 227:E:/LiteOS/LiteOS_Lab/drivers/third_party/ST/STM32L4xx_HAL_Driver/Src\stm32l4xx_hal_rcc.c ****            |                 |       1.2 V       |     1.0 V        |
 228:E:/LiteOS/LiteOS_Lab/drivers/third_party/ST/STM32L4xx_HAL_Driver/Src\stm32l4xx_hal_rcc.c ****            |-----------------|-------------------|------------------|
 229:E:/LiteOS/LiteOS_Lab/drivers/third_party/ST/STM32L4xx_HAL_Driver/Src\stm32l4xx_hal_rcc.c ****            |0WS(1 CPU cycles)|   0 < HCLK <= 20  |  0 < HCLK <= 8   |
 230:E:/LiteOS/LiteOS_Lab/drivers/third_party/ST/STM32L4xx_HAL_Driver/Src\stm32l4xx_hal_rcc.c ****            |-----------------|-------------------|------------------|
 231:E:/LiteOS/LiteOS_Lab/drivers/third_party/ST/STM32L4xx_HAL_Driver/Src\stm32l4xx_hal_rcc.c ****            |1WS(2 CPU cycles)|  20 < HCLK <= 40  |  8 < HCLK <= 16  |
 232:E:/LiteOS/LiteOS_Lab/drivers/third_party/ST/STM32L4xx_HAL_Driver/Src\stm32l4xx_hal_rcc.c ****            |-----------------|-------------------|------------------|
 233:E:/LiteOS/LiteOS_Lab/drivers/third_party/ST/STM32L4xx_HAL_Driver/Src\stm32l4xx_hal_rcc.c ****            |2WS(3 CPU cycles)|  40 < HCLK <= 60  | 16 < HCLK <= 26  |
 234:E:/LiteOS/LiteOS_Lab/drivers/third_party/ST/STM32L4xx_HAL_Driver/Src\stm32l4xx_hal_rcc.c ****            |-----------------|-------------------|------------------|
 235:E:/LiteOS/LiteOS_Lab/drivers/third_party/ST/STM32L4xx_HAL_Driver/Src\stm32l4xx_hal_rcc.c ****            |3WS(4 CPU cycles)|  60 < HCLK <= 80  | 16 < HCLK <= 26  |
 236:E:/LiteOS/LiteOS_Lab/drivers/third_party/ST/STM32L4xx_HAL_Driver/Src\stm32l4xx_hal_rcc.c ****            |-----------------|-------------------|------------------|
 237:E:/LiteOS/LiteOS_Lab/drivers/third_party/ST/STM32L4xx_HAL_Driver/Src\stm32l4xx_hal_rcc.c ****            |4WS(5 CPU cycles)|  80 < HCLK <= 100 | 16 < HCLK <= 26  |
 238:E:/LiteOS/LiteOS_Lab/drivers/third_party/ST/STM32L4xx_HAL_Driver/Src\stm32l4xx_hal_rcc.c ****            |-----------------|-------------------|------------------|
 239:E:/LiteOS/LiteOS_Lab/drivers/third_party/ST/STM32L4xx_HAL_Driver/Src\stm32l4xx_hal_rcc.c ****            |5WS(6 CPU cycles)| 100 < HCLK <= 120 | 16 < HCLK <= 26  |
 240:E:/LiteOS/LiteOS_Lab/drivers/third_party/ST/STM32L4xx_HAL_Driver/Src\stm32l4xx_hal_rcc.c ****            +--------------------------------------------------------+
 241:E:/LiteOS/LiteOS_Lab/drivers/third_party/ST/STM32L4xx_HAL_Driver/Src\stm32l4xx_hal_rcc.c **** 
 242:E:/LiteOS/LiteOS_Lab/drivers/third_party/ST/STM32L4xx_HAL_Driver/Src\stm32l4xx_hal_rcc.c ****            Table 2. HCLK clock frequency for other STM32L4 devices
 243:E:/LiteOS/LiteOS_Lab/drivers/third_party/ST/STM32L4xx_HAL_Driver/Src\stm32l4xx_hal_rcc.c ****            +-------------------------------------------------------+
 244:E:/LiteOS/LiteOS_Lab/drivers/third_party/ST/STM32L4xx_HAL_Driver/Src\stm32l4xx_hal_rcc.c ****            | Latency         |    HCLK clock frequency (MHz)       |
 245:E:/LiteOS/LiteOS_Lab/drivers/third_party/ST/STM32L4xx_HAL_Driver/Src\stm32l4xx_hal_rcc.c ****            |                 |-------------------------------------|
 246:E:/LiteOS/LiteOS_Lab/drivers/third_party/ST/STM32L4xx_HAL_Driver/Src\stm32l4xx_hal_rcc.c ****            |                 | voltage range 1  | voltage range 2  |
 247:E:/LiteOS/LiteOS_Lab/drivers/third_party/ST/STM32L4xx_HAL_Driver/Src\stm32l4xx_hal_rcc.c ****            |                 |      1.2 V       |     1.0 V        |
 248:E:/LiteOS/LiteOS_Lab/drivers/third_party/ST/STM32L4xx_HAL_Driver/Src\stm32l4xx_hal_rcc.c ****            |-----------------|------------------|------------------|
 249:E:/LiteOS/LiteOS_Lab/drivers/third_party/ST/STM32L4xx_HAL_Driver/Src\stm32l4xx_hal_rcc.c ****            |0WS(1 CPU cycles)|  0 < HCLK <= 16  |  0 < HCLK <= 6   |
 250:E:/LiteOS/LiteOS_Lab/drivers/third_party/ST/STM32L4xx_HAL_Driver/Src\stm32l4xx_hal_rcc.c ****            |-----------------|------------------|------------------|
 251:E:/LiteOS/LiteOS_Lab/drivers/third_party/ST/STM32L4xx_HAL_Driver/Src\stm32l4xx_hal_rcc.c ****            |1WS(2 CPU cycles)| 16 < HCLK <= 32  |  6 < HCLK <= 12  |
 252:E:/LiteOS/LiteOS_Lab/drivers/third_party/ST/STM32L4xx_HAL_Driver/Src\stm32l4xx_hal_rcc.c ****            |-----------------|------------------|------------------|
 253:E:/LiteOS/LiteOS_Lab/drivers/third_party/ST/STM32L4xx_HAL_Driver/Src\stm32l4xx_hal_rcc.c ****            |2WS(3 CPU cycles)| 32 < HCLK <= 48  | 12 < HCLK <= 18  |
 254:E:/LiteOS/LiteOS_Lab/drivers/third_party/ST/STM32L4xx_HAL_Driver/Src\stm32l4xx_hal_rcc.c ****            |-----------------|------------------|------------------|
 255:E:/LiteOS/LiteOS_Lab/drivers/third_party/ST/STM32L4xx_HAL_Driver/Src\stm32l4xx_hal_rcc.c ****            |3WS(4 CPU cycles)| 48 < HCLK <= 64  | 18 < HCLK <= 26  |
 256:E:/LiteOS/LiteOS_Lab/drivers/third_party/ST/STM32L4xx_HAL_Driver/Src\stm32l4xx_hal_rcc.c ****            |-----------------|------------------|------------------|
 257:E:/LiteOS/LiteOS_Lab/drivers/third_party/ST/STM32L4xx_HAL_Driver/Src\stm32l4xx_hal_rcc.c ****            |4WS(5 CPU cycles)| 64 < HCLK <= 80  | 18 < HCLK <= 26  |
 258:E:/LiteOS/LiteOS_Lab/drivers/third_party/ST/STM32L4xx_HAL_Driver/Src\stm32l4xx_hal_rcc.c ****            +-------------------------------------------------------+
 259:E:/LiteOS/LiteOS_Lab/drivers/third_party/ST/STM32L4xx_HAL_Driver/Src\stm32l4xx_hal_rcc.c ****   * @{
ARM GAS  C:\Users\user\AppData\Local\Temp\ccmqW6jC.s 			page 6


 260:E:/LiteOS/LiteOS_Lab/drivers/third_party/ST/STM32L4xx_HAL_Driver/Src\stm32l4xx_hal_rcc.c ****   */
 261:E:/LiteOS/LiteOS_Lab/drivers/third_party/ST/STM32L4xx_HAL_Driver/Src\stm32l4xx_hal_rcc.c **** 
 262:E:/LiteOS/LiteOS_Lab/drivers/third_party/ST/STM32L4xx_HAL_Driver/Src\stm32l4xx_hal_rcc.c **** /**
 263:E:/LiteOS/LiteOS_Lab/drivers/third_party/ST/STM32L4xx_HAL_Driver/Src\stm32l4xx_hal_rcc.c ****   * @brief  Reset the RCC clock configuration to the default reset state.
 264:E:/LiteOS/LiteOS_Lab/drivers/third_party/ST/STM32L4xx_HAL_Driver/Src\stm32l4xx_hal_rcc.c ****   * @note   The default reset state of the clock configuration is given below:
 265:E:/LiteOS/LiteOS_Lab/drivers/third_party/ST/STM32L4xx_HAL_Driver/Src\stm32l4xx_hal_rcc.c ****   *            - MSI ON and used as system clock source
 266:E:/LiteOS/LiteOS_Lab/drivers/third_party/ST/STM32L4xx_HAL_Driver/Src\stm32l4xx_hal_rcc.c ****   *            - HSE, HSI, PLL, PLLSAI1 and PLLISAI2 OFF
 267:E:/LiteOS/LiteOS_Lab/drivers/third_party/ST/STM32L4xx_HAL_Driver/Src\stm32l4xx_hal_rcc.c ****   *            - AHB, APB1 and APB2 prescaler set to 1.
 268:E:/LiteOS/LiteOS_Lab/drivers/third_party/ST/STM32L4xx_HAL_Driver/Src\stm32l4xx_hal_rcc.c ****   *            - CSS, MCO1 OFF
 269:E:/LiteOS/LiteOS_Lab/drivers/third_party/ST/STM32L4xx_HAL_Driver/Src\stm32l4xx_hal_rcc.c ****   *            - All interrupts disabled
 270:E:/LiteOS/LiteOS_Lab/drivers/third_party/ST/STM32L4xx_HAL_Driver/Src\stm32l4xx_hal_rcc.c ****   *            - All interrupt and reset flags cleared
 271:E:/LiteOS/LiteOS_Lab/drivers/third_party/ST/STM32L4xx_HAL_Driver/Src\stm32l4xx_hal_rcc.c ****   * @note   This function doesn't modify the configuration of the
 272:E:/LiteOS/LiteOS_Lab/drivers/third_party/ST/STM32L4xx_HAL_Driver/Src\stm32l4xx_hal_rcc.c ****   *            - Peripheral clocks
 273:E:/LiteOS/LiteOS_Lab/drivers/third_party/ST/STM32L4xx_HAL_Driver/Src\stm32l4xx_hal_rcc.c ****   *            - LSI, LSE and RTC clocks
 274:E:/LiteOS/LiteOS_Lab/drivers/third_party/ST/STM32L4xx_HAL_Driver/Src\stm32l4xx_hal_rcc.c ****   * @retval HAL status
 275:E:/LiteOS/LiteOS_Lab/drivers/third_party/ST/STM32L4xx_HAL_Driver/Src\stm32l4xx_hal_rcc.c ****   */
 276:E:/LiteOS/LiteOS_Lab/drivers/third_party/ST/STM32L4xx_HAL_Driver/Src\stm32l4xx_hal_rcc.c **** HAL_StatusTypeDef HAL_RCC_DeInit(void)
 277:E:/LiteOS/LiteOS_Lab/drivers/third_party/ST/STM32L4xx_HAL_Driver/Src\stm32l4xx_hal_rcc.c **** {
  28              		.loc 1 277 0
  29              		.cfi_startproc
  30              		@ args = 0, pretend = 0, frame = 8
  31              		@ frame_needed = 1, uses_anonymous_args = 0
  32 0000 80B5     		push	{r7, lr}
  33              	.LCFI0:
  34              		.cfi_def_cfa_offset 8
  35              		.cfi_offset 7, -8
  36              		.cfi_offset 14, -4
  37 0002 82B0     		sub	sp, sp, #8
  38              	.LCFI1:
  39              		.cfi_def_cfa_offset 16
  40 0004 00AF     		add	r7, sp, #0
  41              	.LCFI2:
  42              		.cfi_def_cfa_register 7
 278:E:/LiteOS/LiteOS_Lab/drivers/third_party/ST/STM32L4xx_HAL_Driver/Src\stm32l4xx_hal_rcc.c ****   uint32_t tickstart = 0;
  43              		.loc 1 278 0
  44 0006 0023     		movs	r3, #0
  45 0008 7B60     		str	r3, [r7, #4]
 279:E:/LiteOS/LiteOS_Lab/drivers/third_party/ST/STM32L4xx_HAL_Driver/Src\stm32l4xx_hal_rcc.c **** 
 280:E:/LiteOS/LiteOS_Lab/drivers/third_party/ST/STM32L4xx_HAL_Driver/Src\stm32l4xx_hal_rcc.c ****   /* Set MSION bit */
 281:E:/LiteOS/LiteOS_Lab/drivers/third_party/ST/STM32L4xx_HAL_Driver/Src\stm32l4xx_hal_rcc.c ****   SET_BIT(RCC->CR, RCC_CR_MSION);
  46              		.loc 1 281 0
  47 000a 444B     		ldr	r3, .L10
  48 000c 1B68     		ldr	r3, [r3]
  49 000e 434A     		ldr	r2, .L10
  50 0010 43F00103 		orr	r3, r3, #1
  51 0014 1360     		str	r3, [r2]
 282:E:/LiteOS/LiteOS_Lab/drivers/third_party/ST/STM32L4xx_HAL_Driver/Src\stm32l4xx_hal_rcc.c **** 
 283:E:/LiteOS/LiteOS_Lab/drivers/third_party/ST/STM32L4xx_HAL_Driver/Src\stm32l4xx_hal_rcc.c ****   /* Insure MSIRDY bit is set before writing default MSIRANGE value */
 284:E:/LiteOS/LiteOS_Lab/drivers/third_party/ST/STM32L4xx_HAL_Driver/Src\stm32l4xx_hal_rcc.c ****   /* Get start tick */
 285:E:/LiteOS/LiteOS_Lab/drivers/third_party/ST/STM32L4xx_HAL_Driver/Src\stm32l4xx_hal_rcc.c ****   tickstart = HAL_GetTick();
  52              		.loc 1 285 0
  53 0016 FFF7FEFF 		bl	HAL_GetTick
  54 001a 7860     		str	r0, [r7, #4]
 286:E:/LiteOS/LiteOS_Lab/drivers/third_party/ST/STM32L4xx_HAL_Driver/Src\stm32l4xx_hal_rcc.c **** 
 287:E:/LiteOS/LiteOS_Lab/drivers/third_party/ST/STM32L4xx_HAL_Driver/Src\stm32l4xx_hal_rcc.c ****   /* Wait till MSI is ready */
 288:E:/LiteOS/LiteOS_Lab/drivers/third_party/ST/STM32L4xx_HAL_Driver/Src\stm32l4xx_hal_rcc.c ****   while(READ_BIT(RCC->CR, RCC_CR_MSIRDY) == RESET)
  55              		.loc 1 288 0
ARM GAS  C:\Users\user\AppData\Local\Temp\ccmqW6jC.s 			page 7


  56 001c 08E0     		b	.L2
  57              	.L4:
 289:E:/LiteOS/LiteOS_Lab/drivers/third_party/ST/STM32L4xx_HAL_Driver/Src\stm32l4xx_hal_rcc.c ****   {
 290:E:/LiteOS/LiteOS_Lab/drivers/third_party/ST/STM32L4xx_HAL_Driver/Src\stm32l4xx_hal_rcc.c ****     if((HAL_GetTick() - tickstart) > MSI_TIMEOUT_VALUE)
  58              		.loc 1 290 0
  59 001e FFF7FEFF 		bl	HAL_GetTick
  60 0022 0246     		mov	r2, r0
  61 0024 7B68     		ldr	r3, [r7, #4]
  62 0026 D31A     		subs	r3, r2, r3
  63 0028 022B     		cmp	r3, #2
  64 002a 01D9     		bls	.L2
 291:E:/LiteOS/LiteOS_Lab/drivers/third_party/ST/STM32L4xx_HAL_Driver/Src\stm32l4xx_hal_rcc.c ****     {
 292:E:/LiteOS/LiteOS_Lab/drivers/third_party/ST/STM32L4xx_HAL_Driver/Src\stm32l4xx_hal_rcc.c ****       return HAL_TIMEOUT;
  65              		.loc 1 292 0
  66 002c 0323     		movs	r3, #3
  67 002e 71E0     		b	.L3
  68              	.L2:
 288:E:/LiteOS/LiteOS_Lab/drivers/third_party/ST/STM32L4xx_HAL_Driver/Src\stm32l4xx_hal_rcc.c ****   {
  69              		.loc 1 288 0
  70 0030 3A4B     		ldr	r3, .L10
  71 0032 1B68     		ldr	r3, [r3]
  72 0034 03F00203 		and	r3, r3, #2
  73 0038 002B     		cmp	r3, #0
  74 003a F0D0     		beq	.L4
 293:E:/LiteOS/LiteOS_Lab/drivers/third_party/ST/STM32L4xx_HAL_Driver/Src\stm32l4xx_hal_rcc.c ****     }
 294:E:/LiteOS/LiteOS_Lab/drivers/third_party/ST/STM32L4xx_HAL_Driver/Src\stm32l4xx_hal_rcc.c ****   }
 295:E:/LiteOS/LiteOS_Lab/drivers/third_party/ST/STM32L4xx_HAL_Driver/Src\stm32l4xx_hal_rcc.c **** 
 296:E:/LiteOS/LiteOS_Lab/drivers/third_party/ST/STM32L4xx_HAL_Driver/Src\stm32l4xx_hal_rcc.c ****   /* Set MSIRANGE default value */
 297:E:/LiteOS/LiteOS_Lab/drivers/third_party/ST/STM32L4xx_HAL_Driver/Src\stm32l4xx_hal_rcc.c ****   MODIFY_REG(RCC->CR, RCC_CR_MSIRANGE, RCC_MSIRANGE_6);
  75              		.loc 1 297 0
  76 003c 374B     		ldr	r3, .L10
  77 003e 1B68     		ldr	r3, [r3]
  78 0040 23F0F003 		bic	r3, r3, #240
  79 0044 354A     		ldr	r2, .L10
  80 0046 43F06003 		orr	r3, r3, #96
  81 004a 1360     		str	r3, [r2]
 298:E:/LiteOS/LiteOS_Lab/drivers/third_party/ST/STM32L4xx_HAL_Driver/Src\stm32l4xx_hal_rcc.c **** 
 299:E:/LiteOS/LiteOS_Lab/drivers/third_party/ST/STM32L4xx_HAL_Driver/Src\stm32l4xx_hal_rcc.c ****   /* Reset CFGR register (MSI is selected as system clock source) */
 300:E:/LiteOS/LiteOS_Lab/drivers/third_party/ST/STM32L4xx_HAL_Driver/Src\stm32l4xx_hal_rcc.c ****   CLEAR_REG(RCC->CFGR);
  82              		.loc 1 300 0
  83 004c 334B     		ldr	r3, .L10
  84 004e 0022     		movs	r2, #0
  85 0050 9A60     		str	r2, [r3, #8]
 301:E:/LiteOS/LiteOS_Lab/drivers/third_party/ST/STM32L4xx_HAL_Driver/Src\stm32l4xx_hal_rcc.c **** 
 302:E:/LiteOS/LiteOS_Lab/drivers/third_party/ST/STM32L4xx_HAL_Driver/Src\stm32l4xx_hal_rcc.c ****   /* Update the SystemCoreClock global variable for MSI as system clock source */
 303:E:/LiteOS/LiteOS_Lab/drivers/third_party/ST/STM32L4xx_HAL_Driver/Src\stm32l4xx_hal_rcc.c ****   SystemCoreClock = MSI_VALUE;
  86              		.loc 1 303 0
  87 0052 334B     		ldr	r3, .L10+4
  88 0054 334A     		ldr	r2, .L10+8
  89 0056 1A60     		str	r2, [r3]
 304:E:/LiteOS/LiteOS_Lab/drivers/third_party/ST/STM32L4xx_HAL_Driver/Src\stm32l4xx_hal_rcc.c **** 
 305:E:/LiteOS/LiteOS_Lab/drivers/third_party/ST/STM32L4xx_HAL_Driver/Src\stm32l4xx_hal_rcc.c ****   /* Configure the source of time base considering new system clock settings  */
 306:E:/LiteOS/LiteOS_Lab/drivers/third_party/ST/STM32L4xx_HAL_Driver/Src\stm32l4xx_hal_rcc.c ****   if(HAL_InitTick(TICK_INT_PRIORITY) != HAL_OK)
  90              		.loc 1 306 0
  91 0058 0020     		movs	r0, #0
  92 005a FFF7FEFF 		bl	HAL_InitTick
  93 005e 0346     		mov	r3, r0
ARM GAS  C:\Users\user\AppData\Local\Temp\ccmqW6jC.s 			page 8


  94 0060 002B     		cmp	r3, #0
  95 0062 01D0     		beq	.L5
 307:E:/LiteOS/LiteOS_Lab/drivers/third_party/ST/STM32L4xx_HAL_Driver/Src\stm32l4xx_hal_rcc.c ****   {
 308:E:/LiteOS/LiteOS_Lab/drivers/third_party/ST/STM32L4xx_HAL_Driver/Src\stm32l4xx_hal_rcc.c ****     return HAL_ERROR;
  96              		.loc 1 308 0
  97 0064 0123     		movs	r3, #1
  98 0066 55E0     		b	.L3
  99              	.L5:
 309:E:/LiteOS/LiteOS_Lab/drivers/third_party/ST/STM32L4xx_HAL_Driver/Src\stm32l4xx_hal_rcc.c ****   }
 310:E:/LiteOS/LiteOS_Lab/drivers/third_party/ST/STM32L4xx_HAL_Driver/Src\stm32l4xx_hal_rcc.c **** 
 311:E:/LiteOS/LiteOS_Lab/drivers/third_party/ST/STM32L4xx_HAL_Driver/Src\stm32l4xx_hal_rcc.c ****   /* Insure MSI selected as system clock source */
 312:E:/LiteOS/LiteOS_Lab/drivers/third_party/ST/STM32L4xx_HAL_Driver/Src\stm32l4xx_hal_rcc.c ****   /* Get start tick */
 313:E:/LiteOS/LiteOS_Lab/drivers/third_party/ST/STM32L4xx_HAL_Driver/Src\stm32l4xx_hal_rcc.c ****   tickstart = HAL_GetTick();
 100              		.loc 1 313 0
 101 0068 FFF7FEFF 		bl	HAL_GetTick
 102 006c 7860     		str	r0, [r7, #4]
 314:E:/LiteOS/LiteOS_Lab/drivers/third_party/ST/STM32L4xx_HAL_Driver/Src\stm32l4xx_hal_rcc.c **** 
 315:E:/LiteOS/LiteOS_Lab/drivers/third_party/ST/STM32L4xx_HAL_Driver/Src\stm32l4xx_hal_rcc.c ****   /* Wait till system clock source is ready */
 316:E:/LiteOS/LiteOS_Lab/drivers/third_party/ST/STM32L4xx_HAL_Driver/Src\stm32l4xx_hal_rcc.c ****   while(READ_BIT(RCC->CFGR, RCC_CFGR_SWS) != RCC_CFGR_SWS_MSI)
 103              		.loc 1 316 0
 104 006e 0AE0     		b	.L6
 105              	.L7:
 317:E:/LiteOS/LiteOS_Lab/drivers/third_party/ST/STM32L4xx_HAL_Driver/Src\stm32l4xx_hal_rcc.c ****   {
 318:E:/LiteOS/LiteOS_Lab/drivers/third_party/ST/STM32L4xx_HAL_Driver/Src\stm32l4xx_hal_rcc.c ****     if((HAL_GetTick() - tickstart) > CLOCKSWITCH_TIMEOUT_VALUE)
 106              		.loc 1 318 0
 107 0070 FFF7FEFF 		bl	HAL_GetTick
 108 0074 0246     		mov	r2, r0
 109 0076 7B68     		ldr	r3, [r7, #4]
 110 0078 D31A     		subs	r3, r2, r3
 111 007a 41F28832 		movw	r2, #5000
 112 007e 9342     		cmp	r3, r2
 113 0080 01D9     		bls	.L6
 319:E:/LiteOS/LiteOS_Lab/drivers/third_party/ST/STM32L4xx_HAL_Driver/Src\stm32l4xx_hal_rcc.c ****     {
 320:E:/LiteOS/LiteOS_Lab/drivers/third_party/ST/STM32L4xx_HAL_Driver/Src\stm32l4xx_hal_rcc.c ****       return HAL_TIMEOUT;
 114              		.loc 1 320 0
 115 0082 0323     		movs	r3, #3
 116 0084 46E0     		b	.L3
 117              	.L6:
 316:E:/LiteOS/LiteOS_Lab/drivers/third_party/ST/STM32L4xx_HAL_Driver/Src\stm32l4xx_hal_rcc.c ****   {
 118              		.loc 1 316 0
 119 0086 254B     		ldr	r3, .L10
 120 0088 9B68     		ldr	r3, [r3, #8]
 121 008a 03F00C03 		and	r3, r3, #12
 122 008e 002B     		cmp	r3, #0
 123 0090 EED1     		bne	.L7
 321:E:/LiteOS/LiteOS_Lab/drivers/third_party/ST/STM32L4xx_HAL_Driver/Src\stm32l4xx_hal_rcc.c ****     }
 322:E:/LiteOS/LiteOS_Lab/drivers/third_party/ST/STM32L4xx_HAL_Driver/Src\stm32l4xx_hal_rcc.c ****   }
 323:E:/LiteOS/LiteOS_Lab/drivers/third_party/ST/STM32L4xx_HAL_Driver/Src\stm32l4xx_hal_rcc.c **** 
 324:E:/LiteOS/LiteOS_Lab/drivers/third_party/ST/STM32L4xx_HAL_Driver/Src\stm32l4xx_hal_rcc.c ****   /* Reset HSION, HSIKERON, HSIASFS, HSEON, HSECSSON, PLLON, PLLSAIxON bits */
 325:E:/LiteOS/LiteOS_Lab/drivers/third_party/ST/STM32L4xx_HAL_Driver/Src\stm32l4xx_hal_rcc.c **** #if defined(RCC_PLLSAI2_SUPPORT)
 326:E:/LiteOS/LiteOS_Lab/drivers/third_party/ST/STM32L4xx_HAL_Driver/Src\stm32l4xx_hal_rcc.c **** 
 327:E:/LiteOS/LiteOS_Lab/drivers/third_party/ST/STM32L4xx_HAL_Driver/Src\stm32l4xx_hal_rcc.c ****   CLEAR_BIT(RCC->CR, RCC_CR_HSEON | RCC_CR_HSION | RCC_CR_HSIKERON| RCC_CR_HSIASFS | RCC_CR_PLLON |
 328:E:/LiteOS/LiteOS_Lab/drivers/third_party/ST/STM32L4xx_HAL_Driver/Src\stm32l4xx_hal_rcc.c **** 
 329:E:/LiteOS/LiteOS_Lab/drivers/third_party/ST/STM32L4xx_HAL_Driver/Src\stm32l4xx_hal_rcc.c **** #else
 330:E:/LiteOS/LiteOS_Lab/drivers/third_party/ST/STM32L4xx_HAL_Driver/Src\stm32l4xx_hal_rcc.c **** 
 331:E:/LiteOS/LiteOS_Lab/drivers/third_party/ST/STM32L4xx_HAL_Driver/Src\stm32l4xx_hal_rcc.c ****   CLEAR_BIT(RCC->CR, RCC_CR_HSEON | RCC_CR_HSION | RCC_CR_HSIKERON| RCC_CR_HSIASFS | RCC_CR_PLLON |
 124              		.loc 1 331 0
ARM GAS  C:\Users\user\AppData\Local\Temp\ccmqW6jC.s 			page 9


 125 0092 224B     		ldr	r3, .L10
 126 0094 1A68     		ldr	r2, [r3]
 127 0096 2149     		ldr	r1, .L10
 128 0098 234B     		ldr	r3, .L10+12
 129 009a 1340     		ands	r3, r3, r2
 130 009c 0B60     		str	r3, [r1]
 332:E:/LiteOS/LiteOS_Lab/drivers/third_party/ST/STM32L4xx_HAL_Driver/Src\stm32l4xx_hal_rcc.c **** 
 333:E:/LiteOS/LiteOS_Lab/drivers/third_party/ST/STM32L4xx_HAL_Driver/Src\stm32l4xx_hal_rcc.c **** #endif /* RCC_PLLSAI2_SUPPORT */
 334:E:/LiteOS/LiteOS_Lab/drivers/third_party/ST/STM32L4xx_HAL_Driver/Src\stm32l4xx_hal_rcc.c **** 
 335:E:/LiteOS/LiteOS_Lab/drivers/third_party/ST/STM32L4xx_HAL_Driver/Src\stm32l4xx_hal_rcc.c ****   /* Insure PLLRDY, PLLSAI1RDY and PLLSAI2RDY (if present) are reset */
 336:E:/LiteOS/LiteOS_Lab/drivers/third_party/ST/STM32L4xx_HAL_Driver/Src\stm32l4xx_hal_rcc.c ****   /* Get start tick */
 337:E:/LiteOS/LiteOS_Lab/drivers/third_party/ST/STM32L4xx_HAL_Driver/Src\stm32l4xx_hal_rcc.c ****   tickstart = HAL_GetTick();
 131              		.loc 1 337 0
 132 009e FFF7FEFF 		bl	HAL_GetTick
 133 00a2 7860     		str	r0, [r7, #4]
 338:E:/LiteOS/LiteOS_Lab/drivers/third_party/ST/STM32L4xx_HAL_Driver/Src\stm32l4xx_hal_rcc.c **** 
 339:E:/LiteOS/LiteOS_Lab/drivers/third_party/ST/STM32L4xx_HAL_Driver/Src\stm32l4xx_hal_rcc.c **** #if defined(RCC_PLLSAI2_SUPPORT)
 340:E:/LiteOS/LiteOS_Lab/drivers/third_party/ST/STM32L4xx_HAL_Driver/Src\stm32l4xx_hal_rcc.c **** 
 341:E:/LiteOS/LiteOS_Lab/drivers/third_party/ST/STM32L4xx_HAL_Driver/Src\stm32l4xx_hal_rcc.c ****   while(READ_BIT(RCC->CR, RCC_CR_PLLRDY | RCC_CR_PLLSAI1RDY | RCC_CR_PLLSAI2RDY) != 0U)
 342:E:/LiteOS/LiteOS_Lab/drivers/third_party/ST/STM32L4xx_HAL_Driver/Src\stm32l4xx_hal_rcc.c **** 
 343:E:/LiteOS/LiteOS_Lab/drivers/third_party/ST/STM32L4xx_HAL_Driver/Src\stm32l4xx_hal_rcc.c **** #else
 344:E:/LiteOS/LiteOS_Lab/drivers/third_party/ST/STM32L4xx_HAL_Driver/Src\stm32l4xx_hal_rcc.c **** 
 345:E:/LiteOS/LiteOS_Lab/drivers/third_party/ST/STM32L4xx_HAL_Driver/Src\stm32l4xx_hal_rcc.c ****   while(READ_BIT(RCC->CR, RCC_CR_PLLRDY | RCC_CR_PLLSAI1RDY) != 0U)
 134              		.loc 1 345 0
 135 00a4 08E0     		b	.L8
 136              	.L9:
 346:E:/LiteOS/LiteOS_Lab/drivers/third_party/ST/STM32L4xx_HAL_Driver/Src\stm32l4xx_hal_rcc.c **** 
 347:E:/LiteOS/LiteOS_Lab/drivers/third_party/ST/STM32L4xx_HAL_Driver/Src\stm32l4xx_hal_rcc.c **** #endif
 348:E:/LiteOS/LiteOS_Lab/drivers/third_party/ST/STM32L4xx_HAL_Driver/Src\stm32l4xx_hal_rcc.c ****   {
 349:E:/LiteOS/LiteOS_Lab/drivers/third_party/ST/STM32L4xx_HAL_Driver/Src\stm32l4xx_hal_rcc.c ****     if((HAL_GetTick() - tickstart) > PLL_TIMEOUT_VALUE)
 137              		.loc 1 349 0
 138 00a6 FFF7FEFF 		bl	HAL_GetTick
 139 00aa 0246     		mov	r2, r0
 140 00ac 7B68     		ldr	r3, [r7, #4]
 141 00ae D31A     		subs	r3, r2, r3
 142 00b0 022B     		cmp	r3, #2
 143 00b2 01D9     		bls	.L8
 350:E:/LiteOS/LiteOS_Lab/drivers/third_party/ST/STM32L4xx_HAL_Driver/Src\stm32l4xx_hal_rcc.c ****     {
 351:E:/LiteOS/LiteOS_Lab/drivers/third_party/ST/STM32L4xx_HAL_Driver/Src\stm32l4xx_hal_rcc.c ****       return HAL_TIMEOUT;
 144              		.loc 1 351 0
 145 00b4 0323     		movs	r3, #3
 146 00b6 2DE0     		b	.L3
 147              	.L8:
 345:E:/LiteOS/LiteOS_Lab/drivers/third_party/ST/STM32L4xx_HAL_Driver/Src\stm32l4xx_hal_rcc.c **** 
 148              		.loc 1 345 0
 149 00b8 184B     		ldr	r3, .L10
 150 00ba 1B68     		ldr	r3, [r3]
 151 00bc 03F02063 		and	r3, r3, #167772160
 152 00c0 002B     		cmp	r3, #0
 153 00c2 F0D1     		bne	.L9
 352:E:/LiteOS/LiteOS_Lab/drivers/third_party/ST/STM32L4xx_HAL_Driver/Src\stm32l4xx_hal_rcc.c ****     }
 353:E:/LiteOS/LiteOS_Lab/drivers/third_party/ST/STM32L4xx_HAL_Driver/Src\stm32l4xx_hal_rcc.c ****   }
 354:E:/LiteOS/LiteOS_Lab/drivers/third_party/ST/STM32L4xx_HAL_Driver/Src\stm32l4xx_hal_rcc.c **** 
 355:E:/LiteOS/LiteOS_Lab/drivers/third_party/ST/STM32L4xx_HAL_Driver/Src\stm32l4xx_hal_rcc.c ****   /* Reset PLLCFGR register */
 356:E:/LiteOS/LiteOS_Lab/drivers/third_party/ST/STM32L4xx_HAL_Driver/Src\stm32l4xx_hal_rcc.c ****   CLEAR_REG(RCC->PLLCFGR);
 154              		.loc 1 356 0
 155 00c4 154B     		ldr	r3, .L10
ARM GAS  C:\Users\user\AppData\Local\Temp\ccmqW6jC.s 			page 10


 156 00c6 0022     		movs	r2, #0
 157 00c8 DA60     		str	r2, [r3, #12]
 357:E:/LiteOS/LiteOS_Lab/drivers/third_party/ST/STM32L4xx_HAL_Driver/Src\stm32l4xx_hal_rcc.c ****   SET_BIT(RCC->PLLCFGR, RCC_PLLCFGR_PLLN_4 );
 158              		.loc 1 357 0
 159 00ca 144B     		ldr	r3, .L10
 160 00cc DB68     		ldr	r3, [r3, #12]
 161 00ce 134A     		ldr	r2, .L10
 162 00d0 43F48053 		orr	r3, r3, #4096
 163 00d4 D360     		str	r3, [r2, #12]
 358:E:/LiteOS/LiteOS_Lab/drivers/third_party/ST/STM32L4xx_HAL_Driver/Src\stm32l4xx_hal_rcc.c **** 
 359:E:/LiteOS/LiteOS_Lab/drivers/third_party/ST/STM32L4xx_HAL_Driver/Src\stm32l4xx_hal_rcc.c ****   /* Reset PLLSAI1CFGR register */
 360:E:/LiteOS/LiteOS_Lab/drivers/third_party/ST/STM32L4xx_HAL_Driver/Src\stm32l4xx_hal_rcc.c ****   CLEAR_REG(RCC->PLLSAI1CFGR);
 164              		.loc 1 360 0
 165 00d6 114B     		ldr	r3, .L10
 166 00d8 0022     		movs	r2, #0
 167 00da 1A61     		str	r2, [r3, #16]
 361:E:/LiteOS/LiteOS_Lab/drivers/third_party/ST/STM32L4xx_HAL_Driver/Src\stm32l4xx_hal_rcc.c ****   SET_BIT(RCC->PLLSAI1CFGR,  RCC_PLLSAI1CFGR_PLLSAI1N_4 );
 168              		.loc 1 361 0
 169 00dc 0F4B     		ldr	r3, .L10
 170 00de 1B69     		ldr	r3, [r3, #16]
 171 00e0 0E4A     		ldr	r2, .L10
 172 00e2 43F48053 		orr	r3, r3, #4096
 173 00e6 1361     		str	r3, [r2, #16]
 362:E:/LiteOS/LiteOS_Lab/drivers/third_party/ST/STM32L4xx_HAL_Driver/Src\stm32l4xx_hal_rcc.c **** 
 363:E:/LiteOS/LiteOS_Lab/drivers/third_party/ST/STM32L4xx_HAL_Driver/Src\stm32l4xx_hal_rcc.c **** #if defined(RCC_PLLSAI2_SUPPORT)
 364:E:/LiteOS/LiteOS_Lab/drivers/third_party/ST/STM32L4xx_HAL_Driver/Src\stm32l4xx_hal_rcc.c **** 
 365:E:/LiteOS/LiteOS_Lab/drivers/third_party/ST/STM32L4xx_HAL_Driver/Src\stm32l4xx_hal_rcc.c ****   /* Reset PLLSAI2CFGR register */
 366:E:/LiteOS/LiteOS_Lab/drivers/third_party/ST/STM32L4xx_HAL_Driver/Src\stm32l4xx_hal_rcc.c ****   CLEAR_REG(RCC->PLLSAI2CFGR);
 367:E:/LiteOS/LiteOS_Lab/drivers/third_party/ST/STM32L4xx_HAL_Driver/Src\stm32l4xx_hal_rcc.c ****   SET_BIT(RCC->PLLSAI2CFGR,  RCC_PLLSAI2CFGR_PLLSAI2N_4 );
 368:E:/LiteOS/LiteOS_Lab/drivers/third_party/ST/STM32L4xx_HAL_Driver/Src\stm32l4xx_hal_rcc.c **** 
 369:E:/LiteOS/LiteOS_Lab/drivers/third_party/ST/STM32L4xx_HAL_Driver/Src\stm32l4xx_hal_rcc.c **** #endif /* RCC_PLLSAI2_SUPPORT */
 370:E:/LiteOS/LiteOS_Lab/drivers/third_party/ST/STM32L4xx_HAL_Driver/Src\stm32l4xx_hal_rcc.c **** 
 371:E:/LiteOS/LiteOS_Lab/drivers/third_party/ST/STM32L4xx_HAL_Driver/Src\stm32l4xx_hal_rcc.c ****   /* Reset HSEBYP bit */
 372:E:/LiteOS/LiteOS_Lab/drivers/third_party/ST/STM32L4xx_HAL_Driver/Src\stm32l4xx_hal_rcc.c ****   CLEAR_BIT(RCC->CR, RCC_CR_HSEBYP);
 174              		.loc 1 372 0
 175 00e8 0C4B     		ldr	r3, .L10
 176 00ea 1B68     		ldr	r3, [r3]
 177 00ec 0B4A     		ldr	r2, .L10
 178 00ee 23F48023 		bic	r3, r3, #262144
 179 00f2 1360     		str	r3, [r2]
 373:E:/LiteOS/LiteOS_Lab/drivers/third_party/ST/STM32L4xx_HAL_Driver/Src\stm32l4xx_hal_rcc.c **** 
 374:E:/LiteOS/LiteOS_Lab/drivers/third_party/ST/STM32L4xx_HAL_Driver/Src\stm32l4xx_hal_rcc.c ****   /* Disable all interrupts */
 375:E:/LiteOS/LiteOS_Lab/drivers/third_party/ST/STM32L4xx_HAL_Driver/Src\stm32l4xx_hal_rcc.c ****   CLEAR_REG(RCC->CIER);
 180              		.loc 1 375 0
 181 00f4 094B     		ldr	r3, .L10
 182 00f6 0022     		movs	r2, #0
 183 00f8 9A61     		str	r2, [r3, #24]
 376:E:/LiteOS/LiteOS_Lab/drivers/third_party/ST/STM32L4xx_HAL_Driver/Src\stm32l4xx_hal_rcc.c **** 
 377:E:/LiteOS/LiteOS_Lab/drivers/third_party/ST/STM32L4xx_HAL_Driver/Src\stm32l4xx_hal_rcc.c ****   /* Clear all interrupt flags */
 378:E:/LiteOS/LiteOS_Lab/drivers/third_party/ST/STM32L4xx_HAL_Driver/Src\stm32l4xx_hal_rcc.c ****   WRITE_REG(RCC->CICR, 0xFFFFFFFFU);
 184              		.loc 1 378 0
 185 00fa 084B     		ldr	r3, .L10
 186 00fc 4FF0FF32 		mov	r2, #-1
 187 0100 1A62     		str	r2, [r3, #32]
 379:E:/LiteOS/LiteOS_Lab/drivers/third_party/ST/STM32L4xx_HAL_Driver/Src\stm32l4xx_hal_rcc.c **** 
 380:E:/LiteOS/LiteOS_Lab/drivers/third_party/ST/STM32L4xx_HAL_Driver/Src\stm32l4xx_hal_rcc.c ****   /* Clear all reset flags */
 381:E:/LiteOS/LiteOS_Lab/drivers/third_party/ST/STM32L4xx_HAL_Driver/Src\stm32l4xx_hal_rcc.c ****   SET_BIT(RCC->CSR, RCC_CSR_RMVF);
ARM GAS  C:\Users\user\AppData\Local\Temp\ccmqW6jC.s 			page 11


 188              		.loc 1 381 0
 189 0102 064B     		ldr	r3, .L10
 190 0104 D3F89430 		ldr	r3, [r3, #148]
 191 0108 044A     		ldr	r2, .L10
 192 010a 43F40003 		orr	r3, r3, #8388608
 193 010e C2F89430 		str	r3, [r2, #148]
 382:E:/LiteOS/LiteOS_Lab/drivers/third_party/ST/STM32L4xx_HAL_Driver/Src\stm32l4xx_hal_rcc.c **** 
 383:E:/LiteOS/LiteOS_Lab/drivers/third_party/ST/STM32L4xx_HAL_Driver/Src\stm32l4xx_hal_rcc.c ****   return HAL_OK;
 194              		.loc 1 383 0
 195 0112 0023     		movs	r3, #0
 196              	.L3:
 384:E:/LiteOS/LiteOS_Lab/drivers/third_party/ST/STM32L4xx_HAL_Driver/Src\stm32l4xx_hal_rcc.c **** }
 197              		.loc 1 384 0
 198 0114 1846     		mov	r0, r3
 199 0116 0837     		adds	r7, r7, #8
 200              	.LCFI3:
 201              		.cfi_def_cfa_offset 8
 202 0118 BD46     		mov	sp, r7
 203              	.LCFI4:
 204              		.cfi_def_cfa_register 13
 205              		@ sp needed
 206 011a 80BD     		pop	{r7, pc}
 207              	.L11:
 208              		.align	2
 209              	.L10:
 210 011c 00100240 		.word	1073876992
 211 0120 00000000 		.word	SystemCoreClock
 212 0124 00093D00 		.word	4000000
 213 0128 FFF4FEFA 		.word	-83954433
 214              		.cfi_endproc
 215              	.LFE133:
 217              		.section	.text.HAL_RCC_OscConfig,"ax",%progbits
 218              		.align	1
 219              		.global	HAL_RCC_OscConfig
 220              		.syntax unified
 221              		.thumb
 222              		.thumb_func
 223              		.fpu fpv4-sp-d16
 225              	HAL_RCC_OscConfig:
 226              	.LFB134:
 385:E:/LiteOS/LiteOS_Lab/drivers/third_party/ST/STM32L4xx_HAL_Driver/Src\stm32l4xx_hal_rcc.c **** 
 386:E:/LiteOS/LiteOS_Lab/drivers/third_party/ST/STM32L4xx_HAL_Driver/Src\stm32l4xx_hal_rcc.c **** /**
 387:E:/LiteOS/LiteOS_Lab/drivers/third_party/ST/STM32L4xx_HAL_Driver/Src\stm32l4xx_hal_rcc.c ****   * @brief  Initialize the RCC Oscillators according to the specified parameters in the
 388:E:/LiteOS/LiteOS_Lab/drivers/third_party/ST/STM32L4xx_HAL_Driver/Src\stm32l4xx_hal_rcc.c ****   *         RCC_OscInitTypeDef.
 389:E:/LiteOS/LiteOS_Lab/drivers/third_party/ST/STM32L4xx_HAL_Driver/Src\stm32l4xx_hal_rcc.c ****   * @param  RCC_OscInitStruct  pointer to an RCC_OscInitTypeDef structure that
 390:E:/LiteOS/LiteOS_Lab/drivers/third_party/ST/STM32L4xx_HAL_Driver/Src\stm32l4xx_hal_rcc.c ****   *         contains the configuration information for the RCC Oscillators.
 391:E:/LiteOS/LiteOS_Lab/drivers/third_party/ST/STM32L4xx_HAL_Driver/Src\stm32l4xx_hal_rcc.c ****   * @note   The PLL is not disabled when used as system clock.
 392:E:/LiteOS/LiteOS_Lab/drivers/third_party/ST/STM32L4xx_HAL_Driver/Src\stm32l4xx_hal_rcc.c ****   * @note   Transitions LSE Bypass to LSE On and LSE On to LSE Bypass are not
 393:E:/LiteOS/LiteOS_Lab/drivers/third_party/ST/STM32L4xx_HAL_Driver/Src\stm32l4xx_hal_rcc.c ****   *         supported by this macro. User should request a transition to LSE Off
 394:E:/LiteOS/LiteOS_Lab/drivers/third_party/ST/STM32L4xx_HAL_Driver/Src\stm32l4xx_hal_rcc.c ****   *         first and then LSE On or LSE Bypass.
 395:E:/LiteOS/LiteOS_Lab/drivers/third_party/ST/STM32L4xx_HAL_Driver/Src\stm32l4xx_hal_rcc.c ****   * @note   Transition HSE Bypass to HSE On and HSE On to HSE Bypass are not
 396:E:/LiteOS/LiteOS_Lab/drivers/third_party/ST/STM32L4xx_HAL_Driver/Src\stm32l4xx_hal_rcc.c ****   *         supported by this macro. User should request a transition to HSE Off
 397:E:/LiteOS/LiteOS_Lab/drivers/third_party/ST/STM32L4xx_HAL_Driver/Src\stm32l4xx_hal_rcc.c ****   *         first and then HSE On or HSE Bypass.
 398:E:/LiteOS/LiteOS_Lab/drivers/third_party/ST/STM32L4xx_HAL_Driver/Src\stm32l4xx_hal_rcc.c ****   * @retval HAL status
 399:E:/LiteOS/LiteOS_Lab/drivers/third_party/ST/STM32L4xx_HAL_Driver/Src\stm32l4xx_hal_rcc.c ****   */
 400:E:/LiteOS/LiteOS_Lab/drivers/third_party/ST/STM32L4xx_HAL_Driver/Src\stm32l4xx_hal_rcc.c **** HAL_StatusTypeDef HAL_RCC_OscConfig(RCC_OscInitTypeDef  *RCC_OscInitStruct)
 401:E:/LiteOS/LiteOS_Lab/drivers/third_party/ST/STM32L4xx_HAL_Driver/Src\stm32l4xx_hal_rcc.c **** {
ARM GAS  C:\Users\user\AppData\Local\Temp\ccmqW6jC.s 			page 12


 227              		.loc 1 401 0
 228              		.cfi_startproc
 229              		@ args = 0, pretend = 0, frame = 24
 230              		@ frame_needed = 1, uses_anonymous_args = 0
 231 0000 80B5     		push	{r7, lr}
 232              	.LCFI5:
 233              		.cfi_def_cfa_offset 8
 234              		.cfi_offset 7, -8
 235              		.cfi_offset 14, -4
 236 0002 86B0     		sub	sp, sp, #24
 237              	.LCFI6:
 238              		.cfi_def_cfa_offset 32
 239 0004 00AF     		add	r7, sp, #0
 240              	.LCFI7:
 241              		.cfi_def_cfa_register 7
 242 0006 7860     		str	r0, [r7, #4]
 402:E:/LiteOS/LiteOS_Lab/drivers/third_party/ST/STM32L4xx_HAL_Driver/Src\stm32l4xx_hal_rcc.c ****   uint32_t tickstart = 0;
 243              		.loc 1 402 0
 244 0008 0023     		movs	r3, #0
 245 000a 3B61     		str	r3, [r7, #16]
 403:E:/LiteOS/LiteOS_Lab/drivers/third_party/ST/STM32L4xx_HAL_Driver/Src\stm32l4xx_hal_rcc.c **** 
 404:E:/LiteOS/LiteOS_Lab/drivers/third_party/ST/STM32L4xx_HAL_Driver/Src\stm32l4xx_hal_rcc.c ****   /* Check the parameters */
 405:E:/LiteOS/LiteOS_Lab/drivers/third_party/ST/STM32L4xx_HAL_Driver/Src\stm32l4xx_hal_rcc.c ****   assert_param(RCC_OscInitStruct != NULL);
 406:E:/LiteOS/LiteOS_Lab/drivers/third_party/ST/STM32L4xx_HAL_Driver/Src\stm32l4xx_hal_rcc.c ****   assert_param(IS_RCC_OSCILLATORTYPE(RCC_OscInitStruct->OscillatorType));
 407:E:/LiteOS/LiteOS_Lab/drivers/third_party/ST/STM32L4xx_HAL_Driver/Src\stm32l4xx_hal_rcc.c **** 
 408:E:/LiteOS/LiteOS_Lab/drivers/third_party/ST/STM32L4xx_HAL_Driver/Src\stm32l4xx_hal_rcc.c ****   /*----------------------------- MSI Configuration --------------------------*/
 409:E:/LiteOS/LiteOS_Lab/drivers/third_party/ST/STM32L4xx_HAL_Driver/Src\stm32l4xx_hal_rcc.c ****   if(((RCC_OscInitStruct->OscillatorType) & RCC_OSCILLATORTYPE_MSI) == RCC_OSCILLATORTYPE_MSI)
 246              		.loc 1 409 0
 247 000c 7B68     		ldr	r3, [r7, #4]
 248 000e 1B68     		ldr	r3, [r3]
 249 0010 03F01003 		and	r3, r3, #16
 250 0014 002B     		cmp	r3, #0
 251 0016 00F0D080 		beq	.L13
 410:E:/LiteOS/LiteOS_Lab/drivers/third_party/ST/STM32L4xx_HAL_Driver/Src\stm32l4xx_hal_rcc.c ****   {
 411:E:/LiteOS/LiteOS_Lab/drivers/third_party/ST/STM32L4xx_HAL_Driver/Src\stm32l4xx_hal_rcc.c ****     /* Check the parameters */
 412:E:/LiteOS/LiteOS_Lab/drivers/third_party/ST/STM32L4xx_HAL_Driver/Src\stm32l4xx_hal_rcc.c ****     assert_param(IS_RCC_MSI(RCC_OscInitStruct->MSIState));
 413:E:/LiteOS/LiteOS_Lab/drivers/third_party/ST/STM32L4xx_HAL_Driver/Src\stm32l4xx_hal_rcc.c ****     assert_param(IS_RCC_MSICALIBRATION_VALUE(RCC_OscInitStruct->MSICalibrationValue));
 414:E:/LiteOS/LiteOS_Lab/drivers/third_party/ST/STM32L4xx_HAL_Driver/Src\stm32l4xx_hal_rcc.c ****     assert_param(IS_RCC_MSI_CLOCK_RANGE(RCC_OscInitStruct->MSIClockRange));
 415:E:/LiteOS/LiteOS_Lab/drivers/third_party/ST/STM32L4xx_HAL_Driver/Src\stm32l4xx_hal_rcc.c **** 
 416:E:/LiteOS/LiteOS_Lab/drivers/third_party/ST/STM32L4xx_HAL_Driver/Src\stm32l4xx_hal_rcc.c ****     /* When the MSI is used as system clock it will not be disabled */
 417:E:/LiteOS/LiteOS_Lab/drivers/third_party/ST/STM32L4xx_HAL_Driver/Src\stm32l4xx_hal_rcc.c ****     if((__HAL_RCC_GET_SYSCLK_SOURCE() == RCC_CFGR_SWS_MSI) )
 252              		.loc 1 417 0
 253 001a A14B     		ldr	r3, .L85
 254 001c 9B68     		ldr	r3, [r3, #8]
 255 001e 03F00C03 		and	r3, r3, #12
 256 0022 002B     		cmp	r3, #0
 257 0024 79D1     		bne	.L14
 418:E:/LiteOS/LiteOS_Lab/drivers/third_party/ST/STM32L4xx_HAL_Driver/Src\stm32l4xx_hal_rcc.c ****     {
 419:E:/LiteOS/LiteOS_Lab/drivers/third_party/ST/STM32L4xx_HAL_Driver/Src\stm32l4xx_hal_rcc.c ****       if((READ_BIT(RCC->CR, RCC_CR_MSIRDY) != RESET) && (RCC_OscInitStruct->MSIState == RCC_MSI_OFF
 258              		.loc 1 419 0
 259 0026 9E4B     		ldr	r3, .L85
 260 0028 1B68     		ldr	r3, [r3]
 261 002a 03F00203 		and	r3, r3, #2
 262 002e 002B     		cmp	r3, #0
 263 0030 05D0     		beq	.L15
 264              		.loc 1 419 0 is_stmt 0 discriminator 1
 265 0032 7B68     		ldr	r3, [r7, #4]
ARM GAS  C:\Users\user\AppData\Local\Temp\ccmqW6jC.s 			page 13


 266 0034 9B69     		ldr	r3, [r3, #24]
 267 0036 002B     		cmp	r3, #0
 268 0038 01D1     		bne	.L15
 420:E:/LiteOS/LiteOS_Lab/drivers/third_party/ST/STM32L4xx_HAL_Driver/Src\stm32l4xx_hal_rcc.c ****       {
 421:E:/LiteOS/LiteOS_Lab/drivers/third_party/ST/STM32L4xx_HAL_Driver/Src\stm32l4xx_hal_rcc.c ****         return HAL_ERROR;
 269              		.loc 1 421 0 is_stmt 1
 270 003a 0123     		movs	r3, #1
 271 003c 78E3     		b	.L16
 272              	.L15:
 422:E:/LiteOS/LiteOS_Lab/drivers/third_party/ST/STM32L4xx_HAL_Driver/Src\stm32l4xx_hal_rcc.c ****       }
 423:E:/LiteOS/LiteOS_Lab/drivers/third_party/ST/STM32L4xx_HAL_Driver/Src\stm32l4xx_hal_rcc.c **** 
 424:E:/LiteOS/LiteOS_Lab/drivers/third_party/ST/STM32L4xx_HAL_Driver/Src\stm32l4xx_hal_rcc.c ****        /* Otherwise, just the calibration and MSI range change are allowed */
 425:E:/LiteOS/LiteOS_Lab/drivers/third_party/ST/STM32L4xx_HAL_Driver/Src\stm32l4xx_hal_rcc.c ****       else
 426:E:/LiteOS/LiteOS_Lab/drivers/third_party/ST/STM32L4xx_HAL_Driver/Src\stm32l4xx_hal_rcc.c ****       {
 427:E:/LiteOS/LiteOS_Lab/drivers/third_party/ST/STM32L4xx_HAL_Driver/Src\stm32l4xx_hal_rcc.c ****         /* To correctly read data from FLASH memory, the number of wait states (LATENCY)
 428:E:/LiteOS/LiteOS_Lab/drivers/third_party/ST/STM32L4xx_HAL_Driver/Src\stm32l4xx_hal_rcc.c ****            must be correctly programmed according to the frequency of the CPU clock
 429:E:/LiteOS/LiteOS_Lab/drivers/third_party/ST/STM32L4xx_HAL_Driver/Src\stm32l4xx_hal_rcc.c ****            (HCLK) and the supply voltage of the device. */
 430:E:/LiteOS/LiteOS_Lab/drivers/third_party/ST/STM32L4xx_HAL_Driver/Src\stm32l4xx_hal_rcc.c ****         if(RCC_OscInitStruct->MSIClockRange > __HAL_RCC_GET_MSI_RANGE())
 273              		.loc 1 430 0
 274 003e 7B68     		ldr	r3, [r7, #4]
 275 0040 1A6A     		ldr	r2, [r3, #32]
 276 0042 974B     		ldr	r3, .L85
 277 0044 1B68     		ldr	r3, [r3]
 278 0046 03F00803 		and	r3, r3, #8
 279 004a 002B     		cmp	r3, #0
 280 004c 04D0     		beq	.L17
 281              		.loc 1 430 0 is_stmt 0 discriminator 1
 282 004e 944B     		ldr	r3, .L85
 283 0050 1B68     		ldr	r3, [r3]
 284 0052 03F0F003 		and	r3, r3, #240
 285 0056 05E0     		b	.L18
 286              	.L17:
 287              		.loc 1 430 0 discriminator 2
 288 0058 914B     		ldr	r3, .L85
 289 005a D3F89430 		ldr	r3, [r3, #148]
 290 005e 1B09     		lsrs	r3, r3, #4
 291 0060 03F0F003 		and	r3, r3, #240
 292              	.L18:
 293              		.loc 1 430 0 discriminator 4
 294 0064 9342     		cmp	r3, r2
 295 0066 23D2     		bcs	.L19
 431:E:/LiteOS/LiteOS_Lab/drivers/third_party/ST/STM32L4xx_HAL_Driver/Src\stm32l4xx_hal_rcc.c ****         {
 432:E:/LiteOS/LiteOS_Lab/drivers/third_party/ST/STM32L4xx_HAL_Driver/Src\stm32l4xx_hal_rcc.c ****           /* First increase number of wait states update if necessary */
 433:E:/LiteOS/LiteOS_Lab/drivers/third_party/ST/STM32L4xx_HAL_Driver/Src\stm32l4xx_hal_rcc.c ****           if(RCC_SetFlashLatencyFromMSIRange(RCC_OscInitStruct->MSIClockRange) != HAL_OK)
 296              		.loc 1 433 0 is_stmt 1
 297 0068 7B68     		ldr	r3, [r7, #4]
 298 006a 1B6A     		ldr	r3, [r3, #32]
 299 006c 1846     		mov	r0, r3
 300 006e FFF7FEFF 		bl	RCC_SetFlashLatencyFromMSIRange
 301 0072 0346     		mov	r3, r0
 302 0074 002B     		cmp	r3, #0
 303 0076 01D0     		beq	.L20
 434:E:/LiteOS/LiteOS_Lab/drivers/third_party/ST/STM32L4xx_HAL_Driver/Src\stm32l4xx_hal_rcc.c ****           {
 435:E:/LiteOS/LiteOS_Lab/drivers/third_party/ST/STM32L4xx_HAL_Driver/Src\stm32l4xx_hal_rcc.c ****             return HAL_ERROR;
 304              		.loc 1 435 0
 305 0078 0123     		movs	r3, #1
 306 007a 59E3     		b	.L16
ARM GAS  C:\Users\user\AppData\Local\Temp\ccmqW6jC.s 			page 14


 307              	.L20:
 436:E:/LiteOS/LiteOS_Lab/drivers/third_party/ST/STM32L4xx_HAL_Driver/Src\stm32l4xx_hal_rcc.c ****           }
 437:E:/LiteOS/LiteOS_Lab/drivers/third_party/ST/STM32L4xx_HAL_Driver/Src\stm32l4xx_hal_rcc.c **** 
 438:E:/LiteOS/LiteOS_Lab/drivers/third_party/ST/STM32L4xx_HAL_Driver/Src\stm32l4xx_hal_rcc.c ****           /* Selects the Multiple Speed oscillator (MSI) clock range .*/
 439:E:/LiteOS/LiteOS_Lab/drivers/third_party/ST/STM32L4xx_HAL_Driver/Src\stm32l4xx_hal_rcc.c ****           __HAL_RCC_MSI_RANGE_CONFIG(RCC_OscInitStruct->MSIClockRange);
 308              		.loc 1 439 0
 309 007c 884B     		ldr	r3, .L85
 310 007e 1B68     		ldr	r3, [r3]
 311 0080 874A     		ldr	r2, .L85
 312 0082 43F00803 		orr	r3, r3, #8
 313 0086 1360     		str	r3, [r2]
 314 0088 854B     		ldr	r3, .L85
 315 008a 1B68     		ldr	r3, [r3]
 316 008c 23F0F002 		bic	r2, r3, #240
 317 0090 7B68     		ldr	r3, [r7, #4]
 318 0092 1B6A     		ldr	r3, [r3, #32]
 319 0094 8249     		ldr	r1, .L85
 320 0096 1343     		orrs	r3, r3, r2
 321 0098 0B60     		str	r3, [r1]
 440:E:/LiteOS/LiteOS_Lab/drivers/third_party/ST/STM32L4xx_HAL_Driver/Src\stm32l4xx_hal_rcc.c ****           /* Adjusts the Multiple Speed oscillator (MSI) calibration value.*/
 441:E:/LiteOS/LiteOS_Lab/drivers/third_party/ST/STM32L4xx_HAL_Driver/Src\stm32l4xx_hal_rcc.c ****           __HAL_RCC_MSI_CALIBRATIONVALUE_ADJUST(RCC_OscInitStruct->MSICalibrationValue);
 322              		.loc 1 441 0
 323 009a 814B     		ldr	r3, .L85
 324 009c 5B68     		ldr	r3, [r3, #4]
 325 009e 23F47F42 		bic	r2, r3, #65280
 326 00a2 7B68     		ldr	r3, [r7, #4]
 327 00a4 DB69     		ldr	r3, [r3, #28]
 328 00a6 1B02     		lsls	r3, r3, #8
 329 00a8 7D49     		ldr	r1, .L85
 330 00aa 1343     		orrs	r3, r3, r2
 331 00ac 4B60     		str	r3, [r1, #4]
 332 00ae 22E0     		b	.L21
 333              	.L19:
 442:E:/LiteOS/LiteOS_Lab/drivers/third_party/ST/STM32L4xx_HAL_Driver/Src\stm32l4xx_hal_rcc.c ****         }
 443:E:/LiteOS/LiteOS_Lab/drivers/third_party/ST/STM32L4xx_HAL_Driver/Src\stm32l4xx_hal_rcc.c ****         else
 444:E:/LiteOS/LiteOS_Lab/drivers/third_party/ST/STM32L4xx_HAL_Driver/Src\stm32l4xx_hal_rcc.c ****         {
 445:E:/LiteOS/LiteOS_Lab/drivers/third_party/ST/STM32L4xx_HAL_Driver/Src\stm32l4xx_hal_rcc.c ****           /* Else, keep current flash latency while decreasing applies */
 446:E:/LiteOS/LiteOS_Lab/drivers/third_party/ST/STM32L4xx_HAL_Driver/Src\stm32l4xx_hal_rcc.c ****           /* Selects the Multiple Speed oscillator (MSI) clock range .*/
 447:E:/LiteOS/LiteOS_Lab/drivers/third_party/ST/STM32L4xx_HAL_Driver/Src\stm32l4xx_hal_rcc.c ****           __HAL_RCC_MSI_RANGE_CONFIG(RCC_OscInitStruct->MSIClockRange);
 334              		.loc 1 447 0
 335 00b0 7B4B     		ldr	r3, .L85
 336 00b2 1B68     		ldr	r3, [r3]
 337 00b4 7A4A     		ldr	r2, .L85
 338 00b6 43F00803 		orr	r3, r3, #8
 339 00ba 1360     		str	r3, [r2]
 340 00bc 784B     		ldr	r3, .L85
 341 00be 1B68     		ldr	r3, [r3]
 342 00c0 23F0F002 		bic	r2, r3, #240
 343 00c4 7B68     		ldr	r3, [r7, #4]
 344 00c6 1B6A     		ldr	r3, [r3, #32]
 345 00c8 7549     		ldr	r1, .L85
 346 00ca 1343     		orrs	r3, r3, r2
 347 00cc 0B60     		str	r3, [r1]
 448:E:/LiteOS/LiteOS_Lab/drivers/third_party/ST/STM32L4xx_HAL_Driver/Src\stm32l4xx_hal_rcc.c ****           /* Adjusts the Multiple Speed oscillator (MSI) calibration value.*/
 449:E:/LiteOS/LiteOS_Lab/drivers/third_party/ST/STM32L4xx_HAL_Driver/Src\stm32l4xx_hal_rcc.c ****           __HAL_RCC_MSI_CALIBRATIONVALUE_ADJUST(RCC_OscInitStruct->MSICalibrationValue);
 348              		.loc 1 449 0
 349 00ce 744B     		ldr	r3, .L85
ARM GAS  C:\Users\user\AppData\Local\Temp\ccmqW6jC.s 			page 15


 350 00d0 5B68     		ldr	r3, [r3, #4]
 351 00d2 23F47F42 		bic	r2, r3, #65280
 352 00d6 7B68     		ldr	r3, [r7, #4]
 353 00d8 DB69     		ldr	r3, [r3, #28]
 354 00da 1B02     		lsls	r3, r3, #8
 355 00dc 7049     		ldr	r1, .L85
 356 00de 1343     		orrs	r3, r3, r2
 357 00e0 4B60     		str	r3, [r1, #4]
 450:E:/LiteOS/LiteOS_Lab/drivers/third_party/ST/STM32L4xx_HAL_Driver/Src\stm32l4xx_hal_rcc.c **** 
 451:E:/LiteOS/LiteOS_Lab/drivers/third_party/ST/STM32L4xx_HAL_Driver/Src\stm32l4xx_hal_rcc.c ****           /* Decrease number of wait states update if necessary */
 452:E:/LiteOS/LiteOS_Lab/drivers/third_party/ST/STM32L4xx_HAL_Driver/Src\stm32l4xx_hal_rcc.c ****           if(RCC_SetFlashLatencyFromMSIRange(RCC_OscInitStruct->MSIClockRange) != HAL_OK)
 358              		.loc 1 452 0
 359 00e2 7B68     		ldr	r3, [r7, #4]
 360 00e4 1B6A     		ldr	r3, [r3, #32]
 361 00e6 1846     		mov	r0, r3
 362 00e8 FFF7FEFF 		bl	RCC_SetFlashLatencyFromMSIRange
 363 00ec 0346     		mov	r3, r0
 364 00ee 002B     		cmp	r3, #0
 365 00f0 01D0     		beq	.L21
 453:E:/LiteOS/LiteOS_Lab/drivers/third_party/ST/STM32L4xx_HAL_Driver/Src\stm32l4xx_hal_rcc.c ****           {
 454:E:/LiteOS/LiteOS_Lab/drivers/third_party/ST/STM32L4xx_HAL_Driver/Src\stm32l4xx_hal_rcc.c ****             return HAL_ERROR;
 366              		.loc 1 454 0
 367 00f2 0123     		movs	r3, #1
 368 00f4 1CE3     		b	.L16
 369              	.L21:
 455:E:/LiteOS/LiteOS_Lab/drivers/third_party/ST/STM32L4xx_HAL_Driver/Src\stm32l4xx_hal_rcc.c ****           }
 456:E:/LiteOS/LiteOS_Lab/drivers/third_party/ST/STM32L4xx_HAL_Driver/Src\stm32l4xx_hal_rcc.c ****         }
 457:E:/LiteOS/LiteOS_Lab/drivers/third_party/ST/STM32L4xx_HAL_Driver/Src\stm32l4xx_hal_rcc.c **** 
 458:E:/LiteOS/LiteOS_Lab/drivers/third_party/ST/STM32L4xx_HAL_Driver/Src\stm32l4xx_hal_rcc.c ****         /* Update the SystemCoreClock global variable */
 459:E:/LiteOS/LiteOS_Lab/drivers/third_party/ST/STM32L4xx_HAL_Driver/Src\stm32l4xx_hal_rcc.c ****         SystemCoreClock = HAL_RCC_GetSysClockFreq() >> AHBPrescTable[READ_BIT(RCC->CFGR, RCC_CFGR_H
 370              		.loc 1 459 0
 371 00f6 FFF7FEFF 		bl	HAL_RCC_GetSysClockFreq
 372 00fa 0146     		mov	r1, r0
 373 00fc 684B     		ldr	r3, .L85
 374 00fe 9B68     		ldr	r3, [r3, #8]
 375 0100 1B09     		lsrs	r3, r3, #4
 376 0102 03F00F03 		and	r3, r3, #15
 377 0106 674A     		ldr	r2, .L85+4
 378 0108 D35C     		ldrb	r3, [r2, r3]	@ zero_extendqisi2
 379 010a 21FA03F3 		lsr	r3, r1, r3
 380 010e 664A     		ldr	r2, .L85+8
 381 0110 1360     		str	r3, [r2]
 460:E:/LiteOS/LiteOS_Lab/drivers/third_party/ST/STM32L4xx_HAL_Driver/Src\stm32l4xx_hal_rcc.c **** 
 461:E:/LiteOS/LiteOS_Lab/drivers/third_party/ST/STM32L4xx_HAL_Driver/Src\stm32l4xx_hal_rcc.c ****         /* Configure the source of time base considering new system clocks settings*/
 462:E:/LiteOS/LiteOS_Lab/drivers/third_party/ST/STM32L4xx_HAL_Driver/Src\stm32l4xx_hal_rcc.c ****         HAL_InitTick (TICK_INT_PRIORITY);
 382              		.loc 1 462 0
 383 0112 0020     		movs	r0, #0
 384 0114 FFF7FEFF 		bl	HAL_InitTick
 385 0118 4FE0     		b	.L13
 386              	.L14:
 463:E:/LiteOS/LiteOS_Lab/drivers/third_party/ST/STM32L4xx_HAL_Driver/Src\stm32l4xx_hal_rcc.c ****       }
 464:E:/LiteOS/LiteOS_Lab/drivers/third_party/ST/STM32L4xx_HAL_Driver/Src\stm32l4xx_hal_rcc.c ****     }
 465:E:/LiteOS/LiteOS_Lab/drivers/third_party/ST/STM32L4xx_HAL_Driver/Src\stm32l4xx_hal_rcc.c ****     else
 466:E:/LiteOS/LiteOS_Lab/drivers/third_party/ST/STM32L4xx_HAL_Driver/Src\stm32l4xx_hal_rcc.c ****     {
 467:E:/LiteOS/LiteOS_Lab/drivers/third_party/ST/STM32L4xx_HAL_Driver/Src\stm32l4xx_hal_rcc.c ****       /* Check the MSI State */
 468:E:/LiteOS/LiteOS_Lab/drivers/third_party/ST/STM32L4xx_HAL_Driver/Src\stm32l4xx_hal_rcc.c ****       if(RCC_OscInitStruct->MSIState != RCC_MSI_OFF)
 387              		.loc 1 468 0
ARM GAS  C:\Users\user\AppData\Local\Temp\ccmqW6jC.s 			page 16


 388 011a 7B68     		ldr	r3, [r7, #4]
 389 011c 9B69     		ldr	r3, [r3, #24]
 390 011e 002B     		cmp	r3, #0
 391 0120 32D0     		beq	.L22
 469:E:/LiteOS/LiteOS_Lab/drivers/third_party/ST/STM32L4xx_HAL_Driver/Src\stm32l4xx_hal_rcc.c ****       {
 470:E:/LiteOS/LiteOS_Lab/drivers/third_party/ST/STM32L4xx_HAL_Driver/Src\stm32l4xx_hal_rcc.c ****         /* Enable the Internal High Speed oscillator (MSI). */
 471:E:/LiteOS/LiteOS_Lab/drivers/third_party/ST/STM32L4xx_HAL_Driver/Src\stm32l4xx_hal_rcc.c ****         __HAL_RCC_MSI_ENABLE();
 392              		.loc 1 471 0
 393 0122 5F4B     		ldr	r3, .L85
 394 0124 1B68     		ldr	r3, [r3]
 395 0126 5E4A     		ldr	r2, .L85
 396 0128 43F00103 		orr	r3, r3, #1
 397 012c 1360     		str	r3, [r2]
 472:E:/LiteOS/LiteOS_Lab/drivers/third_party/ST/STM32L4xx_HAL_Driver/Src\stm32l4xx_hal_rcc.c **** 
 473:E:/LiteOS/LiteOS_Lab/drivers/third_party/ST/STM32L4xx_HAL_Driver/Src\stm32l4xx_hal_rcc.c ****         /* Get timeout */
 474:E:/LiteOS/LiteOS_Lab/drivers/third_party/ST/STM32L4xx_HAL_Driver/Src\stm32l4xx_hal_rcc.c ****         tickstart = HAL_GetTick();
 398              		.loc 1 474 0
 399 012e FFF7FEFF 		bl	HAL_GetTick
 400 0132 3861     		str	r0, [r7, #16]
 475:E:/LiteOS/LiteOS_Lab/drivers/third_party/ST/STM32L4xx_HAL_Driver/Src\stm32l4xx_hal_rcc.c **** 
 476:E:/LiteOS/LiteOS_Lab/drivers/third_party/ST/STM32L4xx_HAL_Driver/Src\stm32l4xx_hal_rcc.c ****         /* Wait till MSI is ready */
 477:E:/LiteOS/LiteOS_Lab/drivers/third_party/ST/STM32L4xx_HAL_Driver/Src\stm32l4xx_hal_rcc.c ****         while(READ_BIT(RCC->CR, RCC_CR_MSIRDY) == RESET)
 401              		.loc 1 477 0
 402 0134 08E0     		b	.L23
 403              	.L24:
 478:E:/LiteOS/LiteOS_Lab/drivers/third_party/ST/STM32L4xx_HAL_Driver/Src\stm32l4xx_hal_rcc.c ****         {
 479:E:/LiteOS/LiteOS_Lab/drivers/third_party/ST/STM32L4xx_HAL_Driver/Src\stm32l4xx_hal_rcc.c ****           if((HAL_GetTick() - tickstart) > MSI_TIMEOUT_VALUE)
 404              		.loc 1 479 0
 405 0136 FFF7FEFF 		bl	HAL_GetTick
 406 013a 0246     		mov	r2, r0
 407 013c 3B69     		ldr	r3, [r7, #16]
 408 013e D31A     		subs	r3, r2, r3
 409 0140 022B     		cmp	r3, #2
 410 0142 01D9     		bls	.L23
 480:E:/LiteOS/LiteOS_Lab/drivers/third_party/ST/STM32L4xx_HAL_Driver/Src\stm32l4xx_hal_rcc.c ****           {
 481:E:/LiteOS/LiteOS_Lab/drivers/third_party/ST/STM32L4xx_HAL_Driver/Src\stm32l4xx_hal_rcc.c ****             return HAL_TIMEOUT;
 411              		.loc 1 481 0
 412 0144 0323     		movs	r3, #3
 413 0146 F3E2     		b	.L16
 414              	.L23:
 477:E:/LiteOS/LiteOS_Lab/drivers/third_party/ST/STM32L4xx_HAL_Driver/Src\stm32l4xx_hal_rcc.c ****         {
 415              		.loc 1 477 0
 416 0148 554B     		ldr	r3, .L85
 417 014a 1B68     		ldr	r3, [r3]
 418 014c 03F00203 		and	r3, r3, #2
 419 0150 002B     		cmp	r3, #0
 420 0152 F0D0     		beq	.L24
 482:E:/LiteOS/LiteOS_Lab/drivers/third_party/ST/STM32L4xx_HAL_Driver/Src\stm32l4xx_hal_rcc.c ****           }
 483:E:/LiteOS/LiteOS_Lab/drivers/third_party/ST/STM32L4xx_HAL_Driver/Src\stm32l4xx_hal_rcc.c ****         }
 484:E:/LiteOS/LiteOS_Lab/drivers/third_party/ST/STM32L4xx_HAL_Driver/Src\stm32l4xx_hal_rcc.c ****          /* Selects the Multiple Speed oscillator (MSI) clock range .*/
 485:E:/LiteOS/LiteOS_Lab/drivers/third_party/ST/STM32L4xx_HAL_Driver/Src\stm32l4xx_hal_rcc.c ****         __HAL_RCC_MSI_RANGE_CONFIG(RCC_OscInitStruct->MSIClockRange);
 421              		.loc 1 485 0
 422 0154 524B     		ldr	r3, .L85
 423 0156 1B68     		ldr	r3, [r3]
 424 0158 514A     		ldr	r2, .L85
 425 015a 43F00803 		orr	r3, r3, #8
 426 015e 1360     		str	r3, [r2]
ARM GAS  C:\Users\user\AppData\Local\Temp\ccmqW6jC.s 			page 17


 427 0160 4F4B     		ldr	r3, .L85
 428 0162 1B68     		ldr	r3, [r3]
 429 0164 23F0F002 		bic	r2, r3, #240
 430 0168 7B68     		ldr	r3, [r7, #4]
 431 016a 1B6A     		ldr	r3, [r3, #32]
 432 016c 4C49     		ldr	r1, .L85
 433 016e 1343     		orrs	r3, r3, r2
 434 0170 0B60     		str	r3, [r1]
 486:E:/LiteOS/LiteOS_Lab/drivers/third_party/ST/STM32L4xx_HAL_Driver/Src\stm32l4xx_hal_rcc.c ****          /* Adjusts the Multiple Speed oscillator (MSI) calibration value.*/
 487:E:/LiteOS/LiteOS_Lab/drivers/third_party/ST/STM32L4xx_HAL_Driver/Src\stm32l4xx_hal_rcc.c ****         __HAL_RCC_MSI_CALIBRATIONVALUE_ADJUST(RCC_OscInitStruct->MSICalibrationValue);
 435              		.loc 1 487 0
 436 0172 4B4B     		ldr	r3, .L85
 437 0174 5B68     		ldr	r3, [r3, #4]
 438 0176 23F47F42 		bic	r2, r3, #65280
 439 017a 7B68     		ldr	r3, [r7, #4]
 440 017c DB69     		ldr	r3, [r3, #28]
 441 017e 1B02     		lsls	r3, r3, #8
 442 0180 4749     		ldr	r1, .L85
 443 0182 1343     		orrs	r3, r3, r2
 444 0184 4B60     		str	r3, [r1, #4]
 445 0186 18E0     		b	.L13
 446              	.L22:
 488:E:/LiteOS/LiteOS_Lab/drivers/third_party/ST/STM32L4xx_HAL_Driver/Src\stm32l4xx_hal_rcc.c **** 
 489:E:/LiteOS/LiteOS_Lab/drivers/third_party/ST/STM32L4xx_HAL_Driver/Src\stm32l4xx_hal_rcc.c ****       }
 490:E:/LiteOS/LiteOS_Lab/drivers/third_party/ST/STM32L4xx_HAL_Driver/Src\stm32l4xx_hal_rcc.c ****       else
 491:E:/LiteOS/LiteOS_Lab/drivers/third_party/ST/STM32L4xx_HAL_Driver/Src\stm32l4xx_hal_rcc.c ****       {
 492:E:/LiteOS/LiteOS_Lab/drivers/third_party/ST/STM32L4xx_HAL_Driver/Src\stm32l4xx_hal_rcc.c ****         /* Disable the Internal High Speed oscillator (MSI). */
 493:E:/LiteOS/LiteOS_Lab/drivers/third_party/ST/STM32L4xx_HAL_Driver/Src\stm32l4xx_hal_rcc.c ****         __HAL_RCC_MSI_DISABLE();
 447              		.loc 1 493 0
 448 0188 454B     		ldr	r3, .L85
 449 018a 1B68     		ldr	r3, [r3]
 450 018c 444A     		ldr	r2, .L85
 451 018e 23F00103 		bic	r3, r3, #1
 452 0192 1360     		str	r3, [r2]
 494:E:/LiteOS/LiteOS_Lab/drivers/third_party/ST/STM32L4xx_HAL_Driver/Src\stm32l4xx_hal_rcc.c **** 
 495:E:/LiteOS/LiteOS_Lab/drivers/third_party/ST/STM32L4xx_HAL_Driver/Src\stm32l4xx_hal_rcc.c ****         /* Get timeout */
 496:E:/LiteOS/LiteOS_Lab/drivers/third_party/ST/STM32L4xx_HAL_Driver/Src\stm32l4xx_hal_rcc.c ****         tickstart = HAL_GetTick();
 453              		.loc 1 496 0
 454 0194 FFF7FEFF 		bl	HAL_GetTick
 455 0198 3861     		str	r0, [r7, #16]
 497:E:/LiteOS/LiteOS_Lab/drivers/third_party/ST/STM32L4xx_HAL_Driver/Src\stm32l4xx_hal_rcc.c **** 
 498:E:/LiteOS/LiteOS_Lab/drivers/third_party/ST/STM32L4xx_HAL_Driver/Src\stm32l4xx_hal_rcc.c ****         /* Wait till MSI is ready */
 499:E:/LiteOS/LiteOS_Lab/drivers/third_party/ST/STM32L4xx_HAL_Driver/Src\stm32l4xx_hal_rcc.c ****         while(READ_BIT(RCC->CR, RCC_CR_MSIRDY) != RESET)
 456              		.loc 1 499 0
 457 019a 08E0     		b	.L25
 458              	.L26:
 500:E:/LiteOS/LiteOS_Lab/drivers/third_party/ST/STM32L4xx_HAL_Driver/Src\stm32l4xx_hal_rcc.c ****         {
 501:E:/LiteOS/LiteOS_Lab/drivers/third_party/ST/STM32L4xx_HAL_Driver/Src\stm32l4xx_hal_rcc.c ****           if((HAL_GetTick() - tickstart) > MSI_TIMEOUT_VALUE)
 459              		.loc 1 501 0
 460 019c FFF7FEFF 		bl	HAL_GetTick
 461 01a0 0246     		mov	r2, r0
 462 01a2 3B69     		ldr	r3, [r7, #16]
 463 01a4 D31A     		subs	r3, r2, r3
 464 01a6 022B     		cmp	r3, #2
 465 01a8 01D9     		bls	.L25
 502:E:/LiteOS/LiteOS_Lab/drivers/third_party/ST/STM32L4xx_HAL_Driver/Src\stm32l4xx_hal_rcc.c ****           {
 503:E:/LiteOS/LiteOS_Lab/drivers/third_party/ST/STM32L4xx_HAL_Driver/Src\stm32l4xx_hal_rcc.c ****             return HAL_TIMEOUT;
ARM GAS  C:\Users\user\AppData\Local\Temp\ccmqW6jC.s 			page 18


 466              		.loc 1 503 0
 467 01aa 0323     		movs	r3, #3
 468 01ac C0E2     		b	.L16
 469              	.L25:
 499:E:/LiteOS/LiteOS_Lab/drivers/third_party/ST/STM32L4xx_HAL_Driver/Src\stm32l4xx_hal_rcc.c ****         {
 470              		.loc 1 499 0
 471 01ae 3C4B     		ldr	r3, .L85
 472 01b0 1B68     		ldr	r3, [r3]
 473 01b2 03F00203 		and	r3, r3, #2
 474 01b6 002B     		cmp	r3, #0
 475 01b8 F0D1     		bne	.L26
 476              	.L13:
 504:E:/LiteOS/LiteOS_Lab/drivers/third_party/ST/STM32L4xx_HAL_Driver/Src\stm32l4xx_hal_rcc.c ****           }
 505:E:/LiteOS/LiteOS_Lab/drivers/third_party/ST/STM32L4xx_HAL_Driver/Src\stm32l4xx_hal_rcc.c ****         }
 506:E:/LiteOS/LiteOS_Lab/drivers/third_party/ST/STM32L4xx_HAL_Driver/Src\stm32l4xx_hal_rcc.c ****       }
 507:E:/LiteOS/LiteOS_Lab/drivers/third_party/ST/STM32L4xx_HAL_Driver/Src\stm32l4xx_hal_rcc.c ****     }
 508:E:/LiteOS/LiteOS_Lab/drivers/third_party/ST/STM32L4xx_HAL_Driver/Src\stm32l4xx_hal_rcc.c ****   }
 509:E:/LiteOS/LiteOS_Lab/drivers/third_party/ST/STM32L4xx_HAL_Driver/Src\stm32l4xx_hal_rcc.c ****   /*------------------------------- HSE Configuration ------------------------*/
 510:E:/LiteOS/LiteOS_Lab/drivers/third_party/ST/STM32L4xx_HAL_Driver/Src\stm32l4xx_hal_rcc.c ****   if(((RCC_OscInitStruct->OscillatorType) & RCC_OSCILLATORTYPE_HSE) == RCC_OSCILLATORTYPE_HSE)
 477              		.loc 1 510 0
 478 01ba 7B68     		ldr	r3, [r7, #4]
 479 01bc 1B68     		ldr	r3, [r3]
 480 01be 03F00103 		and	r3, r3, #1
 481 01c2 002B     		cmp	r3, #0
 482 01c4 7AD0     		beq	.L27
 511:E:/LiteOS/LiteOS_Lab/drivers/third_party/ST/STM32L4xx_HAL_Driver/Src\stm32l4xx_hal_rcc.c ****   {
 512:E:/LiteOS/LiteOS_Lab/drivers/third_party/ST/STM32L4xx_HAL_Driver/Src\stm32l4xx_hal_rcc.c ****     /* Check the parameters */
 513:E:/LiteOS/LiteOS_Lab/drivers/third_party/ST/STM32L4xx_HAL_Driver/Src\stm32l4xx_hal_rcc.c ****     assert_param(IS_RCC_HSE(RCC_OscInitStruct->HSEState));
 514:E:/LiteOS/LiteOS_Lab/drivers/third_party/ST/STM32L4xx_HAL_Driver/Src\stm32l4xx_hal_rcc.c **** 
 515:E:/LiteOS/LiteOS_Lab/drivers/third_party/ST/STM32L4xx_HAL_Driver/Src\stm32l4xx_hal_rcc.c ****     /* When the HSE is used as system clock or clock source for PLL in these cases it is not allowe
 516:E:/LiteOS/LiteOS_Lab/drivers/third_party/ST/STM32L4xx_HAL_Driver/Src\stm32l4xx_hal_rcc.c ****     if((__HAL_RCC_GET_SYSCLK_SOURCE() == RCC_CFGR_SWS_HSE) ||
 483              		.loc 1 516 0
 484 01c6 364B     		ldr	r3, .L85
 485 01c8 9B68     		ldr	r3, [r3, #8]
 486 01ca 03F00C03 		and	r3, r3, #12
 487 01ce 082B     		cmp	r3, #8
 488 01d0 0BD0     		beq	.L28
 517:E:/LiteOS/LiteOS_Lab/drivers/third_party/ST/STM32L4xx_HAL_Driver/Src\stm32l4xx_hal_rcc.c ****        ((__HAL_RCC_GET_SYSCLK_SOURCE() == RCC_CFGR_SWS_PLL) && (__HAL_RCC_GET_PLL_OSCSOURCE() == RC
 489              		.loc 1 517 0 discriminator 1
 490 01d2 334B     		ldr	r3, .L85
 491 01d4 9B68     		ldr	r3, [r3, #8]
 492 01d6 03F00C03 		and	r3, r3, #12
 516:E:/LiteOS/LiteOS_Lab/drivers/third_party/ST/STM32L4xx_HAL_Driver/Src\stm32l4xx_hal_rcc.c ****        ((__HAL_RCC_GET_SYSCLK_SOURCE() == RCC_CFGR_SWS_PLL) && (__HAL_RCC_GET_PLL_OSCSOURCE() == RC
 493              		.loc 1 516 0 discriminator 1
 494 01da 0C2B     		cmp	r3, #12
 495 01dc 11D1     		bne	.L29
 496              		.loc 1 517 0
 497 01de 304B     		ldr	r3, .L85
 498 01e0 DB68     		ldr	r3, [r3, #12]
 499 01e2 03F00303 		and	r3, r3, #3
 500 01e6 032B     		cmp	r3, #3
 501 01e8 0BD1     		bne	.L29
 502              	.L28:
 518:E:/LiteOS/LiteOS_Lab/drivers/third_party/ST/STM32L4xx_HAL_Driver/Src\stm32l4xx_hal_rcc.c ****     {
 519:E:/LiteOS/LiteOS_Lab/drivers/third_party/ST/STM32L4xx_HAL_Driver/Src\stm32l4xx_hal_rcc.c ****       if((READ_BIT(RCC->CR, RCC_CR_HSERDY) != RESET) && (RCC_OscInitStruct->HSEState == RCC_HSE_OFF
 503              		.loc 1 519 0
 504 01ea 2D4B     		ldr	r3, .L85
ARM GAS  C:\Users\user\AppData\Local\Temp\ccmqW6jC.s 			page 19


 505 01ec 1B68     		ldr	r3, [r3]
 506 01ee 03F40033 		and	r3, r3, #131072
 507 01f2 002B     		cmp	r3, #0
 508 01f4 61D0     		beq	.L84
 509              		.loc 1 519 0 is_stmt 0 discriminator 1
 510 01f6 7B68     		ldr	r3, [r7, #4]
 511 01f8 5B68     		ldr	r3, [r3, #4]
 512 01fa 002B     		cmp	r3, #0
 513 01fc 5DD1     		bne	.L84
 520:E:/LiteOS/LiteOS_Lab/drivers/third_party/ST/STM32L4xx_HAL_Driver/Src\stm32l4xx_hal_rcc.c ****       {
 521:E:/LiteOS/LiteOS_Lab/drivers/third_party/ST/STM32L4xx_HAL_Driver/Src\stm32l4xx_hal_rcc.c ****         return HAL_ERROR;
 514              		.loc 1 521 0 is_stmt 1
 515 01fe 0123     		movs	r3, #1
 516 0200 96E2     		b	.L16
 517              	.L29:
 522:E:/LiteOS/LiteOS_Lab/drivers/third_party/ST/STM32L4xx_HAL_Driver/Src\stm32l4xx_hal_rcc.c ****       }
 523:E:/LiteOS/LiteOS_Lab/drivers/third_party/ST/STM32L4xx_HAL_Driver/Src\stm32l4xx_hal_rcc.c ****     }
 524:E:/LiteOS/LiteOS_Lab/drivers/third_party/ST/STM32L4xx_HAL_Driver/Src\stm32l4xx_hal_rcc.c ****     else
 525:E:/LiteOS/LiteOS_Lab/drivers/third_party/ST/STM32L4xx_HAL_Driver/Src\stm32l4xx_hal_rcc.c ****     {
 526:E:/LiteOS/LiteOS_Lab/drivers/third_party/ST/STM32L4xx_HAL_Driver/Src\stm32l4xx_hal_rcc.c ****       /* Set the new HSE configuration ---------------------------------------*/
 527:E:/LiteOS/LiteOS_Lab/drivers/third_party/ST/STM32L4xx_HAL_Driver/Src\stm32l4xx_hal_rcc.c ****       __HAL_RCC_HSE_CONFIG(RCC_OscInitStruct->HSEState);
 518              		.loc 1 527 0
 519 0202 7B68     		ldr	r3, [r7, #4]
 520 0204 5B68     		ldr	r3, [r3, #4]
 521 0206 B3F5803F 		cmp	r3, #65536
 522 020a 06D1     		bne	.L31
 523              		.loc 1 527 0 is_stmt 0 discriminator 1
 524 020c 244B     		ldr	r3, .L85
 525 020e 1B68     		ldr	r3, [r3]
 526 0210 234A     		ldr	r2, .L85
 527 0212 43F48033 		orr	r3, r3, #65536
 528 0216 1360     		str	r3, [r2]
 529 0218 1DE0     		b	.L32
 530              	.L31:
 531              		.loc 1 527 0 discriminator 2
 532 021a 7B68     		ldr	r3, [r7, #4]
 533 021c 5B68     		ldr	r3, [r3, #4]
 534 021e B3F5A02F 		cmp	r3, #327680
 535 0222 0CD1     		bne	.L33
 536              		.loc 1 527 0 discriminator 3
 537 0224 1E4B     		ldr	r3, .L85
 538 0226 1B68     		ldr	r3, [r3]
 539 0228 1D4A     		ldr	r2, .L85
 540 022a 43F48023 		orr	r3, r3, #262144
 541 022e 1360     		str	r3, [r2]
 542 0230 1B4B     		ldr	r3, .L85
 543 0232 1B68     		ldr	r3, [r3]
 544 0234 1A4A     		ldr	r2, .L85
 545 0236 43F48033 		orr	r3, r3, #65536
 546 023a 1360     		str	r3, [r2]
 547 023c 0BE0     		b	.L32
 548              	.L33:
 549              		.loc 1 527 0 discriminator 4
 550 023e 184B     		ldr	r3, .L85
 551 0240 1B68     		ldr	r3, [r3]
 552 0242 174A     		ldr	r2, .L85
 553 0244 23F48033 		bic	r3, r3, #65536
ARM GAS  C:\Users\user\AppData\Local\Temp\ccmqW6jC.s 			page 20


 554 0248 1360     		str	r3, [r2]
 555 024a 154B     		ldr	r3, .L85
 556 024c 1B68     		ldr	r3, [r3]
 557 024e 144A     		ldr	r2, .L85
 558 0250 23F48023 		bic	r3, r3, #262144
 559 0254 1360     		str	r3, [r2]
 560              	.L32:
 528:E:/LiteOS/LiteOS_Lab/drivers/third_party/ST/STM32L4xx_HAL_Driver/Src\stm32l4xx_hal_rcc.c **** 
 529:E:/LiteOS/LiteOS_Lab/drivers/third_party/ST/STM32L4xx_HAL_Driver/Src\stm32l4xx_hal_rcc.c ****       /* Check the HSE State */
 530:E:/LiteOS/LiteOS_Lab/drivers/third_party/ST/STM32L4xx_HAL_Driver/Src\stm32l4xx_hal_rcc.c ****       if(RCC_OscInitStruct->HSEState != RCC_HSE_OFF)
 561              		.loc 1 530 0 is_stmt 1
 562 0256 7B68     		ldr	r3, [r7, #4]
 563 0258 5B68     		ldr	r3, [r3, #4]
 564 025a 002B     		cmp	r3, #0
 565 025c 13D0     		beq	.L34
 531:E:/LiteOS/LiteOS_Lab/drivers/third_party/ST/STM32L4xx_HAL_Driver/Src\stm32l4xx_hal_rcc.c ****       {
 532:E:/LiteOS/LiteOS_Lab/drivers/third_party/ST/STM32L4xx_HAL_Driver/Src\stm32l4xx_hal_rcc.c ****         /* Get Start Tick*/
 533:E:/LiteOS/LiteOS_Lab/drivers/third_party/ST/STM32L4xx_HAL_Driver/Src\stm32l4xx_hal_rcc.c ****         tickstart = HAL_GetTick();
 566              		.loc 1 533 0
 567 025e FFF7FEFF 		bl	HAL_GetTick
 568 0262 3861     		str	r0, [r7, #16]
 534:E:/LiteOS/LiteOS_Lab/drivers/third_party/ST/STM32L4xx_HAL_Driver/Src\stm32l4xx_hal_rcc.c **** 
 535:E:/LiteOS/LiteOS_Lab/drivers/third_party/ST/STM32L4xx_HAL_Driver/Src\stm32l4xx_hal_rcc.c ****         /* Wait till HSE is ready */
 536:E:/LiteOS/LiteOS_Lab/drivers/third_party/ST/STM32L4xx_HAL_Driver/Src\stm32l4xx_hal_rcc.c ****         while(READ_BIT(RCC->CR, RCC_CR_HSERDY) == RESET)
 569              		.loc 1 536 0
 570 0264 08E0     		b	.L35
 571              	.L36:
 537:E:/LiteOS/LiteOS_Lab/drivers/third_party/ST/STM32L4xx_HAL_Driver/Src\stm32l4xx_hal_rcc.c ****         {
 538:E:/LiteOS/LiteOS_Lab/drivers/third_party/ST/STM32L4xx_HAL_Driver/Src\stm32l4xx_hal_rcc.c ****           if((HAL_GetTick() - tickstart) > HSE_TIMEOUT_VALUE)
 572              		.loc 1 538 0
 573 0266 FFF7FEFF 		bl	HAL_GetTick
 574 026a 0246     		mov	r2, r0
 575 026c 3B69     		ldr	r3, [r7, #16]
 576 026e D31A     		subs	r3, r2, r3
 577 0270 642B     		cmp	r3, #100
 578 0272 01D9     		bls	.L35
 539:E:/LiteOS/LiteOS_Lab/drivers/third_party/ST/STM32L4xx_HAL_Driver/Src\stm32l4xx_hal_rcc.c ****           {
 540:E:/LiteOS/LiteOS_Lab/drivers/third_party/ST/STM32L4xx_HAL_Driver/Src\stm32l4xx_hal_rcc.c ****             return HAL_TIMEOUT;
 579              		.loc 1 540 0
 580 0274 0323     		movs	r3, #3
 581 0276 5BE2     		b	.L16
 582              	.L35:
 536:E:/LiteOS/LiteOS_Lab/drivers/third_party/ST/STM32L4xx_HAL_Driver/Src\stm32l4xx_hal_rcc.c ****         {
 583              		.loc 1 536 0
 584 0278 094B     		ldr	r3, .L85
 585 027a 1B68     		ldr	r3, [r3]
 586 027c 03F40033 		and	r3, r3, #131072
 587 0280 002B     		cmp	r3, #0
 588 0282 F0D0     		beq	.L36
 589 0284 1AE0     		b	.L27
 590              	.L34:
 541:E:/LiteOS/LiteOS_Lab/drivers/third_party/ST/STM32L4xx_HAL_Driver/Src\stm32l4xx_hal_rcc.c ****           }
 542:E:/LiteOS/LiteOS_Lab/drivers/third_party/ST/STM32L4xx_HAL_Driver/Src\stm32l4xx_hal_rcc.c ****         }
 543:E:/LiteOS/LiteOS_Lab/drivers/third_party/ST/STM32L4xx_HAL_Driver/Src\stm32l4xx_hal_rcc.c ****       }
 544:E:/LiteOS/LiteOS_Lab/drivers/third_party/ST/STM32L4xx_HAL_Driver/Src\stm32l4xx_hal_rcc.c ****       else
 545:E:/LiteOS/LiteOS_Lab/drivers/third_party/ST/STM32L4xx_HAL_Driver/Src\stm32l4xx_hal_rcc.c ****       {
 546:E:/LiteOS/LiteOS_Lab/drivers/third_party/ST/STM32L4xx_HAL_Driver/Src\stm32l4xx_hal_rcc.c ****         /* Get Start Tick*/
ARM GAS  C:\Users\user\AppData\Local\Temp\ccmqW6jC.s 			page 21


 547:E:/LiteOS/LiteOS_Lab/drivers/third_party/ST/STM32L4xx_HAL_Driver/Src\stm32l4xx_hal_rcc.c ****         tickstart = HAL_GetTick();
 591              		.loc 1 547 0
 592 0286 FFF7FEFF 		bl	HAL_GetTick
 593 028a 3861     		str	r0, [r7, #16]
 548:E:/LiteOS/LiteOS_Lab/drivers/third_party/ST/STM32L4xx_HAL_Driver/Src\stm32l4xx_hal_rcc.c **** 
 549:E:/LiteOS/LiteOS_Lab/drivers/third_party/ST/STM32L4xx_HAL_Driver/Src\stm32l4xx_hal_rcc.c ****         /* Wait till HSE is disabled */
 550:E:/LiteOS/LiteOS_Lab/drivers/third_party/ST/STM32L4xx_HAL_Driver/Src\stm32l4xx_hal_rcc.c ****         while(READ_BIT(RCC->CR, RCC_CR_HSERDY) != RESET)
 594              		.loc 1 550 0
 595 028c 0EE0     		b	.L37
 596              	.L38:
 551:E:/LiteOS/LiteOS_Lab/drivers/third_party/ST/STM32L4xx_HAL_Driver/Src\stm32l4xx_hal_rcc.c ****         {
 552:E:/LiteOS/LiteOS_Lab/drivers/third_party/ST/STM32L4xx_HAL_Driver/Src\stm32l4xx_hal_rcc.c ****           if((HAL_GetTick() - tickstart) > HSE_TIMEOUT_VALUE)
 597              		.loc 1 552 0
 598 028e FFF7FEFF 		bl	HAL_GetTick
 599 0292 0246     		mov	r2, r0
 600 0294 3B69     		ldr	r3, [r7, #16]
 601 0296 D31A     		subs	r3, r2, r3
 602 0298 642B     		cmp	r3, #100
 603 029a 07D9     		bls	.L37
 553:E:/LiteOS/LiteOS_Lab/drivers/third_party/ST/STM32L4xx_HAL_Driver/Src\stm32l4xx_hal_rcc.c ****           {
 554:E:/LiteOS/LiteOS_Lab/drivers/third_party/ST/STM32L4xx_HAL_Driver/Src\stm32l4xx_hal_rcc.c ****             return HAL_TIMEOUT;
 604              		.loc 1 554 0
 605 029c 0323     		movs	r3, #3
 606 029e 47E2     		b	.L16
 607              	.L86:
 608              		.align	2
 609              	.L85:
 610 02a0 00100240 		.word	1073876992
 611 02a4 00000000 		.word	AHBPrescTable
 612 02a8 00000000 		.word	SystemCoreClock
 613              	.L37:
 550:E:/LiteOS/LiteOS_Lab/drivers/third_party/ST/STM32L4xx_HAL_Driver/Src\stm32l4xx_hal_rcc.c ****         {
 614              		.loc 1 550 0
 615 02ac A94B     		ldr	r3, .L87
 616 02ae 1B68     		ldr	r3, [r3]
 617 02b0 03F40033 		and	r3, r3, #131072
 618 02b4 002B     		cmp	r3, #0
 619 02b6 EAD1     		bne	.L38
 620 02b8 00E0     		b	.L27
 621              	.L84:
 519:E:/LiteOS/LiteOS_Lab/drivers/third_party/ST/STM32L4xx_HAL_Driver/Src\stm32l4xx_hal_rcc.c ****       {
 622              		.loc 1 519 0
 623 02ba 00BF     		nop
 624              	.L27:
 555:E:/LiteOS/LiteOS_Lab/drivers/third_party/ST/STM32L4xx_HAL_Driver/Src\stm32l4xx_hal_rcc.c ****           }
 556:E:/LiteOS/LiteOS_Lab/drivers/third_party/ST/STM32L4xx_HAL_Driver/Src\stm32l4xx_hal_rcc.c ****         }
 557:E:/LiteOS/LiteOS_Lab/drivers/third_party/ST/STM32L4xx_HAL_Driver/Src\stm32l4xx_hal_rcc.c ****       }
 558:E:/LiteOS/LiteOS_Lab/drivers/third_party/ST/STM32L4xx_HAL_Driver/Src\stm32l4xx_hal_rcc.c ****     }
 559:E:/LiteOS/LiteOS_Lab/drivers/third_party/ST/STM32L4xx_HAL_Driver/Src\stm32l4xx_hal_rcc.c ****   }
 560:E:/LiteOS/LiteOS_Lab/drivers/third_party/ST/STM32L4xx_HAL_Driver/Src\stm32l4xx_hal_rcc.c ****   /*----------------------------- HSI Configuration --------------------------*/
 561:E:/LiteOS/LiteOS_Lab/drivers/third_party/ST/STM32L4xx_HAL_Driver/Src\stm32l4xx_hal_rcc.c ****   if(((RCC_OscInitStruct->OscillatorType) & RCC_OSCILLATORTYPE_HSI) == RCC_OSCILLATORTYPE_HSI)
 625              		.loc 1 561 0
 626 02bc 7B68     		ldr	r3, [r7, #4]
 627 02be 1B68     		ldr	r3, [r3]
 628 02c0 03F00203 		and	r3, r3, #2
 629 02c4 002B     		cmp	r3, #0
 630 02c6 69D0     		beq	.L39
ARM GAS  C:\Users\user\AppData\Local\Temp\ccmqW6jC.s 			page 22


 562:E:/LiteOS/LiteOS_Lab/drivers/third_party/ST/STM32L4xx_HAL_Driver/Src\stm32l4xx_hal_rcc.c ****   {
 563:E:/LiteOS/LiteOS_Lab/drivers/third_party/ST/STM32L4xx_HAL_Driver/Src\stm32l4xx_hal_rcc.c ****     /* Check the parameters */
 564:E:/LiteOS/LiteOS_Lab/drivers/third_party/ST/STM32L4xx_HAL_Driver/Src\stm32l4xx_hal_rcc.c ****     assert_param(IS_RCC_HSI(RCC_OscInitStruct->HSIState));
 565:E:/LiteOS/LiteOS_Lab/drivers/third_party/ST/STM32L4xx_HAL_Driver/Src\stm32l4xx_hal_rcc.c ****     assert_param(IS_RCC_HSI_CALIBRATION_VALUE(RCC_OscInitStruct->HSICalibrationValue));
 566:E:/LiteOS/LiteOS_Lab/drivers/third_party/ST/STM32L4xx_HAL_Driver/Src\stm32l4xx_hal_rcc.c **** 
 567:E:/LiteOS/LiteOS_Lab/drivers/third_party/ST/STM32L4xx_HAL_Driver/Src\stm32l4xx_hal_rcc.c ****     /* Check if HSI is used as system clock or as PLL source when PLL is selected as system clock *
 568:E:/LiteOS/LiteOS_Lab/drivers/third_party/ST/STM32L4xx_HAL_Driver/Src\stm32l4xx_hal_rcc.c ****     if((__HAL_RCC_GET_SYSCLK_SOURCE() == RCC_CFGR_SWS_HSI) ||
 631              		.loc 1 568 0
 632 02c8 A24B     		ldr	r3, .L87
 633 02ca 9B68     		ldr	r3, [r3, #8]
 634 02cc 03F00C03 		and	r3, r3, #12
 635 02d0 042B     		cmp	r3, #4
 636 02d2 0BD0     		beq	.L40
 569:E:/LiteOS/LiteOS_Lab/drivers/third_party/ST/STM32L4xx_HAL_Driver/Src\stm32l4xx_hal_rcc.c ****        ((__HAL_RCC_GET_SYSCLK_SOURCE() == RCC_CFGR_SWS_PLL) && (__HAL_RCC_GET_PLL_OSCSOURCE() == RC
 637              		.loc 1 569 0 discriminator 1
 638 02d4 9F4B     		ldr	r3, .L87
 639 02d6 9B68     		ldr	r3, [r3, #8]
 640 02d8 03F00C03 		and	r3, r3, #12
 568:E:/LiteOS/LiteOS_Lab/drivers/third_party/ST/STM32L4xx_HAL_Driver/Src\stm32l4xx_hal_rcc.c ****        ((__HAL_RCC_GET_SYSCLK_SOURCE() == RCC_CFGR_SWS_PLL) && (__HAL_RCC_GET_PLL_OSCSOURCE() == RC
 641              		.loc 1 568 0 discriminator 1
 642 02dc 0C2B     		cmp	r3, #12
 643 02de 1CD1     		bne	.L41
 644              		.loc 1 569 0
 645 02e0 9C4B     		ldr	r3, .L87
 646 02e2 DB68     		ldr	r3, [r3, #12]
 647 02e4 03F00303 		and	r3, r3, #3
 648 02e8 022B     		cmp	r3, #2
 649 02ea 16D1     		bne	.L41
 650              	.L40:
 570:E:/LiteOS/LiteOS_Lab/drivers/third_party/ST/STM32L4xx_HAL_Driver/Src\stm32l4xx_hal_rcc.c ****     {
 571:E:/LiteOS/LiteOS_Lab/drivers/third_party/ST/STM32L4xx_HAL_Driver/Src\stm32l4xx_hal_rcc.c ****       /* When HSI is used as system clock it will not be disabled */
 572:E:/LiteOS/LiteOS_Lab/drivers/third_party/ST/STM32L4xx_HAL_Driver/Src\stm32l4xx_hal_rcc.c ****       if((READ_BIT(RCC->CR, RCC_CR_HSIRDY) != RESET) && (RCC_OscInitStruct->HSIState == RCC_HSI_OFF
 651              		.loc 1 572 0
 652 02ec 994B     		ldr	r3, .L87
 653 02ee 1B68     		ldr	r3, [r3]
 654 02f0 03F48063 		and	r3, r3, #1024
 655 02f4 002B     		cmp	r3, #0
 656 02f6 05D0     		beq	.L42
 657              		.loc 1 572 0 is_stmt 0 discriminator 1
 658 02f8 7B68     		ldr	r3, [r7, #4]
 659 02fa DB68     		ldr	r3, [r3, #12]
 660 02fc 002B     		cmp	r3, #0
 661 02fe 01D1     		bne	.L42
 573:E:/LiteOS/LiteOS_Lab/drivers/third_party/ST/STM32L4xx_HAL_Driver/Src\stm32l4xx_hal_rcc.c ****       {
 574:E:/LiteOS/LiteOS_Lab/drivers/third_party/ST/STM32L4xx_HAL_Driver/Src\stm32l4xx_hal_rcc.c ****         return HAL_ERROR;
 662              		.loc 1 574 0 is_stmt 1
 663 0300 0123     		movs	r3, #1
 664 0302 15E2     		b	.L16
 665              	.L42:
 575:E:/LiteOS/LiteOS_Lab/drivers/third_party/ST/STM32L4xx_HAL_Driver/Src\stm32l4xx_hal_rcc.c ****       }
 576:E:/LiteOS/LiteOS_Lab/drivers/third_party/ST/STM32L4xx_HAL_Driver/Src\stm32l4xx_hal_rcc.c ****       /* Otherwise, just the calibration is allowed */
 577:E:/LiteOS/LiteOS_Lab/drivers/third_party/ST/STM32L4xx_HAL_Driver/Src\stm32l4xx_hal_rcc.c ****       else
 578:E:/LiteOS/LiteOS_Lab/drivers/third_party/ST/STM32L4xx_HAL_Driver/Src\stm32l4xx_hal_rcc.c ****       {
 579:E:/LiteOS/LiteOS_Lab/drivers/third_party/ST/STM32L4xx_HAL_Driver/Src\stm32l4xx_hal_rcc.c ****         /* Adjusts the Internal High Speed oscillator (HSI) calibration value.*/
 580:E:/LiteOS/LiteOS_Lab/drivers/third_party/ST/STM32L4xx_HAL_Driver/Src\stm32l4xx_hal_rcc.c ****         __HAL_RCC_HSI_CALIBRATIONVALUE_ADJUST(RCC_OscInitStruct->HSICalibrationValue);
 666              		.loc 1 580 0
 667 0304 934B     		ldr	r3, .L87
ARM GAS  C:\Users\user\AppData\Local\Temp\ccmqW6jC.s 			page 23


 668 0306 5B68     		ldr	r3, [r3, #4]
 669 0308 23F0F852 		bic	r2, r3, #520093696
 670 030c 7B68     		ldr	r3, [r7, #4]
 671 030e 1B69     		ldr	r3, [r3, #16]
 672 0310 1B06     		lsls	r3, r3, #24
 673 0312 9049     		ldr	r1, .L87
 674 0314 1343     		orrs	r3, r3, r2
 675 0316 4B60     		str	r3, [r1, #4]
 572:E:/LiteOS/LiteOS_Lab/drivers/third_party/ST/STM32L4xx_HAL_Driver/Src\stm32l4xx_hal_rcc.c ****       {
 676              		.loc 1 572 0
 677 0318 40E0     		b	.L39
 678              	.L41:
 581:E:/LiteOS/LiteOS_Lab/drivers/third_party/ST/STM32L4xx_HAL_Driver/Src\stm32l4xx_hal_rcc.c ****       }
 582:E:/LiteOS/LiteOS_Lab/drivers/third_party/ST/STM32L4xx_HAL_Driver/Src\stm32l4xx_hal_rcc.c ****     }
 583:E:/LiteOS/LiteOS_Lab/drivers/third_party/ST/STM32L4xx_HAL_Driver/Src\stm32l4xx_hal_rcc.c ****     else
 584:E:/LiteOS/LiteOS_Lab/drivers/third_party/ST/STM32L4xx_HAL_Driver/Src\stm32l4xx_hal_rcc.c ****     {
 585:E:/LiteOS/LiteOS_Lab/drivers/third_party/ST/STM32L4xx_HAL_Driver/Src\stm32l4xx_hal_rcc.c ****       /* Check the HSI State */
 586:E:/LiteOS/LiteOS_Lab/drivers/third_party/ST/STM32L4xx_HAL_Driver/Src\stm32l4xx_hal_rcc.c ****       if(RCC_OscInitStruct->HSIState != RCC_HSI_OFF)
 679              		.loc 1 586 0
 680 031a 7B68     		ldr	r3, [r7, #4]
 681 031c DB68     		ldr	r3, [r3, #12]
 682 031e 002B     		cmp	r3, #0
 683 0320 23D0     		beq	.L43
 587:E:/LiteOS/LiteOS_Lab/drivers/third_party/ST/STM32L4xx_HAL_Driver/Src\stm32l4xx_hal_rcc.c ****       {
 588:E:/LiteOS/LiteOS_Lab/drivers/third_party/ST/STM32L4xx_HAL_Driver/Src\stm32l4xx_hal_rcc.c ****         /* Enable the Internal High Speed oscillator (HSI). */
 589:E:/LiteOS/LiteOS_Lab/drivers/third_party/ST/STM32L4xx_HAL_Driver/Src\stm32l4xx_hal_rcc.c ****         __HAL_RCC_HSI_ENABLE();
 684              		.loc 1 589 0
 685 0322 8C4B     		ldr	r3, .L87
 686 0324 1B68     		ldr	r3, [r3]
 687 0326 8B4A     		ldr	r2, .L87
 688 0328 43F48073 		orr	r3, r3, #256
 689 032c 1360     		str	r3, [r2]
 590:E:/LiteOS/LiteOS_Lab/drivers/third_party/ST/STM32L4xx_HAL_Driver/Src\stm32l4xx_hal_rcc.c **** 
 591:E:/LiteOS/LiteOS_Lab/drivers/third_party/ST/STM32L4xx_HAL_Driver/Src\stm32l4xx_hal_rcc.c ****         /* Get Start Tick*/
 592:E:/LiteOS/LiteOS_Lab/drivers/third_party/ST/STM32L4xx_HAL_Driver/Src\stm32l4xx_hal_rcc.c ****         tickstart = HAL_GetTick();
 690              		.loc 1 592 0
 691 032e FFF7FEFF 		bl	HAL_GetTick
 692 0332 3861     		str	r0, [r7, #16]
 593:E:/LiteOS/LiteOS_Lab/drivers/third_party/ST/STM32L4xx_HAL_Driver/Src\stm32l4xx_hal_rcc.c **** 
 594:E:/LiteOS/LiteOS_Lab/drivers/third_party/ST/STM32L4xx_HAL_Driver/Src\stm32l4xx_hal_rcc.c ****         /* Wait till HSI is ready */
 595:E:/LiteOS/LiteOS_Lab/drivers/third_party/ST/STM32L4xx_HAL_Driver/Src\stm32l4xx_hal_rcc.c ****         while(READ_BIT(RCC->CR, RCC_CR_HSIRDY) == RESET)
 693              		.loc 1 595 0
 694 0334 08E0     		b	.L44
 695              	.L45:
 596:E:/LiteOS/LiteOS_Lab/drivers/third_party/ST/STM32L4xx_HAL_Driver/Src\stm32l4xx_hal_rcc.c ****         {
 597:E:/LiteOS/LiteOS_Lab/drivers/third_party/ST/STM32L4xx_HAL_Driver/Src\stm32l4xx_hal_rcc.c ****           if((HAL_GetTick() - tickstart) > HSI_TIMEOUT_VALUE)
 696              		.loc 1 597 0
 697 0336 FFF7FEFF 		bl	HAL_GetTick
 698 033a 0246     		mov	r2, r0
 699 033c 3B69     		ldr	r3, [r7, #16]
 700 033e D31A     		subs	r3, r2, r3
 701 0340 022B     		cmp	r3, #2
 702 0342 01D9     		bls	.L44
 598:E:/LiteOS/LiteOS_Lab/drivers/third_party/ST/STM32L4xx_HAL_Driver/Src\stm32l4xx_hal_rcc.c ****           {
 599:E:/LiteOS/LiteOS_Lab/drivers/third_party/ST/STM32L4xx_HAL_Driver/Src\stm32l4xx_hal_rcc.c ****             return HAL_TIMEOUT;
 703              		.loc 1 599 0
 704 0344 0323     		movs	r3, #3
ARM GAS  C:\Users\user\AppData\Local\Temp\ccmqW6jC.s 			page 24


 705 0346 F3E1     		b	.L16
 706              	.L44:
 595:E:/LiteOS/LiteOS_Lab/drivers/third_party/ST/STM32L4xx_HAL_Driver/Src\stm32l4xx_hal_rcc.c ****         {
 707              		.loc 1 595 0
 708 0348 824B     		ldr	r3, .L87
 709 034a 1B68     		ldr	r3, [r3]
 710 034c 03F48063 		and	r3, r3, #1024
 711 0350 002B     		cmp	r3, #0
 712 0352 F0D0     		beq	.L45
 600:E:/LiteOS/LiteOS_Lab/drivers/third_party/ST/STM32L4xx_HAL_Driver/Src\stm32l4xx_hal_rcc.c ****           }
 601:E:/LiteOS/LiteOS_Lab/drivers/third_party/ST/STM32L4xx_HAL_Driver/Src\stm32l4xx_hal_rcc.c ****         }
 602:E:/LiteOS/LiteOS_Lab/drivers/third_party/ST/STM32L4xx_HAL_Driver/Src\stm32l4xx_hal_rcc.c **** 
 603:E:/LiteOS/LiteOS_Lab/drivers/third_party/ST/STM32L4xx_HAL_Driver/Src\stm32l4xx_hal_rcc.c ****         /* Adjusts the Internal High Speed oscillator (HSI) calibration value.*/
 604:E:/LiteOS/LiteOS_Lab/drivers/third_party/ST/STM32L4xx_HAL_Driver/Src\stm32l4xx_hal_rcc.c ****         __HAL_RCC_HSI_CALIBRATIONVALUE_ADJUST(RCC_OscInitStruct->HSICalibrationValue);
 713              		.loc 1 604 0
 714 0354 7F4B     		ldr	r3, .L87
 715 0356 5B68     		ldr	r3, [r3, #4]
 716 0358 23F0F852 		bic	r2, r3, #520093696
 717 035c 7B68     		ldr	r3, [r7, #4]
 718 035e 1B69     		ldr	r3, [r3, #16]
 719 0360 1B06     		lsls	r3, r3, #24
 720 0362 7C49     		ldr	r1, .L87
 721 0364 1343     		orrs	r3, r3, r2
 722 0366 4B60     		str	r3, [r1, #4]
 723 0368 18E0     		b	.L39
 724              	.L43:
 605:E:/LiteOS/LiteOS_Lab/drivers/third_party/ST/STM32L4xx_HAL_Driver/Src\stm32l4xx_hal_rcc.c ****       }
 606:E:/LiteOS/LiteOS_Lab/drivers/third_party/ST/STM32L4xx_HAL_Driver/Src\stm32l4xx_hal_rcc.c ****       else
 607:E:/LiteOS/LiteOS_Lab/drivers/third_party/ST/STM32L4xx_HAL_Driver/Src\stm32l4xx_hal_rcc.c ****       {
 608:E:/LiteOS/LiteOS_Lab/drivers/third_party/ST/STM32L4xx_HAL_Driver/Src\stm32l4xx_hal_rcc.c ****         /* Disable the Internal High Speed oscillator (HSI). */
 609:E:/LiteOS/LiteOS_Lab/drivers/third_party/ST/STM32L4xx_HAL_Driver/Src\stm32l4xx_hal_rcc.c ****         __HAL_RCC_HSI_DISABLE();
 725              		.loc 1 609 0
 726 036a 7A4B     		ldr	r3, .L87
 727 036c 1B68     		ldr	r3, [r3]
 728 036e 794A     		ldr	r2, .L87
 729 0370 23F48073 		bic	r3, r3, #256
 730 0374 1360     		str	r3, [r2]
 610:E:/LiteOS/LiteOS_Lab/drivers/third_party/ST/STM32L4xx_HAL_Driver/Src\stm32l4xx_hal_rcc.c **** 
 611:E:/LiteOS/LiteOS_Lab/drivers/third_party/ST/STM32L4xx_HAL_Driver/Src\stm32l4xx_hal_rcc.c ****         /* Get Start Tick*/
 612:E:/LiteOS/LiteOS_Lab/drivers/third_party/ST/STM32L4xx_HAL_Driver/Src\stm32l4xx_hal_rcc.c ****         tickstart = HAL_GetTick();
 731              		.loc 1 612 0
 732 0376 FFF7FEFF 		bl	HAL_GetTick
 733 037a 3861     		str	r0, [r7, #16]
 613:E:/LiteOS/LiteOS_Lab/drivers/third_party/ST/STM32L4xx_HAL_Driver/Src\stm32l4xx_hal_rcc.c **** 
 614:E:/LiteOS/LiteOS_Lab/drivers/third_party/ST/STM32L4xx_HAL_Driver/Src\stm32l4xx_hal_rcc.c ****         /* Wait till HSI is disabled */
 615:E:/LiteOS/LiteOS_Lab/drivers/third_party/ST/STM32L4xx_HAL_Driver/Src\stm32l4xx_hal_rcc.c ****         while(READ_BIT(RCC->CR, RCC_CR_HSIRDY) != RESET)
 734              		.loc 1 615 0
 735 037c 08E0     		b	.L46
 736              	.L47:
 616:E:/LiteOS/LiteOS_Lab/drivers/third_party/ST/STM32L4xx_HAL_Driver/Src\stm32l4xx_hal_rcc.c ****         {
 617:E:/LiteOS/LiteOS_Lab/drivers/third_party/ST/STM32L4xx_HAL_Driver/Src\stm32l4xx_hal_rcc.c ****           if((HAL_GetTick() - tickstart) > HSI_TIMEOUT_VALUE)
 737              		.loc 1 617 0
 738 037e FFF7FEFF 		bl	HAL_GetTick
 739 0382 0246     		mov	r2, r0
 740 0384 3B69     		ldr	r3, [r7, #16]
 741 0386 D31A     		subs	r3, r2, r3
 742 0388 022B     		cmp	r3, #2
ARM GAS  C:\Users\user\AppData\Local\Temp\ccmqW6jC.s 			page 25


 743 038a 01D9     		bls	.L46
 618:E:/LiteOS/LiteOS_Lab/drivers/third_party/ST/STM32L4xx_HAL_Driver/Src\stm32l4xx_hal_rcc.c ****           {
 619:E:/LiteOS/LiteOS_Lab/drivers/third_party/ST/STM32L4xx_HAL_Driver/Src\stm32l4xx_hal_rcc.c ****             return HAL_TIMEOUT;
 744              		.loc 1 619 0
 745 038c 0323     		movs	r3, #3
 746 038e CFE1     		b	.L16
 747              	.L46:
 615:E:/LiteOS/LiteOS_Lab/drivers/third_party/ST/STM32L4xx_HAL_Driver/Src\stm32l4xx_hal_rcc.c ****         {
 748              		.loc 1 615 0
 749 0390 704B     		ldr	r3, .L87
 750 0392 1B68     		ldr	r3, [r3]
 751 0394 03F48063 		and	r3, r3, #1024
 752 0398 002B     		cmp	r3, #0
 753 039a F0D1     		bne	.L47
 754              	.L39:
 620:E:/LiteOS/LiteOS_Lab/drivers/third_party/ST/STM32L4xx_HAL_Driver/Src\stm32l4xx_hal_rcc.c ****           }
 621:E:/LiteOS/LiteOS_Lab/drivers/third_party/ST/STM32L4xx_HAL_Driver/Src\stm32l4xx_hal_rcc.c ****         }
 622:E:/LiteOS/LiteOS_Lab/drivers/third_party/ST/STM32L4xx_HAL_Driver/Src\stm32l4xx_hal_rcc.c ****       }
 623:E:/LiteOS/LiteOS_Lab/drivers/third_party/ST/STM32L4xx_HAL_Driver/Src\stm32l4xx_hal_rcc.c ****     }
 624:E:/LiteOS/LiteOS_Lab/drivers/third_party/ST/STM32L4xx_HAL_Driver/Src\stm32l4xx_hal_rcc.c ****   }
 625:E:/LiteOS/LiteOS_Lab/drivers/third_party/ST/STM32L4xx_HAL_Driver/Src\stm32l4xx_hal_rcc.c ****   /*------------------------------ LSI Configuration -------------------------*/
 626:E:/LiteOS/LiteOS_Lab/drivers/third_party/ST/STM32L4xx_HAL_Driver/Src\stm32l4xx_hal_rcc.c ****   if(((RCC_OscInitStruct->OscillatorType) & RCC_OSCILLATORTYPE_LSI) == RCC_OSCILLATORTYPE_LSI)
 755              		.loc 1 626 0
 756 039c 7B68     		ldr	r3, [r7, #4]
 757 039e 1B68     		ldr	r3, [r3]
 758 03a0 03F00803 		and	r3, r3, #8
 759 03a4 002B     		cmp	r3, #0
 760 03a6 3CD0     		beq	.L48
 627:E:/LiteOS/LiteOS_Lab/drivers/third_party/ST/STM32L4xx_HAL_Driver/Src\stm32l4xx_hal_rcc.c ****   {
 628:E:/LiteOS/LiteOS_Lab/drivers/third_party/ST/STM32L4xx_HAL_Driver/Src\stm32l4xx_hal_rcc.c ****     /* Check the parameters */
 629:E:/LiteOS/LiteOS_Lab/drivers/third_party/ST/STM32L4xx_HAL_Driver/Src\stm32l4xx_hal_rcc.c ****     assert_param(IS_RCC_LSI(RCC_OscInitStruct->LSIState));
 630:E:/LiteOS/LiteOS_Lab/drivers/third_party/ST/STM32L4xx_HAL_Driver/Src\stm32l4xx_hal_rcc.c **** 
 631:E:/LiteOS/LiteOS_Lab/drivers/third_party/ST/STM32L4xx_HAL_Driver/Src\stm32l4xx_hal_rcc.c ****     /* Check the LSI State */
 632:E:/LiteOS/LiteOS_Lab/drivers/third_party/ST/STM32L4xx_HAL_Driver/Src\stm32l4xx_hal_rcc.c ****     if(RCC_OscInitStruct->LSIState != RCC_LSI_OFF)
 761              		.loc 1 632 0
 762 03a8 7B68     		ldr	r3, [r7, #4]
 763 03aa 5B69     		ldr	r3, [r3, #20]
 764 03ac 002B     		cmp	r3, #0
 765 03ae 1CD0     		beq	.L49
 633:E:/LiteOS/LiteOS_Lab/drivers/third_party/ST/STM32L4xx_HAL_Driver/Src\stm32l4xx_hal_rcc.c ****     {
 634:E:/LiteOS/LiteOS_Lab/drivers/third_party/ST/STM32L4xx_HAL_Driver/Src\stm32l4xx_hal_rcc.c ****       /* Enable the Internal Low Speed oscillator (LSI). */
 635:E:/LiteOS/LiteOS_Lab/drivers/third_party/ST/STM32L4xx_HAL_Driver/Src\stm32l4xx_hal_rcc.c ****       __HAL_RCC_LSI_ENABLE();
 766              		.loc 1 635 0
 767 03b0 684B     		ldr	r3, .L87
 768 03b2 D3F89430 		ldr	r3, [r3, #148]
 769 03b6 674A     		ldr	r2, .L87
 770 03b8 43F00103 		orr	r3, r3, #1
 771 03bc C2F89430 		str	r3, [r2, #148]
 636:E:/LiteOS/LiteOS_Lab/drivers/third_party/ST/STM32L4xx_HAL_Driver/Src\stm32l4xx_hal_rcc.c **** 
 637:E:/LiteOS/LiteOS_Lab/drivers/third_party/ST/STM32L4xx_HAL_Driver/Src\stm32l4xx_hal_rcc.c ****       /* Get Start Tick*/
 638:E:/LiteOS/LiteOS_Lab/drivers/third_party/ST/STM32L4xx_HAL_Driver/Src\stm32l4xx_hal_rcc.c ****       tickstart = HAL_GetTick();
 772              		.loc 1 638 0
 773 03c0 FFF7FEFF 		bl	HAL_GetTick
 774 03c4 3861     		str	r0, [r7, #16]
 639:E:/LiteOS/LiteOS_Lab/drivers/third_party/ST/STM32L4xx_HAL_Driver/Src\stm32l4xx_hal_rcc.c **** 
 640:E:/LiteOS/LiteOS_Lab/drivers/third_party/ST/STM32L4xx_HAL_Driver/Src\stm32l4xx_hal_rcc.c ****       /* Wait till LSI is ready */
 641:E:/LiteOS/LiteOS_Lab/drivers/third_party/ST/STM32L4xx_HAL_Driver/Src\stm32l4xx_hal_rcc.c ****       while(READ_BIT(RCC->CSR, RCC_CSR_LSIRDY) == RESET)
ARM GAS  C:\Users\user\AppData\Local\Temp\ccmqW6jC.s 			page 26


 775              		.loc 1 641 0
 776 03c6 08E0     		b	.L50
 777              	.L51:
 642:E:/LiteOS/LiteOS_Lab/drivers/third_party/ST/STM32L4xx_HAL_Driver/Src\stm32l4xx_hal_rcc.c ****       {
 643:E:/LiteOS/LiteOS_Lab/drivers/third_party/ST/STM32L4xx_HAL_Driver/Src\stm32l4xx_hal_rcc.c ****         if((HAL_GetTick() - tickstart) > LSI_TIMEOUT_VALUE)
 778              		.loc 1 643 0
 779 03c8 FFF7FEFF 		bl	HAL_GetTick
 780 03cc 0246     		mov	r2, r0
 781 03ce 3B69     		ldr	r3, [r7, #16]
 782 03d0 D31A     		subs	r3, r2, r3
 783 03d2 022B     		cmp	r3, #2
 784 03d4 01D9     		bls	.L50
 644:E:/LiteOS/LiteOS_Lab/drivers/third_party/ST/STM32L4xx_HAL_Driver/Src\stm32l4xx_hal_rcc.c ****         {
 645:E:/LiteOS/LiteOS_Lab/drivers/third_party/ST/STM32L4xx_HAL_Driver/Src\stm32l4xx_hal_rcc.c ****           return HAL_TIMEOUT;
 785              		.loc 1 645 0
 786 03d6 0323     		movs	r3, #3
 787 03d8 AAE1     		b	.L16
 788              	.L50:
 641:E:/LiteOS/LiteOS_Lab/drivers/third_party/ST/STM32L4xx_HAL_Driver/Src\stm32l4xx_hal_rcc.c ****       {
 789              		.loc 1 641 0
 790 03da 5E4B     		ldr	r3, .L87
 791 03dc D3F89430 		ldr	r3, [r3, #148]
 792 03e0 03F00203 		and	r3, r3, #2
 793 03e4 002B     		cmp	r3, #0
 794 03e6 EFD0     		beq	.L51
 795 03e8 1BE0     		b	.L48
 796              	.L49:
 646:E:/LiteOS/LiteOS_Lab/drivers/third_party/ST/STM32L4xx_HAL_Driver/Src\stm32l4xx_hal_rcc.c ****         }
 647:E:/LiteOS/LiteOS_Lab/drivers/third_party/ST/STM32L4xx_HAL_Driver/Src\stm32l4xx_hal_rcc.c ****       }
 648:E:/LiteOS/LiteOS_Lab/drivers/third_party/ST/STM32L4xx_HAL_Driver/Src\stm32l4xx_hal_rcc.c ****     }
 649:E:/LiteOS/LiteOS_Lab/drivers/third_party/ST/STM32L4xx_HAL_Driver/Src\stm32l4xx_hal_rcc.c ****     else
 650:E:/LiteOS/LiteOS_Lab/drivers/third_party/ST/STM32L4xx_HAL_Driver/Src\stm32l4xx_hal_rcc.c ****     {
 651:E:/LiteOS/LiteOS_Lab/drivers/third_party/ST/STM32L4xx_HAL_Driver/Src\stm32l4xx_hal_rcc.c ****       /* Disable the Internal Low Speed oscillator (LSI). */
 652:E:/LiteOS/LiteOS_Lab/drivers/third_party/ST/STM32L4xx_HAL_Driver/Src\stm32l4xx_hal_rcc.c ****       __HAL_RCC_LSI_DISABLE();
 797              		.loc 1 652 0
 798 03ea 5A4B     		ldr	r3, .L87
 799 03ec D3F89430 		ldr	r3, [r3, #148]
 800 03f0 584A     		ldr	r2, .L87
 801 03f2 23F00103 		bic	r3, r3, #1
 802 03f6 C2F89430 		str	r3, [r2, #148]
 653:E:/LiteOS/LiteOS_Lab/drivers/third_party/ST/STM32L4xx_HAL_Driver/Src\stm32l4xx_hal_rcc.c **** 
 654:E:/LiteOS/LiteOS_Lab/drivers/third_party/ST/STM32L4xx_HAL_Driver/Src\stm32l4xx_hal_rcc.c ****       /* Get Start Tick*/
 655:E:/LiteOS/LiteOS_Lab/drivers/third_party/ST/STM32L4xx_HAL_Driver/Src\stm32l4xx_hal_rcc.c ****       tickstart = HAL_GetTick();
 803              		.loc 1 655 0
 804 03fa FFF7FEFF 		bl	HAL_GetTick
 805 03fe 3861     		str	r0, [r7, #16]
 656:E:/LiteOS/LiteOS_Lab/drivers/third_party/ST/STM32L4xx_HAL_Driver/Src\stm32l4xx_hal_rcc.c **** 
 657:E:/LiteOS/LiteOS_Lab/drivers/third_party/ST/STM32L4xx_HAL_Driver/Src\stm32l4xx_hal_rcc.c ****       /* Wait till LSI is disabled */
 658:E:/LiteOS/LiteOS_Lab/drivers/third_party/ST/STM32L4xx_HAL_Driver/Src\stm32l4xx_hal_rcc.c ****       while(READ_BIT(RCC->CSR, RCC_CSR_LSIRDY) != RESET)
 806              		.loc 1 658 0
 807 0400 08E0     		b	.L52
 808              	.L53:
 659:E:/LiteOS/LiteOS_Lab/drivers/third_party/ST/STM32L4xx_HAL_Driver/Src\stm32l4xx_hal_rcc.c ****       {
 660:E:/LiteOS/LiteOS_Lab/drivers/third_party/ST/STM32L4xx_HAL_Driver/Src\stm32l4xx_hal_rcc.c ****         if((HAL_GetTick() - tickstart) > LSI_TIMEOUT_VALUE)
 809              		.loc 1 660 0
 810 0402 FFF7FEFF 		bl	HAL_GetTick
 811 0406 0246     		mov	r2, r0
ARM GAS  C:\Users\user\AppData\Local\Temp\ccmqW6jC.s 			page 27


 812 0408 3B69     		ldr	r3, [r7, #16]
 813 040a D31A     		subs	r3, r2, r3
 814 040c 022B     		cmp	r3, #2
 815 040e 01D9     		bls	.L52
 661:E:/LiteOS/LiteOS_Lab/drivers/third_party/ST/STM32L4xx_HAL_Driver/Src\stm32l4xx_hal_rcc.c ****         {
 662:E:/LiteOS/LiteOS_Lab/drivers/third_party/ST/STM32L4xx_HAL_Driver/Src\stm32l4xx_hal_rcc.c ****           return HAL_TIMEOUT;
 816              		.loc 1 662 0
 817 0410 0323     		movs	r3, #3
 818 0412 8DE1     		b	.L16
 819              	.L52:
 658:E:/LiteOS/LiteOS_Lab/drivers/third_party/ST/STM32L4xx_HAL_Driver/Src\stm32l4xx_hal_rcc.c ****       {
 820              		.loc 1 658 0
 821 0414 4F4B     		ldr	r3, .L87
 822 0416 D3F89430 		ldr	r3, [r3, #148]
 823 041a 03F00203 		and	r3, r3, #2
 824 041e 002B     		cmp	r3, #0
 825 0420 EFD1     		bne	.L53
 826              	.L48:
 663:E:/LiteOS/LiteOS_Lab/drivers/third_party/ST/STM32L4xx_HAL_Driver/Src\stm32l4xx_hal_rcc.c ****         }
 664:E:/LiteOS/LiteOS_Lab/drivers/third_party/ST/STM32L4xx_HAL_Driver/Src\stm32l4xx_hal_rcc.c ****       }
 665:E:/LiteOS/LiteOS_Lab/drivers/third_party/ST/STM32L4xx_HAL_Driver/Src\stm32l4xx_hal_rcc.c ****     }
 666:E:/LiteOS/LiteOS_Lab/drivers/third_party/ST/STM32L4xx_HAL_Driver/Src\stm32l4xx_hal_rcc.c ****   }
 667:E:/LiteOS/LiteOS_Lab/drivers/third_party/ST/STM32L4xx_HAL_Driver/Src\stm32l4xx_hal_rcc.c ****   /*------------------------------ LSE Configuration -------------------------*/
 668:E:/LiteOS/LiteOS_Lab/drivers/third_party/ST/STM32L4xx_HAL_Driver/Src\stm32l4xx_hal_rcc.c ****   if(((RCC_OscInitStruct->OscillatorType) & RCC_OSCILLATORTYPE_LSE) == RCC_OSCILLATORTYPE_LSE)
 827              		.loc 1 668 0
 828 0422 7B68     		ldr	r3, [r7, #4]
 829 0424 1B68     		ldr	r3, [r3]
 830 0426 03F00403 		and	r3, r3, #4
 831 042a 002B     		cmp	r3, #0
 832 042c 00F0A680 		beq	.L54
 833              	.LBB2:
 669:E:/LiteOS/LiteOS_Lab/drivers/third_party/ST/STM32L4xx_HAL_Driver/Src\stm32l4xx_hal_rcc.c ****   {
 670:E:/LiteOS/LiteOS_Lab/drivers/third_party/ST/STM32L4xx_HAL_Driver/Src\stm32l4xx_hal_rcc.c ****     FlagStatus       pwrclkchanged = RESET;
 834              		.loc 1 670 0
 835 0430 0023     		movs	r3, #0
 836 0432 FB75     		strb	r3, [r7, #23]
 671:E:/LiteOS/LiteOS_Lab/drivers/third_party/ST/STM32L4xx_HAL_Driver/Src\stm32l4xx_hal_rcc.c **** 
 672:E:/LiteOS/LiteOS_Lab/drivers/third_party/ST/STM32L4xx_HAL_Driver/Src\stm32l4xx_hal_rcc.c ****     /* Check the parameters */
 673:E:/LiteOS/LiteOS_Lab/drivers/third_party/ST/STM32L4xx_HAL_Driver/Src\stm32l4xx_hal_rcc.c ****     assert_param(IS_RCC_LSE(RCC_OscInitStruct->LSEState));
 674:E:/LiteOS/LiteOS_Lab/drivers/third_party/ST/STM32L4xx_HAL_Driver/Src\stm32l4xx_hal_rcc.c **** 
 675:E:/LiteOS/LiteOS_Lab/drivers/third_party/ST/STM32L4xx_HAL_Driver/Src\stm32l4xx_hal_rcc.c ****     /* Update LSE configuration in Backup Domain control register    */
 676:E:/LiteOS/LiteOS_Lab/drivers/third_party/ST/STM32L4xx_HAL_Driver/Src\stm32l4xx_hal_rcc.c ****     /* Requires to enable write access to Backup Domain of necessary */
 677:E:/LiteOS/LiteOS_Lab/drivers/third_party/ST/STM32L4xx_HAL_Driver/Src\stm32l4xx_hal_rcc.c ****     if(HAL_IS_BIT_CLR(RCC->APB1ENR1, RCC_APB1ENR1_PWREN))
 837              		.loc 1 677 0
 838 0434 474B     		ldr	r3, .L87
 839 0436 9B6D     		ldr	r3, [r3, #88]
 840 0438 03F08053 		and	r3, r3, #268435456
 841 043c 002B     		cmp	r3, #0
 842 043e 0DD1     		bne	.L55
 843              	.LBB3:
 678:E:/LiteOS/LiteOS_Lab/drivers/third_party/ST/STM32L4xx_HAL_Driver/Src\stm32l4xx_hal_rcc.c ****     {
 679:E:/LiteOS/LiteOS_Lab/drivers/third_party/ST/STM32L4xx_HAL_Driver/Src\stm32l4xx_hal_rcc.c ****       __HAL_RCC_PWR_CLK_ENABLE();
 844              		.loc 1 679 0
 845 0440 444B     		ldr	r3, .L87
 846 0442 9B6D     		ldr	r3, [r3, #88]
 847 0444 434A     		ldr	r2, .L87
 848 0446 43F08053 		orr	r3, r3, #268435456
ARM GAS  C:\Users\user\AppData\Local\Temp\ccmqW6jC.s 			page 28


 849 044a 9365     		str	r3, [r2, #88]
 850 044c 414B     		ldr	r3, .L87
 851 044e 9B6D     		ldr	r3, [r3, #88]
 852 0450 03F08053 		and	r3, r3, #268435456
 853 0454 FB60     		str	r3, [r7, #12]
 854 0456 FB68     		ldr	r3, [r7, #12]
 855              	.LBE3:
 680:E:/LiteOS/LiteOS_Lab/drivers/third_party/ST/STM32L4xx_HAL_Driver/Src\stm32l4xx_hal_rcc.c ****       pwrclkchanged = SET;
 856              		.loc 1 680 0
 857 0458 0123     		movs	r3, #1
 858 045a FB75     		strb	r3, [r7, #23]
 859              	.L55:
 681:E:/LiteOS/LiteOS_Lab/drivers/third_party/ST/STM32L4xx_HAL_Driver/Src\stm32l4xx_hal_rcc.c ****     }
 682:E:/LiteOS/LiteOS_Lab/drivers/third_party/ST/STM32L4xx_HAL_Driver/Src\stm32l4xx_hal_rcc.c **** 
 683:E:/LiteOS/LiteOS_Lab/drivers/third_party/ST/STM32L4xx_HAL_Driver/Src\stm32l4xx_hal_rcc.c ****     if(HAL_IS_BIT_CLR(PWR->CR1, PWR_CR1_DBP))
 860              		.loc 1 683 0
 861 045c 3E4B     		ldr	r3, .L87+4
 862 045e 1B68     		ldr	r3, [r3]
 863 0460 03F48073 		and	r3, r3, #256
 864 0464 002B     		cmp	r3, #0
 865 0466 18D1     		bne	.L56
 684:E:/LiteOS/LiteOS_Lab/drivers/third_party/ST/STM32L4xx_HAL_Driver/Src\stm32l4xx_hal_rcc.c ****     {
 685:E:/LiteOS/LiteOS_Lab/drivers/third_party/ST/STM32L4xx_HAL_Driver/Src\stm32l4xx_hal_rcc.c ****       /* Enable write access to Backup domain */
 686:E:/LiteOS/LiteOS_Lab/drivers/third_party/ST/STM32L4xx_HAL_Driver/Src\stm32l4xx_hal_rcc.c ****       SET_BIT(PWR->CR1, PWR_CR1_DBP);
 866              		.loc 1 686 0
 867 0468 3B4B     		ldr	r3, .L87+4
 868 046a 1B68     		ldr	r3, [r3]
 869 046c 3A4A     		ldr	r2, .L87+4
 870 046e 43F48073 		orr	r3, r3, #256
 871 0472 1360     		str	r3, [r2]
 687:E:/LiteOS/LiteOS_Lab/drivers/third_party/ST/STM32L4xx_HAL_Driver/Src\stm32l4xx_hal_rcc.c **** 
 688:E:/LiteOS/LiteOS_Lab/drivers/third_party/ST/STM32L4xx_HAL_Driver/Src\stm32l4xx_hal_rcc.c ****       /* Wait for Backup domain Write protection disable */
 689:E:/LiteOS/LiteOS_Lab/drivers/third_party/ST/STM32L4xx_HAL_Driver/Src\stm32l4xx_hal_rcc.c ****       tickstart = HAL_GetTick();
 872              		.loc 1 689 0
 873 0474 FFF7FEFF 		bl	HAL_GetTick
 874 0478 3861     		str	r0, [r7, #16]
 690:E:/LiteOS/LiteOS_Lab/drivers/third_party/ST/STM32L4xx_HAL_Driver/Src\stm32l4xx_hal_rcc.c **** 
 691:E:/LiteOS/LiteOS_Lab/drivers/third_party/ST/STM32L4xx_HAL_Driver/Src\stm32l4xx_hal_rcc.c ****       while(HAL_IS_BIT_CLR(PWR->CR1, PWR_CR1_DBP))
 875              		.loc 1 691 0
 876 047a 08E0     		b	.L57
 877              	.L58:
 692:E:/LiteOS/LiteOS_Lab/drivers/third_party/ST/STM32L4xx_HAL_Driver/Src\stm32l4xx_hal_rcc.c ****       {
 693:E:/LiteOS/LiteOS_Lab/drivers/third_party/ST/STM32L4xx_HAL_Driver/Src\stm32l4xx_hal_rcc.c ****         if((HAL_GetTick() - tickstart) > RCC_DBP_TIMEOUT_VALUE)
 878              		.loc 1 693 0
 879 047c FFF7FEFF 		bl	HAL_GetTick
 880 0480 0246     		mov	r2, r0
 881 0482 3B69     		ldr	r3, [r7, #16]
 882 0484 D31A     		subs	r3, r2, r3
 883 0486 022B     		cmp	r3, #2
 884 0488 01D9     		bls	.L57
 694:E:/LiteOS/LiteOS_Lab/drivers/third_party/ST/STM32L4xx_HAL_Driver/Src\stm32l4xx_hal_rcc.c ****         {
 695:E:/LiteOS/LiteOS_Lab/drivers/third_party/ST/STM32L4xx_HAL_Driver/Src\stm32l4xx_hal_rcc.c ****           return HAL_TIMEOUT;
 885              		.loc 1 695 0
 886 048a 0323     		movs	r3, #3
 887 048c 50E1     		b	.L16
 888              	.L57:
 691:E:/LiteOS/LiteOS_Lab/drivers/third_party/ST/STM32L4xx_HAL_Driver/Src\stm32l4xx_hal_rcc.c ****       {
ARM GAS  C:\Users\user\AppData\Local\Temp\ccmqW6jC.s 			page 29


 889              		.loc 1 691 0
 890 048e 324B     		ldr	r3, .L87+4
 891 0490 1B68     		ldr	r3, [r3]
 892 0492 03F48073 		and	r3, r3, #256
 893 0496 002B     		cmp	r3, #0
 894 0498 F0D0     		beq	.L58
 895              	.L56:
 696:E:/LiteOS/LiteOS_Lab/drivers/third_party/ST/STM32L4xx_HAL_Driver/Src\stm32l4xx_hal_rcc.c ****         }
 697:E:/LiteOS/LiteOS_Lab/drivers/third_party/ST/STM32L4xx_HAL_Driver/Src\stm32l4xx_hal_rcc.c ****       }
 698:E:/LiteOS/LiteOS_Lab/drivers/third_party/ST/STM32L4xx_HAL_Driver/Src\stm32l4xx_hal_rcc.c ****     }
 699:E:/LiteOS/LiteOS_Lab/drivers/third_party/ST/STM32L4xx_HAL_Driver/Src\stm32l4xx_hal_rcc.c **** 
 700:E:/LiteOS/LiteOS_Lab/drivers/third_party/ST/STM32L4xx_HAL_Driver/Src\stm32l4xx_hal_rcc.c ****     /* Set the new LSE configuration -----------------------------------------*/
 701:E:/LiteOS/LiteOS_Lab/drivers/third_party/ST/STM32L4xx_HAL_Driver/Src\stm32l4xx_hal_rcc.c ****     __HAL_RCC_LSE_CONFIG(RCC_OscInitStruct->LSEState);
 896              		.loc 1 701 0
 897 049a 7B68     		ldr	r3, [r7, #4]
 898 049c 9B68     		ldr	r3, [r3, #8]
 899 049e 012B     		cmp	r3, #1
 900 04a0 08D1     		bne	.L59
 901              		.loc 1 701 0 is_stmt 0 discriminator 1
 902 04a2 2C4B     		ldr	r3, .L87
 903 04a4 D3F89030 		ldr	r3, [r3, #144]
 904 04a8 2A4A     		ldr	r2, .L87
 905 04aa 43F00103 		orr	r3, r3, #1
 906 04ae C2F89030 		str	r3, [r2, #144]
 907 04b2 24E0     		b	.L60
 908              	.L59:
 909              		.loc 1 701 0 discriminator 2
 910 04b4 7B68     		ldr	r3, [r7, #4]
 911 04b6 9B68     		ldr	r3, [r3, #8]
 912 04b8 052B     		cmp	r3, #5
 913 04ba 10D1     		bne	.L61
 914              		.loc 1 701 0 discriminator 3
 915 04bc 254B     		ldr	r3, .L87
 916 04be D3F89030 		ldr	r3, [r3, #144]
 917 04c2 244A     		ldr	r2, .L87
 918 04c4 43F00403 		orr	r3, r3, #4
 919 04c8 C2F89030 		str	r3, [r2, #144]
 920 04cc 214B     		ldr	r3, .L87
 921 04ce D3F89030 		ldr	r3, [r3, #144]
 922 04d2 204A     		ldr	r2, .L87
 923 04d4 43F00103 		orr	r3, r3, #1
 924 04d8 C2F89030 		str	r3, [r2, #144]
 925 04dc 0FE0     		b	.L60
 926              	.L61:
 927              		.loc 1 701 0 discriminator 4
 928 04de 1D4B     		ldr	r3, .L87
 929 04e0 D3F89030 		ldr	r3, [r3, #144]
 930 04e4 1B4A     		ldr	r2, .L87
 931 04e6 23F00103 		bic	r3, r3, #1
 932 04ea C2F89030 		str	r3, [r2, #144]
 933 04ee 194B     		ldr	r3, .L87
 934 04f0 D3F89030 		ldr	r3, [r3, #144]
 935 04f4 174A     		ldr	r2, .L87
 936 04f6 23F00403 		bic	r3, r3, #4
 937 04fa C2F89030 		str	r3, [r2, #144]
 938              	.L60:
 702:E:/LiteOS/LiteOS_Lab/drivers/third_party/ST/STM32L4xx_HAL_Driver/Src\stm32l4xx_hal_rcc.c **** 
ARM GAS  C:\Users\user\AppData\Local\Temp\ccmqW6jC.s 			page 30


 703:E:/LiteOS/LiteOS_Lab/drivers/third_party/ST/STM32L4xx_HAL_Driver/Src\stm32l4xx_hal_rcc.c ****     /* Check the LSE State */
 704:E:/LiteOS/LiteOS_Lab/drivers/third_party/ST/STM32L4xx_HAL_Driver/Src\stm32l4xx_hal_rcc.c ****     if(RCC_OscInitStruct->LSEState != RCC_LSE_OFF)
 939              		.loc 1 704 0 is_stmt 1
 940 04fe 7B68     		ldr	r3, [r7, #4]
 941 0500 9B68     		ldr	r3, [r3, #8]
 942 0502 002B     		cmp	r3, #0
 943 0504 16D0     		beq	.L62
 705:E:/LiteOS/LiteOS_Lab/drivers/third_party/ST/STM32L4xx_HAL_Driver/Src\stm32l4xx_hal_rcc.c ****     {
 706:E:/LiteOS/LiteOS_Lab/drivers/third_party/ST/STM32L4xx_HAL_Driver/Src\stm32l4xx_hal_rcc.c ****       /* Get Start Tick*/
 707:E:/LiteOS/LiteOS_Lab/drivers/third_party/ST/STM32L4xx_HAL_Driver/Src\stm32l4xx_hal_rcc.c ****       tickstart = HAL_GetTick();
 944              		.loc 1 707 0
 945 0506 FFF7FEFF 		bl	HAL_GetTick
 946 050a 3861     		str	r0, [r7, #16]
 708:E:/LiteOS/LiteOS_Lab/drivers/third_party/ST/STM32L4xx_HAL_Driver/Src\stm32l4xx_hal_rcc.c **** 
 709:E:/LiteOS/LiteOS_Lab/drivers/third_party/ST/STM32L4xx_HAL_Driver/Src\stm32l4xx_hal_rcc.c ****       /* Wait till LSE is ready */
 710:E:/LiteOS/LiteOS_Lab/drivers/third_party/ST/STM32L4xx_HAL_Driver/Src\stm32l4xx_hal_rcc.c ****       while(READ_BIT(RCC->BDCR, RCC_BDCR_LSERDY) == RESET)
 947              		.loc 1 710 0
 948 050c 0AE0     		b	.L63
 949              	.L64:
 711:E:/LiteOS/LiteOS_Lab/drivers/third_party/ST/STM32L4xx_HAL_Driver/Src\stm32l4xx_hal_rcc.c ****       {
 712:E:/LiteOS/LiteOS_Lab/drivers/third_party/ST/STM32L4xx_HAL_Driver/Src\stm32l4xx_hal_rcc.c ****         if((HAL_GetTick() - tickstart) > RCC_LSE_TIMEOUT_VALUE)
 950              		.loc 1 712 0
 951 050e FFF7FEFF 		bl	HAL_GetTick
 952 0512 0246     		mov	r2, r0
 953 0514 3B69     		ldr	r3, [r7, #16]
 954 0516 D31A     		subs	r3, r2, r3
 955 0518 41F28832 		movw	r2, #5000
 956 051c 9342     		cmp	r3, r2
 957 051e 01D9     		bls	.L63
 713:E:/LiteOS/LiteOS_Lab/drivers/third_party/ST/STM32L4xx_HAL_Driver/Src\stm32l4xx_hal_rcc.c ****         {
 714:E:/LiteOS/LiteOS_Lab/drivers/third_party/ST/STM32L4xx_HAL_Driver/Src\stm32l4xx_hal_rcc.c ****           return HAL_TIMEOUT;
 958              		.loc 1 714 0
 959 0520 0323     		movs	r3, #3
 960 0522 05E1     		b	.L16
 961              	.L63:
 710:E:/LiteOS/LiteOS_Lab/drivers/third_party/ST/STM32L4xx_HAL_Driver/Src\stm32l4xx_hal_rcc.c ****       {
 962              		.loc 1 710 0
 963 0524 0B4B     		ldr	r3, .L87
 964 0526 D3F89030 		ldr	r3, [r3, #144]
 965 052a 03F00203 		and	r3, r3, #2
 966 052e 002B     		cmp	r3, #0
 967 0530 EDD0     		beq	.L64
 968 0532 1AE0     		b	.L65
 969              	.L62:
 715:E:/LiteOS/LiteOS_Lab/drivers/third_party/ST/STM32L4xx_HAL_Driver/Src\stm32l4xx_hal_rcc.c ****         }
 716:E:/LiteOS/LiteOS_Lab/drivers/third_party/ST/STM32L4xx_HAL_Driver/Src\stm32l4xx_hal_rcc.c ****       }
 717:E:/LiteOS/LiteOS_Lab/drivers/third_party/ST/STM32L4xx_HAL_Driver/Src\stm32l4xx_hal_rcc.c ****     }
 718:E:/LiteOS/LiteOS_Lab/drivers/third_party/ST/STM32L4xx_HAL_Driver/Src\stm32l4xx_hal_rcc.c ****     else
 719:E:/LiteOS/LiteOS_Lab/drivers/third_party/ST/STM32L4xx_HAL_Driver/Src\stm32l4xx_hal_rcc.c ****     {
 720:E:/LiteOS/LiteOS_Lab/drivers/third_party/ST/STM32L4xx_HAL_Driver/Src\stm32l4xx_hal_rcc.c ****       /* Get Start Tick*/
 721:E:/LiteOS/LiteOS_Lab/drivers/third_party/ST/STM32L4xx_HAL_Driver/Src\stm32l4xx_hal_rcc.c ****       tickstart = HAL_GetTick();
 970              		.loc 1 721 0
 971 0534 FFF7FEFF 		bl	HAL_GetTick
 972 0538 3861     		str	r0, [r7, #16]
 722:E:/LiteOS/LiteOS_Lab/drivers/third_party/ST/STM32L4xx_HAL_Driver/Src\stm32l4xx_hal_rcc.c **** 
 723:E:/LiteOS/LiteOS_Lab/drivers/third_party/ST/STM32L4xx_HAL_Driver/Src\stm32l4xx_hal_rcc.c ****       /* Wait till LSE is disabled */
 724:E:/LiteOS/LiteOS_Lab/drivers/third_party/ST/STM32L4xx_HAL_Driver/Src\stm32l4xx_hal_rcc.c ****       while(READ_BIT(RCC->BDCR, RCC_BDCR_LSERDY) != RESET)
ARM GAS  C:\Users\user\AppData\Local\Temp\ccmqW6jC.s 			page 31


 973              		.loc 1 724 0
 974 053a 0FE0     		b	.L66
 975              	.L67:
 725:E:/LiteOS/LiteOS_Lab/drivers/third_party/ST/STM32L4xx_HAL_Driver/Src\stm32l4xx_hal_rcc.c ****       {
 726:E:/LiteOS/LiteOS_Lab/drivers/third_party/ST/STM32L4xx_HAL_Driver/Src\stm32l4xx_hal_rcc.c ****         if((HAL_GetTick() - tickstart) > RCC_LSE_TIMEOUT_VALUE)
 976              		.loc 1 726 0
 977 053c FFF7FEFF 		bl	HAL_GetTick
 978 0540 0246     		mov	r2, r0
 979 0542 3B69     		ldr	r3, [r7, #16]
 980 0544 D31A     		subs	r3, r2, r3
 981 0546 41F28832 		movw	r2, #5000
 982 054a 9342     		cmp	r3, r2
 983 054c 06D9     		bls	.L66
 727:E:/LiteOS/LiteOS_Lab/drivers/third_party/ST/STM32L4xx_HAL_Driver/Src\stm32l4xx_hal_rcc.c ****         {
 728:E:/LiteOS/LiteOS_Lab/drivers/third_party/ST/STM32L4xx_HAL_Driver/Src\stm32l4xx_hal_rcc.c ****           return HAL_TIMEOUT;
 984              		.loc 1 728 0
 985 054e 0323     		movs	r3, #3
 986 0550 EEE0     		b	.L16
 987              	.L88:
 988 0552 00BF     		.align	2
 989              	.L87:
 990 0554 00100240 		.word	1073876992
 991 0558 00700040 		.word	1073770496
 992              	.L66:
 724:E:/LiteOS/LiteOS_Lab/drivers/third_party/ST/STM32L4xx_HAL_Driver/Src\stm32l4xx_hal_rcc.c ****       {
 993              		.loc 1 724 0
 994 055c 764B     		ldr	r3, .L89
 995 055e D3F89030 		ldr	r3, [r3, #144]
 996 0562 03F00203 		and	r3, r3, #2
 997 0566 002B     		cmp	r3, #0
 998 0568 E8D1     		bne	.L67
 999              	.L65:
 729:E:/LiteOS/LiteOS_Lab/drivers/third_party/ST/STM32L4xx_HAL_Driver/Src\stm32l4xx_hal_rcc.c ****         }
 730:E:/LiteOS/LiteOS_Lab/drivers/third_party/ST/STM32L4xx_HAL_Driver/Src\stm32l4xx_hal_rcc.c ****       }
 731:E:/LiteOS/LiteOS_Lab/drivers/third_party/ST/STM32L4xx_HAL_Driver/Src\stm32l4xx_hal_rcc.c ****     }
 732:E:/LiteOS/LiteOS_Lab/drivers/third_party/ST/STM32L4xx_HAL_Driver/Src\stm32l4xx_hal_rcc.c **** 
 733:E:/LiteOS/LiteOS_Lab/drivers/third_party/ST/STM32L4xx_HAL_Driver/Src\stm32l4xx_hal_rcc.c ****     /* Restore clock configuration if changed */
 734:E:/LiteOS/LiteOS_Lab/drivers/third_party/ST/STM32L4xx_HAL_Driver/Src\stm32l4xx_hal_rcc.c ****     if(pwrclkchanged == SET)
 1000              		.loc 1 734 0
 1001 056a FB7D     		ldrb	r3, [r7, #23]	@ zero_extendqisi2
 1002 056c 012B     		cmp	r3, #1
 1003 056e 05D1     		bne	.L54
 735:E:/LiteOS/LiteOS_Lab/drivers/third_party/ST/STM32L4xx_HAL_Driver/Src\stm32l4xx_hal_rcc.c ****     {
 736:E:/LiteOS/LiteOS_Lab/drivers/third_party/ST/STM32L4xx_HAL_Driver/Src\stm32l4xx_hal_rcc.c ****       __HAL_RCC_PWR_CLK_DISABLE();
 1004              		.loc 1 736 0
 1005 0570 714B     		ldr	r3, .L89
 1006 0572 9B6D     		ldr	r3, [r3, #88]
 1007 0574 704A     		ldr	r2, .L89
 1008 0576 23F08053 		bic	r3, r3, #268435456
 1009 057a 9365     		str	r3, [r2, #88]
 1010              	.L54:
 1011              	.LBE2:
 737:E:/LiteOS/LiteOS_Lab/drivers/third_party/ST/STM32L4xx_HAL_Driver/Src\stm32l4xx_hal_rcc.c ****     }
 738:E:/LiteOS/LiteOS_Lab/drivers/third_party/ST/STM32L4xx_HAL_Driver/Src\stm32l4xx_hal_rcc.c ****   }
 739:E:/LiteOS/LiteOS_Lab/drivers/third_party/ST/STM32L4xx_HAL_Driver/Src\stm32l4xx_hal_rcc.c **** #if defined(RCC_HSI48_SUPPORT)
 740:E:/LiteOS/LiteOS_Lab/drivers/third_party/ST/STM32L4xx_HAL_Driver/Src\stm32l4xx_hal_rcc.c ****   /*------------------------------ HSI48 Configuration -----------------------*/
 741:E:/LiteOS/LiteOS_Lab/drivers/third_party/ST/STM32L4xx_HAL_Driver/Src\stm32l4xx_hal_rcc.c ****   if(((RCC_OscInitStruct->OscillatorType) & RCC_OSCILLATORTYPE_HSI48) == RCC_OSCILLATORTYPE_HSI48)
ARM GAS  C:\Users\user\AppData\Local\Temp\ccmqW6jC.s 			page 32


 1012              		.loc 1 741 0
 1013 057c 7B68     		ldr	r3, [r7, #4]
 1014 057e 1B68     		ldr	r3, [r3]
 1015 0580 03F02003 		and	r3, r3, #32
 1016 0584 002B     		cmp	r3, #0
 1017 0586 3CD0     		beq	.L68
 742:E:/LiteOS/LiteOS_Lab/drivers/third_party/ST/STM32L4xx_HAL_Driver/Src\stm32l4xx_hal_rcc.c ****   {
 743:E:/LiteOS/LiteOS_Lab/drivers/third_party/ST/STM32L4xx_HAL_Driver/Src\stm32l4xx_hal_rcc.c ****     /* Check the parameters */
 744:E:/LiteOS/LiteOS_Lab/drivers/third_party/ST/STM32L4xx_HAL_Driver/Src\stm32l4xx_hal_rcc.c ****     assert_param(IS_RCC_HSI48(RCC_OscInitStruct->HSI48State));
 745:E:/LiteOS/LiteOS_Lab/drivers/third_party/ST/STM32L4xx_HAL_Driver/Src\stm32l4xx_hal_rcc.c **** 
 746:E:/LiteOS/LiteOS_Lab/drivers/third_party/ST/STM32L4xx_HAL_Driver/Src\stm32l4xx_hal_rcc.c ****     /* Check the LSI State */
 747:E:/LiteOS/LiteOS_Lab/drivers/third_party/ST/STM32L4xx_HAL_Driver/Src\stm32l4xx_hal_rcc.c ****     if(RCC_OscInitStruct->HSI48State != RCC_HSI48_OFF)
 1018              		.loc 1 747 0
 1019 0588 7B68     		ldr	r3, [r7, #4]
 1020 058a 5B6A     		ldr	r3, [r3, #36]
 1021 058c 002B     		cmp	r3, #0
 1022 058e 1CD0     		beq	.L69
 748:E:/LiteOS/LiteOS_Lab/drivers/third_party/ST/STM32L4xx_HAL_Driver/Src\stm32l4xx_hal_rcc.c ****     {
 749:E:/LiteOS/LiteOS_Lab/drivers/third_party/ST/STM32L4xx_HAL_Driver/Src\stm32l4xx_hal_rcc.c ****       /* Enable the Internal Low Speed oscillator (HSI48). */
 750:E:/LiteOS/LiteOS_Lab/drivers/third_party/ST/STM32L4xx_HAL_Driver/Src\stm32l4xx_hal_rcc.c ****       __HAL_RCC_HSI48_ENABLE();
 1023              		.loc 1 750 0
 1024 0590 694B     		ldr	r3, .L89
 1025 0592 D3F89830 		ldr	r3, [r3, #152]
 1026 0596 684A     		ldr	r2, .L89
 1027 0598 43F00103 		orr	r3, r3, #1
 1028 059c C2F89830 		str	r3, [r2, #152]
 751:E:/LiteOS/LiteOS_Lab/drivers/third_party/ST/STM32L4xx_HAL_Driver/Src\stm32l4xx_hal_rcc.c **** 
 752:E:/LiteOS/LiteOS_Lab/drivers/third_party/ST/STM32L4xx_HAL_Driver/Src\stm32l4xx_hal_rcc.c ****       /* Get Start Tick*/
 753:E:/LiteOS/LiteOS_Lab/drivers/third_party/ST/STM32L4xx_HAL_Driver/Src\stm32l4xx_hal_rcc.c ****       tickstart = HAL_GetTick();
 1029              		.loc 1 753 0
 1030 05a0 FFF7FEFF 		bl	HAL_GetTick
 1031 05a4 3861     		str	r0, [r7, #16]
 754:E:/LiteOS/LiteOS_Lab/drivers/third_party/ST/STM32L4xx_HAL_Driver/Src\stm32l4xx_hal_rcc.c **** 
 755:E:/LiteOS/LiteOS_Lab/drivers/third_party/ST/STM32L4xx_HAL_Driver/Src\stm32l4xx_hal_rcc.c ****       /* Wait till HSI48 is ready */
 756:E:/LiteOS/LiteOS_Lab/drivers/third_party/ST/STM32L4xx_HAL_Driver/Src\stm32l4xx_hal_rcc.c ****       while(READ_BIT(RCC->CRRCR, RCC_CRRCR_HSI48RDY) == RESET)
 1032              		.loc 1 756 0
 1033 05a6 08E0     		b	.L70
 1034              	.L71:
 757:E:/LiteOS/LiteOS_Lab/drivers/third_party/ST/STM32L4xx_HAL_Driver/Src\stm32l4xx_hal_rcc.c ****       {
 758:E:/LiteOS/LiteOS_Lab/drivers/third_party/ST/STM32L4xx_HAL_Driver/Src\stm32l4xx_hal_rcc.c ****         if((HAL_GetTick() - tickstart) > HSI48_TIMEOUT_VALUE)
 1035              		.loc 1 758 0
 1036 05a8 FFF7FEFF 		bl	HAL_GetTick
 1037 05ac 0246     		mov	r2, r0
 1038 05ae 3B69     		ldr	r3, [r7, #16]
 1039 05b0 D31A     		subs	r3, r2, r3
 1040 05b2 022B     		cmp	r3, #2
 1041 05b4 01D9     		bls	.L70
 759:E:/LiteOS/LiteOS_Lab/drivers/third_party/ST/STM32L4xx_HAL_Driver/Src\stm32l4xx_hal_rcc.c ****         {
 760:E:/LiteOS/LiteOS_Lab/drivers/third_party/ST/STM32L4xx_HAL_Driver/Src\stm32l4xx_hal_rcc.c ****           return HAL_TIMEOUT;
 1042              		.loc 1 760 0
 1043 05b6 0323     		movs	r3, #3
 1044 05b8 BAE0     		b	.L16
 1045              	.L70:
 756:E:/LiteOS/LiteOS_Lab/drivers/third_party/ST/STM32L4xx_HAL_Driver/Src\stm32l4xx_hal_rcc.c ****       {
 1046              		.loc 1 756 0
 1047 05ba 5F4B     		ldr	r3, .L89
 1048 05bc D3F89830 		ldr	r3, [r3, #152]
ARM GAS  C:\Users\user\AppData\Local\Temp\ccmqW6jC.s 			page 33


 1049 05c0 03F00203 		and	r3, r3, #2
 1050 05c4 002B     		cmp	r3, #0
 1051 05c6 EFD0     		beq	.L71
 1052 05c8 1BE0     		b	.L68
 1053              	.L69:
 761:E:/LiteOS/LiteOS_Lab/drivers/third_party/ST/STM32L4xx_HAL_Driver/Src\stm32l4xx_hal_rcc.c ****         }
 762:E:/LiteOS/LiteOS_Lab/drivers/third_party/ST/STM32L4xx_HAL_Driver/Src\stm32l4xx_hal_rcc.c ****       }
 763:E:/LiteOS/LiteOS_Lab/drivers/third_party/ST/STM32L4xx_HAL_Driver/Src\stm32l4xx_hal_rcc.c ****     }
 764:E:/LiteOS/LiteOS_Lab/drivers/third_party/ST/STM32L4xx_HAL_Driver/Src\stm32l4xx_hal_rcc.c ****     else
 765:E:/LiteOS/LiteOS_Lab/drivers/third_party/ST/STM32L4xx_HAL_Driver/Src\stm32l4xx_hal_rcc.c ****     {
 766:E:/LiteOS/LiteOS_Lab/drivers/third_party/ST/STM32L4xx_HAL_Driver/Src\stm32l4xx_hal_rcc.c ****       /* Disable the Internal Low Speed oscillator (HSI48). */
 767:E:/LiteOS/LiteOS_Lab/drivers/third_party/ST/STM32L4xx_HAL_Driver/Src\stm32l4xx_hal_rcc.c ****       __HAL_RCC_HSI48_DISABLE();
 1054              		.loc 1 767 0
 1055 05ca 5B4B     		ldr	r3, .L89
 1056 05cc D3F89830 		ldr	r3, [r3, #152]
 1057 05d0 594A     		ldr	r2, .L89
 1058 05d2 23F00103 		bic	r3, r3, #1
 1059 05d6 C2F89830 		str	r3, [r2, #152]
 768:E:/LiteOS/LiteOS_Lab/drivers/third_party/ST/STM32L4xx_HAL_Driver/Src\stm32l4xx_hal_rcc.c **** 
 769:E:/LiteOS/LiteOS_Lab/drivers/third_party/ST/STM32L4xx_HAL_Driver/Src\stm32l4xx_hal_rcc.c ****       /* Get Start Tick*/
 770:E:/LiteOS/LiteOS_Lab/drivers/third_party/ST/STM32L4xx_HAL_Driver/Src\stm32l4xx_hal_rcc.c ****       tickstart = HAL_GetTick();
 1060              		.loc 1 770 0
 1061 05da FFF7FEFF 		bl	HAL_GetTick
 1062 05de 3861     		str	r0, [r7, #16]
 771:E:/LiteOS/LiteOS_Lab/drivers/third_party/ST/STM32L4xx_HAL_Driver/Src\stm32l4xx_hal_rcc.c **** 
 772:E:/LiteOS/LiteOS_Lab/drivers/third_party/ST/STM32L4xx_HAL_Driver/Src\stm32l4xx_hal_rcc.c ****       /* Wait till HSI48 is disabled */
 773:E:/LiteOS/LiteOS_Lab/drivers/third_party/ST/STM32L4xx_HAL_Driver/Src\stm32l4xx_hal_rcc.c ****       while(READ_BIT(RCC->CRRCR, RCC_CRRCR_HSI48RDY) != RESET)
 1063              		.loc 1 773 0
 1064 05e0 08E0     		b	.L72
 1065              	.L73:
 774:E:/LiteOS/LiteOS_Lab/drivers/third_party/ST/STM32L4xx_HAL_Driver/Src\stm32l4xx_hal_rcc.c ****       {
 775:E:/LiteOS/LiteOS_Lab/drivers/third_party/ST/STM32L4xx_HAL_Driver/Src\stm32l4xx_hal_rcc.c ****         if((HAL_GetTick() - tickstart) > HSI48_TIMEOUT_VALUE)
 1066              		.loc 1 775 0
 1067 05e2 FFF7FEFF 		bl	HAL_GetTick
 1068 05e6 0246     		mov	r2, r0
 1069 05e8 3B69     		ldr	r3, [r7, #16]
 1070 05ea D31A     		subs	r3, r2, r3
 1071 05ec 022B     		cmp	r3, #2
 1072 05ee 01D9     		bls	.L72
 776:E:/LiteOS/LiteOS_Lab/drivers/third_party/ST/STM32L4xx_HAL_Driver/Src\stm32l4xx_hal_rcc.c ****         {
 777:E:/LiteOS/LiteOS_Lab/drivers/third_party/ST/STM32L4xx_HAL_Driver/Src\stm32l4xx_hal_rcc.c ****           return HAL_TIMEOUT;
 1073              		.loc 1 777 0
 1074 05f0 0323     		movs	r3, #3
 1075 05f2 9DE0     		b	.L16
 1076              	.L72:
 773:E:/LiteOS/LiteOS_Lab/drivers/third_party/ST/STM32L4xx_HAL_Driver/Src\stm32l4xx_hal_rcc.c ****       {
 1077              		.loc 1 773 0
 1078 05f4 504B     		ldr	r3, .L89
 1079 05f6 D3F89830 		ldr	r3, [r3, #152]
 1080 05fa 03F00203 		and	r3, r3, #2
 1081 05fe 002B     		cmp	r3, #0
 1082 0600 EFD1     		bne	.L73
 1083              	.L68:
 778:E:/LiteOS/LiteOS_Lab/drivers/third_party/ST/STM32L4xx_HAL_Driver/Src\stm32l4xx_hal_rcc.c ****         }
 779:E:/LiteOS/LiteOS_Lab/drivers/third_party/ST/STM32L4xx_HAL_Driver/Src\stm32l4xx_hal_rcc.c ****       }
 780:E:/LiteOS/LiteOS_Lab/drivers/third_party/ST/STM32L4xx_HAL_Driver/Src\stm32l4xx_hal_rcc.c ****     }
 781:E:/LiteOS/LiteOS_Lab/drivers/third_party/ST/STM32L4xx_HAL_Driver/Src\stm32l4xx_hal_rcc.c ****   }
ARM GAS  C:\Users\user\AppData\Local\Temp\ccmqW6jC.s 			page 34


 782:E:/LiteOS/LiteOS_Lab/drivers/third_party/ST/STM32L4xx_HAL_Driver/Src\stm32l4xx_hal_rcc.c **** #endif /* RCC_HSI48_SUPPORT */
 783:E:/LiteOS/LiteOS_Lab/drivers/third_party/ST/STM32L4xx_HAL_Driver/Src\stm32l4xx_hal_rcc.c ****   /*-------------------------------- PLL Configuration -----------------------*/
 784:E:/LiteOS/LiteOS_Lab/drivers/third_party/ST/STM32L4xx_HAL_Driver/Src\stm32l4xx_hal_rcc.c ****   /* Check the parameters */
 785:E:/LiteOS/LiteOS_Lab/drivers/third_party/ST/STM32L4xx_HAL_Driver/Src\stm32l4xx_hal_rcc.c ****   assert_param(IS_RCC_PLL(RCC_OscInitStruct->PLL.PLLState));
 786:E:/LiteOS/LiteOS_Lab/drivers/third_party/ST/STM32L4xx_HAL_Driver/Src\stm32l4xx_hal_rcc.c **** 
 787:E:/LiteOS/LiteOS_Lab/drivers/third_party/ST/STM32L4xx_HAL_Driver/Src\stm32l4xx_hal_rcc.c ****   if(RCC_OscInitStruct->PLL.PLLState != RCC_PLL_NONE)
 1084              		.loc 1 787 0
 1085 0602 7B68     		ldr	r3, [r7, #4]
 1086 0604 9B6A     		ldr	r3, [r3, #40]
 1087 0606 002B     		cmp	r3, #0
 1088 0608 00F09180 		beq	.L74
 788:E:/LiteOS/LiteOS_Lab/drivers/third_party/ST/STM32L4xx_HAL_Driver/Src\stm32l4xx_hal_rcc.c ****   {
 789:E:/LiteOS/LiteOS_Lab/drivers/third_party/ST/STM32L4xx_HAL_Driver/Src\stm32l4xx_hal_rcc.c ****     /* Check if the PLL is used as system clock or not */
 790:E:/LiteOS/LiteOS_Lab/drivers/third_party/ST/STM32L4xx_HAL_Driver/Src\stm32l4xx_hal_rcc.c ****     if(__HAL_RCC_GET_SYSCLK_SOURCE() != RCC_CFGR_SWS_PLL)
 1089              		.loc 1 790 0
 1090 060c 4A4B     		ldr	r3, .L89
 1091 060e 9B68     		ldr	r3, [r3, #8]
 1092 0610 03F00C03 		and	r3, r3, #12
 1093 0614 0C2B     		cmp	r3, #12
 1094 0616 00F08880 		beq	.L75
 791:E:/LiteOS/LiteOS_Lab/drivers/third_party/ST/STM32L4xx_HAL_Driver/Src\stm32l4xx_hal_rcc.c ****     {
 792:E:/LiteOS/LiteOS_Lab/drivers/third_party/ST/STM32L4xx_HAL_Driver/Src\stm32l4xx_hal_rcc.c ****       if(RCC_OscInitStruct->PLL.PLLState == RCC_PLL_ON)
 1095              		.loc 1 792 0
 1096 061a 7B68     		ldr	r3, [r7, #4]
 1097 061c 9B6A     		ldr	r3, [r3, #40]
 1098 061e 022B     		cmp	r3, #2
 1099 0620 55D1     		bne	.L76
 793:E:/LiteOS/LiteOS_Lab/drivers/third_party/ST/STM32L4xx_HAL_Driver/Src\stm32l4xx_hal_rcc.c ****       {
 794:E:/LiteOS/LiteOS_Lab/drivers/third_party/ST/STM32L4xx_HAL_Driver/Src\stm32l4xx_hal_rcc.c ****         /* Check the parameters */
 795:E:/LiteOS/LiteOS_Lab/drivers/third_party/ST/STM32L4xx_HAL_Driver/Src\stm32l4xx_hal_rcc.c ****         assert_param(IS_RCC_PLLSOURCE(RCC_OscInitStruct->PLL.PLLSource));
 796:E:/LiteOS/LiteOS_Lab/drivers/third_party/ST/STM32L4xx_HAL_Driver/Src\stm32l4xx_hal_rcc.c ****         assert_param(IS_RCC_PLLM_VALUE(RCC_OscInitStruct->PLL.PLLM));
 797:E:/LiteOS/LiteOS_Lab/drivers/third_party/ST/STM32L4xx_HAL_Driver/Src\stm32l4xx_hal_rcc.c ****         assert_param(IS_RCC_PLLN_VALUE(RCC_OscInitStruct->PLL.PLLN));
 798:E:/LiteOS/LiteOS_Lab/drivers/third_party/ST/STM32L4xx_HAL_Driver/Src\stm32l4xx_hal_rcc.c ****         assert_param(IS_RCC_PLLP_VALUE(RCC_OscInitStruct->PLL.PLLP));
 799:E:/LiteOS/LiteOS_Lab/drivers/third_party/ST/STM32L4xx_HAL_Driver/Src\stm32l4xx_hal_rcc.c ****         assert_param(IS_RCC_PLLQ_VALUE(RCC_OscInitStruct->PLL.PLLQ));
 800:E:/LiteOS/LiteOS_Lab/drivers/third_party/ST/STM32L4xx_HAL_Driver/Src\stm32l4xx_hal_rcc.c ****         assert_param(IS_RCC_PLLR_VALUE(RCC_OscInitStruct->PLL.PLLR));
 801:E:/LiteOS/LiteOS_Lab/drivers/third_party/ST/STM32L4xx_HAL_Driver/Src\stm32l4xx_hal_rcc.c **** 
 802:E:/LiteOS/LiteOS_Lab/drivers/third_party/ST/STM32L4xx_HAL_Driver/Src\stm32l4xx_hal_rcc.c ****         /* Disable the main PLL. */
 803:E:/LiteOS/LiteOS_Lab/drivers/third_party/ST/STM32L4xx_HAL_Driver/Src\stm32l4xx_hal_rcc.c ****         __HAL_RCC_PLL_DISABLE();
 1100              		.loc 1 803 0
 1101 0622 454B     		ldr	r3, .L89
 1102 0624 1B68     		ldr	r3, [r3]
 1103 0626 444A     		ldr	r2, .L89
 1104 0628 23F08073 		bic	r3, r3, #16777216
 1105 062c 1360     		str	r3, [r2]
 804:E:/LiteOS/LiteOS_Lab/drivers/third_party/ST/STM32L4xx_HAL_Driver/Src\stm32l4xx_hal_rcc.c **** 
 805:E:/LiteOS/LiteOS_Lab/drivers/third_party/ST/STM32L4xx_HAL_Driver/Src\stm32l4xx_hal_rcc.c ****         /* Get Start Tick*/
 806:E:/LiteOS/LiteOS_Lab/drivers/third_party/ST/STM32L4xx_HAL_Driver/Src\stm32l4xx_hal_rcc.c ****         tickstart = HAL_GetTick();
 1106              		.loc 1 806 0
 1107 062e FFF7FEFF 		bl	HAL_GetTick
 1108 0632 3861     		str	r0, [r7, #16]
 807:E:/LiteOS/LiteOS_Lab/drivers/third_party/ST/STM32L4xx_HAL_Driver/Src\stm32l4xx_hal_rcc.c **** 
 808:E:/LiteOS/LiteOS_Lab/drivers/third_party/ST/STM32L4xx_HAL_Driver/Src\stm32l4xx_hal_rcc.c ****         /* Wait till PLL is ready */
 809:E:/LiteOS/LiteOS_Lab/drivers/third_party/ST/STM32L4xx_HAL_Driver/Src\stm32l4xx_hal_rcc.c ****         while(READ_BIT(RCC->CR, RCC_CR_PLLRDY) != RESET)
 1109              		.loc 1 809 0
 1110 0634 08E0     		b	.L77
 1111              	.L78:
 810:E:/LiteOS/LiteOS_Lab/drivers/third_party/ST/STM32L4xx_HAL_Driver/Src\stm32l4xx_hal_rcc.c ****         {
ARM GAS  C:\Users\user\AppData\Local\Temp\ccmqW6jC.s 			page 35


 811:E:/LiteOS/LiteOS_Lab/drivers/third_party/ST/STM32L4xx_HAL_Driver/Src\stm32l4xx_hal_rcc.c ****           if((HAL_GetTick() - tickstart) > PLL_TIMEOUT_VALUE)
 1112              		.loc 1 811 0
 1113 0636 FFF7FEFF 		bl	HAL_GetTick
 1114 063a 0246     		mov	r2, r0
 1115 063c 3B69     		ldr	r3, [r7, #16]
 1116 063e D31A     		subs	r3, r2, r3
 1117 0640 022B     		cmp	r3, #2
 1118 0642 01D9     		bls	.L77
 812:E:/LiteOS/LiteOS_Lab/drivers/third_party/ST/STM32L4xx_HAL_Driver/Src\stm32l4xx_hal_rcc.c ****           {
 813:E:/LiteOS/LiteOS_Lab/drivers/third_party/ST/STM32L4xx_HAL_Driver/Src\stm32l4xx_hal_rcc.c ****             return HAL_TIMEOUT;
 1119              		.loc 1 813 0
 1120 0644 0323     		movs	r3, #3
 1121 0646 73E0     		b	.L16
 1122              	.L77:
 809:E:/LiteOS/LiteOS_Lab/drivers/third_party/ST/STM32L4xx_HAL_Driver/Src\stm32l4xx_hal_rcc.c ****         {
 1123              		.loc 1 809 0
 1124 0648 3B4B     		ldr	r3, .L89
 1125 064a 1B68     		ldr	r3, [r3]
 1126 064c 03F00073 		and	r3, r3, #33554432
 1127 0650 002B     		cmp	r3, #0
 1128 0652 F0D1     		bne	.L78
 814:E:/LiteOS/LiteOS_Lab/drivers/third_party/ST/STM32L4xx_HAL_Driver/Src\stm32l4xx_hal_rcc.c ****           }
 815:E:/LiteOS/LiteOS_Lab/drivers/third_party/ST/STM32L4xx_HAL_Driver/Src\stm32l4xx_hal_rcc.c ****         }
 816:E:/LiteOS/LiteOS_Lab/drivers/third_party/ST/STM32L4xx_HAL_Driver/Src\stm32l4xx_hal_rcc.c **** 
 817:E:/LiteOS/LiteOS_Lab/drivers/third_party/ST/STM32L4xx_HAL_Driver/Src\stm32l4xx_hal_rcc.c ****         /* Configure the main PLL clock source, multiplication and division factors. */
 818:E:/LiteOS/LiteOS_Lab/drivers/third_party/ST/STM32L4xx_HAL_Driver/Src\stm32l4xx_hal_rcc.c ****         __HAL_RCC_PLL_CONFIG(RCC_OscInitStruct->PLL.PLLSource,
 1129              		.loc 1 818 0
 1130 0654 7B68     		ldr	r3, [r7, #4]
 1131 0656 1B6B     		ldr	r3, [r3, #48]
 1132 0658 013B     		subs	r3, r3, #1
 1133 065a 1A01     		lsls	r2, r3, #4
 1134 065c 7B68     		ldr	r3, [r7, #4]
 1135 065e 5B6B     		ldr	r3, [r3, #52]
 1136 0660 1B02     		lsls	r3, r3, #8
 1137 0662 1A43     		orrs	r2, r2, r3
 1138 0664 7B68     		ldr	r3, [r7, #4]
 1139 0666 DB6A     		ldr	r3, [r3, #44]
 1140 0668 1A43     		orrs	r2, r2, r3
 1141 066a 7B68     		ldr	r3, [r7, #4]
 1142 066c DB6B     		ldr	r3, [r3, #60]
 1143 066e 5B08     		lsrs	r3, r3, #1
 1144 0670 013B     		subs	r3, r3, #1
 1145 0672 5B05     		lsls	r3, r3, #21
 1146 0674 1A43     		orrs	r2, r2, r3
 1147 0676 7B68     		ldr	r3, [r7, #4]
 1148 0678 1B6C     		ldr	r3, [r3, #64]
 1149 067a 5B08     		lsrs	r3, r3, #1
 1150 067c 013B     		subs	r3, r3, #1
 1151 067e 5B06     		lsls	r3, r3, #25
 1152 0680 1A43     		orrs	r2, r2, r3
 1153 0682 7B68     		ldr	r3, [r7, #4]
 1154 0684 9B6B     		ldr	r3, [r3, #56]
 1155 0686 DB06     		lsls	r3, r3, #27
 1156 0688 2B49     		ldr	r1, .L89
 1157 068a 1343     		orrs	r3, r3, r2
 1158 068c CB60     		str	r3, [r1, #12]
 819:E:/LiteOS/LiteOS_Lab/drivers/third_party/ST/STM32L4xx_HAL_Driver/Src\stm32l4xx_hal_rcc.c ****                              RCC_OscInitStruct->PLL.PLLM,
ARM GAS  C:\Users\user\AppData\Local\Temp\ccmqW6jC.s 			page 36


 820:E:/LiteOS/LiteOS_Lab/drivers/third_party/ST/STM32L4xx_HAL_Driver/Src\stm32l4xx_hal_rcc.c ****                              RCC_OscInitStruct->PLL.PLLN,
 821:E:/LiteOS/LiteOS_Lab/drivers/third_party/ST/STM32L4xx_HAL_Driver/Src\stm32l4xx_hal_rcc.c ****                              RCC_OscInitStruct->PLL.PLLP,
 822:E:/LiteOS/LiteOS_Lab/drivers/third_party/ST/STM32L4xx_HAL_Driver/Src\stm32l4xx_hal_rcc.c ****                              RCC_OscInitStruct->PLL.PLLQ,
 823:E:/LiteOS/LiteOS_Lab/drivers/third_party/ST/STM32L4xx_HAL_Driver/Src\stm32l4xx_hal_rcc.c ****                              RCC_OscInitStruct->PLL.PLLR);
 824:E:/LiteOS/LiteOS_Lab/drivers/third_party/ST/STM32L4xx_HAL_Driver/Src\stm32l4xx_hal_rcc.c **** 
 825:E:/LiteOS/LiteOS_Lab/drivers/third_party/ST/STM32L4xx_HAL_Driver/Src\stm32l4xx_hal_rcc.c ****         /* Enable the main PLL. */
 826:E:/LiteOS/LiteOS_Lab/drivers/third_party/ST/STM32L4xx_HAL_Driver/Src\stm32l4xx_hal_rcc.c ****         __HAL_RCC_PLL_ENABLE();
 1159              		.loc 1 826 0
 1160 068e 2A4B     		ldr	r3, .L89
 1161 0690 1B68     		ldr	r3, [r3]
 1162 0692 294A     		ldr	r2, .L89
 1163 0694 43F08073 		orr	r3, r3, #16777216
 1164 0698 1360     		str	r3, [r2]
 827:E:/LiteOS/LiteOS_Lab/drivers/third_party/ST/STM32L4xx_HAL_Driver/Src\stm32l4xx_hal_rcc.c **** 
 828:E:/LiteOS/LiteOS_Lab/drivers/third_party/ST/STM32L4xx_HAL_Driver/Src\stm32l4xx_hal_rcc.c ****         /* Enable PLL System Clock output. */
 829:E:/LiteOS/LiteOS_Lab/drivers/third_party/ST/STM32L4xx_HAL_Driver/Src\stm32l4xx_hal_rcc.c ****          __HAL_RCC_PLLCLKOUT_ENABLE(RCC_PLL_SYSCLK);
 1165              		.loc 1 829 0
 1166 069a 274B     		ldr	r3, .L89
 1167 069c DB68     		ldr	r3, [r3, #12]
 1168 069e 264A     		ldr	r2, .L89
 1169 06a0 43F08073 		orr	r3, r3, #16777216
 1170 06a4 D360     		str	r3, [r2, #12]
 830:E:/LiteOS/LiteOS_Lab/drivers/third_party/ST/STM32L4xx_HAL_Driver/Src\stm32l4xx_hal_rcc.c **** 
 831:E:/LiteOS/LiteOS_Lab/drivers/third_party/ST/STM32L4xx_HAL_Driver/Src\stm32l4xx_hal_rcc.c ****         /* Get Start Tick*/
 832:E:/LiteOS/LiteOS_Lab/drivers/third_party/ST/STM32L4xx_HAL_Driver/Src\stm32l4xx_hal_rcc.c ****         tickstart = HAL_GetTick();
 1171              		.loc 1 832 0
 1172 06a6 FFF7FEFF 		bl	HAL_GetTick
 1173 06aa 3861     		str	r0, [r7, #16]
 833:E:/LiteOS/LiteOS_Lab/drivers/third_party/ST/STM32L4xx_HAL_Driver/Src\stm32l4xx_hal_rcc.c **** 
 834:E:/LiteOS/LiteOS_Lab/drivers/third_party/ST/STM32L4xx_HAL_Driver/Src\stm32l4xx_hal_rcc.c ****         /* Wait till PLL is ready */
 835:E:/LiteOS/LiteOS_Lab/drivers/third_party/ST/STM32L4xx_HAL_Driver/Src\stm32l4xx_hal_rcc.c ****         while(READ_BIT(RCC->CR, RCC_CR_PLLRDY) == RESET)
 1174              		.loc 1 835 0
 1175 06ac 08E0     		b	.L79
 1176              	.L80:
 836:E:/LiteOS/LiteOS_Lab/drivers/third_party/ST/STM32L4xx_HAL_Driver/Src\stm32l4xx_hal_rcc.c ****         {
 837:E:/LiteOS/LiteOS_Lab/drivers/third_party/ST/STM32L4xx_HAL_Driver/Src\stm32l4xx_hal_rcc.c ****           if((HAL_GetTick() - tickstart) > PLL_TIMEOUT_VALUE)
 1177              		.loc 1 837 0
 1178 06ae FFF7FEFF 		bl	HAL_GetTick
 1179 06b2 0246     		mov	r2, r0
 1180 06b4 3B69     		ldr	r3, [r7, #16]
 1181 06b6 D31A     		subs	r3, r2, r3
 1182 06b8 022B     		cmp	r3, #2
 1183 06ba 01D9     		bls	.L79
 838:E:/LiteOS/LiteOS_Lab/drivers/third_party/ST/STM32L4xx_HAL_Driver/Src\stm32l4xx_hal_rcc.c ****           {
 839:E:/LiteOS/LiteOS_Lab/drivers/third_party/ST/STM32L4xx_HAL_Driver/Src\stm32l4xx_hal_rcc.c ****             return HAL_TIMEOUT;
 1184              		.loc 1 839 0
 1185 06bc 0323     		movs	r3, #3
 1186 06be 37E0     		b	.L16
 1187              	.L79:
 835:E:/LiteOS/LiteOS_Lab/drivers/third_party/ST/STM32L4xx_HAL_Driver/Src\stm32l4xx_hal_rcc.c ****         {
 1188              		.loc 1 835 0
 1189 06c0 1D4B     		ldr	r3, .L89
 1190 06c2 1B68     		ldr	r3, [r3]
 1191 06c4 03F00073 		and	r3, r3, #33554432
 1192 06c8 002B     		cmp	r3, #0
 1193 06ca F0D0     		beq	.L80
 1194 06cc 2FE0     		b	.L74
ARM GAS  C:\Users\user\AppData\Local\Temp\ccmqW6jC.s 			page 37


 1195              	.L76:
 840:E:/LiteOS/LiteOS_Lab/drivers/third_party/ST/STM32L4xx_HAL_Driver/Src\stm32l4xx_hal_rcc.c ****           }
 841:E:/LiteOS/LiteOS_Lab/drivers/third_party/ST/STM32L4xx_HAL_Driver/Src\stm32l4xx_hal_rcc.c ****         }
 842:E:/LiteOS/LiteOS_Lab/drivers/third_party/ST/STM32L4xx_HAL_Driver/Src\stm32l4xx_hal_rcc.c ****       }
 843:E:/LiteOS/LiteOS_Lab/drivers/third_party/ST/STM32L4xx_HAL_Driver/Src\stm32l4xx_hal_rcc.c ****       else
 844:E:/LiteOS/LiteOS_Lab/drivers/third_party/ST/STM32L4xx_HAL_Driver/Src\stm32l4xx_hal_rcc.c ****       {
 845:E:/LiteOS/LiteOS_Lab/drivers/third_party/ST/STM32L4xx_HAL_Driver/Src\stm32l4xx_hal_rcc.c ****         /* Disable the main PLL. */
 846:E:/LiteOS/LiteOS_Lab/drivers/third_party/ST/STM32L4xx_HAL_Driver/Src\stm32l4xx_hal_rcc.c ****         __HAL_RCC_PLL_DISABLE();
 1196              		.loc 1 846 0
 1197 06ce 1A4B     		ldr	r3, .L89
 1198 06d0 1B68     		ldr	r3, [r3]
 1199 06d2 194A     		ldr	r2, .L89
 1200 06d4 23F08073 		bic	r3, r3, #16777216
 1201 06d8 1360     		str	r3, [r2]
 847:E:/LiteOS/LiteOS_Lab/drivers/third_party/ST/STM32L4xx_HAL_Driver/Src\stm32l4xx_hal_rcc.c **** 
 848:E:/LiteOS/LiteOS_Lab/drivers/third_party/ST/STM32L4xx_HAL_Driver/Src\stm32l4xx_hal_rcc.c ****         /* Disable all PLL outputs to save power if no PLLs on */
 849:E:/LiteOS/LiteOS_Lab/drivers/third_party/ST/STM32L4xx_HAL_Driver/Src\stm32l4xx_hal_rcc.c ****         if((READ_BIT(RCC->CR, RCC_CR_PLLSAI1RDY) == RESET)
 1202              		.loc 1 849 0
 1203 06da 174B     		ldr	r3, .L89
 1204 06dc 1B68     		ldr	r3, [r3]
 1205 06de 03F00063 		and	r3, r3, #134217728
 1206 06e2 002B     		cmp	r3, #0
 1207 06e4 05D1     		bne	.L81
 850:E:/LiteOS/LiteOS_Lab/drivers/third_party/ST/STM32L4xx_HAL_Driver/Src\stm32l4xx_hal_rcc.c **** #if defined(RCC_PLLSAI2_SUPPORT)
 851:E:/LiteOS/LiteOS_Lab/drivers/third_party/ST/STM32L4xx_HAL_Driver/Src\stm32l4xx_hal_rcc.c ****            &&
 852:E:/LiteOS/LiteOS_Lab/drivers/third_party/ST/STM32L4xx_HAL_Driver/Src\stm32l4xx_hal_rcc.c ****            (READ_BIT(RCC->CR, RCC_CR_PLLSAI2RDY) == RESET)
 853:E:/LiteOS/LiteOS_Lab/drivers/third_party/ST/STM32L4xx_HAL_Driver/Src\stm32l4xx_hal_rcc.c **** #endif /* RCC_PLLSAI2_SUPPORT */
 854:E:/LiteOS/LiteOS_Lab/drivers/third_party/ST/STM32L4xx_HAL_Driver/Src\stm32l4xx_hal_rcc.c ****           )
 855:E:/LiteOS/LiteOS_Lab/drivers/third_party/ST/STM32L4xx_HAL_Driver/Src\stm32l4xx_hal_rcc.c ****         {
 856:E:/LiteOS/LiteOS_Lab/drivers/third_party/ST/STM32L4xx_HAL_Driver/Src\stm32l4xx_hal_rcc.c ****           MODIFY_REG(RCC->PLLCFGR, RCC_PLLCFGR_PLLSRC, RCC_PLLSOURCE_NONE);
 1208              		.loc 1 856 0
 1209 06e6 144B     		ldr	r3, .L89
 1210 06e8 DB68     		ldr	r3, [r3, #12]
 1211 06ea 134A     		ldr	r2, .L89
 1212 06ec 23F00303 		bic	r3, r3, #3
 1213 06f0 D360     		str	r3, [r2, #12]
 1214              	.L81:
 857:E:/LiteOS/LiteOS_Lab/drivers/third_party/ST/STM32L4xx_HAL_Driver/Src\stm32l4xx_hal_rcc.c ****         }
 858:E:/LiteOS/LiteOS_Lab/drivers/third_party/ST/STM32L4xx_HAL_Driver/Src\stm32l4xx_hal_rcc.c **** 
 859:E:/LiteOS/LiteOS_Lab/drivers/third_party/ST/STM32L4xx_HAL_Driver/Src\stm32l4xx_hal_rcc.c **** #if defined(RCC_PLLSAI2_SUPPORT)
 860:E:/LiteOS/LiteOS_Lab/drivers/third_party/ST/STM32L4xx_HAL_Driver/Src\stm32l4xx_hal_rcc.c ****         __HAL_RCC_PLLCLKOUT_DISABLE(RCC_PLL_SYSCLK | RCC_PLL_48M1CLK | RCC_PLL_SAI3CLK);
 861:E:/LiteOS/LiteOS_Lab/drivers/third_party/ST/STM32L4xx_HAL_Driver/Src\stm32l4xx_hal_rcc.c **** #else
 862:E:/LiteOS/LiteOS_Lab/drivers/third_party/ST/STM32L4xx_HAL_Driver/Src\stm32l4xx_hal_rcc.c ****         __HAL_RCC_PLLCLKOUT_DISABLE(RCC_PLL_SYSCLK | RCC_PLL_48M1CLK | RCC_PLL_SAI2CLK);
 1215              		.loc 1 862 0
 1216 06f2 114B     		ldr	r3, .L89
 1217 06f4 DB68     		ldr	r3, [r3, #12]
 1218 06f6 104A     		ldr	r2, .L89
 1219 06f8 23F08873 		bic	r3, r3, #17825792
 1220 06fc 23F48033 		bic	r3, r3, #65536
 1221 0700 D360     		str	r3, [r2, #12]
 863:E:/LiteOS/LiteOS_Lab/drivers/third_party/ST/STM32L4xx_HAL_Driver/Src\stm32l4xx_hal_rcc.c **** #endif /* RCC_PLLSAI2_SUPPORT */
 864:E:/LiteOS/LiteOS_Lab/drivers/third_party/ST/STM32L4xx_HAL_Driver/Src\stm32l4xx_hal_rcc.c **** 
 865:E:/LiteOS/LiteOS_Lab/drivers/third_party/ST/STM32L4xx_HAL_Driver/Src\stm32l4xx_hal_rcc.c ****         /* Get Start Tick*/
 866:E:/LiteOS/LiteOS_Lab/drivers/third_party/ST/STM32L4xx_HAL_Driver/Src\stm32l4xx_hal_rcc.c ****         tickstart = HAL_GetTick();
 1222              		.loc 1 866 0
 1223 0702 FFF7FEFF 		bl	HAL_GetTick
 1224 0706 3861     		str	r0, [r7, #16]
ARM GAS  C:\Users\user\AppData\Local\Temp\ccmqW6jC.s 			page 38


 867:E:/LiteOS/LiteOS_Lab/drivers/third_party/ST/STM32L4xx_HAL_Driver/Src\stm32l4xx_hal_rcc.c **** 
 868:E:/LiteOS/LiteOS_Lab/drivers/third_party/ST/STM32L4xx_HAL_Driver/Src\stm32l4xx_hal_rcc.c ****         /* Wait till PLL is disabled */
 869:E:/LiteOS/LiteOS_Lab/drivers/third_party/ST/STM32L4xx_HAL_Driver/Src\stm32l4xx_hal_rcc.c ****         while(READ_BIT(RCC->CR, RCC_CR_PLLRDY) != RESET)
 1225              		.loc 1 869 0
 1226 0708 08E0     		b	.L82
 1227              	.L83:
 870:E:/LiteOS/LiteOS_Lab/drivers/third_party/ST/STM32L4xx_HAL_Driver/Src\stm32l4xx_hal_rcc.c ****         {
 871:E:/LiteOS/LiteOS_Lab/drivers/third_party/ST/STM32L4xx_HAL_Driver/Src\stm32l4xx_hal_rcc.c ****           if((HAL_GetTick() - tickstart) > PLL_TIMEOUT_VALUE)
 1228              		.loc 1 871 0
 1229 070a FFF7FEFF 		bl	HAL_GetTick
 1230 070e 0246     		mov	r2, r0
 1231 0710 3B69     		ldr	r3, [r7, #16]
 1232 0712 D31A     		subs	r3, r2, r3
 1233 0714 022B     		cmp	r3, #2
 1234 0716 01D9     		bls	.L82
 872:E:/LiteOS/LiteOS_Lab/drivers/third_party/ST/STM32L4xx_HAL_Driver/Src\stm32l4xx_hal_rcc.c ****           {
 873:E:/LiteOS/LiteOS_Lab/drivers/third_party/ST/STM32L4xx_HAL_Driver/Src\stm32l4xx_hal_rcc.c ****             return HAL_TIMEOUT;
 1235              		.loc 1 873 0
 1236 0718 0323     		movs	r3, #3
 1237 071a 09E0     		b	.L16
 1238              	.L82:
 869:E:/LiteOS/LiteOS_Lab/drivers/third_party/ST/STM32L4xx_HAL_Driver/Src\stm32l4xx_hal_rcc.c ****         {
 1239              		.loc 1 869 0
 1240 071c 064B     		ldr	r3, .L89
 1241 071e 1B68     		ldr	r3, [r3]
 1242 0720 03F00073 		and	r3, r3, #33554432
 1243 0724 002B     		cmp	r3, #0
 1244 0726 F0D1     		bne	.L83
 1245 0728 01E0     		b	.L74
 1246              	.L75:
 874:E:/LiteOS/LiteOS_Lab/drivers/third_party/ST/STM32L4xx_HAL_Driver/Src\stm32l4xx_hal_rcc.c ****           }
 875:E:/LiteOS/LiteOS_Lab/drivers/third_party/ST/STM32L4xx_HAL_Driver/Src\stm32l4xx_hal_rcc.c ****         }
 876:E:/LiteOS/LiteOS_Lab/drivers/third_party/ST/STM32L4xx_HAL_Driver/Src\stm32l4xx_hal_rcc.c ****       }
 877:E:/LiteOS/LiteOS_Lab/drivers/third_party/ST/STM32L4xx_HAL_Driver/Src\stm32l4xx_hal_rcc.c ****     }
 878:E:/LiteOS/LiteOS_Lab/drivers/third_party/ST/STM32L4xx_HAL_Driver/Src\stm32l4xx_hal_rcc.c ****     else
 879:E:/LiteOS/LiteOS_Lab/drivers/third_party/ST/STM32L4xx_HAL_Driver/Src\stm32l4xx_hal_rcc.c ****     {
 880:E:/LiteOS/LiteOS_Lab/drivers/third_party/ST/STM32L4xx_HAL_Driver/Src\stm32l4xx_hal_rcc.c ****       return HAL_ERROR;
 1247              		.loc 1 880 0
 1248 072a 0123     		movs	r3, #1
 1249 072c 00E0     		b	.L16
 1250              	.L74:
 881:E:/LiteOS/LiteOS_Lab/drivers/third_party/ST/STM32L4xx_HAL_Driver/Src\stm32l4xx_hal_rcc.c ****     }
 882:E:/LiteOS/LiteOS_Lab/drivers/third_party/ST/STM32L4xx_HAL_Driver/Src\stm32l4xx_hal_rcc.c ****   }
 883:E:/LiteOS/LiteOS_Lab/drivers/third_party/ST/STM32L4xx_HAL_Driver/Src\stm32l4xx_hal_rcc.c ****   return HAL_OK;
 1251              		.loc 1 883 0
 1252 072e 0023     		movs	r3, #0
 1253              	.L16:
 884:E:/LiteOS/LiteOS_Lab/drivers/third_party/ST/STM32L4xx_HAL_Driver/Src\stm32l4xx_hal_rcc.c **** }
 1254              		.loc 1 884 0
 1255 0730 1846     		mov	r0, r3
 1256 0732 1837     		adds	r7, r7, #24
 1257              	.LCFI8:
 1258              		.cfi_def_cfa_offset 8
 1259 0734 BD46     		mov	sp, r7
 1260              	.LCFI9:
 1261              		.cfi_def_cfa_register 13
 1262              		@ sp needed
ARM GAS  C:\Users\user\AppData\Local\Temp\ccmqW6jC.s 			page 39


 1263 0736 80BD     		pop	{r7, pc}
 1264              	.L90:
 1265              		.align	2
 1266              	.L89:
 1267 0738 00100240 		.word	1073876992
 1268              		.cfi_endproc
 1269              	.LFE134:
 1271              		.section	.text.HAL_RCC_ClockConfig,"ax",%progbits
 1272              		.align	1
 1273              		.global	HAL_RCC_ClockConfig
 1274              		.syntax unified
 1275              		.thumb
 1276              		.thumb_func
 1277              		.fpu fpv4-sp-d16
 1279              	HAL_RCC_ClockConfig:
 1280              	.LFB135:
 885:E:/LiteOS/LiteOS_Lab/drivers/third_party/ST/STM32L4xx_HAL_Driver/Src\stm32l4xx_hal_rcc.c **** 
 886:E:/LiteOS/LiteOS_Lab/drivers/third_party/ST/STM32L4xx_HAL_Driver/Src\stm32l4xx_hal_rcc.c **** /**
 887:E:/LiteOS/LiteOS_Lab/drivers/third_party/ST/STM32L4xx_HAL_Driver/Src\stm32l4xx_hal_rcc.c ****   * @brief  Initialize the CPU, AHB and APB busses clocks according to the specified
 888:E:/LiteOS/LiteOS_Lab/drivers/third_party/ST/STM32L4xx_HAL_Driver/Src\stm32l4xx_hal_rcc.c ****   *         parameters in the RCC_ClkInitStruct.
 889:E:/LiteOS/LiteOS_Lab/drivers/third_party/ST/STM32L4xx_HAL_Driver/Src\stm32l4xx_hal_rcc.c ****   * @param  RCC_ClkInitStruct  pointer to an RCC_OscInitTypeDef structure that
 890:E:/LiteOS/LiteOS_Lab/drivers/third_party/ST/STM32L4xx_HAL_Driver/Src\stm32l4xx_hal_rcc.c ****   *         contains the configuration information for the RCC peripheral.
 891:E:/LiteOS/LiteOS_Lab/drivers/third_party/ST/STM32L4xx_HAL_Driver/Src\stm32l4xx_hal_rcc.c ****   * @param  FLatency  FLASH Latency
 892:E:/LiteOS/LiteOS_Lab/drivers/third_party/ST/STM32L4xx_HAL_Driver/Src\stm32l4xx_hal_rcc.c ****   *          This parameter can be one of the following values:
 893:E:/LiteOS/LiteOS_Lab/drivers/third_party/ST/STM32L4xx_HAL_Driver/Src\stm32l4xx_hal_rcc.c ****   *            @arg FLASH_LATENCY_0   FLASH 0 Latency cycle
 894:E:/LiteOS/LiteOS_Lab/drivers/third_party/ST/STM32L4xx_HAL_Driver/Src\stm32l4xx_hal_rcc.c ****   *            @arg FLASH_LATENCY_1   FLASH 1 Latency cycle
 895:E:/LiteOS/LiteOS_Lab/drivers/third_party/ST/STM32L4xx_HAL_Driver/Src\stm32l4xx_hal_rcc.c ****   *            @arg FLASH_LATENCY_2   FLASH 2 Latency cycles
 896:E:/LiteOS/LiteOS_Lab/drivers/third_party/ST/STM32L4xx_HAL_Driver/Src\stm32l4xx_hal_rcc.c ****   *            @arg FLASH_LATENCY_3   FLASH 3 Latency cycles
 897:E:/LiteOS/LiteOS_Lab/drivers/third_party/ST/STM32L4xx_HAL_Driver/Src\stm32l4xx_hal_rcc.c ****   *            @arg FLASH_LATENCY_4   FLASH 4 Latency cycles
 898:E:/LiteOS/LiteOS_Lab/drivers/third_party/ST/STM32L4xx_HAL_Driver/Src\stm32l4xx_hal_rcc.c ****   @if STM32L4S9xx
 899:E:/LiteOS/LiteOS_Lab/drivers/third_party/ST/STM32L4xx_HAL_Driver/Src\stm32l4xx_hal_rcc.c ****   *            @arg FLASH_LATENCY_5   FLASH 5 Latency cycles
 900:E:/LiteOS/LiteOS_Lab/drivers/third_party/ST/STM32L4xx_HAL_Driver/Src\stm32l4xx_hal_rcc.c ****   *            @arg FLASH_LATENCY_6   FLASH 6 Latency cycles
 901:E:/LiteOS/LiteOS_Lab/drivers/third_party/ST/STM32L4xx_HAL_Driver/Src\stm32l4xx_hal_rcc.c ****   *            @arg FLASH_LATENCY_7   FLASH 7 Latency cycles
 902:E:/LiteOS/LiteOS_Lab/drivers/third_party/ST/STM32L4xx_HAL_Driver/Src\stm32l4xx_hal_rcc.c ****   *            @arg FLASH_LATENCY_8   FLASH 8 Latency cycles
 903:E:/LiteOS/LiteOS_Lab/drivers/third_party/ST/STM32L4xx_HAL_Driver/Src\stm32l4xx_hal_rcc.c ****   *            @arg FLASH_LATENCY_9   FLASH 9 Latency cycles
 904:E:/LiteOS/LiteOS_Lab/drivers/third_party/ST/STM32L4xx_HAL_Driver/Src\stm32l4xx_hal_rcc.c ****   *            @arg FLASH_LATENCY_10  FLASH 10 Latency cycles
 905:E:/LiteOS/LiteOS_Lab/drivers/third_party/ST/STM32L4xx_HAL_Driver/Src\stm32l4xx_hal_rcc.c ****   *            @arg FLASH_LATENCY_11  FLASH 11 Latency cycles
 906:E:/LiteOS/LiteOS_Lab/drivers/third_party/ST/STM32L4xx_HAL_Driver/Src\stm32l4xx_hal_rcc.c ****   *            @arg FLASH_LATENCY_12  FLASH 12 Latency cycles
 907:E:/LiteOS/LiteOS_Lab/drivers/third_party/ST/STM32L4xx_HAL_Driver/Src\stm32l4xx_hal_rcc.c ****   *            @arg FLASH_LATENCY_13  FLASH 13 Latency cycles
 908:E:/LiteOS/LiteOS_Lab/drivers/third_party/ST/STM32L4xx_HAL_Driver/Src\stm32l4xx_hal_rcc.c ****   *            @arg FLASH_LATENCY_14  FLASH 14 Latency cycles
 909:E:/LiteOS/LiteOS_Lab/drivers/third_party/ST/STM32L4xx_HAL_Driver/Src\stm32l4xx_hal_rcc.c ****   *            @arg FLASH_LATENCY_15  FLASH 15 Latency cycles
 910:E:/LiteOS/LiteOS_Lab/drivers/third_party/ST/STM32L4xx_HAL_Driver/Src\stm32l4xx_hal_rcc.c ****   @endif
 911:E:/LiteOS/LiteOS_Lab/drivers/third_party/ST/STM32L4xx_HAL_Driver/Src\stm32l4xx_hal_rcc.c ****   *
 912:E:/LiteOS/LiteOS_Lab/drivers/third_party/ST/STM32L4xx_HAL_Driver/Src\stm32l4xx_hal_rcc.c ****   * @note   The SystemCoreClock CMSIS variable is used to store System Clock Frequency
 913:E:/LiteOS/LiteOS_Lab/drivers/third_party/ST/STM32L4xx_HAL_Driver/Src\stm32l4xx_hal_rcc.c ****   *         and updated by HAL_RCC_GetHCLKFreq() function called within this function
 914:E:/LiteOS/LiteOS_Lab/drivers/third_party/ST/STM32L4xx_HAL_Driver/Src\stm32l4xx_hal_rcc.c ****   *
 915:E:/LiteOS/LiteOS_Lab/drivers/third_party/ST/STM32L4xx_HAL_Driver/Src\stm32l4xx_hal_rcc.c ****   * @note   The MSI is used by default as system clock source after
 916:E:/LiteOS/LiteOS_Lab/drivers/third_party/ST/STM32L4xx_HAL_Driver/Src\stm32l4xx_hal_rcc.c ****   *         startup from Reset, wake-up from STANDBY mode. After restart from Reset,
 917:E:/LiteOS/LiteOS_Lab/drivers/third_party/ST/STM32L4xx_HAL_Driver/Src\stm32l4xx_hal_rcc.c ****   *         the MSI frequency is set to its default value 4 MHz.
 918:E:/LiteOS/LiteOS_Lab/drivers/third_party/ST/STM32L4xx_HAL_Driver/Src\stm32l4xx_hal_rcc.c ****   *
 919:E:/LiteOS/LiteOS_Lab/drivers/third_party/ST/STM32L4xx_HAL_Driver/Src\stm32l4xx_hal_rcc.c ****   * @note   The HSI can be selected as system clock source after
 920:E:/LiteOS/LiteOS_Lab/drivers/third_party/ST/STM32L4xx_HAL_Driver/Src\stm32l4xx_hal_rcc.c ****   *         from STOP modes or in case of failure of the HSE used directly or indirectly
 921:E:/LiteOS/LiteOS_Lab/drivers/third_party/ST/STM32L4xx_HAL_Driver/Src\stm32l4xx_hal_rcc.c ****   *         as system clock (if the Clock Security System CSS is enabled).
 922:E:/LiteOS/LiteOS_Lab/drivers/third_party/ST/STM32L4xx_HAL_Driver/Src\stm32l4xx_hal_rcc.c ****   *
 923:E:/LiteOS/LiteOS_Lab/drivers/third_party/ST/STM32L4xx_HAL_Driver/Src\stm32l4xx_hal_rcc.c ****   * @note   A switch from one clock source to another occurs only if the target
 924:E:/LiteOS/LiteOS_Lab/drivers/third_party/ST/STM32L4xx_HAL_Driver/Src\stm32l4xx_hal_rcc.c ****   *         clock source is ready (clock stable after startup delay or PLL locked).
 925:E:/LiteOS/LiteOS_Lab/drivers/third_party/ST/STM32L4xx_HAL_Driver/Src\stm32l4xx_hal_rcc.c ****   *         If a clock source which is not yet ready is selected, the switch will
ARM GAS  C:\Users\user\AppData\Local\Temp\ccmqW6jC.s 			page 40


 926:E:/LiteOS/LiteOS_Lab/drivers/third_party/ST/STM32L4xx_HAL_Driver/Src\stm32l4xx_hal_rcc.c ****   *         occur when the clock source is ready.
 927:E:/LiteOS/LiteOS_Lab/drivers/third_party/ST/STM32L4xx_HAL_Driver/Src\stm32l4xx_hal_rcc.c ****   *
 928:E:/LiteOS/LiteOS_Lab/drivers/third_party/ST/STM32L4xx_HAL_Driver/Src\stm32l4xx_hal_rcc.c ****   * @note   You can use HAL_RCC_GetClockConfig() function to know which clock is
 929:E:/LiteOS/LiteOS_Lab/drivers/third_party/ST/STM32L4xx_HAL_Driver/Src\stm32l4xx_hal_rcc.c ****   *         currently used as system clock source.
 930:E:/LiteOS/LiteOS_Lab/drivers/third_party/ST/STM32L4xx_HAL_Driver/Src\stm32l4xx_hal_rcc.c ****   *
 931:E:/LiteOS/LiteOS_Lab/drivers/third_party/ST/STM32L4xx_HAL_Driver/Src\stm32l4xx_hal_rcc.c ****   * @note   Depending on the device voltage range, the software has to set correctly
 932:E:/LiteOS/LiteOS_Lab/drivers/third_party/ST/STM32L4xx_HAL_Driver/Src\stm32l4xx_hal_rcc.c ****   *         HPRE[3:0] bits to ensure that HCLK not exceed the maximum allowed frequency
 933:E:/LiteOS/LiteOS_Lab/drivers/third_party/ST/STM32L4xx_HAL_Driver/Src\stm32l4xx_hal_rcc.c ****   *         (for more details refer to section above "Initialization/de-initialization functions")
 934:E:/LiteOS/LiteOS_Lab/drivers/third_party/ST/STM32L4xx_HAL_Driver/Src\stm32l4xx_hal_rcc.c ****   * @retval None
 935:E:/LiteOS/LiteOS_Lab/drivers/third_party/ST/STM32L4xx_HAL_Driver/Src\stm32l4xx_hal_rcc.c ****   */
 936:E:/LiteOS/LiteOS_Lab/drivers/third_party/ST/STM32L4xx_HAL_Driver/Src\stm32l4xx_hal_rcc.c **** HAL_StatusTypeDef HAL_RCC_ClockConfig(RCC_ClkInitTypeDef  *RCC_ClkInitStruct, uint32_t FLatency)
 937:E:/LiteOS/LiteOS_Lab/drivers/third_party/ST/STM32L4xx_HAL_Driver/Src\stm32l4xx_hal_rcc.c **** {
 1281              		.loc 1 937 0
 1282              		.cfi_startproc
 1283              		@ args = 0, pretend = 0, frame = 16
 1284              		@ frame_needed = 1, uses_anonymous_args = 0
 1285 0000 80B5     		push	{r7, lr}
 1286              	.LCFI10:
 1287              		.cfi_def_cfa_offset 8
 1288              		.cfi_offset 7, -8
 1289              		.cfi_offset 14, -4
 1290 0002 84B0     		sub	sp, sp, #16
 1291              	.LCFI11:
 1292              		.cfi_def_cfa_offset 24
 1293 0004 00AF     		add	r7, sp, #0
 1294              	.LCFI12:
 1295              		.cfi_def_cfa_register 7
 1296 0006 7860     		str	r0, [r7, #4]
 1297 0008 3960     		str	r1, [r7]
 938:E:/LiteOS/LiteOS_Lab/drivers/third_party/ST/STM32L4xx_HAL_Driver/Src\stm32l4xx_hal_rcc.c ****   uint32_t tickstart = 0;
 1298              		.loc 1 938 0
 1299 000a 0023     		movs	r3, #0
 1300 000c FB60     		str	r3, [r7, #12]
 939:E:/LiteOS/LiteOS_Lab/drivers/third_party/ST/STM32L4xx_HAL_Driver/Src\stm32l4xx_hal_rcc.c **** #if defined(STM32L4R5xx) || defined(STM32L4R7xx) || defined(STM32L4R9xx) || defined(STM32L4S5xx) ||
 940:E:/LiteOS/LiteOS_Lab/drivers/third_party/ST/STM32L4xx_HAL_Driver/Src\stm32l4xx_hal_rcc.c ****   uint32_t pllfreq = 0;
 941:E:/LiteOS/LiteOS_Lab/drivers/third_party/ST/STM32L4xx_HAL_Driver/Src\stm32l4xx_hal_rcc.c ****   uint32_t hpre = RCC_SYSCLK_DIV1;
 942:E:/LiteOS/LiteOS_Lab/drivers/third_party/ST/STM32L4xx_HAL_Driver/Src\stm32l4xx_hal_rcc.c **** #endif
 943:E:/LiteOS/LiteOS_Lab/drivers/third_party/ST/STM32L4xx_HAL_Driver/Src\stm32l4xx_hal_rcc.c **** 
 944:E:/LiteOS/LiteOS_Lab/drivers/third_party/ST/STM32L4xx_HAL_Driver/Src\stm32l4xx_hal_rcc.c ****   /* Check the parameters */
 945:E:/LiteOS/LiteOS_Lab/drivers/third_party/ST/STM32L4xx_HAL_Driver/Src\stm32l4xx_hal_rcc.c ****   assert_param(RCC_ClkInitStruct != NULL);
 946:E:/LiteOS/LiteOS_Lab/drivers/third_party/ST/STM32L4xx_HAL_Driver/Src\stm32l4xx_hal_rcc.c ****   assert_param(IS_RCC_CLOCKTYPE(RCC_ClkInitStruct->ClockType));
 947:E:/LiteOS/LiteOS_Lab/drivers/third_party/ST/STM32L4xx_HAL_Driver/Src\stm32l4xx_hal_rcc.c ****   assert_param(IS_FLASH_LATENCY(FLatency));
 948:E:/LiteOS/LiteOS_Lab/drivers/third_party/ST/STM32L4xx_HAL_Driver/Src\stm32l4xx_hal_rcc.c **** 
 949:E:/LiteOS/LiteOS_Lab/drivers/third_party/ST/STM32L4xx_HAL_Driver/Src\stm32l4xx_hal_rcc.c ****   /* To correctly read data from FLASH memory, the number of wait states (LATENCY)
 950:E:/LiteOS/LiteOS_Lab/drivers/third_party/ST/STM32L4xx_HAL_Driver/Src\stm32l4xx_hal_rcc.c ****     must be correctly programmed according to the frequency of the CPU clock
 951:E:/LiteOS/LiteOS_Lab/drivers/third_party/ST/STM32L4xx_HAL_Driver/Src\stm32l4xx_hal_rcc.c ****     (HCLK) and the supply voltage of the device. */
 952:E:/LiteOS/LiteOS_Lab/drivers/third_party/ST/STM32L4xx_HAL_Driver/Src\stm32l4xx_hal_rcc.c **** 
 953:E:/LiteOS/LiteOS_Lab/drivers/third_party/ST/STM32L4xx_HAL_Driver/Src\stm32l4xx_hal_rcc.c ****   /* Increasing the number of wait states because of higher CPU frequency */
 954:E:/LiteOS/LiteOS_Lab/drivers/third_party/ST/STM32L4xx_HAL_Driver/Src\stm32l4xx_hal_rcc.c ****   if(FLatency > READ_BIT(FLASH->ACR, FLASH_ACR_LATENCY))
 1301              		.loc 1 954 0
 1302 000e 844B     		ldr	r3, .L114
 1303 0010 1B68     		ldr	r3, [r3]
 1304 0012 03F00703 		and	r3, r3, #7
 1305 0016 3A68     		ldr	r2, [r7]
 1306 0018 9A42     		cmp	r2, r3
 1307 001a 10D9     		bls	.L92
 955:E:/LiteOS/LiteOS_Lab/drivers/third_party/ST/STM32L4xx_HAL_Driver/Src\stm32l4xx_hal_rcc.c ****   {
ARM GAS  C:\Users\user\AppData\Local\Temp\ccmqW6jC.s 			page 41


 956:E:/LiteOS/LiteOS_Lab/drivers/third_party/ST/STM32L4xx_HAL_Driver/Src\stm32l4xx_hal_rcc.c ****     /* Program the new number of wait states to the LATENCY bits in the FLASH_ACR register */
 957:E:/LiteOS/LiteOS_Lab/drivers/third_party/ST/STM32L4xx_HAL_Driver/Src\stm32l4xx_hal_rcc.c ****     __HAL_FLASH_SET_LATENCY(FLatency);
 1308              		.loc 1 957 0
 1309 001c 804B     		ldr	r3, .L114
 1310 001e 1B68     		ldr	r3, [r3]
 1311 0020 23F00702 		bic	r2, r3, #7
 1312 0024 7E49     		ldr	r1, .L114
 1313 0026 3B68     		ldr	r3, [r7]
 1314 0028 1343     		orrs	r3, r3, r2
 1315 002a 0B60     		str	r3, [r1]
 958:E:/LiteOS/LiteOS_Lab/drivers/third_party/ST/STM32L4xx_HAL_Driver/Src\stm32l4xx_hal_rcc.c **** 
 959:E:/LiteOS/LiteOS_Lab/drivers/third_party/ST/STM32L4xx_HAL_Driver/Src\stm32l4xx_hal_rcc.c ****     /* Check that the new number of wait states is taken into account to access the Flash
 960:E:/LiteOS/LiteOS_Lab/drivers/third_party/ST/STM32L4xx_HAL_Driver/Src\stm32l4xx_hal_rcc.c ****     memory by reading the FLASH_ACR register */
 961:E:/LiteOS/LiteOS_Lab/drivers/third_party/ST/STM32L4xx_HAL_Driver/Src\stm32l4xx_hal_rcc.c ****     if(READ_BIT(FLASH->ACR, FLASH_ACR_LATENCY) != FLatency)
 1316              		.loc 1 961 0
 1317 002c 7C4B     		ldr	r3, .L114
 1318 002e 1B68     		ldr	r3, [r3]
 1319 0030 03F00703 		and	r3, r3, #7
 1320 0034 3A68     		ldr	r2, [r7]
 1321 0036 9A42     		cmp	r2, r3
 1322 0038 01D0     		beq	.L92
 962:E:/LiteOS/LiteOS_Lab/drivers/third_party/ST/STM32L4xx_HAL_Driver/Src\stm32l4xx_hal_rcc.c ****     {
 963:E:/LiteOS/LiteOS_Lab/drivers/third_party/ST/STM32L4xx_HAL_Driver/Src\stm32l4xx_hal_rcc.c ****       return HAL_ERROR;
 1323              		.loc 1 963 0
 1324 003a 0123     		movs	r3, #1
 1325 003c ECE0     		b	.L93
 1326              	.L92:
 964:E:/LiteOS/LiteOS_Lab/drivers/third_party/ST/STM32L4xx_HAL_Driver/Src\stm32l4xx_hal_rcc.c ****     }
 965:E:/LiteOS/LiteOS_Lab/drivers/third_party/ST/STM32L4xx_HAL_Driver/Src\stm32l4xx_hal_rcc.c ****   }
 966:E:/LiteOS/LiteOS_Lab/drivers/third_party/ST/STM32L4xx_HAL_Driver/Src\stm32l4xx_hal_rcc.c **** 
 967:E:/LiteOS/LiteOS_Lab/drivers/third_party/ST/STM32L4xx_HAL_Driver/Src\stm32l4xx_hal_rcc.c ****   /*------------------------- SYSCLK Configuration ---------------------------*/
 968:E:/LiteOS/LiteOS_Lab/drivers/third_party/ST/STM32L4xx_HAL_Driver/Src\stm32l4xx_hal_rcc.c ****   if(((RCC_ClkInitStruct->ClockType) & RCC_CLOCKTYPE_SYSCLK) == RCC_CLOCKTYPE_SYSCLK)
 1327              		.loc 1 968 0
 1328 003e 7B68     		ldr	r3, [r7, #4]
 1329 0040 1B68     		ldr	r3, [r3]
 1330 0042 03F00103 		and	r3, r3, #1
 1331 0046 002B     		cmp	r3, #0
 1332 0048 00F08E80 		beq	.L94
 969:E:/LiteOS/LiteOS_Lab/drivers/third_party/ST/STM32L4xx_HAL_Driver/Src\stm32l4xx_hal_rcc.c ****   {
 970:E:/LiteOS/LiteOS_Lab/drivers/third_party/ST/STM32L4xx_HAL_Driver/Src\stm32l4xx_hal_rcc.c ****     assert_param(IS_RCC_SYSCLKSOURCE(RCC_ClkInitStruct->SYSCLKSource));
 971:E:/LiteOS/LiteOS_Lab/drivers/third_party/ST/STM32L4xx_HAL_Driver/Src\stm32l4xx_hal_rcc.c **** 
 972:E:/LiteOS/LiteOS_Lab/drivers/third_party/ST/STM32L4xx_HAL_Driver/Src\stm32l4xx_hal_rcc.c ****     /* PLL is selected as System Clock Source */
 973:E:/LiteOS/LiteOS_Lab/drivers/third_party/ST/STM32L4xx_HAL_Driver/Src\stm32l4xx_hal_rcc.c ****     if(RCC_ClkInitStruct->SYSCLKSource == RCC_SYSCLKSOURCE_PLLCLK)
 1333              		.loc 1 973 0
 1334 004c 7B68     		ldr	r3, [r7, #4]
 1335 004e 5B68     		ldr	r3, [r3, #4]
 1336 0050 032B     		cmp	r3, #3
 1337 0052 07D1     		bne	.L95
 974:E:/LiteOS/LiteOS_Lab/drivers/third_party/ST/STM32L4xx_HAL_Driver/Src\stm32l4xx_hal_rcc.c ****     {
 975:E:/LiteOS/LiteOS_Lab/drivers/third_party/ST/STM32L4xx_HAL_Driver/Src\stm32l4xx_hal_rcc.c ****       /* Check the PLL ready flag */
 976:E:/LiteOS/LiteOS_Lab/drivers/third_party/ST/STM32L4xx_HAL_Driver/Src\stm32l4xx_hal_rcc.c ****       if(READ_BIT(RCC->CR, RCC_CR_PLLRDY) == RESET)
 1338              		.loc 1 976 0
 1339 0054 734B     		ldr	r3, .L114+4
 1340 0056 1B68     		ldr	r3, [r3]
 1341 0058 03F00073 		and	r3, r3, #33554432
 1342 005c 002B     		cmp	r3, #0
 1343 005e 21D1     		bne	.L96
ARM GAS  C:\Users\user\AppData\Local\Temp\ccmqW6jC.s 			page 42


 977:E:/LiteOS/LiteOS_Lab/drivers/third_party/ST/STM32L4xx_HAL_Driver/Src\stm32l4xx_hal_rcc.c ****       {
 978:E:/LiteOS/LiteOS_Lab/drivers/third_party/ST/STM32L4xx_HAL_Driver/Src\stm32l4xx_hal_rcc.c ****         return HAL_ERROR;
 1344              		.loc 1 978 0
 1345 0060 0123     		movs	r3, #1
 1346 0062 D9E0     		b	.L93
 1347              	.L95:
 979:E:/LiteOS/LiteOS_Lab/drivers/third_party/ST/STM32L4xx_HAL_Driver/Src\stm32l4xx_hal_rcc.c ****       }
 980:E:/LiteOS/LiteOS_Lab/drivers/third_party/ST/STM32L4xx_HAL_Driver/Src\stm32l4xx_hal_rcc.c **** #if defined(STM32L4R5xx) || defined(STM32L4R7xx) || defined(STM32L4R9xx) || defined(STM32L4S5xx) ||
 981:E:/LiteOS/LiteOS_Lab/drivers/third_party/ST/STM32L4xx_HAL_Driver/Src\stm32l4xx_hal_rcc.c ****       /* Undershoot management when selection PLL as SYSCLK source and frequency above 80Mhz */
 982:E:/LiteOS/LiteOS_Lab/drivers/third_party/ST/STM32L4xx_HAL_Driver/Src\stm32l4xx_hal_rcc.c ****       /* Compute target PLL output frequency */
 983:E:/LiteOS/LiteOS_Lab/drivers/third_party/ST/STM32L4xx_HAL_Driver/Src\stm32l4xx_hal_rcc.c ****       pllfreq = RCC_GetSysClockFreqFromPLLSource();
 984:E:/LiteOS/LiteOS_Lab/drivers/third_party/ST/STM32L4xx_HAL_Driver/Src\stm32l4xx_hal_rcc.c **** 
 985:E:/LiteOS/LiteOS_Lab/drivers/third_party/ST/STM32L4xx_HAL_Driver/Src\stm32l4xx_hal_rcc.c ****       /* Intermediate step with HCLK prescaler 2 necessary before to go over 80Mhz */
 986:E:/LiteOS/LiteOS_Lab/drivers/third_party/ST/STM32L4xx_HAL_Driver/Src\stm32l4xx_hal_rcc.c ****       if((pllfreq > 80000000U) &&
 987:E:/LiteOS/LiteOS_Lab/drivers/third_party/ST/STM32L4xx_HAL_Driver/Src\stm32l4xx_hal_rcc.c ****          (((((RCC_ClkInitStruct->ClockType) & RCC_CLOCKTYPE_HCLK) == RCC_CLOCKTYPE_HCLK) && (RCC_Cl
 988:E:/LiteOS/LiteOS_Lab/drivers/third_party/ST/STM32L4xx_HAL_Driver/Src\stm32l4xx_hal_rcc.c ****           ||
 989:E:/LiteOS/LiteOS_Lab/drivers/third_party/ST/STM32L4xx_HAL_Driver/Src\stm32l4xx_hal_rcc.c ****           ((READ_BIT(RCC->CFGR, RCC_CFGR_HPRE) == RCC_SYSCLK_DIV1))))
 990:E:/LiteOS/LiteOS_Lab/drivers/third_party/ST/STM32L4xx_HAL_Driver/Src\stm32l4xx_hal_rcc.c ****       {
 991:E:/LiteOS/LiteOS_Lab/drivers/third_party/ST/STM32L4xx_HAL_Driver/Src\stm32l4xx_hal_rcc.c ****         MODIFY_REG(RCC->CFGR, RCC_CFGR_HPRE, RCC_SYSCLK_DIV2);
 992:E:/LiteOS/LiteOS_Lab/drivers/third_party/ST/STM32L4xx_HAL_Driver/Src\stm32l4xx_hal_rcc.c ****         hpre = RCC_SYSCLK_DIV2;
 993:E:/LiteOS/LiteOS_Lab/drivers/third_party/ST/STM32L4xx_HAL_Driver/Src\stm32l4xx_hal_rcc.c ****       }
 994:E:/LiteOS/LiteOS_Lab/drivers/third_party/ST/STM32L4xx_HAL_Driver/Src\stm32l4xx_hal_rcc.c **** #endif
 995:E:/LiteOS/LiteOS_Lab/drivers/third_party/ST/STM32L4xx_HAL_Driver/Src\stm32l4xx_hal_rcc.c ****     }
 996:E:/LiteOS/LiteOS_Lab/drivers/third_party/ST/STM32L4xx_HAL_Driver/Src\stm32l4xx_hal_rcc.c ****     else
 997:E:/LiteOS/LiteOS_Lab/drivers/third_party/ST/STM32L4xx_HAL_Driver/Src\stm32l4xx_hal_rcc.c ****     {
 998:E:/LiteOS/LiteOS_Lab/drivers/third_party/ST/STM32L4xx_HAL_Driver/Src\stm32l4xx_hal_rcc.c ****       /* HSE is selected as System Clock Source */
 999:E:/LiteOS/LiteOS_Lab/drivers/third_party/ST/STM32L4xx_HAL_Driver/Src\stm32l4xx_hal_rcc.c ****       if(RCC_ClkInitStruct->SYSCLKSource == RCC_SYSCLKSOURCE_HSE)
 1348              		.loc 1 999 0
 1349 0064 7B68     		ldr	r3, [r7, #4]
 1350 0066 5B68     		ldr	r3, [r3, #4]
 1351 0068 022B     		cmp	r3, #2
 1352 006a 07D1     		bne	.L97
1000:E:/LiteOS/LiteOS_Lab/drivers/third_party/ST/STM32L4xx_HAL_Driver/Src\stm32l4xx_hal_rcc.c ****       {
1001:E:/LiteOS/LiteOS_Lab/drivers/third_party/ST/STM32L4xx_HAL_Driver/Src\stm32l4xx_hal_rcc.c ****         /* Check the HSE ready flag */
1002:E:/LiteOS/LiteOS_Lab/drivers/third_party/ST/STM32L4xx_HAL_Driver/Src\stm32l4xx_hal_rcc.c ****         if(READ_BIT(RCC->CR, RCC_CR_HSERDY) == RESET)
 1353              		.loc 1 1002 0
 1354 006c 6D4B     		ldr	r3, .L114+4
 1355 006e 1B68     		ldr	r3, [r3]
 1356 0070 03F40033 		and	r3, r3, #131072
 1357 0074 002B     		cmp	r3, #0
 1358 0076 15D1     		bne	.L96
1003:E:/LiteOS/LiteOS_Lab/drivers/third_party/ST/STM32L4xx_HAL_Driver/Src\stm32l4xx_hal_rcc.c ****         {
1004:E:/LiteOS/LiteOS_Lab/drivers/third_party/ST/STM32L4xx_HAL_Driver/Src\stm32l4xx_hal_rcc.c ****           return HAL_ERROR;
 1359              		.loc 1 1004 0
 1360 0078 0123     		movs	r3, #1
 1361 007a CDE0     		b	.L93
 1362              	.L97:
1005:E:/LiteOS/LiteOS_Lab/drivers/third_party/ST/STM32L4xx_HAL_Driver/Src\stm32l4xx_hal_rcc.c ****         }
1006:E:/LiteOS/LiteOS_Lab/drivers/third_party/ST/STM32L4xx_HAL_Driver/Src\stm32l4xx_hal_rcc.c ****       }
1007:E:/LiteOS/LiteOS_Lab/drivers/third_party/ST/STM32L4xx_HAL_Driver/Src\stm32l4xx_hal_rcc.c ****       /* MSI is selected as System Clock Source */
1008:E:/LiteOS/LiteOS_Lab/drivers/third_party/ST/STM32L4xx_HAL_Driver/Src\stm32l4xx_hal_rcc.c ****       else if(RCC_ClkInitStruct->SYSCLKSource == RCC_SYSCLKSOURCE_MSI)
 1363              		.loc 1 1008 0
 1364 007c 7B68     		ldr	r3, [r7, #4]
 1365 007e 5B68     		ldr	r3, [r3, #4]
 1366 0080 002B     		cmp	r3, #0
 1367 0082 07D1     		bne	.L98
1009:E:/LiteOS/LiteOS_Lab/drivers/third_party/ST/STM32L4xx_HAL_Driver/Src\stm32l4xx_hal_rcc.c ****       {
ARM GAS  C:\Users\user\AppData\Local\Temp\ccmqW6jC.s 			page 43


1010:E:/LiteOS/LiteOS_Lab/drivers/third_party/ST/STM32L4xx_HAL_Driver/Src\stm32l4xx_hal_rcc.c ****         /* Check the MSI ready flag */
1011:E:/LiteOS/LiteOS_Lab/drivers/third_party/ST/STM32L4xx_HAL_Driver/Src\stm32l4xx_hal_rcc.c ****         if(READ_BIT(RCC->CR, RCC_CR_MSIRDY) == RESET)
 1368              		.loc 1 1011 0
 1369 0084 674B     		ldr	r3, .L114+4
 1370 0086 1B68     		ldr	r3, [r3]
 1371 0088 03F00203 		and	r3, r3, #2
 1372 008c 002B     		cmp	r3, #0
 1373 008e 09D1     		bne	.L96
1012:E:/LiteOS/LiteOS_Lab/drivers/third_party/ST/STM32L4xx_HAL_Driver/Src\stm32l4xx_hal_rcc.c ****         {
1013:E:/LiteOS/LiteOS_Lab/drivers/third_party/ST/STM32L4xx_HAL_Driver/Src\stm32l4xx_hal_rcc.c ****           return HAL_ERROR;
 1374              		.loc 1 1013 0
 1375 0090 0123     		movs	r3, #1
 1376 0092 C1E0     		b	.L93
 1377              	.L98:
1014:E:/LiteOS/LiteOS_Lab/drivers/third_party/ST/STM32L4xx_HAL_Driver/Src\stm32l4xx_hal_rcc.c ****         }
1015:E:/LiteOS/LiteOS_Lab/drivers/third_party/ST/STM32L4xx_HAL_Driver/Src\stm32l4xx_hal_rcc.c ****       }
1016:E:/LiteOS/LiteOS_Lab/drivers/third_party/ST/STM32L4xx_HAL_Driver/Src\stm32l4xx_hal_rcc.c ****       /* HSI is selected as System Clock Source */
1017:E:/LiteOS/LiteOS_Lab/drivers/third_party/ST/STM32L4xx_HAL_Driver/Src\stm32l4xx_hal_rcc.c ****       else
1018:E:/LiteOS/LiteOS_Lab/drivers/third_party/ST/STM32L4xx_HAL_Driver/Src\stm32l4xx_hal_rcc.c ****       {
1019:E:/LiteOS/LiteOS_Lab/drivers/third_party/ST/STM32L4xx_HAL_Driver/Src\stm32l4xx_hal_rcc.c ****         /* Check the HSI ready flag */
1020:E:/LiteOS/LiteOS_Lab/drivers/third_party/ST/STM32L4xx_HAL_Driver/Src\stm32l4xx_hal_rcc.c ****         if(READ_BIT(RCC->CR, RCC_CR_HSIRDY) == RESET)
 1378              		.loc 1 1020 0
 1379 0094 634B     		ldr	r3, .L114+4
 1380 0096 1B68     		ldr	r3, [r3]
 1381 0098 03F48063 		and	r3, r3, #1024
 1382 009c 002B     		cmp	r3, #0
 1383 009e 01D1     		bne	.L96
1021:E:/LiteOS/LiteOS_Lab/drivers/third_party/ST/STM32L4xx_HAL_Driver/Src\stm32l4xx_hal_rcc.c ****         {
1022:E:/LiteOS/LiteOS_Lab/drivers/third_party/ST/STM32L4xx_HAL_Driver/Src\stm32l4xx_hal_rcc.c ****           return HAL_ERROR;
 1384              		.loc 1 1022 0
 1385 00a0 0123     		movs	r3, #1
 1386 00a2 B9E0     		b	.L93
 1387              	.L96:
1023:E:/LiteOS/LiteOS_Lab/drivers/third_party/ST/STM32L4xx_HAL_Driver/Src\stm32l4xx_hal_rcc.c ****         }
1024:E:/LiteOS/LiteOS_Lab/drivers/third_party/ST/STM32L4xx_HAL_Driver/Src\stm32l4xx_hal_rcc.c ****       }
1025:E:/LiteOS/LiteOS_Lab/drivers/third_party/ST/STM32L4xx_HAL_Driver/Src\stm32l4xx_hal_rcc.c **** #if defined(STM32L4R5xx) || defined(STM32L4R7xx) || defined(STM32L4R9xx) || defined(STM32L4S5xx) ||
1026:E:/LiteOS/LiteOS_Lab/drivers/third_party/ST/STM32L4xx_HAL_Driver/Src\stm32l4xx_hal_rcc.c ****       /* Overshoot management when going down from PLL as SYSCLK source and frequency above 80Mhz *
1027:E:/LiteOS/LiteOS_Lab/drivers/third_party/ST/STM32L4xx_HAL_Driver/Src\stm32l4xx_hal_rcc.c ****       pllfreq = HAL_RCC_GetSysClockFreq();
1028:E:/LiteOS/LiteOS_Lab/drivers/third_party/ST/STM32L4xx_HAL_Driver/Src\stm32l4xx_hal_rcc.c **** 
1029:E:/LiteOS/LiteOS_Lab/drivers/third_party/ST/STM32L4xx_HAL_Driver/Src\stm32l4xx_hal_rcc.c ****       /* Intermediate step with HCLK prescaler 2 necessary before to go under 80Mhz */
1030:E:/LiteOS/LiteOS_Lab/drivers/third_party/ST/STM32L4xx_HAL_Driver/Src\stm32l4xx_hal_rcc.c ****       if(pllfreq > 80000000U)
1031:E:/LiteOS/LiteOS_Lab/drivers/third_party/ST/STM32L4xx_HAL_Driver/Src\stm32l4xx_hal_rcc.c ****       {
1032:E:/LiteOS/LiteOS_Lab/drivers/third_party/ST/STM32L4xx_HAL_Driver/Src\stm32l4xx_hal_rcc.c ****         MODIFY_REG(RCC->CFGR, RCC_CFGR_HPRE, RCC_SYSCLK_DIV2);
1033:E:/LiteOS/LiteOS_Lab/drivers/third_party/ST/STM32L4xx_HAL_Driver/Src\stm32l4xx_hal_rcc.c ****         hpre = RCC_SYSCLK_DIV2;
1034:E:/LiteOS/LiteOS_Lab/drivers/third_party/ST/STM32L4xx_HAL_Driver/Src\stm32l4xx_hal_rcc.c ****       }
1035:E:/LiteOS/LiteOS_Lab/drivers/third_party/ST/STM32L4xx_HAL_Driver/Src\stm32l4xx_hal_rcc.c **** #endif
1036:E:/LiteOS/LiteOS_Lab/drivers/third_party/ST/STM32L4xx_HAL_Driver/Src\stm32l4xx_hal_rcc.c **** 
1037:E:/LiteOS/LiteOS_Lab/drivers/third_party/ST/STM32L4xx_HAL_Driver/Src\stm32l4xx_hal_rcc.c ****     }
1038:E:/LiteOS/LiteOS_Lab/drivers/third_party/ST/STM32L4xx_HAL_Driver/Src\stm32l4xx_hal_rcc.c **** 
1039:E:/LiteOS/LiteOS_Lab/drivers/third_party/ST/STM32L4xx_HAL_Driver/Src\stm32l4xx_hal_rcc.c ****     MODIFY_REG(RCC->CFGR, RCC_CFGR_SW, RCC_ClkInitStruct->SYSCLKSource);
 1388              		.loc 1 1039 0
 1389 00a4 5F4B     		ldr	r3, .L114+4
 1390 00a6 9B68     		ldr	r3, [r3, #8]
 1391 00a8 23F00302 		bic	r2, r3, #3
 1392 00ac 7B68     		ldr	r3, [r7, #4]
 1393 00ae 5B68     		ldr	r3, [r3, #4]
 1394 00b0 5C49     		ldr	r1, .L114+4
ARM GAS  C:\Users\user\AppData\Local\Temp\ccmqW6jC.s 			page 44


 1395 00b2 1343     		orrs	r3, r3, r2
 1396 00b4 8B60     		str	r3, [r1, #8]
1040:E:/LiteOS/LiteOS_Lab/drivers/third_party/ST/STM32L4xx_HAL_Driver/Src\stm32l4xx_hal_rcc.c **** 
1041:E:/LiteOS/LiteOS_Lab/drivers/third_party/ST/STM32L4xx_HAL_Driver/Src\stm32l4xx_hal_rcc.c ****     /* Get Start Tick*/
1042:E:/LiteOS/LiteOS_Lab/drivers/third_party/ST/STM32L4xx_HAL_Driver/Src\stm32l4xx_hal_rcc.c ****     tickstart = HAL_GetTick();
 1397              		.loc 1 1042 0
 1398 00b6 FFF7FEFF 		bl	HAL_GetTick
 1399 00ba F860     		str	r0, [r7, #12]
1043:E:/LiteOS/LiteOS_Lab/drivers/third_party/ST/STM32L4xx_HAL_Driver/Src\stm32l4xx_hal_rcc.c **** 
1044:E:/LiteOS/LiteOS_Lab/drivers/third_party/ST/STM32L4xx_HAL_Driver/Src\stm32l4xx_hal_rcc.c ****     if(RCC_ClkInitStruct->SYSCLKSource == RCC_SYSCLKSOURCE_PLLCLK)
 1400              		.loc 1 1044 0
 1401 00bc 7B68     		ldr	r3, [r7, #4]
 1402 00be 5B68     		ldr	r3, [r3, #4]
 1403 00c0 032B     		cmp	r3, #3
 1404 00c2 12D1     		bne	.L99
1045:E:/LiteOS/LiteOS_Lab/drivers/third_party/ST/STM32L4xx_HAL_Driver/Src\stm32l4xx_hal_rcc.c ****     {
1046:E:/LiteOS/LiteOS_Lab/drivers/third_party/ST/STM32L4xx_HAL_Driver/Src\stm32l4xx_hal_rcc.c ****       while (__HAL_RCC_GET_SYSCLK_SOURCE() != RCC_CFGR_SWS_PLL)
 1405              		.loc 1 1046 0
 1406 00c4 0AE0     		b	.L100
 1407              	.L101:
1047:E:/LiteOS/LiteOS_Lab/drivers/third_party/ST/STM32L4xx_HAL_Driver/Src\stm32l4xx_hal_rcc.c ****       {
1048:E:/LiteOS/LiteOS_Lab/drivers/third_party/ST/STM32L4xx_HAL_Driver/Src\stm32l4xx_hal_rcc.c ****         if((HAL_GetTick() - tickstart) > CLOCKSWITCH_TIMEOUT_VALUE)
 1408              		.loc 1 1048 0
 1409 00c6 FFF7FEFF 		bl	HAL_GetTick
 1410 00ca 0246     		mov	r2, r0
 1411 00cc FB68     		ldr	r3, [r7, #12]
 1412 00ce D31A     		subs	r3, r2, r3
 1413 00d0 41F28832 		movw	r2, #5000
 1414 00d4 9342     		cmp	r3, r2
 1415 00d6 01D9     		bls	.L100
1049:E:/LiteOS/LiteOS_Lab/drivers/third_party/ST/STM32L4xx_HAL_Driver/Src\stm32l4xx_hal_rcc.c ****         {
1050:E:/LiteOS/LiteOS_Lab/drivers/third_party/ST/STM32L4xx_HAL_Driver/Src\stm32l4xx_hal_rcc.c ****           return HAL_TIMEOUT;
 1416              		.loc 1 1050 0
 1417 00d8 0323     		movs	r3, #3
 1418 00da 9DE0     		b	.L93
 1419              	.L100:
1046:E:/LiteOS/LiteOS_Lab/drivers/third_party/ST/STM32L4xx_HAL_Driver/Src\stm32l4xx_hal_rcc.c ****       {
 1420              		.loc 1 1046 0
 1421 00dc 514B     		ldr	r3, .L114+4
 1422 00de 9B68     		ldr	r3, [r3, #8]
 1423 00e0 03F00C03 		and	r3, r3, #12
 1424 00e4 0C2B     		cmp	r3, #12
 1425 00e6 EED1     		bne	.L101
 1426 00e8 3EE0     		b	.L94
 1427              	.L99:
1051:E:/LiteOS/LiteOS_Lab/drivers/third_party/ST/STM32L4xx_HAL_Driver/Src\stm32l4xx_hal_rcc.c ****         }
1052:E:/LiteOS/LiteOS_Lab/drivers/third_party/ST/STM32L4xx_HAL_Driver/Src\stm32l4xx_hal_rcc.c ****       }
1053:E:/LiteOS/LiteOS_Lab/drivers/third_party/ST/STM32L4xx_HAL_Driver/Src\stm32l4xx_hal_rcc.c ****     }
1054:E:/LiteOS/LiteOS_Lab/drivers/third_party/ST/STM32L4xx_HAL_Driver/Src\stm32l4xx_hal_rcc.c ****     else
1055:E:/LiteOS/LiteOS_Lab/drivers/third_party/ST/STM32L4xx_HAL_Driver/Src\stm32l4xx_hal_rcc.c ****     {
1056:E:/LiteOS/LiteOS_Lab/drivers/third_party/ST/STM32L4xx_HAL_Driver/Src\stm32l4xx_hal_rcc.c ****       if(RCC_ClkInitStruct->SYSCLKSource == RCC_SYSCLKSOURCE_HSE)
 1428              		.loc 1 1056 0
 1429 00ea 7B68     		ldr	r3, [r7, #4]
 1430 00ec 5B68     		ldr	r3, [r3, #4]
 1431 00ee 022B     		cmp	r3, #2
 1432 00f0 12D1     		bne	.L102
1057:E:/LiteOS/LiteOS_Lab/drivers/third_party/ST/STM32L4xx_HAL_Driver/Src\stm32l4xx_hal_rcc.c ****       {
ARM GAS  C:\Users\user\AppData\Local\Temp\ccmqW6jC.s 			page 45


1058:E:/LiteOS/LiteOS_Lab/drivers/third_party/ST/STM32L4xx_HAL_Driver/Src\stm32l4xx_hal_rcc.c ****         while (__HAL_RCC_GET_SYSCLK_SOURCE() != RCC_CFGR_SWS_HSE)
 1433              		.loc 1 1058 0
 1434 00f2 0AE0     		b	.L103
 1435              	.L104:
1059:E:/LiteOS/LiteOS_Lab/drivers/third_party/ST/STM32L4xx_HAL_Driver/Src\stm32l4xx_hal_rcc.c ****         {
1060:E:/LiteOS/LiteOS_Lab/drivers/third_party/ST/STM32L4xx_HAL_Driver/Src\stm32l4xx_hal_rcc.c ****           if((HAL_GetTick() - tickstart) > CLOCKSWITCH_TIMEOUT_VALUE)
 1436              		.loc 1 1060 0
 1437 00f4 FFF7FEFF 		bl	HAL_GetTick
 1438 00f8 0246     		mov	r2, r0
 1439 00fa FB68     		ldr	r3, [r7, #12]
 1440 00fc D31A     		subs	r3, r2, r3
 1441 00fe 41F28832 		movw	r2, #5000
 1442 0102 9342     		cmp	r3, r2
 1443 0104 01D9     		bls	.L103
1061:E:/LiteOS/LiteOS_Lab/drivers/third_party/ST/STM32L4xx_HAL_Driver/Src\stm32l4xx_hal_rcc.c ****           {
1062:E:/LiteOS/LiteOS_Lab/drivers/third_party/ST/STM32L4xx_HAL_Driver/Src\stm32l4xx_hal_rcc.c ****             return HAL_TIMEOUT;
 1444              		.loc 1 1062 0
 1445 0106 0323     		movs	r3, #3
 1446 0108 86E0     		b	.L93
 1447              	.L103:
1058:E:/LiteOS/LiteOS_Lab/drivers/third_party/ST/STM32L4xx_HAL_Driver/Src\stm32l4xx_hal_rcc.c ****         {
 1448              		.loc 1 1058 0
 1449 010a 464B     		ldr	r3, .L114+4
 1450 010c 9B68     		ldr	r3, [r3, #8]
 1451 010e 03F00C03 		and	r3, r3, #12
 1452 0112 082B     		cmp	r3, #8
 1453 0114 EED1     		bne	.L104
 1454 0116 27E0     		b	.L94
 1455              	.L102:
1063:E:/LiteOS/LiteOS_Lab/drivers/third_party/ST/STM32L4xx_HAL_Driver/Src\stm32l4xx_hal_rcc.c ****           }
1064:E:/LiteOS/LiteOS_Lab/drivers/third_party/ST/STM32L4xx_HAL_Driver/Src\stm32l4xx_hal_rcc.c ****         }
1065:E:/LiteOS/LiteOS_Lab/drivers/third_party/ST/STM32L4xx_HAL_Driver/Src\stm32l4xx_hal_rcc.c ****       }
1066:E:/LiteOS/LiteOS_Lab/drivers/third_party/ST/STM32L4xx_HAL_Driver/Src\stm32l4xx_hal_rcc.c ****       else if(RCC_ClkInitStruct->SYSCLKSource == RCC_SYSCLKSOURCE_MSI)
 1456              		.loc 1 1066 0
 1457 0118 7B68     		ldr	r3, [r7, #4]
 1458 011a 5B68     		ldr	r3, [r3, #4]
 1459 011c 002B     		cmp	r3, #0
 1460 011e 1DD1     		bne	.L108
1067:E:/LiteOS/LiteOS_Lab/drivers/third_party/ST/STM32L4xx_HAL_Driver/Src\stm32l4xx_hal_rcc.c ****       {
1068:E:/LiteOS/LiteOS_Lab/drivers/third_party/ST/STM32L4xx_HAL_Driver/Src\stm32l4xx_hal_rcc.c ****         while (__HAL_RCC_GET_SYSCLK_SOURCE() != RCC_CFGR_SWS_MSI)
 1461              		.loc 1 1068 0
 1462 0120 0AE0     		b	.L106
 1463              	.L107:
1069:E:/LiteOS/LiteOS_Lab/drivers/third_party/ST/STM32L4xx_HAL_Driver/Src\stm32l4xx_hal_rcc.c ****         {
1070:E:/LiteOS/LiteOS_Lab/drivers/third_party/ST/STM32L4xx_HAL_Driver/Src\stm32l4xx_hal_rcc.c ****           if((HAL_GetTick() - tickstart) > CLOCKSWITCH_TIMEOUT_VALUE)
 1464              		.loc 1 1070 0
 1465 0122 FFF7FEFF 		bl	HAL_GetTick
 1466 0126 0246     		mov	r2, r0
 1467 0128 FB68     		ldr	r3, [r7, #12]
 1468 012a D31A     		subs	r3, r2, r3
 1469 012c 41F28832 		movw	r2, #5000
 1470 0130 9342     		cmp	r3, r2
 1471 0132 01D9     		bls	.L106
1071:E:/LiteOS/LiteOS_Lab/drivers/third_party/ST/STM32L4xx_HAL_Driver/Src\stm32l4xx_hal_rcc.c ****           {
1072:E:/LiteOS/LiteOS_Lab/drivers/third_party/ST/STM32L4xx_HAL_Driver/Src\stm32l4xx_hal_rcc.c ****             return HAL_TIMEOUT;
 1472              		.loc 1 1072 0
 1473 0134 0323     		movs	r3, #3
ARM GAS  C:\Users\user\AppData\Local\Temp\ccmqW6jC.s 			page 46


 1474 0136 6FE0     		b	.L93
 1475              	.L106:
1068:E:/LiteOS/LiteOS_Lab/drivers/third_party/ST/STM32L4xx_HAL_Driver/Src\stm32l4xx_hal_rcc.c ****         {
 1476              		.loc 1 1068 0
 1477 0138 3A4B     		ldr	r3, .L114+4
 1478 013a 9B68     		ldr	r3, [r3, #8]
 1479 013c 03F00C03 		and	r3, r3, #12
 1480 0140 002B     		cmp	r3, #0
 1481 0142 EED1     		bne	.L107
 1482 0144 10E0     		b	.L94
 1483              	.L109:
1073:E:/LiteOS/LiteOS_Lab/drivers/third_party/ST/STM32L4xx_HAL_Driver/Src\stm32l4xx_hal_rcc.c ****           }
1074:E:/LiteOS/LiteOS_Lab/drivers/third_party/ST/STM32L4xx_HAL_Driver/Src\stm32l4xx_hal_rcc.c ****         }
1075:E:/LiteOS/LiteOS_Lab/drivers/third_party/ST/STM32L4xx_HAL_Driver/Src\stm32l4xx_hal_rcc.c ****       }
1076:E:/LiteOS/LiteOS_Lab/drivers/third_party/ST/STM32L4xx_HAL_Driver/Src\stm32l4xx_hal_rcc.c ****       else
1077:E:/LiteOS/LiteOS_Lab/drivers/third_party/ST/STM32L4xx_HAL_Driver/Src\stm32l4xx_hal_rcc.c ****       {
1078:E:/LiteOS/LiteOS_Lab/drivers/third_party/ST/STM32L4xx_HAL_Driver/Src\stm32l4xx_hal_rcc.c ****         while(__HAL_RCC_GET_SYSCLK_SOURCE() != RCC_CFGR_SWS_HSI)
1079:E:/LiteOS/LiteOS_Lab/drivers/third_party/ST/STM32L4xx_HAL_Driver/Src\stm32l4xx_hal_rcc.c ****         {
1080:E:/LiteOS/LiteOS_Lab/drivers/third_party/ST/STM32L4xx_HAL_Driver/Src\stm32l4xx_hal_rcc.c ****           if((HAL_GetTick() - tickstart) > CLOCKSWITCH_TIMEOUT_VALUE)
 1484              		.loc 1 1080 0
 1485 0146 FFF7FEFF 		bl	HAL_GetTick
 1486 014a 0246     		mov	r2, r0
 1487 014c FB68     		ldr	r3, [r7, #12]
 1488 014e D31A     		subs	r3, r2, r3
 1489 0150 41F28832 		movw	r2, #5000
 1490 0154 9342     		cmp	r3, r2
 1491 0156 01D9     		bls	.L108
1081:E:/LiteOS/LiteOS_Lab/drivers/third_party/ST/STM32L4xx_HAL_Driver/Src\stm32l4xx_hal_rcc.c ****           {
1082:E:/LiteOS/LiteOS_Lab/drivers/third_party/ST/STM32L4xx_HAL_Driver/Src\stm32l4xx_hal_rcc.c ****             return HAL_TIMEOUT;
 1492              		.loc 1 1082 0
 1493 0158 0323     		movs	r3, #3
 1494 015a 5DE0     		b	.L93
 1495              	.L108:
1078:E:/LiteOS/LiteOS_Lab/drivers/third_party/ST/STM32L4xx_HAL_Driver/Src\stm32l4xx_hal_rcc.c ****         {
 1496              		.loc 1 1078 0
 1497 015c 314B     		ldr	r3, .L114+4
 1498 015e 9B68     		ldr	r3, [r3, #8]
 1499 0160 03F00C03 		and	r3, r3, #12
 1500 0164 042B     		cmp	r3, #4
 1501 0166 EED1     		bne	.L109
 1502              	.L94:
1083:E:/LiteOS/LiteOS_Lab/drivers/third_party/ST/STM32L4xx_HAL_Driver/Src\stm32l4xx_hal_rcc.c ****           }
1084:E:/LiteOS/LiteOS_Lab/drivers/third_party/ST/STM32L4xx_HAL_Driver/Src\stm32l4xx_hal_rcc.c ****         }
1085:E:/LiteOS/LiteOS_Lab/drivers/third_party/ST/STM32L4xx_HAL_Driver/Src\stm32l4xx_hal_rcc.c ****       }
1086:E:/LiteOS/LiteOS_Lab/drivers/third_party/ST/STM32L4xx_HAL_Driver/Src\stm32l4xx_hal_rcc.c ****     }
1087:E:/LiteOS/LiteOS_Lab/drivers/third_party/ST/STM32L4xx_HAL_Driver/Src\stm32l4xx_hal_rcc.c ****   }
1088:E:/LiteOS/LiteOS_Lab/drivers/third_party/ST/STM32L4xx_HAL_Driver/Src\stm32l4xx_hal_rcc.c **** 
1089:E:/LiteOS/LiteOS_Lab/drivers/third_party/ST/STM32L4xx_HAL_Driver/Src\stm32l4xx_hal_rcc.c ****   /*-------------------------- HCLK Configuration --------------------------*/
1090:E:/LiteOS/LiteOS_Lab/drivers/third_party/ST/STM32L4xx_HAL_Driver/Src\stm32l4xx_hal_rcc.c ****   if(((RCC_ClkInitStruct->ClockType) & RCC_CLOCKTYPE_HCLK) == RCC_CLOCKTYPE_HCLK)
 1503              		.loc 1 1090 0
 1504 0168 7B68     		ldr	r3, [r7, #4]
 1505 016a 1B68     		ldr	r3, [r3]
 1506 016c 03F00203 		and	r3, r3, #2
 1507 0170 002B     		cmp	r3, #0
 1508 0172 08D0     		beq	.L110
1091:E:/LiteOS/LiteOS_Lab/drivers/third_party/ST/STM32L4xx_HAL_Driver/Src\stm32l4xx_hal_rcc.c ****   {
1092:E:/LiteOS/LiteOS_Lab/drivers/third_party/ST/STM32L4xx_HAL_Driver/Src\stm32l4xx_hal_rcc.c ****     assert_param(IS_RCC_HCLK(RCC_ClkInitStruct->AHBCLKDivider));
ARM GAS  C:\Users\user\AppData\Local\Temp\ccmqW6jC.s 			page 47


1093:E:/LiteOS/LiteOS_Lab/drivers/third_party/ST/STM32L4xx_HAL_Driver/Src\stm32l4xx_hal_rcc.c ****     MODIFY_REG(RCC->CFGR, RCC_CFGR_HPRE, RCC_ClkInitStruct->AHBCLKDivider);
 1509              		.loc 1 1093 0
 1510 0174 2B4B     		ldr	r3, .L114+4
 1511 0176 9B68     		ldr	r3, [r3, #8]
 1512 0178 23F0F002 		bic	r2, r3, #240
 1513 017c 7B68     		ldr	r3, [r7, #4]
 1514 017e 9B68     		ldr	r3, [r3, #8]
 1515 0180 2849     		ldr	r1, .L114+4
 1516 0182 1343     		orrs	r3, r3, r2
 1517 0184 8B60     		str	r3, [r1, #8]
 1518              	.L110:
1094:E:/LiteOS/LiteOS_Lab/drivers/third_party/ST/STM32L4xx_HAL_Driver/Src\stm32l4xx_hal_rcc.c ****   }
1095:E:/LiteOS/LiteOS_Lab/drivers/third_party/ST/STM32L4xx_HAL_Driver/Src\stm32l4xx_hal_rcc.c **** #if defined(STM32L4R5xx) || defined(STM32L4R7xx) || defined(STM32L4R9xx) || defined(STM32L4S5xx) ||
1096:E:/LiteOS/LiteOS_Lab/drivers/third_party/ST/STM32L4xx_HAL_Driver/Src\stm32l4xx_hal_rcc.c ****   else
1097:E:/LiteOS/LiteOS_Lab/drivers/third_party/ST/STM32L4xx_HAL_Driver/Src\stm32l4xx_hal_rcc.c ****   {
1098:E:/LiteOS/LiteOS_Lab/drivers/third_party/ST/STM32L4xx_HAL_Driver/Src\stm32l4xx_hal_rcc.c ****     /* Is intermediate HCLK prescaler 2 applied internally, complete with HCLK prescaler 1 */
1099:E:/LiteOS/LiteOS_Lab/drivers/third_party/ST/STM32L4xx_HAL_Driver/Src\stm32l4xx_hal_rcc.c ****     if(hpre == RCC_SYSCLK_DIV2)
1100:E:/LiteOS/LiteOS_Lab/drivers/third_party/ST/STM32L4xx_HAL_Driver/Src\stm32l4xx_hal_rcc.c ****     {
1101:E:/LiteOS/LiteOS_Lab/drivers/third_party/ST/STM32L4xx_HAL_Driver/Src\stm32l4xx_hal_rcc.c ****       MODIFY_REG(RCC->CFGR, RCC_CFGR_HPRE, RCC_SYSCLK_DIV1);
1102:E:/LiteOS/LiteOS_Lab/drivers/third_party/ST/STM32L4xx_HAL_Driver/Src\stm32l4xx_hal_rcc.c ****     }
1103:E:/LiteOS/LiteOS_Lab/drivers/third_party/ST/STM32L4xx_HAL_Driver/Src\stm32l4xx_hal_rcc.c ****   }
1104:E:/LiteOS/LiteOS_Lab/drivers/third_party/ST/STM32L4xx_HAL_Driver/Src\stm32l4xx_hal_rcc.c **** #endif
1105:E:/LiteOS/LiteOS_Lab/drivers/third_party/ST/STM32L4xx_HAL_Driver/Src\stm32l4xx_hal_rcc.c **** 
1106:E:/LiteOS/LiteOS_Lab/drivers/third_party/ST/STM32L4xx_HAL_Driver/Src\stm32l4xx_hal_rcc.c ****   /* Decreasing the number of wait states because of lower CPU frequency */
1107:E:/LiteOS/LiteOS_Lab/drivers/third_party/ST/STM32L4xx_HAL_Driver/Src\stm32l4xx_hal_rcc.c ****   if(FLatency < READ_BIT(FLASH->ACR, FLASH_ACR_LATENCY))
 1519              		.loc 1 1107 0
 1520 0186 264B     		ldr	r3, .L114
 1521 0188 1B68     		ldr	r3, [r3]
 1522 018a 03F00703 		and	r3, r3, #7
 1523 018e 3A68     		ldr	r2, [r7]
 1524 0190 9A42     		cmp	r2, r3
 1525 0192 10D2     		bcs	.L111
1108:E:/LiteOS/LiteOS_Lab/drivers/third_party/ST/STM32L4xx_HAL_Driver/Src\stm32l4xx_hal_rcc.c ****   {
1109:E:/LiteOS/LiteOS_Lab/drivers/third_party/ST/STM32L4xx_HAL_Driver/Src\stm32l4xx_hal_rcc.c ****     /* Program the new number of wait states to the LATENCY bits in the FLASH_ACR register */
1110:E:/LiteOS/LiteOS_Lab/drivers/third_party/ST/STM32L4xx_HAL_Driver/Src\stm32l4xx_hal_rcc.c ****     __HAL_FLASH_SET_LATENCY(FLatency);
 1526              		.loc 1 1110 0
 1527 0194 224B     		ldr	r3, .L114
 1528 0196 1B68     		ldr	r3, [r3]
 1529 0198 23F00702 		bic	r2, r3, #7
 1530 019c 2049     		ldr	r1, .L114
 1531 019e 3B68     		ldr	r3, [r7]
 1532 01a0 1343     		orrs	r3, r3, r2
 1533 01a2 0B60     		str	r3, [r1]
1111:E:/LiteOS/LiteOS_Lab/drivers/third_party/ST/STM32L4xx_HAL_Driver/Src\stm32l4xx_hal_rcc.c **** 
1112:E:/LiteOS/LiteOS_Lab/drivers/third_party/ST/STM32L4xx_HAL_Driver/Src\stm32l4xx_hal_rcc.c ****     /* Check that the new number of wait states is taken into account to access the Flash
1113:E:/LiteOS/LiteOS_Lab/drivers/third_party/ST/STM32L4xx_HAL_Driver/Src\stm32l4xx_hal_rcc.c ****     memory by reading the FLASH_ACR register */
1114:E:/LiteOS/LiteOS_Lab/drivers/third_party/ST/STM32L4xx_HAL_Driver/Src\stm32l4xx_hal_rcc.c ****     if(READ_BIT(FLASH->ACR, FLASH_ACR_LATENCY) != FLatency)
 1534              		.loc 1 1114 0
 1535 01a4 1E4B     		ldr	r3, .L114
 1536 01a6 1B68     		ldr	r3, [r3]
 1537 01a8 03F00703 		and	r3, r3, #7
 1538 01ac 3A68     		ldr	r2, [r7]
 1539 01ae 9A42     		cmp	r2, r3
 1540 01b0 01D0     		beq	.L111
1115:E:/LiteOS/LiteOS_Lab/drivers/third_party/ST/STM32L4xx_HAL_Driver/Src\stm32l4xx_hal_rcc.c ****     {
1116:E:/LiteOS/LiteOS_Lab/drivers/third_party/ST/STM32L4xx_HAL_Driver/Src\stm32l4xx_hal_rcc.c ****       return HAL_ERROR;
 1541              		.loc 1 1116 0
ARM GAS  C:\Users\user\AppData\Local\Temp\ccmqW6jC.s 			page 48


 1542 01b2 0123     		movs	r3, #1
 1543 01b4 30E0     		b	.L93
 1544              	.L111:
1117:E:/LiteOS/LiteOS_Lab/drivers/third_party/ST/STM32L4xx_HAL_Driver/Src\stm32l4xx_hal_rcc.c ****     }
1118:E:/LiteOS/LiteOS_Lab/drivers/third_party/ST/STM32L4xx_HAL_Driver/Src\stm32l4xx_hal_rcc.c ****   }
1119:E:/LiteOS/LiteOS_Lab/drivers/third_party/ST/STM32L4xx_HAL_Driver/Src\stm32l4xx_hal_rcc.c **** 
1120:E:/LiteOS/LiteOS_Lab/drivers/third_party/ST/STM32L4xx_HAL_Driver/Src\stm32l4xx_hal_rcc.c ****   /*-------------------------- PCLK1 Configuration ---------------------------*/
1121:E:/LiteOS/LiteOS_Lab/drivers/third_party/ST/STM32L4xx_HAL_Driver/Src\stm32l4xx_hal_rcc.c ****   if(((RCC_ClkInitStruct->ClockType) & RCC_CLOCKTYPE_PCLK1) == RCC_CLOCKTYPE_PCLK1)
 1545              		.loc 1 1121 0
 1546 01b6 7B68     		ldr	r3, [r7, #4]
 1547 01b8 1B68     		ldr	r3, [r3]
 1548 01ba 03F00403 		and	r3, r3, #4
 1549 01be 002B     		cmp	r3, #0
 1550 01c0 08D0     		beq	.L112
1122:E:/LiteOS/LiteOS_Lab/drivers/third_party/ST/STM32L4xx_HAL_Driver/Src\stm32l4xx_hal_rcc.c ****   {
1123:E:/LiteOS/LiteOS_Lab/drivers/third_party/ST/STM32L4xx_HAL_Driver/Src\stm32l4xx_hal_rcc.c ****     assert_param(IS_RCC_PCLK(RCC_ClkInitStruct->APB1CLKDivider));
1124:E:/LiteOS/LiteOS_Lab/drivers/third_party/ST/STM32L4xx_HAL_Driver/Src\stm32l4xx_hal_rcc.c ****     MODIFY_REG(RCC->CFGR, RCC_CFGR_PPRE1, RCC_ClkInitStruct->APB1CLKDivider);
 1551              		.loc 1 1124 0
 1552 01c2 184B     		ldr	r3, .L114+4
 1553 01c4 9B68     		ldr	r3, [r3, #8]
 1554 01c6 23F4E062 		bic	r2, r3, #1792
 1555 01ca 7B68     		ldr	r3, [r7, #4]
 1556 01cc DB68     		ldr	r3, [r3, #12]
 1557 01ce 1549     		ldr	r1, .L114+4
 1558 01d0 1343     		orrs	r3, r3, r2
 1559 01d2 8B60     		str	r3, [r1, #8]
 1560              	.L112:
1125:E:/LiteOS/LiteOS_Lab/drivers/third_party/ST/STM32L4xx_HAL_Driver/Src\stm32l4xx_hal_rcc.c ****   }
1126:E:/LiteOS/LiteOS_Lab/drivers/third_party/ST/STM32L4xx_HAL_Driver/Src\stm32l4xx_hal_rcc.c **** 
1127:E:/LiteOS/LiteOS_Lab/drivers/third_party/ST/STM32L4xx_HAL_Driver/Src\stm32l4xx_hal_rcc.c ****   /*-------------------------- PCLK2 Configuration ---------------------------*/
1128:E:/LiteOS/LiteOS_Lab/drivers/third_party/ST/STM32L4xx_HAL_Driver/Src\stm32l4xx_hal_rcc.c ****   if(((RCC_ClkInitStruct->ClockType) & RCC_CLOCKTYPE_PCLK2) == RCC_CLOCKTYPE_PCLK2)
 1561              		.loc 1 1128 0
 1562 01d4 7B68     		ldr	r3, [r7, #4]
 1563 01d6 1B68     		ldr	r3, [r3]
 1564 01d8 03F00803 		and	r3, r3, #8
 1565 01dc 002B     		cmp	r3, #0
 1566 01de 09D0     		beq	.L113
1129:E:/LiteOS/LiteOS_Lab/drivers/third_party/ST/STM32L4xx_HAL_Driver/Src\stm32l4xx_hal_rcc.c ****   {
1130:E:/LiteOS/LiteOS_Lab/drivers/third_party/ST/STM32L4xx_HAL_Driver/Src\stm32l4xx_hal_rcc.c ****     assert_param(IS_RCC_PCLK(RCC_ClkInitStruct->APB2CLKDivider));
1131:E:/LiteOS/LiteOS_Lab/drivers/third_party/ST/STM32L4xx_HAL_Driver/Src\stm32l4xx_hal_rcc.c ****     MODIFY_REG(RCC->CFGR, RCC_CFGR_PPRE2, ((RCC_ClkInitStruct->APB2CLKDivider) << 3U));
 1567              		.loc 1 1131 0
 1568 01e0 104B     		ldr	r3, .L114+4
 1569 01e2 9B68     		ldr	r3, [r3, #8]
 1570 01e4 23F46052 		bic	r2, r3, #14336
 1571 01e8 7B68     		ldr	r3, [r7, #4]
 1572 01ea 1B69     		ldr	r3, [r3, #16]
 1573 01ec DB00     		lsls	r3, r3, #3
 1574 01ee 0D49     		ldr	r1, .L114+4
 1575 01f0 1343     		orrs	r3, r3, r2
 1576 01f2 8B60     		str	r3, [r1, #8]
 1577              	.L113:
1132:E:/LiteOS/LiteOS_Lab/drivers/third_party/ST/STM32L4xx_HAL_Driver/Src\stm32l4xx_hal_rcc.c ****   }
1133:E:/LiteOS/LiteOS_Lab/drivers/third_party/ST/STM32L4xx_HAL_Driver/Src\stm32l4xx_hal_rcc.c **** 
1134:E:/LiteOS/LiteOS_Lab/drivers/third_party/ST/STM32L4xx_HAL_Driver/Src\stm32l4xx_hal_rcc.c ****   /* Update the SystemCoreClock global variable */
1135:E:/LiteOS/LiteOS_Lab/drivers/third_party/ST/STM32L4xx_HAL_Driver/Src\stm32l4xx_hal_rcc.c ****   SystemCoreClock = HAL_RCC_GetSysClockFreq() >> AHBPrescTable[READ_BIT(RCC->CFGR, RCC_CFGR_HPRE) >
 1578              		.loc 1 1135 0
 1579 01f4 FFF7FEFF 		bl	HAL_RCC_GetSysClockFreq
ARM GAS  C:\Users\user\AppData\Local\Temp\ccmqW6jC.s 			page 49


 1580 01f8 0146     		mov	r1, r0
 1581 01fa 0A4B     		ldr	r3, .L114+4
 1582 01fc 9B68     		ldr	r3, [r3, #8]
 1583 01fe 1B09     		lsrs	r3, r3, #4
 1584 0200 03F00F03 		and	r3, r3, #15
 1585 0204 084A     		ldr	r2, .L114+8
 1586 0206 D35C     		ldrb	r3, [r2, r3]	@ zero_extendqisi2
 1587 0208 21FA03F3 		lsr	r3, r1, r3
 1588 020c 074A     		ldr	r2, .L114+12
 1589 020e 1360     		str	r3, [r2]
1136:E:/LiteOS/LiteOS_Lab/drivers/third_party/ST/STM32L4xx_HAL_Driver/Src\stm32l4xx_hal_rcc.c **** 
1137:E:/LiteOS/LiteOS_Lab/drivers/third_party/ST/STM32L4xx_HAL_Driver/Src\stm32l4xx_hal_rcc.c ****   /* Configure the source of time base considering new system clocks settings*/
1138:E:/LiteOS/LiteOS_Lab/drivers/third_party/ST/STM32L4xx_HAL_Driver/Src\stm32l4xx_hal_rcc.c ****   HAL_InitTick (TICK_INT_PRIORITY);
 1590              		.loc 1 1138 0
 1591 0210 0020     		movs	r0, #0
 1592 0212 FFF7FEFF 		bl	HAL_InitTick
1139:E:/LiteOS/LiteOS_Lab/drivers/third_party/ST/STM32L4xx_HAL_Driver/Src\stm32l4xx_hal_rcc.c **** 
1140:E:/LiteOS/LiteOS_Lab/drivers/third_party/ST/STM32L4xx_HAL_Driver/Src\stm32l4xx_hal_rcc.c ****   return HAL_OK;
 1593              		.loc 1 1140 0
 1594 0216 0023     		movs	r3, #0
 1595              	.L93:
1141:E:/LiteOS/LiteOS_Lab/drivers/third_party/ST/STM32L4xx_HAL_Driver/Src\stm32l4xx_hal_rcc.c **** }
 1596              		.loc 1 1141 0
 1597 0218 1846     		mov	r0, r3
 1598 021a 1037     		adds	r7, r7, #16
 1599              	.LCFI13:
 1600              		.cfi_def_cfa_offset 8
 1601 021c BD46     		mov	sp, r7
 1602              	.LCFI14:
 1603              		.cfi_def_cfa_register 13
 1604              		@ sp needed
 1605 021e 80BD     		pop	{r7, pc}
 1606              	.L115:
 1607              		.align	2
 1608              	.L114:
 1609 0220 00200240 		.word	1073881088
 1610 0224 00100240 		.word	1073876992
 1611 0228 00000000 		.word	AHBPrescTable
 1612 022c 00000000 		.word	SystemCoreClock
 1613              		.cfi_endproc
 1614              	.LFE135:
 1616              		.section	.text.HAL_RCC_MCOConfig,"ax",%progbits
 1617              		.align	1
 1618              		.global	HAL_RCC_MCOConfig
 1619              		.syntax unified
 1620              		.thumb
 1621              		.thumb_func
 1622              		.fpu fpv4-sp-d16
 1624              	HAL_RCC_MCOConfig:
 1625              	.LFB136:
1142:E:/LiteOS/LiteOS_Lab/drivers/third_party/ST/STM32L4xx_HAL_Driver/Src\stm32l4xx_hal_rcc.c **** 
1143:E:/LiteOS/LiteOS_Lab/drivers/third_party/ST/STM32L4xx_HAL_Driver/Src\stm32l4xx_hal_rcc.c **** /**
1144:E:/LiteOS/LiteOS_Lab/drivers/third_party/ST/STM32L4xx_HAL_Driver/Src\stm32l4xx_hal_rcc.c ****   * @}
1145:E:/LiteOS/LiteOS_Lab/drivers/third_party/ST/STM32L4xx_HAL_Driver/Src\stm32l4xx_hal_rcc.c ****   */
1146:E:/LiteOS/LiteOS_Lab/drivers/third_party/ST/STM32L4xx_HAL_Driver/Src\stm32l4xx_hal_rcc.c **** 
1147:E:/LiteOS/LiteOS_Lab/drivers/third_party/ST/STM32L4xx_HAL_Driver/Src\stm32l4xx_hal_rcc.c **** /** @defgroup RCC_Exported_Functions_Group2 Peripheral Control functions
1148:E:/LiteOS/LiteOS_Lab/drivers/third_party/ST/STM32L4xx_HAL_Driver/Src\stm32l4xx_hal_rcc.c ****  *  @brief   RCC clocks control functions
ARM GAS  C:\Users\user\AppData\Local\Temp\ccmqW6jC.s 			page 50


1149:E:/LiteOS/LiteOS_Lab/drivers/third_party/ST/STM32L4xx_HAL_Driver/Src\stm32l4xx_hal_rcc.c ****  *
1150:E:/LiteOS/LiteOS_Lab/drivers/third_party/ST/STM32L4xx_HAL_Driver/Src\stm32l4xx_hal_rcc.c **** @verbatim
1151:E:/LiteOS/LiteOS_Lab/drivers/third_party/ST/STM32L4xx_HAL_Driver/Src\stm32l4xx_hal_rcc.c ****  ===============================================================================
1152:E:/LiteOS/LiteOS_Lab/drivers/third_party/ST/STM32L4xx_HAL_Driver/Src\stm32l4xx_hal_rcc.c ****                       ##### Peripheral Control functions #####
1153:E:/LiteOS/LiteOS_Lab/drivers/third_party/ST/STM32L4xx_HAL_Driver/Src\stm32l4xx_hal_rcc.c ****  ===============================================================================
1154:E:/LiteOS/LiteOS_Lab/drivers/third_party/ST/STM32L4xx_HAL_Driver/Src\stm32l4xx_hal_rcc.c ****     [..]
1155:E:/LiteOS/LiteOS_Lab/drivers/third_party/ST/STM32L4xx_HAL_Driver/Src\stm32l4xx_hal_rcc.c ****     This subsection provides a set of functions allowing to:
1156:E:/LiteOS/LiteOS_Lab/drivers/third_party/ST/STM32L4xx_HAL_Driver/Src\stm32l4xx_hal_rcc.c **** 
1157:E:/LiteOS/LiteOS_Lab/drivers/third_party/ST/STM32L4xx_HAL_Driver/Src\stm32l4xx_hal_rcc.c ****     (+) Ouput clock to MCO pin.
1158:E:/LiteOS/LiteOS_Lab/drivers/third_party/ST/STM32L4xx_HAL_Driver/Src\stm32l4xx_hal_rcc.c ****     (+) Retrieve current clock frequencies.
1159:E:/LiteOS/LiteOS_Lab/drivers/third_party/ST/STM32L4xx_HAL_Driver/Src\stm32l4xx_hal_rcc.c ****     (+) Enable the Clock Security System.
1160:E:/LiteOS/LiteOS_Lab/drivers/third_party/ST/STM32L4xx_HAL_Driver/Src\stm32l4xx_hal_rcc.c **** 
1161:E:/LiteOS/LiteOS_Lab/drivers/third_party/ST/STM32L4xx_HAL_Driver/Src\stm32l4xx_hal_rcc.c **** @endverbatim
1162:E:/LiteOS/LiteOS_Lab/drivers/third_party/ST/STM32L4xx_HAL_Driver/Src\stm32l4xx_hal_rcc.c ****   * @{
1163:E:/LiteOS/LiteOS_Lab/drivers/third_party/ST/STM32L4xx_HAL_Driver/Src\stm32l4xx_hal_rcc.c ****   */
1164:E:/LiteOS/LiteOS_Lab/drivers/third_party/ST/STM32L4xx_HAL_Driver/Src\stm32l4xx_hal_rcc.c **** 
1165:E:/LiteOS/LiteOS_Lab/drivers/third_party/ST/STM32L4xx_HAL_Driver/Src\stm32l4xx_hal_rcc.c **** /**
1166:E:/LiteOS/LiteOS_Lab/drivers/third_party/ST/STM32L4xx_HAL_Driver/Src\stm32l4xx_hal_rcc.c ****   * @brief  Select the clock source to output on MCO pin(PA8).
1167:E:/LiteOS/LiteOS_Lab/drivers/third_party/ST/STM32L4xx_HAL_Driver/Src\stm32l4xx_hal_rcc.c ****   * @note   PA8 should be configured in alternate function mode.
1168:E:/LiteOS/LiteOS_Lab/drivers/third_party/ST/STM32L4xx_HAL_Driver/Src\stm32l4xx_hal_rcc.c ****   * @param  RCC_MCOx  specifies the output direction for the clock source.
1169:E:/LiteOS/LiteOS_Lab/drivers/third_party/ST/STM32L4xx_HAL_Driver/Src\stm32l4xx_hal_rcc.c ****   *          For STM32L4xx family this parameter can have only one value:
1170:E:/LiteOS/LiteOS_Lab/drivers/third_party/ST/STM32L4xx_HAL_Driver/Src\stm32l4xx_hal_rcc.c ****   *            @arg @ref RCC_MCO1  Clock source to output on MCO1 pin(PA8).
1171:E:/LiteOS/LiteOS_Lab/drivers/third_party/ST/STM32L4xx_HAL_Driver/Src\stm32l4xx_hal_rcc.c ****   * @param  RCC_MCOSource  specifies the clock source to output.
1172:E:/LiteOS/LiteOS_Lab/drivers/third_party/ST/STM32L4xx_HAL_Driver/Src\stm32l4xx_hal_rcc.c ****   *          This parameter can be one of the following values:
1173:E:/LiteOS/LiteOS_Lab/drivers/third_party/ST/STM32L4xx_HAL_Driver/Src\stm32l4xx_hal_rcc.c ****   *            @arg @ref RCC_MCO1SOURCE_NOCLOCK  MCO output disabled, no clock on MCO
1174:E:/LiteOS/LiteOS_Lab/drivers/third_party/ST/STM32L4xx_HAL_Driver/Src\stm32l4xx_hal_rcc.c ****   *            @arg @ref RCC_MCO1SOURCE_SYSCLK  system  clock selected as MCO source
1175:E:/LiteOS/LiteOS_Lab/drivers/third_party/ST/STM32L4xx_HAL_Driver/Src\stm32l4xx_hal_rcc.c ****   *            @arg @ref RCC_MCO1SOURCE_MSI  MSI clock selected as MCO source
1176:E:/LiteOS/LiteOS_Lab/drivers/third_party/ST/STM32L4xx_HAL_Driver/Src\stm32l4xx_hal_rcc.c ****   *            @arg @ref RCC_MCO1SOURCE_HSI  HSI clock selected as MCO source
1177:E:/LiteOS/LiteOS_Lab/drivers/third_party/ST/STM32L4xx_HAL_Driver/Src\stm32l4xx_hal_rcc.c ****   *            @arg @ref RCC_MCO1SOURCE_HSE  HSE clock selected as MCO sourcee
1178:E:/LiteOS/LiteOS_Lab/drivers/third_party/ST/STM32L4xx_HAL_Driver/Src\stm32l4xx_hal_rcc.c ****   *            @arg @ref RCC_MCO1SOURCE_PLLCLK  main PLL clock selected as MCO source
1179:E:/LiteOS/LiteOS_Lab/drivers/third_party/ST/STM32L4xx_HAL_Driver/Src\stm32l4xx_hal_rcc.c ****   *            @arg @ref RCC_MCO1SOURCE_LSI  LSI clock selected as MCO source
1180:E:/LiteOS/LiteOS_Lab/drivers/third_party/ST/STM32L4xx_HAL_Driver/Src\stm32l4xx_hal_rcc.c ****   *            @arg @ref RCC_MCO1SOURCE_LSE  LSE clock selected as MCO source
1181:E:/LiteOS/LiteOS_Lab/drivers/third_party/ST/STM32L4xx_HAL_Driver/Src\stm32l4xx_hal_rcc.c ****   @if STM32L443xx
1182:E:/LiteOS/LiteOS_Lab/drivers/third_party/ST/STM32L4xx_HAL_Driver/Src\stm32l4xx_hal_rcc.c ****   *            @arg @ref RCC_MCO1SOURCE_HSI48  HSI48 clock selected as MCO source for devices with 
1183:E:/LiteOS/LiteOS_Lab/drivers/third_party/ST/STM32L4xx_HAL_Driver/Src\stm32l4xx_hal_rcc.c ****   @endif
1184:E:/LiteOS/LiteOS_Lab/drivers/third_party/ST/STM32L4xx_HAL_Driver/Src\stm32l4xx_hal_rcc.c ****   * @param  RCC_MCODiv  specifies the MCO prescaler.
1185:E:/LiteOS/LiteOS_Lab/drivers/third_party/ST/STM32L4xx_HAL_Driver/Src\stm32l4xx_hal_rcc.c ****   *          This parameter can be one of the following values:
1186:E:/LiteOS/LiteOS_Lab/drivers/third_party/ST/STM32L4xx_HAL_Driver/Src\stm32l4xx_hal_rcc.c ****   *            @arg @ref RCC_MCODIV_1  no division applied to MCO clock
1187:E:/LiteOS/LiteOS_Lab/drivers/third_party/ST/STM32L4xx_HAL_Driver/Src\stm32l4xx_hal_rcc.c ****   *            @arg @ref RCC_MCODIV_2  division by 2 applied to MCO clock
1188:E:/LiteOS/LiteOS_Lab/drivers/third_party/ST/STM32L4xx_HAL_Driver/Src\stm32l4xx_hal_rcc.c ****   *            @arg @ref RCC_MCODIV_4  division by 4 applied to MCO clock
1189:E:/LiteOS/LiteOS_Lab/drivers/third_party/ST/STM32L4xx_HAL_Driver/Src\stm32l4xx_hal_rcc.c ****   *            @arg @ref RCC_MCODIV_8  division by 8 applied to MCO clock
1190:E:/LiteOS/LiteOS_Lab/drivers/third_party/ST/STM32L4xx_HAL_Driver/Src\stm32l4xx_hal_rcc.c ****   *            @arg @ref RCC_MCODIV_16  division by 16 applied to MCO clock
1191:E:/LiteOS/LiteOS_Lab/drivers/third_party/ST/STM32L4xx_HAL_Driver/Src\stm32l4xx_hal_rcc.c ****   * @retval None
1192:E:/LiteOS/LiteOS_Lab/drivers/third_party/ST/STM32L4xx_HAL_Driver/Src\stm32l4xx_hal_rcc.c ****   */
1193:E:/LiteOS/LiteOS_Lab/drivers/third_party/ST/STM32L4xx_HAL_Driver/Src\stm32l4xx_hal_rcc.c **** void HAL_RCC_MCOConfig( uint32_t RCC_MCOx, uint32_t RCC_MCOSource, uint32_t RCC_MCODiv)
1194:E:/LiteOS/LiteOS_Lab/drivers/third_party/ST/STM32L4xx_HAL_Driver/Src\stm32l4xx_hal_rcc.c **** {
 1626              		.loc 1 1194 0
 1627              		.cfi_startproc
 1628              		@ args = 0, pretend = 0, frame = 40
 1629              		@ frame_needed = 1, uses_anonymous_args = 0
 1630 0000 80B5     		push	{r7, lr}
 1631              	.LCFI15:
 1632              		.cfi_def_cfa_offset 8
 1633              		.cfi_offset 7, -8
 1634              		.cfi_offset 14, -4
 1635 0002 8AB0     		sub	sp, sp, #40
 1636              	.LCFI16:
ARM GAS  C:\Users\user\AppData\Local\Temp\ccmqW6jC.s 			page 51


 1637              		.cfi_def_cfa_offset 48
 1638 0004 00AF     		add	r7, sp, #0
 1639              	.LCFI17:
 1640              		.cfi_def_cfa_register 7
 1641 0006 F860     		str	r0, [r7, #12]
 1642 0008 B960     		str	r1, [r7, #8]
 1643 000a 7A60     		str	r2, [r7, #4]
 1644              	.LBB4:
1195:E:/LiteOS/LiteOS_Lab/drivers/third_party/ST/STM32L4xx_HAL_Driver/Src\stm32l4xx_hal_rcc.c ****   GPIO_InitTypeDef GPIO_InitStruct;
1196:E:/LiteOS/LiteOS_Lab/drivers/third_party/ST/STM32L4xx_HAL_Driver/Src\stm32l4xx_hal_rcc.c ****   /* Check the parameters */
1197:E:/LiteOS/LiteOS_Lab/drivers/third_party/ST/STM32L4xx_HAL_Driver/Src\stm32l4xx_hal_rcc.c ****   assert_param(IS_RCC_MCO(RCC_MCOx));
1198:E:/LiteOS/LiteOS_Lab/drivers/third_party/ST/STM32L4xx_HAL_Driver/Src\stm32l4xx_hal_rcc.c ****   assert_param(IS_RCC_MCODIV(RCC_MCODiv));
1199:E:/LiteOS/LiteOS_Lab/drivers/third_party/ST/STM32L4xx_HAL_Driver/Src\stm32l4xx_hal_rcc.c ****   assert_param(IS_RCC_MCO1SOURCE(RCC_MCOSource));
1200:E:/LiteOS/LiteOS_Lab/drivers/third_party/ST/STM32L4xx_HAL_Driver/Src\stm32l4xx_hal_rcc.c **** 
1201:E:/LiteOS/LiteOS_Lab/drivers/third_party/ST/STM32L4xx_HAL_Driver/Src\stm32l4xx_hal_rcc.c ****   /* MCO Clock Enable */
1202:E:/LiteOS/LiteOS_Lab/drivers/third_party/ST/STM32L4xx_HAL_Driver/Src\stm32l4xx_hal_rcc.c ****   __MCO1_CLK_ENABLE();
 1645              		.loc 1 1202 0
 1646 000c 154B     		ldr	r3, .L117
 1647 000e DB6C     		ldr	r3, [r3, #76]
 1648 0010 144A     		ldr	r2, .L117
 1649 0012 43F00103 		orr	r3, r3, #1
 1650 0016 D364     		str	r3, [r2, #76]
 1651 0018 124B     		ldr	r3, .L117
 1652 001a DB6C     		ldr	r3, [r3, #76]
 1653 001c 03F00103 		and	r3, r3, #1
 1654 0020 3B61     		str	r3, [r7, #16]
 1655 0022 3B69     		ldr	r3, [r7, #16]
 1656              	.LBE4:
1203:E:/LiteOS/LiteOS_Lab/drivers/third_party/ST/STM32L4xx_HAL_Driver/Src\stm32l4xx_hal_rcc.c **** 
1204:E:/LiteOS/LiteOS_Lab/drivers/third_party/ST/STM32L4xx_HAL_Driver/Src\stm32l4xx_hal_rcc.c ****   /* Configue the MCO1 pin in alternate function mode */
1205:E:/LiteOS/LiteOS_Lab/drivers/third_party/ST/STM32L4xx_HAL_Driver/Src\stm32l4xx_hal_rcc.c ****   GPIO_InitStruct.Pin = MCO1_PIN;
 1657              		.loc 1 1205 0
 1658 0024 4FF48073 		mov	r3, #256
 1659 0028 7B61     		str	r3, [r7, #20]
1206:E:/LiteOS/LiteOS_Lab/drivers/third_party/ST/STM32L4xx_HAL_Driver/Src\stm32l4xx_hal_rcc.c ****   GPIO_InitStruct.Mode = GPIO_MODE_AF_PP;
 1660              		.loc 1 1206 0
 1661 002a 0223     		movs	r3, #2
 1662 002c BB61     		str	r3, [r7, #24]
1207:E:/LiteOS/LiteOS_Lab/drivers/third_party/ST/STM32L4xx_HAL_Driver/Src\stm32l4xx_hal_rcc.c ****   GPIO_InitStruct.Speed = GPIO_SPEED_FREQ_HIGH;
 1663              		.loc 1 1207 0
 1664 002e 0223     		movs	r3, #2
 1665 0030 3B62     		str	r3, [r7, #32]
1208:E:/LiteOS/LiteOS_Lab/drivers/third_party/ST/STM32L4xx_HAL_Driver/Src\stm32l4xx_hal_rcc.c ****   GPIO_InitStruct.Pull = GPIO_NOPULL;
 1666              		.loc 1 1208 0
 1667 0032 0023     		movs	r3, #0
 1668 0034 FB61     		str	r3, [r7, #28]
1209:E:/LiteOS/LiteOS_Lab/drivers/third_party/ST/STM32L4xx_HAL_Driver/Src\stm32l4xx_hal_rcc.c ****   GPIO_InitStruct.Alternate = GPIO_AF0_MCO;
 1669              		.loc 1 1209 0
 1670 0036 0023     		movs	r3, #0
 1671 0038 7B62     		str	r3, [r7, #36]
1210:E:/LiteOS/LiteOS_Lab/drivers/third_party/ST/STM32L4xx_HAL_Driver/Src\stm32l4xx_hal_rcc.c ****   HAL_GPIO_Init(MCO1_GPIO_PORT, &GPIO_InitStruct);
 1672              		.loc 1 1210 0
 1673 003a 07F11403 		add	r3, r7, #20
 1674 003e 1946     		mov	r1, r3
 1675 0040 4FF09040 		mov	r0, #1207959552
 1676 0044 FFF7FEFF 		bl	HAL_GPIO_Init
1211:E:/LiteOS/LiteOS_Lab/drivers/third_party/ST/STM32L4xx_HAL_Driver/Src\stm32l4xx_hal_rcc.c **** 
ARM GAS  C:\Users\user\AppData\Local\Temp\ccmqW6jC.s 			page 52


1212:E:/LiteOS/LiteOS_Lab/drivers/third_party/ST/STM32L4xx_HAL_Driver/Src\stm32l4xx_hal_rcc.c ****   /* Mask MCOSEL[] and MCOPRE[] bits then set MCO1 clock source and prescaler */
1213:E:/LiteOS/LiteOS_Lab/drivers/third_party/ST/STM32L4xx_HAL_Driver/Src\stm32l4xx_hal_rcc.c ****   MODIFY_REG(RCC->CFGR, (RCC_CFGR_MCOSEL | RCC_CFGR_MCOPRE), (RCC_MCOSource | RCC_MCODiv ));
 1677              		.loc 1 1213 0
 1678 0048 064B     		ldr	r3, .L117
 1679 004a 9B68     		ldr	r3, [r3, #8]
 1680 004c 23F0FE42 		bic	r2, r3, #2130706432
 1681 0050 B968     		ldr	r1, [r7, #8]
 1682 0052 7B68     		ldr	r3, [r7, #4]
 1683 0054 0B43     		orrs	r3, r3, r1
 1684 0056 0349     		ldr	r1, .L117
 1685 0058 1343     		orrs	r3, r3, r2
 1686 005a 8B60     		str	r3, [r1, #8]
1214:E:/LiteOS/LiteOS_Lab/drivers/third_party/ST/STM32L4xx_HAL_Driver/Src\stm32l4xx_hal_rcc.c **** }
 1687              		.loc 1 1214 0
 1688 005c 00BF     		nop
 1689 005e 2837     		adds	r7, r7, #40
 1690              	.LCFI18:
 1691              		.cfi_def_cfa_offset 8
 1692 0060 BD46     		mov	sp, r7
 1693              	.LCFI19:
 1694              		.cfi_def_cfa_register 13
 1695              		@ sp needed
 1696 0062 80BD     		pop	{r7, pc}
 1697              	.L118:
 1698              		.align	2
 1699              	.L117:
 1700 0064 00100240 		.word	1073876992
 1701              		.cfi_endproc
 1702              	.LFE136:
 1704              		.section	.text.HAL_RCC_GetSysClockFreq,"ax",%progbits
 1705              		.align	1
 1706              		.global	HAL_RCC_GetSysClockFreq
 1707              		.syntax unified
 1708              		.thumb
 1709              		.thumb_func
 1710              		.fpu fpv4-sp-d16
 1712              	HAL_RCC_GetSysClockFreq:
 1713              	.LFB137:
1215:E:/LiteOS/LiteOS_Lab/drivers/third_party/ST/STM32L4xx_HAL_Driver/Src\stm32l4xx_hal_rcc.c **** 
1216:E:/LiteOS/LiteOS_Lab/drivers/third_party/ST/STM32L4xx_HAL_Driver/Src\stm32l4xx_hal_rcc.c **** /**
1217:E:/LiteOS/LiteOS_Lab/drivers/third_party/ST/STM32L4xx_HAL_Driver/Src\stm32l4xx_hal_rcc.c ****   * @brief  Return the SYSCLK frequency.
1218:E:/LiteOS/LiteOS_Lab/drivers/third_party/ST/STM32L4xx_HAL_Driver/Src\stm32l4xx_hal_rcc.c ****   *
1219:E:/LiteOS/LiteOS_Lab/drivers/third_party/ST/STM32L4xx_HAL_Driver/Src\stm32l4xx_hal_rcc.c ****   * @note   The system frequency computed by this function is not the real
1220:E:/LiteOS/LiteOS_Lab/drivers/third_party/ST/STM32L4xx_HAL_Driver/Src\stm32l4xx_hal_rcc.c ****   *         frequency in the chip. It is calculated based on the predefined
1221:E:/LiteOS/LiteOS_Lab/drivers/third_party/ST/STM32L4xx_HAL_Driver/Src\stm32l4xx_hal_rcc.c ****   *         constant and the selected clock source:
1222:E:/LiteOS/LiteOS_Lab/drivers/third_party/ST/STM32L4xx_HAL_Driver/Src\stm32l4xx_hal_rcc.c ****   * @note     If SYSCLK source is MSI, function returns values based on MSI
1223:E:/LiteOS/LiteOS_Lab/drivers/third_party/ST/STM32L4xx_HAL_Driver/Src\stm32l4xx_hal_rcc.c ****   *             Value as defined by the MSI range.
1224:E:/LiteOS/LiteOS_Lab/drivers/third_party/ST/STM32L4xx_HAL_Driver/Src\stm32l4xx_hal_rcc.c ****   * @note     If SYSCLK source is HSI, function returns values based on HSI_VALUE(*)
1225:E:/LiteOS/LiteOS_Lab/drivers/third_party/ST/STM32L4xx_HAL_Driver/Src\stm32l4xx_hal_rcc.c ****   * @note     If SYSCLK source is HSE, function returns values based on HSE_VALUE(**)
1226:E:/LiteOS/LiteOS_Lab/drivers/third_party/ST/STM32L4xx_HAL_Driver/Src\stm32l4xx_hal_rcc.c ****   * @note     If SYSCLK source is PLL, function returns values based on HSE_VALUE(**),
1227:E:/LiteOS/LiteOS_Lab/drivers/third_party/ST/STM32L4xx_HAL_Driver/Src\stm32l4xx_hal_rcc.c ****   *           HSI_VALUE(*) or MSI Value multiplied/divided by the PLL factors.
1228:E:/LiteOS/LiteOS_Lab/drivers/third_party/ST/STM32L4xx_HAL_Driver/Src\stm32l4xx_hal_rcc.c ****   * @note     (*) HSI_VALUE is a constant defined in stm32l4xx_hal_conf.h file (default value
1229:E:/LiteOS/LiteOS_Lab/drivers/third_party/ST/STM32L4xx_HAL_Driver/Src\stm32l4xx_hal_rcc.c ****   *               16 MHz) but the real value may vary depending on the variations
1230:E:/LiteOS/LiteOS_Lab/drivers/third_party/ST/STM32L4xx_HAL_Driver/Src\stm32l4xx_hal_rcc.c ****   *               in voltage and temperature.
1231:E:/LiteOS/LiteOS_Lab/drivers/third_party/ST/STM32L4xx_HAL_Driver/Src\stm32l4xx_hal_rcc.c ****   * @note     (**) HSE_VALUE is a constant defined in stm32l4xx_hal_conf.h file (default value
1232:E:/LiteOS/LiteOS_Lab/drivers/third_party/ST/STM32L4xx_HAL_Driver/Src\stm32l4xx_hal_rcc.c ****   *                8 MHz), user has to ensure that HSE_VALUE is same as the real
1233:E:/LiteOS/LiteOS_Lab/drivers/third_party/ST/STM32L4xx_HAL_Driver/Src\stm32l4xx_hal_rcc.c ****   *                frequency of the crystal used. Otherwise, this function may
ARM GAS  C:\Users\user\AppData\Local\Temp\ccmqW6jC.s 			page 53


1234:E:/LiteOS/LiteOS_Lab/drivers/third_party/ST/STM32L4xx_HAL_Driver/Src\stm32l4xx_hal_rcc.c ****   *                have wrong result.
1235:E:/LiteOS/LiteOS_Lab/drivers/third_party/ST/STM32L4xx_HAL_Driver/Src\stm32l4xx_hal_rcc.c ****   *
1236:E:/LiteOS/LiteOS_Lab/drivers/third_party/ST/STM32L4xx_HAL_Driver/Src\stm32l4xx_hal_rcc.c ****   * @note   The result of this function could be not correct when using fractional
1237:E:/LiteOS/LiteOS_Lab/drivers/third_party/ST/STM32L4xx_HAL_Driver/Src\stm32l4xx_hal_rcc.c ****   *         value for HSE crystal.
1238:E:/LiteOS/LiteOS_Lab/drivers/third_party/ST/STM32L4xx_HAL_Driver/Src\stm32l4xx_hal_rcc.c ****   *
1239:E:/LiteOS/LiteOS_Lab/drivers/third_party/ST/STM32L4xx_HAL_Driver/Src\stm32l4xx_hal_rcc.c ****   * @note   This function can be used by the user application to compute the
1240:E:/LiteOS/LiteOS_Lab/drivers/third_party/ST/STM32L4xx_HAL_Driver/Src\stm32l4xx_hal_rcc.c ****   *         baudrate for the communication peripherals or configure other parameters.
1241:E:/LiteOS/LiteOS_Lab/drivers/third_party/ST/STM32L4xx_HAL_Driver/Src\stm32l4xx_hal_rcc.c ****   *
1242:E:/LiteOS/LiteOS_Lab/drivers/third_party/ST/STM32L4xx_HAL_Driver/Src\stm32l4xx_hal_rcc.c ****   * @note   Each time SYSCLK changes, this function must be called to update the
1243:E:/LiteOS/LiteOS_Lab/drivers/third_party/ST/STM32L4xx_HAL_Driver/Src\stm32l4xx_hal_rcc.c ****   *         right SYSCLK value. Otherwise, any configuration based on this function will be incorre
1244:E:/LiteOS/LiteOS_Lab/drivers/third_party/ST/STM32L4xx_HAL_Driver/Src\stm32l4xx_hal_rcc.c ****   *
1245:E:/LiteOS/LiteOS_Lab/drivers/third_party/ST/STM32L4xx_HAL_Driver/Src\stm32l4xx_hal_rcc.c ****   *
1246:E:/LiteOS/LiteOS_Lab/drivers/third_party/ST/STM32L4xx_HAL_Driver/Src\stm32l4xx_hal_rcc.c ****   * @retval SYSCLK frequency
1247:E:/LiteOS/LiteOS_Lab/drivers/third_party/ST/STM32L4xx_HAL_Driver/Src\stm32l4xx_hal_rcc.c ****   */
1248:E:/LiteOS/LiteOS_Lab/drivers/third_party/ST/STM32L4xx_HAL_Driver/Src\stm32l4xx_hal_rcc.c **** uint32_t HAL_RCC_GetSysClockFreq(void)
1249:E:/LiteOS/LiteOS_Lab/drivers/third_party/ST/STM32L4xx_HAL_Driver/Src\stm32l4xx_hal_rcc.c **** {
 1714              		.loc 1 1249 0
 1715              		.cfi_startproc
 1716              		@ args = 0, pretend = 0, frame = 24
 1717              		@ frame_needed = 1, uses_anonymous_args = 0
 1718              		@ link register save eliminated.
 1719 0000 80B4     		push	{r7}
 1720              	.LCFI20:
 1721              		.cfi_def_cfa_offset 4
 1722              		.cfi_offset 7, -4
 1723 0002 87B0     		sub	sp, sp, #28
 1724              	.LCFI21:
 1725              		.cfi_def_cfa_offset 32
 1726 0004 00AF     		add	r7, sp, #0
 1727              	.LCFI22:
 1728              		.cfi_def_cfa_register 7
1250:E:/LiteOS/LiteOS_Lab/drivers/third_party/ST/STM32L4xx_HAL_Driver/Src\stm32l4xx_hal_rcc.c ****   uint32_t msirange = 0U, pllvco = 0U, pllsource = 0U, pllr = 2U, pllm = 2U;
 1729              		.loc 1 1250 0
 1730 0006 0023     		movs	r3, #0
 1731 0008 7B61     		str	r3, [r7, #20]
 1732 000a 0023     		movs	r3, #0
 1733 000c 3B61     		str	r3, [r7, #16]
 1734 000e 0023     		movs	r3, #0
 1735 0010 BB60     		str	r3, [r7, #8]
 1736 0012 0223     		movs	r3, #2
 1737 0014 7B60     		str	r3, [r7, #4]
 1738 0016 0223     		movs	r3, #2
 1739 0018 3B60     		str	r3, [r7]
1251:E:/LiteOS/LiteOS_Lab/drivers/third_party/ST/STM32L4xx_HAL_Driver/Src\stm32l4xx_hal_rcc.c ****   uint32_t sysclockfreq = 0U;
 1740              		.loc 1 1251 0
 1741 001a 0023     		movs	r3, #0
 1742 001c FB60     		str	r3, [r7, #12]
1252:E:/LiteOS/LiteOS_Lab/drivers/third_party/ST/STM32L4xx_HAL_Driver/Src\stm32l4xx_hal_rcc.c **** 
1253:E:/LiteOS/LiteOS_Lab/drivers/third_party/ST/STM32L4xx_HAL_Driver/Src\stm32l4xx_hal_rcc.c ****   if((__HAL_RCC_GET_SYSCLK_SOURCE() == RCC_CFGR_SWS_MSI) ||
 1743              		.loc 1 1253 0
 1744 001e 4C4B     		ldr	r3, .L134
 1745 0020 9B68     		ldr	r3, [r3, #8]
 1746 0022 03F00C03 		and	r3, r3, #12
 1747 0026 002B     		cmp	r3, #0
 1748 0028 0BD0     		beq	.L120
1254:E:/LiteOS/LiteOS_Lab/drivers/third_party/ST/STM32L4xx_HAL_Driver/Src\stm32l4xx_hal_rcc.c ****      ((__HAL_RCC_GET_SYSCLK_SOURCE() == RCC_CFGR_SWS_PLL) && (__HAL_RCC_GET_PLL_OSCSOURCE() == RCC_
 1749              		.loc 1 1254 0 discriminator 1
ARM GAS  C:\Users\user\AppData\Local\Temp\ccmqW6jC.s 			page 54


 1750 002a 494B     		ldr	r3, .L134
 1751 002c 9B68     		ldr	r3, [r3, #8]
 1752 002e 03F00C03 		and	r3, r3, #12
1253:E:/LiteOS/LiteOS_Lab/drivers/third_party/ST/STM32L4xx_HAL_Driver/Src\stm32l4xx_hal_rcc.c ****      ((__HAL_RCC_GET_SYSCLK_SOURCE() == RCC_CFGR_SWS_PLL) && (__HAL_RCC_GET_PLL_OSCSOURCE() == RCC_
 1753              		.loc 1 1253 0 discriminator 1
 1754 0032 0C2B     		cmp	r3, #12
 1755 0034 27D1     		bne	.L121
 1756              		.loc 1 1254 0
 1757 0036 464B     		ldr	r3, .L134
 1758 0038 DB68     		ldr	r3, [r3, #12]
 1759 003a 03F00303 		and	r3, r3, #3
 1760 003e 012B     		cmp	r3, #1
 1761 0040 21D1     		bne	.L121
 1762              	.L120:
1255:E:/LiteOS/LiteOS_Lab/drivers/third_party/ST/STM32L4xx_HAL_Driver/Src\stm32l4xx_hal_rcc.c ****   {
1256:E:/LiteOS/LiteOS_Lab/drivers/third_party/ST/STM32L4xx_HAL_Driver/Src\stm32l4xx_hal_rcc.c ****     /* MSI or PLL with MSI source used as system clock source */
1257:E:/LiteOS/LiteOS_Lab/drivers/third_party/ST/STM32L4xx_HAL_Driver/Src\stm32l4xx_hal_rcc.c **** 
1258:E:/LiteOS/LiteOS_Lab/drivers/third_party/ST/STM32L4xx_HAL_Driver/Src\stm32l4xx_hal_rcc.c ****     /* Get SYSCLK source */
1259:E:/LiteOS/LiteOS_Lab/drivers/third_party/ST/STM32L4xx_HAL_Driver/Src\stm32l4xx_hal_rcc.c ****     if(READ_BIT(RCC->CR, RCC_CR_MSIRGSEL) == RESET)
 1763              		.loc 1 1259 0
 1764 0042 434B     		ldr	r3, .L134
 1765 0044 1B68     		ldr	r3, [r3]
 1766 0046 03F00803 		and	r3, r3, #8
 1767 004a 002B     		cmp	r3, #0
 1768 004c 07D1     		bne	.L122
1260:E:/LiteOS/LiteOS_Lab/drivers/third_party/ST/STM32L4xx_HAL_Driver/Src\stm32l4xx_hal_rcc.c ****     { /* MSISRANGE from RCC_CSR applies */
1261:E:/LiteOS/LiteOS_Lab/drivers/third_party/ST/STM32L4xx_HAL_Driver/Src\stm32l4xx_hal_rcc.c ****       msirange = READ_BIT(RCC->CSR, RCC_CSR_MSISRANGE) >> RCC_CSR_MSISRANGE_Pos;
 1769              		.loc 1 1261 0
 1770 004e 404B     		ldr	r3, .L134
 1771 0050 D3F89430 		ldr	r3, [r3, #148]
 1772 0054 1B0A     		lsrs	r3, r3, #8
 1773 0056 03F00F03 		and	r3, r3, #15
 1774 005a 7B61     		str	r3, [r7, #20]
 1775 005c 05E0     		b	.L123
 1776              	.L122:
1262:E:/LiteOS/LiteOS_Lab/drivers/third_party/ST/STM32L4xx_HAL_Driver/Src\stm32l4xx_hal_rcc.c ****     }
1263:E:/LiteOS/LiteOS_Lab/drivers/third_party/ST/STM32L4xx_HAL_Driver/Src\stm32l4xx_hal_rcc.c ****     else
1264:E:/LiteOS/LiteOS_Lab/drivers/third_party/ST/STM32L4xx_HAL_Driver/Src\stm32l4xx_hal_rcc.c ****     { /* MSIRANGE from RCC_CR applies */
1265:E:/LiteOS/LiteOS_Lab/drivers/third_party/ST/STM32L4xx_HAL_Driver/Src\stm32l4xx_hal_rcc.c ****       msirange = READ_BIT(RCC->CR, RCC_CR_MSIRANGE) >> RCC_CR_MSIRANGE_Pos;
 1777              		.loc 1 1265 0
 1778 005e 3C4B     		ldr	r3, .L134
 1779 0060 1B68     		ldr	r3, [r3]
 1780 0062 1B09     		lsrs	r3, r3, #4
 1781 0064 03F00F03 		and	r3, r3, #15
 1782 0068 7B61     		str	r3, [r7, #20]
 1783              	.L123:
1266:E:/LiteOS/LiteOS_Lab/drivers/third_party/ST/STM32L4xx_HAL_Driver/Src\stm32l4xx_hal_rcc.c ****     }
1267:E:/LiteOS/LiteOS_Lab/drivers/third_party/ST/STM32L4xx_HAL_Driver/Src\stm32l4xx_hal_rcc.c ****     /*MSI frequency range in HZ*/
1268:E:/LiteOS/LiteOS_Lab/drivers/third_party/ST/STM32L4xx_HAL_Driver/Src\stm32l4xx_hal_rcc.c ****     msirange = MSIRangeTable[msirange];
 1784              		.loc 1 1268 0
 1785 006a 3A4A     		ldr	r2, .L134+4
 1786 006c 7B69     		ldr	r3, [r7, #20]
 1787 006e 52F82330 		ldr	r3, [r2, r3, lsl #2]
 1788 0072 7B61     		str	r3, [r7, #20]
1269:E:/LiteOS/LiteOS_Lab/drivers/third_party/ST/STM32L4xx_HAL_Driver/Src\stm32l4xx_hal_rcc.c **** 
1270:E:/LiteOS/LiteOS_Lab/drivers/third_party/ST/STM32L4xx_HAL_Driver/Src\stm32l4xx_hal_rcc.c ****     if(__HAL_RCC_GET_SYSCLK_SOURCE() == RCC_CFGR_SWS_MSI)
 1789              		.loc 1 1270 0
ARM GAS  C:\Users\user\AppData\Local\Temp\ccmqW6jC.s 			page 55


 1790 0074 364B     		ldr	r3, .L134
 1791 0076 9B68     		ldr	r3, [r3, #8]
 1792 0078 03F00C03 		and	r3, r3, #12
 1793 007c 002B     		cmp	r3, #0
 1794 007e 13D1     		bne	.L125
1271:E:/LiteOS/LiteOS_Lab/drivers/third_party/ST/STM32L4xx_HAL_Driver/Src\stm32l4xx_hal_rcc.c ****     {
1272:E:/LiteOS/LiteOS_Lab/drivers/third_party/ST/STM32L4xx_HAL_Driver/Src\stm32l4xx_hal_rcc.c ****       /* MSI used as system clock source */
1273:E:/LiteOS/LiteOS_Lab/drivers/third_party/ST/STM32L4xx_HAL_Driver/Src\stm32l4xx_hal_rcc.c ****       sysclockfreq = msirange;
 1795              		.loc 1 1273 0
 1796 0080 7B69     		ldr	r3, [r7, #20]
 1797 0082 FB60     		str	r3, [r7, #12]
1270:E:/LiteOS/LiteOS_Lab/drivers/third_party/ST/STM32L4xx_HAL_Driver/Src\stm32l4xx_hal_rcc.c ****     {
 1798              		.loc 1 1270 0
 1799 0084 10E0     		b	.L125
 1800              	.L121:
1274:E:/LiteOS/LiteOS_Lab/drivers/third_party/ST/STM32L4xx_HAL_Driver/Src\stm32l4xx_hal_rcc.c ****     }
1275:E:/LiteOS/LiteOS_Lab/drivers/third_party/ST/STM32L4xx_HAL_Driver/Src\stm32l4xx_hal_rcc.c ****   }
1276:E:/LiteOS/LiteOS_Lab/drivers/third_party/ST/STM32L4xx_HAL_Driver/Src\stm32l4xx_hal_rcc.c ****   else if(__HAL_RCC_GET_SYSCLK_SOURCE() == RCC_CFGR_SWS_HSI)
 1801              		.loc 1 1276 0
 1802 0086 324B     		ldr	r3, .L134
 1803 0088 9B68     		ldr	r3, [r3, #8]
 1804 008a 03F00C03 		and	r3, r3, #12
 1805 008e 042B     		cmp	r3, #4
 1806 0090 02D1     		bne	.L126
1277:E:/LiteOS/LiteOS_Lab/drivers/third_party/ST/STM32L4xx_HAL_Driver/Src\stm32l4xx_hal_rcc.c ****   {
1278:E:/LiteOS/LiteOS_Lab/drivers/third_party/ST/STM32L4xx_HAL_Driver/Src\stm32l4xx_hal_rcc.c ****     /* HSI used as system clock source */
1279:E:/LiteOS/LiteOS_Lab/drivers/third_party/ST/STM32L4xx_HAL_Driver/Src\stm32l4xx_hal_rcc.c ****     sysclockfreq = HSI_VALUE;
 1807              		.loc 1 1279 0
 1808 0092 314B     		ldr	r3, .L134+8
 1809 0094 FB60     		str	r3, [r7, #12]
 1810 0096 07E0     		b	.L125
 1811              	.L126:
1280:E:/LiteOS/LiteOS_Lab/drivers/third_party/ST/STM32L4xx_HAL_Driver/Src\stm32l4xx_hal_rcc.c ****   }
1281:E:/LiteOS/LiteOS_Lab/drivers/third_party/ST/STM32L4xx_HAL_Driver/Src\stm32l4xx_hal_rcc.c ****   else if(__HAL_RCC_GET_SYSCLK_SOURCE() == RCC_CFGR_SWS_HSE)
 1812              		.loc 1 1281 0
 1813 0098 2D4B     		ldr	r3, .L134
 1814 009a 9B68     		ldr	r3, [r3, #8]
 1815 009c 03F00C03 		and	r3, r3, #12
 1816 00a0 082B     		cmp	r3, #8
 1817 00a2 01D1     		bne	.L125
1282:E:/LiteOS/LiteOS_Lab/drivers/third_party/ST/STM32L4xx_HAL_Driver/Src\stm32l4xx_hal_rcc.c ****   {
1283:E:/LiteOS/LiteOS_Lab/drivers/third_party/ST/STM32L4xx_HAL_Driver/Src\stm32l4xx_hal_rcc.c ****     /* HSE used as system clock source */
1284:E:/LiteOS/LiteOS_Lab/drivers/third_party/ST/STM32L4xx_HAL_Driver/Src\stm32l4xx_hal_rcc.c ****     sysclockfreq = HSE_VALUE;
 1818              		.loc 1 1284 0
 1819 00a4 2D4B     		ldr	r3, .L134+12
 1820 00a6 FB60     		str	r3, [r7, #12]
 1821              	.L125:
1285:E:/LiteOS/LiteOS_Lab/drivers/third_party/ST/STM32L4xx_HAL_Driver/Src\stm32l4xx_hal_rcc.c ****   }
1286:E:/LiteOS/LiteOS_Lab/drivers/third_party/ST/STM32L4xx_HAL_Driver/Src\stm32l4xx_hal_rcc.c **** 
1287:E:/LiteOS/LiteOS_Lab/drivers/third_party/ST/STM32L4xx_HAL_Driver/Src\stm32l4xx_hal_rcc.c ****   if(__HAL_RCC_GET_SYSCLK_SOURCE() == RCC_CFGR_SWS_PLL)
 1822              		.loc 1 1287 0
 1823 00a8 294B     		ldr	r3, .L134
 1824 00aa 9B68     		ldr	r3, [r3, #8]
 1825 00ac 03F00C03 		and	r3, r3, #12
 1826 00b0 0C2B     		cmp	r3, #12
 1827 00b2 45D1     		bne	.L127
1288:E:/LiteOS/LiteOS_Lab/drivers/third_party/ST/STM32L4xx_HAL_Driver/Src\stm32l4xx_hal_rcc.c ****   {
ARM GAS  C:\Users\user\AppData\Local\Temp\ccmqW6jC.s 			page 56


1289:E:/LiteOS/LiteOS_Lab/drivers/third_party/ST/STM32L4xx_HAL_Driver/Src\stm32l4xx_hal_rcc.c ****     /* PLL used as system clock  source */
1290:E:/LiteOS/LiteOS_Lab/drivers/third_party/ST/STM32L4xx_HAL_Driver/Src\stm32l4xx_hal_rcc.c **** 
1291:E:/LiteOS/LiteOS_Lab/drivers/third_party/ST/STM32L4xx_HAL_Driver/Src\stm32l4xx_hal_rcc.c ****     /* PLL_VCO = (HSE_VALUE or HSI_VALUE or MSI_VALUE/ PLLM) * PLLN
1292:E:/LiteOS/LiteOS_Lab/drivers/third_party/ST/STM32L4xx_HAL_Driver/Src\stm32l4xx_hal_rcc.c ****     SYSCLK = PLL_VCO / PLLR
1293:E:/LiteOS/LiteOS_Lab/drivers/third_party/ST/STM32L4xx_HAL_Driver/Src\stm32l4xx_hal_rcc.c ****     */
1294:E:/LiteOS/LiteOS_Lab/drivers/third_party/ST/STM32L4xx_HAL_Driver/Src\stm32l4xx_hal_rcc.c ****     pllsource = READ_BIT(RCC->PLLCFGR, RCC_PLLCFGR_PLLSRC);
 1828              		.loc 1 1294 0
 1829 00b4 264B     		ldr	r3, .L134
 1830 00b6 DB68     		ldr	r3, [r3, #12]
 1831 00b8 03F00303 		and	r3, r3, #3
 1832 00bc BB60     		str	r3, [r7, #8]
1295:E:/LiteOS/LiteOS_Lab/drivers/third_party/ST/STM32L4xx_HAL_Driver/Src\stm32l4xx_hal_rcc.c ****     pllm = (READ_BIT(RCC->PLLCFGR, RCC_PLLCFGR_PLLM) >> RCC_PLLCFGR_PLLM_Pos) + 1U ;
 1833              		.loc 1 1295 0
 1834 00be 244B     		ldr	r3, .L134
 1835 00c0 DB68     		ldr	r3, [r3, #12]
 1836 00c2 1B09     		lsrs	r3, r3, #4
 1837 00c4 03F00703 		and	r3, r3, #7
 1838 00c8 0133     		adds	r3, r3, #1
 1839 00ca 3B60     		str	r3, [r7]
1296:E:/LiteOS/LiteOS_Lab/drivers/third_party/ST/STM32L4xx_HAL_Driver/Src\stm32l4xx_hal_rcc.c **** 
1297:E:/LiteOS/LiteOS_Lab/drivers/third_party/ST/STM32L4xx_HAL_Driver/Src\stm32l4xx_hal_rcc.c ****     switch (pllsource)
 1840              		.loc 1 1297 0
 1841 00cc BB68     		ldr	r3, [r7, #8]
 1842 00ce 022B     		cmp	r3, #2
 1843 00d0 02D0     		beq	.L129
 1844 00d2 032B     		cmp	r3, #3
 1845 00d4 0DD0     		beq	.L130
 1846 00d6 19E0     		b	.L133
 1847              	.L129:
1298:E:/LiteOS/LiteOS_Lab/drivers/third_party/ST/STM32L4xx_HAL_Driver/Src\stm32l4xx_hal_rcc.c ****     {
1299:E:/LiteOS/LiteOS_Lab/drivers/third_party/ST/STM32L4xx_HAL_Driver/Src\stm32l4xx_hal_rcc.c ****     case RCC_PLLSOURCE_HSI:  /* HSI used as PLL clock source */
