ARM GAS  C:\Users\user\AppData\Local\Temp\cc8eMbwy.s 			page 1


   1              		.cpu cortex-m4
   2              		.eabi_attribute 27, 1
   3              		.eabi_attribute 28, 1
   4              		.eabi_attribute 20, 1
   5              		.eabi_attribute 21, 1
   6              		.eabi_attribute 23, 3
   7              		.eabi_attribute 24, 1
   8              		.eabi_attribute 25, 1
   9              		.eabi_attribute 26, 1
  10              		.eabi_attribute 30, 6
  11              		.eabi_attribute 34, 1
  12              		.eabi_attribute 18, 4
  13              		.file	"stm32l4xx_hal_flash.c"
  14              		.text
  15              	.Ltext0:
  16              		.cfi_sections	.debug_frame
  17              		.comm	pFlash,32,4
  18              		.section	.text.HAL_FLASH_Program,"ax",%progbits
  19              		.align	1
  20              		.global	HAL_FLASH_Program
  21              		.syntax unified
  22              		.thumb
  23              		.thumb_func
  24              		.fpu fpv4-sp-d16
  26              	HAL_FLASH_Program:
  27              	.LFB133:
  28              		.file 1 "E:/LiteOS/LiteOS_Lab/drivers/third_party/ST/STM32L4xx_HAL_Driver/Src/stm32l4xx_hal_flash.
   1:E:/LiteOS/LiteOS_Lab/drivers/third_party/ST/STM32L4xx_HAL_Driver/Src\stm32l4xx_hal_flash.c **** /**
   2:E:/LiteOS/LiteOS_Lab/drivers/third_party/ST/STM32L4xx_HAL_Driver/Src\stm32l4xx_hal_flash.c ****   ******************************************************************************
   3:E:/LiteOS/LiteOS_Lab/drivers/third_party/ST/STM32L4xx_HAL_Driver/Src\stm32l4xx_hal_flash.c ****   * @file    stm32l4xx_hal_flash.c
   4:E:/LiteOS/LiteOS_Lab/drivers/third_party/ST/STM32L4xx_HAL_Driver/Src\stm32l4xx_hal_flash.c ****   * @author  MCD Application Team
   5:E:/LiteOS/LiteOS_Lab/drivers/third_party/ST/STM32L4xx_HAL_Driver/Src\stm32l4xx_hal_flash.c ****   * @brief   FLASH HAL module driver.
   6:E:/LiteOS/LiteOS_Lab/drivers/third_party/ST/STM32L4xx_HAL_Driver/Src\stm32l4xx_hal_flash.c ****   *          This file provides firmware functions to manage the following 
   7:E:/LiteOS/LiteOS_Lab/drivers/third_party/ST/STM32L4xx_HAL_Driver/Src\stm32l4xx_hal_flash.c ****   *          functionalities of the internal FLASH memory:
   8:E:/LiteOS/LiteOS_Lab/drivers/third_party/ST/STM32L4xx_HAL_Driver/Src\stm32l4xx_hal_flash.c ****   *           + Program operations functions
   9:E:/LiteOS/LiteOS_Lab/drivers/third_party/ST/STM32L4xx_HAL_Driver/Src\stm32l4xx_hal_flash.c ****   *           + Memory Control functions 
  10:E:/LiteOS/LiteOS_Lab/drivers/third_party/ST/STM32L4xx_HAL_Driver/Src\stm32l4xx_hal_flash.c ****   *           + Peripheral Errors functions
  11:E:/LiteOS/LiteOS_Lab/drivers/third_party/ST/STM32L4xx_HAL_Driver/Src\stm32l4xx_hal_flash.c ****   *  
  12:E:/LiteOS/LiteOS_Lab/drivers/third_party/ST/STM32L4xx_HAL_Driver/Src\stm32l4xx_hal_flash.c ****  @verbatim    
  13:E:/LiteOS/LiteOS_Lab/drivers/third_party/ST/STM32L4xx_HAL_Driver/Src\stm32l4xx_hal_flash.c ****   ==============================================================================
  14:E:/LiteOS/LiteOS_Lab/drivers/third_party/ST/STM32L4xx_HAL_Driver/Src\stm32l4xx_hal_flash.c ****                         ##### FLASH peripheral features #####
  15:E:/LiteOS/LiteOS_Lab/drivers/third_party/ST/STM32L4xx_HAL_Driver/Src\stm32l4xx_hal_flash.c ****   ==============================================================================
  16:E:/LiteOS/LiteOS_Lab/drivers/third_party/ST/STM32L4xx_HAL_Driver/Src\stm32l4xx_hal_flash.c ****            
  17:E:/LiteOS/LiteOS_Lab/drivers/third_party/ST/STM32L4xx_HAL_Driver/Src\stm32l4xx_hal_flash.c ****   [..] The Flash memory interface manages CPU AHB I-Code and D-Code accesses 
  18:E:/LiteOS/LiteOS_Lab/drivers/third_party/ST/STM32L4xx_HAL_Driver/Src\stm32l4xx_hal_flash.c ****        to the Flash memory. It implements the erase and program Flash memory operations 
  19:E:/LiteOS/LiteOS_Lab/drivers/third_party/ST/STM32L4xx_HAL_Driver/Src\stm32l4xx_hal_flash.c ****        and the read and write protection mechanisms.
  20:E:/LiteOS/LiteOS_Lab/drivers/third_party/ST/STM32L4xx_HAL_Driver/Src\stm32l4xx_hal_flash.c ****       
  21:E:/LiteOS/LiteOS_Lab/drivers/third_party/ST/STM32L4xx_HAL_Driver/Src\stm32l4xx_hal_flash.c ****   [..] The Flash memory interface accelerates code execution with a system of instruction
  22:E:/LiteOS/LiteOS_Lab/drivers/third_party/ST/STM32L4xx_HAL_Driver/Src\stm32l4xx_hal_flash.c ****        prefetch and cache lines. 
  23:E:/LiteOS/LiteOS_Lab/drivers/third_party/ST/STM32L4xx_HAL_Driver/Src\stm32l4xx_hal_flash.c **** 
  24:E:/LiteOS/LiteOS_Lab/drivers/third_party/ST/STM32L4xx_HAL_Driver/Src\stm32l4xx_hal_flash.c ****   [..] The FLASH main features are:
  25:E:/LiteOS/LiteOS_Lab/drivers/third_party/ST/STM32L4xx_HAL_Driver/Src\stm32l4xx_hal_flash.c ****       (+) Flash memory read operations
  26:E:/LiteOS/LiteOS_Lab/drivers/third_party/ST/STM32L4xx_HAL_Driver/Src\stm32l4xx_hal_flash.c ****       (+) Flash memory program/erase operations
  27:E:/LiteOS/LiteOS_Lab/drivers/third_party/ST/STM32L4xx_HAL_Driver/Src\stm32l4xx_hal_flash.c ****       (+) Read / write protections
  28:E:/LiteOS/LiteOS_Lab/drivers/third_party/ST/STM32L4xx_HAL_Driver/Src\stm32l4xx_hal_flash.c ****       (+) Option bytes programming
  29:E:/LiteOS/LiteOS_Lab/drivers/third_party/ST/STM32L4xx_HAL_Driver/Src\stm32l4xx_hal_flash.c ****       (+) Prefetch on I-Code
  30:E:/LiteOS/LiteOS_Lab/drivers/third_party/ST/STM32L4xx_HAL_Driver/Src\stm32l4xx_hal_flash.c ****       (+) 32 cache lines of 4*64 bits on I-Code
ARM GAS  C:\Users\user\AppData\Local\Temp\cc8eMbwy.s 			page 2


  31:E:/LiteOS/LiteOS_Lab/drivers/third_party/ST/STM32L4xx_HAL_Driver/Src\stm32l4xx_hal_flash.c ****       (+) 8 cache lines of 4*64 bits on D-Code
  32:E:/LiteOS/LiteOS_Lab/drivers/third_party/ST/STM32L4xx_HAL_Driver/Src\stm32l4xx_hal_flash.c ****       (+) Error code correction (ECC) : Data in flash are 72-bits word
  33:E:/LiteOS/LiteOS_Lab/drivers/third_party/ST/STM32L4xx_HAL_Driver/Src\stm32l4xx_hal_flash.c ****           (8 bits added per double word)
  34:E:/LiteOS/LiteOS_Lab/drivers/third_party/ST/STM32L4xx_HAL_Driver/Src\stm32l4xx_hal_flash.c ****       
  35:E:/LiteOS/LiteOS_Lab/drivers/third_party/ST/STM32L4xx_HAL_Driver/Src\stm32l4xx_hal_flash.c ****       
  36:E:/LiteOS/LiteOS_Lab/drivers/third_party/ST/STM32L4xx_HAL_Driver/Src\stm32l4xx_hal_flash.c ****                         ##### How to use this driver #####
  37:E:/LiteOS/LiteOS_Lab/drivers/third_party/ST/STM32L4xx_HAL_Driver/Src\stm32l4xx_hal_flash.c ****  ==============================================================================
  38:E:/LiteOS/LiteOS_Lab/drivers/third_party/ST/STM32L4xx_HAL_Driver/Src\stm32l4xx_hal_flash.c ****     [..]                             
  39:E:/LiteOS/LiteOS_Lab/drivers/third_party/ST/STM32L4xx_HAL_Driver/Src\stm32l4xx_hal_flash.c ****       This driver provides functions and macros to configure and program the FLASH  
  40:E:/LiteOS/LiteOS_Lab/drivers/third_party/ST/STM32L4xx_HAL_Driver/Src\stm32l4xx_hal_flash.c ****       memory of all STM32L4xx devices. 
  41:E:/LiteOS/LiteOS_Lab/drivers/third_party/ST/STM32L4xx_HAL_Driver/Src\stm32l4xx_hal_flash.c ****    
  42:E:/LiteOS/LiteOS_Lab/drivers/third_party/ST/STM32L4xx_HAL_Driver/Src\stm32l4xx_hal_flash.c ****       (#) Flash Memory IO Programming functions: 
  43:E:/LiteOS/LiteOS_Lab/drivers/third_party/ST/STM32L4xx_HAL_Driver/Src\stm32l4xx_hal_flash.c ****            (++) Lock and Unlock the FLASH interface using HAL_FLASH_Unlock() and 
  44:E:/LiteOS/LiteOS_Lab/drivers/third_party/ST/STM32L4xx_HAL_Driver/Src\stm32l4xx_hal_flash.c ****                 HAL_FLASH_Lock() functions
  45:E:/LiteOS/LiteOS_Lab/drivers/third_party/ST/STM32L4xx_HAL_Driver/Src\stm32l4xx_hal_flash.c ****            (++) Program functions: double word and fast program (full row programming)
  46:E:/LiteOS/LiteOS_Lab/drivers/third_party/ST/STM32L4xx_HAL_Driver/Src\stm32l4xx_hal_flash.c ****            (++) There Two modes of programming :
  47:E:/LiteOS/LiteOS_Lab/drivers/third_party/ST/STM32L4xx_HAL_Driver/Src\stm32l4xx_hal_flash.c ****             (+++) Polling mode using HAL_FLASH_Program() function
  48:E:/LiteOS/LiteOS_Lab/drivers/third_party/ST/STM32L4xx_HAL_Driver/Src\stm32l4xx_hal_flash.c ****             (+++) Interrupt mode using HAL_FLASH_Program_IT() function
  49:E:/LiteOS/LiteOS_Lab/drivers/third_party/ST/STM32L4xx_HAL_Driver/Src\stm32l4xx_hal_flash.c ****     
  50:E:/LiteOS/LiteOS_Lab/drivers/third_party/ST/STM32L4xx_HAL_Driver/Src\stm32l4xx_hal_flash.c ****       (#) Interrupts and flags management functions : 
  51:E:/LiteOS/LiteOS_Lab/drivers/third_party/ST/STM32L4xx_HAL_Driver/Src\stm32l4xx_hal_flash.c ****            (++) Handle FLASH interrupts by calling HAL_FLASH_IRQHandler()
  52:E:/LiteOS/LiteOS_Lab/drivers/third_party/ST/STM32L4xx_HAL_Driver/Src\stm32l4xx_hal_flash.c ****            (++) Callback functions are called when the flash operations are finished :
  53:E:/LiteOS/LiteOS_Lab/drivers/third_party/ST/STM32L4xx_HAL_Driver/Src\stm32l4xx_hal_flash.c ****                 HAL_FLASH_EndOfOperationCallback() when everything is ok, otherwise
  54:E:/LiteOS/LiteOS_Lab/drivers/third_party/ST/STM32L4xx_HAL_Driver/Src\stm32l4xx_hal_flash.c ****                 HAL_FLASH_OperationErrorCallback()
  55:E:/LiteOS/LiteOS_Lab/drivers/third_party/ST/STM32L4xx_HAL_Driver/Src\stm32l4xx_hal_flash.c ****            (++) Get error flag status by calling HAL_GetError()    
  56:E:/LiteOS/LiteOS_Lab/drivers/third_party/ST/STM32L4xx_HAL_Driver/Src\stm32l4xx_hal_flash.c ****            
  57:E:/LiteOS/LiteOS_Lab/drivers/third_party/ST/STM32L4xx_HAL_Driver/Src\stm32l4xx_hal_flash.c ****       (#) Option bytes management functions :
  58:E:/LiteOS/LiteOS_Lab/drivers/third_party/ST/STM32L4xx_HAL_Driver/Src\stm32l4xx_hal_flash.c ****            (++) Lock and Unlock the option bytes using HAL_FLASH_OB_Unlock() and
  59:E:/LiteOS/LiteOS_Lab/drivers/third_party/ST/STM32L4xx_HAL_Driver/Src\stm32l4xx_hal_flash.c ****                 HAL_FLASH_OB_Lock() functions
  60:E:/LiteOS/LiteOS_Lab/drivers/third_party/ST/STM32L4xx_HAL_Driver/Src\stm32l4xx_hal_flash.c ****            (++) Launch the reload of the option bytes using HAL_FLASH_Launch() function.
  61:E:/LiteOS/LiteOS_Lab/drivers/third_party/ST/STM32L4xx_HAL_Driver/Src\stm32l4xx_hal_flash.c ****                 In this case, a reset is generated
  62:E:/LiteOS/LiteOS_Lab/drivers/third_party/ST/STM32L4xx_HAL_Driver/Src\stm32l4xx_hal_flash.c ****                          
  63:E:/LiteOS/LiteOS_Lab/drivers/third_party/ST/STM32L4xx_HAL_Driver/Src\stm32l4xx_hal_flash.c ****     [..] 
  64:E:/LiteOS/LiteOS_Lab/drivers/third_party/ST/STM32L4xx_HAL_Driver/Src\stm32l4xx_hal_flash.c ****       In addition to these functions, this driver includes a set of macros allowing
  65:E:/LiteOS/LiteOS_Lab/drivers/third_party/ST/STM32L4xx_HAL_Driver/Src\stm32l4xx_hal_flash.c ****       to handle the following operations:
  66:E:/LiteOS/LiteOS_Lab/drivers/third_party/ST/STM32L4xx_HAL_Driver/Src\stm32l4xx_hal_flash.c ****        (+) Set the latency
  67:E:/LiteOS/LiteOS_Lab/drivers/third_party/ST/STM32L4xx_HAL_Driver/Src\stm32l4xx_hal_flash.c ****        (+) Enable/Disable the prefetch buffer
  68:E:/LiteOS/LiteOS_Lab/drivers/third_party/ST/STM32L4xx_HAL_Driver/Src\stm32l4xx_hal_flash.c ****        (+) Enable/Disable the Instruction cache and the Data cache
  69:E:/LiteOS/LiteOS_Lab/drivers/third_party/ST/STM32L4xx_HAL_Driver/Src\stm32l4xx_hal_flash.c ****        (+) Reset the Instruction cache and the Data cache
  70:E:/LiteOS/LiteOS_Lab/drivers/third_party/ST/STM32L4xx_HAL_Driver/Src\stm32l4xx_hal_flash.c ****        (+) Enable/Disable the Flash power-down during low-power run and sleep modes
  71:E:/LiteOS/LiteOS_Lab/drivers/third_party/ST/STM32L4xx_HAL_Driver/Src\stm32l4xx_hal_flash.c ****        (+) Enable/Disable the Flash interrupts
  72:E:/LiteOS/LiteOS_Lab/drivers/third_party/ST/STM32L4xx_HAL_Driver/Src\stm32l4xx_hal_flash.c ****        (+) Monitor the Flash flags status
  73:E:/LiteOS/LiteOS_Lab/drivers/third_party/ST/STM32L4xx_HAL_Driver/Src\stm32l4xx_hal_flash.c ****     
  74:E:/LiteOS/LiteOS_Lab/drivers/third_party/ST/STM32L4xx_HAL_Driver/Src\stm32l4xx_hal_flash.c ****  @endverbatim                      
  75:E:/LiteOS/LiteOS_Lab/drivers/third_party/ST/STM32L4xx_HAL_Driver/Src\stm32l4xx_hal_flash.c ****   ******************************************************************************
  76:E:/LiteOS/LiteOS_Lab/drivers/third_party/ST/STM32L4xx_HAL_Driver/Src\stm32l4xx_hal_flash.c ****   * @attention
  77:E:/LiteOS/LiteOS_Lab/drivers/third_party/ST/STM32L4xx_HAL_Driver/Src\stm32l4xx_hal_flash.c ****   *
  78:E:/LiteOS/LiteOS_Lab/drivers/third_party/ST/STM32L4xx_HAL_Driver/Src\stm32l4xx_hal_flash.c ****   * <h2><center>&copy; COPYRIGHT(c) 2017 STMicroelectronics</center></h2>
  79:E:/LiteOS/LiteOS_Lab/drivers/third_party/ST/STM32L4xx_HAL_Driver/Src\stm32l4xx_hal_flash.c ****   *
  80:E:/LiteOS/LiteOS_Lab/drivers/third_party/ST/STM32L4xx_HAL_Driver/Src\stm32l4xx_hal_flash.c ****   * Redistribution and use in source and binary forms, with or without modification,
  81:E:/LiteOS/LiteOS_Lab/drivers/third_party/ST/STM32L4xx_HAL_Driver/Src\stm32l4xx_hal_flash.c ****   * are permitted provided that the following conditions are met:
  82:E:/LiteOS/LiteOS_Lab/drivers/third_party/ST/STM32L4xx_HAL_Driver/Src\stm32l4xx_hal_flash.c ****   *   1. Redistributions of source code must retain the above copyright notice,
  83:E:/LiteOS/LiteOS_Lab/drivers/third_party/ST/STM32L4xx_HAL_Driver/Src\stm32l4xx_hal_flash.c ****   *      this list of conditions and the following disclaimer.
  84:E:/LiteOS/LiteOS_Lab/drivers/third_party/ST/STM32L4xx_HAL_Driver/Src\stm32l4xx_hal_flash.c ****   *   2. Redistributions in binary form must reproduce the above copyright notice,
  85:E:/LiteOS/LiteOS_Lab/drivers/third_party/ST/STM32L4xx_HAL_Driver/Src\stm32l4xx_hal_flash.c ****   *      this list of conditions and the following disclaimer in the documentation
  86:E:/LiteOS/LiteOS_Lab/drivers/third_party/ST/STM32L4xx_HAL_Driver/Src\stm32l4xx_hal_flash.c ****   *      and/or other materials provided with the distribution.
  87:E:/LiteOS/LiteOS_Lab/drivers/third_party/ST/STM32L4xx_HAL_Driver/Src\stm32l4xx_hal_flash.c ****   *   3. Neither the name of STMicroelectronics nor the names of its contributors
ARM GAS  C:\Users\user\AppData\Local\Temp\cc8eMbwy.s 			page 3


  88:E:/LiteOS/LiteOS_Lab/drivers/third_party/ST/STM32L4xx_HAL_Driver/Src\stm32l4xx_hal_flash.c ****   *      may be used to endorse or promote products derived from this software
  89:E:/LiteOS/LiteOS_Lab/drivers/third_party/ST/STM32L4xx_HAL_Driver/Src\stm32l4xx_hal_flash.c ****   *      without specific prior written permission.
  90:E:/LiteOS/LiteOS_Lab/drivers/third_party/ST/STM32L4xx_HAL_Driver/Src\stm32l4xx_hal_flash.c ****   *
  91:E:/LiteOS/LiteOS_Lab/drivers/third_party/ST/STM32L4xx_HAL_Driver/Src\stm32l4xx_hal_flash.c ****   * THIS SOFTWARE IS PROVIDED BY THE COPYRIGHT HOLDERS AND CONTRIBUTORS "AS IS"
  92:E:/LiteOS/LiteOS_Lab/drivers/third_party/ST/STM32L4xx_HAL_Driver/Src\stm32l4xx_hal_flash.c ****   * AND ANY EXPRESS OR IMPLIED WARRANTIES, INCLUDING, BUT NOT LIMITED TO, THE
  93:E:/LiteOS/LiteOS_Lab/drivers/third_party/ST/STM32L4xx_HAL_Driver/Src\stm32l4xx_hal_flash.c ****   * IMPLIED WARRANTIES OF MERCHANTABILITY AND FITNESS FOR A PARTICULAR PURPOSE ARE
  94:E:/LiteOS/LiteOS_Lab/drivers/third_party/ST/STM32L4xx_HAL_Driver/Src\stm32l4xx_hal_flash.c ****   * DISCLAIMED. IN NO EVENT SHALL THE COPYRIGHT HOLDER OR CONTRIBUTORS BE LIABLE
  95:E:/LiteOS/LiteOS_Lab/drivers/third_party/ST/STM32L4xx_HAL_Driver/Src\stm32l4xx_hal_flash.c ****   * FOR ANY DIRECT, INDIRECT, INCIDENTAL, SPECIAL, EXEMPLARY, OR CONSEQUENTIAL
  96:E:/LiteOS/LiteOS_Lab/drivers/third_party/ST/STM32L4xx_HAL_Driver/Src\stm32l4xx_hal_flash.c ****   * DAMAGES (INCLUDING, BUT NOT LIMITED TO, PROCUREMENT OF SUBSTITUTE GOODS OR
  97:E:/LiteOS/LiteOS_Lab/drivers/third_party/ST/STM32L4xx_HAL_Driver/Src\stm32l4xx_hal_flash.c ****   * SERVICES; LOSS OF USE, DATA, OR PROFITS; OR BUSINESS INTERRUPTION) HOWEVER
  98:E:/LiteOS/LiteOS_Lab/drivers/third_party/ST/STM32L4xx_HAL_Driver/Src\stm32l4xx_hal_flash.c ****   * CAUSED AND ON ANY THEORY OF LIABILITY, WHETHER IN CONTRACT, STRICT LIABILITY,
  99:E:/LiteOS/LiteOS_Lab/drivers/third_party/ST/STM32L4xx_HAL_Driver/Src\stm32l4xx_hal_flash.c ****   * OR TORT (INCLUDING NEGLIGENCE OR OTHERWISE) ARISING IN ANY WAY OUT OF THE USE
 100:E:/LiteOS/LiteOS_Lab/drivers/third_party/ST/STM32L4xx_HAL_Driver/Src\stm32l4xx_hal_flash.c ****   * OF THIS SOFTWARE, EVEN IF ADVISED OF THE POSSIBILITY OF SUCH DAMAGE.
 101:E:/LiteOS/LiteOS_Lab/drivers/third_party/ST/STM32L4xx_HAL_Driver/Src\stm32l4xx_hal_flash.c ****   *
 102:E:/LiteOS/LiteOS_Lab/drivers/third_party/ST/STM32L4xx_HAL_Driver/Src\stm32l4xx_hal_flash.c ****   ******************************************************************************
 103:E:/LiteOS/LiteOS_Lab/drivers/third_party/ST/STM32L4xx_HAL_Driver/Src\stm32l4xx_hal_flash.c ****   */
 104:E:/LiteOS/LiteOS_Lab/drivers/third_party/ST/STM32L4xx_HAL_Driver/Src\stm32l4xx_hal_flash.c **** 
 105:E:/LiteOS/LiteOS_Lab/drivers/third_party/ST/STM32L4xx_HAL_Driver/Src\stm32l4xx_hal_flash.c **** /* Includes ------------------------------------------------------------------*/
 106:E:/LiteOS/LiteOS_Lab/drivers/third_party/ST/STM32L4xx_HAL_Driver/Src\stm32l4xx_hal_flash.c **** #include "stm32l4xx_hal.h"
 107:E:/LiteOS/LiteOS_Lab/drivers/third_party/ST/STM32L4xx_HAL_Driver/Src\stm32l4xx_hal_flash.c **** 
 108:E:/LiteOS/LiteOS_Lab/drivers/third_party/ST/STM32L4xx_HAL_Driver/Src\stm32l4xx_hal_flash.c **** /** @addtogroup STM32L4xx_HAL_Driver
 109:E:/LiteOS/LiteOS_Lab/drivers/third_party/ST/STM32L4xx_HAL_Driver/Src\stm32l4xx_hal_flash.c ****   * @{
 110:E:/LiteOS/LiteOS_Lab/drivers/third_party/ST/STM32L4xx_HAL_Driver/Src\stm32l4xx_hal_flash.c ****   */
 111:E:/LiteOS/LiteOS_Lab/drivers/third_party/ST/STM32L4xx_HAL_Driver/Src\stm32l4xx_hal_flash.c **** 
 112:E:/LiteOS/LiteOS_Lab/drivers/third_party/ST/STM32L4xx_HAL_Driver/Src\stm32l4xx_hal_flash.c **** /** @defgroup FLASH FLASH
 113:E:/LiteOS/LiteOS_Lab/drivers/third_party/ST/STM32L4xx_HAL_Driver/Src\stm32l4xx_hal_flash.c ****   * @brief FLASH HAL module driver
 114:E:/LiteOS/LiteOS_Lab/drivers/third_party/ST/STM32L4xx_HAL_Driver/Src\stm32l4xx_hal_flash.c ****   * @{
 115:E:/LiteOS/LiteOS_Lab/drivers/third_party/ST/STM32L4xx_HAL_Driver/Src\stm32l4xx_hal_flash.c ****   */
 116:E:/LiteOS/LiteOS_Lab/drivers/third_party/ST/STM32L4xx_HAL_Driver/Src\stm32l4xx_hal_flash.c **** 
 117:E:/LiteOS/LiteOS_Lab/drivers/third_party/ST/STM32L4xx_HAL_Driver/Src\stm32l4xx_hal_flash.c **** #ifdef HAL_FLASH_MODULE_ENABLED
 118:E:/LiteOS/LiteOS_Lab/drivers/third_party/ST/STM32L4xx_HAL_Driver/Src\stm32l4xx_hal_flash.c **** 
 119:E:/LiteOS/LiteOS_Lab/drivers/third_party/ST/STM32L4xx_HAL_Driver/Src\stm32l4xx_hal_flash.c **** /* Private typedef -----------------------------------------------------------*/
 120:E:/LiteOS/LiteOS_Lab/drivers/third_party/ST/STM32L4xx_HAL_Driver/Src\stm32l4xx_hal_flash.c **** /* Private defines -----------------------------------------------------------*/
 121:E:/LiteOS/LiteOS_Lab/drivers/third_party/ST/STM32L4xx_HAL_Driver/Src\stm32l4xx_hal_flash.c **** #if defined (STM32L4R5xx) || defined (STM32L4R7xx) || defined (STM32L4R9xx) || defined (STM32L4S5xx
 122:E:/LiteOS/LiteOS_Lab/drivers/third_party/ST/STM32L4xx_HAL_Driver/Src\stm32l4xx_hal_flash.c **** #define FLASH_NB_DOUBLE_WORDS_IN_ROW  64 
 123:E:/LiteOS/LiteOS_Lab/drivers/third_party/ST/STM32L4xx_HAL_Driver/Src\stm32l4xx_hal_flash.c **** #else
 124:E:/LiteOS/LiteOS_Lab/drivers/third_party/ST/STM32L4xx_HAL_Driver/Src\stm32l4xx_hal_flash.c **** #define FLASH_NB_DOUBLE_WORDS_IN_ROW  32 
 125:E:/LiteOS/LiteOS_Lab/drivers/third_party/ST/STM32L4xx_HAL_Driver/Src\stm32l4xx_hal_flash.c **** #endif
 126:E:/LiteOS/LiteOS_Lab/drivers/third_party/ST/STM32L4xx_HAL_Driver/Src\stm32l4xx_hal_flash.c **** /* Private macros ------------------------------------------------------------*/
 127:E:/LiteOS/LiteOS_Lab/drivers/third_party/ST/STM32L4xx_HAL_Driver/Src\stm32l4xx_hal_flash.c **** /* Private variables ---------------------------------------------------------*/
 128:E:/LiteOS/LiteOS_Lab/drivers/third_party/ST/STM32L4xx_HAL_Driver/Src\stm32l4xx_hal_flash.c **** /** @defgroup FLASH_Private_Variables FLASH Private Variables
 129:E:/LiteOS/LiteOS_Lab/drivers/third_party/ST/STM32L4xx_HAL_Driver/Src\stm32l4xx_hal_flash.c ****  * @{
 130:E:/LiteOS/LiteOS_Lab/drivers/third_party/ST/STM32L4xx_HAL_Driver/Src\stm32l4xx_hal_flash.c ****  */
 131:E:/LiteOS/LiteOS_Lab/drivers/third_party/ST/STM32L4xx_HAL_Driver/Src\stm32l4xx_hal_flash.c **** /**
 132:E:/LiteOS/LiteOS_Lab/drivers/third_party/ST/STM32L4xx_HAL_Driver/Src\stm32l4xx_hal_flash.c ****   * @brief  Variable used for Program/Erase sectors under interruption 
 133:E:/LiteOS/LiteOS_Lab/drivers/third_party/ST/STM32L4xx_HAL_Driver/Src\stm32l4xx_hal_flash.c ****   */
 134:E:/LiteOS/LiteOS_Lab/drivers/third_party/ST/STM32L4xx_HAL_Driver/Src\stm32l4xx_hal_flash.c **** FLASH_ProcessTypeDef pFlash;
 135:E:/LiteOS/LiteOS_Lab/drivers/third_party/ST/STM32L4xx_HAL_Driver/Src\stm32l4xx_hal_flash.c **** /**
 136:E:/LiteOS/LiteOS_Lab/drivers/third_party/ST/STM32L4xx_HAL_Driver/Src\stm32l4xx_hal_flash.c ****   * @}
 137:E:/LiteOS/LiteOS_Lab/drivers/third_party/ST/STM32L4xx_HAL_Driver/Src\stm32l4xx_hal_flash.c ****   */
 138:E:/LiteOS/LiteOS_Lab/drivers/third_party/ST/STM32L4xx_HAL_Driver/Src\stm32l4xx_hal_flash.c **** 
 139:E:/LiteOS/LiteOS_Lab/drivers/third_party/ST/STM32L4xx_HAL_Driver/Src\stm32l4xx_hal_flash.c **** /* Private function prototypes -----------------------------------------------*/
 140:E:/LiteOS/LiteOS_Lab/drivers/third_party/ST/STM32L4xx_HAL_Driver/Src\stm32l4xx_hal_flash.c **** /** @defgroup FLASH_Private_Functions FLASH Private Functions
 141:E:/LiteOS/LiteOS_Lab/drivers/third_party/ST/STM32L4xx_HAL_Driver/Src\stm32l4xx_hal_flash.c ****  * @{
 142:E:/LiteOS/LiteOS_Lab/drivers/third_party/ST/STM32L4xx_HAL_Driver/Src\stm32l4xx_hal_flash.c ****  */
 143:E:/LiteOS/LiteOS_Lab/drivers/third_party/ST/STM32L4xx_HAL_Driver/Src\stm32l4xx_hal_flash.c **** HAL_StatusTypeDef    FLASH_WaitForLastOperation(uint32_t Timeout);
 144:E:/LiteOS/LiteOS_Lab/drivers/third_party/ST/STM32L4xx_HAL_Driver/Src\stm32l4xx_hal_flash.c **** extern void          FLASH_PageErase(uint32_t Page, uint32_t Banks);
ARM GAS  C:\Users\user\AppData\Local\Temp\cc8eMbwy.s 			page 4


 145:E:/LiteOS/LiteOS_Lab/drivers/third_party/ST/STM32L4xx_HAL_Driver/Src\stm32l4xx_hal_flash.c **** extern void          FLASH_FlushCaches(void);
 146:E:/LiteOS/LiteOS_Lab/drivers/third_party/ST/STM32L4xx_HAL_Driver/Src\stm32l4xx_hal_flash.c **** static void          FLASH_SetErrorCode(void);
 147:E:/LiteOS/LiteOS_Lab/drivers/third_party/ST/STM32L4xx_HAL_Driver/Src\stm32l4xx_hal_flash.c **** static void          FLASH_Program_DoubleWord(uint32_t Address, uint64_t Data);
 148:E:/LiteOS/LiteOS_Lab/drivers/third_party/ST/STM32L4xx_HAL_Driver/Src\stm32l4xx_hal_flash.c **** static void          FLASH_Program_Fast(uint32_t Address, uint32_t DataAddress);
 149:E:/LiteOS/LiteOS_Lab/drivers/third_party/ST/STM32L4xx_HAL_Driver/Src\stm32l4xx_hal_flash.c **** /**
 150:E:/LiteOS/LiteOS_Lab/drivers/third_party/ST/STM32L4xx_HAL_Driver/Src\stm32l4xx_hal_flash.c ****   * @}
 151:E:/LiteOS/LiteOS_Lab/drivers/third_party/ST/STM32L4xx_HAL_Driver/Src\stm32l4xx_hal_flash.c ****   */
 152:E:/LiteOS/LiteOS_Lab/drivers/third_party/ST/STM32L4xx_HAL_Driver/Src\stm32l4xx_hal_flash.c **** 
 153:E:/LiteOS/LiteOS_Lab/drivers/third_party/ST/STM32L4xx_HAL_Driver/Src\stm32l4xx_hal_flash.c **** /* Exported functions --------------------------------------------------------*/
 154:E:/LiteOS/LiteOS_Lab/drivers/third_party/ST/STM32L4xx_HAL_Driver/Src\stm32l4xx_hal_flash.c **** /** @defgroup FLASH_Exported_Functions FLASH Exported Functions
 155:E:/LiteOS/LiteOS_Lab/drivers/third_party/ST/STM32L4xx_HAL_Driver/Src\stm32l4xx_hal_flash.c ****   * @{
 156:E:/LiteOS/LiteOS_Lab/drivers/third_party/ST/STM32L4xx_HAL_Driver/Src\stm32l4xx_hal_flash.c ****   */
 157:E:/LiteOS/LiteOS_Lab/drivers/third_party/ST/STM32L4xx_HAL_Driver/Src\stm32l4xx_hal_flash.c **** 
 158:E:/LiteOS/LiteOS_Lab/drivers/third_party/ST/STM32L4xx_HAL_Driver/Src\stm32l4xx_hal_flash.c **** /** @defgroup FLASH_Exported_Functions_Group1 Programming operation functions 
 159:E:/LiteOS/LiteOS_Lab/drivers/third_party/ST/STM32L4xx_HAL_Driver/Src\stm32l4xx_hal_flash.c ****  *  @brief   Programming operation functions 
 160:E:/LiteOS/LiteOS_Lab/drivers/third_party/ST/STM32L4xx_HAL_Driver/Src\stm32l4xx_hal_flash.c ****  *
 161:E:/LiteOS/LiteOS_Lab/drivers/third_party/ST/STM32L4xx_HAL_Driver/Src\stm32l4xx_hal_flash.c **** @verbatim   
 162:E:/LiteOS/LiteOS_Lab/drivers/third_party/ST/STM32L4xx_HAL_Driver/Src\stm32l4xx_hal_flash.c ****  ===============================================================================
 163:E:/LiteOS/LiteOS_Lab/drivers/third_party/ST/STM32L4xx_HAL_Driver/Src\stm32l4xx_hal_flash.c ****                   ##### Programming operation functions #####
 164:E:/LiteOS/LiteOS_Lab/drivers/third_party/ST/STM32L4xx_HAL_Driver/Src\stm32l4xx_hal_flash.c ****  ===============================================================================
 165:E:/LiteOS/LiteOS_Lab/drivers/third_party/ST/STM32L4xx_HAL_Driver/Src\stm32l4xx_hal_flash.c ****     [..]
 166:E:/LiteOS/LiteOS_Lab/drivers/third_party/ST/STM32L4xx_HAL_Driver/Src\stm32l4xx_hal_flash.c ****     This subsection provides a set of functions allowing to manage the FLASH 
 167:E:/LiteOS/LiteOS_Lab/drivers/third_party/ST/STM32L4xx_HAL_Driver/Src\stm32l4xx_hal_flash.c ****     program operations.
 168:E:/LiteOS/LiteOS_Lab/drivers/third_party/ST/STM32L4xx_HAL_Driver/Src\stm32l4xx_hal_flash.c ****  
 169:E:/LiteOS/LiteOS_Lab/drivers/third_party/ST/STM32L4xx_HAL_Driver/Src\stm32l4xx_hal_flash.c **** @endverbatim
 170:E:/LiteOS/LiteOS_Lab/drivers/third_party/ST/STM32L4xx_HAL_Driver/Src\stm32l4xx_hal_flash.c ****   * @{
 171:E:/LiteOS/LiteOS_Lab/drivers/third_party/ST/STM32L4xx_HAL_Driver/Src\stm32l4xx_hal_flash.c ****   */
 172:E:/LiteOS/LiteOS_Lab/drivers/third_party/ST/STM32L4xx_HAL_Driver/Src\stm32l4xx_hal_flash.c ****  
 173:E:/LiteOS/LiteOS_Lab/drivers/third_party/ST/STM32L4xx_HAL_Driver/Src\stm32l4xx_hal_flash.c **** /**
 174:E:/LiteOS/LiteOS_Lab/drivers/third_party/ST/STM32L4xx_HAL_Driver/Src\stm32l4xx_hal_flash.c ****   * @brief  Program double word or fast program of a row at a specified address.
 175:E:/LiteOS/LiteOS_Lab/drivers/third_party/ST/STM32L4xx_HAL_Driver/Src\stm32l4xx_hal_flash.c ****   * @param  TypeProgram:  Indicate the way to program at a specified address.
 176:E:/LiteOS/LiteOS_Lab/drivers/third_party/ST/STM32L4xx_HAL_Driver/Src\stm32l4xx_hal_flash.c ****   *                           This parameter can be a value of @ref FLASH_Type_Program
 177:E:/LiteOS/LiteOS_Lab/drivers/third_party/ST/STM32L4xx_HAL_Driver/Src\stm32l4xx_hal_flash.c ****   * @param  Address:  specifies the address to be programmed.
 178:E:/LiteOS/LiteOS_Lab/drivers/third_party/ST/STM32L4xx_HAL_Driver/Src\stm32l4xx_hal_flash.c ****   * @param  Data: specifies the data to be programmed
 179:E:/LiteOS/LiteOS_Lab/drivers/third_party/ST/STM32L4xx_HAL_Driver/Src\stm32l4xx_hal_flash.c ****   *                This parameter is the data for the double word program and the address where 
 180:E:/LiteOS/LiteOS_Lab/drivers/third_party/ST/STM32L4xx_HAL_Driver/Src\stm32l4xx_hal_flash.c ****   *                are stored the data for the row fast program
 181:E:/LiteOS/LiteOS_Lab/drivers/third_party/ST/STM32L4xx_HAL_Driver/Src\stm32l4xx_hal_flash.c ****   * 
 182:E:/LiteOS/LiteOS_Lab/drivers/third_party/ST/STM32L4xx_HAL_Driver/Src\stm32l4xx_hal_flash.c ****   * @retval HAL_StatusTypeDef HAL Status
 183:E:/LiteOS/LiteOS_Lab/drivers/third_party/ST/STM32L4xx_HAL_Driver/Src\stm32l4xx_hal_flash.c ****   */
 184:E:/LiteOS/LiteOS_Lab/drivers/third_party/ST/STM32L4xx_HAL_Driver/Src\stm32l4xx_hal_flash.c **** HAL_StatusTypeDef HAL_FLASH_Program(uint32_t TypeProgram, uint32_t Address, uint64_t Data)
 185:E:/LiteOS/LiteOS_Lab/drivers/third_party/ST/STM32L4xx_HAL_Driver/Src\stm32l4xx_hal_flash.c **** {
  29              		.loc 1 185 0
  30              		.cfi_startproc
  31              		@ args = 0, pretend = 0, frame = 24
  32              		@ frame_needed = 1, uses_anonymous_args = 0
  33 0000 80B5     		push	{r7, lr}
  34              	.LCFI0:
  35              		.cfi_def_cfa_offset 8
  36              		.cfi_offset 7, -8
  37              		.cfi_offset 14, -4
  38 0002 86B0     		sub	sp, sp, #24
  39              	.LCFI1:
  40              		.cfi_def_cfa_offset 32
  41 0004 00AF     		add	r7, sp, #0
  42              	.LCFI2:
  43              		.cfi_def_cfa_register 7
  44 0006 F860     		str	r0, [r7, #12]
ARM GAS  C:\Users\user\AppData\Local\Temp\cc8eMbwy.s 			page 5


  45 0008 B960     		str	r1, [r7, #8]
  46 000a C7E90023 		strd	r2, [r7]
 186:E:/LiteOS/LiteOS_Lab/drivers/third_party/ST/STM32L4xx_HAL_Driver/Src\stm32l4xx_hal_flash.c ****   HAL_StatusTypeDef status = HAL_ERROR;
  47              		.loc 1 186 0
  48 000e 0123     		movs	r3, #1
  49 0010 FB75     		strb	r3, [r7, #23]
 187:E:/LiteOS/LiteOS_Lab/drivers/third_party/ST/STM32L4xx_HAL_Driver/Src\stm32l4xx_hal_flash.c ****   uint32_t prog_bit = 0;
  50              		.loc 1 187 0
  51 0012 0023     		movs	r3, #0
  52 0014 3B61     		str	r3, [r7, #16]
 188:E:/LiteOS/LiteOS_Lab/drivers/third_party/ST/STM32L4xx_HAL_Driver/Src\stm32l4xx_hal_flash.c ****   
 189:E:/LiteOS/LiteOS_Lab/drivers/third_party/ST/STM32L4xx_HAL_Driver/Src\stm32l4xx_hal_flash.c ****   /* Process Locked */
 190:E:/LiteOS/LiteOS_Lab/drivers/third_party/ST/STM32L4xx_HAL_Driver/Src\stm32l4xx_hal_flash.c ****   __HAL_LOCK(&pFlash);
  53              		.loc 1 190 0
  54 0016 2F4B     		ldr	r3, .L11
  55 0018 1B78     		ldrb	r3, [r3]	@ zero_extendqisi2
  56 001a 012B     		cmp	r3, #1
  57 001c 01D1     		bne	.L2
  58              		.loc 1 190 0 is_stmt 0 discriminator 1
  59 001e 0223     		movs	r3, #2
  60 0020 53E0     		b	.L3
  61              	.L2:
  62              		.loc 1 190 0 discriminator 2
  63 0022 2C4B     		ldr	r3, .L11
  64 0024 0122     		movs	r2, #1
  65 0026 1A70     		strb	r2, [r3]
 191:E:/LiteOS/LiteOS_Lab/drivers/third_party/ST/STM32L4xx_HAL_Driver/Src\stm32l4xx_hal_flash.c **** 
 192:E:/LiteOS/LiteOS_Lab/drivers/third_party/ST/STM32L4xx_HAL_Driver/Src\stm32l4xx_hal_flash.c ****   /* Check the parameters */
 193:E:/LiteOS/LiteOS_Lab/drivers/third_party/ST/STM32L4xx_HAL_Driver/Src\stm32l4xx_hal_flash.c ****   assert_param(IS_FLASH_TYPEPROGRAM(TypeProgram));
 194:E:/LiteOS/LiteOS_Lab/drivers/third_party/ST/STM32L4xx_HAL_Driver/Src\stm32l4xx_hal_flash.c **** 
 195:E:/LiteOS/LiteOS_Lab/drivers/third_party/ST/STM32L4xx_HAL_Driver/Src\stm32l4xx_hal_flash.c ****   /* Wait for last operation to be completed */
 196:E:/LiteOS/LiteOS_Lab/drivers/third_party/ST/STM32L4xx_HAL_Driver/Src\stm32l4xx_hal_flash.c ****   status = FLASH_WaitForLastOperation((uint32_t)FLASH_TIMEOUT_VALUE);
  66              		.loc 1 196 0 is_stmt 1 discriminator 2
  67 0028 4CF25030 		movw	r0, #50000
  68 002c FFF7FEFF 		bl	FLASH_WaitForLastOperation
  69 0030 0346     		mov	r3, r0
  70 0032 FB75     		strb	r3, [r7, #23]
 197:E:/LiteOS/LiteOS_Lab/drivers/third_party/ST/STM32L4xx_HAL_Driver/Src\stm32l4xx_hal_flash.c ****   
 198:E:/LiteOS/LiteOS_Lab/drivers/third_party/ST/STM32L4xx_HAL_Driver/Src\stm32l4xx_hal_flash.c ****   if(status == HAL_OK)
  71              		.loc 1 198 0 discriminator 2
  72 0034 FB7D     		ldrb	r3, [r7, #23]	@ zero_extendqisi2
  73 0036 002B     		cmp	r3, #0
  74 0038 43D1     		bne	.L4
 199:E:/LiteOS/LiteOS_Lab/drivers/third_party/ST/STM32L4xx_HAL_Driver/Src\stm32l4xx_hal_flash.c ****   {
 200:E:/LiteOS/LiteOS_Lab/drivers/third_party/ST/STM32L4xx_HAL_Driver/Src\stm32l4xx_hal_flash.c ****     pFlash.ErrorCode = HAL_FLASH_ERROR_NONE;
  75              		.loc 1 200 0
  76 003a 264B     		ldr	r3, .L11
  77 003c 0022     		movs	r2, #0
  78 003e 5A60     		str	r2, [r3, #4]
 201:E:/LiteOS/LiteOS_Lab/drivers/third_party/ST/STM32L4xx_HAL_Driver/Src\stm32l4xx_hal_flash.c **** 
 202:E:/LiteOS/LiteOS_Lab/drivers/third_party/ST/STM32L4xx_HAL_Driver/Src\stm32l4xx_hal_flash.c ****     /* Deactivate the data cache if they are activated to avoid data misbehavior */
 203:E:/LiteOS/LiteOS_Lab/drivers/third_party/ST/STM32L4xx_HAL_Driver/Src\stm32l4xx_hal_flash.c ****     if(READ_BIT(FLASH->ACR, FLASH_ACR_DCEN) != RESET)
  79              		.loc 1 203 0
  80 0040 254B     		ldr	r3, .L11+4
  81 0042 1B68     		ldr	r3, [r3]
  82 0044 03F48063 		and	r3, r3, #1024
  83 0048 002B     		cmp	r3, #0
ARM GAS  C:\Users\user\AppData\Local\Temp\cc8eMbwy.s 			page 6


  84 004a 09D0     		beq	.L5
 204:E:/LiteOS/LiteOS_Lab/drivers/third_party/ST/STM32L4xx_HAL_Driver/Src\stm32l4xx_hal_flash.c ****     {
 205:E:/LiteOS/LiteOS_Lab/drivers/third_party/ST/STM32L4xx_HAL_Driver/Src\stm32l4xx_hal_flash.c ****       /* Disable data cache  */
 206:E:/LiteOS/LiteOS_Lab/drivers/third_party/ST/STM32L4xx_HAL_Driver/Src\stm32l4xx_hal_flash.c ****       __HAL_FLASH_DATA_CACHE_DISABLE();
  85              		.loc 1 206 0
  86 004c 224B     		ldr	r3, .L11+4
  87 004e 1B68     		ldr	r3, [r3]
  88 0050 214A     		ldr	r2, .L11+4
  89 0052 23F48063 		bic	r3, r3, #1024
  90 0056 1360     		str	r3, [r2]
 207:E:/LiteOS/LiteOS_Lab/drivers/third_party/ST/STM32L4xx_HAL_Driver/Src\stm32l4xx_hal_flash.c ****       pFlash.CacheToReactivate = FLASH_CACHE_DCACHE_ENABLED;
  91              		.loc 1 207 0
  92 0058 1E4B     		ldr	r3, .L11
  93 005a 0222     		movs	r2, #2
  94 005c 1A77     		strb	r2, [r3, #28]
  95 005e 02E0     		b	.L6
  96              	.L5:
 208:E:/LiteOS/LiteOS_Lab/drivers/third_party/ST/STM32L4xx_HAL_Driver/Src\stm32l4xx_hal_flash.c ****     }
 209:E:/LiteOS/LiteOS_Lab/drivers/third_party/ST/STM32L4xx_HAL_Driver/Src\stm32l4xx_hal_flash.c ****     else
 210:E:/LiteOS/LiteOS_Lab/drivers/third_party/ST/STM32L4xx_HAL_Driver/Src\stm32l4xx_hal_flash.c ****     {
 211:E:/LiteOS/LiteOS_Lab/drivers/third_party/ST/STM32L4xx_HAL_Driver/Src\stm32l4xx_hal_flash.c ****       pFlash.CacheToReactivate = FLASH_CACHE_DISABLED;
  97              		.loc 1 211 0
  98 0060 1C4B     		ldr	r3, .L11
  99 0062 0022     		movs	r2, #0
 100 0064 1A77     		strb	r2, [r3, #28]
 101              	.L6:
 212:E:/LiteOS/LiteOS_Lab/drivers/third_party/ST/STM32L4xx_HAL_Driver/Src\stm32l4xx_hal_flash.c ****     }
 213:E:/LiteOS/LiteOS_Lab/drivers/third_party/ST/STM32L4xx_HAL_Driver/Src\stm32l4xx_hal_flash.c **** 
 214:E:/LiteOS/LiteOS_Lab/drivers/third_party/ST/STM32L4xx_HAL_Driver/Src\stm32l4xx_hal_flash.c ****     if(TypeProgram == FLASH_TYPEPROGRAM_DOUBLEWORD)
 102              		.loc 1 214 0
 103 0066 FB68     		ldr	r3, [r7, #12]
 104 0068 002B     		cmp	r3, #0
 105 006a 07D1     		bne	.L7
 215:E:/LiteOS/LiteOS_Lab/drivers/third_party/ST/STM32L4xx_HAL_Driver/Src\stm32l4xx_hal_flash.c ****     {
 216:E:/LiteOS/LiteOS_Lab/drivers/third_party/ST/STM32L4xx_HAL_Driver/Src\stm32l4xx_hal_flash.c ****       /* Program double-word (64-bit) at a specified address */
 217:E:/LiteOS/LiteOS_Lab/drivers/third_party/ST/STM32L4xx_HAL_Driver/Src\stm32l4xx_hal_flash.c ****       FLASH_Program_DoubleWord(Address, Data);
 106              		.loc 1 217 0
 107 006c D7E90023 		ldrd	r2, [r7]
 108 0070 B868     		ldr	r0, [r7, #8]
 109 0072 FFF7FEFF 		bl	FLASH_Program_DoubleWord
 218:E:/LiteOS/LiteOS_Lab/drivers/third_party/ST/STM32L4xx_HAL_Driver/Src\stm32l4xx_hal_flash.c ****       prog_bit = FLASH_CR_PG;
 110              		.loc 1 218 0
 111 0076 0123     		movs	r3, #1
 112 0078 3B61     		str	r3, [r7, #16]
 113 007a 10E0     		b	.L8
 114              	.L7:
 219:E:/LiteOS/LiteOS_Lab/drivers/third_party/ST/STM32L4xx_HAL_Driver/Src\stm32l4xx_hal_flash.c ****     }
 220:E:/LiteOS/LiteOS_Lab/drivers/third_party/ST/STM32L4xx_HAL_Driver/Src\stm32l4xx_hal_flash.c ****     else if((TypeProgram == FLASH_TYPEPROGRAM_FAST) || (TypeProgram == FLASH_TYPEPROGRAM_FAST_AND_L
 115              		.loc 1 220 0
 116 007c FB68     		ldr	r3, [r7, #12]
 117 007e 012B     		cmp	r3, #1
 118 0080 02D0     		beq	.L9
 119              		.loc 1 220 0 is_stmt 0 discriminator 1
 120 0082 FB68     		ldr	r3, [r7, #12]
 121 0084 022B     		cmp	r3, #2
 122 0086 0AD1     		bne	.L8
 123              	.L9:
ARM GAS  C:\Users\user\AppData\Local\Temp\cc8eMbwy.s 			page 7


 221:E:/LiteOS/LiteOS_Lab/drivers/third_party/ST/STM32L4xx_HAL_Driver/Src\stm32l4xx_hal_flash.c ****     {
 222:E:/LiteOS/LiteOS_Lab/drivers/third_party/ST/STM32L4xx_HAL_Driver/Src\stm32l4xx_hal_flash.c ****       /* Fast program a 32 row double-word (64-bit) at a specified address */
 223:E:/LiteOS/LiteOS_Lab/drivers/third_party/ST/STM32L4xx_HAL_Driver/Src\stm32l4xx_hal_flash.c ****       FLASH_Program_Fast(Address, (uint32_t)Data);
 124              		.loc 1 223 0 is_stmt 1
 125 0088 3B68     		ldr	r3, [r7]
 126 008a 1946     		mov	r1, r3
 127 008c B868     		ldr	r0, [r7, #8]
 128 008e FFF7FEFF 		bl	FLASH_Program_Fast
 224:E:/LiteOS/LiteOS_Lab/drivers/third_party/ST/STM32L4xx_HAL_Driver/Src\stm32l4xx_hal_flash.c ****       
 225:E:/LiteOS/LiteOS_Lab/drivers/third_party/ST/STM32L4xx_HAL_Driver/Src\stm32l4xx_hal_flash.c ****       /* If it is the last row, the bit will be cleared at the end of the operation */
 226:E:/LiteOS/LiteOS_Lab/drivers/third_party/ST/STM32L4xx_HAL_Driver/Src\stm32l4xx_hal_flash.c ****       if(TypeProgram == FLASH_TYPEPROGRAM_FAST_AND_LAST)
 129              		.loc 1 226 0
 130 0092 FB68     		ldr	r3, [r7, #12]
 131 0094 022B     		cmp	r3, #2
 132 0096 02D1     		bne	.L8
 227:E:/LiteOS/LiteOS_Lab/drivers/third_party/ST/STM32L4xx_HAL_Driver/Src\stm32l4xx_hal_flash.c ****       {
 228:E:/LiteOS/LiteOS_Lab/drivers/third_party/ST/STM32L4xx_HAL_Driver/Src\stm32l4xx_hal_flash.c ****         prog_bit = FLASH_CR_FSTPG;
 133              		.loc 1 228 0
 134 0098 4FF48023 		mov	r3, #262144
 135 009c 3B61     		str	r3, [r7, #16]
 136              	.L8:
 229:E:/LiteOS/LiteOS_Lab/drivers/third_party/ST/STM32L4xx_HAL_Driver/Src\stm32l4xx_hal_flash.c ****       }
 230:E:/LiteOS/LiteOS_Lab/drivers/third_party/ST/STM32L4xx_HAL_Driver/Src\stm32l4xx_hal_flash.c ****     }
 231:E:/LiteOS/LiteOS_Lab/drivers/third_party/ST/STM32L4xx_HAL_Driver/Src\stm32l4xx_hal_flash.c **** 
 232:E:/LiteOS/LiteOS_Lab/drivers/third_party/ST/STM32L4xx_HAL_Driver/Src\stm32l4xx_hal_flash.c ****     /* Wait for last operation to be completed */
 233:E:/LiteOS/LiteOS_Lab/drivers/third_party/ST/STM32L4xx_HAL_Driver/Src\stm32l4xx_hal_flash.c ****     status = FLASH_WaitForLastOperation((uint32_t)FLASH_TIMEOUT_VALUE);
 137              		.loc 1 233 0
 138 009e 4CF25030 		movw	r0, #50000
 139 00a2 FFF7FEFF 		bl	FLASH_WaitForLastOperation
 140 00a6 0346     		mov	r3, r0
 141 00a8 FB75     		strb	r3, [r7, #23]
 234:E:/LiteOS/LiteOS_Lab/drivers/third_party/ST/STM32L4xx_HAL_Driver/Src\stm32l4xx_hal_flash.c ****     
 235:E:/LiteOS/LiteOS_Lab/drivers/third_party/ST/STM32L4xx_HAL_Driver/Src\stm32l4xx_hal_flash.c ****     /* If the program operation is completed, disable the PG or FSTPG Bit */
 236:E:/LiteOS/LiteOS_Lab/drivers/third_party/ST/STM32L4xx_HAL_Driver/Src\stm32l4xx_hal_flash.c ****     if (prog_bit != 0)
 142              		.loc 1 236 0
 143 00aa 3B69     		ldr	r3, [r7, #16]
 144 00ac 002B     		cmp	r3, #0
 145 00ae 06D0     		beq	.L10
 237:E:/LiteOS/LiteOS_Lab/drivers/third_party/ST/STM32L4xx_HAL_Driver/Src\stm32l4xx_hal_flash.c ****     {
 238:E:/LiteOS/LiteOS_Lab/drivers/third_party/ST/STM32L4xx_HAL_Driver/Src\stm32l4xx_hal_flash.c ****       CLEAR_BIT(FLASH->CR, prog_bit);
 146              		.loc 1 238 0
 147 00b0 094B     		ldr	r3, .L11+4
 148 00b2 5A69     		ldr	r2, [r3, #20]
 149 00b4 3B69     		ldr	r3, [r7, #16]
 150 00b6 DB43     		mvns	r3, r3
 151 00b8 0749     		ldr	r1, .L11+4
 152 00ba 1340     		ands	r3, r3, r2
 153 00bc 4B61     		str	r3, [r1, #20]
 154              	.L10:
 239:E:/LiteOS/LiteOS_Lab/drivers/third_party/ST/STM32L4xx_HAL_Driver/Src\stm32l4xx_hal_flash.c ****     }
 240:E:/LiteOS/LiteOS_Lab/drivers/third_party/ST/STM32L4xx_HAL_Driver/Src\stm32l4xx_hal_flash.c **** 
 241:E:/LiteOS/LiteOS_Lab/drivers/third_party/ST/STM32L4xx_HAL_Driver/Src\stm32l4xx_hal_flash.c ****     /* Flush the caches to be sure of the data consistency */
 242:E:/LiteOS/LiteOS_Lab/drivers/third_party/ST/STM32L4xx_HAL_Driver/Src\stm32l4xx_hal_flash.c ****     FLASH_FlushCaches();
 155              		.loc 1 242 0
 156 00be FFF7FEFF 		bl	FLASH_FlushCaches
 157              	.L4:
 243:E:/LiteOS/LiteOS_Lab/drivers/third_party/ST/STM32L4xx_HAL_Driver/Src\stm32l4xx_hal_flash.c ****   }
ARM GAS  C:\Users\user\AppData\Local\Temp\cc8eMbwy.s 			page 8


 244:E:/LiteOS/LiteOS_Lab/drivers/third_party/ST/STM32L4xx_HAL_Driver/Src\stm32l4xx_hal_flash.c **** 
 245:E:/LiteOS/LiteOS_Lab/drivers/third_party/ST/STM32L4xx_HAL_Driver/Src\stm32l4xx_hal_flash.c ****   /* Process Unlocked */
 246:E:/LiteOS/LiteOS_Lab/drivers/third_party/ST/STM32L4xx_HAL_Driver/Src\stm32l4xx_hal_flash.c ****   __HAL_UNLOCK(&pFlash);
 158              		.loc 1 246 0
 159 00c2 044B     		ldr	r3, .L11
 160 00c4 0022     		movs	r2, #0
 161 00c6 1A70     		strb	r2, [r3]
 247:E:/LiteOS/LiteOS_Lab/drivers/third_party/ST/STM32L4xx_HAL_Driver/Src\stm32l4xx_hal_flash.c **** 
 248:E:/LiteOS/LiteOS_Lab/drivers/third_party/ST/STM32L4xx_HAL_Driver/Src\stm32l4xx_hal_flash.c ****   return status;  
 162              		.loc 1 248 0
 163 00c8 FB7D     		ldrb	r3, [r7, #23]	@ zero_extendqisi2
 164              	.L3:
 249:E:/LiteOS/LiteOS_Lab/drivers/third_party/ST/STM32L4xx_HAL_Driver/Src\stm32l4xx_hal_flash.c **** }
 165              		.loc 1 249 0
 166 00ca 1846     		mov	r0, r3
 167 00cc 1837     		adds	r7, r7, #24
 168              	.LCFI3:
 169              		.cfi_def_cfa_offset 8
 170 00ce BD46     		mov	sp, r7
 171              	.LCFI4:
 172              		.cfi_def_cfa_register 13
 173              		@ sp needed
 174 00d0 80BD     		pop	{r7, pc}
 175              	.L12:
 176 00d2 00BF     		.align	2
 177              	.L11:
 178 00d4 00000000 		.word	pFlash
 179 00d8 00200240 		.word	1073881088
 180              		.cfi_endproc
 181              	.LFE133:
 183              		.section	.text.HAL_FLASH_Program_IT,"ax",%progbits
 184              		.align	1
 185              		.global	HAL_FLASH_Program_IT
 186              		.syntax unified
 187              		.thumb
 188              		.thumb_func
 189              		.fpu fpv4-sp-d16
 191              	HAL_FLASH_Program_IT:
 192              	.LFB134:
 250:E:/LiteOS/LiteOS_Lab/drivers/third_party/ST/STM32L4xx_HAL_Driver/Src\stm32l4xx_hal_flash.c **** 
 251:E:/LiteOS/LiteOS_Lab/drivers/third_party/ST/STM32L4xx_HAL_Driver/Src\stm32l4xx_hal_flash.c **** /**
 252:E:/LiteOS/LiteOS_Lab/drivers/third_party/ST/STM32L4xx_HAL_Driver/Src\stm32l4xx_hal_flash.c ****   * @brief  Program double word or fast program of a row at a specified address with interrupt enab
 253:E:/LiteOS/LiteOS_Lab/drivers/third_party/ST/STM32L4xx_HAL_Driver/Src\stm32l4xx_hal_flash.c ****   * @param  TypeProgram:  Indicate the way to program at a specified address.
 254:E:/LiteOS/LiteOS_Lab/drivers/third_party/ST/STM32L4xx_HAL_Driver/Src\stm32l4xx_hal_flash.c ****   *                           This parameter can be a value of @ref FLASH_Type_Program
 255:E:/LiteOS/LiteOS_Lab/drivers/third_party/ST/STM32L4xx_HAL_Driver/Src\stm32l4xx_hal_flash.c ****   * @param  Address:  specifies the address to be programmed.
 256:E:/LiteOS/LiteOS_Lab/drivers/third_party/ST/STM32L4xx_HAL_Driver/Src\stm32l4xx_hal_flash.c ****   * @param  Data: specifies the data to be programmed
 257:E:/LiteOS/LiteOS_Lab/drivers/third_party/ST/STM32L4xx_HAL_Driver/Src\stm32l4xx_hal_flash.c ****   *                This parameter is the data for the double word program and the address where 
 258:E:/LiteOS/LiteOS_Lab/drivers/third_party/ST/STM32L4xx_HAL_Driver/Src\stm32l4xx_hal_flash.c ****   *                are stored the data for the row fast program
 259:E:/LiteOS/LiteOS_Lab/drivers/third_party/ST/STM32L4xx_HAL_Driver/Src\stm32l4xx_hal_flash.c ****   * 
 260:E:/LiteOS/LiteOS_Lab/drivers/third_party/ST/STM32L4xx_HAL_Driver/Src\stm32l4xx_hal_flash.c ****   * @retval HAL Status
 261:E:/LiteOS/LiteOS_Lab/drivers/third_party/ST/STM32L4xx_HAL_Driver/Src\stm32l4xx_hal_flash.c ****   */
 262:E:/LiteOS/LiteOS_Lab/drivers/third_party/ST/STM32L4xx_HAL_Driver/Src\stm32l4xx_hal_flash.c **** HAL_StatusTypeDef HAL_FLASH_Program_IT(uint32_t TypeProgram, uint32_t Address, uint64_t Data)
 263:E:/LiteOS/LiteOS_Lab/drivers/third_party/ST/STM32L4xx_HAL_Driver/Src\stm32l4xx_hal_flash.c **** {
 193              		.loc 1 263 0
 194              		.cfi_startproc
 195              		@ args = 0, pretend = 0, frame = 24
 196              		@ frame_needed = 1, uses_anonymous_args = 0
ARM GAS  C:\Users\user\AppData\Local\Temp\cc8eMbwy.s 			page 9


 197 0000 80B5     		push	{r7, lr}
 198              	.LCFI5:
 199              		.cfi_def_cfa_offset 8
 200              		.cfi_offset 7, -8
 201              		.cfi_offset 14, -4
 202 0002 86B0     		sub	sp, sp, #24
 203              	.LCFI6:
 204              		.cfi_def_cfa_offset 32
 205 0004 00AF     		add	r7, sp, #0
 206              	.LCFI7:
 207              		.cfi_def_cfa_register 7
 208 0006 F860     		str	r0, [r7, #12]
 209 0008 B960     		str	r1, [r7, #8]
 210 000a C7E90023 		strd	r2, [r7]
 264:E:/LiteOS/LiteOS_Lab/drivers/third_party/ST/STM32L4xx_HAL_Driver/Src\stm32l4xx_hal_flash.c ****   HAL_StatusTypeDef status = HAL_OK;
 211              		.loc 1 264 0
 212 000e 0023     		movs	r3, #0
 213 0010 FB75     		strb	r3, [r7, #23]
 265:E:/LiteOS/LiteOS_Lab/drivers/third_party/ST/STM32L4xx_HAL_Driver/Src\stm32l4xx_hal_flash.c **** 
 266:E:/LiteOS/LiteOS_Lab/drivers/third_party/ST/STM32L4xx_HAL_Driver/Src\stm32l4xx_hal_flash.c ****   /* Check the parameters */
 267:E:/LiteOS/LiteOS_Lab/drivers/third_party/ST/STM32L4xx_HAL_Driver/Src\stm32l4xx_hal_flash.c ****   assert_param(IS_FLASH_TYPEPROGRAM(TypeProgram));
 268:E:/LiteOS/LiteOS_Lab/drivers/third_party/ST/STM32L4xx_HAL_Driver/Src\stm32l4xx_hal_flash.c **** 
 269:E:/LiteOS/LiteOS_Lab/drivers/third_party/ST/STM32L4xx_HAL_Driver/Src\stm32l4xx_hal_flash.c ****   /* Process Locked */
 270:E:/LiteOS/LiteOS_Lab/drivers/third_party/ST/STM32L4xx_HAL_Driver/Src\stm32l4xx_hal_flash.c ****   __HAL_LOCK(&pFlash);
 214              		.loc 1 270 0
 215 0012 254B     		ldr	r3, .L23
 216 0014 1B78     		ldrb	r3, [r3]	@ zero_extendqisi2
 217 0016 012B     		cmp	r3, #1
 218 0018 01D1     		bne	.L14
 219              		.loc 1 270 0 is_stmt 0 discriminator 1
 220 001a 0223     		movs	r3, #2
 221 001c 40E0     		b	.L15
 222              	.L14:
 223              		.loc 1 270 0 discriminator 2
 224 001e 224B     		ldr	r3, .L23
 225 0020 0122     		movs	r2, #1
 226 0022 1A70     		strb	r2, [r3]
 271:E:/LiteOS/LiteOS_Lab/drivers/third_party/ST/STM32L4xx_HAL_Driver/Src\stm32l4xx_hal_flash.c **** 
 272:E:/LiteOS/LiteOS_Lab/drivers/third_party/ST/STM32L4xx_HAL_Driver/Src\stm32l4xx_hal_flash.c ****   pFlash.ErrorCode = HAL_FLASH_ERROR_NONE;
 227              		.loc 1 272 0 is_stmt 1 discriminator 2
 228 0024 204B     		ldr	r3, .L23
 229 0026 0022     		movs	r2, #0
 230 0028 5A60     		str	r2, [r3, #4]
 273:E:/LiteOS/LiteOS_Lab/drivers/third_party/ST/STM32L4xx_HAL_Driver/Src\stm32l4xx_hal_flash.c **** 
 274:E:/LiteOS/LiteOS_Lab/drivers/third_party/ST/STM32L4xx_HAL_Driver/Src\stm32l4xx_hal_flash.c ****   /* Deactivate the data cache if they are activated to avoid data misbehavior */
 275:E:/LiteOS/LiteOS_Lab/drivers/third_party/ST/STM32L4xx_HAL_Driver/Src\stm32l4xx_hal_flash.c ****   if(READ_BIT(FLASH->ACR, FLASH_ACR_DCEN) != RESET)
 231              		.loc 1 275 0 discriminator 2
 232 002a 204B     		ldr	r3, .L23+4
 233 002c 1B68     		ldr	r3, [r3]
 234 002e 03F48063 		and	r3, r3, #1024
 235 0032 002B     		cmp	r3, #0
 236 0034 09D0     		beq	.L16
 276:E:/LiteOS/LiteOS_Lab/drivers/third_party/ST/STM32L4xx_HAL_Driver/Src\stm32l4xx_hal_flash.c ****   {
 277:E:/LiteOS/LiteOS_Lab/drivers/third_party/ST/STM32L4xx_HAL_Driver/Src\stm32l4xx_hal_flash.c ****     /* Disable data cache  */
 278:E:/LiteOS/LiteOS_Lab/drivers/third_party/ST/STM32L4xx_HAL_Driver/Src\stm32l4xx_hal_flash.c ****     __HAL_FLASH_DATA_CACHE_DISABLE();
 237              		.loc 1 278 0
 238 0036 1D4B     		ldr	r3, .L23+4
ARM GAS  C:\Users\user\AppData\Local\Temp\cc8eMbwy.s 			page 10


 239 0038 1B68     		ldr	r3, [r3]
 240 003a 1C4A     		ldr	r2, .L23+4
 241 003c 23F48063 		bic	r3, r3, #1024
 242 0040 1360     		str	r3, [r2]
 279:E:/LiteOS/LiteOS_Lab/drivers/third_party/ST/STM32L4xx_HAL_Driver/Src\stm32l4xx_hal_flash.c ****     pFlash.CacheToReactivate = FLASH_CACHE_DCACHE_ENABLED;
 243              		.loc 1 279 0
 244 0042 194B     		ldr	r3, .L23
 245 0044 0222     		movs	r2, #2
 246 0046 1A77     		strb	r2, [r3, #28]
 247 0048 02E0     		b	.L17
 248              	.L16:
 280:E:/LiteOS/LiteOS_Lab/drivers/third_party/ST/STM32L4xx_HAL_Driver/Src\stm32l4xx_hal_flash.c ****   }
 281:E:/LiteOS/LiteOS_Lab/drivers/third_party/ST/STM32L4xx_HAL_Driver/Src\stm32l4xx_hal_flash.c ****   else
 282:E:/LiteOS/LiteOS_Lab/drivers/third_party/ST/STM32L4xx_HAL_Driver/Src\stm32l4xx_hal_flash.c ****   {
 283:E:/LiteOS/LiteOS_Lab/drivers/third_party/ST/STM32L4xx_HAL_Driver/Src\stm32l4xx_hal_flash.c ****     pFlash.CacheToReactivate = FLASH_CACHE_DISABLED;
 249              		.loc 1 283 0
 250 004a 174B     		ldr	r3, .L23
 251 004c 0022     		movs	r2, #0
 252 004e 1A77     		strb	r2, [r3, #28]
 253              	.L17:
 284:E:/LiteOS/LiteOS_Lab/drivers/third_party/ST/STM32L4xx_HAL_Driver/Src\stm32l4xx_hal_flash.c ****   }
 285:E:/LiteOS/LiteOS_Lab/drivers/third_party/ST/STM32L4xx_HAL_Driver/Src\stm32l4xx_hal_flash.c **** 
 286:E:/LiteOS/LiteOS_Lab/drivers/third_party/ST/STM32L4xx_HAL_Driver/Src\stm32l4xx_hal_flash.c ****   /* Set internal variables used by the IRQ handler */
 287:E:/LiteOS/LiteOS_Lab/drivers/third_party/ST/STM32L4xx_HAL_Driver/Src\stm32l4xx_hal_flash.c ****   if(TypeProgram == FLASH_TYPEPROGRAM_FAST_AND_LAST)
 254              		.loc 1 287 0
 255 0050 FB68     		ldr	r3, [r7, #12]
 256 0052 022B     		cmp	r3, #2
 257 0054 03D1     		bne	.L18
 288:E:/LiteOS/LiteOS_Lab/drivers/third_party/ST/STM32L4xx_HAL_Driver/Src\stm32l4xx_hal_flash.c ****   {
 289:E:/LiteOS/LiteOS_Lab/drivers/third_party/ST/STM32L4xx_HAL_Driver/Src\stm32l4xx_hal_flash.c ****     pFlash.ProcedureOnGoing = FLASH_PROC_PROGRAM_LAST;
 258              		.loc 1 289 0
 259 0056 144B     		ldr	r3, .L23
 260 0058 0422     		movs	r2, #4
 261 005a 1A72     		strb	r2, [r3, #8]
 262 005c 02E0     		b	.L19
 263              	.L18:
 290:E:/LiteOS/LiteOS_Lab/drivers/third_party/ST/STM32L4xx_HAL_Driver/Src\stm32l4xx_hal_flash.c ****   }
 291:E:/LiteOS/LiteOS_Lab/drivers/third_party/ST/STM32L4xx_HAL_Driver/Src\stm32l4xx_hal_flash.c ****   else
 292:E:/LiteOS/LiteOS_Lab/drivers/third_party/ST/STM32L4xx_HAL_Driver/Src\stm32l4xx_hal_flash.c ****   {
 293:E:/LiteOS/LiteOS_Lab/drivers/third_party/ST/STM32L4xx_HAL_Driver/Src\stm32l4xx_hal_flash.c ****     pFlash.ProcedureOnGoing = FLASH_PROC_PROGRAM;
 264              		.loc 1 293 0
 265 005e 124B     		ldr	r3, .L23
 266 0060 0322     		movs	r2, #3
 267 0062 1A72     		strb	r2, [r3, #8]
 268              	.L19:
 294:E:/LiteOS/LiteOS_Lab/drivers/third_party/ST/STM32L4xx_HAL_Driver/Src\stm32l4xx_hal_flash.c ****   }
 295:E:/LiteOS/LiteOS_Lab/drivers/third_party/ST/STM32L4xx_HAL_Driver/Src\stm32l4xx_hal_flash.c ****   pFlash.Address = Address;
 269              		.loc 1 295 0
 270 0064 104A     		ldr	r2, .L23
 271 0066 BB68     		ldr	r3, [r7, #8]
 272 0068 D360     		str	r3, [r2, #12]
 296:E:/LiteOS/LiteOS_Lab/drivers/third_party/ST/STM32L4xx_HAL_Driver/Src\stm32l4xx_hal_flash.c ****     
 297:E:/LiteOS/LiteOS_Lab/drivers/third_party/ST/STM32L4xx_HAL_Driver/Src\stm32l4xx_hal_flash.c ****   /* Enable End of Operation and Error interrupts */
 298:E:/LiteOS/LiteOS_Lab/drivers/third_party/ST/STM32L4xx_HAL_Driver/Src\stm32l4xx_hal_flash.c ****   __HAL_FLASH_ENABLE_IT(FLASH_IT_EOP | FLASH_IT_OPERR);
 273              		.loc 1 298 0
 274 006a 104B     		ldr	r3, .L23+4
 275 006c 5B69     		ldr	r3, [r3, #20]
ARM GAS  C:\Users\user\AppData\Local\Temp\cc8eMbwy.s 			page 11


 276 006e 0F4A     		ldr	r2, .L23+4
 277 0070 43F04073 		orr	r3, r3, #50331648
 278 0074 5361     		str	r3, [r2, #20]
 299:E:/LiteOS/LiteOS_Lab/drivers/third_party/ST/STM32L4xx_HAL_Driver/Src\stm32l4xx_hal_flash.c **** 
 300:E:/LiteOS/LiteOS_Lab/drivers/third_party/ST/STM32L4xx_HAL_Driver/Src\stm32l4xx_hal_flash.c ****   if(TypeProgram == FLASH_TYPEPROGRAM_DOUBLEWORD)
 279              		.loc 1 300 0
 280 0076 FB68     		ldr	r3, [r7, #12]
 281 0078 002B     		cmp	r3, #0
 282 007a 05D1     		bne	.L20
 301:E:/LiteOS/LiteOS_Lab/drivers/third_party/ST/STM32L4xx_HAL_Driver/Src\stm32l4xx_hal_flash.c ****   {
 302:E:/LiteOS/LiteOS_Lab/drivers/third_party/ST/STM32L4xx_HAL_Driver/Src\stm32l4xx_hal_flash.c ****     /* Program double-word (64-bit) at a specified address */
 303:E:/LiteOS/LiteOS_Lab/drivers/third_party/ST/STM32L4xx_HAL_Driver/Src\stm32l4xx_hal_flash.c ****     FLASH_Program_DoubleWord(Address, Data);
 283              		.loc 1 303 0
 284 007c D7E90023 		ldrd	r2, [r7]
 285 0080 B868     		ldr	r0, [r7, #8]
 286 0082 FFF7FEFF 		bl	FLASH_Program_DoubleWord
 287 0086 0AE0     		b	.L21
 288              	.L20:
 304:E:/LiteOS/LiteOS_Lab/drivers/third_party/ST/STM32L4xx_HAL_Driver/Src\stm32l4xx_hal_flash.c ****   }
 305:E:/LiteOS/LiteOS_Lab/drivers/third_party/ST/STM32L4xx_HAL_Driver/Src\stm32l4xx_hal_flash.c ****   else if((TypeProgram == FLASH_TYPEPROGRAM_FAST) || (TypeProgram == FLASH_TYPEPROGRAM_FAST_AND_LAS
 289              		.loc 1 305 0
 290 0088 FB68     		ldr	r3, [r7, #12]
 291 008a 012B     		cmp	r3, #1
 292 008c 02D0     		beq	.L22
 293              		.loc 1 305 0 is_stmt 0 discriminator 1
 294 008e FB68     		ldr	r3, [r7, #12]
 295 0090 022B     		cmp	r3, #2
 296 0092 04D1     		bne	.L21
 297              	.L22:
 306:E:/LiteOS/LiteOS_Lab/drivers/third_party/ST/STM32L4xx_HAL_Driver/Src\stm32l4xx_hal_flash.c ****   {
 307:E:/LiteOS/LiteOS_Lab/drivers/third_party/ST/STM32L4xx_HAL_Driver/Src\stm32l4xx_hal_flash.c ****     /* Fast program a 32 row double-word (64-bit) at a specified address */
 308:E:/LiteOS/LiteOS_Lab/drivers/third_party/ST/STM32L4xx_HAL_Driver/Src\stm32l4xx_hal_flash.c ****     FLASH_Program_Fast(Address, (uint32_t)Data);
 298              		.loc 1 308 0 is_stmt 1
 299 0094 3B68     		ldr	r3, [r7]
 300 0096 1946     		mov	r1, r3
 301 0098 B868     		ldr	r0, [r7, #8]
 302 009a FFF7FEFF 		bl	FLASH_Program_Fast
 303              	.L21:
 309:E:/LiteOS/LiteOS_Lab/drivers/third_party/ST/STM32L4xx_HAL_Driver/Src\stm32l4xx_hal_flash.c ****   }
 310:E:/LiteOS/LiteOS_Lab/drivers/third_party/ST/STM32L4xx_HAL_Driver/Src\stm32l4xx_hal_flash.c **** 
 311:E:/LiteOS/LiteOS_Lab/drivers/third_party/ST/STM32L4xx_HAL_Driver/Src\stm32l4xx_hal_flash.c ****   return status;  
 304              		.loc 1 311 0
 305 009e FB7D     		ldrb	r3, [r7, #23]	@ zero_extendqisi2
 306              	.L15:
 312:E:/LiteOS/LiteOS_Lab/drivers/third_party/ST/STM32L4xx_HAL_Driver/Src\stm32l4xx_hal_flash.c **** }
 307              		.loc 1 312 0
 308 00a0 1846     		mov	r0, r3
 309 00a2 1837     		adds	r7, r7, #24
 310              	.LCFI8:
 311              		.cfi_def_cfa_offset 8
 312 00a4 BD46     		mov	sp, r7
 313              	.LCFI9:
 314              		.cfi_def_cfa_register 13
 315              		@ sp needed
 316 00a6 80BD     		pop	{r7, pc}
 317              	.L24:
 318              		.align	2
ARM GAS  C:\Users\user\AppData\Local\Temp\cc8eMbwy.s 			page 12


 319              	.L23:
 320 00a8 00000000 		.word	pFlash
 321 00ac 00200240 		.word	1073881088
 322              		.cfi_endproc
 323              	.LFE134:
 325              		.section	.text.HAL_FLASH_IRQHandler,"ax",%progbits
 326              		.align	1
 327              		.global	HAL_FLASH_IRQHandler
 328              		.syntax unified
 329              		.thumb
 330              		.thumb_func
 331              		.fpu fpv4-sp-d16
 333              	HAL_FLASH_IRQHandler:
 334              	.LFB135:
 313:E:/LiteOS/LiteOS_Lab/drivers/third_party/ST/STM32L4xx_HAL_Driver/Src\stm32l4xx_hal_flash.c **** 
 314:E:/LiteOS/LiteOS_Lab/drivers/third_party/ST/STM32L4xx_HAL_Driver/Src\stm32l4xx_hal_flash.c **** /**
 315:E:/LiteOS/LiteOS_Lab/drivers/third_party/ST/STM32L4xx_HAL_Driver/Src\stm32l4xx_hal_flash.c ****   * @brief Handle FLASH interrupt request.
 316:E:/LiteOS/LiteOS_Lab/drivers/third_party/ST/STM32L4xx_HAL_Driver/Src\stm32l4xx_hal_flash.c ****   * @retval None
 317:E:/LiteOS/LiteOS_Lab/drivers/third_party/ST/STM32L4xx_HAL_Driver/Src\stm32l4xx_hal_flash.c ****   */
 318:E:/LiteOS/LiteOS_Lab/drivers/third_party/ST/STM32L4xx_HAL_Driver/Src\stm32l4xx_hal_flash.c **** void HAL_FLASH_IRQHandler(void)
 319:E:/LiteOS/LiteOS_Lab/drivers/third_party/ST/STM32L4xx_HAL_Driver/Src\stm32l4xx_hal_flash.c **** {
 335              		.loc 1 319 0
 336              		.cfi_startproc
 337              		@ args = 0, pretend = 0, frame = 8
 338              		@ frame_needed = 1, uses_anonymous_args = 0
 339 0000 80B5     		push	{r7, lr}
 340              	.LCFI10:
 341              		.cfi_def_cfa_offset 8
 342              		.cfi_offset 7, -8
 343              		.cfi_offset 14, -4
 344 0002 82B0     		sub	sp, sp, #8
 345              	.LCFI11:
 346              		.cfi_def_cfa_offset 16
 347 0004 00AF     		add	r7, sp, #0
 348              	.LCFI12:
 349              		.cfi_def_cfa_register 7
 320:E:/LiteOS/LiteOS_Lab/drivers/third_party/ST/STM32L4xx_HAL_Driver/Src\stm32l4xx_hal_flash.c ****   uint32_t tmp_page;
 321:E:/LiteOS/LiteOS_Lab/drivers/third_party/ST/STM32L4xx_HAL_Driver/Src\stm32l4xx_hal_flash.c **** 
 322:E:/LiteOS/LiteOS_Lab/drivers/third_party/ST/STM32L4xx_HAL_Driver/Src\stm32l4xx_hal_flash.c ****   /* If the operation is completed, disable the PG, PNB, MER1, MER2 and PER Bit */
 323:E:/LiteOS/LiteOS_Lab/drivers/third_party/ST/STM32L4xx_HAL_Driver/Src\stm32l4xx_hal_flash.c ****   CLEAR_BIT(FLASH->CR, (FLASH_CR_PG | FLASH_CR_MER1 | FLASH_CR_PER | FLASH_CR_PNB));
 350              		.loc 1 323 0
 351 0006 7C4B     		ldr	r3, .L42
 352 0008 5B69     		ldr	r3, [r3, #20]
 353 000a 7B4A     		ldr	r2, .L42
 354 000c 23F4FF63 		bic	r3, r3, #2040
 355 0010 23F00703 		bic	r3, r3, #7
 356 0014 5361     		str	r3, [r2, #20]
 324:E:/LiteOS/LiteOS_Lab/drivers/third_party/ST/STM32L4xx_HAL_Driver/Src\stm32l4xx_hal_flash.c **** #if defined (STM32L471xx) || defined (STM32L475xx) || defined (STM32L476xx) || defined (STM32L485xx
 325:E:/LiteOS/LiteOS_Lab/drivers/third_party/ST/STM32L4xx_HAL_Driver/Src\stm32l4xx_hal_flash.c ****     defined (STM32L496xx) || defined (STM32L4A6xx) || \
 326:E:/LiteOS/LiteOS_Lab/drivers/third_party/ST/STM32L4xx_HAL_Driver/Src\stm32l4xx_hal_flash.c ****     defined (STM32L4R5xx) || defined (STM32L4R7xx) || defined (STM32L4R9xx) || defined (STM32L4S5xx
 327:E:/LiteOS/LiteOS_Lab/drivers/third_party/ST/STM32L4xx_HAL_Driver/Src\stm32l4xx_hal_flash.c ****   CLEAR_BIT(FLASH->CR, FLASH_CR_MER2);
 328:E:/LiteOS/LiteOS_Lab/drivers/third_party/ST/STM32L4xx_HAL_Driver/Src\stm32l4xx_hal_flash.c **** #endif
 329:E:/LiteOS/LiteOS_Lab/drivers/third_party/ST/STM32L4xx_HAL_Driver/Src\stm32l4xx_hal_flash.c ****   
 330:E:/LiteOS/LiteOS_Lab/drivers/third_party/ST/STM32L4xx_HAL_Driver/Src\stm32l4xx_hal_flash.c ****   /* Disable the FSTPG Bit only if it is the last row programmed */
 331:E:/LiteOS/LiteOS_Lab/drivers/third_party/ST/STM32L4xx_HAL_Driver/Src\stm32l4xx_hal_flash.c ****   if(pFlash.ProcedureOnGoing == FLASH_PROC_PROGRAM_LAST)
 357              		.loc 1 331 0
 358 0016 794B     		ldr	r3, .L42+4
ARM GAS  C:\Users\user\AppData\Local\Temp\cc8eMbwy.s 			page 13


 359 0018 1B7A     		ldrb	r3, [r3, #8]
 360 001a DBB2     		uxtb	r3, r3
 361 001c 042B     		cmp	r3, #4
 362 001e 05D1     		bne	.L26
 332:E:/LiteOS/LiteOS_Lab/drivers/third_party/ST/STM32L4xx_HAL_Driver/Src\stm32l4xx_hal_flash.c ****   {
 333:E:/LiteOS/LiteOS_Lab/drivers/third_party/ST/STM32L4xx_HAL_Driver/Src\stm32l4xx_hal_flash.c ****     CLEAR_BIT(FLASH->CR, FLASH_CR_FSTPG);
 363              		.loc 1 333 0
 364 0020 754B     		ldr	r3, .L42
 365 0022 5B69     		ldr	r3, [r3, #20]
 366 0024 744A     		ldr	r2, .L42
 367 0026 23F48023 		bic	r3, r3, #262144
 368 002a 5361     		str	r3, [r2, #20]
 369              	.L26:
 334:E:/LiteOS/LiteOS_Lab/drivers/third_party/ST/STM32L4xx_HAL_Driver/Src\stm32l4xx_hal_flash.c ****   }
 335:E:/LiteOS/LiteOS_Lab/drivers/third_party/ST/STM32L4xx_HAL_Driver/Src\stm32l4xx_hal_flash.c **** 
 336:E:/LiteOS/LiteOS_Lab/drivers/third_party/ST/STM32L4xx_HAL_Driver/Src\stm32l4xx_hal_flash.c ****   /* Check FLASH operation error flags */
 337:E:/LiteOS/LiteOS_Lab/drivers/third_party/ST/STM32L4xx_HAL_Driver/Src\stm32l4xx_hal_flash.c ****   if((__HAL_FLASH_GET_FLAG(FLASH_FLAG_OPERR))  || (__HAL_FLASH_GET_FLAG(FLASH_FLAG_PROGERR)) || 
 370              		.loc 1 337 0
 371 002c 724B     		ldr	r3, .L42
 372 002e 1B69     		ldr	r3, [r3, #16]
 373 0030 03F00203 		and	r3, r3, #2
 374 0034 022B     		cmp	r3, #2
 375 0036 47D0     		beq	.L27
 376              		.loc 1 337 0 is_stmt 0 discriminator 1
 377 0038 6F4B     		ldr	r3, .L42
 378 003a 1B69     		ldr	r3, [r3, #16]
 379 003c 03F00803 		and	r3, r3, #8
 380 0040 082B     		cmp	r3, #8
 381 0042 41D0     		beq	.L27
 338:E:/LiteOS/LiteOS_Lab/drivers/third_party/ST/STM32L4xx_HAL_Driver/Src\stm32l4xx_hal_flash.c ****      (__HAL_FLASH_GET_FLAG(FLASH_FLAG_WRPERR)) || (__HAL_FLASH_GET_FLAG(FLASH_FLAG_PGAERR))  || 
 382              		.loc 1 338 0 is_stmt 1 discriminator 2
 383 0044 6C4B     		ldr	r3, .L42
 384 0046 1B69     		ldr	r3, [r3, #16]
 385 0048 03F01003 		and	r3, r3, #16
 337:E:/LiteOS/LiteOS_Lab/drivers/third_party/ST/STM32L4xx_HAL_Driver/Src\stm32l4xx_hal_flash.c ****      (__HAL_FLASH_GET_FLAG(FLASH_FLAG_WRPERR)) || (__HAL_FLASH_GET_FLAG(FLASH_FLAG_PGAERR))  || 
 386              		.loc 1 337 0 discriminator 2
 387 004c 102B     		cmp	r3, #16
 388 004e 3BD0     		beq	.L27
 389              		.loc 1 338 0
 390 0050 694B     		ldr	r3, .L42
 391 0052 1B69     		ldr	r3, [r3, #16]
 392 0054 03F02003 		and	r3, r3, #32
 393 0058 202B     		cmp	r3, #32
 394 005a 35D0     		beq	.L27
 339:E:/LiteOS/LiteOS_Lab/drivers/third_party/ST/STM32L4xx_HAL_Driver/Src\stm32l4xx_hal_flash.c ****      (__HAL_FLASH_GET_FLAG(FLASH_FLAG_SIZERR)) || (__HAL_FLASH_GET_FLAG(FLASH_FLAG_PGSERR))  ||
 395              		.loc 1 339 0 discriminator 1
 396 005c 664B     		ldr	r3, .L42
 397 005e 1B69     		ldr	r3, [r3, #16]
 398 0060 03F04003 		and	r3, r3, #64
 338:E:/LiteOS/LiteOS_Lab/drivers/third_party/ST/STM32L4xx_HAL_Driver/Src\stm32l4xx_hal_flash.c ****      (__HAL_FLASH_GET_FLAG(FLASH_FLAG_WRPERR)) || (__HAL_FLASH_GET_FLAG(FLASH_FLAG_PGAERR))  || 
 399              		.loc 1 338 0 discriminator 1
 400 0064 402B     		cmp	r3, #64
 401 0066 2FD0     		beq	.L27
 402              		.loc 1 339 0
 403 0068 634B     		ldr	r3, .L42
 404 006a 1B69     		ldr	r3, [r3, #16]
 405 006c 03F08003 		and	r3, r3, #128
ARM GAS  C:\Users\user\AppData\Local\Temp\cc8eMbwy.s 			page 14


 406 0070 802B     		cmp	r3, #128
 407 0072 29D0     		beq	.L27
 340:E:/LiteOS/LiteOS_Lab/drivers/third_party/ST/STM32L4xx_HAL_Driver/Src\stm32l4xx_hal_flash.c ****      (__HAL_FLASH_GET_FLAG(FLASH_FLAG_MISERR)) || (__HAL_FLASH_GET_FLAG(FLASH_FLAG_FASTERR)) || 
 408              		.loc 1 340 0 discriminator 1
 409 0074 604B     		ldr	r3, .L42
 410 0076 1B69     		ldr	r3, [r3, #16]
 411 0078 03F48073 		and	r3, r3, #256
 339:E:/LiteOS/LiteOS_Lab/drivers/third_party/ST/STM32L4xx_HAL_Driver/Src\stm32l4xx_hal_flash.c ****      (__HAL_FLASH_GET_FLAG(FLASH_FLAG_SIZERR)) || (__HAL_FLASH_GET_FLAG(FLASH_FLAG_PGSERR))  ||
 412              		.loc 1 339 0 discriminator 1
 413 007c B3F5807F 		cmp	r3, #256
 414 0080 22D0     		beq	.L27
 415              		.loc 1 340 0
 416 0082 5D4B     		ldr	r3, .L42
 417 0084 1B69     		ldr	r3, [r3, #16]
 418 0086 03F40073 		and	r3, r3, #512
 419 008a B3F5007F 		cmp	r3, #512
 420 008e 1BD0     		beq	.L27
 341:E:/LiteOS/LiteOS_Lab/drivers/third_party/ST/STM32L4xx_HAL_Driver/Src\stm32l4xx_hal_flash.c ****      (__HAL_FLASH_GET_FLAG(FLASH_FLAG_RDERR))  || (__HAL_FLASH_GET_FLAG(FLASH_FLAG_OPTVERR)) ||
 421              		.loc 1 341 0 discriminator 1
 422 0090 594B     		ldr	r3, .L42
 423 0092 1B69     		ldr	r3, [r3, #16]
 424 0094 03F48043 		and	r3, r3, #16384
 340:E:/LiteOS/LiteOS_Lab/drivers/third_party/ST/STM32L4xx_HAL_Driver/Src\stm32l4xx_hal_flash.c ****      (__HAL_FLASH_GET_FLAG(FLASH_FLAG_MISERR)) || (__HAL_FLASH_GET_FLAG(FLASH_FLAG_FASTERR)) || 
 425              		.loc 1 340 0 discriminator 1
 426 0098 B3F5804F 		cmp	r3, #16384
 427 009c 14D0     		beq	.L27
 428              		.loc 1 341 0
 429 009e 564B     		ldr	r3, .L42
 430 00a0 1B69     		ldr	r3, [r3, #16]
 431 00a2 03F40043 		and	r3, r3, #32768
 432 00a6 B3F5004F 		cmp	r3, #32768
 433 00aa 0DD0     		beq	.L27
 342:E:/LiteOS/LiteOS_Lab/drivers/third_party/ST/STM32L4xx_HAL_Driver/Src\stm32l4xx_hal_flash.c **** #if defined (STM32L431xx) || defined (STM32L432xx) || defined (STM32L433xx) || defined (STM32L442xx
 343:E:/LiteOS/LiteOS_Lab/drivers/third_party/ST/STM32L4xx_HAL_Driver/Src\stm32l4xx_hal_flash.c ****     defined (STM32L451xx) || defined (STM32L452xx) || defined (STM32L462xx) || defined (STM32L496xx
 344:E:/LiteOS/LiteOS_Lab/drivers/third_party/ST/STM32L4xx_HAL_Driver/Src\stm32l4xx_hal_flash.c ****     defined (STM32L4R5xx) || defined (STM32L4R7xx) || defined (STM32L4R9xx) || defined (STM32L4S5xx
 345:E:/LiteOS/LiteOS_Lab/drivers/third_party/ST/STM32L4xx_HAL_Driver/Src\stm32l4xx_hal_flash.c ****      (__HAL_FLASH_GET_FLAG(FLASH_FLAG_ECCD))   || (__HAL_FLASH_GET_FLAG(FLASH_FLAG_PEMPTY)))
 434              		.loc 1 345 0 discriminator 1
 435 00ac 524B     		ldr	r3, .L42
 436 00ae 9B69     		ldr	r3, [r3, #24]
 437 00b0 03F00043 		and	r3, r3, #-2147483648
 341:E:/LiteOS/LiteOS_Lab/drivers/third_party/ST/STM32L4xx_HAL_Driver/Src\stm32l4xx_hal_flash.c ****      (__HAL_FLASH_GET_FLAG(FLASH_FLAG_RDERR))  || (__HAL_FLASH_GET_FLAG(FLASH_FLAG_OPTVERR)) ||
 438              		.loc 1 341 0 discriminator 1
 439 00b4 B3F1004F 		cmp	r3, #-2147483648
 440 00b8 06D0     		beq	.L27
 441              		.loc 1 345 0
 442 00ba 4F4B     		ldr	r3, .L42
 443 00bc 1B69     		ldr	r3, [r3, #16]
 444 00be 03F40033 		and	r3, r3, #131072
 445 00c2 B3F5003F 		cmp	r3, #131072
 446 00c6 2BD1     		bne	.L28
 447              	.L27:
 346:E:/LiteOS/LiteOS_Lab/drivers/third_party/ST/STM32L4xx_HAL_Driver/Src\stm32l4xx_hal_flash.c **** #else
 347:E:/LiteOS/LiteOS_Lab/drivers/third_party/ST/STM32L4xx_HAL_Driver/Src\stm32l4xx_hal_flash.c ****      (__HAL_FLASH_GET_FLAG(FLASH_FLAG_ECCD)))
 348:E:/LiteOS/LiteOS_Lab/drivers/third_party/ST/STM32L4xx_HAL_Driver/Src\stm32l4xx_hal_flash.c **** #endif
 349:E:/LiteOS/LiteOS_Lab/drivers/third_party/ST/STM32L4xx_HAL_Driver/Src\stm32l4xx_hal_flash.c ****   {
 350:E:/LiteOS/LiteOS_Lab/drivers/third_party/ST/STM32L4xx_HAL_Driver/Src\stm32l4xx_hal_flash.c ****     /*Save the error code*/
 351:E:/LiteOS/LiteOS_Lab/drivers/third_party/ST/STM32L4xx_HAL_Driver/Src\stm32l4xx_hal_flash.c ****     FLASH_SetErrorCode();
ARM GAS  C:\Users\user\AppData\Local\Temp\cc8eMbwy.s 			page 15


 448              		.loc 1 351 0
 449 00c8 FFF7FEFF 		bl	FLASH_SetErrorCode
 352:E:/LiteOS/LiteOS_Lab/drivers/third_party/ST/STM32L4xx_HAL_Driver/Src\stm32l4xx_hal_flash.c ****     
 353:E:/LiteOS/LiteOS_Lab/drivers/third_party/ST/STM32L4xx_HAL_Driver/Src\stm32l4xx_hal_flash.c ****     /* Flush the caches to be sure of the data consistency */
 354:E:/LiteOS/LiteOS_Lab/drivers/third_party/ST/STM32L4xx_HAL_Driver/Src\stm32l4xx_hal_flash.c ****     FLASH_FlushCaches() ;
 450              		.loc 1 354 0
 451 00cc FFF7FEFF 		bl	FLASH_FlushCaches
 355:E:/LiteOS/LiteOS_Lab/drivers/third_party/ST/STM32L4xx_HAL_Driver/Src\stm32l4xx_hal_flash.c **** 
 356:E:/LiteOS/LiteOS_Lab/drivers/third_party/ST/STM32L4xx_HAL_Driver/Src\stm32l4xx_hal_flash.c ****     /* FLASH error interrupt user callback */
 357:E:/LiteOS/LiteOS_Lab/drivers/third_party/ST/STM32L4xx_HAL_Driver/Src\stm32l4xx_hal_flash.c ****     if(pFlash.ProcedureOnGoing == FLASH_PROC_PAGE_ERASE)
 452              		.loc 1 357 0
 453 00d0 4A4B     		ldr	r3, .L42+4
 454 00d2 1B7A     		ldrb	r3, [r3, #8]
 455 00d4 DBB2     		uxtb	r3, r3
 456 00d6 012B     		cmp	r3, #1
 457 00d8 05D1     		bne	.L29
 358:E:/LiteOS/LiteOS_Lab/drivers/third_party/ST/STM32L4xx_HAL_Driver/Src\stm32l4xx_hal_flash.c ****     {
 359:E:/LiteOS/LiteOS_Lab/drivers/third_party/ST/STM32L4xx_HAL_Driver/Src\stm32l4xx_hal_flash.c ****        HAL_FLASH_OperationErrorCallback(pFlash.Page);
 458              		.loc 1 359 0
 459 00da 484B     		ldr	r3, .L42+4
 460 00dc 5B69     		ldr	r3, [r3, #20]
 461 00de 1846     		mov	r0, r3
 462 00e0 FFF7FEFF 		bl	HAL_FLASH_OperationErrorCallback
 463 00e4 19E0     		b	.L30
 464              	.L29:
 360:E:/LiteOS/LiteOS_Lab/drivers/third_party/ST/STM32L4xx_HAL_Driver/Src\stm32l4xx_hal_flash.c ****     }
 361:E:/LiteOS/LiteOS_Lab/drivers/third_party/ST/STM32L4xx_HAL_Driver/Src\stm32l4xx_hal_flash.c ****     else if(pFlash.ProcedureOnGoing == FLASH_PROC_MASS_ERASE)
 465              		.loc 1 361 0
 466 00e6 454B     		ldr	r3, .L42+4
 467 00e8 1B7A     		ldrb	r3, [r3, #8]
 468 00ea DBB2     		uxtb	r3, r3
 469 00ec 022B     		cmp	r3, #2
 470 00ee 05D1     		bne	.L31
 362:E:/LiteOS/LiteOS_Lab/drivers/third_party/ST/STM32L4xx_HAL_Driver/Src\stm32l4xx_hal_flash.c ****     {
 363:E:/LiteOS/LiteOS_Lab/drivers/third_party/ST/STM32L4xx_HAL_Driver/Src\stm32l4xx_hal_flash.c ****         HAL_FLASH_OperationErrorCallback(pFlash.Bank);
 471              		.loc 1 363 0
 472 00f0 424B     		ldr	r3, .L42+4
 473 00f2 1B69     		ldr	r3, [r3, #16]
 474 00f4 1846     		mov	r0, r3
 475 00f6 FFF7FEFF 		bl	HAL_FLASH_OperationErrorCallback
 476 00fa 0EE0     		b	.L30
 477              	.L31:
 364:E:/LiteOS/LiteOS_Lab/drivers/third_party/ST/STM32L4xx_HAL_Driver/Src\stm32l4xx_hal_flash.c ****     }
 365:E:/LiteOS/LiteOS_Lab/drivers/third_party/ST/STM32L4xx_HAL_Driver/Src\stm32l4xx_hal_flash.c ****     else if((pFlash.ProcedureOnGoing == FLASH_PROC_PROGRAM) || 
 478              		.loc 1 365 0
 479 00fc 3F4B     		ldr	r3, .L42+4
 480 00fe 1B7A     		ldrb	r3, [r3, #8]
 481 0100 DBB2     		uxtb	r3, r3
 482 0102 032B     		cmp	r3, #3
 483 0104 04D0     		beq	.L32
 366:E:/LiteOS/LiteOS_Lab/drivers/third_party/ST/STM32L4xx_HAL_Driver/Src\stm32l4xx_hal_flash.c ****             (pFlash.ProcedureOnGoing == FLASH_PROC_PROGRAM_LAST))
 484              		.loc 1 366 0 discriminator 1
 485 0106 3D4B     		ldr	r3, .L42+4
 486 0108 1B7A     		ldrb	r3, [r3, #8]
 487 010a DBB2     		uxtb	r3, r3
 365:E:/LiteOS/LiteOS_Lab/drivers/third_party/ST/STM32L4xx_HAL_Driver/Src\stm32l4xx_hal_flash.c ****             (pFlash.ProcedureOnGoing == FLASH_PROC_PROGRAM_LAST))
 488              		.loc 1 365 0 discriminator 1
ARM GAS  C:\Users\user\AppData\Local\Temp\cc8eMbwy.s 			page 16


 489 010c 042B     		cmp	r3, #4
 490 010e 04D1     		bne	.L30
 491              	.L32:
 367:E:/LiteOS/LiteOS_Lab/drivers/third_party/ST/STM32L4xx_HAL_Driver/Src\stm32l4xx_hal_flash.c ****     {
 368:E:/LiteOS/LiteOS_Lab/drivers/third_party/ST/STM32L4xx_HAL_Driver/Src\stm32l4xx_hal_flash.c ****        HAL_FLASH_OperationErrorCallback(pFlash.Address);
 492              		.loc 1 368 0
 493 0110 3A4B     		ldr	r3, .L42+4
 494 0112 DB68     		ldr	r3, [r3, #12]
 495 0114 1846     		mov	r0, r3
 496 0116 FFF7FEFF 		bl	HAL_FLASH_OperationErrorCallback
 497              	.L30:
 369:E:/LiteOS/LiteOS_Lab/drivers/third_party/ST/STM32L4xx_HAL_Driver/Src\stm32l4xx_hal_flash.c ****     }
 370:E:/LiteOS/LiteOS_Lab/drivers/third_party/ST/STM32L4xx_HAL_Driver/Src\stm32l4xx_hal_flash.c **** 
 371:E:/LiteOS/LiteOS_Lab/drivers/third_party/ST/STM32L4xx_HAL_Driver/Src\stm32l4xx_hal_flash.c ****     /*Stop the procedure ongoing*/
 372:E:/LiteOS/LiteOS_Lab/drivers/third_party/ST/STM32L4xx_HAL_Driver/Src\stm32l4xx_hal_flash.c ****     pFlash.ProcedureOnGoing = FLASH_PROC_NONE;
 498              		.loc 1 372 0
 499 011a 384B     		ldr	r3, .L42+4
 500 011c 0022     		movs	r2, #0
 501 011e 1A72     		strb	r2, [r3, #8]
 502              	.L28:
 373:E:/LiteOS/LiteOS_Lab/drivers/third_party/ST/STM32L4xx_HAL_Driver/Src\stm32l4xx_hal_flash.c ****   }
 374:E:/LiteOS/LiteOS_Lab/drivers/third_party/ST/STM32L4xx_HAL_Driver/Src\stm32l4xx_hal_flash.c **** 
 375:E:/LiteOS/LiteOS_Lab/drivers/third_party/ST/STM32L4xx_HAL_Driver/Src\stm32l4xx_hal_flash.c ****   /* Check FLASH End of Operation flag  */
 376:E:/LiteOS/LiteOS_Lab/drivers/third_party/ST/STM32L4xx_HAL_Driver/Src\stm32l4xx_hal_flash.c ****   if(__HAL_FLASH_GET_FLAG(FLASH_FLAG_EOP))
 503              		.loc 1 376 0
 504 0120 354B     		ldr	r3, .L42
 505 0122 1B69     		ldr	r3, [r3, #16]
 506 0124 03F00103 		and	r3, r3, #1
 507 0128 012B     		cmp	r3, #1
 508 012a 52D1     		bne	.L33
 377:E:/LiteOS/LiteOS_Lab/drivers/third_party/ST/STM32L4xx_HAL_Driver/Src\stm32l4xx_hal_flash.c ****   {
 378:E:/LiteOS/LiteOS_Lab/drivers/third_party/ST/STM32L4xx_HAL_Driver/Src\stm32l4xx_hal_flash.c ****     /* Clear FLASH End of Operation pending bit */
 379:E:/LiteOS/LiteOS_Lab/drivers/third_party/ST/STM32L4xx_HAL_Driver/Src\stm32l4xx_hal_flash.c ****     __HAL_FLASH_CLEAR_FLAG(FLASH_FLAG_EOP);
 509              		.loc 1 379 0 discriminator 4
 510 012c 324B     		ldr	r3, .L42
 511 012e 0122     		movs	r2, #1
 512 0130 1A61     		str	r2, [r3, #16]
 380:E:/LiteOS/LiteOS_Lab/drivers/third_party/ST/STM32L4xx_HAL_Driver/Src\stm32l4xx_hal_flash.c **** 
 381:E:/LiteOS/LiteOS_Lab/drivers/third_party/ST/STM32L4xx_HAL_Driver/Src\stm32l4xx_hal_flash.c ****     if(pFlash.ProcedureOnGoing == FLASH_PROC_PAGE_ERASE)
 513              		.loc 1 381 0 discriminator 4
 514 0132 324B     		ldr	r3, .L42+4
 515 0134 1B7A     		ldrb	r3, [r3, #8]
 516 0136 DBB2     		uxtb	r3, r3
 517 0138 012B     		cmp	r3, #1
 518 013a 2BD1     		bne	.L34
 382:E:/LiteOS/LiteOS_Lab/drivers/third_party/ST/STM32L4xx_HAL_Driver/Src\stm32l4xx_hal_flash.c ****     {
 383:E:/LiteOS/LiteOS_Lab/drivers/third_party/ST/STM32L4xx_HAL_Driver/Src\stm32l4xx_hal_flash.c ****       /* Nb of pages to erased can be decreased */
 384:E:/LiteOS/LiteOS_Lab/drivers/third_party/ST/STM32L4xx_HAL_Driver/Src\stm32l4xx_hal_flash.c ****       pFlash.NbPagesToErase--;
 519              		.loc 1 384 0
 520 013c 2F4B     		ldr	r3, .L42+4
 521 013e 9B69     		ldr	r3, [r3, #24]
 522 0140 013B     		subs	r3, r3, #1
 523 0142 2E4A     		ldr	r2, .L42+4
 524 0144 9361     		str	r3, [r2, #24]
 385:E:/LiteOS/LiteOS_Lab/drivers/third_party/ST/STM32L4xx_HAL_Driver/Src\stm32l4xx_hal_flash.c **** 
 386:E:/LiteOS/LiteOS_Lab/drivers/third_party/ST/STM32L4xx_HAL_Driver/Src\stm32l4xx_hal_flash.c ****       /* Check if there are still pages to erase*/
 387:E:/LiteOS/LiteOS_Lab/drivers/third_party/ST/STM32L4xx_HAL_Driver/Src\stm32l4xx_hal_flash.c ****       if(pFlash.NbPagesToErase != 0)
ARM GAS  C:\Users\user\AppData\Local\Temp\cc8eMbwy.s 			page 17


 525              		.loc 1 387 0
 526 0146 2D4B     		ldr	r3, .L42+4
 527 0148 9B69     		ldr	r3, [r3, #24]
 528 014a 002B     		cmp	r3, #0
 529 014c 13D0     		beq	.L35
 388:E:/LiteOS/LiteOS_Lab/drivers/third_party/ST/STM32L4xx_HAL_Driver/Src\stm32l4xx_hal_flash.c ****       {
 389:E:/LiteOS/LiteOS_Lab/drivers/third_party/ST/STM32L4xx_HAL_Driver/Src\stm32l4xx_hal_flash.c ****         /* Indicate user which page has been erased*/
 390:E:/LiteOS/LiteOS_Lab/drivers/third_party/ST/STM32L4xx_HAL_Driver/Src\stm32l4xx_hal_flash.c ****         HAL_FLASH_EndOfOperationCallback(pFlash.Page);
 530              		.loc 1 390 0
 531 014e 2B4B     		ldr	r3, .L42+4
 532 0150 5B69     		ldr	r3, [r3, #20]
 533 0152 1846     		mov	r0, r3
 534 0154 FFF7FEFF 		bl	HAL_FLASH_EndOfOperationCallback
 391:E:/LiteOS/LiteOS_Lab/drivers/third_party/ST/STM32L4xx_HAL_Driver/Src\stm32l4xx_hal_flash.c **** 
 392:E:/LiteOS/LiteOS_Lab/drivers/third_party/ST/STM32L4xx_HAL_Driver/Src\stm32l4xx_hal_flash.c ****         /* Increment page number */
 393:E:/LiteOS/LiteOS_Lab/drivers/third_party/ST/STM32L4xx_HAL_Driver/Src\stm32l4xx_hal_flash.c ****         pFlash.Page++;
 535              		.loc 1 393 0
 536 0158 284B     		ldr	r3, .L42+4
 537 015a 5B69     		ldr	r3, [r3, #20]
 538 015c 0133     		adds	r3, r3, #1
 539 015e 274A     		ldr	r2, .L42+4
 540 0160 5361     		str	r3, [r2, #20]
 394:E:/LiteOS/LiteOS_Lab/drivers/third_party/ST/STM32L4xx_HAL_Driver/Src\stm32l4xx_hal_flash.c ****         tmp_page = pFlash.Page;
 541              		.loc 1 394 0
 542 0162 264B     		ldr	r3, .L42+4
 543 0164 5B69     		ldr	r3, [r3, #20]
 544 0166 7B60     		str	r3, [r7, #4]
 395:E:/LiteOS/LiteOS_Lab/drivers/third_party/ST/STM32L4xx_HAL_Driver/Src\stm32l4xx_hal_flash.c ****         FLASH_PageErase(tmp_page, pFlash.Bank);
 545              		.loc 1 395 0
 546 0168 244B     		ldr	r3, .L42+4
 547 016a 1B69     		ldr	r3, [r3, #16]
 548 016c 1946     		mov	r1, r3
 549 016e 7868     		ldr	r0, [r7, #4]
 550 0170 FFF7FEFF 		bl	FLASH_PageErase
 551 0174 2DE0     		b	.L33
 552              	.L35:
 396:E:/LiteOS/LiteOS_Lab/drivers/third_party/ST/STM32L4xx_HAL_Driver/Src\stm32l4xx_hal_flash.c ****       }
 397:E:/LiteOS/LiteOS_Lab/drivers/third_party/ST/STM32L4xx_HAL_Driver/Src\stm32l4xx_hal_flash.c ****       else
 398:E:/LiteOS/LiteOS_Lab/drivers/third_party/ST/STM32L4xx_HAL_Driver/Src\stm32l4xx_hal_flash.c ****       {
 399:E:/LiteOS/LiteOS_Lab/drivers/third_party/ST/STM32L4xx_HAL_Driver/Src\stm32l4xx_hal_flash.c ****         /* No more pages to Erase */
 400:E:/LiteOS/LiteOS_Lab/drivers/third_party/ST/STM32L4xx_HAL_Driver/Src\stm32l4xx_hal_flash.c ****         /* Reset Address and stop Erase pages procedure */
 401:E:/LiteOS/LiteOS_Lab/drivers/third_party/ST/STM32L4xx_HAL_Driver/Src\stm32l4xx_hal_flash.c ****         pFlash.Page = 0xFFFFFFFF;
 553              		.loc 1 401 0
 554 0176 214B     		ldr	r3, .L42+4
 555 0178 4FF0FF32 		mov	r2, #-1
 556 017c 5A61     		str	r2, [r3, #20]
 402:E:/LiteOS/LiteOS_Lab/drivers/third_party/ST/STM32L4xx_HAL_Driver/Src\stm32l4xx_hal_flash.c ****         pFlash.ProcedureOnGoing = FLASH_PROC_NONE;
 557              		.loc 1 402 0
 558 017e 1F4B     		ldr	r3, .L42+4
 559 0180 0022     		movs	r2, #0
 560 0182 1A72     		strb	r2, [r3, #8]
 403:E:/LiteOS/LiteOS_Lab/drivers/third_party/ST/STM32L4xx_HAL_Driver/Src\stm32l4xx_hal_flash.c **** 
 404:E:/LiteOS/LiteOS_Lab/drivers/third_party/ST/STM32L4xx_HAL_Driver/Src\stm32l4xx_hal_flash.c ****         /* Flush the caches to be sure of the data consistency */
 405:E:/LiteOS/LiteOS_Lab/drivers/third_party/ST/STM32L4xx_HAL_Driver/Src\stm32l4xx_hal_flash.c ****         FLASH_FlushCaches() ;
 561              		.loc 1 405 0
 562 0184 FFF7FEFF 		bl	FLASH_FlushCaches
 406:E:/LiteOS/LiteOS_Lab/drivers/third_party/ST/STM32L4xx_HAL_Driver/Src\stm32l4xx_hal_flash.c ****         
ARM GAS  C:\Users\user\AppData\Local\Temp\cc8eMbwy.s 			page 18


 407:E:/LiteOS/LiteOS_Lab/drivers/third_party/ST/STM32L4xx_HAL_Driver/Src\stm32l4xx_hal_flash.c ****         /* FLASH EOP interrupt user callback */
 408:E:/LiteOS/LiteOS_Lab/drivers/third_party/ST/STM32L4xx_HAL_Driver/Src\stm32l4xx_hal_flash.c ****         HAL_FLASH_EndOfOperationCallback(pFlash.Page);
 563              		.loc 1 408 0
 564 0188 1C4B     		ldr	r3, .L42+4
 565 018a 5B69     		ldr	r3, [r3, #20]
 566 018c 1846     		mov	r0, r3
 567 018e FFF7FEFF 		bl	HAL_FLASH_EndOfOperationCallback
 568 0192 1EE0     		b	.L33
 569              	.L34:
 409:E:/LiteOS/LiteOS_Lab/drivers/third_party/ST/STM32L4xx_HAL_Driver/Src\stm32l4xx_hal_flash.c ****       }
 410:E:/LiteOS/LiteOS_Lab/drivers/third_party/ST/STM32L4xx_HAL_Driver/Src\stm32l4xx_hal_flash.c ****     }
 411:E:/LiteOS/LiteOS_Lab/drivers/third_party/ST/STM32L4xx_HAL_Driver/Src\stm32l4xx_hal_flash.c ****     else
 412:E:/LiteOS/LiteOS_Lab/drivers/third_party/ST/STM32L4xx_HAL_Driver/Src\stm32l4xx_hal_flash.c ****     {
 413:E:/LiteOS/LiteOS_Lab/drivers/third_party/ST/STM32L4xx_HAL_Driver/Src\stm32l4xx_hal_flash.c ****       /* Flush the caches to be sure of the data consistency */
 414:E:/LiteOS/LiteOS_Lab/drivers/third_party/ST/STM32L4xx_HAL_Driver/Src\stm32l4xx_hal_flash.c ****       FLASH_FlushCaches() ;
 570              		.loc 1 414 0
 571 0194 FFF7FEFF 		bl	FLASH_FlushCaches
 415:E:/LiteOS/LiteOS_Lab/drivers/third_party/ST/STM32L4xx_HAL_Driver/Src\stm32l4xx_hal_flash.c **** 
 416:E:/LiteOS/LiteOS_Lab/drivers/third_party/ST/STM32L4xx_HAL_Driver/Src\stm32l4xx_hal_flash.c ****       if(pFlash.ProcedureOnGoing == FLASH_PROC_MASS_ERASE)
 572              		.loc 1 416 0
 573 0198 184B     		ldr	r3, .L42+4
 574 019a 1B7A     		ldrb	r3, [r3, #8]
 575 019c DBB2     		uxtb	r3, r3
 576 019e 022B     		cmp	r3, #2
 577 01a0 05D1     		bne	.L37
 417:E:/LiteOS/LiteOS_Lab/drivers/third_party/ST/STM32L4xx_HAL_Driver/Src\stm32l4xx_hal_flash.c ****       {
 418:E:/LiteOS/LiteOS_Lab/drivers/third_party/ST/STM32L4xx_HAL_Driver/Src\stm32l4xx_hal_flash.c ****         /* MassErase ended. Return the selected bank */
 419:E:/LiteOS/LiteOS_Lab/drivers/third_party/ST/STM32L4xx_HAL_Driver/Src\stm32l4xx_hal_flash.c ****         /* FLASH EOP interrupt user callback */
 420:E:/LiteOS/LiteOS_Lab/drivers/third_party/ST/STM32L4xx_HAL_Driver/Src\stm32l4xx_hal_flash.c ****         HAL_FLASH_EndOfOperationCallback(pFlash.Bank);
 578              		.loc 1 420 0
 579 01a2 164B     		ldr	r3, .L42+4
 580 01a4 1B69     		ldr	r3, [r3, #16]
 581 01a6 1846     		mov	r0, r3
 582 01a8 FFF7FEFF 		bl	HAL_FLASH_EndOfOperationCallback
 583 01ac 0EE0     		b	.L38
 584              	.L37:
 421:E:/LiteOS/LiteOS_Lab/drivers/third_party/ST/STM32L4xx_HAL_Driver/Src\stm32l4xx_hal_flash.c ****       }
 422:E:/LiteOS/LiteOS_Lab/drivers/third_party/ST/STM32L4xx_HAL_Driver/Src\stm32l4xx_hal_flash.c ****       else if((pFlash.ProcedureOnGoing == FLASH_PROC_PROGRAM) || 
 585              		.loc 1 422 0
 586 01ae 134B     		ldr	r3, .L42+4
 587 01b0 1B7A     		ldrb	r3, [r3, #8]
 588 01b2 DBB2     		uxtb	r3, r3
 589 01b4 032B     		cmp	r3, #3
 590 01b6 04D0     		beq	.L39
 423:E:/LiteOS/LiteOS_Lab/drivers/third_party/ST/STM32L4xx_HAL_Driver/Src\stm32l4xx_hal_flash.c ****               (pFlash.ProcedureOnGoing == FLASH_PROC_PROGRAM_LAST))
 591              		.loc 1 423 0 discriminator 1
 592 01b8 104B     		ldr	r3, .L42+4
 593 01ba 1B7A     		ldrb	r3, [r3, #8]
 594 01bc DBB2     		uxtb	r3, r3
 422:E:/LiteOS/LiteOS_Lab/drivers/third_party/ST/STM32L4xx_HAL_Driver/Src\stm32l4xx_hal_flash.c ****               (pFlash.ProcedureOnGoing == FLASH_PROC_PROGRAM_LAST))
 595              		.loc 1 422 0 discriminator 1
 596 01be 042B     		cmp	r3, #4
 597 01c0 04D1     		bne	.L38
 598              	.L39:
 424:E:/LiteOS/LiteOS_Lab/drivers/third_party/ST/STM32L4xx_HAL_Driver/Src\stm32l4xx_hal_flash.c ****       {
 425:E:/LiteOS/LiteOS_Lab/drivers/third_party/ST/STM32L4xx_HAL_Driver/Src\stm32l4xx_hal_flash.c ****         /* Program ended. Return the selected address */
 426:E:/LiteOS/LiteOS_Lab/drivers/third_party/ST/STM32L4xx_HAL_Driver/Src\stm32l4xx_hal_flash.c ****         /* FLASH EOP interrupt user callback */
ARM GAS  C:\Users\user\AppData\Local\Temp\cc8eMbwy.s 			page 19


 427:E:/LiteOS/LiteOS_Lab/drivers/third_party/ST/STM32L4xx_HAL_Driver/Src\stm32l4xx_hal_flash.c ****         HAL_FLASH_EndOfOperationCallback(pFlash.Address);
 599              		.loc 1 427 0
 600 01c2 0E4B     		ldr	r3, .L42+4
 601 01c4 DB68     		ldr	r3, [r3, #12]
 602 01c6 1846     		mov	r0, r3
 603 01c8 FFF7FEFF 		bl	HAL_FLASH_EndOfOperationCallback
 604              	.L38:
 428:E:/LiteOS/LiteOS_Lab/drivers/third_party/ST/STM32L4xx_HAL_Driver/Src\stm32l4xx_hal_flash.c ****       }
 429:E:/LiteOS/LiteOS_Lab/drivers/third_party/ST/STM32L4xx_HAL_Driver/Src\stm32l4xx_hal_flash.c **** 
 430:E:/LiteOS/LiteOS_Lab/drivers/third_party/ST/STM32L4xx_HAL_Driver/Src\stm32l4xx_hal_flash.c ****       /*Clear the procedure ongoing*/
 431:E:/LiteOS/LiteOS_Lab/drivers/third_party/ST/STM32L4xx_HAL_Driver/Src\stm32l4xx_hal_flash.c ****       pFlash.ProcedureOnGoing = FLASH_PROC_NONE;
 605              		.loc 1 431 0
 606 01cc 0B4B     		ldr	r3, .L42+4
 607 01ce 0022     		movs	r2, #0
 608 01d0 1A72     		strb	r2, [r3, #8]
 609              	.L33:
 432:E:/LiteOS/LiteOS_Lab/drivers/third_party/ST/STM32L4xx_HAL_Driver/Src\stm32l4xx_hal_flash.c ****     }
 433:E:/LiteOS/LiteOS_Lab/drivers/third_party/ST/STM32L4xx_HAL_Driver/Src\stm32l4xx_hal_flash.c ****   }
 434:E:/LiteOS/LiteOS_Lab/drivers/third_party/ST/STM32L4xx_HAL_Driver/Src\stm32l4xx_hal_flash.c **** 
 435:E:/LiteOS/LiteOS_Lab/drivers/third_party/ST/STM32L4xx_HAL_Driver/Src\stm32l4xx_hal_flash.c ****   if(pFlash.ProcedureOnGoing == FLASH_PROC_NONE)
 610              		.loc 1 435 0
 611 01d2 0A4B     		ldr	r3, .L42+4
 612 01d4 1B7A     		ldrb	r3, [r3, #8]
 613 01d6 DBB2     		uxtb	r3, r3
 614 01d8 002B     		cmp	r3, #0
 615 01da 08D1     		bne	.L41
 436:E:/LiteOS/LiteOS_Lab/drivers/third_party/ST/STM32L4xx_HAL_Driver/Src\stm32l4xx_hal_flash.c ****   {
 437:E:/LiteOS/LiteOS_Lab/drivers/third_party/ST/STM32L4xx_HAL_Driver/Src\stm32l4xx_hal_flash.c ****     /* Disable End of Operation and Error interrupts */
 438:E:/LiteOS/LiteOS_Lab/drivers/third_party/ST/STM32L4xx_HAL_Driver/Src\stm32l4xx_hal_flash.c ****     __HAL_FLASH_DISABLE_IT(FLASH_IT_EOP | FLASH_IT_OPERR);
 616              		.loc 1 438 0 discriminator 4
 617 01dc 064B     		ldr	r3, .L42
 618 01de 5B69     		ldr	r3, [r3, #20]
 619 01e0 054A     		ldr	r2, .L42
 620 01e2 23F04073 		bic	r3, r3, #50331648
 621 01e6 5361     		str	r3, [r2, #20]
 439:E:/LiteOS/LiteOS_Lab/drivers/third_party/ST/STM32L4xx_HAL_Driver/Src\stm32l4xx_hal_flash.c **** 
 440:E:/LiteOS/LiteOS_Lab/drivers/third_party/ST/STM32L4xx_HAL_Driver/Src\stm32l4xx_hal_flash.c ****     /* Process Unlocked */
 441:E:/LiteOS/LiteOS_Lab/drivers/third_party/ST/STM32L4xx_HAL_Driver/Src\stm32l4xx_hal_flash.c ****     __HAL_UNLOCK(&pFlash);
 622              		.loc 1 441 0 discriminator 4
 623 01e8 044B     		ldr	r3, .L42+4
 624 01ea 0022     		movs	r2, #0
 625 01ec 1A70     		strb	r2, [r3]
 626              	.L41:
 442:E:/LiteOS/LiteOS_Lab/drivers/third_party/ST/STM32L4xx_HAL_Driver/Src\stm32l4xx_hal_flash.c ****   }
 443:E:/LiteOS/LiteOS_Lab/drivers/third_party/ST/STM32L4xx_HAL_Driver/Src\stm32l4xx_hal_flash.c **** }
 627              		.loc 1 443 0
 628 01ee 00BF     		nop
 629 01f0 0837     		adds	r7, r7, #8
 630              	.LCFI13:
 631              		.cfi_def_cfa_offset 8
 632 01f2 BD46     		mov	sp, r7
 633              	.LCFI14:
 634              		.cfi_def_cfa_register 13
 635              		@ sp needed
 636 01f4 80BD     		pop	{r7, pc}
 637              	.L43:
 638 01f6 00BF     		.align	2
ARM GAS  C:\Users\user\AppData\Local\Temp\cc8eMbwy.s 			page 20


 639              	.L42:
 640 01f8 00200240 		.word	1073881088
 641 01fc 00000000 		.word	pFlash
 642              		.cfi_endproc
 643              	.LFE135:
 645              		.section	.text.HAL_FLASH_EndOfOperationCallback,"ax",%progbits
 646              		.align	1
 647              		.weak	HAL_FLASH_EndOfOperationCallback
 648              		.syntax unified
 649              		.thumb
 650              		.thumb_func
 651              		.fpu fpv4-sp-d16
 653              	HAL_FLASH_EndOfOperationCallback:
 654              	.LFB136:
 444:E:/LiteOS/LiteOS_Lab/drivers/third_party/ST/STM32L4xx_HAL_Driver/Src\stm32l4xx_hal_flash.c **** 
 445:E:/LiteOS/LiteOS_Lab/drivers/third_party/ST/STM32L4xx_HAL_Driver/Src\stm32l4xx_hal_flash.c **** /**
 446:E:/LiteOS/LiteOS_Lab/drivers/third_party/ST/STM32L4xx_HAL_Driver/Src\stm32l4xx_hal_flash.c ****   * @brief  FLASH end of operation interrupt callback.
 447:E:/LiteOS/LiteOS_Lab/drivers/third_party/ST/STM32L4xx_HAL_Driver/Src\stm32l4xx_hal_flash.c ****   * @param  ReturnValue: The value saved in this parameter depends on the ongoing procedure
 448:E:/LiteOS/LiteOS_Lab/drivers/third_party/ST/STM32L4xx_HAL_Driver/Src\stm32l4xx_hal_flash.c ****   *                  Mass Erase: Bank number which has been requested to erase
 449:E:/LiteOS/LiteOS_Lab/drivers/third_party/ST/STM32L4xx_HAL_Driver/Src\stm32l4xx_hal_flash.c ****   *                  Page Erase: Page which has been erased 
 450:E:/LiteOS/LiteOS_Lab/drivers/third_party/ST/STM32L4xx_HAL_Driver/Src\stm32l4xx_hal_flash.c ****   *                    (if 0xFFFFFFFF, it means that all the selected pages have been erased)
 451:E:/LiteOS/LiteOS_Lab/drivers/third_party/ST/STM32L4xx_HAL_Driver/Src\stm32l4xx_hal_flash.c ****   *                  Program: Address which was selected for data program
 452:E:/LiteOS/LiteOS_Lab/drivers/third_party/ST/STM32L4xx_HAL_Driver/Src\stm32l4xx_hal_flash.c ****   * @retval None
 453:E:/LiteOS/LiteOS_Lab/drivers/third_party/ST/STM32L4xx_HAL_Driver/Src\stm32l4xx_hal_flash.c ****   */
 454:E:/LiteOS/LiteOS_Lab/drivers/third_party/ST/STM32L4xx_HAL_Driver/Src\stm32l4xx_hal_flash.c **** __weak void HAL_FLASH_EndOfOperationCallback(uint32_t ReturnValue)
 455:E:/LiteOS/LiteOS_Lab/drivers/third_party/ST/STM32L4xx_HAL_Driver/Src\stm32l4xx_hal_flash.c **** {
 655              		.loc 1 455 0
 656              		.cfi_startproc
 657              		@ args = 0, pretend = 0, frame = 8
 658              		@ frame_needed = 1, uses_anonymous_args = 0
 659              		@ link register save eliminated.
 660 0000 80B4     		push	{r7}
 661              	.LCFI15:
 662              		.cfi_def_cfa_offset 4
 663              		.cfi_offset 7, -4
 664 0002 83B0     		sub	sp, sp, #12
 665              	.LCFI16:
 666              		.cfi_def_cfa_offset 16
 667 0004 00AF     		add	r7, sp, #0
 668              	.LCFI17:
 669              		.cfi_def_cfa_register 7
 670 0006 7860     		str	r0, [r7, #4]
 456:E:/LiteOS/LiteOS_Lab/drivers/third_party/ST/STM32L4xx_HAL_Driver/Src\stm32l4xx_hal_flash.c ****   /* Prevent unused argument(s) compilation warning */
 457:E:/LiteOS/LiteOS_Lab/drivers/third_party/ST/STM32L4xx_HAL_Driver/Src\stm32l4xx_hal_flash.c ****   UNUSED(ReturnValue);
 458:E:/LiteOS/LiteOS_Lab/drivers/third_party/ST/STM32L4xx_HAL_Driver/Src\stm32l4xx_hal_flash.c **** 
 459:E:/LiteOS/LiteOS_Lab/drivers/third_party/ST/STM32L4xx_HAL_Driver/Src\stm32l4xx_hal_flash.c ****   /* NOTE : This function should not be modified, when the callback is needed,
 460:E:/LiteOS/LiteOS_Lab/drivers/third_party/ST/STM32L4xx_HAL_Driver/Src\stm32l4xx_hal_flash.c ****             the HAL_FLASH_EndOfOperationCallback could be implemented in the user file
 461:E:/LiteOS/LiteOS_Lab/drivers/third_party/ST/STM32L4xx_HAL_Driver/Src\stm32l4xx_hal_flash.c ****    */ 
 462:E:/LiteOS/LiteOS_Lab/drivers/third_party/ST/STM32L4xx_HAL_Driver/Src\stm32l4xx_hal_flash.c **** }
 671              		.loc 1 462 0
 672 0008 00BF     		nop
 673 000a 0C37     		adds	r7, r7, #12
 674              	.LCFI18:
 675              		.cfi_def_cfa_offset 4
 676 000c BD46     		mov	sp, r7
 677              	.LCFI19:
 678              		.cfi_def_cfa_register 13
ARM GAS  C:\Users\user\AppData\Local\Temp\cc8eMbwy.s 			page 21


 679              		@ sp needed
 680 000e 5DF8047B 		ldr	r7, [sp], #4
 681              	.LCFI20:
 682              		.cfi_restore 7
 683              		.cfi_def_cfa_offset 0
 684 0012 7047     		bx	lr
 685              		.cfi_endproc
 686              	.LFE136:
 688              		.section	.text.HAL_FLASH_OperationErrorCallback,"ax",%progbits
 689              		.align	1
 690              		.weak	HAL_FLASH_OperationErrorCallback
 691              		.syntax unified
 692              		.thumb
 693              		.thumb_func
 694              		.fpu fpv4-sp-d16
 696              	HAL_FLASH_OperationErrorCallback:
 697              	.LFB137:
 463:E:/LiteOS/LiteOS_Lab/drivers/third_party/ST/STM32L4xx_HAL_Driver/Src\stm32l4xx_hal_flash.c **** 
 464:E:/LiteOS/LiteOS_Lab/drivers/third_party/ST/STM32L4xx_HAL_Driver/Src\stm32l4xx_hal_flash.c **** /**
 465:E:/LiteOS/LiteOS_Lab/drivers/third_party/ST/STM32L4xx_HAL_Driver/Src\stm32l4xx_hal_flash.c ****   * @brief  FLASH operation error interrupt callback.
 466:E:/LiteOS/LiteOS_Lab/drivers/third_party/ST/STM32L4xx_HAL_Driver/Src\stm32l4xx_hal_flash.c ****   * @param  ReturnValue: The value saved in this parameter depends on the ongoing procedure
 467:E:/LiteOS/LiteOS_Lab/drivers/third_party/ST/STM32L4xx_HAL_Driver/Src\stm32l4xx_hal_flash.c ****   *                 Mass Erase: Bank number which has been requested to erase
 468:E:/LiteOS/LiteOS_Lab/drivers/third_party/ST/STM32L4xx_HAL_Driver/Src\stm32l4xx_hal_flash.c ****   *                 Page Erase: Page number which returned an error
 469:E:/LiteOS/LiteOS_Lab/drivers/third_party/ST/STM32L4xx_HAL_Driver/Src\stm32l4xx_hal_flash.c ****   *                 Program: Address which was selected for data program
 470:E:/LiteOS/LiteOS_Lab/drivers/third_party/ST/STM32L4xx_HAL_Driver/Src\stm32l4xx_hal_flash.c ****   * @retval None
 471:E:/LiteOS/LiteOS_Lab/drivers/third_party/ST/STM32L4xx_HAL_Driver/Src\stm32l4xx_hal_flash.c ****   */
 472:E:/LiteOS/LiteOS_Lab/drivers/third_party/ST/STM32L4xx_HAL_Driver/Src\stm32l4xx_hal_flash.c **** __weak void HAL_FLASH_OperationErrorCallback(uint32_t ReturnValue)
 473:E:/LiteOS/LiteOS_Lab/drivers/third_party/ST/STM32L4xx_HAL_Driver/Src\stm32l4xx_hal_flash.c **** {
 698              		.loc 1 473 0
 699              		.cfi_startproc
 700              		@ args = 0, pretend = 0, frame = 8
 701              		@ frame_needed = 1, uses_anonymous_args = 0
 702              		@ link register save eliminated.
 703 0000 80B4     		push	{r7}
 704              	.LCFI21:
 705              		.cfi_def_cfa_offset 4
 706              		.cfi_offset 7, -4
 707 0002 83B0     		sub	sp, sp, #12
 708              	.LCFI22:
 709              		.cfi_def_cfa_offset 16
 710 0004 00AF     		add	r7, sp, #0
 711              	.LCFI23:
 712              		.cfi_def_cfa_register 7
 713 0006 7860     		str	r0, [r7, #4]
 474:E:/LiteOS/LiteOS_Lab/drivers/third_party/ST/STM32L4xx_HAL_Driver/Src\stm32l4xx_hal_flash.c ****   /* Prevent unused argument(s) compilation warning */
 475:E:/LiteOS/LiteOS_Lab/drivers/third_party/ST/STM32L4xx_HAL_Driver/Src\stm32l4xx_hal_flash.c ****   UNUSED(ReturnValue);
 476:E:/LiteOS/LiteOS_Lab/drivers/third_party/ST/STM32L4xx_HAL_Driver/Src\stm32l4xx_hal_flash.c **** 
 477:E:/LiteOS/LiteOS_Lab/drivers/third_party/ST/STM32L4xx_HAL_Driver/Src\stm32l4xx_hal_flash.c ****   /* NOTE : This function should not be modified, when the callback is needed,
 478:E:/LiteOS/LiteOS_Lab/drivers/third_party/ST/STM32L4xx_HAL_Driver/Src\stm32l4xx_hal_flash.c ****             the HAL_FLASH_OperationErrorCallback could be implemented in the user file
 479:E:/LiteOS/LiteOS_Lab/drivers/third_party/ST/STM32L4xx_HAL_Driver/Src\stm32l4xx_hal_flash.c ****    */ 
 480:E:/LiteOS/LiteOS_Lab/drivers/third_party/ST/STM32L4xx_HAL_Driver/Src\stm32l4xx_hal_flash.c **** }
 714              		.loc 1 480 0
 715 0008 00BF     		nop
 716 000a 0C37     		adds	r7, r7, #12
 717              	.LCFI24:
 718              		.cfi_def_cfa_offset 4
 719 000c BD46     		mov	sp, r7
ARM GAS  C:\Users\user\AppData\Local\Temp\cc8eMbwy.s 			page 22


 720              	.LCFI25:
 721              		.cfi_def_cfa_register 13
 722              		@ sp needed
 723 000e 5DF8047B 		ldr	r7, [sp], #4
 724              	.LCFI26:
 725              		.cfi_restore 7
 726              		.cfi_def_cfa_offset 0
 727 0012 7047     		bx	lr
 728              		.cfi_endproc
 729              	.LFE137:
 731              		.section	.text.HAL_FLASH_Unlock,"ax",%progbits
 732              		.align	1
 733              		.global	HAL_FLASH_Unlock
 734              		.syntax unified
 735              		.thumb
 736              		.thumb_func
 737              		.fpu fpv4-sp-d16
 739              	HAL_FLASH_Unlock:
 740              	.LFB138:
 481:E:/LiteOS/LiteOS_Lab/drivers/third_party/ST/STM32L4xx_HAL_Driver/Src\stm32l4xx_hal_flash.c **** 
 482:E:/LiteOS/LiteOS_Lab/drivers/third_party/ST/STM32L4xx_HAL_Driver/Src\stm32l4xx_hal_flash.c **** /**
 483:E:/LiteOS/LiteOS_Lab/drivers/third_party/ST/STM32L4xx_HAL_Driver/Src\stm32l4xx_hal_flash.c ****   * @}
 484:E:/LiteOS/LiteOS_Lab/drivers/third_party/ST/STM32L4xx_HAL_Driver/Src\stm32l4xx_hal_flash.c ****   */ 
 485:E:/LiteOS/LiteOS_Lab/drivers/third_party/ST/STM32L4xx_HAL_Driver/Src\stm32l4xx_hal_flash.c **** 
 486:E:/LiteOS/LiteOS_Lab/drivers/third_party/ST/STM32L4xx_HAL_Driver/Src\stm32l4xx_hal_flash.c **** /** @defgroup FLASH_Exported_Functions_Group2 Peripheral Control functions 
 487:E:/LiteOS/LiteOS_Lab/drivers/third_party/ST/STM32L4xx_HAL_Driver/Src\stm32l4xx_hal_flash.c ****  *  @brief   Management functions 
 488:E:/LiteOS/LiteOS_Lab/drivers/third_party/ST/STM32L4xx_HAL_Driver/Src\stm32l4xx_hal_flash.c ****  *
 489:E:/LiteOS/LiteOS_Lab/drivers/third_party/ST/STM32L4xx_HAL_Driver/Src\stm32l4xx_hal_flash.c **** @verbatim   
 490:E:/LiteOS/LiteOS_Lab/drivers/third_party/ST/STM32L4xx_HAL_Driver/Src\stm32l4xx_hal_flash.c ****  ===============================================================================
 491:E:/LiteOS/LiteOS_Lab/drivers/third_party/ST/STM32L4xx_HAL_Driver/Src\stm32l4xx_hal_flash.c ****                       ##### Peripheral Control functions #####
 492:E:/LiteOS/LiteOS_Lab/drivers/third_party/ST/STM32L4xx_HAL_Driver/Src\stm32l4xx_hal_flash.c ****  ===============================================================================  
 493:E:/LiteOS/LiteOS_Lab/drivers/third_party/ST/STM32L4xx_HAL_Driver/Src\stm32l4xx_hal_flash.c ****     [..]
 494:E:/LiteOS/LiteOS_Lab/drivers/third_party/ST/STM32L4xx_HAL_Driver/Src\stm32l4xx_hal_flash.c ****     This subsection provides a set of functions allowing to control the FLASH 
 495:E:/LiteOS/LiteOS_Lab/drivers/third_party/ST/STM32L4xx_HAL_Driver/Src\stm32l4xx_hal_flash.c ****     memory operations.
 496:E:/LiteOS/LiteOS_Lab/drivers/third_party/ST/STM32L4xx_HAL_Driver/Src\stm32l4xx_hal_flash.c **** 
 497:E:/LiteOS/LiteOS_Lab/drivers/third_party/ST/STM32L4xx_HAL_Driver/Src\stm32l4xx_hal_flash.c **** @endverbatim
 498:E:/LiteOS/LiteOS_Lab/drivers/third_party/ST/STM32L4xx_HAL_Driver/Src\stm32l4xx_hal_flash.c ****   * @{
 499:E:/LiteOS/LiteOS_Lab/drivers/third_party/ST/STM32L4xx_HAL_Driver/Src\stm32l4xx_hal_flash.c ****   */
 500:E:/LiteOS/LiteOS_Lab/drivers/third_party/ST/STM32L4xx_HAL_Driver/Src\stm32l4xx_hal_flash.c **** 
 501:E:/LiteOS/LiteOS_Lab/drivers/third_party/ST/STM32L4xx_HAL_Driver/Src\stm32l4xx_hal_flash.c **** /**
 502:E:/LiteOS/LiteOS_Lab/drivers/third_party/ST/STM32L4xx_HAL_Driver/Src\stm32l4xx_hal_flash.c ****   * @brief  Unlock the FLASH control register access.
 503:E:/LiteOS/LiteOS_Lab/drivers/third_party/ST/STM32L4xx_HAL_Driver/Src\stm32l4xx_hal_flash.c ****   * @retval HAL Status
 504:E:/LiteOS/LiteOS_Lab/drivers/third_party/ST/STM32L4xx_HAL_Driver/Src\stm32l4xx_hal_flash.c ****   */
 505:E:/LiteOS/LiteOS_Lab/drivers/third_party/ST/STM32L4xx_HAL_Driver/Src\stm32l4xx_hal_flash.c **** HAL_StatusTypeDef HAL_FLASH_Unlock(void)
 506:E:/LiteOS/LiteOS_Lab/drivers/third_party/ST/STM32L4xx_HAL_Driver/Src\stm32l4xx_hal_flash.c **** {
 741              		.loc 1 506 0
 742              		.cfi_startproc
 743              		@ args = 0, pretend = 0, frame = 8
 744              		@ frame_needed = 1, uses_anonymous_args = 0
 745              		@ link register save eliminated.
 746 0000 80B4     		push	{r7}
 747              	.LCFI27:
 748              		.cfi_def_cfa_offset 4
 749              		.cfi_offset 7, -4
 750 0002 83B0     		sub	sp, sp, #12
 751              	.LCFI28:
 752              		.cfi_def_cfa_offset 16
ARM GAS  C:\Users\user\AppData\Local\Temp\cc8eMbwy.s 			page 23


 753 0004 00AF     		add	r7, sp, #0
 754              	.LCFI29:
 755              		.cfi_def_cfa_register 7
 507:E:/LiteOS/LiteOS_Lab/drivers/third_party/ST/STM32L4xx_HAL_Driver/Src\stm32l4xx_hal_flash.c ****   HAL_StatusTypeDef status = HAL_OK;
 756              		.loc 1 507 0
 757 0006 0023     		movs	r3, #0
 758 0008 FB71     		strb	r3, [r7, #7]
 508:E:/LiteOS/LiteOS_Lab/drivers/third_party/ST/STM32L4xx_HAL_Driver/Src\stm32l4xx_hal_flash.c **** 
 509:E:/LiteOS/LiteOS_Lab/drivers/third_party/ST/STM32L4xx_HAL_Driver/Src\stm32l4xx_hal_flash.c ****   if(READ_BIT(FLASH->CR, FLASH_CR_LOCK) != RESET)
 759              		.loc 1 509 0
 760 000a 0B4B     		ldr	r3, .L49
 761 000c 5B69     		ldr	r3, [r3, #20]
 762 000e 002B     		cmp	r3, #0
 763 0010 0BDA     		bge	.L47
 510:E:/LiteOS/LiteOS_Lab/drivers/third_party/ST/STM32L4xx_HAL_Driver/Src\stm32l4xx_hal_flash.c ****   {
 511:E:/LiteOS/LiteOS_Lab/drivers/third_party/ST/STM32L4xx_HAL_Driver/Src\stm32l4xx_hal_flash.c ****     /* Authorize the FLASH Registers access */
 512:E:/LiteOS/LiteOS_Lab/drivers/third_party/ST/STM32L4xx_HAL_Driver/Src\stm32l4xx_hal_flash.c ****     WRITE_REG(FLASH->KEYR, FLASH_KEY1);
 764              		.loc 1 512 0
 765 0012 094B     		ldr	r3, .L49
 766 0014 094A     		ldr	r2, .L49+4
 767 0016 9A60     		str	r2, [r3, #8]
 513:E:/LiteOS/LiteOS_Lab/drivers/third_party/ST/STM32L4xx_HAL_Driver/Src\stm32l4xx_hal_flash.c ****     WRITE_REG(FLASH->KEYR, FLASH_KEY2);
 768              		.loc 1 513 0
 769 0018 074B     		ldr	r3, .L49
 770 001a 094A     		ldr	r2, .L49+8
 771 001c 9A60     		str	r2, [r3, #8]
 514:E:/LiteOS/LiteOS_Lab/drivers/third_party/ST/STM32L4xx_HAL_Driver/Src\stm32l4xx_hal_flash.c **** 
 515:E:/LiteOS/LiteOS_Lab/drivers/third_party/ST/STM32L4xx_HAL_Driver/Src\stm32l4xx_hal_flash.c ****     /* Verify Flash is unlocked */
 516:E:/LiteOS/LiteOS_Lab/drivers/third_party/ST/STM32L4xx_HAL_Driver/Src\stm32l4xx_hal_flash.c ****     if(READ_BIT(FLASH->CR, FLASH_CR_LOCK) != RESET)
 772              		.loc 1 516 0
 773 001e 064B     		ldr	r3, .L49
 774 0020 5B69     		ldr	r3, [r3, #20]
 775 0022 002B     		cmp	r3, #0
 776 0024 01DA     		bge	.L47
 517:E:/LiteOS/LiteOS_Lab/drivers/third_party/ST/STM32L4xx_HAL_Driver/Src\stm32l4xx_hal_flash.c ****     {
 518:E:/LiteOS/LiteOS_Lab/drivers/third_party/ST/STM32L4xx_HAL_Driver/Src\stm32l4xx_hal_flash.c ****       status = HAL_ERROR;
 777              		.loc 1 518 0
 778 0026 0123     		movs	r3, #1
 779 0028 FB71     		strb	r3, [r7, #7]
 780              	.L47:
 519:E:/LiteOS/LiteOS_Lab/drivers/third_party/ST/STM32L4xx_HAL_Driver/Src\stm32l4xx_hal_flash.c ****     }
 520:E:/LiteOS/LiteOS_Lab/drivers/third_party/ST/STM32L4xx_HAL_Driver/Src\stm32l4xx_hal_flash.c ****   }
 521:E:/LiteOS/LiteOS_Lab/drivers/third_party/ST/STM32L4xx_HAL_Driver/Src\stm32l4xx_hal_flash.c ****   
 522:E:/LiteOS/LiteOS_Lab/drivers/third_party/ST/STM32L4xx_HAL_Driver/Src\stm32l4xx_hal_flash.c ****   return status;
 781              		.loc 1 522 0
 782 002a FB79     		ldrb	r3, [r7, #7]	@ zero_extendqisi2
 523:E:/LiteOS/LiteOS_Lab/drivers/third_party/ST/STM32L4xx_HAL_Driver/Src\stm32l4xx_hal_flash.c **** }
 783              		.loc 1 523 0
 784 002c 1846     		mov	r0, r3
 785 002e 0C37     		adds	r7, r7, #12
 786              	.LCFI30:
 787              		.cfi_def_cfa_offset 4
 788 0030 BD46     		mov	sp, r7
 789              	.LCFI31:
 790              		.cfi_def_cfa_register 13
 791              		@ sp needed
 792 0032 5DF8047B 		ldr	r7, [sp], #4
ARM GAS  C:\Users\user\AppData\Local\Temp\cc8eMbwy.s 			page 24


 793              	.LCFI32:
 794              		.cfi_restore 7
 795              		.cfi_def_cfa_offset 0
 796 0036 7047     		bx	lr
 797              	.L50:
 798              		.align	2
 799              	.L49:
 800 0038 00200240 		.word	1073881088
 801 003c 23016745 		.word	1164378403
 802 0040 AB89EFCD 		.word	-839939669
 803              		.cfi_endproc
 804              	.LFE138:
 806              		.section	.text.HAL_FLASH_Lock,"ax",%progbits
 807              		.align	1
 808              		.global	HAL_FLASH_Lock
 809              		.syntax unified
 810              		.thumb
 811              		.thumb_func
 812              		.fpu fpv4-sp-d16
 814              	HAL_FLASH_Lock:
 815              	.LFB139:
 524:E:/LiteOS/LiteOS_Lab/drivers/third_party/ST/STM32L4xx_HAL_Driver/Src\stm32l4xx_hal_flash.c **** 
 525:E:/LiteOS/LiteOS_Lab/drivers/third_party/ST/STM32L4xx_HAL_Driver/Src\stm32l4xx_hal_flash.c **** /**
 526:E:/LiteOS/LiteOS_Lab/drivers/third_party/ST/STM32L4xx_HAL_Driver/Src\stm32l4xx_hal_flash.c ****   * @brief  Lock the FLASH control register access.
 527:E:/LiteOS/LiteOS_Lab/drivers/third_party/ST/STM32L4xx_HAL_Driver/Src\stm32l4xx_hal_flash.c ****   * @retval HAL Status
 528:E:/LiteOS/LiteOS_Lab/drivers/third_party/ST/STM32L4xx_HAL_Driver/Src\stm32l4xx_hal_flash.c ****   */
 529:E:/LiteOS/LiteOS_Lab/drivers/third_party/ST/STM32L4xx_HAL_Driver/Src\stm32l4xx_hal_flash.c **** HAL_StatusTypeDef HAL_FLASH_Lock(void)
 530:E:/LiteOS/LiteOS_Lab/drivers/third_party/ST/STM32L4xx_HAL_Driver/Src\stm32l4xx_hal_flash.c **** {
 816              		.loc 1 530 0
 817              		.cfi_startproc
 818              		@ args = 0, pretend = 0, frame = 0
 819              		@ frame_needed = 1, uses_anonymous_args = 0
 820              		@ link register save eliminated.
 821 0000 80B4     		push	{r7}
 822              	.LCFI33:
 823              		.cfi_def_cfa_offset 4
 824              		.cfi_offset 7, -4
 825 0002 00AF     		add	r7, sp, #0
 826              	.LCFI34:
 827              		.cfi_def_cfa_register 7
 531:E:/LiteOS/LiteOS_Lab/drivers/third_party/ST/STM32L4xx_HAL_Driver/Src\stm32l4xx_hal_flash.c ****   /* Set the LOCK Bit to lock the FLASH Registers access */
 532:E:/LiteOS/LiteOS_Lab/drivers/third_party/ST/STM32L4xx_HAL_Driver/Src\stm32l4xx_hal_flash.c ****   SET_BIT(FLASH->CR, FLASH_CR_LOCK);
 828              		.loc 1 532 0
 829 0004 054B     		ldr	r3, .L53
 830 0006 5B69     		ldr	r3, [r3, #20]
 831 0008 044A     		ldr	r2, .L53
 832 000a 43F00043 		orr	r3, r3, #-2147483648
 833 000e 5361     		str	r3, [r2, #20]
 533:E:/LiteOS/LiteOS_Lab/drivers/third_party/ST/STM32L4xx_HAL_Driver/Src\stm32l4xx_hal_flash.c ****   
 534:E:/LiteOS/LiteOS_Lab/drivers/third_party/ST/STM32L4xx_HAL_Driver/Src\stm32l4xx_hal_flash.c ****   return HAL_OK;  
 834              		.loc 1 534 0
 835 0010 0023     		movs	r3, #0
 535:E:/LiteOS/LiteOS_Lab/drivers/third_party/ST/STM32L4xx_HAL_Driver/Src\stm32l4xx_hal_flash.c **** }
 836              		.loc 1 535 0
 837 0012 1846     		mov	r0, r3
 838 0014 BD46     		mov	sp, r7
 839              	.LCFI35:
ARM GAS  C:\Users\user\AppData\Local\Temp\cc8eMbwy.s 			page 25


 840              		.cfi_def_cfa_register 13
 841              		@ sp needed
 842 0016 5DF8047B 		ldr	r7, [sp], #4
 843              	.LCFI36:
 844              		.cfi_restore 7
 845              		.cfi_def_cfa_offset 0
 846 001a 7047     		bx	lr
 847              	.L54:
 848              		.align	2
 849              	.L53:
 850 001c 00200240 		.word	1073881088
 851              		.cfi_endproc
 852              	.LFE139:
 854              		.section	.text.HAL_FLASH_OB_Unlock,"ax",%progbits
 855              		.align	1
 856              		.global	HAL_FLASH_OB_Unlock
 857              		.syntax unified
 858              		.thumb
 859              		.thumb_func
 860              		.fpu fpv4-sp-d16
 862              	HAL_FLASH_OB_Unlock:
 863              	.LFB140:
 536:E:/LiteOS/LiteOS_Lab/drivers/third_party/ST/STM32L4xx_HAL_Driver/Src\stm32l4xx_hal_flash.c **** 
 537:E:/LiteOS/LiteOS_Lab/drivers/third_party/ST/STM32L4xx_HAL_Driver/Src\stm32l4xx_hal_flash.c **** /**
 538:E:/LiteOS/LiteOS_Lab/drivers/third_party/ST/STM32L4xx_HAL_Driver/Src\stm32l4xx_hal_flash.c ****   * @brief  Unlock the FLASH Option Bytes Registers access.
 539:E:/LiteOS/LiteOS_Lab/drivers/third_party/ST/STM32L4xx_HAL_Driver/Src\stm32l4xx_hal_flash.c ****   * @retval HAL Status
 540:E:/LiteOS/LiteOS_Lab/drivers/third_party/ST/STM32L4xx_HAL_Driver/Src\stm32l4xx_hal_flash.c ****   */
 541:E:/LiteOS/LiteOS_Lab/drivers/third_party/ST/STM32L4xx_HAL_Driver/Src\stm32l4xx_hal_flash.c **** HAL_StatusTypeDef HAL_FLASH_OB_Unlock(void)
 542:E:/LiteOS/LiteOS_Lab/drivers/third_party/ST/STM32L4xx_HAL_Driver/Src\stm32l4xx_hal_flash.c **** {
 864              		.loc 1 542 0
 865              		.cfi_startproc
 866              		@ args = 0, pretend = 0, frame = 0
 867              		@ frame_needed = 1, uses_anonymous_args = 0
 868              		@ link register save eliminated.
 869 0000 80B4     		push	{r7}
 870              	.LCFI37:
 871              		.cfi_def_cfa_offset 4
 872              		.cfi_offset 7, -4
 873 0002 00AF     		add	r7, sp, #0
 874              	.LCFI38:
 875              		.cfi_def_cfa_register 7
 543:E:/LiteOS/LiteOS_Lab/drivers/third_party/ST/STM32L4xx_HAL_Driver/Src\stm32l4xx_hal_flash.c ****   if(READ_BIT(FLASH->CR, FLASH_CR_OPTLOCK) != RESET)
 876              		.loc 1 543 0
 877 0004 094B     		ldr	r3, .L59
 878 0006 5B69     		ldr	r3, [r3, #20]
 879 0008 03F08043 		and	r3, r3, #1073741824
 880 000c 002B     		cmp	r3, #0
 881 000e 07D0     		beq	.L56
 544:E:/LiteOS/LiteOS_Lab/drivers/third_party/ST/STM32L4xx_HAL_Driver/Src\stm32l4xx_hal_flash.c ****   {
 545:E:/LiteOS/LiteOS_Lab/drivers/third_party/ST/STM32L4xx_HAL_Driver/Src\stm32l4xx_hal_flash.c ****     /* Authorizes the Option Byte register programming */
 546:E:/LiteOS/LiteOS_Lab/drivers/third_party/ST/STM32L4xx_HAL_Driver/Src\stm32l4xx_hal_flash.c ****     WRITE_REG(FLASH->OPTKEYR, FLASH_OPTKEY1);
 882              		.loc 1 546 0
 883 0010 064B     		ldr	r3, .L59
 884 0012 074A     		ldr	r2, .L59+4
 885 0014 DA60     		str	r2, [r3, #12]
 547:E:/LiteOS/LiteOS_Lab/drivers/third_party/ST/STM32L4xx_HAL_Driver/Src\stm32l4xx_hal_flash.c ****     WRITE_REG(FLASH->OPTKEYR, FLASH_OPTKEY2);
 886              		.loc 1 547 0
ARM GAS  C:\Users\user\AppData\Local\Temp\cc8eMbwy.s 			page 26


 887 0016 054B     		ldr	r3, .L59
 888 0018 064A     		ldr	r2, .L59+8
 889 001a DA60     		str	r2, [r3, #12]
 548:E:/LiteOS/LiteOS_Lab/drivers/third_party/ST/STM32L4xx_HAL_Driver/Src\stm32l4xx_hal_flash.c ****   }
 549:E:/LiteOS/LiteOS_Lab/drivers/third_party/ST/STM32L4xx_HAL_Driver/Src\stm32l4xx_hal_flash.c ****   else
 550:E:/LiteOS/LiteOS_Lab/drivers/third_party/ST/STM32L4xx_HAL_Driver/Src\stm32l4xx_hal_flash.c ****   {
 551:E:/LiteOS/LiteOS_Lab/drivers/third_party/ST/STM32L4xx_HAL_Driver/Src\stm32l4xx_hal_flash.c ****     return HAL_ERROR;
 552:E:/LiteOS/LiteOS_Lab/drivers/third_party/ST/STM32L4xx_HAL_Driver/Src\stm32l4xx_hal_flash.c ****   }  
 553:E:/LiteOS/LiteOS_Lab/drivers/third_party/ST/STM32L4xx_HAL_Driver/Src\stm32l4xx_hal_flash.c ****   
 554:E:/LiteOS/LiteOS_Lab/drivers/third_party/ST/STM32L4xx_HAL_Driver/Src\stm32l4xx_hal_flash.c ****   return HAL_OK;  
 890              		.loc 1 554 0
 891 001c 0023     		movs	r3, #0
 892 001e 00E0     		b	.L58
 893              	.L56:
 551:E:/LiteOS/LiteOS_Lab/drivers/third_party/ST/STM32L4xx_HAL_Driver/Src\stm32l4xx_hal_flash.c ****   }  
 894              		.loc 1 551 0
 895 0020 0123     		movs	r3, #1
 896              	.L58:
 555:E:/LiteOS/LiteOS_Lab/drivers/third_party/ST/STM32L4xx_HAL_Driver/Src\stm32l4xx_hal_flash.c **** }
 897              		.loc 1 555 0
 898 0022 1846     		mov	r0, r3
 899 0024 BD46     		mov	sp, r7
 900              	.LCFI39:
 901              		.cfi_def_cfa_register 13
 902              		@ sp needed
 903 0026 5DF8047B 		ldr	r7, [sp], #4
 904              	.LCFI40:
 905              		.cfi_restore 7
 906              		.cfi_def_cfa_offset 0
 907 002a 7047     		bx	lr
 908              	.L60:
 909              		.align	2
 910              	.L59:
 911 002c 00200240 		.word	1073881088
 912 0030 3B2A1908 		.word	135866939
 913 0034 7F6E5D4C 		.word	1281191551
 914              		.cfi_endproc
 915              	.LFE140:
 917              		.section	.text.HAL_FLASH_OB_Lock,"ax",%progbits
 918              		.align	1
 919              		.global	HAL_FLASH_OB_Lock
 920              		.syntax unified
 921              		.thumb
 922              		.thumb_func
 923              		.fpu fpv4-sp-d16
 925              	HAL_FLASH_OB_Lock:
 926              	.LFB141:
 556:E:/LiteOS/LiteOS_Lab/drivers/third_party/ST/STM32L4xx_HAL_Driver/Src\stm32l4xx_hal_flash.c **** 
 557:E:/LiteOS/LiteOS_Lab/drivers/third_party/ST/STM32L4xx_HAL_Driver/Src\stm32l4xx_hal_flash.c **** /**
 558:E:/LiteOS/LiteOS_Lab/drivers/third_party/ST/STM32L4xx_HAL_Driver/Src\stm32l4xx_hal_flash.c ****   * @brief  Lock the FLASH Option Bytes Registers access.
 559:E:/LiteOS/LiteOS_Lab/drivers/third_party/ST/STM32L4xx_HAL_Driver/Src\stm32l4xx_hal_flash.c ****   * @retval HAL Status 
 560:E:/LiteOS/LiteOS_Lab/drivers/third_party/ST/STM32L4xx_HAL_Driver/Src\stm32l4xx_hal_flash.c ****   */
 561:E:/LiteOS/LiteOS_Lab/drivers/third_party/ST/STM32L4xx_HAL_Driver/Src\stm32l4xx_hal_flash.c **** HAL_StatusTypeDef HAL_FLASH_OB_Lock(void)
 562:E:/LiteOS/LiteOS_Lab/drivers/third_party/ST/STM32L4xx_HAL_Driver/Src\stm32l4xx_hal_flash.c **** {
 927              		.loc 1 562 0
 928              		.cfi_startproc
 929              		@ args = 0, pretend = 0, frame = 0
ARM GAS  C:\Users\user\AppData\Local\Temp\cc8eMbwy.s 			page 27


 930              		@ frame_needed = 1, uses_anonymous_args = 0
 931              		@ link register save eliminated.
 932 0000 80B4     		push	{r7}
 933              	.LCFI41:
 934              		.cfi_def_cfa_offset 4
 935              		.cfi_offset 7, -4
 936 0002 00AF     		add	r7, sp, #0
 937              	.LCFI42:
 938              		.cfi_def_cfa_register 7
 563:E:/LiteOS/LiteOS_Lab/drivers/third_party/ST/STM32L4xx_HAL_Driver/Src\stm32l4xx_hal_flash.c ****   /* Set the OPTLOCK Bit to lock the FLASH Option Byte Registers access */
 564:E:/LiteOS/LiteOS_Lab/drivers/third_party/ST/STM32L4xx_HAL_Driver/Src\stm32l4xx_hal_flash.c ****   SET_BIT(FLASH->CR, FLASH_CR_OPTLOCK);
 939              		.loc 1 564 0
 940 0004 054B     		ldr	r3, .L63
 941 0006 5B69     		ldr	r3, [r3, #20]
 942 0008 044A     		ldr	r2, .L63
 943 000a 43F08043 		orr	r3, r3, #1073741824
 944 000e 5361     		str	r3, [r2, #20]
 565:E:/LiteOS/LiteOS_Lab/drivers/third_party/ST/STM32L4xx_HAL_Driver/Src\stm32l4xx_hal_flash.c ****   
 566:E:/LiteOS/LiteOS_Lab/drivers/third_party/ST/STM32L4xx_HAL_Driver/Src\stm32l4xx_hal_flash.c ****   return HAL_OK;  
 945              		.loc 1 566 0
 946 0010 0023     		movs	r3, #0
 567:E:/LiteOS/LiteOS_Lab/drivers/third_party/ST/STM32L4xx_HAL_Driver/Src\stm32l4xx_hal_flash.c **** }
 947              		.loc 1 567 0
 948 0012 1846     		mov	r0, r3
 949 0014 BD46     		mov	sp, r7
 950              	.LCFI43:
 951              		.cfi_def_cfa_register 13
 952              		@ sp needed
 953 0016 5DF8047B 		ldr	r7, [sp], #4
 954              	.LCFI44:
 955              		.cfi_restore 7
 956              		.cfi_def_cfa_offset 0
 957 001a 7047     		bx	lr
 958              	.L64:
 959              		.align	2
 960              	.L63:
 961 001c 00200240 		.word	1073881088
 962              		.cfi_endproc
 963              	.LFE141:
 965              		.section	.text.HAL_FLASH_OB_Launch,"ax",%progbits
 966              		.align	1
 967              		.global	HAL_FLASH_OB_Launch
 968              		.syntax unified
 969              		.thumb
 970              		.thumb_func
 971              		.fpu fpv4-sp-d16
 973              	HAL_FLASH_OB_Launch:
 974              	.LFB142:
 568:E:/LiteOS/LiteOS_Lab/drivers/third_party/ST/STM32L4xx_HAL_Driver/Src\stm32l4xx_hal_flash.c **** 
 569:E:/LiteOS/LiteOS_Lab/drivers/third_party/ST/STM32L4xx_HAL_Driver/Src\stm32l4xx_hal_flash.c **** /**
 570:E:/LiteOS/LiteOS_Lab/drivers/third_party/ST/STM32L4xx_HAL_Driver/Src\stm32l4xx_hal_flash.c ****   * @brief  Launch the option byte loading.
 571:E:/LiteOS/LiteOS_Lab/drivers/third_party/ST/STM32L4xx_HAL_Driver/Src\stm32l4xx_hal_flash.c ****   * @retval HAL Status
 572:E:/LiteOS/LiteOS_Lab/drivers/third_party/ST/STM32L4xx_HAL_Driver/Src\stm32l4xx_hal_flash.c ****   */
 573:E:/LiteOS/LiteOS_Lab/drivers/third_party/ST/STM32L4xx_HAL_Driver/Src\stm32l4xx_hal_flash.c **** HAL_StatusTypeDef HAL_FLASH_OB_Launch(void)
 574:E:/LiteOS/LiteOS_Lab/drivers/third_party/ST/STM32L4xx_HAL_Driver/Src\stm32l4xx_hal_flash.c **** {
 975              		.loc 1 574 0
 976              		.cfi_startproc
ARM GAS  C:\Users\user\AppData\Local\Temp\cc8eMbwy.s 			page 28


 977              		@ args = 0, pretend = 0, frame = 0
 978              		@ frame_needed = 1, uses_anonymous_args = 0
 979 0000 80B5     		push	{r7, lr}
 980              	.LCFI45:
 981              		.cfi_def_cfa_offset 8
 982              		.cfi_offset 7, -8
 983              		.cfi_offset 14, -4
 984 0002 00AF     		add	r7, sp, #0
 985              	.LCFI46:
 986              		.cfi_def_cfa_register 7
 575:E:/LiteOS/LiteOS_Lab/drivers/third_party/ST/STM32L4xx_HAL_Driver/Src\stm32l4xx_hal_flash.c ****   /* Set the bit to force the option byte reloading */
 576:E:/LiteOS/LiteOS_Lab/drivers/third_party/ST/STM32L4xx_HAL_Driver/Src\stm32l4xx_hal_flash.c ****   SET_BIT(FLASH->CR, FLASH_CR_OBL_LAUNCH); 
 987              		.loc 1 576 0
 988 0004 064B     		ldr	r3, .L67
 989 0006 5B69     		ldr	r3, [r3, #20]
 990 0008 054A     		ldr	r2, .L67
 991 000a 43F00063 		orr	r3, r3, #134217728
 992 000e 5361     		str	r3, [r2, #20]
 577:E:/LiteOS/LiteOS_Lab/drivers/third_party/ST/STM32L4xx_HAL_Driver/Src\stm32l4xx_hal_flash.c **** 
 578:E:/LiteOS/LiteOS_Lab/drivers/third_party/ST/STM32L4xx_HAL_Driver/Src\stm32l4xx_hal_flash.c ****   /* Wait for last operation to be completed */
 579:E:/LiteOS/LiteOS_Lab/drivers/third_party/ST/STM32L4xx_HAL_Driver/Src\stm32l4xx_hal_flash.c ****   return(FLASH_WaitForLastOperation((uint32_t)FLASH_TIMEOUT_VALUE)); 
 993              		.loc 1 579 0
 994 0010 4CF25030 		movw	r0, #50000
 995 0014 FFF7FEFF 		bl	FLASH_WaitForLastOperation
 996 0018 0346     		mov	r3, r0
 580:E:/LiteOS/LiteOS_Lab/drivers/third_party/ST/STM32L4xx_HAL_Driver/Src\stm32l4xx_hal_flash.c **** }
 997              		.loc 1 580 0
 998 001a 1846     		mov	r0, r3
 999 001c 80BD     		pop	{r7, pc}
 1000              	.L68:
 1001 001e 00BF     		.align	2
 1002              	.L67:
 1003 0020 00200240 		.word	1073881088
 1004              		.cfi_endproc
 1005              	.LFE142:
 1007              		.section	.text.HAL_FLASH_GetError,"ax",%progbits
 1008              		.align	1
 1009              		.global	HAL_FLASH_GetError
 1010              		.syntax unified
 1011              		.thumb
 1012              		.thumb_func
 1013              		.fpu fpv4-sp-d16
 1015              	HAL_FLASH_GetError:
 1016              	.LFB143:
 581:E:/LiteOS/LiteOS_Lab/drivers/third_party/ST/STM32L4xx_HAL_Driver/Src\stm32l4xx_hal_flash.c **** 
 582:E:/LiteOS/LiteOS_Lab/drivers/third_party/ST/STM32L4xx_HAL_Driver/Src\stm32l4xx_hal_flash.c **** /**
 583:E:/LiteOS/LiteOS_Lab/drivers/third_party/ST/STM32L4xx_HAL_Driver/Src\stm32l4xx_hal_flash.c ****   * @}
 584:E:/LiteOS/LiteOS_Lab/drivers/third_party/ST/STM32L4xx_HAL_Driver/Src\stm32l4xx_hal_flash.c ****   */
 585:E:/LiteOS/LiteOS_Lab/drivers/third_party/ST/STM32L4xx_HAL_Driver/Src\stm32l4xx_hal_flash.c **** 
 586:E:/LiteOS/LiteOS_Lab/drivers/third_party/ST/STM32L4xx_HAL_Driver/Src\stm32l4xx_hal_flash.c **** /** @defgroup FLASH_Exported_Functions_Group3 Peripheral State and Errors functions 
 587:E:/LiteOS/LiteOS_Lab/drivers/third_party/ST/STM32L4xx_HAL_Driver/Src\stm32l4xx_hal_flash.c ****  *  @brief   Peripheral Errors functions 
 588:E:/LiteOS/LiteOS_Lab/drivers/third_party/ST/STM32L4xx_HAL_Driver/Src\stm32l4xx_hal_flash.c ****  *
 589:E:/LiteOS/LiteOS_Lab/drivers/third_party/ST/STM32L4xx_HAL_Driver/Src\stm32l4xx_hal_flash.c **** @verbatim   
 590:E:/LiteOS/LiteOS_Lab/drivers/third_party/ST/STM32L4xx_HAL_Driver/Src\stm32l4xx_hal_flash.c ****  ===============================================================================
 591:E:/LiteOS/LiteOS_Lab/drivers/third_party/ST/STM32L4xx_HAL_Driver/Src\stm32l4xx_hal_flash.c ****                 ##### Peripheral Errors functions #####
 592:E:/LiteOS/LiteOS_Lab/drivers/third_party/ST/STM32L4xx_HAL_Driver/Src\stm32l4xx_hal_flash.c ****  ===============================================================================  
 593:E:/LiteOS/LiteOS_Lab/drivers/third_party/ST/STM32L4xx_HAL_Driver/Src\stm32l4xx_hal_flash.c ****     [..]
ARM GAS  C:\Users\user\AppData\Local\Temp\cc8eMbwy.s 			page 29


 594:E:/LiteOS/LiteOS_Lab/drivers/third_party/ST/STM32L4xx_HAL_Driver/Src\stm32l4xx_hal_flash.c ****     This subsection permits to get in run-time Errors of the FLASH peripheral.
 595:E:/LiteOS/LiteOS_Lab/drivers/third_party/ST/STM32L4xx_HAL_Driver/Src\stm32l4xx_hal_flash.c **** 
 596:E:/LiteOS/LiteOS_Lab/drivers/third_party/ST/STM32L4xx_HAL_Driver/Src\stm32l4xx_hal_flash.c **** @endverbatim
 597:E:/LiteOS/LiteOS_Lab/drivers/third_party/ST/STM32L4xx_HAL_Driver/Src\stm32l4xx_hal_flash.c ****   * @{
 598:E:/LiteOS/LiteOS_Lab/drivers/third_party/ST/STM32L4xx_HAL_Driver/Src\stm32l4xx_hal_flash.c ****   */
 599:E:/LiteOS/LiteOS_Lab/drivers/third_party/ST/STM32L4xx_HAL_Driver/Src\stm32l4xx_hal_flash.c **** 
 600:E:/LiteOS/LiteOS_Lab/drivers/third_party/ST/STM32L4xx_HAL_Driver/Src\stm32l4xx_hal_flash.c **** /**
 601:E:/LiteOS/LiteOS_Lab/drivers/third_party/ST/STM32L4xx_HAL_Driver/Src\stm32l4xx_hal_flash.c ****   * @brief  Get the specific FLASH error flag.
 602:E:/LiteOS/LiteOS_Lab/drivers/third_party/ST/STM32L4xx_HAL_Driver/Src\stm32l4xx_hal_flash.c ****   * @retval FLASH_ErrorCode: The returned value can be:
 603:E:/LiteOS/LiteOS_Lab/drivers/third_party/ST/STM32L4xx_HAL_Driver/Src\stm32l4xx_hal_flash.c ****   *            @arg HAL_FLASH_ERROR_RD: FLASH Read Protection error flag (PCROP)
 604:E:/LiteOS/LiteOS_Lab/drivers/third_party/ST/STM32L4xx_HAL_Driver/Src\stm32l4xx_hal_flash.c ****   *            @arg HAL_FLASH_ERROR_PGS: FLASH Programming Sequence error flag 
 605:E:/LiteOS/LiteOS_Lab/drivers/third_party/ST/STM32L4xx_HAL_Driver/Src\stm32l4xx_hal_flash.c ****   *            @arg HAL_FLASH_ERROR_PGP: FLASH Programming Parallelism error flag  
 606:E:/LiteOS/LiteOS_Lab/drivers/third_party/ST/STM32L4xx_HAL_Driver/Src\stm32l4xx_hal_flash.c ****   *            @arg HAL_FLASH_ERROR_PGA: FLASH Programming Alignment error flag
 607:E:/LiteOS/LiteOS_Lab/drivers/third_party/ST/STM32L4xx_HAL_Driver/Src\stm32l4xx_hal_flash.c ****   *            @arg HAL_FLASH_ERROR_WRP: FLASH Write protected error flag
 608:E:/LiteOS/LiteOS_Lab/drivers/third_party/ST/STM32L4xx_HAL_Driver/Src\stm32l4xx_hal_flash.c ****   *            @arg HAL_FLASH_ERROR_OPERATION: FLASH operation Error flag 
 609:E:/LiteOS/LiteOS_Lab/drivers/third_party/ST/STM32L4xx_HAL_Driver/Src\stm32l4xx_hal_flash.c ****   *            @arg HAL_FLASH_ERROR_NONE: No error set 
 610:E:/LiteOS/LiteOS_Lab/drivers/third_party/ST/STM32L4xx_HAL_Driver/Src\stm32l4xx_hal_flash.c ****   *            @arg HAL_FLASH_ERROR_OP: FLASH Operation error
 611:E:/LiteOS/LiteOS_Lab/drivers/third_party/ST/STM32L4xx_HAL_Driver/Src\stm32l4xx_hal_flash.c ****   *            @arg HAL_FLASH_ERROR_PROG: FLASH Programming error
 612:E:/LiteOS/LiteOS_Lab/drivers/third_party/ST/STM32L4xx_HAL_Driver/Src\stm32l4xx_hal_flash.c ****   *            @arg HAL_FLASH_ERROR_WRP: FLASH Write protection error
 613:E:/LiteOS/LiteOS_Lab/drivers/third_party/ST/STM32L4xx_HAL_Driver/Src\stm32l4xx_hal_flash.c ****   *            @arg HAL_FLASH_ERROR_PGA: FLASH Programming alignment error
 614:E:/LiteOS/LiteOS_Lab/drivers/third_party/ST/STM32L4xx_HAL_Driver/Src\stm32l4xx_hal_flash.c ****   *            @arg HAL_FLASH_ERROR_SIZ: FLASH Size error
 615:E:/LiteOS/LiteOS_Lab/drivers/third_party/ST/STM32L4xx_HAL_Driver/Src\stm32l4xx_hal_flash.c ****   *            @arg HAL_FLASH_ERROR_PGS: FLASH Programming sequence error
 616:E:/LiteOS/LiteOS_Lab/drivers/third_party/ST/STM32L4xx_HAL_Driver/Src\stm32l4xx_hal_flash.c ****   *            @arg HAL_FLASH_ERROR_MIS: FLASH Fast programming data miss error
 617:E:/LiteOS/LiteOS_Lab/drivers/third_party/ST/STM32L4xx_HAL_Driver/Src\stm32l4xx_hal_flash.c ****   *            @arg HAL_FLASH_ERROR_FAST: FLASH Fast programming error
 618:E:/LiteOS/LiteOS_Lab/drivers/third_party/ST/STM32L4xx_HAL_Driver/Src\stm32l4xx_hal_flash.c ****   *            @arg HAL_FLASH_ERROR_RD: FLASH PCROP read error
 619:E:/LiteOS/LiteOS_Lab/drivers/third_party/ST/STM32L4xx_HAL_Driver/Src\stm32l4xx_hal_flash.c ****   *            @arg HAL_FLASH_ERROR_OPTV: FLASH Option validity error
 620:E:/LiteOS/LiteOS_Lab/drivers/third_party/ST/STM32L4xx_HAL_Driver/Src\stm32l4xx_hal_flash.c ****   *            @arg FLASH_FLAG_PEMPTY : FLASH Boot from not programmed flash (apply only for STM32L
 621:E:/LiteOS/LiteOS_Lab/drivers/third_party/ST/STM32L4xx_HAL_Driver/Src\stm32l4xx_hal_flash.c ****   *            @arg HAL_FLASH_ERROR_ECCD: FLASH two ECC errors have been detected
 622:E:/LiteOS/LiteOS_Lab/drivers/third_party/ST/STM32L4xx_HAL_Driver/Src\stm32l4xx_hal_flash.c ****   */
 623:E:/LiteOS/LiteOS_Lab/drivers/third_party/ST/STM32L4xx_HAL_Driver/Src\stm32l4xx_hal_flash.c **** uint32_t HAL_FLASH_GetError(void)
 624:E:/LiteOS/LiteOS_Lab/drivers/third_party/ST/STM32L4xx_HAL_Driver/Src\stm32l4xx_hal_flash.c **** { 
 1017              		.loc 1 624 0
 1018              		.cfi_startproc
 1019              		@ args = 0, pretend = 0, frame = 0
 1020              		@ frame_needed = 1, uses_anonymous_args = 0
 1021              		@ link register save eliminated.
 1022 0000 80B4     		push	{r7}
 1023              	.LCFI47:
 1024              		.cfi_def_cfa_offset 4
 1025              		.cfi_offset 7, -4
 1026 0002 00AF     		add	r7, sp, #0
 1027              	.LCFI48:
 1028              		.cfi_def_cfa_register 7
 625:E:/LiteOS/LiteOS_Lab/drivers/third_party/ST/STM32L4xx_HAL_Driver/Src\stm32l4xx_hal_flash.c ****    return pFlash.ErrorCode;
 1029              		.loc 1 625 0
 1030 0004 034B     		ldr	r3, .L71
 1031 0006 5B68     		ldr	r3, [r3, #4]
 626:E:/LiteOS/LiteOS_Lab/drivers/third_party/ST/STM32L4xx_HAL_Driver/Src\stm32l4xx_hal_flash.c **** }
 1032              		.loc 1 626 0
 1033 0008 1846     		mov	r0, r3
 1034 000a BD46     		mov	sp, r7
 1035              	.LCFI49:
 1036              		.cfi_def_cfa_register 13
 1037              		@ sp needed
 1038 000c 5DF8047B 		ldr	r7, [sp], #4
 1039              	.LCFI50:
 1040              		.cfi_restore 7
ARM GAS  C:\Users\user\AppData\Local\Temp\cc8eMbwy.s 			page 30


 1041              		.cfi_def_cfa_offset 0
 1042 0010 7047     		bx	lr
 1043              	.L72:
 1044 0012 00BF     		.align	2
 1045              	.L71:
 1046 0014 00000000 		.word	pFlash
 1047              		.cfi_endproc
 1048              	.LFE143:
 1050              		.section	.text.FLASH_WaitForLastOperation,"ax",%progbits
 1051              		.align	1
 1052              		.global	FLASH_WaitForLastOperation
 1053              		.syntax unified
 1054              		.thumb
 1055              		.thumb_func
 1056              		.fpu fpv4-sp-d16
 1058              	FLASH_WaitForLastOperation:
 1059              	.LFB144:
 627:E:/LiteOS/LiteOS_Lab/drivers/third_party/ST/STM32L4xx_HAL_Driver/Src\stm32l4xx_hal_flash.c **** 
 628:E:/LiteOS/LiteOS_Lab/drivers/third_party/ST/STM32L4xx_HAL_Driver/Src\stm32l4xx_hal_flash.c **** /**
 629:E:/LiteOS/LiteOS_Lab/drivers/third_party/ST/STM32L4xx_HAL_Driver/Src\stm32l4xx_hal_flash.c ****   * @}
 630:E:/LiteOS/LiteOS_Lab/drivers/third_party/ST/STM32L4xx_HAL_Driver/Src\stm32l4xx_hal_flash.c ****   */ 
 631:E:/LiteOS/LiteOS_Lab/drivers/third_party/ST/STM32L4xx_HAL_Driver/Src\stm32l4xx_hal_flash.c **** 
 632:E:/LiteOS/LiteOS_Lab/drivers/third_party/ST/STM32L4xx_HAL_Driver/Src\stm32l4xx_hal_flash.c **** /**
 633:E:/LiteOS/LiteOS_Lab/drivers/third_party/ST/STM32L4xx_HAL_Driver/Src\stm32l4xx_hal_flash.c ****   * @}
 634:E:/LiteOS/LiteOS_Lab/drivers/third_party/ST/STM32L4xx_HAL_Driver/Src\stm32l4xx_hal_flash.c ****   */
 635:E:/LiteOS/LiteOS_Lab/drivers/third_party/ST/STM32L4xx_HAL_Driver/Src\stm32l4xx_hal_flash.c **** 
 636:E:/LiteOS/LiteOS_Lab/drivers/third_party/ST/STM32L4xx_HAL_Driver/Src\stm32l4xx_hal_flash.c **** /* Private functions ---------------------------------------------------------*/
 637:E:/LiteOS/LiteOS_Lab/drivers/third_party/ST/STM32L4xx_HAL_Driver/Src\stm32l4xx_hal_flash.c **** 
 638:E:/LiteOS/LiteOS_Lab/drivers/third_party/ST/STM32L4xx_HAL_Driver/Src\stm32l4xx_hal_flash.c **** /** @addtogroup FLASH_Private_Functions
 639:E:/LiteOS/LiteOS_Lab/drivers/third_party/ST/STM32L4xx_HAL_Driver/Src\stm32l4xx_hal_flash.c ****   * @{
 640:E:/LiteOS/LiteOS_Lab/drivers/third_party/ST/STM32L4xx_HAL_Driver/Src\stm32l4xx_hal_flash.c ****   */
 641:E:/LiteOS/LiteOS_Lab/drivers/third_party/ST/STM32L4xx_HAL_Driver/Src\stm32l4xx_hal_flash.c **** 
 642:E:/LiteOS/LiteOS_Lab/drivers/third_party/ST/STM32L4xx_HAL_Driver/Src\stm32l4xx_hal_flash.c **** /**
 643:E:/LiteOS/LiteOS_Lab/drivers/third_party/ST/STM32L4xx_HAL_Driver/Src\stm32l4xx_hal_flash.c ****   * @brief  Wait for a FLASH operation to complete.
 644:E:/LiteOS/LiteOS_Lab/drivers/third_party/ST/STM32L4xx_HAL_Driver/Src\stm32l4xx_hal_flash.c ****   * @param  Timeout: maximum flash operation timeout
 645:E:/LiteOS/LiteOS_Lab/drivers/third_party/ST/STM32L4xx_HAL_Driver/Src\stm32l4xx_hal_flash.c ****   * @retval HAL_StatusTypeDef HAL Status
 646:E:/LiteOS/LiteOS_Lab/drivers/third_party/ST/STM32L4xx_HAL_Driver/Src\stm32l4xx_hal_flash.c ****   */
 647:E:/LiteOS/LiteOS_Lab/drivers/third_party/ST/STM32L4xx_HAL_Driver/Src\stm32l4xx_hal_flash.c **** HAL_StatusTypeDef FLASH_WaitForLastOperation(uint32_t Timeout)
 648:E:/LiteOS/LiteOS_Lab/drivers/third_party/ST/STM32L4xx_HAL_Driver/Src\stm32l4xx_hal_flash.c **** {
 1060              		.loc 1 648 0
 1061              		.cfi_startproc
 1062              		@ args = 0, pretend = 0, frame = 16
 1063              		@ frame_needed = 1, uses_anonymous_args = 0
 1064 0000 80B5     		push	{r7, lr}
 1065              	.LCFI51:
 1066              		.cfi_def_cfa_offset 8
 1067              		.cfi_offset 7, -8
 1068              		.cfi_offset 14, -4
 1069 0002 84B0     		sub	sp, sp, #16
 1070              	.LCFI52:
 1071              		.cfi_def_cfa_offset 24
 1072 0004 00AF     		add	r7, sp, #0
 1073              	.LCFI53:
 1074              		.cfi_def_cfa_register 7
 1075 0006 7860     		str	r0, [r7, #4]
 649:E:/LiteOS/LiteOS_Lab/drivers/third_party/ST/STM32L4xx_HAL_Driver/Src\stm32l4xx_hal_flash.c ****   /* Wait for the FLASH operation to complete by polling on BUSY flag to be reset.
 650:E:/LiteOS/LiteOS_Lab/drivers/third_party/ST/STM32L4xx_HAL_Driver/Src\stm32l4xx_hal_flash.c ****      Even if the FLASH operation fails, the BUSY flag will be reset and an error
ARM GAS  C:\Users\user\AppData\Local\Temp\cc8eMbwy.s 			page 31


 651:E:/LiteOS/LiteOS_Lab/drivers/third_party/ST/STM32L4xx_HAL_Driver/Src\stm32l4xx_hal_flash.c ****      flag will be set */
 652:E:/LiteOS/LiteOS_Lab/drivers/third_party/ST/STM32L4xx_HAL_Driver/Src\stm32l4xx_hal_flash.c ****     
 653:E:/LiteOS/LiteOS_Lab/drivers/third_party/ST/STM32L4xx_HAL_Driver/Src\stm32l4xx_hal_flash.c ****   uint32_t tickstart = HAL_GetTick();
 1076              		.loc 1 653 0
 1077 0008 FFF7FEFF 		bl	HAL_GetTick
 1078 000c F860     		str	r0, [r7, #12]
 654:E:/LiteOS/LiteOS_Lab/drivers/third_party/ST/STM32L4xx_HAL_Driver/Src\stm32l4xx_hal_flash.c ****      
 655:E:/LiteOS/LiteOS_Lab/drivers/third_party/ST/STM32L4xx_HAL_Driver/Src\stm32l4xx_hal_flash.c ****   while(__HAL_FLASH_GET_FLAG(FLASH_FLAG_BSY)) 
 1079              		.loc 1 655 0
 1080 000e 0DE0     		b	.L74
 1081              	.L76:
 656:E:/LiteOS/LiteOS_Lab/drivers/third_party/ST/STM32L4xx_HAL_Driver/Src\stm32l4xx_hal_flash.c ****   { 
 657:E:/LiteOS/LiteOS_Lab/drivers/third_party/ST/STM32L4xx_HAL_Driver/Src\stm32l4xx_hal_flash.c ****     if(Timeout != HAL_MAX_DELAY)
 1082              		.loc 1 657 0
 1083 0010 7B68     		ldr	r3, [r7, #4]
 1084 0012 B3F1FF3F 		cmp	r3, #-1
 1085 0016 09D0     		beq	.L74
 658:E:/LiteOS/LiteOS_Lab/drivers/third_party/ST/STM32L4xx_HAL_Driver/Src\stm32l4xx_hal_flash.c ****     {
 659:E:/LiteOS/LiteOS_Lab/drivers/third_party/ST/STM32L4xx_HAL_Driver/Src\stm32l4xx_hal_flash.c ****       if((HAL_GetTick() - tickstart) >= Timeout)
 1086              		.loc 1 659 0
 1087 0018 FFF7FEFF 		bl	HAL_GetTick
 1088 001c 0246     		mov	r2, r0
 1089 001e FB68     		ldr	r3, [r7, #12]
 1090 0020 D31A     		subs	r3, r2, r3
 1091 0022 7A68     		ldr	r2, [r7, #4]
 1092 0024 9A42     		cmp	r2, r3
 1093 0026 01D8     		bhi	.L74
 660:E:/LiteOS/LiteOS_Lab/drivers/third_party/ST/STM32L4xx_HAL_Driver/Src\stm32l4xx_hal_flash.c ****       {
 661:E:/LiteOS/LiteOS_Lab/drivers/third_party/ST/STM32L4xx_HAL_Driver/Src\stm32l4xx_hal_flash.c ****         return HAL_TIMEOUT;
 1094              		.loc 1 661 0
 1095 0028 0323     		movs	r3, #3
 1096 002a 62E0     		b	.L75
 1097              	.L74:
 655:E:/LiteOS/LiteOS_Lab/drivers/third_party/ST/STM32L4xx_HAL_Driver/Src\stm32l4xx_hal_flash.c ****   { 
 1098              		.loc 1 655 0
 1099 002c 334B     		ldr	r3, .L80
 1100 002e 1B69     		ldr	r3, [r3, #16]
 1101 0030 03F48033 		and	r3, r3, #65536
 1102 0034 B3F5803F 		cmp	r3, #65536
 1103 0038 EAD0     		beq	.L76
 662:E:/LiteOS/LiteOS_Lab/drivers/third_party/ST/STM32L4xx_HAL_Driver/Src\stm32l4xx_hal_flash.c ****       }
 663:E:/LiteOS/LiteOS_Lab/drivers/third_party/ST/STM32L4xx_HAL_Driver/Src\stm32l4xx_hal_flash.c ****     } 
 664:E:/LiteOS/LiteOS_Lab/drivers/third_party/ST/STM32L4xx_HAL_Driver/Src\stm32l4xx_hal_flash.c ****   }
 665:E:/LiteOS/LiteOS_Lab/drivers/third_party/ST/STM32L4xx_HAL_Driver/Src\stm32l4xx_hal_flash.c ****   
 666:E:/LiteOS/LiteOS_Lab/drivers/third_party/ST/STM32L4xx_HAL_Driver/Src\stm32l4xx_hal_flash.c ****   if((__HAL_FLASH_GET_FLAG(FLASH_FLAG_OPERR))  || (__HAL_FLASH_GET_FLAG(FLASH_FLAG_PROGERR)) || 
 1104              		.loc 1 666 0
 1105 003a 304B     		ldr	r3, .L80
 1106 003c 1B69     		ldr	r3, [r3, #16]
 1107 003e 03F00203 		and	r3, r3, #2
 1108 0042 022B     		cmp	r3, #2
 1109 0044 47D0     		beq	.L77
 1110              		.loc 1 666 0 is_stmt 0 discriminator 1
 1111 0046 2D4B     		ldr	r3, .L80
 1112 0048 1B69     		ldr	r3, [r3, #16]
 1113 004a 03F00803 		and	r3, r3, #8
 1114 004e 082B     		cmp	r3, #8
 1115 0050 41D0     		beq	.L77
ARM GAS  C:\Users\user\AppData\Local\Temp\cc8eMbwy.s 			page 32


 667:E:/LiteOS/LiteOS_Lab/drivers/third_party/ST/STM32L4xx_HAL_Driver/Src\stm32l4xx_hal_flash.c ****      (__HAL_FLASH_GET_FLAG(FLASH_FLAG_WRPERR)) || (__HAL_FLASH_GET_FLAG(FLASH_FLAG_PGAERR))  || 
 1116              		.loc 1 667 0 is_stmt 1 discriminator 2
 1117 0052 2A4B     		ldr	r3, .L80
 1118 0054 1B69     		ldr	r3, [r3, #16]
 1119 0056 03F01003 		and	r3, r3, #16
 666:E:/LiteOS/LiteOS_Lab/drivers/third_party/ST/STM32L4xx_HAL_Driver/Src\stm32l4xx_hal_flash.c ****      (__HAL_FLASH_GET_FLAG(FLASH_FLAG_WRPERR)) || (__HAL_FLASH_GET_FLAG(FLASH_FLAG_PGAERR))  || 
 1120              		.loc 1 666 0 discriminator 2
 1121 005a 102B     		cmp	r3, #16
 1122 005c 3BD0     		beq	.L77
 1123              		.loc 1 667 0
 1124 005e 274B     		ldr	r3, .L80
 1125 0060 1B69     		ldr	r3, [r3, #16]
 1126 0062 03F02003 		and	r3, r3, #32
 1127 0066 202B     		cmp	r3, #32
 1128 0068 35D0     		beq	.L77
 668:E:/LiteOS/LiteOS_Lab/drivers/third_party/ST/STM32L4xx_HAL_Driver/Src\stm32l4xx_hal_flash.c ****      (__HAL_FLASH_GET_FLAG(FLASH_FLAG_SIZERR)) || (__HAL_FLASH_GET_FLAG(FLASH_FLAG_PGSERR))  ||
 1129              		.loc 1 668 0 discriminator 1
 1130 006a 244B     		ldr	r3, .L80
 1131 006c 1B69     		ldr	r3, [r3, #16]
 1132 006e 03F04003 		and	r3, r3, #64
 667:E:/LiteOS/LiteOS_Lab/drivers/third_party/ST/STM32L4xx_HAL_Driver/Src\stm32l4xx_hal_flash.c ****      (__HAL_FLASH_GET_FLAG(FLASH_FLAG_WRPERR)) || (__HAL_FLASH_GET_FLAG(FLASH_FLAG_PGAERR))  || 
 1133              		.loc 1 667 0 discriminator 1
 1134 0072 402B     		cmp	r3, #64
 1135 0074 2FD0     		beq	.L77
 1136              		.loc 1 668 0
 1137 0076 214B     		ldr	r3, .L80
 1138 0078 1B69     		ldr	r3, [r3, #16]
 1139 007a 03F08003 		and	r3, r3, #128
 1140 007e 802B     		cmp	r3, #128
 1141 0080 29D0     		beq	.L77
 669:E:/LiteOS/LiteOS_Lab/drivers/third_party/ST/STM32L4xx_HAL_Driver/Src\stm32l4xx_hal_flash.c ****      (__HAL_FLASH_GET_FLAG(FLASH_FLAG_MISERR)) || (__HAL_FLASH_GET_FLAG(FLASH_FLAG_FASTERR)) || 
 1142              		.loc 1 669 0 discriminator 1
 1143 0082 1E4B     		ldr	r3, .L80
 1144 0084 1B69     		ldr	r3, [r3, #16]
 1145 0086 03F48073 		and	r3, r3, #256
 668:E:/LiteOS/LiteOS_Lab/drivers/third_party/ST/STM32L4xx_HAL_Driver/Src\stm32l4xx_hal_flash.c ****      (__HAL_FLASH_GET_FLAG(FLASH_FLAG_SIZERR)) || (__HAL_FLASH_GET_FLAG(FLASH_FLAG_PGSERR))  ||
 1146              		.loc 1 668 0 discriminator 1
 1147 008a B3F5807F 		cmp	r3, #256
 1148 008e 22D0     		beq	.L77
 1149              		.loc 1 669 0
 1150 0090 1A4B     		ldr	r3, .L80
 1151 0092 1B69     		ldr	r3, [r3, #16]
 1152 0094 03F40073 		and	r3, r3, #512
 1153 0098 B3F5007F 		cmp	r3, #512
 1154 009c 1BD0     		beq	.L77
 670:E:/LiteOS/LiteOS_Lab/drivers/third_party/ST/STM32L4xx_HAL_Driver/Src\stm32l4xx_hal_flash.c ****      (__HAL_FLASH_GET_FLAG(FLASH_FLAG_RDERR))  || (__HAL_FLASH_GET_FLAG(FLASH_FLAG_OPTVERR)) ||
 1155              		.loc 1 670 0 discriminator 1
 1156 009e 174B     		ldr	r3, .L80
 1157 00a0 1B69     		ldr	r3, [r3, #16]
 1158 00a2 03F48043 		and	r3, r3, #16384
 669:E:/LiteOS/LiteOS_Lab/drivers/third_party/ST/STM32L4xx_HAL_Driver/Src\stm32l4xx_hal_flash.c ****      (__HAL_FLASH_GET_FLAG(FLASH_FLAG_MISERR)) || (__HAL_FLASH_GET_FLAG(FLASH_FLAG_FASTERR)) || 
 1159              		.loc 1 669 0 discriminator 1
 1160 00a6 B3F5804F 		cmp	r3, #16384
 1161 00aa 14D0     		beq	.L77
 1162              		.loc 1 670 0
 1163 00ac 134B     		ldr	r3, .L80
 1164 00ae 1B69     		ldr	r3, [r3, #16]
ARM GAS  C:\Users\user\AppData\Local\Temp\cc8eMbwy.s 			page 33


 1165 00b0 03F40043 		and	r3, r3, #32768
 1166 00b4 B3F5004F 		cmp	r3, #32768
 1167 00b8 0DD0     		beq	.L77
 671:E:/LiteOS/LiteOS_Lab/drivers/third_party/ST/STM32L4xx_HAL_Driver/Src\stm32l4xx_hal_flash.c **** #if defined (STM32L431xx) || defined (STM32L432xx) || defined (STM32L433xx) || defined (STM32L442xx
 672:E:/LiteOS/LiteOS_Lab/drivers/third_party/ST/STM32L4xx_HAL_Driver/Src\stm32l4xx_hal_flash.c ****     defined (STM32L451xx) || defined (STM32L452xx) || defined (STM32L462xx) || defined (STM32L496xx
 673:E:/LiteOS/LiteOS_Lab/drivers/third_party/ST/STM32L4xx_HAL_Driver/Src\stm32l4xx_hal_flash.c ****     defined (STM32L4R5xx) || defined (STM32L4R7xx) || defined (STM32L4R9xx) || defined (STM32L4S5xx
 674:E:/LiteOS/LiteOS_Lab/drivers/third_party/ST/STM32L4xx_HAL_Driver/Src\stm32l4xx_hal_flash.c ****      (__HAL_FLASH_GET_FLAG(FLASH_FLAG_ECCD))   || (__HAL_FLASH_GET_FLAG(FLASH_FLAG_PEMPTY)))
 1168              		.loc 1 674 0 discriminator 1
 1169 00ba 104B     		ldr	r3, .L80
 1170 00bc 9B69     		ldr	r3, [r3, #24]
 1171 00be 03F00043 		and	r3, r3, #-2147483648
 670:E:/LiteOS/LiteOS_Lab/drivers/third_party/ST/STM32L4xx_HAL_Driver/Src\stm32l4xx_hal_flash.c ****      (__HAL_FLASH_GET_FLAG(FLASH_FLAG_RDERR))  || (__HAL_FLASH_GET_FLAG(FLASH_FLAG_OPTVERR)) ||
 1172              		.loc 1 670 0 discriminator 1
 1173 00c2 B3F1004F 		cmp	r3, #-2147483648
 1174 00c6 06D0     		beq	.L77
 1175              		.loc 1 674 0
 1176 00c8 0C4B     		ldr	r3, .L80
 1177 00ca 1B69     		ldr	r3, [r3, #16]
 1178 00cc 03F40033 		and	r3, r3, #131072
 1179 00d0 B3F5003F 		cmp	r3, #131072
 1180 00d4 03D1     		bne	.L78
 1181              	.L77:
 675:E:/LiteOS/LiteOS_Lab/drivers/third_party/ST/STM32L4xx_HAL_Driver/Src\stm32l4xx_hal_flash.c **** #else
 676:E:/LiteOS/LiteOS_Lab/drivers/third_party/ST/STM32L4xx_HAL_Driver/Src\stm32l4xx_hal_flash.c ****      (__HAL_FLASH_GET_FLAG(FLASH_FLAG_ECCD)))
 677:E:/LiteOS/LiteOS_Lab/drivers/third_party/ST/STM32L4xx_HAL_Driver/Src\stm32l4xx_hal_flash.c **** #endif
 678:E:/LiteOS/LiteOS_Lab/drivers/third_party/ST/STM32L4xx_HAL_Driver/Src\stm32l4xx_hal_flash.c ****   {
 679:E:/LiteOS/LiteOS_Lab/drivers/third_party/ST/STM32L4xx_HAL_Driver/Src\stm32l4xx_hal_flash.c ****     /*Save the error code*/
 680:E:/LiteOS/LiteOS_Lab/drivers/third_party/ST/STM32L4xx_HAL_Driver/Src\stm32l4xx_hal_flash.c ****     FLASH_SetErrorCode();
 1182              		.loc 1 680 0
 1183 00d6 FFF7FEFF 		bl	FLASH_SetErrorCode
 681:E:/LiteOS/LiteOS_Lab/drivers/third_party/ST/STM32L4xx_HAL_Driver/Src\stm32l4xx_hal_flash.c ****     
 682:E:/LiteOS/LiteOS_Lab/drivers/third_party/ST/STM32L4xx_HAL_Driver/Src\stm32l4xx_hal_flash.c ****     return HAL_ERROR;
 1184              		.loc 1 682 0
 1185 00da 0123     		movs	r3, #1
 1186 00dc 09E0     		b	.L75
 1187              	.L78:
 683:E:/LiteOS/LiteOS_Lab/drivers/third_party/ST/STM32L4xx_HAL_Driver/Src\stm32l4xx_hal_flash.c ****   }
 684:E:/LiteOS/LiteOS_Lab/drivers/third_party/ST/STM32L4xx_HAL_Driver/Src\stm32l4xx_hal_flash.c **** 
 685:E:/LiteOS/LiteOS_Lab/drivers/third_party/ST/STM32L4xx_HAL_Driver/Src\stm32l4xx_hal_flash.c ****   /* Check FLASH End of Operation flag  */
 686:E:/LiteOS/LiteOS_Lab/drivers/third_party/ST/STM32L4xx_HAL_Driver/Src\stm32l4xx_hal_flash.c ****   if (__HAL_FLASH_GET_FLAG(FLASH_FLAG_EOP))
 1188              		.loc 1 686 0
 1189 00de 074B     		ldr	r3, .L80
 1190 00e0 1B69     		ldr	r3, [r3, #16]
 1191 00e2 03F00103 		and	r3, r3, #1
 1192 00e6 012B     		cmp	r3, #1
 1193 00e8 02D1     		bne	.L79
 687:E:/LiteOS/LiteOS_Lab/drivers/third_party/ST/STM32L4xx_HAL_Driver/Src\stm32l4xx_hal_flash.c ****   {
 688:E:/LiteOS/LiteOS_Lab/drivers/third_party/ST/STM32L4xx_HAL_Driver/Src\stm32l4xx_hal_flash.c ****     /* Clear FLASH End of Operation pending bit */
 689:E:/LiteOS/LiteOS_Lab/drivers/third_party/ST/STM32L4xx_HAL_Driver/Src\stm32l4xx_hal_flash.c ****     __HAL_FLASH_CLEAR_FLAG(FLASH_FLAG_EOP);
 1194              		.loc 1 689 0 discriminator 4
 1195 00ea 044B     		ldr	r3, .L80
 1196 00ec 0122     		movs	r2, #1
 1197 00ee 1A61     		str	r2, [r3, #16]
 1198              	.L79:
 690:E:/LiteOS/LiteOS_Lab/drivers/third_party/ST/STM32L4xx_HAL_Driver/Src\stm32l4xx_hal_flash.c ****   }
 691:E:/LiteOS/LiteOS_Lab/drivers/third_party/ST/STM32L4xx_HAL_Driver/Src\stm32l4xx_hal_flash.c ****   
 692:E:/LiteOS/LiteOS_Lab/drivers/third_party/ST/STM32L4xx_HAL_Driver/Src\stm32l4xx_hal_flash.c ****   /* If there is an error flag set */
ARM GAS  C:\Users\user\AppData\Local\Temp\cc8eMbwy.s 			page 34


 693:E:/LiteOS/LiteOS_Lab/drivers/third_party/ST/STM32L4xx_HAL_Driver/Src\stm32l4xx_hal_flash.c ****   return HAL_OK;  
 1199              		.loc 1 693 0
 1200 00f0 0023     		movs	r3, #0
 1201              	.L75:
 694:E:/LiteOS/LiteOS_Lab/drivers/third_party/ST/STM32L4xx_HAL_Driver/Src\stm32l4xx_hal_flash.c **** }
 1202              		.loc 1 694 0
 1203 00f2 1846     		mov	r0, r3
 1204 00f4 1037     		adds	r7, r7, #16
 1205              	.LCFI54:
 1206              		.cfi_def_cfa_offset 8
 1207 00f6 BD46     		mov	sp, r7
 1208              	.LCFI55:
 1209              		.cfi_def_cfa_register 13
 1210              		@ sp needed
 1211 00f8 80BD     		pop	{r7, pc}
 1212              	.L81:
 1213 00fa 00BF     		.align	2
 1214              	.L80:
 1215 00fc 00200240 		.word	1073881088
 1216              		.cfi_endproc
 1217              	.LFE144:
 1219              		.section	.text.FLASH_SetErrorCode,"ax",%progbits
 1220              		.align	1
 1221              		.syntax unified
 1222              		.thumb
 1223              		.thumb_func
 1224              		.fpu fpv4-sp-d16
 1226              	FLASH_SetErrorCode:
 1227              	.LFB145:
 695:E:/LiteOS/LiteOS_Lab/drivers/third_party/ST/STM32L4xx_HAL_Driver/Src\stm32l4xx_hal_flash.c **** 
 696:E:/LiteOS/LiteOS_Lab/drivers/third_party/ST/STM32L4xx_HAL_Driver/Src\stm32l4xx_hal_flash.c **** /**
 697:E:/LiteOS/LiteOS_Lab/drivers/third_party/ST/STM32L4xx_HAL_Driver/Src\stm32l4xx_hal_flash.c ****   * @brief  Set the specific FLASH error flag.
 698:E:/LiteOS/LiteOS_Lab/drivers/third_party/ST/STM32L4xx_HAL_Driver/Src\stm32l4xx_hal_flash.c ****   * @retval None
 699:E:/LiteOS/LiteOS_Lab/drivers/third_party/ST/STM32L4xx_HAL_Driver/Src\stm32l4xx_hal_flash.c ****   */
 700:E:/LiteOS/LiteOS_Lab/drivers/third_party/ST/STM32L4xx_HAL_Driver/Src\stm32l4xx_hal_flash.c **** static void FLASH_SetErrorCode(void)
 701:E:/LiteOS/LiteOS_Lab/drivers/third_party/ST/STM32L4xx_HAL_Driver/Src\stm32l4xx_hal_flash.c **** {  
 1228              		.loc 1 701 0
 1229              		.cfi_startproc
 1230              		@ args = 0, pretend = 0, frame = 0
 1231              		@ frame_needed = 1, uses_anonymous_args = 0
 1232              		@ link register save eliminated.
 1233 0000 80B4     		push	{r7}
 1234              	.LCFI56:
 1235              		.cfi_def_cfa_offset 4
 1236              		.cfi_offset 7, -4
 1237 0002 00AF     		add	r7, sp, #0
 1238              	.LCFI57:
 1239              		.cfi_def_cfa_register 7
 702:E:/LiteOS/LiteOS_Lab/drivers/third_party/ST/STM32L4xx_HAL_Driver/Src\stm32l4xx_hal_flash.c ****   if(__HAL_FLASH_GET_FLAG(FLASH_FLAG_OPERR))
 1240              		.loc 1 702 0
 1241 0004 544B     		ldr	r3, .L96
 1242 0006 1B69     		ldr	r3, [r3, #16]
 1243 0008 03F00203 		and	r3, r3, #2
 1244 000c 022B     		cmp	r3, #2
 1245 000e 05D1     		bne	.L83
 703:E:/LiteOS/LiteOS_Lab/drivers/third_party/ST/STM32L4xx_HAL_Driver/Src\stm32l4xx_hal_flash.c ****   {
 704:E:/LiteOS/LiteOS_Lab/drivers/third_party/ST/STM32L4xx_HAL_Driver/Src\stm32l4xx_hal_flash.c ****     pFlash.ErrorCode |= HAL_FLASH_ERROR_OP;
ARM GAS  C:\Users\user\AppData\Local\Temp\cc8eMbwy.s 			page 35


 1246              		.loc 1 704 0
 1247 0010 524B     		ldr	r3, .L96+4
 1248 0012 5B68     		ldr	r3, [r3, #4]
 1249 0014 43F00103 		orr	r3, r3, #1
 1250 0018 504A     		ldr	r2, .L96+4
 1251 001a 5360     		str	r3, [r2, #4]
 1252              	.L83:
 705:E:/LiteOS/LiteOS_Lab/drivers/third_party/ST/STM32L4xx_HAL_Driver/Src\stm32l4xx_hal_flash.c ****   }
 706:E:/LiteOS/LiteOS_Lab/drivers/third_party/ST/STM32L4xx_HAL_Driver/Src\stm32l4xx_hal_flash.c **** 
 707:E:/LiteOS/LiteOS_Lab/drivers/third_party/ST/STM32L4xx_HAL_Driver/Src\stm32l4xx_hal_flash.c ****   if(__HAL_FLASH_GET_FLAG(FLASH_FLAG_PROGERR))
 1253              		.loc 1 707 0
 1254 001c 4E4B     		ldr	r3, .L96
 1255 001e 1B69     		ldr	r3, [r3, #16]
 1256 0020 03F00803 		and	r3, r3, #8
 1257 0024 082B     		cmp	r3, #8
 1258 0026 05D1     		bne	.L84
 708:E:/LiteOS/LiteOS_Lab/drivers/third_party/ST/STM32L4xx_HAL_Driver/Src\stm32l4xx_hal_flash.c ****   { 
 709:E:/LiteOS/LiteOS_Lab/drivers/third_party/ST/STM32L4xx_HAL_Driver/Src\stm32l4xx_hal_flash.c ****     pFlash.ErrorCode |= HAL_FLASH_ERROR_PROG;
 1259              		.loc 1 709 0
 1260 0028 4C4B     		ldr	r3, .L96+4
 1261 002a 5B68     		ldr	r3, [r3, #4]
 1262 002c 43F00203 		orr	r3, r3, #2
 1263 0030 4A4A     		ldr	r2, .L96+4
 1264 0032 5360     		str	r3, [r2, #4]
 1265              	.L84:
 710:E:/LiteOS/LiteOS_Lab/drivers/third_party/ST/STM32L4xx_HAL_Driver/Src\stm32l4xx_hal_flash.c ****   }
 711:E:/LiteOS/LiteOS_Lab/drivers/third_party/ST/STM32L4xx_HAL_Driver/Src\stm32l4xx_hal_flash.c **** 
 712:E:/LiteOS/LiteOS_Lab/drivers/third_party/ST/STM32L4xx_HAL_Driver/Src\stm32l4xx_hal_flash.c ****   if(__HAL_FLASH_GET_FLAG(FLASH_FLAG_WRPERR))
 1266              		.loc 1 712 0
 1267 0034 484B     		ldr	r3, .L96
 1268 0036 1B69     		ldr	r3, [r3, #16]
 1269 0038 03F01003 		and	r3, r3, #16
 1270 003c 102B     		cmp	r3, #16
 1271 003e 05D1     		bne	.L85
 713:E:/LiteOS/LiteOS_Lab/drivers/third_party/ST/STM32L4xx_HAL_Driver/Src\stm32l4xx_hal_flash.c ****   { 
 714:E:/LiteOS/LiteOS_Lab/drivers/third_party/ST/STM32L4xx_HAL_Driver/Src\stm32l4xx_hal_flash.c ****     pFlash.ErrorCode |= HAL_FLASH_ERROR_WRP;
 1272              		.loc 1 714 0
 1273 0040 464B     		ldr	r3, .L96+4
 1274 0042 5B68     		ldr	r3, [r3, #4]
 1275 0044 43F00403 		orr	r3, r3, #4
 1276 0048 444A     		ldr	r2, .L96+4
 1277 004a 5360     		str	r3, [r2, #4]
 1278              	.L85:
 715:E:/LiteOS/LiteOS_Lab/drivers/third_party/ST/STM32L4xx_HAL_Driver/Src\stm32l4xx_hal_flash.c ****   }
 716:E:/LiteOS/LiteOS_Lab/drivers/third_party/ST/STM32L4xx_HAL_Driver/Src\stm32l4xx_hal_flash.c **** 
 717:E:/LiteOS/LiteOS_Lab/drivers/third_party/ST/STM32L4xx_HAL_Driver/Src\stm32l4xx_hal_flash.c ****   if(__HAL_FLASH_GET_FLAG(FLASH_FLAG_PGAERR))
 1279              		.loc 1 717 0
 1280 004c 424B     		ldr	r3, .L96
 1281 004e 1B69     		ldr	r3, [r3, #16]
 1282 0050 03F02003 		and	r3, r3, #32
 1283 0054 202B     		cmp	r3, #32
 1284 0056 05D1     		bne	.L86
 718:E:/LiteOS/LiteOS_Lab/drivers/third_party/ST/STM32L4xx_HAL_Driver/Src\stm32l4xx_hal_flash.c ****   { 
 719:E:/LiteOS/LiteOS_Lab/drivers/third_party/ST/STM32L4xx_HAL_Driver/Src\stm32l4xx_hal_flash.c ****     pFlash.ErrorCode |= HAL_FLASH_ERROR_PGA;
 1285              		.loc 1 719 0
 1286 0058 404B     		ldr	r3, .L96+4
 1287 005a 5B68     		ldr	r3, [r3, #4]
ARM GAS  C:\Users\user\AppData\Local\Temp\cc8eMbwy.s 			page 36


 1288 005c 43F00803 		orr	r3, r3, #8
 1289 0060 3E4A     		ldr	r2, .L96+4
 1290 0062 5360     		str	r3, [r2, #4]
 1291              	.L86:
 720:E:/LiteOS/LiteOS_Lab/drivers/third_party/ST/STM32L4xx_HAL_Driver/Src\stm32l4xx_hal_flash.c ****   }
 721:E:/LiteOS/LiteOS_Lab/drivers/third_party/ST/STM32L4xx_HAL_Driver/Src\stm32l4xx_hal_flash.c **** 
 722:E:/LiteOS/LiteOS_Lab/drivers/third_party/ST/STM32L4xx_HAL_Driver/Src\stm32l4xx_hal_flash.c ****   if(__HAL_FLASH_GET_FLAG(FLASH_FLAG_SIZERR))
 1292              		.loc 1 722 0
 1293 0064 3C4B     		ldr	r3, .L96
 1294 0066 1B69     		ldr	r3, [r3, #16]
 1295 0068 03F04003 		and	r3, r3, #64
 1296 006c 402B     		cmp	r3, #64
 1297 006e 05D1     		bne	.L87
 723:E:/LiteOS/LiteOS_Lab/drivers/third_party/ST/STM32L4xx_HAL_Driver/Src\stm32l4xx_hal_flash.c ****   { 
 724:E:/LiteOS/LiteOS_Lab/drivers/third_party/ST/STM32L4xx_HAL_Driver/Src\stm32l4xx_hal_flash.c ****     pFlash.ErrorCode |= HAL_FLASH_ERROR_SIZ;
 1298              		.loc 1 724 0
 1299 0070 3A4B     		ldr	r3, .L96+4
 1300 0072 5B68     		ldr	r3, [r3, #4]
 1301 0074 43F01003 		orr	r3, r3, #16
 1302 0078 384A     		ldr	r2, .L96+4
 1303 007a 5360     		str	r3, [r2, #4]
 1304              	.L87:
 725:E:/LiteOS/LiteOS_Lab/drivers/third_party/ST/STM32L4xx_HAL_Driver/Src\stm32l4xx_hal_flash.c ****   }
 726:E:/LiteOS/LiteOS_Lab/drivers/third_party/ST/STM32L4xx_HAL_Driver/Src\stm32l4xx_hal_flash.c **** 
 727:E:/LiteOS/LiteOS_Lab/drivers/third_party/ST/STM32L4xx_HAL_Driver/Src\stm32l4xx_hal_flash.c ****   if(__HAL_FLASH_GET_FLAG(FLASH_FLAG_PGSERR))
 1305              		.loc 1 727 0
 1306 007c 364B     		ldr	r3, .L96
 1307 007e 1B69     		ldr	r3, [r3, #16]
 1308 0080 03F08003 		and	r3, r3, #128
 1309 0084 802B     		cmp	r3, #128
 1310 0086 05D1     		bne	.L88
 728:E:/LiteOS/LiteOS_Lab/drivers/third_party/ST/STM32L4xx_HAL_Driver/Src\stm32l4xx_hal_flash.c ****   { 
 729:E:/LiteOS/LiteOS_Lab/drivers/third_party/ST/STM32L4xx_HAL_Driver/Src\stm32l4xx_hal_flash.c ****     pFlash.ErrorCode |= HAL_FLASH_ERROR_PGS;
 1311              		.loc 1 729 0
 1312 0088 344B     		ldr	r3, .L96+4
 1313 008a 5B68     		ldr	r3, [r3, #4]
 1314 008c 43F02003 		orr	r3, r3, #32
 1315 0090 324A     		ldr	r2, .L96+4
 1316 0092 5360     		str	r3, [r2, #4]
 1317              	.L88:
 730:E:/LiteOS/LiteOS_Lab/drivers/third_party/ST/STM32L4xx_HAL_Driver/Src\stm32l4xx_hal_flash.c ****   }
 731:E:/LiteOS/LiteOS_Lab/drivers/third_party/ST/STM32L4xx_HAL_Driver/Src\stm32l4xx_hal_flash.c **** 
 732:E:/LiteOS/LiteOS_Lab/drivers/third_party/ST/STM32L4xx_HAL_Driver/Src\stm32l4xx_hal_flash.c ****   if(__HAL_FLASH_GET_FLAG(FLASH_FLAG_MISERR))
 1318              		.loc 1 732 0
 1319 0094 304B     		ldr	r3, .L96
 1320 0096 1B69     		ldr	r3, [r3, #16]
 1321 0098 03F48073 		and	r3, r3, #256
 1322 009c B3F5807F 		cmp	r3, #256
 1323 00a0 05D1     		bne	.L89
 733:E:/LiteOS/LiteOS_Lab/drivers/third_party/ST/STM32L4xx_HAL_Driver/Src\stm32l4xx_hal_flash.c ****   { 
 734:E:/LiteOS/LiteOS_Lab/drivers/third_party/ST/STM32L4xx_HAL_Driver/Src\stm32l4xx_hal_flash.c ****    pFlash.ErrorCode |= HAL_FLASH_ERROR_MIS;
 1324              		.loc 1 734 0
 1325 00a2 2E4B     		ldr	r3, .L96+4
 1326 00a4 5B68     		ldr	r3, [r3, #4]
 1327 00a6 43F04003 		orr	r3, r3, #64
 1328 00aa 2C4A     		ldr	r2, .L96+4
 1329 00ac 5360     		str	r3, [r2, #4]
ARM GAS  C:\Users\user\AppData\Local\Temp\cc8eMbwy.s 			page 37


 1330              	.L89:
 735:E:/LiteOS/LiteOS_Lab/drivers/third_party/ST/STM32L4xx_HAL_Driver/Src\stm32l4xx_hal_flash.c ****   }
 736:E:/LiteOS/LiteOS_Lab/drivers/third_party/ST/STM32L4xx_HAL_Driver/Src\stm32l4xx_hal_flash.c **** 
 737:E:/LiteOS/LiteOS_Lab/drivers/third_party/ST/STM32L4xx_HAL_Driver/Src\stm32l4xx_hal_flash.c ****   if(__HAL_FLASH_GET_FLAG(FLASH_FLAG_FASTERR))
 1331              		.loc 1 737 0
 1332 00ae 2A4B     		ldr	r3, .L96
 1333 00b0 1B69     		ldr	r3, [r3, #16]
 1334 00b2 03F40073 		and	r3, r3, #512
 1335 00b6 B3F5007F 		cmp	r3, #512
 1336 00ba 05D1     		bne	.L90
 738:E:/LiteOS/LiteOS_Lab/drivers/third_party/ST/STM32L4xx_HAL_Driver/Src\stm32l4xx_hal_flash.c ****   { 
 739:E:/LiteOS/LiteOS_Lab/drivers/third_party/ST/STM32L4xx_HAL_Driver/Src\stm32l4xx_hal_flash.c ****    pFlash.ErrorCode |= HAL_FLASH_ERROR_FAST;
 1337              		.loc 1 739 0
 1338 00bc 274B     		ldr	r3, .L96+4
 1339 00be 5B68     		ldr	r3, [r3, #4]
 1340 00c0 43F08003 		orr	r3, r3, #128
 1341 00c4 254A     		ldr	r2, .L96+4
 1342 00c6 5360     		str	r3, [r2, #4]
 1343              	.L90:
 740:E:/LiteOS/LiteOS_Lab/drivers/third_party/ST/STM32L4xx_HAL_Driver/Src\stm32l4xx_hal_flash.c ****   }
 741:E:/LiteOS/LiteOS_Lab/drivers/third_party/ST/STM32L4xx_HAL_Driver/Src\stm32l4xx_hal_flash.c **** 
 742:E:/LiteOS/LiteOS_Lab/drivers/third_party/ST/STM32L4xx_HAL_Driver/Src\stm32l4xx_hal_flash.c ****   if(__HAL_FLASH_GET_FLAG(FLASH_FLAG_RDERR))
 1344              		.loc 1 742 0
 1345 00c8 234B     		ldr	r3, .L96
 1346 00ca 1B69     		ldr	r3, [r3, #16]
 1347 00cc 03F48043 		and	r3, r3, #16384
 1348 00d0 B3F5804F 		cmp	r3, #16384
 1349 00d4 05D1     		bne	.L91
 743:E:/LiteOS/LiteOS_Lab/drivers/third_party/ST/STM32L4xx_HAL_Driver/Src\stm32l4xx_hal_flash.c ****   { 
 744:E:/LiteOS/LiteOS_Lab/drivers/third_party/ST/STM32L4xx_HAL_Driver/Src\stm32l4xx_hal_flash.c ****    pFlash.ErrorCode |= HAL_FLASH_ERROR_RD;
 1350              		.loc 1 744 0
 1351 00d6 214B     		ldr	r3, .L96+4
 1352 00d8 5B68     		ldr	r3, [r3, #4]
 1353 00da 43F48073 		orr	r3, r3, #256
 1354 00de 1F4A     		ldr	r2, .L96+4
 1355 00e0 5360     		str	r3, [r2, #4]
 1356              	.L91:
 745:E:/LiteOS/LiteOS_Lab/drivers/third_party/ST/STM32L4xx_HAL_Driver/Src\stm32l4xx_hal_flash.c ****   }
 746:E:/LiteOS/LiteOS_Lab/drivers/third_party/ST/STM32L4xx_HAL_Driver/Src\stm32l4xx_hal_flash.c **** 
 747:E:/LiteOS/LiteOS_Lab/drivers/third_party/ST/STM32L4xx_HAL_Driver/Src\stm32l4xx_hal_flash.c ****   if(__HAL_FLASH_GET_FLAG(FLASH_FLAG_OPTVERR))
 1357              		.loc 1 747 0
 1358 00e2 1D4B     		ldr	r3, .L96
 1359 00e4 1B69     		ldr	r3, [r3, #16]
 1360 00e6 03F40043 		and	r3, r3, #32768
 1361 00ea B3F5004F 		cmp	r3, #32768
 1362 00ee 05D1     		bne	.L92
 748:E:/LiteOS/LiteOS_Lab/drivers/third_party/ST/STM32L4xx_HAL_Driver/Src\stm32l4xx_hal_flash.c ****   { 
 749:E:/LiteOS/LiteOS_Lab/drivers/third_party/ST/STM32L4xx_HAL_Driver/Src\stm32l4xx_hal_flash.c ****    pFlash.ErrorCode |= HAL_FLASH_ERROR_OPTV;
 1363              		.loc 1 749 0
 1364 00f0 1A4B     		ldr	r3, .L96+4
 1365 00f2 5B68     		ldr	r3, [r3, #4]
 1366 00f4 43F40073 		orr	r3, r3, #512
 1367 00f8 184A     		ldr	r2, .L96+4
 1368 00fa 5360     		str	r3, [r2, #4]
 1369              	.L92:
 750:E:/LiteOS/LiteOS_Lab/drivers/third_party/ST/STM32L4xx_HAL_Driver/Src\stm32l4xx_hal_flash.c ****   }
 751:E:/LiteOS/LiteOS_Lab/drivers/third_party/ST/STM32L4xx_HAL_Driver/Src\stm32l4xx_hal_flash.c **** 
ARM GAS  C:\Users\user\AppData\Local\Temp\cc8eMbwy.s 			page 38


 752:E:/LiteOS/LiteOS_Lab/drivers/third_party/ST/STM32L4xx_HAL_Driver/Src\stm32l4xx_hal_flash.c ****   if(__HAL_FLASH_GET_FLAG(FLASH_FLAG_ECCD))
 1370              		.loc 1 752 0
 1371 00fc 164B     		ldr	r3, .L96
 1372 00fe 9B69     		ldr	r3, [r3, #24]
 1373 0100 03F00043 		and	r3, r3, #-2147483648
 1374 0104 B3F1004F 		cmp	r3, #-2147483648
 1375 0108 05D1     		bne	.L93
 753:E:/LiteOS/LiteOS_Lab/drivers/third_party/ST/STM32L4xx_HAL_Driver/Src\stm32l4xx_hal_flash.c ****   { 
 754:E:/LiteOS/LiteOS_Lab/drivers/third_party/ST/STM32L4xx_HAL_Driver/Src\stm32l4xx_hal_flash.c ****    pFlash.ErrorCode |= HAL_FLASH_ERROR_ECCD;
 1376              		.loc 1 754 0
 1377 010a 144B     		ldr	r3, .L96+4
 1378 010c 5B68     		ldr	r3, [r3, #4]
 1379 010e 43F48063 		orr	r3, r3, #1024
 1380 0112 124A     		ldr	r2, .L96+4
 1381 0114 5360     		str	r3, [r2, #4]
 1382              	.L93:
 755:E:/LiteOS/LiteOS_Lab/drivers/third_party/ST/STM32L4xx_HAL_Driver/Src\stm32l4xx_hal_flash.c ****   }
 756:E:/LiteOS/LiteOS_Lab/drivers/third_party/ST/STM32L4xx_HAL_Driver/Src\stm32l4xx_hal_flash.c **** 
 757:E:/LiteOS/LiteOS_Lab/drivers/third_party/ST/STM32L4xx_HAL_Driver/Src\stm32l4xx_hal_flash.c **** #if defined (STM32L431xx) || defined (STM32L432xx) || defined (STM32L433xx) || defined (STM32L442xx
 758:E:/LiteOS/LiteOS_Lab/drivers/third_party/ST/STM32L4xx_HAL_Driver/Src\stm32l4xx_hal_flash.c ****     defined (STM32L451xx) || defined (STM32L452xx) || defined (STM32L462xx) || defined (STM32L496xx
 759:E:/LiteOS/LiteOS_Lab/drivers/third_party/ST/STM32L4xx_HAL_Driver/Src\stm32l4xx_hal_flash.c ****     defined (STM32L4R5xx) || defined (STM32L4R7xx) || defined (STM32L4R9xx) || defined (STM32L4S5xx
 760:E:/LiteOS/LiteOS_Lab/drivers/third_party/ST/STM32L4xx_HAL_Driver/Src\stm32l4xx_hal_flash.c ****   if(__HAL_FLASH_GET_FLAG(FLASH_FLAG_PEMPTY))
 1383              		.loc 1 760 0
 1384 0116 104B     		ldr	r3, .L96
 1385 0118 1B69     		ldr	r3, [r3, #16]
 1386 011a 03F40033 		and	r3, r3, #131072
 1387 011e B3F5003F 		cmp	r3, #131072
 1388 0122 09D1     		bne	.L95
 761:E:/LiteOS/LiteOS_Lab/drivers/third_party/ST/STM32L4xx_HAL_Driver/Src\stm32l4xx_hal_flash.c ****   { 
 762:E:/LiteOS/LiteOS_Lab/drivers/third_party/ST/STM32L4xx_HAL_Driver/Src\stm32l4xx_hal_flash.c ****     pFlash.ErrorCode |= HAL_FLASH_ERROR_PEMPTY;
 1389              		.loc 1 762 0
 1390 0124 0D4B     		ldr	r3, .L96+4
 1391 0126 5B68     		ldr	r3, [r3, #4]
 1392 0128 43F40063 		orr	r3, r3, #2048
 1393 012c 0B4A     		ldr	r2, .L96+4
 1394 012e 5360     		str	r3, [r2, #4]
 763:E:/LiteOS/LiteOS_Lab/drivers/third_party/ST/STM32L4xx_HAL_Driver/Src\stm32l4xx_hal_flash.c ****     __HAL_FLASH_CLEAR_FLAG(FLASH_FLAG_PEMPTY);
 1395              		.loc 1 763 0
 1396 0130 094B     		ldr	r3, .L96
 1397 0132 4FF40032 		mov	r2, #131072
 1398 0136 1A61     		str	r2, [r3, #16]
 1399              	.L95:
 764:E:/LiteOS/LiteOS_Lab/drivers/third_party/ST/STM32L4xx_HAL_Driver/Src\stm32l4xx_hal_flash.c ****   }
 765:E:/LiteOS/LiteOS_Lab/drivers/third_party/ST/STM32L4xx_HAL_Driver/Src\stm32l4xx_hal_flash.c **** #endif
 766:E:/LiteOS/LiteOS_Lab/drivers/third_party/ST/STM32L4xx_HAL_Driver/Src\stm32l4xx_hal_flash.c ****   
 767:E:/LiteOS/LiteOS_Lab/drivers/third_party/ST/STM32L4xx_HAL_Driver/Src\stm32l4xx_hal_flash.c ****   /* Clear error programming flags */
 768:E:/LiteOS/LiteOS_Lab/drivers/third_party/ST/STM32L4xx_HAL_Driver/Src\stm32l4xx_hal_flash.c ****   __HAL_FLASH_CLEAR_FLAG(FLASH_FLAG_ALL_ERRORS);
 1400              		.loc 1 768 0 discriminator 1
 1401 0138 074B     		ldr	r3, .L96
 1402 013a 9B69     		ldr	r3, [r3, #24]
 1403 013c 064A     		ldr	r2, .L96
 1404 013e 43F00043 		orr	r3, r3, #-2147483648
 1405 0142 9361     		str	r3, [r2, #24]
 1406 0144 044B     		ldr	r3, .L96
 1407 0146 4CF2FA32 		movw	r2, #50170
 1408 014a 1A61     		str	r2, [r3, #16]
 769:E:/LiteOS/LiteOS_Lab/drivers/third_party/ST/STM32L4xx_HAL_Driver/Src\stm32l4xx_hal_flash.c **** } 
ARM GAS  C:\Users\user\AppData\Local\Temp\cc8eMbwy.s 			page 39


 1409              		.loc 1 769 0 discriminator 1
 1410 014c 00BF     		nop
 1411 014e BD46     		mov	sp, r7
 1412              	.LCFI58:
 1413              		.cfi_def_cfa_register 13
 1414              		@ sp needed
 1415 0150 5DF8047B 		ldr	r7, [sp], #4
 1416              	.LCFI59:
 1417              		.cfi_restore 7
 1418              		.cfi_def_cfa_offset 0
 1419 0154 7047     		bx	lr
 1420              	.L97:
 1421 0156 00BF     		.align	2
 1422              	.L96:
 1423 0158 00200240 		.word	1073881088
 1424 015c 00000000 		.word	pFlash
 1425              		.cfi_endproc
 1426              	.LFE145:
 1428              		.section	.text.FLASH_Program_DoubleWord,"ax",%progbits
 1429              		.align	1
 1430              		.syntax unified
 1431              		.thumb
 1432              		.thumb_func
 1433              		.fpu fpv4-sp-d16
 1435              	FLASH_Program_DoubleWord:
 1436              	.LFB146:
 770:E:/LiteOS/LiteOS_Lab/drivers/third_party/ST/STM32L4xx_HAL_Driver/Src\stm32l4xx_hal_flash.c **** 
 771:E:/LiteOS/LiteOS_Lab/drivers/third_party/ST/STM32L4xx_HAL_Driver/Src\stm32l4xx_hal_flash.c **** /**
 772:E:/LiteOS/LiteOS_Lab/drivers/third_party/ST/STM32L4xx_HAL_Driver/Src\stm32l4xx_hal_flash.c ****   * @brief  Program double-word (64-bit) at a specified address.
 773:E:/LiteOS/LiteOS_Lab/drivers/third_party/ST/STM32L4xx_HAL_Driver/Src\stm32l4xx_hal_flash.c ****   * @param  Address: specifies the address to be programmed.
 774:E:/LiteOS/LiteOS_Lab/drivers/third_party/ST/STM32L4xx_HAL_Driver/Src\stm32l4xx_hal_flash.c ****   * @param  Data: specifies the data to be programmed.
 775:E:/LiteOS/LiteOS_Lab/drivers/third_party/ST/STM32L4xx_HAL_Driver/Src\stm32l4xx_hal_flash.c ****   * @retval None
 776:E:/LiteOS/LiteOS_Lab/drivers/third_party/ST/STM32L4xx_HAL_Driver/Src\stm32l4xx_hal_flash.c ****   */
 777:E:/LiteOS/LiteOS_Lab/drivers/third_party/ST/STM32L4xx_HAL_Driver/Src\stm32l4xx_hal_flash.c **** static void FLASH_Program_DoubleWord(uint32_t Address, uint64_t Data)
 778:E:/LiteOS/LiteOS_Lab/drivers/third_party/ST/STM32L4xx_HAL_Driver/Src\stm32l4xx_hal_flash.c **** {
 1437              		.loc 1 778 0
 1438              		.cfi_startproc
 1439              		@ args = 0, pretend = 0, frame = 16
 1440              		@ frame_needed = 1, uses_anonymous_args = 0
 1441              		@ link register save eliminated.
 1442 0000 90B4     		push	{r4, r7}
 1443              	.LCFI60:
 1444              		.cfi_def_cfa_offset 8
 1445              		.cfi_offset 4, -8
 1446              		.cfi_offset 7, -4
 1447 0002 84B0     		sub	sp, sp, #16
 1448              	.LCFI61:
 1449              		.cfi_def_cfa_offset 24
 1450 0004 00AF     		add	r7, sp, #0
 1451              	.LCFI62:
 1452              		.cfi_def_cfa_register 7
 1453 0006 F860     		str	r0, [r7, #12]
 1454 0008 C7E90023 		strd	r2, [r7]
 779:E:/LiteOS/LiteOS_Lab/drivers/third_party/ST/STM32L4xx_HAL_Driver/Src\stm32l4xx_hal_flash.c ****   /* Check the parameters */
 780:E:/LiteOS/LiteOS_Lab/drivers/third_party/ST/STM32L4xx_HAL_Driver/Src\stm32l4xx_hal_flash.c ****   assert_param(IS_FLASH_PROGRAM_ADDRESS(Address));
 781:E:/LiteOS/LiteOS_Lab/drivers/third_party/ST/STM32L4xx_HAL_Driver/Src\stm32l4xx_hal_flash.c **** 
 782:E:/LiteOS/LiteOS_Lab/drivers/third_party/ST/STM32L4xx_HAL_Driver/Src\stm32l4xx_hal_flash.c ****   /* Set PG bit */
ARM GAS  C:\Users\user\AppData\Local\Temp\cc8eMbwy.s 			page 40


 783:E:/LiteOS/LiteOS_Lab/drivers/third_party/ST/STM32L4xx_HAL_Driver/Src\stm32l4xx_hal_flash.c ****   SET_BIT(FLASH->CR, FLASH_CR_PG);
 1455              		.loc 1 783 0
 1456 000c 0C4B     		ldr	r3, .L99
 1457 000e 5B69     		ldr	r3, [r3, #20]
 1458 0010 0B4A     		ldr	r2, .L99
 1459 0012 43F00103 		orr	r3, r3, #1
 1460 0016 5361     		str	r3, [r2, #20]
 784:E:/LiteOS/LiteOS_Lab/drivers/third_party/ST/STM32L4xx_HAL_Driver/Src\stm32l4xx_hal_flash.c ****   
 785:E:/LiteOS/LiteOS_Lab/drivers/third_party/ST/STM32L4xx_HAL_Driver/Src\stm32l4xx_hal_flash.c ****   /* Program the double word */
 786:E:/LiteOS/LiteOS_Lab/drivers/third_party/ST/STM32L4xx_HAL_Driver/Src\stm32l4xx_hal_flash.c ****   *(__IO uint32_t*)Address = (uint32_t)Data;
 1461              		.loc 1 786 0
 1462 0018 FB68     		ldr	r3, [r7, #12]
 1463 001a 3A68     		ldr	r2, [r7]
 1464 001c 1A60     		str	r2, [r3]
 787:E:/LiteOS/LiteOS_Lab/drivers/third_party/ST/STM32L4xx_HAL_Driver/Src\stm32l4xx_hal_flash.c ****   *(__IO uint32_t*)(Address+4) = (uint32_t)(Data >> 32);
 1465              		.loc 1 787 0
 1466 001e D7E90012 		ldrd	r1, [r7]
 1467 0022 4FF00003 		mov	r3, #0
 1468 0026 4FF00004 		mov	r4, #0
 1469 002a 1300     		movs	r3, r2
 1470 002c 0024     		movs	r4, #0
 1471 002e FA68     		ldr	r2, [r7, #12]
 1472 0030 0432     		adds	r2, r2, #4
 1473 0032 1360     		str	r3, [r2]
 788:E:/LiteOS/LiteOS_Lab/drivers/third_party/ST/STM32L4xx_HAL_Driver/Src\stm32l4xx_hal_flash.c **** }
 1474              		.loc 1 788 0
 1475 0034 00BF     		nop
 1476 0036 1037     		adds	r7, r7, #16
 1477              	.LCFI63:
 1478              		.cfi_def_cfa_offset 8
 1479 0038 BD46     		mov	sp, r7
 1480              	.LCFI64:
 1481              		.cfi_def_cfa_register 13
 1482              		@ sp needed
 1483 003a 90BC     		pop	{r4, r7}
 1484              	.LCFI65:
 1485              		.cfi_restore 7
 1486              		.cfi_restore 4
 1487              		.cfi_def_cfa_offset 0
 1488 003c 7047     		bx	lr
 1489              	.L100:
 1490 003e 00BF     		.align	2
 1491              	.L99:
 1492 0040 00200240 		.word	1073881088
 1493              		.cfi_endproc
 1494              	.LFE146:
 1496              		.section	.text.FLASH_Program_Fast,"ax",%progbits
 1497              		.align	1
 1498              		.syntax unified
 1499              		.thumb
 1500              		.thumb_func
 1501              		.fpu fpv4-sp-d16
 1503              	FLASH_Program_Fast:
 1504              	.LFB147:
 789:E:/LiteOS/LiteOS_Lab/drivers/third_party/ST/STM32L4xx_HAL_Driver/Src\stm32l4xx_hal_flash.c **** 
 790:E:/LiteOS/LiteOS_Lab/drivers/third_party/ST/STM32L4xx_HAL_Driver/Src\stm32l4xx_hal_flash.c **** /**
 791:E:/LiteOS/LiteOS_Lab/drivers/third_party/ST/STM32L4xx_HAL_Driver/Src\stm32l4xx_hal_flash.c ****   * @brief  Fast program a row double-word (64-bit) at a specified address.
ARM GAS  C:\Users\user\AppData\Local\Temp\cc8eMbwy.s 			page 41


 792:E:/LiteOS/LiteOS_Lab/drivers/third_party/ST/STM32L4xx_HAL_Driver/Src\stm32l4xx_hal_flash.c ****   * @param  Address: specifies the address to be programmed.
 793:E:/LiteOS/LiteOS_Lab/drivers/third_party/ST/STM32L4xx_HAL_Driver/Src\stm32l4xx_hal_flash.c ****   * @param  DataAddress: specifies the address where the data are stored.
 794:E:/LiteOS/LiteOS_Lab/drivers/third_party/ST/STM32L4xx_HAL_Driver/Src\stm32l4xx_hal_flash.c ****   * @retval None
 795:E:/LiteOS/LiteOS_Lab/drivers/third_party/ST/STM32L4xx_HAL_Driver/Src\stm32l4xx_hal_flash.c ****   */
 796:E:/LiteOS/LiteOS_Lab/drivers/third_party/ST/STM32L4xx_HAL_Driver/Src\stm32l4xx_hal_flash.c **** static void FLASH_Program_Fast(uint32_t Address, uint32_t DataAddress)
 797:E:/LiteOS/LiteOS_Lab/drivers/third_party/ST/STM32L4xx_HAL_Driver/Src\stm32l4xx_hal_flash.c **** {
 1505              		.loc 1 797 0
 1506              		.cfi_startproc
 1507              		@ args = 0, pretend = 0, frame = 24
 1508              		@ frame_needed = 1, uses_anonymous_args = 0
 1509              		@ link register save eliminated.
 1510 0000 80B4     		push	{r7}
 1511              	.LCFI66:
 1512              		.cfi_def_cfa_offset 4
 1513              		.cfi_offset 7, -4
 1514 0002 87B0     		sub	sp, sp, #28
 1515              	.LCFI67:
 1516              		.cfi_def_cfa_offset 32
 1517 0004 00AF     		add	r7, sp, #0
 1518              	.LCFI68:
 1519              		.cfi_def_cfa_register 7
 1520 0006 7860     		str	r0, [r7, #4]
 1521 0008 3960     		str	r1, [r7]
 798:E:/LiteOS/LiteOS_Lab/drivers/third_party/ST/STM32L4xx_HAL_Driver/Src\stm32l4xx_hal_flash.c ****   uint8_t row_index = (2*FLASH_NB_DOUBLE_WORDS_IN_ROW);
 1522              		.loc 1 798 0
 1523 000a 4023     		movs	r3, #64
 1524 000c FB75     		strb	r3, [r7, #23]
 799:E:/LiteOS/LiteOS_Lab/drivers/third_party/ST/STM32L4xx_HAL_Driver/Src\stm32l4xx_hal_flash.c ****   __IO uint32_t *dest_addr = (__IO uint32_t*)Address;
 1525              		.loc 1 799 0
 1526 000e 7B68     		ldr	r3, [r7, #4]
 1527 0010 3B61     		str	r3, [r7, #16]
 800:E:/LiteOS/LiteOS_Lab/drivers/third_party/ST/STM32L4xx_HAL_Driver/Src\stm32l4xx_hal_flash.c ****   __IO uint32_t *src_addr = (__IO uint32_t*)DataAddress;
 1528              		.loc 1 800 0
 1529 0012 3B68     		ldr	r3, [r7]
 1530 0014 FB60     		str	r3, [r7, #12]
 801:E:/LiteOS/LiteOS_Lab/drivers/third_party/ST/STM32L4xx_HAL_Driver/Src\stm32l4xx_hal_flash.c **** 
 802:E:/LiteOS/LiteOS_Lab/drivers/third_party/ST/STM32L4xx_HAL_Driver/Src\stm32l4xx_hal_flash.c ****   /* Check the parameters */
 803:E:/LiteOS/LiteOS_Lab/drivers/third_party/ST/STM32L4xx_HAL_Driver/Src\stm32l4xx_hal_flash.c ****   assert_param(IS_FLASH_MAIN_MEM_ADDRESS(Address));
 804:E:/LiteOS/LiteOS_Lab/drivers/third_party/ST/STM32L4xx_HAL_Driver/Src\stm32l4xx_hal_flash.c **** 
 805:E:/LiteOS/LiteOS_Lab/drivers/third_party/ST/STM32L4xx_HAL_Driver/Src\stm32l4xx_hal_flash.c ****   /* Set FSTPG bit */
 806:E:/LiteOS/LiteOS_Lab/drivers/third_party/ST/STM32L4xx_HAL_Driver/Src\stm32l4xx_hal_flash.c ****   SET_BIT(FLASH->CR, FLASH_CR_FSTPG);
 1531              		.loc 1 806 0
 1532 0016 0E4B     		ldr	r3, .L103
 1533 0018 5B69     		ldr	r3, [r3, #20]
 1534 001a 0D4A     		ldr	r2, .L103
 1535 001c 43F48023 		orr	r3, r3, #262144
 1536 0020 5361     		str	r3, [r2, #20]
 1537              	.LBB6:
 1538              	.LBB7:
 1539              		.file 2 "E:/LiteOS/LiteOS_Lab/iot_link/os/os_imp/liteos/arch/arm/common/cmsis/cmsis_gcc.h"
   1:E:/LiteOS/LiteOS_Lab/iot_link/os/os_imp/liteos/arch/arm/common/cmsis\cmsis_gcc.h **** /**************************************************************************//**
   2:E:/LiteOS/LiteOS_Lab/iot_link/os/os_imp/liteos/arch/arm/common/cmsis\cmsis_gcc.h ****  * @file     cmsis_gcc.h
   3:E:/LiteOS/LiteOS_Lab/iot_link/os/os_imp/liteos/arch/arm/common/cmsis\cmsis_gcc.h ****  * @brief    CMSIS compiler GCC header file
   4:E:/LiteOS/LiteOS_Lab/iot_link/os/os_imp/liteos/arch/arm/common/cmsis\cmsis_gcc.h ****  * @version  V5.0.1
   5:E:/LiteOS/LiteOS_Lab/iot_link/os/os_imp/liteos/arch/arm/common/cmsis\cmsis_gcc.h ****  * @date     02. February 2017
   6:E:/LiteOS/LiteOS_Lab/iot_link/os/os_imp/liteos/arch/arm/common/cmsis\cmsis_gcc.h ****  ******************************************************************************/
   7:E:/LiteOS/LiteOS_Lab/iot_link/os/os_imp/liteos/arch/arm/common/cmsis\cmsis_gcc.h **** /*
ARM GAS  C:\Users\user\AppData\Local\Temp\cc8eMbwy.s 			page 42


   8:E:/LiteOS/LiteOS_Lab/iot_link/os/os_imp/liteos/arch/arm/common/cmsis\cmsis_gcc.h ****  * Copyright (c) 2009-2017 ARM Limited. All rights reserved.
   9:E:/LiteOS/LiteOS_Lab/iot_link/os/os_imp/liteos/arch/arm/common/cmsis\cmsis_gcc.h ****  *
  10:E:/LiteOS/LiteOS_Lab/iot_link/os/os_imp/liteos/arch/arm/common/cmsis\cmsis_gcc.h ****  * SPDX-License-Identifier: Apache-2.0
  11:E:/LiteOS/LiteOS_Lab/iot_link/os/os_imp/liteos/arch/arm/common/cmsis\cmsis_gcc.h ****  *
  12:E:/LiteOS/LiteOS_Lab/iot_link/os/os_imp/liteos/arch/arm/common/cmsis\cmsis_gcc.h ****  * Licensed under the Apache License, Version 2.0 (the License); you may
  13:E:/LiteOS/LiteOS_Lab/iot_link/os/os_imp/liteos/arch/arm/common/cmsis\cmsis_gcc.h ****  * not use this file except in compliance with the License.
  14:E:/LiteOS/LiteOS_Lab/iot_link/os/os_imp/liteos/arch/arm/common/cmsis\cmsis_gcc.h ****  * You may obtain a copy of the License at
  15:E:/LiteOS/LiteOS_Lab/iot_link/os/os_imp/liteos/arch/arm/common/cmsis\cmsis_gcc.h ****  *
  16:E:/LiteOS/LiteOS_Lab/iot_link/os/os_imp/liteos/arch/arm/common/cmsis\cmsis_gcc.h ****  * www.apache.org/licenses/LICENSE-2.0
  17:E:/LiteOS/LiteOS_Lab/iot_link/os/os_imp/liteos/arch/arm/common/cmsis\cmsis_gcc.h ****  *
  18:E:/LiteOS/LiteOS_Lab/iot_link/os/os_imp/liteos/arch/arm/common/cmsis\cmsis_gcc.h ****  * Unless required by applicable law or agreed to in writing, software
  19:E:/LiteOS/LiteOS_Lab/iot_link/os/os_imp/liteos/arch/arm/common/cmsis\cmsis_gcc.h ****  * distributed under the License is distributed on an AS IS BASIS, WITHOUT
  20:E:/LiteOS/LiteOS_Lab/iot_link/os/os_imp/liteos/arch/arm/common/cmsis\cmsis_gcc.h ****  * WARRANTIES OR CONDITIONS OF ANY KIND, either express or implied.
  21:E:/LiteOS/LiteOS_Lab/iot_link/os/os_imp/liteos/arch/arm/common/cmsis\cmsis_gcc.h ****  * See the License for the specific language governing permissions and
  22:E:/LiteOS/LiteOS_Lab/iot_link/os/os_imp/liteos/arch/arm/common/cmsis\cmsis_gcc.h ****  * limitations under the License.
  23:E:/LiteOS/LiteOS_Lab/iot_link/os/os_imp/liteos/arch/arm/common/cmsis\cmsis_gcc.h ****  */
  24:E:/LiteOS/LiteOS_Lab/iot_link/os/os_imp/liteos/arch/arm/common/cmsis\cmsis_gcc.h **** 
  25:E:/LiteOS/LiteOS_Lab/iot_link/os/os_imp/liteos/arch/arm/common/cmsis\cmsis_gcc.h **** #ifndef __CMSIS_GCC_H
  26:E:/LiteOS/LiteOS_Lab/iot_link/os/os_imp/liteos/arch/arm/common/cmsis\cmsis_gcc.h **** #define __CMSIS_GCC_H
  27:E:/LiteOS/LiteOS_Lab/iot_link/os/os_imp/liteos/arch/arm/common/cmsis\cmsis_gcc.h **** 
  28:E:/LiteOS/LiteOS_Lab/iot_link/os/os_imp/liteos/arch/arm/common/cmsis\cmsis_gcc.h **** /* ignore some GCC warnings */
  29:E:/LiteOS/LiteOS_Lab/iot_link/os/os_imp/liteos/arch/arm/common/cmsis\cmsis_gcc.h **** #pragma GCC diagnostic push
  30:E:/LiteOS/LiteOS_Lab/iot_link/os/os_imp/liteos/arch/arm/common/cmsis\cmsis_gcc.h **** #pragma GCC diagnostic ignored "-Wsign-conversion"
  31:E:/LiteOS/LiteOS_Lab/iot_link/os/os_imp/liteos/arch/arm/common/cmsis\cmsis_gcc.h **** #pragma GCC diagnostic ignored "-Wconversion"
  32:E:/LiteOS/LiteOS_Lab/iot_link/os/os_imp/liteos/arch/arm/common/cmsis\cmsis_gcc.h **** #pragma GCC diagnostic ignored "-Wunused-parameter"
  33:E:/LiteOS/LiteOS_Lab/iot_link/os/os_imp/liteos/arch/arm/common/cmsis\cmsis_gcc.h **** 
  34:E:/LiteOS/LiteOS_Lab/iot_link/os/os_imp/liteos/arch/arm/common/cmsis\cmsis_gcc.h **** /* CMSIS compiler specific defines */
  35:E:/LiteOS/LiteOS_Lab/iot_link/os/os_imp/liteos/arch/arm/common/cmsis\cmsis_gcc.h **** #ifndef   __ASM
  36:E:/LiteOS/LiteOS_Lab/iot_link/os/os_imp/liteos/arch/arm/common/cmsis\cmsis_gcc.h ****   #define __ASM                     __asm
  37:E:/LiteOS/LiteOS_Lab/iot_link/os/os_imp/liteos/arch/arm/common/cmsis\cmsis_gcc.h **** #endif
  38:E:/LiteOS/LiteOS_Lab/iot_link/os/os_imp/liteos/arch/arm/common/cmsis\cmsis_gcc.h **** #ifndef   __INLINE
  39:E:/LiteOS/LiteOS_Lab/iot_link/os/os_imp/liteos/arch/arm/common/cmsis\cmsis_gcc.h ****   #define __INLINE                  inline
  40:E:/LiteOS/LiteOS_Lab/iot_link/os/os_imp/liteos/arch/arm/common/cmsis\cmsis_gcc.h **** #endif
  41:E:/LiteOS/LiteOS_Lab/iot_link/os/os_imp/liteos/arch/arm/common/cmsis\cmsis_gcc.h **** #ifndef   __STATIC_INLINE
  42:E:/LiteOS/LiteOS_Lab/iot_link/os/os_imp/liteos/arch/arm/common/cmsis\cmsis_gcc.h ****   #define __STATIC_INLINE           static inline
  43:E:/LiteOS/LiteOS_Lab/iot_link/os/os_imp/liteos/arch/arm/common/cmsis\cmsis_gcc.h **** #endif
  44:E:/LiteOS/LiteOS_Lab/iot_link/os/os_imp/liteos/arch/arm/common/cmsis\cmsis_gcc.h **** #ifndef   __NO_RETURN
  45:E:/LiteOS/LiteOS_Lab/iot_link/os/os_imp/liteos/arch/arm/common/cmsis\cmsis_gcc.h ****   #define __NO_RETURN               __attribute__((noreturn))
  46:E:/LiteOS/LiteOS_Lab/iot_link/os/os_imp/liteos/arch/arm/common/cmsis\cmsis_gcc.h **** #endif
  47:E:/LiteOS/LiteOS_Lab/iot_link/os/os_imp/liteos/arch/arm/common/cmsis\cmsis_gcc.h **** #ifndef   __USED
  48:E:/LiteOS/LiteOS_Lab/iot_link/os/os_imp/liteos/arch/arm/common/cmsis\cmsis_gcc.h ****   #define __USED                    __attribute__((used))
  49:E:/LiteOS/LiteOS_Lab/iot_link/os/os_imp/liteos/arch/arm/common/cmsis\cmsis_gcc.h **** #endif
  50:E:/LiteOS/LiteOS_Lab/iot_link/os/os_imp/liteos/arch/arm/common/cmsis\cmsis_gcc.h **** #ifndef   __WEAK
  51:E:/LiteOS/LiteOS_Lab/iot_link/os/os_imp/liteos/arch/arm/common/cmsis\cmsis_gcc.h ****   #define __WEAK                    __attribute__((weak))
  52:E:/LiteOS/LiteOS_Lab/iot_link/os/os_imp/liteos/arch/arm/common/cmsis\cmsis_gcc.h **** #endif
  53:E:/LiteOS/LiteOS_Lab/iot_link/os/os_imp/liteos/arch/arm/common/cmsis\cmsis_gcc.h **** #ifndef   __UNALIGNED_UINT32
  54:E:/LiteOS/LiteOS_Lab/iot_link/os/os_imp/liteos/arch/arm/common/cmsis\cmsis_gcc.h **** #pragma GCC diagnostic push
  55:E:/LiteOS/LiteOS_Lab/iot_link/os/os_imp/liteos/arch/arm/common/cmsis\cmsis_gcc.h **** #pragma GCC diagnostic ignored "-Wpacked"
  56:E:/LiteOS/LiteOS_Lab/iot_link/os/os_imp/liteos/arch/arm/common/cmsis\cmsis_gcc.h **** #pragma GCC diagnostic ignored "-Wattributes"
  57:E:/LiteOS/LiteOS_Lab/iot_link/os/os_imp/liteos/arch/arm/common/cmsis\cmsis_gcc.h ****   struct __attribute__((packed)) T_UINT32 { uint32_t v; };
  58:E:/LiteOS/LiteOS_Lab/iot_link/os/os_imp/liteos/arch/arm/common/cmsis\cmsis_gcc.h **** #pragma GCC diagnostic pop
  59:E:/LiteOS/LiteOS_Lab/iot_link/os/os_imp/liteos/arch/arm/common/cmsis\cmsis_gcc.h ****   #define __UNALIGNED_UINT32(x)     (((struct T_UINT32 *)(x))->v)
  60:E:/LiteOS/LiteOS_Lab/iot_link/os/os_imp/liteos/arch/arm/common/cmsis\cmsis_gcc.h **** #endif
  61:E:/LiteOS/LiteOS_Lab/iot_link/os/os_imp/liteos/arch/arm/common/cmsis\cmsis_gcc.h **** #ifndef   __ALIGNED
  62:E:/LiteOS/LiteOS_Lab/iot_link/os/os_imp/liteos/arch/arm/common/cmsis\cmsis_gcc.h ****   #define __ALIGNED(x)              __attribute__((aligned(x)))
  63:E:/LiteOS/LiteOS_Lab/iot_link/os/os_imp/liteos/arch/arm/common/cmsis\cmsis_gcc.h **** #endif
  64:E:/LiteOS/LiteOS_Lab/iot_link/os/os_imp/liteos/arch/arm/common/cmsis\cmsis_gcc.h **** #ifndef   __PACKED
ARM GAS  C:\Users\user\AppData\Local\Temp\cc8eMbwy.s 			page 43


  65:E:/LiteOS/LiteOS_Lab/iot_link/os/os_imp/liteos/arch/arm/common/cmsis\cmsis_gcc.h ****   #define __PACKED                  __attribute__((packed, aligned(1)))
  66:E:/LiteOS/LiteOS_Lab/iot_link/os/os_imp/liteos/arch/arm/common/cmsis\cmsis_gcc.h **** #endif
  67:E:/LiteOS/LiteOS_Lab/iot_link/os/os_imp/liteos/arch/arm/common/cmsis\cmsis_gcc.h **** #ifndef   __PACKED_STRUCT
  68:E:/LiteOS/LiteOS_Lab/iot_link/os/os_imp/liteos/arch/arm/common/cmsis\cmsis_gcc.h ****   #define __PACKED_STRUCT           struct __attribute__((packed, aligned(1)))
  69:E:/LiteOS/LiteOS_Lab/iot_link/os/os_imp/liteos/arch/arm/common/cmsis\cmsis_gcc.h **** #endif
  70:E:/LiteOS/LiteOS_Lab/iot_link/os/os_imp/liteos/arch/arm/common/cmsis\cmsis_gcc.h **** 
  71:E:/LiteOS/LiteOS_Lab/iot_link/os/os_imp/liteos/arch/arm/common/cmsis\cmsis_gcc.h **** 
  72:E:/LiteOS/LiteOS_Lab/iot_link/os/os_imp/liteos/arch/arm/common/cmsis\cmsis_gcc.h **** /* ###########################  Core Function Access  ########################### */
  73:E:/LiteOS/LiteOS_Lab/iot_link/os/os_imp/liteos/arch/arm/common/cmsis\cmsis_gcc.h **** /** \ingroup  CMSIS_Core_FunctionInterface
  74:E:/LiteOS/LiteOS_Lab/iot_link/os/os_imp/liteos/arch/arm/common/cmsis\cmsis_gcc.h ****     \defgroup CMSIS_Core_RegAccFunctions CMSIS Core Register Access Functions
  75:E:/LiteOS/LiteOS_Lab/iot_link/os/os_imp/liteos/arch/arm/common/cmsis\cmsis_gcc.h ****   @{
  76:E:/LiteOS/LiteOS_Lab/iot_link/os/os_imp/liteos/arch/arm/common/cmsis\cmsis_gcc.h ****  */
  77:E:/LiteOS/LiteOS_Lab/iot_link/os/os_imp/liteos/arch/arm/common/cmsis\cmsis_gcc.h **** 
  78:E:/LiteOS/LiteOS_Lab/iot_link/os/os_imp/liteos/arch/arm/common/cmsis\cmsis_gcc.h **** /**
  79:E:/LiteOS/LiteOS_Lab/iot_link/os/os_imp/liteos/arch/arm/common/cmsis\cmsis_gcc.h ****   \brief   Enable IRQ Interrupts
  80:E:/LiteOS/LiteOS_Lab/iot_link/os/os_imp/liteos/arch/arm/common/cmsis\cmsis_gcc.h ****   \details Enables IRQ interrupts by clearing the I-bit in the CPSR.
  81:E:/LiteOS/LiteOS_Lab/iot_link/os/os_imp/liteos/arch/arm/common/cmsis\cmsis_gcc.h ****            Can only be executed in Privileged modes.
  82:E:/LiteOS/LiteOS_Lab/iot_link/os/os_imp/liteos/arch/arm/common/cmsis\cmsis_gcc.h ****  */
  83:E:/LiteOS/LiteOS_Lab/iot_link/os/os_imp/liteos/arch/arm/common/cmsis\cmsis_gcc.h **** __attribute__((always_inline)) __STATIC_INLINE void __enable_irq(void)
  84:E:/LiteOS/LiteOS_Lab/iot_link/os/os_imp/liteos/arch/arm/common/cmsis\cmsis_gcc.h **** {
  85:E:/LiteOS/LiteOS_Lab/iot_link/os/os_imp/liteos/arch/arm/common/cmsis\cmsis_gcc.h ****   __ASM volatile ("cpsie i" : : : "memory");
  86:E:/LiteOS/LiteOS_Lab/iot_link/os/os_imp/liteos/arch/arm/common/cmsis\cmsis_gcc.h **** }
  87:E:/LiteOS/LiteOS_Lab/iot_link/os/os_imp/liteos/arch/arm/common/cmsis\cmsis_gcc.h **** 
  88:E:/LiteOS/LiteOS_Lab/iot_link/os/os_imp/liteos/arch/arm/common/cmsis\cmsis_gcc.h **** 
  89:E:/LiteOS/LiteOS_Lab/iot_link/os/os_imp/liteos/arch/arm/common/cmsis\cmsis_gcc.h **** /**
  90:E:/LiteOS/LiteOS_Lab/iot_link/os/os_imp/liteos/arch/arm/common/cmsis\cmsis_gcc.h ****   \brief   Disable IRQ Interrupts
  91:E:/LiteOS/LiteOS_Lab/iot_link/os/os_imp/liteos/arch/arm/common/cmsis\cmsis_gcc.h ****   \details Disables IRQ interrupts by setting the I-bit in the CPSR.
  92:E:/LiteOS/LiteOS_Lab/iot_link/os/os_imp/liteos/arch/arm/common/cmsis\cmsis_gcc.h ****            Can only be executed in Privileged modes.
  93:E:/LiteOS/LiteOS_Lab/iot_link/os/os_imp/liteos/arch/arm/common/cmsis\cmsis_gcc.h ****  */
  94:E:/LiteOS/LiteOS_Lab/iot_link/os/os_imp/liteos/arch/arm/common/cmsis\cmsis_gcc.h **** __attribute__((always_inline)) __STATIC_INLINE void __disable_irq(void)
  95:E:/LiteOS/LiteOS_Lab/iot_link/os/os_imp/liteos/arch/arm/common/cmsis\cmsis_gcc.h **** {
  96:E:/LiteOS/LiteOS_Lab/iot_link/os/os_imp/liteos/arch/arm/common/cmsis\cmsis_gcc.h ****   __ASM volatile ("cpsid i" : : : "memory");
 1540              		.loc 2 96 0
 1541              		.syntax unified
 1542              	@ 96 "E:/LiteOS/LiteOS_Lab/iot_link/os/os_imp/liteos/arch/arm/common/cmsis/cmsis_gcc.h" 1
 1543 0022 72B6     		cpsid i
 1544              	@ 0 "" 2
 1545              		.thumb
 1546              		.syntax unified
 1547              	.L102:
 1548              	.LBE7:
 1549              	.LBE6:
 807:E:/LiteOS/LiteOS_Lab/drivers/third_party/ST/STM32L4xx_HAL_Driver/Src\stm32l4xx_hal_flash.c ****   
 808:E:/LiteOS/LiteOS_Lab/drivers/third_party/ST/STM32L4xx_HAL_Driver/Src\stm32l4xx_hal_flash.c ****   /* Disable interrupts to avoid any interruption during the loop */
 809:E:/LiteOS/LiteOS_Lab/drivers/third_party/ST/STM32L4xx_HAL_Driver/Src\stm32l4xx_hal_flash.c ****   __disable_irq();
 810:E:/LiteOS/LiteOS_Lab/drivers/third_party/ST/STM32L4xx_HAL_Driver/Src\stm32l4xx_hal_flash.c ****   
 811:E:/LiteOS/LiteOS_Lab/drivers/third_party/ST/STM32L4xx_HAL_Driver/Src\stm32l4xx_hal_flash.c ****   /* Program the double word of the row */
 812:E:/LiteOS/LiteOS_Lab/drivers/third_party/ST/STM32L4xx_HAL_Driver/Src\stm32l4xx_hal_flash.c ****   do
 813:E:/LiteOS/LiteOS_Lab/drivers/third_party/ST/STM32L4xx_HAL_Driver/Src\stm32l4xx_hal_flash.c ****   {
 814:E:/LiteOS/LiteOS_Lab/drivers/third_party/ST/STM32L4xx_HAL_Driver/Src\stm32l4xx_hal_flash.c ****     *dest_addr++ = *src_addr++;
 1550              		.loc 1 814 0 discriminator 1
 1551 0024 FA68     		ldr	r2, [r7, #12]
 1552 0026 131D     		adds	r3, r2, #4
 1553 0028 FB60     		str	r3, [r7, #12]
 1554 002a 3B69     		ldr	r3, [r7, #16]
 1555 002c 191D     		adds	r1, r3, #4
 1556 002e 3961     		str	r1, [r7, #16]
ARM GAS  C:\Users\user\AppData\Local\Temp\cc8eMbwy.s 			page 44


 1557 0030 1268     		ldr	r2, [r2]
 1558 0032 1A60     		str	r2, [r3]
 815:E:/LiteOS/LiteOS_Lab/drivers/third_party/ST/STM32L4xx_HAL_Driver/Src\stm32l4xx_hal_flash.c ****   } while (--row_index != 0);
 1559              		.loc 1 815 0 discriminator 1
 1560 0034 FB7D     		ldrb	r3, [r7, #23]
 1561 0036 013B     		subs	r3, r3, #1
 1562 0038 FB75     		strb	r3, [r7, #23]
 1563 003a FB7D     		ldrb	r3, [r7, #23]	@ zero_extendqisi2
 1564 003c 002B     		cmp	r3, #0
 1565 003e F1D1     		bne	.L102
 1566              	.LBB8:
 1567              	.LBB9:
  85:E:/LiteOS/LiteOS_Lab/iot_link/os/os_imp/liteos/arch/arm/common/cmsis\cmsis_gcc.h **** }
 1568              		.loc 2 85 0
 1569              		.syntax unified
 1570              	@ 85 "E:/LiteOS/LiteOS_Lab/iot_link/os/os_imp/liteos/arch/arm/common/cmsis/cmsis_gcc.h" 1
 1571 0040 62B6     		cpsie i
 1572              	@ 0 "" 2
 1573              		.thumb
 1574              		.syntax unified
 1575              	.LBE9:
 1576              	.LBE8:
 816:E:/LiteOS/LiteOS_Lab/drivers/third_party/ST/STM32L4xx_HAL_Driver/Src\stm32l4xx_hal_flash.c **** 
 817:E:/LiteOS/LiteOS_Lab/drivers/third_party/ST/STM32L4xx_HAL_Driver/Src\stm32l4xx_hal_flash.c ****   /* Re-enable the interrupts */
 818:E:/LiteOS/LiteOS_Lab/drivers/third_party/ST/STM32L4xx_HAL_Driver/Src\stm32l4xx_hal_flash.c ****   __enable_irq();
 819:E:/LiteOS/LiteOS_Lab/drivers/third_party/ST/STM32L4xx_HAL_Driver/Src\stm32l4xx_hal_flash.c **** }
 1577              		.loc 1 819 0
 1578 0042 00BF     		nop
 1579 0044 1C37     		adds	r7, r7, #28
 1580              	.LCFI69:
 1581              		.cfi_def_cfa_offset 4
 1582 0046 BD46     		mov	sp, r7
 1583              	.LCFI70:
 1584              		.cfi_def_cfa_register 13
 1585              		@ sp needed
 1586 0048 5DF8047B 		ldr	r7, [sp], #4
 1587              	.LCFI71:
 1588              		.cfi_restore 7
 1589              		.cfi_def_cfa_offset 0
 1590 004c 7047     		bx	lr
 1591              	.L104:
 1592 004e 00BF     		.align	2
 1593              	.L103:
 1594 0050 00200240 		.word	1073881088
 1595              		.cfi_endproc
 1596              	.LFE147:
 1598              		.text
 1599              	.Letext0:
 1600              		.file 3 "e:\\ac6\\systemworkbench\\plugins\\fr.ac6.mcu.externaltools.arm-none.win32_1.16.0.2018071
 1601              		.file 4 "e:\\ac6\\systemworkbench\\plugins\\fr.ac6.mcu.externaltools.arm-none.win32_1.16.0.2018071
 1602              		.file 5 "e:\\ac6\\systemworkbench\\plugins\\fr.ac6.mcu.externaltools.arm-none.win32_1.16.0.2018071
 1603              		.file 6 "e:\\ac6\\systemworkbench\\plugins\\fr.ac6.mcu.externaltools.arm-none.win32_1.16.0.2018071
 1604              		.file 7 "e:\\ac6\\systemworkbench\\plugins\\fr.ac6.mcu.externaltools.arm-none.win32_1.16.0.2018071
 1605              		.file 8 "E:/LiteOS/LiteOS_Lab/iot_link/os/os_imp/liteos/include/los_typedef.h"
 1606              		.file 9 "e:\\ac6\\systemworkbench\\plugins\\fr.ac6.mcu.externaltools.arm-none.win32_1.16.0.2018071
 1607              		.file 10 "E:/LiteOS/LiteOS_Lab/iot_link/os/os_imp/liteos/arch/arm/common/cmsis/core_cm4.h"
 1608              		.file 11 "E:/LiteOS/LiteOS_Lab/targets/STM32L431_BearPi/Inc/system_stm32l4xx.h"
ARM GAS  C:\Users\user\AppData\Local\Temp\cc8eMbwy.s 			page 45


 1609              		.file 12 "E:/LiteOS/LiteOS_Lab/targets/STM32L431_BearPi/Inc/stm32l431xx.h"
 1610              		.file 13 "E:/LiteOS/LiteOS_Lab/iot_link/os/os_imp/liteos/include/los_config.h"
 1611              		.file 14 "E:/LiteOS/LiteOS_Lab/iot_link/os/os_imp/liteos/include/los_list.h"
 1612              		.file 15 "E:/LiteOS/LiteOS_Lab/iot_link/os/os_imp/liteos/include/los_err.h"
 1613              		.file 16 "E:/LiteOS/LiteOS_Lab/iot_link/os/os_imp/liteos/arch/arm/arm-m/include/los_hwi.h"
 1614              		.file 17 "E:/LiteOS/LiteOS_Lab/iot_link/os/os_imp/liteos/include/los_tick.h"
 1615              		.file 18 "E:/LiteOS/LiteOS_Lab/iot_link/os/os_imp/liteos/include/los_event.h"
 1616              		.file 19 "E:/LiteOS/LiteOS_Lab/iot_link/os/os_imp/liteos/include/los_task.h"
 1617              		.file 20 "E:/LiteOS/LiteOS_Lab/iot_link/os/os_imp/liteos/base/include/los_task.ph"
 1618              		.file 21 "E:/LiteOS/LiteOS_Lab/targets/STM32L431_BearPi/Inc/main.h"
 1619              		.file 22 "E:/LiteOS/LiteOS_Lab/targets/STM32L431_BearPi/Inc/stm32l4xx.h"
 1620              		.file 23 "E:/LiteOS/LiteOS_Lab/drivers/third_party/ST/STM32L4xx_HAL_Driver/Inc/stm32l4xx_hal_def.h
 1621              		.file 24 "E:/LiteOS/LiteOS_Lab/drivers/third_party/ST/STM32L4xx_HAL_Driver/Inc/stm32l4xx_hal_flash
ARM GAS  C:\Users\user\AppData\Local\Temp\cc8eMbwy.s 			page 46

