ARM GAS  C:\Users\user\AppData\Local\Temp\cc8h2Hq4.s 			page 1


   1              		.cpu cortex-m4
   2              		.eabi_attribute 27, 1
   3              		.eabi_attribute 28, 1
   4              		.eabi_attribute 20, 1
   5              		.eabi_attribute 21, 1
   6              		.eabi_attribute 23, 3
   7              		.eabi_attribute 24, 1
   8              		.eabi_attribute 25, 1
   9              		.eabi_attribute 26, 1
  10              		.eabi_attribute 30, 6
  11              		.eabi_attribute 34, 1
  12              		.eabi_attribute 18, 4
  13              		.file	"stm32l4xx_it.c"
  14              		.text
  15              	.Ltext0:
  16              		.cfi_sections	.debug_frame
  17              		.section	.text.NMI_Handler,"ax",%progbits
  18              		.align	1
  19              		.global	NMI_Handler
  20              		.syntax unified
  21              		.thumb
  22              		.thumb_func
  23              		.fpu fpv4-sp-d16
  25              	NMI_Handler:
  26              	.LFB133:
  27              		.file 1 "E:/LiteOS/LiteOS_Lab/targets/STM32L431_BearPi/Src/stm32l4xx_it.c"
   1:E:/LiteOS/LiteOS_Lab/targets/STM32L431_BearPi/Src\stm32l4xx_it.c **** /**
   2:E:/LiteOS/LiteOS_Lab/targets/STM32L431_BearPi/Src\stm32l4xx_it.c ****   ******************************************************************************
   3:E:/LiteOS/LiteOS_Lab/targets/STM32L431_BearPi/Src\stm32l4xx_it.c ****   * @file    stm32l4xx_it.c
   4:E:/LiteOS/LiteOS_Lab/targets/STM32L431_BearPi/Src\stm32l4xx_it.c ****   * @brief   Interrupt Service Routines.
   5:E:/LiteOS/LiteOS_Lab/targets/STM32L431_BearPi/Src\stm32l4xx_it.c ****   ******************************************************************************
   6:E:/LiteOS/LiteOS_Lab/targets/STM32L431_BearPi/Src\stm32l4xx_it.c ****   *
   7:E:/LiteOS/LiteOS_Lab/targets/STM32L431_BearPi/Src\stm32l4xx_it.c ****   * COPYRIGHT(c) 2018 STMicroelectronics
   8:E:/LiteOS/LiteOS_Lab/targets/STM32L431_BearPi/Src\stm32l4xx_it.c ****   *
   9:E:/LiteOS/LiteOS_Lab/targets/STM32L431_BearPi/Src\stm32l4xx_it.c ****   * Redistribution and use in source and binary forms, with or without modification,
  10:E:/LiteOS/LiteOS_Lab/targets/STM32L431_BearPi/Src\stm32l4xx_it.c ****   * are permitted provided that the following conditions are met:
  11:E:/LiteOS/LiteOS_Lab/targets/STM32L431_BearPi/Src\stm32l4xx_it.c ****   *   1. Redistributions of source code must retain the above copyright notice,
  12:E:/LiteOS/LiteOS_Lab/targets/STM32L431_BearPi/Src\stm32l4xx_it.c ****   *      this list of conditions and the following disclaimer.
  13:E:/LiteOS/LiteOS_Lab/targets/STM32L431_BearPi/Src\stm32l4xx_it.c ****   *   2. Redistributions in binary form must reproduce the above copyright notice,
  14:E:/LiteOS/LiteOS_Lab/targets/STM32L431_BearPi/Src\stm32l4xx_it.c ****   *      this list of conditions and the following disclaimer in the documentation
  15:E:/LiteOS/LiteOS_Lab/targets/STM32L431_BearPi/Src\stm32l4xx_it.c ****   *      and/or other materials provided with the distribution.
  16:E:/LiteOS/LiteOS_Lab/targets/STM32L431_BearPi/Src\stm32l4xx_it.c ****   *   3. Neither the name of STMicroelectronics nor the names of its contributors
  17:E:/LiteOS/LiteOS_Lab/targets/STM32L431_BearPi/Src\stm32l4xx_it.c ****   *      may be used to endorse or promote products derived from this software
  18:E:/LiteOS/LiteOS_Lab/targets/STM32L431_BearPi/Src\stm32l4xx_it.c ****   *      without specific prior written permission.
  19:E:/LiteOS/LiteOS_Lab/targets/STM32L431_BearPi/Src\stm32l4xx_it.c ****   *
  20:E:/LiteOS/LiteOS_Lab/targets/STM32L431_BearPi/Src\stm32l4xx_it.c ****   * THIS SOFTWARE IS PROVIDED BY THE COPYRIGHT HOLDERS AND CONTRIBUTORS "AS IS"
  21:E:/LiteOS/LiteOS_Lab/targets/STM32L431_BearPi/Src\stm32l4xx_it.c ****   * AND ANY EXPRESS OR IMPLIED WARRANTIES, INCLUDING, BUT NOT LIMITED TO, THE
  22:E:/LiteOS/LiteOS_Lab/targets/STM32L431_BearPi/Src\stm32l4xx_it.c ****   * IMPLIED WARRANTIES OF MERCHANTABILITY AND FITNESS FOR A PARTICULAR PURPOSE ARE
  23:E:/LiteOS/LiteOS_Lab/targets/STM32L431_BearPi/Src\stm32l4xx_it.c ****   * DISCLAIMED. IN NO EVENT SHALL THE COPYRIGHT HOLDER OR CONTRIBUTORS BE LIABLE
  24:E:/LiteOS/LiteOS_Lab/targets/STM32L431_BearPi/Src\stm32l4xx_it.c ****   * FOR ANY DIRECT, INDIRECT, INCIDENTAL, SPECIAL, EXEMPLARY, OR CONSEQUENTIAL
  25:E:/LiteOS/LiteOS_Lab/targets/STM32L431_BearPi/Src\stm32l4xx_it.c ****   * DAMAGES (INCLUDING, BUT NOT LIMITED TO, PROCUREMENT OF SUBSTITUTE GOODS OR
  26:E:/LiteOS/LiteOS_Lab/targets/STM32L431_BearPi/Src\stm32l4xx_it.c ****   * SERVICES; LOSS OF USE, DATA, OR PROFITS; OR BUSINESS INTERRUPTION) HOWEVER
  27:E:/LiteOS/LiteOS_Lab/targets/STM32L431_BearPi/Src\stm32l4xx_it.c ****   * CAUSED AND ON ANY THEORY OF LIABILITY, WHETHER IN CONTRACT, STRICT LIABILITY,
  28:E:/LiteOS/LiteOS_Lab/targets/STM32L431_BearPi/Src\stm32l4xx_it.c ****   * OR TORT (INCLUDING NEGLIGENCE OR OTHERWISE) ARISING IN ANY WAY OUT OF THE USE
  29:E:/LiteOS/LiteOS_Lab/targets/STM32L431_BearPi/Src\stm32l4xx_it.c ****   * OF THIS SOFTWARE, EVEN IF ADVISED OF THE POSSIBILITY OF SUCH DAMAGE.
  30:E:/LiteOS/LiteOS_Lab/targets/STM32L431_BearPi/Src\stm32l4xx_it.c ****   *
  31:E:/LiteOS/LiteOS_Lab/targets/STM32L431_BearPi/Src\stm32l4xx_it.c ****   ******************************************************************************
ARM GAS  C:\Users\user\AppData\Local\Temp\cc8h2Hq4.s 			page 2


  32:E:/LiteOS/LiteOS_Lab/targets/STM32L431_BearPi/Src\stm32l4xx_it.c ****   */
  33:E:/LiteOS/LiteOS_Lab/targets/STM32L431_BearPi/Src\stm32l4xx_it.c **** /* Includes ------------------------------------------------------------------*/
  34:E:/LiteOS/LiteOS_Lab/targets/STM32L431_BearPi/Src\stm32l4xx_it.c **** #include "stm32l4xx_hal.h"
  35:E:/LiteOS/LiteOS_Lab/targets/STM32L431_BearPi/Src\stm32l4xx_it.c **** #include "stm32l4xx.h"
  36:E:/LiteOS/LiteOS_Lab/targets/STM32L431_BearPi/Src\stm32l4xx_it.c **** #include "stm32l4xx_it.h"
  37:E:/LiteOS/LiteOS_Lab/targets/STM32L431_BearPi/Src\stm32l4xx_it.c **** 
  38:E:/LiteOS/LiteOS_Lab/targets/STM32L431_BearPi/Src\stm32l4xx_it.c **** /* USER CODE BEGIN 0 */
  39:E:/LiteOS/LiteOS_Lab/targets/STM32L431_BearPi/Src\stm32l4xx_it.c **** 
  40:E:/LiteOS/LiteOS_Lab/targets/STM32L431_BearPi/Src\stm32l4xx_it.c **** /* USER CODE END 0 */
  41:E:/LiteOS/LiteOS_Lab/targets/STM32L431_BearPi/Src\stm32l4xx_it.c **** 
  42:E:/LiteOS/LiteOS_Lab/targets/STM32L431_BearPi/Src\stm32l4xx_it.c **** /* External variables --------------------------------------------------------*/
  43:E:/LiteOS/LiteOS_Lab/targets/STM32L431_BearPi/Src\stm32l4xx_it.c **** extern UART_HandleTypeDef huart1;
  44:E:/LiteOS/LiteOS_Lab/targets/STM32L431_BearPi/Src\stm32l4xx_it.c **** extern UART_HandleTypeDef huart2;
  45:E:/LiteOS/LiteOS_Lab/targets/STM32L431_BearPi/Src\stm32l4xx_it.c **** 
  46:E:/LiteOS/LiteOS_Lab/targets/STM32L431_BearPi/Src\stm32l4xx_it.c **** /******************************************************************************/
  47:E:/LiteOS/LiteOS_Lab/targets/STM32L431_BearPi/Src\stm32l4xx_it.c **** /*            Cortex-M4 Processor Interruption and Exception Handlers         */ 
  48:E:/LiteOS/LiteOS_Lab/targets/STM32L431_BearPi/Src\stm32l4xx_it.c **** /******************************************************************************/
  49:E:/LiteOS/LiteOS_Lab/targets/STM32L431_BearPi/Src\stm32l4xx_it.c **** 
  50:E:/LiteOS/LiteOS_Lab/targets/STM32L431_BearPi/Src\stm32l4xx_it.c **** /**
  51:E:/LiteOS/LiteOS_Lab/targets/STM32L431_BearPi/Src\stm32l4xx_it.c **** * @brief This function handles Non maskable interrupt.
  52:E:/LiteOS/LiteOS_Lab/targets/STM32L431_BearPi/Src\stm32l4xx_it.c **** */
  53:E:/LiteOS/LiteOS_Lab/targets/STM32L431_BearPi/Src\stm32l4xx_it.c **** void NMI_Handler(void)
  54:E:/LiteOS/LiteOS_Lab/targets/STM32L431_BearPi/Src\stm32l4xx_it.c **** {
  28              		.loc 1 54 0
  29              		.cfi_startproc
  30              		@ args = 0, pretend = 0, frame = 0
  31              		@ frame_needed = 1, uses_anonymous_args = 0
  32              		@ link register save eliminated.
  33 0000 80B4     		push	{r7}
  34              	.LCFI0:
  35              		.cfi_def_cfa_offset 4
  36              		.cfi_offset 7, -4
  37 0002 00AF     		add	r7, sp, #0
  38              	.LCFI1:
  39              		.cfi_def_cfa_register 7
  55:E:/LiteOS/LiteOS_Lab/targets/STM32L431_BearPi/Src\stm32l4xx_it.c ****   /* USER CODE BEGIN NonMaskableInt_IRQn 0 */
  56:E:/LiteOS/LiteOS_Lab/targets/STM32L431_BearPi/Src\stm32l4xx_it.c **** 
  57:E:/LiteOS/LiteOS_Lab/targets/STM32L431_BearPi/Src\stm32l4xx_it.c ****   /* USER CODE END NonMaskableInt_IRQn 0 */
  58:E:/LiteOS/LiteOS_Lab/targets/STM32L431_BearPi/Src\stm32l4xx_it.c ****   /* USER CODE BEGIN NonMaskableInt_IRQn 1 */
  59:E:/LiteOS/LiteOS_Lab/targets/STM32L431_BearPi/Src\stm32l4xx_it.c **** 
  60:E:/LiteOS/LiteOS_Lab/targets/STM32L431_BearPi/Src\stm32l4xx_it.c ****   /* USER CODE END NonMaskableInt_IRQn 1 */
  61:E:/LiteOS/LiteOS_Lab/targets/STM32L431_BearPi/Src\stm32l4xx_it.c **** }
  40              		.loc 1 61 0
  41 0004 00BF     		nop
  42 0006 BD46     		mov	sp, r7
  43              	.LCFI2:
  44              		.cfi_def_cfa_register 13
  45              		@ sp needed
  46 0008 5DF8047B 		ldr	r7, [sp], #4
  47              	.LCFI3:
  48              		.cfi_restore 7
  49              		.cfi_def_cfa_offset 0
  50 000c 7047     		bx	lr
  51              		.cfi_endproc
  52              	.LFE133:
  54              		.section	.text.HardFault_Handler,"ax",%progbits
  55              		.align	1
ARM GAS  C:\Users\user\AppData\Local\Temp\cc8h2Hq4.s 			page 3


  56              		.global	HardFault_Handler
  57              		.syntax unified
  58              		.thumb
  59              		.thumb_func
  60              		.fpu fpv4-sp-d16
  62              	HardFault_Handler:
  63              	.LFB134:
  62:E:/LiteOS/LiteOS_Lab/targets/STM32L431_BearPi/Src\stm32l4xx_it.c **** 
  63:E:/LiteOS/LiteOS_Lab/targets/STM32L431_BearPi/Src\stm32l4xx_it.c **** /**
  64:E:/LiteOS/LiteOS_Lab/targets/STM32L431_BearPi/Src\stm32l4xx_it.c **** * @brief This function handles Hard fault interrupt.
  65:E:/LiteOS/LiteOS_Lab/targets/STM32L431_BearPi/Src\stm32l4xx_it.c **** */
  66:E:/LiteOS/LiteOS_Lab/targets/STM32L431_BearPi/Src\stm32l4xx_it.c **** void HardFault_Handler(void)
  67:E:/LiteOS/LiteOS_Lab/targets/STM32L431_BearPi/Src\stm32l4xx_it.c **** {
  64              		.loc 1 67 0
  65              		.cfi_startproc
  66              		@ args = 0, pretend = 0, frame = 0
  67              		@ frame_needed = 1, uses_anonymous_args = 0
  68              		@ link register save eliminated.
  69 0000 80B4     		push	{r7}
  70              	.LCFI4:
  71              		.cfi_def_cfa_offset 4
  72              		.cfi_offset 7, -4
  73 0002 00AF     		add	r7, sp, #0
  74              	.LCFI5:
  75              		.cfi_def_cfa_register 7
  76              	.L3:
  68:E:/LiteOS/LiteOS_Lab/targets/STM32L431_BearPi/Src\stm32l4xx_it.c ****   /* USER CODE BEGIN HardFault_IRQn 0 */
  69:E:/LiteOS/LiteOS_Lab/targets/STM32L431_BearPi/Src\stm32l4xx_it.c **** 
  70:E:/LiteOS/LiteOS_Lab/targets/STM32L431_BearPi/Src\stm32l4xx_it.c ****   /* USER CODE END HardFault_IRQn 0 */
  71:E:/LiteOS/LiteOS_Lab/targets/STM32L431_BearPi/Src\stm32l4xx_it.c ****   while (1)
  77              		.loc 1 71 0 discriminator 1
  78 0004 FEE7     		b	.L3
  79              		.cfi_endproc
  80              	.LFE134:
  82              		.section	.text.MemManage_Handler,"ax",%progbits
  83              		.align	1
  84              		.global	MemManage_Handler
  85              		.syntax unified
  86              		.thumb
  87              		.thumb_func
  88              		.fpu fpv4-sp-d16
  90              	MemManage_Handler:
  91              	.LFB135:
  72:E:/LiteOS/LiteOS_Lab/targets/STM32L431_BearPi/Src\stm32l4xx_it.c ****   {
  73:E:/LiteOS/LiteOS_Lab/targets/STM32L431_BearPi/Src\stm32l4xx_it.c ****     /* USER CODE BEGIN W1_HardFault_IRQn 0 */
  74:E:/LiteOS/LiteOS_Lab/targets/STM32L431_BearPi/Src\stm32l4xx_it.c ****     /* USER CODE END W1_HardFault_IRQn 0 */
  75:E:/LiteOS/LiteOS_Lab/targets/STM32L431_BearPi/Src\stm32l4xx_it.c ****   }
  76:E:/LiteOS/LiteOS_Lab/targets/STM32L431_BearPi/Src\stm32l4xx_it.c ****   /* USER CODE BEGIN HardFault_IRQn 1 */
  77:E:/LiteOS/LiteOS_Lab/targets/STM32L431_BearPi/Src\stm32l4xx_it.c **** 
  78:E:/LiteOS/LiteOS_Lab/targets/STM32L431_BearPi/Src\stm32l4xx_it.c ****   /* USER CODE END HardFault_IRQn 1 */
  79:E:/LiteOS/LiteOS_Lab/targets/STM32L431_BearPi/Src\stm32l4xx_it.c **** }
  80:E:/LiteOS/LiteOS_Lab/targets/STM32L431_BearPi/Src\stm32l4xx_it.c **** 
  81:E:/LiteOS/LiteOS_Lab/targets/STM32L431_BearPi/Src\stm32l4xx_it.c **** /**
  82:E:/LiteOS/LiteOS_Lab/targets/STM32L431_BearPi/Src\stm32l4xx_it.c **** * @brief This function handles Memory management fault.
  83:E:/LiteOS/LiteOS_Lab/targets/STM32L431_BearPi/Src\stm32l4xx_it.c **** */
  84:E:/LiteOS/LiteOS_Lab/targets/STM32L431_BearPi/Src\stm32l4xx_it.c **** void MemManage_Handler(void)
  85:E:/LiteOS/LiteOS_Lab/targets/STM32L431_BearPi/Src\stm32l4xx_it.c **** {
ARM GAS  C:\Users\user\AppData\Local\Temp\cc8h2Hq4.s 			page 4


  92              		.loc 1 85 0
  93              		.cfi_startproc
  94              		@ args = 0, pretend = 0, frame = 0
  95              		@ frame_needed = 1, uses_anonymous_args = 0
  96              		@ link register save eliminated.
  97 0000 80B4     		push	{r7}
  98              	.LCFI6:
  99              		.cfi_def_cfa_offset 4
 100              		.cfi_offset 7, -4
 101 0002 00AF     		add	r7, sp, #0
 102              	.LCFI7:
 103              		.cfi_def_cfa_register 7
 104              	.L5:
  86:E:/LiteOS/LiteOS_Lab/targets/STM32L431_BearPi/Src\stm32l4xx_it.c ****   /* USER CODE BEGIN MemoryManagement_IRQn 0 */
  87:E:/LiteOS/LiteOS_Lab/targets/STM32L431_BearPi/Src\stm32l4xx_it.c **** 
  88:E:/LiteOS/LiteOS_Lab/targets/STM32L431_BearPi/Src\stm32l4xx_it.c ****   /* USER CODE END MemoryManagement_IRQn 0 */
  89:E:/LiteOS/LiteOS_Lab/targets/STM32L431_BearPi/Src\stm32l4xx_it.c ****   while (1)
 105              		.loc 1 89 0 discriminator 1
 106 0004 FEE7     		b	.L5
 107              		.cfi_endproc
 108              	.LFE135:
 110              		.section	.text.BusFault_Handler,"ax",%progbits
 111              		.align	1
 112              		.global	BusFault_Handler
 113              		.syntax unified
 114              		.thumb
 115              		.thumb_func
 116              		.fpu fpv4-sp-d16
 118              	BusFault_Handler:
 119              	.LFB136:
  90:E:/LiteOS/LiteOS_Lab/targets/STM32L431_BearPi/Src\stm32l4xx_it.c ****   {
  91:E:/LiteOS/LiteOS_Lab/targets/STM32L431_BearPi/Src\stm32l4xx_it.c ****     /* USER CODE BEGIN W1_MemoryManagement_IRQn 0 */
  92:E:/LiteOS/LiteOS_Lab/targets/STM32L431_BearPi/Src\stm32l4xx_it.c ****     /* USER CODE END W1_MemoryManagement_IRQn 0 */
  93:E:/LiteOS/LiteOS_Lab/targets/STM32L431_BearPi/Src\stm32l4xx_it.c ****   }
  94:E:/LiteOS/LiteOS_Lab/targets/STM32L431_BearPi/Src\stm32l4xx_it.c ****   /* USER CODE BEGIN MemoryManagement_IRQn 1 */
  95:E:/LiteOS/LiteOS_Lab/targets/STM32L431_BearPi/Src\stm32l4xx_it.c **** 
  96:E:/LiteOS/LiteOS_Lab/targets/STM32L431_BearPi/Src\stm32l4xx_it.c ****   /* USER CODE END MemoryManagement_IRQn 1 */
  97:E:/LiteOS/LiteOS_Lab/targets/STM32L431_BearPi/Src\stm32l4xx_it.c **** }
  98:E:/LiteOS/LiteOS_Lab/targets/STM32L431_BearPi/Src\stm32l4xx_it.c **** 
  99:E:/LiteOS/LiteOS_Lab/targets/STM32L431_BearPi/Src\stm32l4xx_it.c **** /**
 100:E:/LiteOS/LiteOS_Lab/targets/STM32L431_BearPi/Src\stm32l4xx_it.c **** * @brief This function handles Prefetch fault, memory access fault.
 101:E:/LiteOS/LiteOS_Lab/targets/STM32L431_BearPi/Src\stm32l4xx_it.c **** */
 102:E:/LiteOS/LiteOS_Lab/targets/STM32L431_BearPi/Src\stm32l4xx_it.c **** void BusFault_Handler(void)
 103:E:/LiteOS/LiteOS_Lab/targets/STM32L431_BearPi/Src\stm32l4xx_it.c **** {
 120              		.loc 1 103 0
 121              		.cfi_startproc
 122              		@ args = 0, pretend = 0, frame = 0
 123              		@ frame_needed = 1, uses_anonymous_args = 0
 124              		@ link register save eliminated.
 125 0000 80B4     		push	{r7}
 126              	.LCFI8:
 127              		.cfi_def_cfa_offset 4
 128              		.cfi_offset 7, -4
 129 0002 00AF     		add	r7, sp, #0
 130              	.LCFI9:
 131              		.cfi_def_cfa_register 7
 132              	.L7:
ARM GAS  C:\Users\user\AppData\Local\Temp\cc8h2Hq4.s 			page 5


 104:E:/LiteOS/LiteOS_Lab/targets/STM32L431_BearPi/Src\stm32l4xx_it.c ****   /* USER CODE BEGIN BusFault_IRQn 0 */
 105:E:/LiteOS/LiteOS_Lab/targets/STM32L431_BearPi/Src\stm32l4xx_it.c **** 
 106:E:/LiteOS/LiteOS_Lab/targets/STM32L431_BearPi/Src\stm32l4xx_it.c ****   /* USER CODE END BusFault_IRQn 0 */
 107:E:/LiteOS/LiteOS_Lab/targets/STM32L431_BearPi/Src\stm32l4xx_it.c ****   while (1)
 133              		.loc 1 107 0 discriminator 1
 134 0004 FEE7     		b	.L7
 135              		.cfi_endproc
 136              	.LFE136:
 138              		.section	.text.UsageFault_Handler,"ax",%progbits
 139              		.align	1
 140              		.global	UsageFault_Handler
 141              		.syntax unified
 142              		.thumb
 143              		.thumb_func
 144              		.fpu fpv4-sp-d16
 146              	UsageFault_Handler:
 147              	.LFB137:
 108:E:/LiteOS/LiteOS_Lab/targets/STM32L431_BearPi/Src\stm32l4xx_it.c ****   {
 109:E:/LiteOS/LiteOS_Lab/targets/STM32L431_BearPi/Src\stm32l4xx_it.c ****     /* USER CODE BEGIN W1_BusFault_IRQn 0 */
 110:E:/LiteOS/LiteOS_Lab/targets/STM32L431_BearPi/Src\stm32l4xx_it.c ****     /* USER CODE END W1_BusFault_IRQn 0 */
 111:E:/LiteOS/LiteOS_Lab/targets/STM32L431_BearPi/Src\stm32l4xx_it.c ****   }
 112:E:/LiteOS/LiteOS_Lab/targets/STM32L431_BearPi/Src\stm32l4xx_it.c ****   /* USER CODE BEGIN BusFault_IRQn 1 */
 113:E:/LiteOS/LiteOS_Lab/targets/STM32L431_BearPi/Src\stm32l4xx_it.c **** 
 114:E:/LiteOS/LiteOS_Lab/targets/STM32L431_BearPi/Src\stm32l4xx_it.c ****   /* USER CODE END BusFault_IRQn 1 */
 115:E:/LiteOS/LiteOS_Lab/targets/STM32L431_BearPi/Src\stm32l4xx_it.c **** }
 116:E:/LiteOS/LiteOS_Lab/targets/STM32L431_BearPi/Src\stm32l4xx_it.c **** 
 117:E:/LiteOS/LiteOS_Lab/targets/STM32L431_BearPi/Src\stm32l4xx_it.c **** /**
 118:E:/LiteOS/LiteOS_Lab/targets/STM32L431_BearPi/Src\stm32l4xx_it.c **** * @brief This function handles Undefined instruction or illegal state.
 119:E:/LiteOS/LiteOS_Lab/targets/STM32L431_BearPi/Src\stm32l4xx_it.c **** */
 120:E:/LiteOS/LiteOS_Lab/targets/STM32L431_BearPi/Src\stm32l4xx_it.c **** void UsageFault_Handler(void)
 121:E:/LiteOS/LiteOS_Lab/targets/STM32L431_BearPi/Src\stm32l4xx_it.c **** {
 148              		.loc 1 121 0
 149              		.cfi_startproc
 150              		@ args = 0, pretend = 0, frame = 0
 151              		@ frame_needed = 1, uses_anonymous_args = 0
 152              		@ link register save eliminated.
 153 0000 80B4     		push	{r7}
 154              	.LCFI10:
 155              		.cfi_def_cfa_offset 4
 156              		.cfi_offset 7, -4
 157 0002 00AF     		add	r7, sp, #0
 158              	.LCFI11:
 159              		.cfi_def_cfa_register 7
 160              	.L9:
 122:E:/LiteOS/LiteOS_Lab/targets/STM32L431_BearPi/Src\stm32l4xx_it.c ****   /* USER CODE BEGIN UsageFault_IRQn 0 */
 123:E:/LiteOS/LiteOS_Lab/targets/STM32L431_BearPi/Src\stm32l4xx_it.c **** 
 124:E:/LiteOS/LiteOS_Lab/targets/STM32L431_BearPi/Src\stm32l4xx_it.c ****   /* USER CODE END UsageFault_IRQn 0 */
 125:E:/LiteOS/LiteOS_Lab/targets/STM32L431_BearPi/Src\stm32l4xx_it.c ****   while (1)
 161              		.loc 1 125 0 discriminator 1
 162 0004 FEE7     		b	.L9
 163              		.cfi_endproc
 164              	.LFE137:
 166              		.section	.text.SVC_Handler,"ax",%progbits
 167              		.align	1
 168              		.global	SVC_Handler
 169              		.syntax unified
 170              		.thumb
ARM GAS  C:\Users\user\AppData\Local\Temp\cc8h2Hq4.s 			page 6


 171              		.thumb_func
 172              		.fpu fpv4-sp-d16
 174              	SVC_Handler:
 175              	.LFB138:
 126:E:/LiteOS/LiteOS_Lab/targets/STM32L431_BearPi/Src\stm32l4xx_it.c ****   {
 127:E:/LiteOS/LiteOS_Lab/targets/STM32L431_BearPi/Src\stm32l4xx_it.c ****     /* USER CODE BEGIN W1_UsageFault_IRQn 0 */
 128:E:/LiteOS/LiteOS_Lab/targets/STM32L431_BearPi/Src\stm32l4xx_it.c ****     /* USER CODE END W1_UsageFault_IRQn 0 */
 129:E:/LiteOS/LiteOS_Lab/targets/STM32L431_BearPi/Src\stm32l4xx_it.c ****   }
 130:E:/LiteOS/LiteOS_Lab/targets/STM32L431_BearPi/Src\stm32l4xx_it.c ****   /* USER CODE BEGIN UsageFault_IRQn 1 */
 131:E:/LiteOS/LiteOS_Lab/targets/STM32L431_BearPi/Src\stm32l4xx_it.c **** 
 132:E:/LiteOS/LiteOS_Lab/targets/STM32L431_BearPi/Src\stm32l4xx_it.c ****   /* USER CODE END UsageFault_IRQn 1 */
 133:E:/LiteOS/LiteOS_Lab/targets/STM32L431_BearPi/Src\stm32l4xx_it.c **** }
 134:E:/LiteOS/LiteOS_Lab/targets/STM32L431_BearPi/Src\stm32l4xx_it.c **** 
 135:E:/LiteOS/LiteOS_Lab/targets/STM32L431_BearPi/Src\stm32l4xx_it.c **** /**
 136:E:/LiteOS/LiteOS_Lab/targets/STM32L431_BearPi/Src\stm32l4xx_it.c **** * @brief This function handles System service call via SWI instruction.
 137:E:/LiteOS/LiteOS_Lab/targets/STM32L431_BearPi/Src\stm32l4xx_it.c **** */
 138:E:/LiteOS/LiteOS_Lab/targets/STM32L431_BearPi/Src\stm32l4xx_it.c **** void SVC_Handler(void)
 139:E:/LiteOS/LiteOS_Lab/targets/STM32L431_BearPi/Src\stm32l4xx_it.c **** {
 176              		.loc 1 139 0
 177              		.cfi_startproc
 178              		@ args = 0, pretend = 0, frame = 0
 179              		@ frame_needed = 1, uses_anonymous_args = 0
 180              		@ link register save eliminated.
 181 0000 80B4     		push	{r7}
 182              	.LCFI12:
 183              		.cfi_def_cfa_offset 4
 184              		.cfi_offset 7, -4
 185 0002 00AF     		add	r7, sp, #0
 186              	.LCFI13:
 187              		.cfi_def_cfa_register 7
 140:E:/LiteOS/LiteOS_Lab/targets/STM32L431_BearPi/Src\stm32l4xx_it.c ****   /* USER CODE BEGIN SVCall_IRQn 0 */
 141:E:/LiteOS/LiteOS_Lab/targets/STM32L431_BearPi/Src\stm32l4xx_it.c **** 
 142:E:/LiteOS/LiteOS_Lab/targets/STM32L431_BearPi/Src\stm32l4xx_it.c ****   /* USER CODE END SVCall_IRQn 0 */
 143:E:/LiteOS/LiteOS_Lab/targets/STM32L431_BearPi/Src\stm32l4xx_it.c ****   /* USER CODE BEGIN SVCall_IRQn 1 */
 144:E:/LiteOS/LiteOS_Lab/targets/STM32L431_BearPi/Src\stm32l4xx_it.c **** 
 145:E:/LiteOS/LiteOS_Lab/targets/STM32L431_BearPi/Src\stm32l4xx_it.c ****   /* USER CODE END SVCall_IRQn 1 */
 146:E:/LiteOS/LiteOS_Lab/targets/STM32L431_BearPi/Src\stm32l4xx_it.c **** }
 188              		.loc 1 146 0
 189 0004 00BF     		nop
 190 0006 BD46     		mov	sp, r7
 191              	.LCFI14:
 192              		.cfi_def_cfa_register 13
 193              		@ sp needed
 194 0008 5DF8047B 		ldr	r7, [sp], #4
 195              	.LCFI15:
 196              		.cfi_restore 7
 197              		.cfi_def_cfa_offset 0
 198 000c 7047     		bx	lr
 199              		.cfi_endproc
 200              	.LFE138:
 202              		.section	.text.DebugMon_Handler,"ax",%progbits
 203              		.align	1
 204              		.global	DebugMon_Handler
 205              		.syntax unified
 206              		.thumb
 207              		.thumb_func
 208              		.fpu fpv4-sp-d16
ARM GAS  C:\Users\user\AppData\Local\Temp\cc8h2Hq4.s 			page 7


 210              	DebugMon_Handler:
 211              	.LFB139:
 147:E:/LiteOS/LiteOS_Lab/targets/STM32L431_BearPi/Src\stm32l4xx_it.c **** 
 148:E:/LiteOS/LiteOS_Lab/targets/STM32L431_BearPi/Src\stm32l4xx_it.c **** /**
 149:E:/LiteOS/LiteOS_Lab/targets/STM32L431_BearPi/Src\stm32l4xx_it.c **** * @brief This function handles Debug monitor.
 150:E:/LiteOS/LiteOS_Lab/targets/STM32L431_BearPi/Src\stm32l4xx_it.c **** */
 151:E:/LiteOS/LiteOS_Lab/targets/STM32L431_BearPi/Src\stm32l4xx_it.c **** void DebugMon_Handler(void)
 152:E:/LiteOS/LiteOS_Lab/targets/STM32L431_BearPi/Src\stm32l4xx_it.c **** {
 212              		.loc 1 152 0
 213              		.cfi_startproc
 214              		@ args = 0, pretend = 0, frame = 0
 215              		@ frame_needed = 1, uses_anonymous_args = 0
 216              		@ link register save eliminated.
 217 0000 80B4     		push	{r7}
 218              	.LCFI16:
 219              		.cfi_def_cfa_offset 4
 220              		.cfi_offset 7, -4
 221 0002 00AF     		add	r7, sp, #0
 222              	.LCFI17:
 223              		.cfi_def_cfa_register 7
 153:E:/LiteOS/LiteOS_Lab/targets/STM32L431_BearPi/Src\stm32l4xx_it.c ****   /* USER CODE BEGIN DebugMonitor_IRQn 0 */
 154:E:/LiteOS/LiteOS_Lab/targets/STM32L431_BearPi/Src\stm32l4xx_it.c **** 
 155:E:/LiteOS/LiteOS_Lab/targets/STM32L431_BearPi/Src\stm32l4xx_it.c ****   /* USER CODE END DebugMonitor_IRQn 0 */
 156:E:/LiteOS/LiteOS_Lab/targets/STM32L431_BearPi/Src\stm32l4xx_it.c ****   /* USER CODE BEGIN DebugMonitor_IRQn 1 */
 157:E:/LiteOS/LiteOS_Lab/targets/STM32L431_BearPi/Src\stm32l4xx_it.c **** 
 158:E:/LiteOS/LiteOS_Lab/targets/STM32L431_BearPi/Src\stm32l4xx_it.c ****   /* USER CODE END DebugMonitor_IRQn 1 */
 159:E:/LiteOS/LiteOS_Lab/targets/STM32L431_BearPi/Src\stm32l4xx_it.c **** }
 224              		.loc 1 159 0
 225 0004 00BF     		nop
 226 0006 BD46     		mov	sp, r7
 227              	.LCFI18:
 228              		.cfi_def_cfa_register 13
 229              		@ sp needed
 230 0008 5DF8047B 		ldr	r7, [sp], #4
 231              	.LCFI19:
 232              		.cfi_restore 7
 233              		.cfi_def_cfa_offset 0
 234 000c 7047     		bx	lr
 235              		.cfi_endproc
 236              	.LFE139:
 238              		.section	.text.PendSV_Handler,"ax",%progbits
 239              		.align	1
 240              		.weak	PendSV_Handler
 241              		.syntax unified
 242              		.thumb
 243              		.thumb_func
 244              		.fpu fpv4-sp-d16
 246              	PendSV_Handler:
 247              	.LFB140:
 160:E:/LiteOS/LiteOS_Lab/targets/STM32L431_BearPi/Src\stm32l4xx_it.c **** 
 161:E:/LiteOS/LiteOS_Lab/targets/STM32L431_BearPi/Src\stm32l4xx_it.c **** /**
 162:E:/LiteOS/LiteOS_Lab/targets/STM32L431_BearPi/Src\stm32l4xx_it.c **** * @brief This function handles Pendable request for system service.
 163:E:/LiteOS/LiteOS_Lab/targets/STM32L431_BearPi/Src\stm32l4xx_it.c **** */
 164:E:/LiteOS/LiteOS_Lab/targets/STM32L431_BearPi/Src\stm32l4xx_it.c **** __weak void PendSV_Handler(void)
 165:E:/LiteOS/LiteOS_Lab/targets/STM32L431_BearPi/Src\stm32l4xx_it.c **** {
 248              		.loc 1 165 0
 249              		.cfi_startproc
ARM GAS  C:\Users\user\AppData\Local\Temp\cc8h2Hq4.s 			page 8


 250              		@ args = 0, pretend = 0, frame = 0
 251              		@ frame_needed = 1, uses_anonymous_args = 0
 252              		@ link register save eliminated.
 253 0000 80B4     		push	{r7}
 254              	.LCFI20:
 255              		.cfi_def_cfa_offset 4
 256              		.cfi_offset 7, -4
 257 0002 00AF     		add	r7, sp, #0
 258              	.LCFI21:
 259              		.cfi_def_cfa_register 7
 166:E:/LiteOS/LiteOS_Lab/targets/STM32L431_BearPi/Src\stm32l4xx_it.c ****   /* USER CODE BEGIN PendSV_IRQn 0 */
 167:E:/LiteOS/LiteOS_Lab/targets/STM32L431_BearPi/Src\stm32l4xx_it.c **** 
 168:E:/LiteOS/LiteOS_Lab/targets/STM32L431_BearPi/Src\stm32l4xx_it.c ****   /* USER CODE END PendSV_IRQn 0 */
 169:E:/LiteOS/LiteOS_Lab/targets/STM32L431_BearPi/Src\stm32l4xx_it.c ****   /* USER CODE BEGIN PendSV_IRQn 1 */
 170:E:/LiteOS/LiteOS_Lab/targets/STM32L431_BearPi/Src\stm32l4xx_it.c **** 
 171:E:/LiteOS/LiteOS_Lab/targets/STM32L431_BearPi/Src\stm32l4xx_it.c ****   /* USER CODE END PendSV_IRQn 1 */
 172:E:/LiteOS/LiteOS_Lab/targets/STM32L431_BearPi/Src\stm32l4xx_it.c **** }
 260              		.loc 1 172 0
 261 0004 00BF     		nop
 262 0006 BD46     		mov	sp, r7
 263              	.LCFI22:
 264              		.cfi_def_cfa_register 13
 265              		@ sp needed
 266 0008 5DF8047B 		ldr	r7, [sp], #4
 267              	.LCFI23:
 268              		.cfi_restore 7
 269              		.cfi_def_cfa_offset 0
 270 000c 7047     		bx	lr
 271              		.cfi_endproc
 272              	.LFE140:
 274              		.section	.text.SysTick_Handler,"ax",%progbits
 275              		.align	1
 276              		.weak	SysTick_Handler
 277              		.syntax unified
 278              		.thumb
 279              		.thumb_func
 280              		.fpu fpv4-sp-d16
 282              	SysTick_Handler:
 283              	.LFB141:
 173:E:/LiteOS/LiteOS_Lab/targets/STM32L431_BearPi/Src\stm32l4xx_it.c **** 
 174:E:/LiteOS/LiteOS_Lab/targets/STM32L431_BearPi/Src\stm32l4xx_it.c **** /**
 175:E:/LiteOS/LiteOS_Lab/targets/STM32L431_BearPi/Src\stm32l4xx_it.c **** * @brief This function handles System tick timer.
 176:E:/LiteOS/LiteOS_Lab/targets/STM32L431_BearPi/Src\stm32l4xx_it.c **** */
 177:E:/LiteOS/LiteOS_Lab/targets/STM32L431_BearPi/Src\stm32l4xx_it.c **** __weak void SysTick_Handler(void)
 178:E:/LiteOS/LiteOS_Lab/targets/STM32L431_BearPi/Src\stm32l4xx_it.c **** {
 284              		.loc 1 178 0
 285              		.cfi_startproc
 286              		@ args = 0, pretend = 0, frame = 0
 287              		@ frame_needed = 1, uses_anonymous_args = 0
 288 0000 80B5     		push	{r7, lr}
 289              	.LCFI24:
 290              		.cfi_def_cfa_offset 8
 291              		.cfi_offset 7, -8
 292              		.cfi_offset 14, -4
 293 0002 00AF     		add	r7, sp, #0
 294              	.LCFI25:
 295              		.cfi_def_cfa_register 7
ARM GAS  C:\Users\user\AppData\Local\Temp\cc8h2Hq4.s 			page 9


 179:E:/LiteOS/LiteOS_Lab/targets/STM32L431_BearPi/Src\stm32l4xx_it.c ****   /* USER CODE BEGIN SysTick_IRQn 0 */
 180:E:/LiteOS/LiteOS_Lab/targets/STM32L431_BearPi/Src\stm32l4xx_it.c **** 
 181:E:/LiteOS/LiteOS_Lab/targets/STM32L431_BearPi/Src\stm32l4xx_it.c ****   /* USER CODE END SysTick_IRQn 0 */
 182:E:/LiteOS/LiteOS_Lab/targets/STM32L431_BearPi/Src\stm32l4xx_it.c ****   HAL_IncTick();
 296              		.loc 1 182 0
 297 0004 FFF7FEFF 		bl	HAL_IncTick
 183:E:/LiteOS/LiteOS_Lab/targets/STM32L431_BearPi/Src\stm32l4xx_it.c ****   HAL_SYSTICK_IRQHandler();
 298              		.loc 1 183 0
 299 0008 FFF7FEFF 		bl	HAL_SYSTICK_IRQHandler
 184:E:/LiteOS/LiteOS_Lab/targets/STM32L431_BearPi/Src\stm32l4xx_it.c ****   /* USER CODE BEGIN SysTick_IRQn 1 */
 185:E:/LiteOS/LiteOS_Lab/targets/STM32L431_BearPi/Src\stm32l4xx_it.c **** 
 186:E:/LiteOS/LiteOS_Lab/targets/STM32L431_BearPi/Src\stm32l4xx_it.c ****   /* USER CODE END SysTick_IRQn 1 */
 187:E:/LiteOS/LiteOS_Lab/targets/STM32L431_BearPi/Src\stm32l4xx_it.c **** }
 300              		.loc 1 187 0
 301 000c 00BF     		nop
 302 000e 80BD     		pop	{r7, pc}
 303              		.cfi_endproc
 304              	.LFE141:
 306              		.section	.text.EXTI2_IRQHandler,"ax",%progbits
 307              		.align	1
 308              		.global	EXTI2_IRQHandler
 309              		.syntax unified
 310              		.thumb
 311              		.thumb_func
 312              		.fpu fpv4-sp-d16
 314              	EXTI2_IRQHandler:
 315              	.LFB142:
 188:E:/LiteOS/LiteOS_Lab/targets/STM32L431_BearPi/Src\stm32l4xx_it.c **** 
 189:E:/LiteOS/LiteOS_Lab/targets/STM32L431_BearPi/Src\stm32l4xx_it.c **** /******************************************************************************/
 190:E:/LiteOS/LiteOS_Lab/targets/STM32L431_BearPi/Src\stm32l4xx_it.c **** /* STM32L4xx Peripheral Interrupt Handlers                                    */
 191:E:/LiteOS/LiteOS_Lab/targets/STM32L431_BearPi/Src\stm32l4xx_it.c **** /* Add here the Interrupt Handlers for the used peripherals.                  */
 192:E:/LiteOS/LiteOS_Lab/targets/STM32L431_BearPi/Src\stm32l4xx_it.c **** /* For the available peripheral interrupt handler names,                      */
 193:E:/LiteOS/LiteOS_Lab/targets/STM32L431_BearPi/Src\stm32l4xx_it.c **** /* please refer to the startup file (startup_stm32l4xx.s).                    */
 194:E:/LiteOS/LiteOS_Lab/targets/STM32L431_BearPi/Src\stm32l4xx_it.c **** /******************************************************************************/
 195:E:/LiteOS/LiteOS_Lab/targets/STM32L431_BearPi/Src\stm32l4xx_it.c **** 
 196:E:/LiteOS/LiteOS_Lab/targets/STM32L431_BearPi/Src\stm32l4xx_it.c **** /**
 197:E:/LiteOS/LiteOS_Lab/targets/STM32L431_BearPi/Src\stm32l4xx_it.c **** * @brief This function handles EXTI line2 interrupt.
 198:E:/LiteOS/LiteOS_Lab/targets/STM32L431_BearPi/Src\stm32l4xx_it.c **** */
 199:E:/LiteOS/LiteOS_Lab/targets/STM32L431_BearPi/Src\stm32l4xx_it.c **** void EXTI2_IRQHandler(void)
 200:E:/LiteOS/LiteOS_Lab/targets/STM32L431_BearPi/Src\stm32l4xx_it.c **** {
 316              		.loc 1 200 0
 317              		.cfi_startproc
 318              		@ args = 0, pretend = 0, frame = 0
 319              		@ frame_needed = 1, uses_anonymous_args = 0
 320 0000 80B5     		push	{r7, lr}
 321              	.LCFI26:
 322              		.cfi_def_cfa_offset 8
 323              		.cfi_offset 7, -8
 324              		.cfi_offset 14, -4
 325 0002 00AF     		add	r7, sp, #0
 326              	.LCFI27:
 327              		.cfi_def_cfa_register 7
 201:E:/LiteOS/LiteOS_Lab/targets/STM32L431_BearPi/Src\stm32l4xx_it.c ****   /* USER CODE BEGIN EXTI2_IRQn 0 */
 202:E:/LiteOS/LiteOS_Lab/targets/STM32L431_BearPi/Src\stm32l4xx_it.c **** 
 203:E:/LiteOS/LiteOS_Lab/targets/STM32L431_BearPi/Src\stm32l4xx_it.c ****   /* USER CODE END EXTI2_IRQn 0 */
 204:E:/LiteOS/LiteOS_Lab/targets/STM32L431_BearPi/Src\stm32l4xx_it.c ****   HAL_GPIO_EXTI_IRQHandler(GPIO_PIN_2);
 328              		.loc 1 204 0
ARM GAS  C:\Users\user\AppData\Local\Temp\cc8h2Hq4.s 			page 10


 329 0004 0420     		movs	r0, #4
 330 0006 FFF7FEFF 		bl	HAL_GPIO_EXTI_IRQHandler
 205:E:/LiteOS/LiteOS_Lab/targets/STM32L431_BearPi/Src\stm32l4xx_it.c ****   /* USER CODE BEGIN EXTI2_IRQn 1 */
 206:E:/LiteOS/LiteOS_Lab/targets/STM32L431_BearPi/Src\stm32l4xx_it.c **** 
 207:E:/LiteOS/LiteOS_Lab/targets/STM32L431_BearPi/Src\stm32l4xx_it.c ****   /* USER CODE END EXTI2_IRQn 1 */
 208:E:/LiteOS/LiteOS_Lab/targets/STM32L431_BearPi/Src\stm32l4xx_it.c **** }
 331              		.loc 1 208 0
 332 000a 00BF     		nop
 333 000c 80BD     		pop	{r7, pc}
 334              		.cfi_endproc
 335              	.LFE142:
 337              		.section	.text.EXTI3_IRQHandler,"ax",%progbits
 338              		.align	1
 339              		.global	EXTI3_IRQHandler
 340              		.syntax unified
 341              		.thumb
 342              		.thumb_func
 343              		.fpu fpv4-sp-d16
 345              	EXTI3_IRQHandler:
 346              	.LFB143:
 209:E:/LiteOS/LiteOS_Lab/targets/STM32L431_BearPi/Src\stm32l4xx_it.c **** 
 210:E:/LiteOS/LiteOS_Lab/targets/STM32L431_BearPi/Src\stm32l4xx_it.c **** /**
 211:E:/LiteOS/LiteOS_Lab/targets/STM32L431_BearPi/Src\stm32l4xx_it.c **** * @brief This function handles EXTI line3 interrupt.
 212:E:/LiteOS/LiteOS_Lab/targets/STM32L431_BearPi/Src\stm32l4xx_it.c **** */
 213:E:/LiteOS/LiteOS_Lab/targets/STM32L431_BearPi/Src\stm32l4xx_it.c **** void EXTI3_IRQHandler(void)
 214:E:/LiteOS/LiteOS_Lab/targets/STM32L431_BearPi/Src\stm32l4xx_it.c **** {
 347              		.loc 1 214 0
 348              		.cfi_startproc
 349              		@ args = 0, pretend = 0, frame = 0
 350              		@ frame_needed = 1, uses_anonymous_args = 0
 351 0000 80B5     		push	{r7, lr}
 352              	.LCFI28:
 353              		.cfi_def_cfa_offset 8
 354              		.cfi_offset 7, -8
 355              		.cfi_offset 14, -4
 356 0002 00AF     		add	r7, sp, #0
 357              	.LCFI29:
 358              		.cfi_def_cfa_register 7
 215:E:/LiteOS/LiteOS_Lab/targets/STM32L431_BearPi/Src\stm32l4xx_it.c ****   /* USER CODE BEGIN EXTI3_IRQn 0 */
 216:E:/LiteOS/LiteOS_Lab/targets/STM32L431_BearPi/Src\stm32l4xx_it.c **** 
 217:E:/LiteOS/LiteOS_Lab/targets/STM32L431_BearPi/Src\stm32l4xx_it.c ****   /* USER CODE END EXTI3_IRQn 0 */
 218:E:/LiteOS/LiteOS_Lab/targets/STM32L431_BearPi/Src\stm32l4xx_it.c ****   HAL_GPIO_EXTI_IRQHandler(GPIO_PIN_3);
 359              		.loc 1 218 0
 360 0004 0820     		movs	r0, #8
 361 0006 FFF7FEFF 		bl	HAL_GPIO_EXTI_IRQHandler
 219:E:/LiteOS/LiteOS_Lab/targets/STM32L431_BearPi/Src\stm32l4xx_it.c ****   /* USER CODE BEGIN EXTI3_IRQn 1 */
 220:E:/LiteOS/LiteOS_Lab/targets/STM32L431_BearPi/Src\stm32l4xx_it.c **** 
 221:E:/LiteOS/LiteOS_Lab/targets/STM32L431_BearPi/Src\stm32l4xx_it.c ****   /* USER CODE END EXTI3_IRQn 1 */
 222:E:/LiteOS/LiteOS_Lab/targets/STM32L431_BearPi/Src\stm32l4xx_it.c **** }
 362              		.loc 1 222 0
 363 000a 00BF     		nop
 364 000c 80BD     		pop	{r7, pc}
 365              		.cfi_endproc
 366              	.LFE143:
 368              		.section	.text.USART1_IRQHandler,"ax",%progbits
 369              		.align	1
 370              		.global	USART1_IRQHandler
ARM GAS  C:\Users\user\AppData\Local\Temp\cc8h2Hq4.s 			page 11


 371              		.syntax unified
 372              		.thumb
 373              		.thumb_func
 374              		.fpu fpv4-sp-d16
 376              	USART1_IRQHandler:
 377              	.LFB144:
 223:E:/LiteOS/LiteOS_Lab/targets/STM32L431_BearPi/Src\stm32l4xx_it.c **** 
 224:E:/LiteOS/LiteOS_Lab/targets/STM32L431_BearPi/Src\stm32l4xx_it.c **** /**
 225:E:/LiteOS/LiteOS_Lab/targets/STM32L431_BearPi/Src\stm32l4xx_it.c **** * @brief This function handles USART1 global interrupt.
 226:E:/LiteOS/LiteOS_Lab/targets/STM32L431_BearPi/Src\stm32l4xx_it.c **** */
 227:E:/LiteOS/LiteOS_Lab/targets/STM32L431_BearPi/Src\stm32l4xx_it.c **** void USART1_IRQHandler(void)
 228:E:/LiteOS/LiteOS_Lab/targets/STM32L431_BearPi/Src\stm32l4xx_it.c **** {
 378              		.loc 1 228 0
 379              		.cfi_startproc
 380              		@ args = 0, pretend = 0, frame = 0
 381              		@ frame_needed = 1, uses_anonymous_args = 0
 382 0000 80B5     		push	{r7, lr}
 383              	.LCFI30:
 384              		.cfi_def_cfa_offset 8
 385              		.cfi_offset 7, -8
 386              		.cfi_offset 14, -4
 387 0002 00AF     		add	r7, sp, #0
 388              	.LCFI31:
 389              		.cfi_def_cfa_register 7
 229:E:/LiteOS/LiteOS_Lab/targets/STM32L431_BearPi/Src\stm32l4xx_it.c ****   /* USER CODE BEGIN USART1_IRQn 0 */
 230:E:/LiteOS/LiteOS_Lab/targets/STM32L431_BearPi/Src\stm32l4xx_it.c **** 
 231:E:/LiteOS/LiteOS_Lab/targets/STM32L431_BearPi/Src\stm32l4xx_it.c ****   /* USER CODE END USART1_IRQn 0 */
 232:E:/LiteOS/LiteOS_Lab/targets/STM32L431_BearPi/Src\stm32l4xx_it.c ****   HAL_UART_IRQHandler(&huart1);
 390              		.loc 1 232 0
 391 0004 0248     		ldr	r0, .L17
 392 0006 FFF7FEFF 		bl	HAL_UART_IRQHandler
 233:E:/LiteOS/LiteOS_Lab/targets/STM32L431_BearPi/Src\stm32l4xx_it.c ****   /* USER CODE BEGIN USART1_IRQn 1 */
 234:E:/LiteOS/LiteOS_Lab/targets/STM32L431_BearPi/Src\stm32l4xx_it.c **** 
 235:E:/LiteOS/LiteOS_Lab/targets/STM32L431_BearPi/Src\stm32l4xx_it.c ****   /* USER CODE END USART1_IRQn 1 */
 236:E:/LiteOS/LiteOS_Lab/targets/STM32L431_BearPi/Src\stm32l4xx_it.c **** }
 393              		.loc 1 236 0
 394 000a 00BF     		nop
 395 000c 80BD     		pop	{r7, pc}
 396              	.L18:
 397 000e 00BF     		.align	2
 398              	.L17:
 399 0010 00000000 		.word	huart1
 400              		.cfi_endproc
 401              	.LFE144:
 403              		.section	.text.USART2_IRQHandler,"ax",%progbits
 404              		.align	1
 405              		.global	USART2_IRQHandler
 406              		.syntax unified
 407              		.thumb
 408              		.thumb_func
 409              		.fpu fpv4-sp-d16
 411              	USART2_IRQHandler:
 412              	.LFB145:
 237:E:/LiteOS/LiteOS_Lab/targets/STM32L431_BearPi/Src\stm32l4xx_it.c **** 
 238:E:/LiteOS/LiteOS_Lab/targets/STM32L431_BearPi/Src\stm32l4xx_it.c **** /**
 239:E:/LiteOS/LiteOS_Lab/targets/STM32L431_BearPi/Src\stm32l4xx_it.c **** * @brief This function handles USART2 global interrupt.
 240:E:/LiteOS/LiteOS_Lab/targets/STM32L431_BearPi/Src\stm32l4xx_it.c **** */
ARM GAS  C:\Users\user\AppData\Local\Temp\cc8h2Hq4.s 			page 12


 241:E:/LiteOS/LiteOS_Lab/targets/STM32L431_BearPi/Src\stm32l4xx_it.c **** void USART2_IRQHandler(void)
 242:E:/LiteOS/LiteOS_Lab/targets/STM32L431_BearPi/Src\stm32l4xx_it.c **** {
 413              		.loc 1 242 0
 414              		.cfi_startproc
 415              		@ args = 0, pretend = 0, frame = 0
 416              		@ frame_needed = 1, uses_anonymous_args = 0
 417              		@ link register save eliminated.
 418 0000 80B4     		push	{r7}
 419              	.LCFI32:
 420              		.cfi_def_cfa_offset 4
 421              		.cfi_offset 7, -4
 422 0002 00AF     		add	r7, sp, #0
 423              	.LCFI33:
 424              		.cfi_def_cfa_register 7
 243:E:/LiteOS/LiteOS_Lab/targets/STM32L431_BearPi/Src\stm32l4xx_it.c ****   /* USER CODE BEGIN USART2_IRQn 0 */
 244:E:/LiteOS/LiteOS_Lab/targets/STM32L431_BearPi/Src\stm32l4xx_it.c **** 
 245:E:/LiteOS/LiteOS_Lab/targets/STM32L431_BearPi/Src\stm32l4xx_it.c ****   /* USER CODE END USART2_IRQn 0 */
 246:E:/LiteOS/LiteOS_Lab/targets/STM32L431_BearPi/Src\stm32l4xx_it.c **** //  HAL_UART_IRQHandler(&huart2);
 247:E:/LiteOS/LiteOS_Lab/targets/STM32L431_BearPi/Src\stm32l4xx_it.c ****   /* USER CODE BEGIN USART2_IRQn 1 */
 248:E:/LiteOS/LiteOS_Lab/targets/STM32L431_BearPi/Src\stm32l4xx_it.c **** 
 249:E:/LiteOS/LiteOS_Lab/targets/STM32L431_BearPi/Src\stm32l4xx_it.c ****   /* USER CODE END USART2_IRQn 1 */
 250:E:/LiteOS/LiteOS_Lab/targets/STM32L431_BearPi/Src\stm32l4xx_it.c **** }
 425              		.loc 1 250 0
 426 0004 00BF     		nop
 427 0006 BD46     		mov	sp, r7
 428              	.LCFI34:
 429              		.cfi_def_cfa_register 13
 430              		@ sp needed
 431 0008 5DF8047B 		ldr	r7, [sp], #4
 432              	.LCFI35:
 433              		.cfi_restore 7
 434              		.cfi_def_cfa_offset 0
 435 000c 7047     		bx	lr
 436              		.cfi_endproc
 437              	.LFE145:
 439              		.text
 440              	.Letext0:
 441              		.file 2 "e:\\ac6\\systemworkbench\\plugins\\fr.ac6.mcu.externaltools.arm-none.win32_1.16.0.2018071
 442              		.file 3 "e:\\ac6\\systemworkbench\\plugins\\fr.ac6.mcu.externaltools.arm-none.win32_1.16.0.2018071
 443              		.file 4 "e:\\ac6\\systemworkbench\\plugins\\fr.ac6.mcu.externaltools.arm-none.win32_1.16.0.2018071
 444              		.file 5 "e:\\ac6\\systemworkbench\\plugins\\fr.ac6.mcu.externaltools.arm-none.win32_1.16.0.2018071
 445              		.file 6 "e:\\ac6\\systemworkbench\\plugins\\fr.ac6.mcu.externaltools.arm-none.win32_1.16.0.2018071
 446              		.file 7 "E:/LiteOS/LiteOS_Lab/iot_link/os/os_imp/liteos/include/los_typedef.h"
 447              		.file 8 "e:\\ac6\\systemworkbench\\plugins\\fr.ac6.mcu.externaltools.arm-none.win32_1.16.0.2018071
 448              		.file 9 "E:/LiteOS/LiteOS_Lab/iot_link/os/os_imp/liteos/arch/arm/common/cmsis/core_cm4.h"
 449              		.file 10 "E:/LiteOS/LiteOS_Lab/targets/STM32L431_BearPi/Inc/system_stm32l4xx.h"
 450              		.file 11 "E:/LiteOS/LiteOS_Lab/targets/STM32L431_BearPi/Inc/stm32l431xx.h"
 451              		.file 12 "E:/LiteOS/LiteOS_Lab/iot_link/os/os_imp/liteos/include/los_config.h"
 452              		.file 13 "E:/LiteOS/LiteOS_Lab/iot_link/os/os_imp/liteos/include/los_list.h"
 453              		.file 14 "E:/LiteOS/LiteOS_Lab/iot_link/os/os_imp/liteos/include/los_err.h"
 454              		.file 15 "E:/LiteOS/LiteOS_Lab/iot_link/os/os_imp/liteos/arch/arm/arm-m/include/los_hwi.h"
 455              		.file 16 "E:/LiteOS/LiteOS_Lab/iot_link/os/os_imp/liteos/include/los_tick.h"
 456              		.file 17 "E:/LiteOS/LiteOS_Lab/iot_link/os/os_imp/liteos/include/los_event.h"
 457              		.file 18 "E:/LiteOS/LiteOS_Lab/iot_link/os/os_imp/liteos/include/los_task.h"
 458              		.file 19 "E:/LiteOS/LiteOS_Lab/iot_link/os/os_imp/liteos/base/include/los_task.ph"
 459              		.file 20 "E:/LiteOS/LiteOS_Lab/targets/STM32L431_BearPi/Inc/main.h"
 460              		.file 21 "E:/LiteOS/LiteOS_Lab/drivers/third_party/ST/STM32L4xx_HAL_Driver/Inc/stm32l4xx_hal_def.h
ARM GAS  C:\Users\user\AppData\Local\Temp\cc8h2Hq4.s 			page 13


 461              		.file 22 "E:/LiteOS/LiteOS_Lab/drivers/third_party/ST/STM32L4xx_HAL_Driver/Inc/stm32l4xx_hal_dma.h
 462              		.file 23 "E:/LiteOS/LiteOS_Lab/drivers/third_party/ST/STM32L4xx_HAL_Driver/Inc/stm32l4xx_hal_uart.
ARM GAS  C:\Users\user\AppData\Local\Temp\cc8h2Hq4.s 			page 14

