ARM GAS  C:\Users\user\AppData\Local\Temp\ccuTs4tt.s 			page 1


   1              		.cpu cortex-m4
   2              		.eabi_attribute 27, 1
   3              		.eabi_attribute 28, 1
   4              		.eabi_attribute 20, 1
   5              		.eabi_attribute 21, 1
   6              		.eabi_attribute 23, 3
   7              		.eabi_attribute 24, 1
   8              		.eabi_attribute 25, 1
   9              		.eabi_attribute 26, 1
  10              		.eabi_attribute 30, 6
  11              		.eabi_attribute 34, 1
  12              		.eabi_attribute 18, 4
  13              		.file	"stm32l4xx_hal_dma.c"
  14              		.text
  15              	.Ltext0:
  16              		.cfi_sections	.debug_frame
  17              		.section	.text.HAL_DMA_Init,"ax",%progbits
  18              		.align	1
  19              		.global	HAL_DMA_Init
  20              		.syntax unified
  21              		.thumb
  22              		.thumb_func
  23              		.fpu fpv4-sp-d16
  25              	HAL_DMA_Init:
  26              	.LFB133:
  27              		.file 1 "E:/LiteOS/LiteOS_Lab/drivers/third_party/ST/STM32L4xx_HAL_Driver/Src/stm32l4xx_hal_dma.c"
   1:E:/LiteOS/LiteOS_Lab/drivers/third_party/ST/STM32L4xx_HAL_Driver/Src\stm32l4xx_hal_dma.c **** /**
   2:E:/LiteOS/LiteOS_Lab/drivers/third_party/ST/STM32L4xx_HAL_Driver/Src\stm32l4xx_hal_dma.c ****   ******************************************************************************
   3:E:/LiteOS/LiteOS_Lab/drivers/third_party/ST/STM32L4xx_HAL_Driver/Src\stm32l4xx_hal_dma.c ****   * @file    stm32l4xx_hal_dma.c
   4:E:/LiteOS/LiteOS_Lab/drivers/third_party/ST/STM32L4xx_HAL_Driver/Src\stm32l4xx_hal_dma.c ****   * @author  MCD Application Team
   5:E:/LiteOS/LiteOS_Lab/drivers/third_party/ST/STM32L4xx_HAL_Driver/Src\stm32l4xx_hal_dma.c ****   * @brief   DMA HAL module driver.
   6:E:/LiteOS/LiteOS_Lab/drivers/third_party/ST/STM32L4xx_HAL_Driver/Src\stm32l4xx_hal_dma.c ****   *         This file provides firmware functions to manage the following
   7:E:/LiteOS/LiteOS_Lab/drivers/third_party/ST/STM32L4xx_HAL_Driver/Src\stm32l4xx_hal_dma.c ****   *         functionalities of the Direct Memory Access (DMA) peripheral:
   8:E:/LiteOS/LiteOS_Lab/drivers/third_party/ST/STM32L4xx_HAL_Driver/Src\stm32l4xx_hal_dma.c ****   *           + Initialization and de-initialization functions
   9:E:/LiteOS/LiteOS_Lab/drivers/third_party/ST/STM32L4xx_HAL_Driver/Src\stm32l4xx_hal_dma.c ****   *           + IO operation functions
  10:E:/LiteOS/LiteOS_Lab/drivers/third_party/ST/STM32L4xx_HAL_Driver/Src\stm32l4xx_hal_dma.c ****   *           + Peripheral State and errors functions
  11:E:/LiteOS/LiteOS_Lab/drivers/third_party/ST/STM32L4xx_HAL_Driver/Src\stm32l4xx_hal_dma.c ****   @verbatim
  12:E:/LiteOS/LiteOS_Lab/drivers/third_party/ST/STM32L4xx_HAL_Driver/Src\stm32l4xx_hal_dma.c ****   ==============================================================================
  13:E:/LiteOS/LiteOS_Lab/drivers/third_party/ST/STM32L4xx_HAL_Driver/Src\stm32l4xx_hal_dma.c ****                         ##### How to use this driver #####
  14:E:/LiteOS/LiteOS_Lab/drivers/third_party/ST/STM32L4xx_HAL_Driver/Src\stm32l4xx_hal_dma.c ****   ==============================================================================
  15:E:/LiteOS/LiteOS_Lab/drivers/third_party/ST/STM32L4xx_HAL_Driver/Src\stm32l4xx_hal_dma.c ****   [..]
  16:E:/LiteOS/LiteOS_Lab/drivers/third_party/ST/STM32L4xx_HAL_Driver/Src\stm32l4xx_hal_dma.c ****    (#) Enable and configure the peripheral to be connected to the DMA Channel
  17:E:/LiteOS/LiteOS_Lab/drivers/third_party/ST/STM32L4xx_HAL_Driver/Src\stm32l4xx_hal_dma.c ****        (except for internal SRAM / FLASH memories: no initialization is
  18:E:/LiteOS/LiteOS_Lab/drivers/third_party/ST/STM32L4xx_HAL_Driver/Src\stm32l4xx_hal_dma.c ****        necessary). Please refer to the Reference manual for connection between peripherals
  19:E:/LiteOS/LiteOS_Lab/drivers/third_party/ST/STM32L4xx_HAL_Driver/Src\stm32l4xx_hal_dma.c ****        and DMA requests.
  20:E:/LiteOS/LiteOS_Lab/drivers/third_party/ST/STM32L4xx_HAL_Driver/Src\stm32l4xx_hal_dma.c **** 
  21:E:/LiteOS/LiteOS_Lab/drivers/third_party/ST/STM32L4xx_HAL_Driver/Src\stm32l4xx_hal_dma.c ****    (#) For a given Channel, program the required configuration through the following parameters:
  22:E:/LiteOS/LiteOS_Lab/drivers/third_party/ST/STM32L4xx_HAL_Driver/Src\stm32l4xx_hal_dma.c ****        Channel request, Transfer Direction, Source and Destination data formats,
  23:E:/LiteOS/LiteOS_Lab/drivers/third_party/ST/STM32L4xx_HAL_Driver/Src\stm32l4xx_hal_dma.c ****        Circular or Normal mode, Channel Priority level, Source and Destination Increment mode
  24:E:/LiteOS/LiteOS_Lab/drivers/third_party/ST/STM32L4xx_HAL_Driver/Src\stm32l4xx_hal_dma.c ****        using HAL_DMA_Init() function.
  25:E:/LiteOS/LiteOS_Lab/drivers/third_party/ST/STM32L4xx_HAL_Driver/Src\stm32l4xx_hal_dma.c **** 
  26:E:/LiteOS/LiteOS_Lab/drivers/third_party/ST/STM32L4xx_HAL_Driver/Src\stm32l4xx_hal_dma.c ****        Prior to HAL_DMA_Init the peripheral clock shall be enabled for both DMA & DMAMUX
  27:E:/LiteOS/LiteOS_Lab/drivers/third_party/ST/STM32L4xx_HAL_Driver/Src\stm32l4xx_hal_dma.c ****        thanks to:
  28:E:/LiteOS/LiteOS_Lab/drivers/third_party/ST/STM32L4xx_HAL_Driver/Src\stm32l4xx_hal_dma.c ****       (##) DMA1 or DMA2: __HAL_RCC_DMA1_CLK_ENABLE() or  __HAL_RCC_DMA2_CLK_ENABLE() ;
  29:E:/LiteOS/LiteOS_Lab/drivers/third_party/ST/STM32L4xx_HAL_Driver/Src\stm32l4xx_hal_dma.c ****       (##) DMAMUX1:      __HAL_RCC_DMAMUX1_CLK_ENABLE();
  30:E:/LiteOS/LiteOS_Lab/drivers/third_party/ST/STM32L4xx_HAL_Driver/Src\stm32l4xx_hal_dma.c **** 
  31:E:/LiteOS/LiteOS_Lab/drivers/third_party/ST/STM32L4xx_HAL_Driver/Src\stm32l4xx_hal_dma.c ****    (#) Use HAL_DMA_GetState() function to return the DMA state and HAL_DMA_GetError() in case of er
ARM GAS  C:\Users\user\AppData\Local\Temp\ccuTs4tt.s 			page 2


  32:E:/LiteOS/LiteOS_Lab/drivers/third_party/ST/STM32L4xx_HAL_Driver/Src\stm32l4xx_hal_dma.c ****        detection.
  33:E:/LiteOS/LiteOS_Lab/drivers/third_party/ST/STM32L4xx_HAL_Driver/Src\stm32l4xx_hal_dma.c **** 
  34:E:/LiteOS/LiteOS_Lab/drivers/third_party/ST/STM32L4xx_HAL_Driver/Src\stm32l4xx_hal_dma.c ****    (#) Use HAL_DMA_Abort() function to abort the current transfer
  35:E:/LiteOS/LiteOS_Lab/drivers/third_party/ST/STM32L4xx_HAL_Driver/Src\stm32l4xx_hal_dma.c **** 
  36:E:/LiteOS/LiteOS_Lab/drivers/third_party/ST/STM32L4xx_HAL_Driver/Src\stm32l4xx_hal_dma.c ****      -@-   In Memory-to-Memory transfer mode, Circular mode is not allowed.
  37:E:/LiteOS/LiteOS_Lab/drivers/third_party/ST/STM32L4xx_HAL_Driver/Src\stm32l4xx_hal_dma.c **** 
  38:E:/LiteOS/LiteOS_Lab/drivers/third_party/ST/STM32L4xx_HAL_Driver/Src\stm32l4xx_hal_dma.c ****      *** Polling mode IO operation ***
  39:E:/LiteOS/LiteOS_Lab/drivers/third_party/ST/STM32L4xx_HAL_Driver/Src\stm32l4xx_hal_dma.c ****      =================================
  40:E:/LiteOS/LiteOS_Lab/drivers/third_party/ST/STM32L4xx_HAL_Driver/Src\stm32l4xx_hal_dma.c ****     [..]
  41:E:/LiteOS/LiteOS_Lab/drivers/third_party/ST/STM32L4xx_HAL_Driver/Src\stm32l4xx_hal_dma.c ****           (+) Use HAL_DMA_Start() to start DMA transfer after the configuration of Source
  42:E:/LiteOS/LiteOS_Lab/drivers/third_party/ST/STM32L4xx_HAL_Driver/Src\stm32l4xx_hal_dma.c ****               address and destination address and the Length of data to be transferred
  43:E:/LiteOS/LiteOS_Lab/drivers/third_party/ST/STM32L4xx_HAL_Driver/Src\stm32l4xx_hal_dma.c ****           (+) Use HAL_DMA_PollForTransfer() to poll for the end of current transfer, in this
  44:E:/LiteOS/LiteOS_Lab/drivers/third_party/ST/STM32L4xx_HAL_Driver/Src\stm32l4xx_hal_dma.c ****               case a fixed Timeout can be configured by User depending from his application.
  45:E:/LiteOS/LiteOS_Lab/drivers/third_party/ST/STM32L4xx_HAL_Driver/Src\stm32l4xx_hal_dma.c **** 
  46:E:/LiteOS/LiteOS_Lab/drivers/third_party/ST/STM32L4xx_HAL_Driver/Src\stm32l4xx_hal_dma.c ****      *** Interrupt mode IO operation ***
  47:E:/LiteOS/LiteOS_Lab/drivers/third_party/ST/STM32L4xx_HAL_Driver/Src\stm32l4xx_hal_dma.c ****      ===================================
  48:E:/LiteOS/LiteOS_Lab/drivers/third_party/ST/STM32L4xx_HAL_Driver/Src\stm32l4xx_hal_dma.c ****     [..]
  49:E:/LiteOS/LiteOS_Lab/drivers/third_party/ST/STM32L4xx_HAL_Driver/Src\stm32l4xx_hal_dma.c ****           (+) Configure the DMA interrupt priority using HAL_NVIC_SetPriority()
  50:E:/LiteOS/LiteOS_Lab/drivers/third_party/ST/STM32L4xx_HAL_Driver/Src\stm32l4xx_hal_dma.c ****           (+) Enable the DMA IRQ handler using HAL_NVIC_EnableIRQ()
  51:E:/LiteOS/LiteOS_Lab/drivers/third_party/ST/STM32L4xx_HAL_Driver/Src\stm32l4xx_hal_dma.c ****           (+) Use HAL_DMA_Start_IT() to start DMA transfer after the configuration of
  52:E:/LiteOS/LiteOS_Lab/drivers/third_party/ST/STM32L4xx_HAL_Driver/Src\stm32l4xx_hal_dma.c ****               Source address and destination address and the Length of data to be transferred.
  53:E:/LiteOS/LiteOS_Lab/drivers/third_party/ST/STM32L4xx_HAL_Driver/Src\stm32l4xx_hal_dma.c ****               In this case the DMA interrupt is configured
  54:E:/LiteOS/LiteOS_Lab/drivers/third_party/ST/STM32L4xx_HAL_Driver/Src\stm32l4xx_hal_dma.c ****           (+) Use HAL_DMA_IRQHandler() called under DMA_IRQHandler() Interrupt subroutine
  55:E:/LiteOS/LiteOS_Lab/drivers/third_party/ST/STM32L4xx_HAL_Driver/Src\stm32l4xx_hal_dma.c ****           (+) At the end of data transfer HAL_DMA_IRQHandler() function is executed and user can
  56:E:/LiteOS/LiteOS_Lab/drivers/third_party/ST/STM32L4xx_HAL_Driver/Src\stm32l4xx_hal_dma.c ****               add his own function to register callbacks with HAL_DMA_RegisterCallback().
  57:E:/LiteOS/LiteOS_Lab/drivers/third_party/ST/STM32L4xx_HAL_Driver/Src\stm32l4xx_hal_dma.c **** 
  58:E:/LiteOS/LiteOS_Lab/drivers/third_party/ST/STM32L4xx_HAL_Driver/Src\stm32l4xx_hal_dma.c ****      *** DMA HAL driver macros list ***
  59:E:/LiteOS/LiteOS_Lab/drivers/third_party/ST/STM32L4xx_HAL_Driver/Src\stm32l4xx_hal_dma.c ****      =============================================
  60:E:/LiteOS/LiteOS_Lab/drivers/third_party/ST/STM32L4xx_HAL_Driver/Src\stm32l4xx_hal_dma.c ****       [..]
  61:E:/LiteOS/LiteOS_Lab/drivers/third_party/ST/STM32L4xx_HAL_Driver/Src\stm32l4xx_hal_dma.c ****        Below the list of macros in DMA HAL driver.
  62:E:/LiteOS/LiteOS_Lab/drivers/third_party/ST/STM32L4xx_HAL_Driver/Src\stm32l4xx_hal_dma.c **** 
  63:E:/LiteOS/LiteOS_Lab/drivers/third_party/ST/STM32L4xx_HAL_Driver/Src\stm32l4xx_hal_dma.c ****        (+) __HAL_DMA_ENABLE: Enable the specified DMA Channel.
  64:E:/LiteOS/LiteOS_Lab/drivers/third_party/ST/STM32L4xx_HAL_Driver/Src\stm32l4xx_hal_dma.c ****        (+) __HAL_DMA_DISABLE: Disable the specified DMA Channel.
  65:E:/LiteOS/LiteOS_Lab/drivers/third_party/ST/STM32L4xx_HAL_Driver/Src\stm32l4xx_hal_dma.c ****        (+) __HAL_DMA_GET_FLAG: Get the DMA Channel pending flags.
  66:E:/LiteOS/LiteOS_Lab/drivers/third_party/ST/STM32L4xx_HAL_Driver/Src\stm32l4xx_hal_dma.c ****        (+) __HAL_DMA_CLEAR_FLAG: Clear the DMA Channel pending flags.
  67:E:/LiteOS/LiteOS_Lab/drivers/third_party/ST/STM32L4xx_HAL_Driver/Src\stm32l4xx_hal_dma.c ****        (+) __HAL_DMA_ENABLE_IT: Enable the specified DMA Channel interrupts.
  68:E:/LiteOS/LiteOS_Lab/drivers/third_party/ST/STM32L4xx_HAL_Driver/Src\stm32l4xx_hal_dma.c ****        (+) __HAL_DMA_DISABLE_IT: Disable the specified DMA Channel interrupts.
  69:E:/LiteOS/LiteOS_Lab/drivers/third_party/ST/STM32L4xx_HAL_Driver/Src\stm32l4xx_hal_dma.c ****        (+) __HAL_DMA_GET_IT_SOURCE: Check whether the specified DMA Channel interrupt is enabled or
  70:E:/LiteOS/LiteOS_Lab/drivers/third_party/ST/STM32L4xx_HAL_Driver/Src\stm32l4xx_hal_dma.c **** 
  71:E:/LiteOS/LiteOS_Lab/drivers/third_party/ST/STM32L4xx_HAL_Driver/Src\stm32l4xx_hal_dma.c ****      [..]
  72:E:/LiteOS/LiteOS_Lab/drivers/third_party/ST/STM32L4xx_HAL_Driver/Src\stm32l4xx_hal_dma.c ****       (@) You can refer to the DMA HAL driver header file for more useful macros
  73:E:/LiteOS/LiteOS_Lab/drivers/third_party/ST/STM32L4xx_HAL_Driver/Src\stm32l4xx_hal_dma.c **** 
  74:E:/LiteOS/LiteOS_Lab/drivers/third_party/ST/STM32L4xx_HAL_Driver/Src\stm32l4xx_hal_dma.c ****   @endverbatim
  75:E:/LiteOS/LiteOS_Lab/drivers/third_party/ST/STM32L4xx_HAL_Driver/Src\stm32l4xx_hal_dma.c ****   ******************************************************************************
  76:E:/LiteOS/LiteOS_Lab/drivers/third_party/ST/STM32L4xx_HAL_Driver/Src\stm32l4xx_hal_dma.c ****   * @attention
  77:E:/LiteOS/LiteOS_Lab/drivers/third_party/ST/STM32L4xx_HAL_Driver/Src\stm32l4xx_hal_dma.c ****   *
  78:E:/LiteOS/LiteOS_Lab/drivers/third_party/ST/STM32L4xx_HAL_Driver/Src\stm32l4xx_hal_dma.c ****   * <h2><center>&copy; COPYRIGHT(c) 2017 STMicroelectronics</center></h2>
  79:E:/LiteOS/LiteOS_Lab/drivers/third_party/ST/STM32L4xx_HAL_Driver/Src\stm32l4xx_hal_dma.c ****   *
  80:E:/LiteOS/LiteOS_Lab/drivers/third_party/ST/STM32L4xx_HAL_Driver/Src\stm32l4xx_hal_dma.c ****   * Redistribution and use in source and binary forms, with or without modification,
  81:E:/LiteOS/LiteOS_Lab/drivers/third_party/ST/STM32L4xx_HAL_Driver/Src\stm32l4xx_hal_dma.c ****   * are permitted provided that the following conditions are met:
  82:E:/LiteOS/LiteOS_Lab/drivers/third_party/ST/STM32L4xx_HAL_Driver/Src\stm32l4xx_hal_dma.c ****   *   1. Redistributions of source code must retain the above copyright notice,
  83:E:/LiteOS/LiteOS_Lab/drivers/third_party/ST/STM32L4xx_HAL_Driver/Src\stm32l4xx_hal_dma.c ****   *      this list of conditions and the following disclaimer.
  84:E:/LiteOS/LiteOS_Lab/drivers/third_party/ST/STM32L4xx_HAL_Driver/Src\stm32l4xx_hal_dma.c ****   *   2. Redistributions in binary form must reproduce the above copyright notice,
  85:E:/LiteOS/LiteOS_Lab/drivers/third_party/ST/STM32L4xx_HAL_Driver/Src\stm32l4xx_hal_dma.c ****   *      this list of conditions and the following disclaimer in the documentation
  86:E:/LiteOS/LiteOS_Lab/drivers/third_party/ST/STM32L4xx_HAL_Driver/Src\stm32l4xx_hal_dma.c ****   *      and/or other materials provided with the distribution.
  87:E:/LiteOS/LiteOS_Lab/drivers/third_party/ST/STM32L4xx_HAL_Driver/Src\stm32l4xx_hal_dma.c ****   *   3. Neither the name of STMicroelectronics nor the names of its contributors
  88:E:/LiteOS/LiteOS_Lab/drivers/third_party/ST/STM32L4xx_HAL_Driver/Src\stm32l4xx_hal_dma.c ****   *      may be used to endorse or promote products derived from this software
ARM GAS  C:\Users\user\AppData\Local\Temp\ccuTs4tt.s 			page 3


  89:E:/LiteOS/LiteOS_Lab/drivers/third_party/ST/STM32L4xx_HAL_Driver/Src\stm32l4xx_hal_dma.c ****   *      without specific prior written permission.
  90:E:/LiteOS/LiteOS_Lab/drivers/third_party/ST/STM32L4xx_HAL_Driver/Src\stm32l4xx_hal_dma.c ****   *
  91:E:/LiteOS/LiteOS_Lab/drivers/third_party/ST/STM32L4xx_HAL_Driver/Src\stm32l4xx_hal_dma.c ****   * THIS SOFTWARE IS PROVIDED BY THE COPYRIGHT HOLDERS AND CONTRIBUTORS "AS IS"
  92:E:/LiteOS/LiteOS_Lab/drivers/third_party/ST/STM32L4xx_HAL_Driver/Src\stm32l4xx_hal_dma.c ****   * AND ANY EXPRESS OR IMPLIED WARRANTIES, INCLUDING, BUT NOT LIMITED TO, THE
  93:E:/LiteOS/LiteOS_Lab/drivers/third_party/ST/STM32L4xx_HAL_Driver/Src\stm32l4xx_hal_dma.c ****   * IMPLIED WARRANTIES OF MERCHANTABILITY AND FITNESS FOR A PARTICULAR PURPOSE ARE
  94:E:/LiteOS/LiteOS_Lab/drivers/third_party/ST/STM32L4xx_HAL_Driver/Src\stm32l4xx_hal_dma.c ****   * DISCLAIMED. IN NO EVENT SHALL THE COPYRIGHT HOLDER OR CONTRIBUTORS BE LIABLE
  95:E:/LiteOS/LiteOS_Lab/drivers/third_party/ST/STM32L4xx_HAL_Driver/Src\stm32l4xx_hal_dma.c ****   * FOR ANY DIRECT, INDIRECT, INCIDENTAL, SPECIAL, EXEMPLARY, OR CONSEQUENTIAL
  96:E:/LiteOS/LiteOS_Lab/drivers/third_party/ST/STM32L4xx_HAL_Driver/Src\stm32l4xx_hal_dma.c ****   * DAMAGES (INCLUDING, BUT NOT LIMITED TO, PROCUREMENT OF SUBSTITUTE GOODS OR
  97:E:/LiteOS/LiteOS_Lab/drivers/third_party/ST/STM32L4xx_HAL_Driver/Src\stm32l4xx_hal_dma.c ****   * SERVICES; LOSS OF USE, DATA, OR PROFITS; OR BUSINESS INTERRUPTION) HOWEVER
  98:E:/LiteOS/LiteOS_Lab/drivers/third_party/ST/STM32L4xx_HAL_Driver/Src\stm32l4xx_hal_dma.c ****   * CAUSED AND ON ANY THEORY OF LIABILITY, WHETHER IN CONTRACT, STRICT LIABILITY,
  99:E:/LiteOS/LiteOS_Lab/drivers/third_party/ST/STM32L4xx_HAL_Driver/Src\stm32l4xx_hal_dma.c ****   * OR TORT (INCLUDING NEGLIGENCE OR OTHERWISE) ARISING IN ANY WAY OUT OF THE USE
 100:E:/LiteOS/LiteOS_Lab/drivers/third_party/ST/STM32L4xx_HAL_Driver/Src\stm32l4xx_hal_dma.c ****   * OF THIS SOFTWARE, EVEN IF ADVISED OF THE POSSIBILITY OF SUCH DAMAGE.
 101:E:/LiteOS/LiteOS_Lab/drivers/third_party/ST/STM32L4xx_HAL_Driver/Src\stm32l4xx_hal_dma.c ****   *
 102:E:/LiteOS/LiteOS_Lab/drivers/third_party/ST/STM32L4xx_HAL_Driver/Src\stm32l4xx_hal_dma.c ****   ******************************************************************************
 103:E:/LiteOS/LiteOS_Lab/drivers/third_party/ST/STM32L4xx_HAL_Driver/Src\stm32l4xx_hal_dma.c ****   */
 104:E:/LiteOS/LiteOS_Lab/drivers/third_party/ST/STM32L4xx_HAL_Driver/Src\stm32l4xx_hal_dma.c **** 
 105:E:/LiteOS/LiteOS_Lab/drivers/third_party/ST/STM32L4xx_HAL_Driver/Src\stm32l4xx_hal_dma.c **** /* Includes ------------------------------------------------------------------*/
 106:E:/LiteOS/LiteOS_Lab/drivers/third_party/ST/STM32L4xx_HAL_Driver/Src\stm32l4xx_hal_dma.c **** #include "stm32l4xx_hal.h"
 107:E:/LiteOS/LiteOS_Lab/drivers/third_party/ST/STM32L4xx_HAL_Driver/Src\stm32l4xx_hal_dma.c **** 
 108:E:/LiteOS/LiteOS_Lab/drivers/third_party/ST/STM32L4xx_HAL_Driver/Src\stm32l4xx_hal_dma.c **** /** @addtogroup STM32L4xx_HAL_Driver
 109:E:/LiteOS/LiteOS_Lab/drivers/third_party/ST/STM32L4xx_HAL_Driver/Src\stm32l4xx_hal_dma.c ****   * @{
 110:E:/LiteOS/LiteOS_Lab/drivers/third_party/ST/STM32L4xx_HAL_Driver/Src\stm32l4xx_hal_dma.c ****   */
 111:E:/LiteOS/LiteOS_Lab/drivers/third_party/ST/STM32L4xx_HAL_Driver/Src\stm32l4xx_hal_dma.c **** 
 112:E:/LiteOS/LiteOS_Lab/drivers/third_party/ST/STM32L4xx_HAL_Driver/Src\stm32l4xx_hal_dma.c **** /** @defgroup DMA DMA
 113:E:/LiteOS/LiteOS_Lab/drivers/third_party/ST/STM32L4xx_HAL_Driver/Src\stm32l4xx_hal_dma.c ****   * @brief DMA HAL module driver
 114:E:/LiteOS/LiteOS_Lab/drivers/third_party/ST/STM32L4xx_HAL_Driver/Src\stm32l4xx_hal_dma.c ****   * @{
 115:E:/LiteOS/LiteOS_Lab/drivers/third_party/ST/STM32L4xx_HAL_Driver/Src\stm32l4xx_hal_dma.c ****   */
 116:E:/LiteOS/LiteOS_Lab/drivers/third_party/ST/STM32L4xx_HAL_Driver/Src\stm32l4xx_hal_dma.c **** 
 117:E:/LiteOS/LiteOS_Lab/drivers/third_party/ST/STM32L4xx_HAL_Driver/Src\stm32l4xx_hal_dma.c **** #ifdef HAL_DMA_MODULE_ENABLED
 118:E:/LiteOS/LiteOS_Lab/drivers/third_party/ST/STM32L4xx_HAL_Driver/Src\stm32l4xx_hal_dma.c **** 
 119:E:/LiteOS/LiteOS_Lab/drivers/third_party/ST/STM32L4xx_HAL_Driver/Src\stm32l4xx_hal_dma.c **** /* Private typedef -----------------------------------------------------------*/
 120:E:/LiteOS/LiteOS_Lab/drivers/third_party/ST/STM32L4xx_HAL_Driver/Src\stm32l4xx_hal_dma.c **** /* Private define ------------------------------------------------------------*/
 121:E:/LiteOS/LiteOS_Lab/drivers/third_party/ST/STM32L4xx_HAL_Driver/Src\stm32l4xx_hal_dma.c **** /* Private macro -------------------------------------------------------------*/
 122:E:/LiteOS/LiteOS_Lab/drivers/third_party/ST/STM32L4xx_HAL_Driver/Src\stm32l4xx_hal_dma.c **** /* Private variables ---------------------------------------------------------*/
 123:E:/LiteOS/LiteOS_Lab/drivers/third_party/ST/STM32L4xx_HAL_Driver/Src\stm32l4xx_hal_dma.c **** /* Private function prototypes -----------------------------------------------*/
 124:E:/LiteOS/LiteOS_Lab/drivers/third_party/ST/STM32L4xx_HAL_Driver/Src\stm32l4xx_hal_dma.c **** /** @defgroup DMA_Private_Functions DMA Private Functions
 125:E:/LiteOS/LiteOS_Lab/drivers/third_party/ST/STM32L4xx_HAL_Driver/Src\stm32l4xx_hal_dma.c ****   * @{
 126:E:/LiteOS/LiteOS_Lab/drivers/third_party/ST/STM32L4xx_HAL_Driver/Src\stm32l4xx_hal_dma.c ****   */
 127:E:/LiteOS/LiteOS_Lab/drivers/third_party/ST/STM32L4xx_HAL_Driver/Src\stm32l4xx_hal_dma.c **** static void DMA_SetConfig(DMA_HandleTypeDef *hdma, uint32_t SrcAddress, uint32_t DstAddress, uint32
 128:E:/LiteOS/LiteOS_Lab/drivers/third_party/ST/STM32L4xx_HAL_Driver/Src\stm32l4xx_hal_dma.c **** #if defined(DMAMUX1)
 129:E:/LiteOS/LiteOS_Lab/drivers/third_party/ST/STM32L4xx_HAL_Driver/Src\stm32l4xx_hal_dma.c **** static void DMA_CalcDMAMUXChannelBaseAndMask(DMA_HandleTypeDef *hdma);
 130:E:/LiteOS/LiteOS_Lab/drivers/third_party/ST/STM32L4xx_HAL_Driver/Src\stm32l4xx_hal_dma.c **** static void DMA_CalcDMAMUXRequestGenBaseAndMask(DMA_HandleTypeDef *hdma);
 131:E:/LiteOS/LiteOS_Lab/drivers/third_party/ST/STM32L4xx_HAL_Driver/Src\stm32l4xx_hal_dma.c **** #endif /* DMAMUX1 */
 132:E:/LiteOS/LiteOS_Lab/drivers/third_party/ST/STM32L4xx_HAL_Driver/Src\stm32l4xx_hal_dma.c **** 
 133:E:/LiteOS/LiteOS_Lab/drivers/third_party/ST/STM32L4xx_HAL_Driver/Src\stm32l4xx_hal_dma.c **** /**
 134:E:/LiteOS/LiteOS_Lab/drivers/third_party/ST/STM32L4xx_HAL_Driver/Src\stm32l4xx_hal_dma.c ****   * @}
 135:E:/LiteOS/LiteOS_Lab/drivers/third_party/ST/STM32L4xx_HAL_Driver/Src\stm32l4xx_hal_dma.c ****   */
 136:E:/LiteOS/LiteOS_Lab/drivers/third_party/ST/STM32L4xx_HAL_Driver/Src\stm32l4xx_hal_dma.c **** 
 137:E:/LiteOS/LiteOS_Lab/drivers/third_party/ST/STM32L4xx_HAL_Driver/Src\stm32l4xx_hal_dma.c **** /* Exported functions ---------------------------------------------------------*/
 138:E:/LiteOS/LiteOS_Lab/drivers/third_party/ST/STM32L4xx_HAL_Driver/Src\stm32l4xx_hal_dma.c **** 
 139:E:/LiteOS/LiteOS_Lab/drivers/third_party/ST/STM32L4xx_HAL_Driver/Src\stm32l4xx_hal_dma.c **** /** @defgroup DMA_Exported_Functions DMA Exported Functions
 140:E:/LiteOS/LiteOS_Lab/drivers/third_party/ST/STM32L4xx_HAL_Driver/Src\stm32l4xx_hal_dma.c ****   * @{
 141:E:/LiteOS/LiteOS_Lab/drivers/third_party/ST/STM32L4xx_HAL_Driver/Src\stm32l4xx_hal_dma.c ****   */
 142:E:/LiteOS/LiteOS_Lab/drivers/third_party/ST/STM32L4xx_HAL_Driver/Src\stm32l4xx_hal_dma.c **** 
 143:E:/LiteOS/LiteOS_Lab/drivers/third_party/ST/STM32L4xx_HAL_Driver/Src\stm32l4xx_hal_dma.c **** /** @defgroup DMA_Exported_Functions_Group1 Initialization and de-initialization functions
 144:E:/LiteOS/LiteOS_Lab/drivers/third_party/ST/STM32L4xx_HAL_Driver/Src\stm32l4xx_hal_dma.c ****  *  @brief   Initialization and de-initialization functions
 145:E:/LiteOS/LiteOS_Lab/drivers/third_party/ST/STM32L4xx_HAL_Driver/Src\stm32l4xx_hal_dma.c ****  *
ARM GAS  C:\Users\user\AppData\Local\Temp\ccuTs4tt.s 			page 4


 146:E:/LiteOS/LiteOS_Lab/drivers/third_party/ST/STM32L4xx_HAL_Driver/Src\stm32l4xx_hal_dma.c **** @verbatim
 147:E:/LiteOS/LiteOS_Lab/drivers/third_party/ST/STM32L4xx_HAL_Driver/Src\stm32l4xx_hal_dma.c ****  ===============================================================================
 148:E:/LiteOS/LiteOS_Lab/drivers/third_party/ST/STM32L4xx_HAL_Driver/Src\stm32l4xx_hal_dma.c ****              ##### Initialization and de-initialization functions  #####
 149:E:/LiteOS/LiteOS_Lab/drivers/third_party/ST/STM32L4xx_HAL_Driver/Src\stm32l4xx_hal_dma.c ****  ===============================================================================
 150:E:/LiteOS/LiteOS_Lab/drivers/third_party/ST/STM32L4xx_HAL_Driver/Src\stm32l4xx_hal_dma.c ****     [..]
 151:E:/LiteOS/LiteOS_Lab/drivers/third_party/ST/STM32L4xx_HAL_Driver/Src\stm32l4xx_hal_dma.c ****     This section provides functions allowing to initialize the DMA Channel source
 152:E:/LiteOS/LiteOS_Lab/drivers/third_party/ST/STM32L4xx_HAL_Driver/Src\stm32l4xx_hal_dma.c ****     and destination addresses, incrementation and data sizes, transfer direction,
 153:E:/LiteOS/LiteOS_Lab/drivers/third_party/ST/STM32L4xx_HAL_Driver/Src\stm32l4xx_hal_dma.c ****     circular/normal mode selection, memory-to-memory mode selection and Channel priority value.
 154:E:/LiteOS/LiteOS_Lab/drivers/third_party/ST/STM32L4xx_HAL_Driver/Src\stm32l4xx_hal_dma.c ****     [..]
 155:E:/LiteOS/LiteOS_Lab/drivers/third_party/ST/STM32L4xx_HAL_Driver/Src\stm32l4xx_hal_dma.c ****     The HAL_DMA_Init() function follows the DMA configuration procedures as described in
 156:E:/LiteOS/LiteOS_Lab/drivers/third_party/ST/STM32L4xx_HAL_Driver/Src\stm32l4xx_hal_dma.c ****     reference manual.
 157:E:/LiteOS/LiteOS_Lab/drivers/third_party/ST/STM32L4xx_HAL_Driver/Src\stm32l4xx_hal_dma.c **** 
 158:E:/LiteOS/LiteOS_Lab/drivers/third_party/ST/STM32L4xx_HAL_Driver/Src\stm32l4xx_hal_dma.c **** @endverbatim
 159:E:/LiteOS/LiteOS_Lab/drivers/third_party/ST/STM32L4xx_HAL_Driver/Src\stm32l4xx_hal_dma.c ****   * @{
 160:E:/LiteOS/LiteOS_Lab/drivers/third_party/ST/STM32L4xx_HAL_Driver/Src\stm32l4xx_hal_dma.c ****   */
 161:E:/LiteOS/LiteOS_Lab/drivers/third_party/ST/STM32L4xx_HAL_Driver/Src\stm32l4xx_hal_dma.c **** 
 162:E:/LiteOS/LiteOS_Lab/drivers/third_party/ST/STM32L4xx_HAL_Driver/Src\stm32l4xx_hal_dma.c **** /**
 163:E:/LiteOS/LiteOS_Lab/drivers/third_party/ST/STM32L4xx_HAL_Driver/Src\stm32l4xx_hal_dma.c ****   * @brief  Initialize the DMA according to the specified
 164:E:/LiteOS/LiteOS_Lab/drivers/third_party/ST/STM32L4xx_HAL_Driver/Src\stm32l4xx_hal_dma.c ****   *         parameters in the DMA_InitTypeDef and initialize the associated handle.
 165:E:/LiteOS/LiteOS_Lab/drivers/third_party/ST/STM32L4xx_HAL_Driver/Src\stm32l4xx_hal_dma.c ****   * @param  hdma: Pointer to a DMA_HandleTypeDef structure that contains
 166:E:/LiteOS/LiteOS_Lab/drivers/third_party/ST/STM32L4xx_HAL_Driver/Src\stm32l4xx_hal_dma.c ****   *               the configuration information for the specified DMA Channel.
 167:E:/LiteOS/LiteOS_Lab/drivers/third_party/ST/STM32L4xx_HAL_Driver/Src\stm32l4xx_hal_dma.c ****   * @retval HAL status
 168:E:/LiteOS/LiteOS_Lab/drivers/third_party/ST/STM32L4xx_HAL_Driver/Src\stm32l4xx_hal_dma.c ****   */
 169:E:/LiteOS/LiteOS_Lab/drivers/third_party/ST/STM32L4xx_HAL_Driver/Src\stm32l4xx_hal_dma.c **** HAL_StatusTypeDef HAL_DMA_Init(DMA_HandleTypeDef *hdma)
 170:E:/LiteOS/LiteOS_Lab/drivers/third_party/ST/STM32L4xx_HAL_Driver/Src\stm32l4xx_hal_dma.c **** {
  28              		.loc 1 170 0
  29              		.cfi_startproc
  30              		@ args = 0, pretend = 0, frame = 16
  31              		@ frame_needed = 1, uses_anonymous_args = 0
  32              		@ link register save eliminated.
  33 0000 80B4     		push	{r7}
  34              	.LCFI0:
  35              		.cfi_def_cfa_offset 4
  36              		.cfi_offset 7, -4
  37 0002 85B0     		sub	sp, sp, #20
  38              	.LCFI1:
  39              		.cfi_def_cfa_offset 24
  40 0004 00AF     		add	r7, sp, #0
  41              	.LCFI2:
  42              		.cfi_def_cfa_register 7
  43 0006 7860     		str	r0, [r7, #4]
 171:E:/LiteOS/LiteOS_Lab/drivers/third_party/ST/STM32L4xx_HAL_Driver/Src\stm32l4xx_hal_dma.c ****   uint32_t tmp = 0;
  44              		.loc 1 171 0
  45 0008 0023     		movs	r3, #0
  46 000a FB60     		str	r3, [r7, #12]
 172:E:/LiteOS/LiteOS_Lab/drivers/third_party/ST/STM32L4xx_HAL_Driver/Src\stm32l4xx_hal_dma.c **** 
 173:E:/LiteOS/LiteOS_Lab/drivers/third_party/ST/STM32L4xx_HAL_Driver/Src\stm32l4xx_hal_dma.c ****   /* Check the DMA handle allocation */
 174:E:/LiteOS/LiteOS_Lab/drivers/third_party/ST/STM32L4xx_HAL_Driver/Src\stm32l4xx_hal_dma.c ****   if(hdma == NULL)
  47              		.loc 1 174 0
  48 000c 7B68     		ldr	r3, [r7, #4]
  49 000e 002B     		cmp	r3, #0
  50 0010 01D1     		bne	.L2
 175:E:/LiteOS/LiteOS_Lab/drivers/third_party/ST/STM32L4xx_HAL_Driver/Src\stm32l4xx_hal_dma.c ****   {
 176:E:/LiteOS/LiteOS_Lab/drivers/third_party/ST/STM32L4xx_HAL_Driver/Src\stm32l4xx_hal_dma.c ****     return HAL_ERROR;
  51              		.loc 1 176 0
  52 0012 0123     		movs	r3, #1
  53 0014 9CE0     		b	.L3
ARM GAS  C:\Users\user\AppData\Local\Temp\ccuTs4tt.s 			page 5


  54              	.L2:
 177:E:/LiteOS/LiteOS_Lab/drivers/third_party/ST/STM32L4xx_HAL_Driver/Src\stm32l4xx_hal_dma.c ****   }
 178:E:/LiteOS/LiteOS_Lab/drivers/third_party/ST/STM32L4xx_HAL_Driver/Src\stm32l4xx_hal_dma.c **** 
 179:E:/LiteOS/LiteOS_Lab/drivers/third_party/ST/STM32L4xx_HAL_Driver/Src\stm32l4xx_hal_dma.c ****   /* Check the parameters */
 180:E:/LiteOS/LiteOS_Lab/drivers/third_party/ST/STM32L4xx_HAL_Driver/Src\stm32l4xx_hal_dma.c ****   assert_param(IS_DMA_ALL_INSTANCE(hdma->Instance));
 181:E:/LiteOS/LiteOS_Lab/drivers/third_party/ST/STM32L4xx_HAL_Driver/Src\stm32l4xx_hal_dma.c ****   assert_param(IS_DMA_DIRECTION(hdma->Init.Direction));
 182:E:/LiteOS/LiteOS_Lab/drivers/third_party/ST/STM32L4xx_HAL_Driver/Src\stm32l4xx_hal_dma.c ****   assert_param(IS_DMA_PERIPHERAL_INC_STATE(hdma->Init.PeriphInc));
 183:E:/LiteOS/LiteOS_Lab/drivers/third_party/ST/STM32L4xx_HAL_Driver/Src\stm32l4xx_hal_dma.c ****   assert_param(IS_DMA_MEMORY_INC_STATE(hdma->Init.MemInc));
 184:E:/LiteOS/LiteOS_Lab/drivers/third_party/ST/STM32L4xx_HAL_Driver/Src\stm32l4xx_hal_dma.c ****   assert_param(IS_DMA_PERIPHERAL_DATA_SIZE(hdma->Init.PeriphDataAlignment));
 185:E:/LiteOS/LiteOS_Lab/drivers/third_party/ST/STM32L4xx_HAL_Driver/Src\stm32l4xx_hal_dma.c ****   assert_param(IS_DMA_MEMORY_DATA_SIZE(hdma->Init.MemDataAlignment));
 186:E:/LiteOS/LiteOS_Lab/drivers/third_party/ST/STM32L4xx_HAL_Driver/Src\stm32l4xx_hal_dma.c ****   assert_param(IS_DMA_MODE(hdma->Init.Mode));
 187:E:/LiteOS/LiteOS_Lab/drivers/third_party/ST/STM32L4xx_HAL_Driver/Src\stm32l4xx_hal_dma.c ****   assert_param(IS_DMA_PRIORITY(hdma->Init.Priority));
 188:E:/LiteOS/LiteOS_Lab/drivers/third_party/ST/STM32L4xx_HAL_Driver/Src\stm32l4xx_hal_dma.c **** 
 189:E:/LiteOS/LiteOS_Lab/drivers/third_party/ST/STM32L4xx_HAL_Driver/Src\stm32l4xx_hal_dma.c ****   assert_param(IS_DMA_ALL_REQUEST(hdma->Init.Request));
 190:E:/LiteOS/LiteOS_Lab/drivers/third_party/ST/STM32L4xx_HAL_Driver/Src\stm32l4xx_hal_dma.c **** 
 191:E:/LiteOS/LiteOS_Lab/drivers/third_party/ST/STM32L4xx_HAL_Driver/Src\stm32l4xx_hal_dma.c ****   /* Compute the channel index */
 192:E:/LiteOS/LiteOS_Lab/drivers/third_party/ST/STM32L4xx_HAL_Driver/Src\stm32l4xx_hal_dma.c ****   if ((uint32_t)(hdma->Instance) < (uint32_t)(DMA2_Channel1))
  55              		.loc 1 192 0
  56 0016 7B68     		ldr	r3, [r7, #4]
  57 0018 1B68     		ldr	r3, [r3]
  58 001a 1A46     		mov	r2, r3
  59 001c 4F4B     		ldr	r3, .L8
  60 001e 9A42     		cmp	r2, r3
  61 0020 0FD8     		bhi	.L4
 193:E:/LiteOS/LiteOS_Lab/drivers/third_party/ST/STM32L4xx_HAL_Driver/Src\stm32l4xx_hal_dma.c ****   {
 194:E:/LiteOS/LiteOS_Lab/drivers/third_party/ST/STM32L4xx_HAL_Driver/Src\stm32l4xx_hal_dma.c ****     /* DMA1 */
 195:E:/LiteOS/LiteOS_Lab/drivers/third_party/ST/STM32L4xx_HAL_Driver/Src\stm32l4xx_hal_dma.c ****     hdma->ChannelIndex = (((uint32_t)hdma->Instance - (uint32_t)DMA1_Channel1) / ((uint32_t)DMA1_Ch
  62              		.loc 1 195 0
  63 0022 7B68     		ldr	r3, [r7, #4]
  64 0024 1B68     		ldr	r3, [r3]
  65 0026 1A46     		mov	r2, r3
  66 0028 4D4B     		ldr	r3, .L8+4
  67 002a 1344     		add	r3, r3, r2
  68 002c 4D4A     		ldr	r2, .L8+8
  69 002e A2FB0323 		umull	r2, r3, r2, r3
  70 0032 1B09     		lsrs	r3, r3, #4
  71 0034 9A00     		lsls	r2, r3, #2
  72 0036 7B68     		ldr	r3, [r7, #4]
  73 0038 5A64     		str	r2, [r3, #68]
 196:E:/LiteOS/LiteOS_Lab/drivers/third_party/ST/STM32L4xx_HAL_Driver/Src\stm32l4xx_hal_dma.c ****     hdma->DmaBaseAddress = DMA1;
  74              		.loc 1 196 0
  75 003a 7B68     		ldr	r3, [r7, #4]
  76 003c 4A4A     		ldr	r2, .L8+12
  77 003e 1A64     		str	r2, [r3, #64]
  78 0040 0EE0     		b	.L5
  79              	.L4:
 197:E:/LiteOS/LiteOS_Lab/drivers/third_party/ST/STM32L4xx_HAL_Driver/Src\stm32l4xx_hal_dma.c ****   }
 198:E:/LiteOS/LiteOS_Lab/drivers/third_party/ST/STM32L4xx_HAL_Driver/Src\stm32l4xx_hal_dma.c ****   else
 199:E:/LiteOS/LiteOS_Lab/drivers/third_party/ST/STM32L4xx_HAL_Driver/Src\stm32l4xx_hal_dma.c ****   {
 200:E:/LiteOS/LiteOS_Lab/drivers/third_party/ST/STM32L4xx_HAL_Driver/Src\stm32l4xx_hal_dma.c ****     /* DMA2 */
 201:E:/LiteOS/LiteOS_Lab/drivers/third_party/ST/STM32L4xx_HAL_Driver/Src\stm32l4xx_hal_dma.c ****     hdma->ChannelIndex = (((uint32_t)hdma->Instance - (uint32_t)DMA2_Channel1) / ((uint32_t)DMA2_Ch
  80              		.loc 1 201 0
  81 0042 7B68     		ldr	r3, [r7, #4]
  82 0044 1B68     		ldr	r3, [r3]
  83 0046 1A46     		mov	r2, r3
  84 0048 484B     		ldr	r3, .L8+16
  85 004a 1344     		add	r3, r3, r2
ARM GAS  C:\Users\user\AppData\Local\Temp\ccuTs4tt.s 			page 6


  86 004c 454A     		ldr	r2, .L8+8
  87 004e A2FB0323 		umull	r2, r3, r2, r3
  88 0052 1B09     		lsrs	r3, r3, #4
  89 0054 9A00     		lsls	r2, r3, #2
  90 0056 7B68     		ldr	r3, [r7, #4]
  91 0058 5A64     		str	r2, [r3, #68]
 202:E:/LiteOS/LiteOS_Lab/drivers/third_party/ST/STM32L4xx_HAL_Driver/Src\stm32l4xx_hal_dma.c ****     hdma->DmaBaseAddress = DMA2;
  92              		.loc 1 202 0
  93 005a 7B68     		ldr	r3, [r7, #4]
  94 005c 444A     		ldr	r2, .L8+20
  95 005e 1A64     		str	r2, [r3, #64]
  96              	.L5:
 203:E:/LiteOS/LiteOS_Lab/drivers/third_party/ST/STM32L4xx_HAL_Driver/Src\stm32l4xx_hal_dma.c ****   }
 204:E:/LiteOS/LiteOS_Lab/drivers/third_party/ST/STM32L4xx_HAL_Driver/Src\stm32l4xx_hal_dma.c **** 
 205:E:/LiteOS/LiteOS_Lab/drivers/third_party/ST/STM32L4xx_HAL_Driver/Src\stm32l4xx_hal_dma.c ****   /* Change DMA peripheral state */
 206:E:/LiteOS/LiteOS_Lab/drivers/third_party/ST/STM32L4xx_HAL_Driver/Src\stm32l4xx_hal_dma.c ****   hdma->State = HAL_DMA_STATE_BUSY;
  97              		.loc 1 206 0
  98 0060 7B68     		ldr	r3, [r7, #4]
  99 0062 0222     		movs	r2, #2
 100 0064 83F82520 		strb	r2, [r3, #37]
 207:E:/LiteOS/LiteOS_Lab/drivers/third_party/ST/STM32L4xx_HAL_Driver/Src\stm32l4xx_hal_dma.c **** 
 208:E:/LiteOS/LiteOS_Lab/drivers/third_party/ST/STM32L4xx_HAL_Driver/Src\stm32l4xx_hal_dma.c ****   /* Get the CR register value */
 209:E:/LiteOS/LiteOS_Lab/drivers/third_party/ST/STM32L4xx_HAL_Driver/Src\stm32l4xx_hal_dma.c ****   tmp = hdma->Instance->CCR;
 101              		.loc 1 209 0
 102 0068 7B68     		ldr	r3, [r7, #4]
 103 006a 1B68     		ldr	r3, [r3]
 104 006c 1B68     		ldr	r3, [r3]
 105 006e FB60     		str	r3, [r7, #12]
 210:E:/LiteOS/LiteOS_Lab/drivers/third_party/ST/STM32L4xx_HAL_Driver/Src\stm32l4xx_hal_dma.c **** 
 211:E:/LiteOS/LiteOS_Lab/drivers/third_party/ST/STM32L4xx_HAL_Driver/Src\stm32l4xx_hal_dma.c ****   /* Clear PL, MSIZE, PSIZE, MINC, PINC, CIRC, DIR and MEM2MEM bits */
 212:E:/LiteOS/LiteOS_Lab/drivers/third_party/ST/STM32L4xx_HAL_Driver/Src\stm32l4xx_hal_dma.c ****   tmp &= ((uint32_t)~(DMA_CCR_PL    | DMA_CCR_MSIZE  | DMA_CCR_PSIZE  |
 106              		.loc 1 212 0
 107 0070 FB68     		ldr	r3, [r7, #12]
 108 0072 23F4FF43 		bic	r3, r3, #32640
 109 0076 23F07003 		bic	r3, r3, #112
 110 007a FB60     		str	r3, [r7, #12]
 213:E:/LiteOS/LiteOS_Lab/drivers/third_party/ST/STM32L4xx_HAL_Driver/Src\stm32l4xx_hal_dma.c ****                       DMA_CCR_MINC  | DMA_CCR_PINC   | DMA_CCR_CIRC   |
 214:E:/LiteOS/LiteOS_Lab/drivers/third_party/ST/STM32L4xx_HAL_Driver/Src\stm32l4xx_hal_dma.c ****                       DMA_CCR_DIR   | DMA_CCR_MEM2MEM));
 215:E:/LiteOS/LiteOS_Lab/drivers/third_party/ST/STM32L4xx_HAL_Driver/Src\stm32l4xx_hal_dma.c **** 
 216:E:/LiteOS/LiteOS_Lab/drivers/third_party/ST/STM32L4xx_HAL_Driver/Src\stm32l4xx_hal_dma.c ****   /* Prepare the DMA Channel configuration */
 217:E:/LiteOS/LiteOS_Lab/drivers/third_party/ST/STM32L4xx_HAL_Driver/Src\stm32l4xx_hal_dma.c ****   tmp |=  hdma->Init.Direction        |
 111              		.loc 1 217 0
 112 007c 7B68     		ldr	r3, [r7, #4]
 113 007e 9A68     		ldr	r2, [r3, #8]
 218:E:/LiteOS/LiteOS_Lab/drivers/third_party/ST/STM32L4xx_HAL_Driver/Src\stm32l4xx_hal_dma.c ****           hdma->Init.PeriphInc           | hdma->Init.MemInc           |
 114              		.loc 1 218 0
 115 0080 7B68     		ldr	r3, [r7, #4]
 116 0082 DB68     		ldr	r3, [r3, #12]
 217:E:/LiteOS/LiteOS_Lab/drivers/third_party/ST/STM32L4xx_HAL_Driver/Src\stm32l4xx_hal_dma.c ****           hdma->Init.PeriphInc           | hdma->Init.MemInc           |
 117              		.loc 1 217 0
 118 0084 1A43     		orrs	r2, r2, r3
 119              		.loc 1 218 0
 120 0086 7B68     		ldr	r3, [r7, #4]
 121 0088 1B69     		ldr	r3, [r3, #16]
 122 008a 1A43     		orrs	r2, r2, r3
 219:E:/LiteOS/LiteOS_Lab/drivers/third_party/ST/STM32L4xx_HAL_Driver/Src\stm32l4xx_hal_dma.c ****           hdma->Init.PeriphDataAlignment | hdma->Init.MemDataAlignment |
 123              		.loc 1 219 0
ARM GAS  C:\Users\user\AppData\Local\Temp\ccuTs4tt.s 			page 7


 124 008c 7B68     		ldr	r3, [r7, #4]
 125 008e 5B69     		ldr	r3, [r3, #20]
 218:E:/LiteOS/LiteOS_Lab/drivers/third_party/ST/STM32L4xx_HAL_Driver/Src\stm32l4xx_hal_dma.c ****           hdma->Init.PeriphInc           | hdma->Init.MemInc           |
 126              		.loc 1 218 0
 127 0090 1A43     		orrs	r2, r2, r3
 128              		.loc 1 219 0
 129 0092 7B68     		ldr	r3, [r7, #4]
 130 0094 9B69     		ldr	r3, [r3, #24]
 131 0096 1A43     		orrs	r2, r2, r3
 220:E:/LiteOS/LiteOS_Lab/drivers/third_party/ST/STM32L4xx_HAL_Driver/Src\stm32l4xx_hal_dma.c ****           hdma->Init.Mode                | hdma->Init.Priority;
 132              		.loc 1 220 0
 133 0098 7B68     		ldr	r3, [r7, #4]
 134 009a DB69     		ldr	r3, [r3, #28]
 219:E:/LiteOS/LiteOS_Lab/drivers/third_party/ST/STM32L4xx_HAL_Driver/Src\stm32l4xx_hal_dma.c ****           hdma->Init.PeriphDataAlignment | hdma->Init.MemDataAlignment |
 135              		.loc 1 219 0
 136 009c 1A43     		orrs	r2, r2, r3
 137              		.loc 1 220 0
 138 009e 7B68     		ldr	r3, [r7, #4]
 139 00a0 1B6A     		ldr	r3, [r3, #32]
 140 00a2 1343     		orrs	r3, r3, r2
 217:E:/LiteOS/LiteOS_Lab/drivers/third_party/ST/STM32L4xx_HAL_Driver/Src\stm32l4xx_hal_dma.c ****           hdma->Init.PeriphInc           | hdma->Init.MemInc           |
 141              		.loc 1 217 0
 142 00a4 FA68     		ldr	r2, [r7, #12]
 143 00a6 1343     		orrs	r3, r3, r2
 144 00a8 FB60     		str	r3, [r7, #12]
 221:E:/LiteOS/LiteOS_Lab/drivers/third_party/ST/STM32L4xx_HAL_Driver/Src\stm32l4xx_hal_dma.c **** 
 222:E:/LiteOS/LiteOS_Lab/drivers/third_party/ST/STM32L4xx_HAL_Driver/Src\stm32l4xx_hal_dma.c ****   /* Write to DMA Channel CR register */
 223:E:/LiteOS/LiteOS_Lab/drivers/third_party/ST/STM32L4xx_HAL_Driver/Src\stm32l4xx_hal_dma.c ****   hdma->Instance->CCR = tmp;
 145              		.loc 1 223 0
 146 00aa 7B68     		ldr	r3, [r7, #4]
 147 00ac 1B68     		ldr	r3, [r3]
 148 00ae FA68     		ldr	r2, [r7, #12]
 149 00b0 1A60     		str	r2, [r3]
 224:E:/LiteOS/LiteOS_Lab/drivers/third_party/ST/STM32L4xx_HAL_Driver/Src\stm32l4xx_hal_dma.c **** 
 225:E:/LiteOS/LiteOS_Lab/drivers/third_party/ST/STM32L4xx_HAL_Driver/Src\stm32l4xx_hal_dma.c **** 
 226:E:/LiteOS/LiteOS_Lab/drivers/third_party/ST/STM32L4xx_HAL_Driver/Src\stm32l4xx_hal_dma.c **** #if defined(DMAMUX1)
 227:E:/LiteOS/LiteOS_Lab/drivers/third_party/ST/STM32L4xx_HAL_Driver/Src\stm32l4xx_hal_dma.c ****   /* Initialize parameters for DMAMUX channel :
 228:E:/LiteOS/LiteOS_Lab/drivers/third_party/ST/STM32L4xx_HAL_Driver/Src\stm32l4xx_hal_dma.c ****      DMAmuxChannel, DMAmuxChannelStatus and DMAmuxChannelStatusMask
 229:E:/LiteOS/LiteOS_Lab/drivers/third_party/ST/STM32L4xx_HAL_Driver/Src\stm32l4xx_hal_dma.c ****   */
 230:E:/LiteOS/LiteOS_Lab/drivers/third_party/ST/STM32L4xx_HAL_Driver/Src\stm32l4xx_hal_dma.c ****   DMA_CalcDMAMUXChannelBaseAndMask(hdma);
 231:E:/LiteOS/LiteOS_Lab/drivers/third_party/ST/STM32L4xx_HAL_Driver/Src\stm32l4xx_hal_dma.c **** 
 232:E:/LiteOS/LiteOS_Lab/drivers/third_party/ST/STM32L4xx_HAL_Driver/Src\stm32l4xx_hal_dma.c ****   if(hdma->Init.Direction == DMA_MEMORY_TO_MEMORY)
 233:E:/LiteOS/LiteOS_Lab/drivers/third_party/ST/STM32L4xx_HAL_Driver/Src\stm32l4xx_hal_dma.c ****   {
 234:E:/LiteOS/LiteOS_Lab/drivers/third_party/ST/STM32L4xx_HAL_Driver/Src\stm32l4xx_hal_dma.c ****     /* if memory to memory force the request to 0*/
 235:E:/LiteOS/LiteOS_Lab/drivers/third_party/ST/STM32L4xx_HAL_Driver/Src\stm32l4xx_hal_dma.c ****     hdma->Init.Request = DMA_REQUEST_MEM2MEM;
 236:E:/LiteOS/LiteOS_Lab/drivers/third_party/ST/STM32L4xx_HAL_Driver/Src\stm32l4xx_hal_dma.c ****   }
 237:E:/LiteOS/LiteOS_Lab/drivers/third_party/ST/STM32L4xx_HAL_Driver/Src\stm32l4xx_hal_dma.c **** 
 238:E:/LiteOS/LiteOS_Lab/drivers/third_party/ST/STM32L4xx_HAL_Driver/Src\stm32l4xx_hal_dma.c ****   /* Set peripheral request  to DMAMUX channel */
 239:E:/LiteOS/LiteOS_Lab/drivers/third_party/ST/STM32L4xx_HAL_Driver/Src\stm32l4xx_hal_dma.c ****   hdma->DMAmuxChannel->CCR = (hdma->Init.Request & DMAMUX_CxCR_DMAREQ_ID);
 240:E:/LiteOS/LiteOS_Lab/drivers/third_party/ST/STM32L4xx_HAL_Driver/Src\stm32l4xx_hal_dma.c **** 
 241:E:/LiteOS/LiteOS_Lab/drivers/third_party/ST/STM32L4xx_HAL_Driver/Src\stm32l4xx_hal_dma.c ****   /* Clear the DMAMUX synchro overrun flag */
 242:E:/LiteOS/LiteOS_Lab/drivers/third_party/ST/STM32L4xx_HAL_Driver/Src\stm32l4xx_hal_dma.c ****   hdma->DMAmuxChannelStatus->CFR = hdma->DMAmuxChannelStatusMask;
 243:E:/LiteOS/LiteOS_Lab/drivers/third_party/ST/STM32L4xx_HAL_Driver/Src\stm32l4xx_hal_dma.c **** 
 244:E:/LiteOS/LiteOS_Lab/drivers/third_party/ST/STM32L4xx_HAL_Driver/Src\stm32l4xx_hal_dma.c ****   if(((hdma->Init.Request >  0) && (hdma->Init.Request <= DMA_REQUEST_GENERATOR3)))
 245:E:/LiteOS/LiteOS_Lab/drivers/third_party/ST/STM32L4xx_HAL_Driver/Src\stm32l4xx_hal_dma.c ****   {
 246:E:/LiteOS/LiteOS_Lab/drivers/third_party/ST/STM32L4xx_HAL_Driver/Src\stm32l4xx_hal_dma.c ****     /* Initialize parameters for DMAMUX request generator :
 247:E:/LiteOS/LiteOS_Lab/drivers/third_party/ST/STM32L4xx_HAL_Driver/Src\stm32l4xx_hal_dma.c ****        DMAmuxRequestGen, DMAmuxRequestGenStatus and DMAmuxRequestGenStatusMask
ARM GAS  C:\Users\user\AppData\Local\Temp\ccuTs4tt.s 			page 8


 248:E:/LiteOS/LiteOS_Lab/drivers/third_party/ST/STM32L4xx_HAL_Driver/Src\stm32l4xx_hal_dma.c ****     */
 249:E:/LiteOS/LiteOS_Lab/drivers/third_party/ST/STM32L4xx_HAL_Driver/Src\stm32l4xx_hal_dma.c ****     DMA_CalcDMAMUXRequestGenBaseAndMask(hdma);
 250:E:/LiteOS/LiteOS_Lab/drivers/third_party/ST/STM32L4xx_HAL_Driver/Src\stm32l4xx_hal_dma.c **** 
 251:E:/LiteOS/LiteOS_Lab/drivers/third_party/ST/STM32L4xx_HAL_Driver/Src\stm32l4xx_hal_dma.c ****     /* Reset the DMAMUX request generator register*/
 252:E:/LiteOS/LiteOS_Lab/drivers/third_party/ST/STM32L4xx_HAL_Driver/Src\stm32l4xx_hal_dma.c ****     hdma->DMAmuxRequestGen->RGCR = 0U;
 253:E:/LiteOS/LiteOS_Lab/drivers/third_party/ST/STM32L4xx_HAL_Driver/Src\stm32l4xx_hal_dma.c **** 
 254:E:/LiteOS/LiteOS_Lab/drivers/third_party/ST/STM32L4xx_HAL_Driver/Src\stm32l4xx_hal_dma.c ****     /* Clear the DMAMUX request generator overrun flag */
 255:E:/LiteOS/LiteOS_Lab/drivers/third_party/ST/STM32L4xx_HAL_Driver/Src\stm32l4xx_hal_dma.c ****     hdma->DMAmuxRequestGenStatus->RGCFR = hdma->DMAmuxRequestGenStatusMask;
 256:E:/LiteOS/LiteOS_Lab/drivers/third_party/ST/STM32L4xx_HAL_Driver/Src\stm32l4xx_hal_dma.c ****   }
 257:E:/LiteOS/LiteOS_Lab/drivers/third_party/ST/STM32L4xx_HAL_Driver/Src\stm32l4xx_hal_dma.c ****   else
 258:E:/LiteOS/LiteOS_Lab/drivers/third_party/ST/STM32L4xx_HAL_Driver/Src\stm32l4xx_hal_dma.c ****   {
 259:E:/LiteOS/LiteOS_Lab/drivers/third_party/ST/STM32L4xx_HAL_Driver/Src\stm32l4xx_hal_dma.c ****     hdma->DMAmuxRequestGen = 0U;
 260:E:/LiteOS/LiteOS_Lab/drivers/third_party/ST/STM32L4xx_HAL_Driver/Src\stm32l4xx_hal_dma.c ****     hdma->DMAmuxRequestGenStatus = 0U;
 261:E:/LiteOS/LiteOS_Lab/drivers/third_party/ST/STM32L4xx_HAL_Driver/Src\stm32l4xx_hal_dma.c ****     hdma->DMAmuxRequestGenStatusMask = 0U;
 262:E:/LiteOS/LiteOS_Lab/drivers/third_party/ST/STM32L4xx_HAL_Driver/Src\stm32l4xx_hal_dma.c ****   }
 263:E:/LiteOS/LiteOS_Lab/drivers/third_party/ST/STM32L4xx_HAL_Driver/Src\stm32l4xx_hal_dma.c **** #endif /* DMAMUX1 */
 264:E:/LiteOS/LiteOS_Lab/drivers/third_party/ST/STM32L4xx_HAL_Driver/Src\stm32l4xx_hal_dma.c **** 
 265:E:/LiteOS/LiteOS_Lab/drivers/third_party/ST/STM32L4xx_HAL_Driver/Src\stm32l4xx_hal_dma.c **** #if !defined (DMAMUX1)
 266:E:/LiteOS/LiteOS_Lab/drivers/third_party/ST/STM32L4xx_HAL_Driver/Src\stm32l4xx_hal_dma.c **** 
 267:E:/LiteOS/LiteOS_Lab/drivers/third_party/ST/STM32L4xx_HAL_Driver/Src\stm32l4xx_hal_dma.c ****   /* Set request selection */
 268:E:/LiteOS/LiteOS_Lab/drivers/third_party/ST/STM32L4xx_HAL_Driver/Src\stm32l4xx_hal_dma.c ****   if(hdma->Init.Direction != DMA_MEMORY_TO_MEMORY)
 150              		.loc 1 268 0
 151 00b2 7B68     		ldr	r3, [r7, #4]
 152 00b4 9B68     		ldr	r3, [r3, #8]
 153 00b6 B3F5804F 		cmp	r3, #16384
 154 00ba 31D0     		beq	.L6
 269:E:/LiteOS/LiteOS_Lab/drivers/third_party/ST/STM32L4xx_HAL_Driver/Src\stm32l4xx_hal_dma.c ****   {
 270:E:/LiteOS/LiteOS_Lab/drivers/third_party/ST/STM32L4xx_HAL_Driver/Src\stm32l4xx_hal_dma.c ****     /* Write to DMA channel selection register */
 271:E:/LiteOS/LiteOS_Lab/drivers/third_party/ST/STM32L4xx_HAL_Driver/Src\stm32l4xx_hal_dma.c ****     if (DMA1 == hdma->DmaBaseAddress)
 155              		.loc 1 271 0
 156 00bc 7B68     		ldr	r3, [r7, #4]
 157 00be 1B6C     		ldr	r3, [r3, #64]
 158 00c0 294A     		ldr	r2, .L8+12
 159 00c2 9342     		cmp	r3, r2
 160 00c4 16D1     		bne	.L7
 272:E:/LiteOS/LiteOS_Lab/drivers/third_party/ST/STM32L4xx_HAL_Driver/Src\stm32l4xx_hal_dma.c ****     {
 273:E:/LiteOS/LiteOS_Lab/drivers/third_party/ST/STM32L4xx_HAL_Driver/Src\stm32l4xx_hal_dma.c ****       /* Reset request selection for DMA1 Channelx */
 274:E:/LiteOS/LiteOS_Lab/drivers/third_party/ST/STM32L4xx_HAL_Driver/Src\stm32l4xx_hal_dma.c ****       DMA1_CSELR->CSELR &= ~(DMA_CSELR_C1S << hdma->ChannelIndex);
 161              		.loc 1 274 0
 162 00c6 2B4B     		ldr	r3, .L8+24
 163 00c8 1A68     		ldr	r2, [r3]
 164 00ca 7B68     		ldr	r3, [r7, #4]
 165 00cc 5B6C     		ldr	r3, [r3, #68]
 166 00ce 0F21     		movs	r1, #15
 167 00d0 01FA03F3 		lsl	r3, r1, r3
 168 00d4 DB43     		mvns	r3, r3
 169 00d6 2749     		ldr	r1, .L8+24
 170 00d8 1340     		ands	r3, r3, r2
 171 00da 0B60     		str	r3, [r1]
 275:E:/LiteOS/LiteOS_Lab/drivers/third_party/ST/STM32L4xx_HAL_Driver/Src\stm32l4xx_hal_dma.c **** 
 276:E:/LiteOS/LiteOS_Lab/drivers/third_party/ST/STM32L4xx_HAL_Driver/Src\stm32l4xx_hal_dma.c ****       /* Configure request selection for DMA1 Channelx */
 277:E:/LiteOS/LiteOS_Lab/drivers/third_party/ST/STM32L4xx_HAL_Driver/Src\stm32l4xx_hal_dma.c ****       DMA1_CSELR->CSELR |= (uint32_t) (hdma->Init.Request << (hdma->ChannelIndex));
 172              		.loc 1 277 0
 173 00dc 254B     		ldr	r3, .L8+24
 174 00de 1A68     		ldr	r2, [r3]
 175 00e0 7B68     		ldr	r3, [r7, #4]
 176 00e2 5968     		ldr	r1, [r3, #4]
ARM GAS  C:\Users\user\AppData\Local\Temp\ccuTs4tt.s 			page 9


 177 00e4 7B68     		ldr	r3, [r7, #4]
 178 00e6 5B6C     		ldr	r3, [r3, #68]
 179 00e8 01FA03F3 		lsl	r3, r1, r3
 180 00ec 2149     		ldr	r1, .L8+24
 181 00ee 1343     		orrs	r3, r3, r2
 182 00f0 0B60     		str	r3, [r1]
 183 00f2 15E0     		b	.L6
 184              	.L7:
 278:E:/LiteOS/LiteOS_Lab/drivers/third_party/ST/STM32L4xx_HAL_Driver/Src\stm32l4xx_hal_dma.c ****     }
 279:E:/LiteOS/LiteOS_Lab/drivers/third_party/ST/STM32L4xx_HAL_Driver/Src\stm32l4xx_hal_dma.c ****     else /* DMA2 */
 280:E:/LiteOS/LiteOS_Lab/drivers/third_party/ST/STM32L4xx_HAL_Driver/Src\stm32l4xx_hal_dma.c ****     {
 281:E:/LiteOS/LiteOS_Lab/drivers/third_party/ST/STM32L4xx_HAL_Driver/Src\stm32l4xx_hal_dma.c ****       /* Reset request selection for DMA2 Channelx */
 282:E:/LiteOS/LiteOS_Lab/drivers/third_party/ST/STM32L4xx_HAL_Driver/Src\stm32l4xx_hal_dma.c ****       DMA2_CSELR->CSELR &= ~(DMA_CSELR_C1S << hdma->ChannelIndex);
 185              		.loc 1 282 0
 186 00f4 204B     		ldr	r3, .L8+28
 187 00f6 1A68     		ldr	r2, [r3]
 188 00f8 7B68     		ldr	r3, [r7, #4]
 189 00fa 5B6C     		ldr	r3, [r3, #68]
 190 00fc 0F21     		movs	r1, #15
 191 00fe 01FA03F3 		lsl	r3, r1, r3
 192 0102 DB43     		mvns	r3, r3
 193 0104 1C49     		ldr	r1, .L8+28
 194 0106 1340     		ands	r3, r3, r2
 195 0108 0B60     		str	r3, [r1]
 283:E:/LiteOS/LiteOS_Lab/drivers/third_party/ST/STM32L4xx_HAL_Driver/Src\stm32l4xx_hal_dma.c **** 
 284:E:/LiteOS/LiteOS_Lab/drivers/third_party/ST/STM32L4xx_HAL_Driver/Src\stm32l4xx_hal_dma.c ****       /* Configure request selection for DMA2 Channelx */
 285:E:/LiteOS/LiteOS_Lab/drivers/third_party/ST/STM32L4xx_HAL_Driver/Src\stm32l4xx_hal_dma.c ****       DMA2_CSELR->CSELR |= (uint32_t) (hdma->Init.Request << (hdma->ChannelIndex));
 196              		.loc 1 285 0
 197 010a 1B4B     		ldr	r3, .L8+28
 198 010c 1A68     		ldr	r2, [r3]
 199 010e 7B68     		ldr	r3, [r7, #4]
 200 0110 5968     		ldr	r1, [r3, #4]
 201 0112 7B68     		ldr	r3, [r7, #4]
 202 0114 5B6C     		ldr	r3, [r3, #68]
 203 0116 01FA03F3 		lsl	r3, r1, r3
 204 011a 1749     		ldr	r1, .L8+28
 205 011c 1343     		orrs	r3, r3, r2
 206 011e 0B60     		str	r3, [r1]
 207              	.L6:
 286:E:/LiteOS/LiteOS_Lab/drivers/third_party/ST/STM32L4xx_HAL_Driver/Src\stm32l4xx_hal_dma.c ****     }
 287:E:/LiteOS/LiteOS_Lab/drivers/third_party/ST/STM32L4xx_HAL_Driver/Src\stm32l4xx_hal_dma.c ****   }
 288:E:/LiteOS/LiteOS_Lab/drivers/third_party/ST/STM32L4xx_HAL_Driver/Src\stm32l4xx_hal_dma.c **** 
 289:E:/LiteOS/LiteOS_Lab/drivers/third_party/ST/STM32L4xx_HAL_Driver/Src\stm32l4xx_hal_dma.c **** #endif /* STM32L431xx || STM32L432xx || STM32L433xx || STM32L442xx || STM32L443xx */
 290:E:/LiteOS/LiteOS_Lab/drivers/third_party/ST/STM32L4xx_HAL_Driver/Src\stm32l4xx_hal_dma.c ****        /* STM32L471xx || STM32L475xx || STM32L476xx || STM32L442xx || STM32L486xx */
 291:E:/LiteOS/LiteOS_Lab/drivers/third_party/ST/STM32L4xx_HAL_Driver/Src\stm32l4xx_hal_dma.c ****        /* STM32L496xx || STM32L4A6xx                                              */
 292:E:/LiteOS/LiteOS_Lab/drivers/third_party/ST/STM32L4xx_HAL_Driver/Src\stm32l4xx_hal_dma.c **** 
 293:E:/LiteOS/LiteOS_Lab/drivers/third_party/ST/STM32L4xx_HAL_Driver/Src\stm32l4xx_hal_dma.c ****   /* Clean callbacks */
 294:E:/LiteOS/LiteOS_Lab/drivers/third_party/ST/STM32L4xx_HAL_Driver/Src\stm32l4xx_hal_dma.c ****   hdma->XferCpltCallback = NULL;
 208              		.loc 1 294 0
 209 0120 7B68     		ldr	r3, [r7, #4]
 210 0122 0022     		movs	r2, #0
 211 0124 DA62     		str	r2, [r3, #44]
 295:E:/LiteOS/LiteOS_Lab/drivers/third_party/ST/STM32L4xx_HAL_Driver/Src\stm32l4xx_hal_dma.c ****   hdma->XferHalfCpltCallback = NULL;
 212              		.loc 1 295 0
 213 0126 7B68     		ldr	r3, [r7, #4]
 214 0128 0022     		movs	r2, #0
 215 012a 1A63     		str	r2, [r3, #48]
ARM GAS  C:\Users\user\AppData\Local\Temp\ccuTs4tt.s 			page 10


 296:E:/LiteOS/LiteOS_Lab/drivers/third_party/ST/STM32L4xx_HAL_Driver/Src\stm32l4xx_hal_dma.c ****   hdma->XferErrorCallback = NULL;
 216              		.loc 1 296 0
 217 012c 7B68     		ldr	r3, [r7, #4]
 218 012e 0022     		movs	r2, #0
 219 0130 5A63     		str	r2, [r3, #52]
 297:E:/LiteOS/LiteOS_Lab/drivers/third_party/ST/STM32L4xx_HAL_Driver/Src\stm32l4xx_hal_dma.c ****   hdma->XferAbortCallback = NULL;
 220              		.loc 1 297 0
 221 0132 7B68     		ldr	r3, [r7, #4]
 222 0134 0022     		movs	r2, #0
 223 0136 9A63     		str	r2, [r3, #56]
 298:E:/LiteOS/LiteOS_Lab/drivers/third_party/ST/STM32L4xx_HAL_Driver/Src\stm32l4xx_hal_dma.c **** 
 299:E:/LiteOS/LiteOS_Lab/drivers/third_party/ST/STM32L4xx_HAL_Driver/Src\stm32l4xx_hal_dma.c ****   /* Initialise the error code */
 300:E:/LiteOS/LiteOS_Lab/drivers/third_party/ST/STM32L4xx_HAL_Driver/Src\stm32l4xx_hal_dma.c ****   hdma->ErrorCode = HAL_DMA_ERROR_NONE;
 224              		.loc 1 300 0
 225 0138 7B68     		ldr	r3, [r7, #4]
 226 013a 0022     		movs	r2, #0
 227 013c DA63     		str	r2, [r3, #60]
 301:E:/LiteOS/LiteOS_Lab/drivers/third_party/ST/STM32L4xx_HAL_Driver/Src\stm32l4xx_hal_dma.c **** 
 302:E:/LiteOS/LiteOS_Lab/drivers/third_party/ST/STM32L4xx_HAL_Driver/Src\stm32l4xx_hal_dma.c ****   /* Initialize the DMA state*/
 303:E:/LiteOS/LiteOS_Lab/drivers/third_party/ST/STM32L4xx_HAL_Driver/Src\stm32l4xx_hal_dma.c ****   hdma->State  = HAL_DMA_STATE_READY;
 228              		.loc 1 303 0
 229 013e 7B68     		ldr	r3, [r7, #4]
 230 0140 0122     		movs	r2, #1
 231 0142 83F82520 		strb	r2, [r3, #37]
 304:E:/LiteOS/LiteOS_Lab/drivers/third_party/ST/STM32L4xx_HAL_Driver/Src\stm32l4xx_hal_dma.c **** 
 305:E:/LiteOS/LiteOS_Lab/drivers/third_party/ST/STM32L4xx_HAL_Driver/Src\stm32l4xx_hal_dma.c ****   /* Allocate lock resource and initialize it */
 306:E:/LiteOS/LiteOS_Lab/drivers/third_party/ST/STM32L4xx_HAL_Driver/Src\stm32l4xx_hal_dma.c ****   hdma->Lock = HAL_UNLOCKED;
 232              		.loc 1 306 0
 233 0146 7B68     		ldr	r3, [r7, #4]
 234 0148 0022     		movs	r2, #0
 235 014a 83F82420 		strb	r2, [r3, #36]
 307:E:/LiteOS/LiteOS_Lab/drivers/third_party/ST/STM32L4xx_HAL_Driver/Src\stm32l4xx_hal_dma.c **** 
 308:E:/LiteOS/LiteOS_Lab/drivers/third_party/ST/STM32L4xx_HAL_Driver/Src\stm32l4xx_hal_dma.c ****   return HAL_OK;
 236              		.loc 1 308 0
 237 014e 0023     		movs	r3, #0
 238              	.L3:
 309:E:/LiteOS/LiteOS_Lab/drivers/third_party/ST/STM32L4xx_HAL_Driver/Src\stm32l4xx_hal_dma.c **** }
 239              		.loc 1 309 0
 240 0150 1846     		mov	r0, r3
 241 0152 1437     		adds	r7, r7, #20
 242              	.LCFI3:
 243              		.cfi_def_cfa_offset 4
 244 0154 BD46     		mov	sp, r7
 245              	.LCFI4:
 246              		.cfi_def_cfa_register 13
 247              		@ sp needed
 248 0156 5DF8047B 		ldr	r7, [sp], #4
 249              	.LCFI5:
 250              		.cfi_restore 7
 251              		.cfi_def_cfa_offset 0
 252 015a 7047     		bx	lr
 253              	.L9:
 254              		.align	2
 255              	.L8:
 256 015c 07040240 		.word	1073873927
 257 0160 F8FFFDBF 		.word	-1073872904
 258 0164 CDCCCCCC 		.word	-858993459
ARM GAS  C:\Users\user\AppData\Local\Temp\ccuTs4tt.s 			page 11


 259 0168 00000240 		.word	1073872896
 260 016c F8FBFDBF 		.word	-1073873928
 261 0170 00040240 		.word	1073873920
 262 0174 A8000240 		.word	1073873064
 263 0178 A8040240 		.word	1073874088
 264              		.cfi_endproc
 265              	.LFE133:
 267              		.section	.text.HAL_DMA_DeInit,"ax",%progbits
 268              		.align	1
 269              		.global	HAL_DMA_DeInit
 270              		.syntax unified
 271              		.thumb
 272              		.thumb_func
 273              		.fpu fpv4-sp-d16
 275              	HAL_DMA_DeInit:
 276              	.LFB134:
 310:E:/LiteOS/LiteOS_Lab/drivers/third_party/ST/STM32L4xx_HAL_Driver/Src\stm32l4xx_hal_dma.c **** 
 311:E:/LiteOS/LiteOS_Lab/drivers/third_party/ST/STM32L4xx_HAL_Driver/Src\stm32l4xx_hal_dma.c **** /**
 312:E:/LiteOS/LiteOS_Lab/drivers/third_party/ST/STM32L4xx_HAL_Driver/Src\stm32l4xx_hal_dma.c ****   * @brief  DeInitialize the DMA peripheral.
 313:E:/LiteOS/LiteOS_Lab/drivers/third_party/ST/STM32L4xx_HAL_Driver/Src\stm32l4xx_hal_dma.c ****   * @param  hdma: pointer to a DMA_HandleTypeDef structure that contains
 314:E:/LiteOS/LiteOS_Lab/drivers/third_party/ST/STM32L4xx_HAL_Driver/Src\stm32l4xx_hal_dma.c ****   *               the configuration information for the specified DMA Channel.
 315:E:/LiteOS/LiteOS_Lab/drivers/third_party/ST/STM32L4xx_HAL_Driver/Src\stm32l4xx_hal_dma.c ****   * @retval HAL status
 316:E:/LiteOS/LiteOS_Lab/drivers/third_party/ST/STM32L4xx_HAL_Driver/Src\stm32l4xx_hal_dma.c ****   */
 317:E:/LiteOS/LiteOS_Lab/drivers/third_party/ST/STM32L4xx_HAL_Driver/Src\stm32l4xx_hal_dma.c **** HAL_StatusTypeDef HAL_DMA_DeInit(DMA_HandleTypeDef *hdma)
 318:E:/LiteOS/LiteOS_Lab/drivers/third_party/ST/STM32L4xx_HAL_Driver/Src\stm32l4xx_hal_dma.c **** {
 277              		.loc 1 318 0
 278              		.cfi_startproc
 279              		@ args = 0, pretend = 0, frame = 8
 280              		@ frame_needed = 1, uses_anonymous_args = 0
 281              		@ link register save eliminated.
 282 0000 80B4     		push	{r7}
 283              	.LCFI6:
 284              		.cfi_def_cfa_offset 4
 285              		.cfi_offset 7, -4
 286 0002 83B0     		sub	sp, sp, #12
 287              	.LCFI7:
 288              		.cfi_def_cfa_offset 16
 289 0004 00AF     		add	r7, sp, #0
 290              	.LCFI8:
 291              		.cfi_def_cfa_register 7
 292 0006 7860     		str	r0, [r7, #4]
 319:E:/LiteOS/LiteOS_Lab/drivers/third_party/ST/STM32L4xx_HAL_Driver/Src\stm32l4xx_hal_dma.c **** 
 320:E:/LiteOS/LiteOS_Lab/drivers/third_party/ST/STM32L4xx_HAL_Driver/Src\stm32l4xx_hal_dma.c ****   /* Check the DMA handle allocation */
 321:E:/LiteOS/LiteOS_Lab/drivers/third_party/ST/STM32L4xx_HAL_Driver/Src\stm32l4xx_hal_dma.c ****   if (NULL == hdma )
 293              		.loc 1 321 0
 294 0008 7B68     		ldr	r3, [r7, #4]
 295 000a 002B     		cmp	r3, #0
 296 000c 01D1     		bne	.L11
 322:E:/LiteOS/LiteOS_Lab/drivers/third_party/ST/STM32L4xx_HAL_Driver/Src\stm32l4xx_hal_dma.c ****   {
 323:E:/LiteOS/LiteOS_Lab/drivers/third_party/ST/STM32L4xx_HAL_Driver/Src\stm32l4xx_hal_dma.c ****     return HAL_ERROR;
 297              		.loc 1 323 0
 298 000e 0123     		movs	r3, #1
 299 0010 60E0     		b	.L12
 300              	.L11:
 324:E:/LiteOS/LiteOS_Lab/drivers/third_party/ST/STM32L4xx_HAL_Driver/Src\stm32l4xx_hal_dma.c ****   }
 325:E:/LiteOS/LiteOS_Lab/drivers/third_party/ST/STM32L4xx_HAL_Driver/Src\stm32l4xx_hal_dma.c **** 
 326:E:/LiteOS/LiteOS_Lab/drivers/third_party/ST/STM32L4xx_HAL_Driver/Src\stm32l4xx_hal_dma.c ****   /* Check the parameters */
ARM GAS  C:\Users\user\AppData\Local\Temp\ccuTs4tt.s 			page 12


 327:E:/LiteOS/LiteOS_Lab/drivers/third_party/ST/STM32L4xx_HAL_Driver/Src\stm32l4xx_hal_dma.c ****   assert_param(IS_DMA_ALL_INSTANCE(hdma->Instance));
 328:E:/LiteOS/LiteOS_Lab/drivers/third_party/ST/STM32L4xx_HAL_Driver/Src\stm32l4xx_hal_dma.c **** 
 329:E:/LiteOS/LiteOS_Lab/drivers/third_party/ST/STM32L4xx_HAL_Driver/Src\stm32l4xx_hal_dma.c ****   /* Disable the selected DMA Channelx */
 330:E:/LiteOS/LiteOS_Lab/drivers/third_party/ST/STM32L4xx_HAL_Driver/Src\stm32l4xx_hal_dma.c ****   __HAL_DMA_DISABLE(hdma);
 301              		.loc 1 330 0
 302 0012 7B68     		ldr	r3, [r7, #4]
 303 0014 1B68     		ldr	r3, [r3]
 304 0016 1A68     		ldr	r2, [r3]
 305 0018 7B68     		ldr	r3, [r7, #4]
 306 001a 1B68     		ldr	r3, [r3]
 307 001c 22F00102 		bic	r2, r2, #1
 308 0020 1A60     		str	r2, [r3]
 331:E:/LiteOS/LiteOS_Lab/drivers/third_party/ST/STM32L4xx_HAL_Driver/Src\stm32l4xx_hal_dma.c **** 
 332:E:/LiteOS/LiteOS_Lab/drivers/third_party/ST/STM32L4xx_HAL_Driver/Src\stm32l4xx_hal_dma.c ****   /* Compute the channel index */
 333:E:/LiteOS/LiteOS_Lab/drivers/third_party/ST/STM32L4xx_HAL_Driver/Src\stm32l4xx_hal_dma.c ****   if ((uint32_t)(hdma->Instance) < (uint32_t)(DMA2_Channel1))
 309              		.loc 1 333 0
 310 0022 7B68     		ldr	r3, [r7, #4]
 311 0024 1B68     		ldr	r3, [r3]
 312 0026 1A46     		mov	r2, r3
 313 0028 2D4B     		ldr	r3, .L17
 314 002a 9A42     		cmp	r2, r3
 315 002c 0FD8     		bhi	.L13
 334:E:/LiteOS/LiteOS_Lab/drivers/third_party/ST/STM32L4xx_HAL_Driver/Src\stm32l4xx_hal_dma.c ****   {
 335:E:/LiteOS/LiteOS_Lab/drivers/third_party/ST/STM32L4xx_HAL_Driver/Src\stm32l4xx_hal_dma.c ****     /* DMA1 */
 336:E:/LiteOS/LiteOS_Lab/drivers/third_party/ST/STM32L4xx_HAL_Driver/Src\stm32l4xx_hal_dma.c ****     hdma->ChannelIndex = (((uint32_t)hdma->Instance - (uint32_t)DMA1_Channel1) / ((uint32_t)DMA1_Ch
 316              		.loc 1 336 0
 317 002e 7B68     		ldr	r3, [r7, #4]
 318 0030 1B68     		ldr	r3, [r3]
 319 0032 1A46     		mov	r2, r3
 320 0034 2B4B     		ldr	r3, .L17+4
 321 0036 1344     		add	r3, r3, r2
 322 0038 2B4A     		ldr	r2, .L17+8
 323 003a A2FB0323 		umull	r2, r3, r2, r3
 324 003e 1B09     		lsrs	r3, r3, #4
 325 0040 9A00     		lsls	r2, r3, #2
 326 0042 7B68     		ldr	r3, [r7, #4]
 327 0044 5A64     		str	r2, [r3, #68]
 337:E:/LiteOS/LiteOS_Lab/drivers/third_party/ST/STM32L4xx_HAL_Driver/Src\stm32l4xx_hal_dma.c ****     hdma->DmaBaseAddress = DMA1;
 328              		.loc 1 337 0
 329 0046 7B68     		ldr	r3, [r7, #4]
 330 0048 284A     		ldr	r2, .L17+12
 331 004a 1A64     		str	r2, [r3, #64]
 332 004c 0EE0     		b	.L14
 333              	.L13:
 338:E:/LiteOS/LiteOS_Lab/drivers/third_party/ST/STM32L4xx_HAL_Driver/Src\stm32l4xx_hal_dma.c ****   }
 339:E:/LiteOS/LiteOS_Lab/drivers/third_party/ST/STM32L4xx_HAL_Driver/Src\stm32l4xx_hal_dma.c ****   else
 340:E:/LiteOS/LiteOS_Lab/drivers/third_party/ST/STM32L4xx_HAL_Driver/Src\stm32l4xx_hal_dma.c ****   {
 341:E:/LiteOS/LiteOS_Lab/drivers/third_party/ST/STM32L4xx_HAL_Driver/Src\stm32l4xx_hal_dma.c ****     /* DMA2 */
 342:E:/LiteOS/LiteOS_Lab/drivers/third_party/ST/STM32L4xx_HAL_Driver/Src\stm32l4xx_hal_dma.c ****     hdma->ChannelIndex = (((uint32_t)hdma->Instance - (uint32_t)DMA2_Channel1) / ((uint32_t)DMA2_Ch
 334              		.loc 1 342 0
 335 004e 7B68     		ldr	r3, [r7, #4]
 336 0050 1B68     		ldr	r3, [r3]
 337 0052 1A46     		mov	r2, r3
 338 0054 264B     		ldr	r3, .L17+16
 339 0056 1344     		add	r3, r3, r2
 340 0058 234A     		ldr	r2, .L17+8
 341 005a A2FB0323 		umull	r2, r3, r2, r3
ARM GAS  C:\Users\user\AppData\Local\Temp\ccuTs4tt.s 			page 13


 342 005e 1B09     		lsrs	r3, r3, #4
 343 0060 9A00     		lsls	r2, r3, #2
 344 0062 7B68     		ldr	r3, [r7, #4]
 345 0064 5A64     		str	r2, [r3, #68]
 343:E:/LiteOS/LiteOS_Lab/drivers/third_party/ST/STM32L4xx_HAL_Driver/Src\stm32l4xx_hal_dma.c ****     hdma->DmaBaseAddress = DMA2;
 346              		.loc 1 343 0
 347 0066 7B68     		ldr	r3, [r7, #4]
 348 0068 224A     		ldr	r2, .L17+20
 349 006a 1A64     		str	r2, [r3, #64]
 350              	.L14:
 344:E:/LiteOS/LiteOS_Lab/drivers/third_party/ST/STM32L4xx_HAL_Driver/Src\stm32l4xx_hal_dma.c ****   }
 345:E:/LiteOS/LiteOS_Lab/drivers/third_party/ST/STM32L4xx_HAL_Driver/Src\stm32l4xx_hal_dma.c **** 
 346:E:/LiteOS/LiteOS_Lab/drivers/third_party/ST/STM32L4xx_HAL_Driver/Src\stm32l4xx_hal_dma.c ****   /* Reset DMA Channel control register */
 347:E:/LiteOS/LiteOS_Lab/drivers/third_party/ST/STM32L4xx_HAL_Driver/Src\stm32l4xx_hal_dma.c ****   hdma->Instance->CCR  = 0;
 351              		.loc 1 347 0
 352 006c 7B68     		ldr	r3, [r7, #4]
 353 006e 1B68     		ldr	r3, [r3]
 354 0070 0022     		movs	r2, #0
 355 0072 1A60     		str	r2, [r3]
 348:E:/LiteOS/LiteOS_Lab/drivers/third_party/ST/STM32L4xx_HAL_Driver/Src\stm32l4xx_hal_dma.c **** 
 349:E:/LiteOS/LiteOS_Lab/drivers/third_party/ST/STM32L4xx_HAL_Driver/Src\stm32l4xx_hal_dma.c ****   /* Clear all flags */
 350:E:/LiteOS/LiteOS_Lab/drivers/third_party/ST/STM32L4xx_HAL_Driver/Src\stm32l4xx_hal_dma.c ****   hdma->DmaBaseAddress->IFCR = (DMA_ISR_GIF1 << (hdma->ChannelIndex));
 356              		.loc 1 350 0
 357 0074 7B68     		ldr	r3, [r7, #4]
 358 0076 5A6C     		ldr	r2, [r3, #68]
 359 0078 7B68     		ldr	r3, [r7, #4]
 360 007a 1B6C     		ldr	r3, [r3, #64]
 361 007c 0121     		movs	r1, #1
 362 007e 01FA02F2 		lsl	r2, r1, r2
 363 0082 5A60     		str	r2, [r3, #4]
 351:E:/LiteOS/LiteOS_Lab/drivers/third_party/ST/STM32L4xx_HAL_Driver/Src\stm32l4xx_hal_dma.c **** 
 352:E:/LiteOS/LiteOS_Lab/drivers/third_party/ST/STM32L4xx_HAL_Driver/Src\stm32l4xx_hal_dma.c **** #if !defined (DMAMUX1)
 353:E:/LiteOS/LiteOS_Lab/drivers/third_party/ST/STM32L4xx_HAL_Driver/Src\stm32l4xx_hal_dma.c **** 
 354:E:/LiteOS/LiteOS_Lab/drivers/third_party/ST/STM32L4xx_HAL_Driver/Src\stm32l4xx_hal_dma.c ****   /* Reset DMA channel selection register */
 355:E:/LiteOS/LiteOS_Lab/drivers/third_party/ST/STM32L4xx_HAL_Driver/Src\stm32l4xx_hal_dma.c ****   if (DMA1 == hdma->DmaBaseAddress)
 364              		.loc 1 355 0
 365 0084 7B68     		ldr	r3, [r7, #4]
 366 0086 1B6C     		ldr	r3, [r3, #64]
 367 0088 184A     		ldr	r2, .L17+12
 368 008a 9342     		cmp	r3, r2
 369 008c 0BD1     		bne	.L15
 356:E:/LiteOS/LiteOS_Lab/drivers/third_party/ST/STM32L4xx_HAL_Driver/Src\stm32l4xx_hal_dma.c ****   {
 357:E:/LiteOS/LiteOS_Lab/drivers/third_party/ST/STM32L4xx_HAL_Driver/Src\stm32l4xx_hal_dma.c ****     /* DMA1 */
 358:E:/LiteOS/LiteOS_Lab/drivers/third_party/ST/STM32L4xx_HAL_Driver/Src\stm32l4xx_hal_dma.c ****     DMA1_CSELR->CSELR &= ~(DMA_CSELR_C1S << (hdma->ChannelIndex));
 370              		.loc 1 358 0
 371 008e 1A4B     		ldr	r3, .L17+24
 372 0090 1A68     		ldr	r2, [r3]
 373 0092 7B68     		ldr	r3, [r7, #4]
 374 0094 5B6C     		ldr	r3, [r3, #68]
 375 0096 0F21     		movs	r1, #15
 376 0098 01FA03F3 		lsl	r3, r1, r3
 377 009c DB43     		mvns	r3, r3
 378 009e 1649     		ldr	r1, .L17+24
 379 00a0 1340     		ands	r3, r3, r2
 380 00a2 0B60     		str	r3, [r1]
 381 00a4 0AE0     		b	.L16
 382              	.L15:
ARM GAS  C:\Users\user\AppData\Local\Temp\ccuTs4tt.s 			page 14


 359:E:/LiteOS/LiteOS_Lab/drivers/third_party/ST/STM32L4xx_HAL_Driver/Src\stm32l4xx_hal_dma.c ****   }
 360:E:/LiteOS/LiteOS_Lab/drivers/third_party/ST/STM32L4xx_HAL_Driver/Src\stm32l4xx_hal_dma.c ****   else
 361:E:/LiteOS/LiteOS_Lab/drivers/third_party/ST/STM32L4xx_HAL_Driver/Src\stm32l4xx_hal_dma.c ****   {
 362:E:/LiteOS/LiteOS_Lab/drivers/third_party/ST/STM32L4xx_HAL_Driver/Src\stm32l4xx_hal_dma.c ****     /* DMA2 */
 363:E:/LiteOS/LiteOS_Lab/drivers/third_party/ST/STM32L4xx_HAL_Driver/Src\stm32l4xx_hal_dma.c ****     DMA2_CSELR->CSELR &= ~(DMA_CSELR_C1S << (hdma->ChannelIndex));
 383              		.loc 1 363 0
 384 00a6 154B     		ldr	r3, .L17+28
 385 00a8 1A68     		ldr	r2, [r3]
 386 00aa 7B68     		ldr	r3, [r7, #4]
 387 00ac 5B6C     		ldr	r3, [r3, #68]
 388 00ae 0F21     		movs	r1, #15
 389 00b0 01FA03F3 		lsl	r3, r1, r3
 390 00b4 DB43     		mvns	r3, r3
 391 00b6 1149     		ldr	r1, .L17+28
 392 00b8 1340     		ands	r3, r3, r2
 393 00ba 0B60     		str	r3, [r1]
 394              	.L16:
 364:E:/LiteOS/LiteOS_Lab/drivers/third_party/ST/STM32L4xx_HAL_Driver/Src\stm32l4xx_hal_dma.c ****   }
 365:E:/LiteOS/LiteOS_Lab/drivers/third_party/ST/STM32L4xx_HAL_Driver/Src\stm32l4xx_hal_dma.c **** #endif /* STM32L431xx || STM32L432xx || STM32L433xx || STM32L442xx || STM32L443xx */
 366:E:/LiteOS/LiteOS_Lab/drivers/third_party/ST/STM32L4xx_HAL_Driver/Src\stm32l4xx_hal_dma.c ****        /* STM32L471xx || STM32L475xx || STM32L476xx || STM32L442xx || STM32L486xx */
 367:E:/LiteOS/LiteOS_Lab/drivers/third_party/ST/STM32L4xx_HAL_Driver/Src\stm32l4xx_hal_dma.c ****        /* STM32L496xx || STM32L4A6xx                                              */
 368:E:/LiteOS/LiteOS_Lab/drivers/third_party/ST/STM32L4xx_HAL_Driver/Src\stm32l4xx_hal_dma.c **** 
 369:E:/LiteOS/LiteOS_Lab/drivers/third_party/ST/STM32L4xx_HAL_Driver/Src\stm32l4xx_hal_dma.c **** #if defined(DMAMUX1)
 370:E:/LiteOS/LiteOS_Lab/drivers/third_party/ST/STM32L4xx_HAL_Driver/Src\stm32l4xx_hal_dma.c **** 
 371:E:/LiteOS/LiteOS_Lab/drivers/third_party/ST/STM32L4xx_HAL_Driver/Src\stm32l4xx_hal_dma.c ****   /* Initialize parameters for DMAMUX channel :
 372:E:/LiteOS/LiteOS_Lab/drivers/third_party/ST/STM32L4xx_HAL_Driver/Src\stm32l4xx_hal_dma.c ****      DMAmuxChannel, DMAmuxChannelStatus and DMAmuxChannelStatusMask */
 373:E:/LiteOS/LiteOS_Lab/drivers/third_party/ST/STM32L4xx_HAL_Driver/Src\stm32l4xx_hal_dma.c **** 
 374:E:/LiteOS/LiteOS_Lab/drivers/third_party/ST/STM32L4xx_HAL_Driver/Src\stm32l4xx_hal_dma.c ****   DMA_CalcDMAMUXChannelBaseAndMask(hdma);
 375:E:/LiteOS/LiteOS_Lab/drivers/third_party/ST/STM32L4xx_HAL_Driver/Src\stm32l4xx_hal_dma.c **** 
 376:E:/LiteOS/LiteOS_Lab/drivers/third_party/ST/STM32L4xx_HAL_Driver/Src\stm32l4xx_hal_dma.c ****   /* Reset the DMAMUX channel that corresponds to the DMA channel */
 377:E:/LiteOS/LiteOS_Lab/drivers/third_party/ST/STM32L4xx_HAL_Driver/Src\stm32l4xx_hal_dma.c ****   hdma->DMAmuxChannel->CCR = 0;
 378:E:/LiteOS/LiteOS_Lab/drivers/third_party/ST/STM32L4xx_HAL_Driver/Src\stm32l4xx_hal_dma.c **** 
 379:E:/LiteOS/LiteOS_Lab/drivers/third_party/ST/STM32L4xx_HAL_Driver/Src\stm32l4xx_hal_dma.c ****   /* Clear the DMAMUX synchro overrun flag */
 380:E:/LiteOS/LiteOS_Lab/drivers/third_party/ST/STM32L4xx_HAL_Driver/Src\stm32l4xx_hal_dma.c ****   hdma->DMAmuxChannelStatus->CFR = hdma->DMAmuxChannelStatusMask;
 381:E:/LiteOS/LiteOS_Lab/drivers/third_party/ST/STM32L4xx_HAL_Driver/Src\stm32l4xx_hal_dma.c **** 
 382:E:/LiteOS/LiteOS_Lab/drivers/third_party/ST/STM32L4xx_HAL_Driver/Src\stm32l4xx_hal_dma.c ****   /* Reset Request generator parameters if any */
 383:E:/LiteOS/LiteOS_Lab/drivers/third_party/ST/STM32L4xx_HAL_Driver/Src\stm32l4xx_hal_dma.c ****   if(((hdma->Init.Request >  0) && (hdma->Init.Request <= DMA_REQUEST_GENERATOR3)))
 384:E:/LiteOS/LiteOS_Lab/drivers/third_party/ST/STM32L4xx_HAL_Driver/Src\stm32l4xx_hal_dma.c ****   {
 385:E:/LiteOS/LiteOS_Lab/drivers/third_party/ST/STM32L4xx_HAL_Driver/Src\stm32l4xx_hal_dma.c ****     /* Initialize parameters for DMAMUX request generator :
 386:E:/LiteOS/LiteOS_Lab/drivers/third_party/ST/STM32L4xx_HAL_Driver/Src\stm32l4xx_hal_dma.c ****        DMAmuxRequestGen, DMAmuxRequestGenStatus and DMAmuxRequestGenStatusMask
 387:E:/LiteOS/LiteOS_Lab/drivers/third_party/ST/STM32L4xx_HAL_Driver/Src\stm32l4xx_hal_dma.c ****     */
 388:E:/LiteOS/LiteOS_Lab/drivers/third_party/ST/STM32L4xx_HAL_Driver/Src\stm32l4xx_hal_dma.c ****     DMA_CalcDMAMUXRequestGenBaseAndMask(hdma);
 389:E:/LiteOS/LiteOS_Lab/drivers/third_party/ST/STM32L4xx_HAL_Driver/Src\stm32l4xx_hal_dma.c **** 
 390:E:/LiteOS/LiteOS_Lab/drivers/third_party/ST/STM32L4xx_HAL_Driver/Src\stm32l4xx_hal_dma.c ****     /* Reset the DMAMUX request generator register*/
 391:E:/LiteOS/LiteOS_Lab/drivers/third_party/ST/STM32L4xx_HAL_Driver/Src\stm32l4xx_hal_dma.c ****     hdma->DMAmuxRequestGen->RGCR = 0U;
 392:E:/LiteOS/LiteOS_Lab/drivers/third_party/ST/STM32L4xx_HAL_Driver/Src\stm32l4xx_hal_dma.c **** 
 393:E:/LiteOS/LiteOS_Lab/drivers/third_party/ST/STM32L4xx_HAL_Driver/Src\stm32l4xx_hal_dma.c ****     /* Clear the DMAMUX request generator overrun flag */
 394:E:/LiteOS/LiteOS_Lab/drivers/third_party/ST/STM32L4xx_HAL_Driver/Src\stm32l4xx_hal_dma.c ****     hdma->DMAmuxRequestGenStatus->RGCFR = hdma->DMAmuxRequestGenStatusMask;
 395:E:/LiteOS/LiteOS_Lab/drivers/third_party/ST/STM32L4xx_HAL_Driver/Src\stm32l4xx_hal_dma.c ****   }
 396:E:/LiteOS/LiteOS_Lab/drivers/third_party/ST/STM32L4xx_HAL_Driver/Src\stm32l4xx_hal_dma.c ****   
 397:E:/LiteOS/LiteOS_Lab/drivers/third_party/ST/STM32L4xx_HAL_Driver/Src\stm32l4xx_hal_dma.c ****   hdma->DMAmuxRequestGen = 0U;
 398:E:/LiteOS/LiteOS_Lab/drivers/third_party/ST/STM32L4xx_HAL_Driver/Src\stm32l4xx_hal_dma.c ****   hdma->DMAmuxRequestGenStatus = 0U;
 399:E:/LiteOS/LiteOS_Lab/drivers/third_party/ST/STM32L4xx_HAL_Driver/Src\stm32l4xx_hal_dma.c ****   hdma->DMAmuxRequestGenStatusMask = 0U;
 400:E:/LiteOS/LiteOS_Lab/drivers/third_party/ST/STM32L4xx_HAL_Driver/Src\stm32l4xx_hal_dma.c **** 
 401:E:/LiteOS/LiteOS_Lab/drivers/third_party/ST/STM32L4xx_HAL_Driver/Src\stm32l4xx_hal_dma.c **** #endif /* DMAMUX1 */
 402:E:/LiteOS/LiteOS_Lab/drivers/third_party/ST/STM32L4xx_HAL_Driver/Src\stm32l4xx_hal_dma.c **** 
 403:E:/LiteOS/LiteOS_Lab/drivers/third_party/ST/STM32L4xx_HAL_Driver/Src\stm32l4xx_hal_dma.c ****   /* Initialise the error code */
ARM GAS  C:\Users\user\AppData\Local\Temp\ccuTs4tt.s 			page 15


 404:E:/LiteOS/LiteOS_Lab/drivers/third_party/ST/STM32L4xx_HAL_Driver/Src\stm32l4xx_hal_dma.c ****   hdma->ErrorCode = HAL_DMA_ERROR_NONE;
 395              		.loc 1 404 0
 396 00bc 7B68     		ldr	r3, [r7, #4]
 397 00be 0022     		movs	r2, #0
 398 00c0 DA63     		str	r2, [r3, #60]
 405:E:/LiteOS/LiteOS_Lab/drivers/third_party/ST/STM32L4xx_HAL_Driver/Src\stm32l4xx_hal_dma.c **** 
 406:E:/LiteOS/LiteOS_Lab/drivers/third_party/ST/STM32L4xx_HAL_Driver/Src\stm32l4xx_hal_dma.c ****   /* Initialize the DMA state */
 407:E:/LiteOS/LiteOS_Lab/drivers/third_party/ST/STM32L4xx_HAL_Driver/Src\stm32l4xx_hal_dma.c ****   hdma->State = HAL_DMA_STATE_RESET;
 399              		.loc 1 407 0
 400 00c2 7B68     		ldr	r3, [r7, #4]
 401 00c4 0022     		movs	r2, #0
 402 00c6 83F82520 		strb	r2, [r3, #37]
 408:E:/LiteOS/LiteOS_Lab/drivers/third_party/ST/STM32L4xx_HAL_Driver/Src\stm32l4xx_hal_dma.c **** 
 409:E:/LiteOS/LiteOS_Lab/drivers/third_party/ST/STM32L4xx_HAL_Driver/Src\stm32l4xx_hal_dma.c ****   /* Release Lock */
 410:E:/LiteOS/LiteOS_Lab/drivers/third_party/ST/STM32L4xx_HAL_Driver/Src\stm32l4xx_hal_dma.c ****   __HAL_UNLOCK(hdma);
 403              		.loc 1 410 0
 404 00ca 7B68     		ldr	r3, [r7, #4]
 405 00cc 0022     		movs	r2, #0
 406 00ce 83F82420 		strb	r2, [r3, #36]
 411:E:/LiteOS/LiteOS_Lab/drivers/third_party/ST/STM32L4xx_HAL_Driver/Src\stm32l4xx_hal_dma.c **** 
 412:E:/LiteOS/LiteOS_Lab/drivers/third_party/ST/STM32L4xx_HAL_Driver/Src\stm32l4xx_hal_dma.c ****   return HAL_OK;
 407              		.loc 1 412 0
 408 00d2 0023     		movs	r3, #0
 409              	.L12:
 413:E:/LiteOS/LiteOS_Lab/drivers/third_party/ST/STM32L4xx_HAL_Driver/Src\stm32l4xx_hal_dma.c **** }
 410              		.loc 1 413 0
 411 00d4 1846     		mov	r0, r3
 412 00d6 0C37     		adds	r7, r7, #12
 413              	.LCFI9:
 414              		.cfi_def_cfa_offset 4
 415 00d8 BD46     		mov	sp, r7
 416              	.LCFI10:
 417              		.cfi_def_cfa_register 13
 418              		@ sp needed
 419 00da 5DF8047B 		ldr	r7, [sp], #4
 420              	.LCFI11:
 421              		.cfi_restore 7
 422              		.cfi_def_cfa_offset 0
 423 00de 7047     		bx	lr
 424              	.L18:
 425              		.align	2
 426              	.L17:
 427 00e0 07040240 		.word	1073873927
 428 00e4 F8FFFDBF 		.word	-1073872904
 429 00e8 CDCCCCCC 		.word	-858993459
 430 00ec 00000240 		.word	1073872896
 431 00f0 F8FBFDBF 		.word	-1073873928
 432 00f4 00040240 		.word	1073873920
 433 00f8 A8000240 		.word	1073873064
 434 00fc A8040240 		.word	1073874088
 435              		.cfi_endproc
 436              	.LFE134:
 438              		.section	.text.HAL_DMA_Start,"ax",%progbits
 439              		.align	1
 440              		.global	HAL_DMA_Start
 441              		.syntax unified
 442              		.thumb
ARM GAS  C:\Users\user\AppData\Local\Temp\ccuTs4tt.s 			page 16


 443              		.thumb_func
 444              		.fpu fpv4-sp-d16
 446              	HAL_DMA_Start:
 447              	.LFB135:
 414:E:/LiteOS/LiteOS_Lab/drivers/third_party/ST/STM32L4xx_HAL_Driver/Src\stm32l4xx_hal_dma.c **** 
 415:E:/LiteOS/LiteOS_Lab/drivers/third_party/ST/STM32L4xx_HAL_Driver/Src\stm32l4xx_hal_dma.c **** /**
 416:E:/LiteOS/LiteOS_Lab/drivers/third_party/ST/STM32L4xx_HAL_Driver/Src\stm32l4xx_hal_dma.c ****   * @}
 417:E:/LiteOS/LiteOS_Lab/drivers/third_party/ST/STM32L4xx_HAL_Driver/Src\stm32l4xx_hal_dma.c ****   */
 418:E:/LiteOS/LiteOS_Lab/drivers/third_party/ST/STM32L4xx_HAL_Driver/Src\stm32l4xx_hal_dma.c **** 
 419:E:/LiteOS/LiteOS_Lab/drivers/third_party/ST/STM32L4xx_HAL_Driver/Src\stm32l4xx_hal_dma.c **** /** @defgroup DMA_Exported_Functions_Group2 Input and Output operation functions
 420:E:/LiteOS/LiteOS_Lab/drivers/third_party/ST/STM32L4xx_HAL_Driver/Src\stm32l4xx_hal_dma.c ****  *  @brief   Input and Output operation functions
 421:E:/LiteOS/LiteOS_Lab/drivers/third_party/ST/STM32L4xx_HAL_Driver/Src\stm32l4xx_hal_dma.c ****  *
 422:E:/LiteOS/LiteOS_Lab/drivers/third_party/ST/STM32L4xx_HAL_Driver/Src\stm32l4xx_hal_dma.c **** @verbatim
 423:E:/LiteOS/LiteOS_Lab/drivers/third_party/ST/STM32L4xx_HAL_Driver/Src\stm32l4xx_hal_dma.c ****  ===============================================================================
 424:E:/LiteOS/LiteOS_Lab/drivers/third_party/ST/STM32L4xx_HAL_Driver/Src\stm32l4xx_hal_dma.c ****                       #####  IO operation functions  #####
 425:E:/LiteOS/LiteOS_Lab/drivers/third_party/ST/STM32L4xx_HAL_Driver/Src\stm32l4xx_hal_dma.c ****  ===============================================================================
 426:E:/LiteOS/LiteOS_Lab/drivers/third_party/ST/STM32L4xx_HAL_Driver/Src\stm32l4xx_hal_dma.c ****     [..]  This section provides functions allowing to:
 427:E:/LiteOS/LiteOS_Lab/drivers/third_party/ST/STM32L4xx_HAL_Driver/Src\stm32l4xx_hal_dma.c ****       (+) Configure the source, destination address and data length and Start DMA transfer
 428:E:/LiteOS/LiteOS_Lab/drivers/third_party/ST/STM32L4xx_HAL_Driver/Src\stm32l4xx_hal_dma.c ****       (+) Configure the source, destination address and data length and
 429:E:/LiteOS/LiteOS_Lab/drivers/third_party/ST/STM32L4xx_HAL_Driver/Src\stm32l4xx_hal_dma.c ****           Start DMA transfer with interrupt
 430:E:/LiteOS/LiteOS_Lab/drivers/third_party/ST/STM32L4xx_HAL_Driver/Src\stm32l4xx_hal_dma.c ****       (+) Abort DMA transfer
 431:E:/LiteOS/LiteOS_Lab/drivers/third_party/ST/STM32L4xx_HAL_Driver/Src\stm32l4xx_hal_dma.c ****       (+) Poll for transfer complete
 432:E:/LiteOS/LiteOS_Lab/drivers/third_party/ST/STM32L4xx_HAL_Driver/Src\stm32l4xx_hal_dma.c ****       (+) Handle DMA interrupt request
 433:E:/LiteOS/LiteOS_Lab/drivers/third_party/ST/STM32L4xx_HAL_Driver/Src\stm32l4xx_hal_dma.c **** 
 434:E:/LiteOS/LiteOS_Lab/drivers/third_party/ST/STM32L4xx_HAL_Driver/Src\stm32l4xx_hal_dma.c **** @endverbatim
 435:E:/LiteOS/LiteOS_Lab/drivers/third_party/ST/STM32L4xx_HAL_Driver/Src\stm32l4xx_hal_dma.c ****   * @{
 436:E:/LiteOS/LiteOS_Lab/drivers/third_party/ST/STM32L4xx_HAL_Driver/Src\stm32l4xx_hal_dma.c ****   */
 437:E:/LiteOS/LiteOS_Lab/drivers/third_party/ST/STM32L4xx_HAL_Driver/Src\stm32l4xx_hal_dma.c **** 
 438:E:/LiteOS/LiteOS_Lab/drivers/third_party/ST/STM32L4xx_HAL_Driver/Src\stm32l4xx_hal_dma.c **** /**
 439:E:/LiteOS/LiteOS_Lab/drivers/third_party/ST/STM32L4xx_HAL_Driver/Src\stm32l4xx_hal_dma.c ****   * @brief  Start the DMA Transfer.
 440:E:/LiteOS/LiteOS_Lab/drivers/third_party/ST/STM32L4xx_HAL_Driver/Src\stm32l4xx_hal_dma.c ****   * @param  hdma: pointer to a DMA_HandleTypeDef structure that contains
 441:E:/LiteOS/LiteOS_Lab/drivers/third_party/ST/STM32L4xx_HAL_Driver/Src\stm32l4xx_hal_dma.c ****   *               the configuration information for the specified DMA Channel.
 442:E:/LiteOS/LiteOS_Lab/drivers/third_party/ST/STM32L4xx_HAL_Driver/Src\stm32l4xx_hal_dma.c ****   * @param  SrcAddress: The source memory Buffer address
 443:E:/LiteOS/LiteOS_Lab/drivers/third_party/ST/STM32L4xx_HAL_Driver/Src\stm32l4xx_hal_dma.c ****   * @param  DstAddress: The destination memory Buffer address
 444:E:/LiteOS/LiteOS_Lab/drivers/third_party/ST/STM32L4xx_HAL_Driver/Src\stm32l4xx_hal_dma.c ****   * @param  DataLength: The length of data to be transferred from source to destination
 445:E:/LiteOS/LiteOS_Lab/drivers/third_party/ST/STM32L4xx_HAL_Driver/Src\stm32l4xx_hal_dma.c ****   * @retval HAL status
 446:E:/LiteOS/LiteOS_Lab/drivers/third_party/ST/STM32L4xx_HAL_Driver/Src\stm32l4xx_hal_dma.c ****   */
 447:E:/LiteOS/LiteOS_Lab/drivers/third_party/ST/STM32L4xx_HAL_Driver/Src\stm32l4xx_hal_dma.c **** HAL_StatusTypeDef HAL_DMA_Start(DMA_HandleTypeDef *hdma, uint32_t SrcAddress, uint32_t DstAddress, 
 448:E:/LiteOS/LiteOS_Lab/drivers/third_party/ST/STM32L4xx_HAL_Driver/Src\stm32l4xx_hal_dma.c **** {
 448              		.loc 1 448 0
 449              		.cfi_startproc
 450              		@ args = 0, pretend = 0, frame = 24
 451              		@ frame_needed = 1, uses_anonymous_args = 0
 452 0000 80B5     		push	{r7, lr}
 453              	.LCFI12:
 454              		.cfi_def_cfa_offset 8
 455              		.cfi_offset 7, -8
 456              		.cfi_offset 14, -4
 457 0002 86B0     		sub	sp, sp, #24
 458              	.LCFI13:
 459              		.cfi_def_cfa_offset 32
 460 0004 00AF     		add	r7, sp, #0
 461              	.LCFI14:
 462              		.cfi_def_cfa_register 7
 463 0006 F860     		str	r0, [r7, #12]
 464 0008 B960     		str	r1, [r7, #8]
 465 000a 7A60     		str	r2, [r7, #4]
ARM GAS  C:\Users\user\AppData\Local\Temp\ccuTs4tt.s 			page 17


 466 000c 3B60     		str	r3, [r7]
 449:E:/LiteOS/LiteOS_Lab/drivers/third_party/ST/STM32L4xx_HAL_Driver/Src\stm32l4xx_hal_dma.c ****   HAL_StatusTypeDef status = HAL_OK;
 467              		.loc 1 449 0
 468 000e 0023     		movs	r3, #0
 469 0010 FB75     		strb	r3, [r7, #23]
 450:E:/LiteOS/LiteOS_Lab/drivers/third_party/ST/STM32L4xx_HAL_Driver/Src\stm32l4xx_hal_dma.c **** 
 451:E:/LiteOS/LiteOS_Lab/drivers/third_party/ST/STM32L4xx_HAL_Driver/Src\stm32l4xx_hal_dma.c ****   /* Check the parameters */
 452:E:/LiteOS/LiteOS_Lab/drivers/third_party/ST/STM32L4xx_HAL_Driver/Src\stm32l4xx_hal_dma.c ****   assert_param(IS_DMA_BUFFER_SIZE(DataLength));
 453:E:/LiteOS/LiteOS_Lab/drivers/third_party/ST/STM32L4xx_HAL_Driver/Src\stm32l4xx_hal_dma.c **** 
 454:E:/LiteOS/LiteOS_Lab/drivers/third_party/ST/STM32L4xx_HAL_Driver/Src\stm32l4xx_hal_dma.c ****   /* Process locked */
 455:E:/LiteOS/LiteOS_Lab/drivers/third_party/ST/STM32L4xx_HAL_Driver/Src\stm32l4xx_hal_dma.c ****   __HAL_LOCK(hdma);
 470              		.loc 1 455 0
 471 0012 FB68     		ldr	r3, [r7, #12]
 472 0014 93F82430 		ldrb	r3, [r3, #36]	@ zero_extendqisi2
 473 0018 012B     		cmp	r3, #1
 474 001a 01D1     		bne	.L20
 475              		.loc 1 455 0 is_stmt 0 discriminator 1
 476 001c 0223     		movs	r3, #2
 477 001e 2EE0     		b	.L21
 478              	.L20:
 479              		.loc 1 455 0 discriminator 2
 480 0020 FB68     		ldr	r3, [r7, #12]
 481 0022 0122     		movs	r2, #1
 482 0024 83F82420 		strb	r2, [r3, #36]
 456:E:/LiteOS/LiteOS_Lab/drivers/third_party/ST/STM32L4xx_HAL_Driver/Src\stm32l4xx_hal_dma.c **** 
 457:E:/LiteOS/LiteOS_Lab/drivers/third_party/ST/STM32L4xx_HAL_Driver/Src\stm32l4xx_hal_dma.c ****   if(HAL_DMA_STATE_READY == hdma->State)
 483              		.loc 1 457 0 is_stmt 1 discriminator 2
 484 0028 FB68     		ldr	r3, [r7, #12]
 485 002a 93F82530 		ldrb	r3, [r3, #37]
 486 002e DBB2     		uxtb	r3, r3
 487 0030 012B     		cmp	r3, #1
 488 0032 1DD1     		bne	.L22
 458:E:/LiteOS/LiteOS_Lab/drivers/third_party/ST/STM32L4xx_HAL_Driver/Src\stm32l4xx_hal_dma.c ****   {
 459:E:/LiteOS/LiteOS_Lab/drivers/third_party/ST/STM32L4xx_HAL_Driver/Src\stm32l4xx_hal_dma.c ****     /* Change DMA peripheral state */
 460:E:/LiteOS/LiteOS_Lab/drivers/third_party/ST/STM32L4xx_HAL_Driver/Src\stm32l4xx_hal_dma.c ****     hdma->State = HAL_DMA_STATE_BUSY;
 489              		.loc 1 460 0
 490 0034 FB68     		ldr	r3, [r7, #12]
 491 0036 0222     		movs	r2, #2
 492 0038 83F82520 		strb	r2, [r3, #37]
 461:E:/LiteOS/LiteOS_Lab/drivers/third_party/ST/STM32L4xx_HAL_Driver/Src\stm32l4xx_hal_dma.c ****     hdma->ErrorCode = HAL_DMA_ERROR_NONE;
 493              		.loc 1 461 0
 494 003c FB68     		ldr	r3, [r7, #12]
 495 003e 0022     		movs	r2, #0
 496 0040 DA63     		str	r2, [r3, #60]
 462:E:/LiteOS/LiteOS_Lab/drivers/third_party/ST/STM32L4xx_HAL_Driver/Src\stm32l4xx_hal_dma.c **** 
 463:E:/LiteOS/LiteOS_Lab/drivers/third_party/ST/STM32L4xx_HAL_Driver/Src\stm32l4xx_hal_dma.c ****     /* Disable the peripheral */
 464:E:/LiteOS/LiteOS_Lab/drivers/third_party/ST/STM32L4xx_HAL_Driver/Src\stm32l4xx_hal_dma.c ****     __HAL_DMA_DISABLE(hdma);
 497              		.loc 1 464 0
 498 0042 FB68     		ldr	r3, [r7, #12]
 499 0044 1B68     		ldr	r3, [r3]
 500 0046 1A68     		ldr	r2, [r3]
 501 0048 FB68     		ldr	r3, [r7, #12]
 502 004a 1B68     		ldr	r3, [r3]
 503 004c 22F00102 		bic	r2, r2, #1
 504 0050 1A60     		str	r2, [r3]
 465:E:/LiteOS/LiteOS_Lab/drivers/third_party/ST/STM32L4xx_HAL_Driver/Src\stm32l4xx_hal_dma.c **** 
 466:E:/LiteOS/LiteOS_Lab/drivers/third_party/ST/STM32L4xx_HAL_Driver/Src\stm32l4xx_hal_dma.c ****     /* Configure the source, destination address and the data length & clear flags*/
ARM GAS  C:\Users\user\AppData\Local\Temp\ccuTs4tt.s 			page 18


 467:E:/LiteOS/LiteOS_Lab/drivers/third_party/ST/STM32L4xx_HAL_Driver/Src\stm32l4xx_hal_dma.c ****     DMA_SetConfig(hdma, SrcAddress, DstAddress, DataLength);
 505              		.loc 1 467 0
 506 0052 3B68     		ldr	r3, [r7]
 507 0054 7A68     		ldr	r2, [r7, #4]
 508 0056 B968     		ldr	r1, [r7, #8]
 509 0058 F868     		ldr	r0, [r7, #12]
 510 005a FFF7FEFF 		bl	DMA_SetConfig
 468:E:/LiteOS/LiteOS_Lab/drivers/third_party/ST/STM32L4xx_HAL_Driver/Src\stm32l4xx_hal_dma.c **** 
 469:E:/LiteOS/LiteOS_Lab/drivers/third_party/ST/STM32L4xx_HAL_Driver/Src\stm32l4xx_hal_dma.c ****     /* Enable the Peripheral */
 470:E:/LiteOS/LiteOS_Lab/drivers/third_party/ST/STM32L4xx_HAL_Driver/Src\stm32l4xx_hal_dma.c ****     __HAL_DMA_ENABLE(hdma);
 511              		.loc 1 470 0
 512 005e FB68     		ldr	r3, [r7, #12]
 513 0060 1B68     		ldr	r3, [r3]
 514 0062 1A68     		ldr	r2, [r3]
 515 0064 FB68     		ldr	r3, [r7, #12]
 516 0066 1B68     		ldr	r3, [r3]
 517 0068 42F00102 		orr	r2, r2, #1
 518 006c 1A60     		str	r2, [r3]
 519 006e 05E0     		b	.L23
 520              	.L22:
 471:E:/LiteOS/LiteOS_Lab/drivers/third_party/ST/STM32L4xx_HAL_Driver/Src\stm32l4xx_hal_dma.c ****   }
 472:E:/LiteOS/LiteOS_Lab/drivers/third_party/ST/STM32L4xx_HAL_Driver/Src\stm32l4xx_hal_dma.c ****   else
 473:E:/LiteOS/LiteOS_Lab/drivers/third_party/ST/STM32L4xx_HAL_Driver/Src\stm32l4xx_hal_dma.c ****   {
 474:E:/LiteOS/LiteOS_Lab/drivers/third_party/ST/STM32L4xx_HAL_Driver/Src\stm32l4xx_hal_dma.c ****     /* Process Unlocked */
 475:E:/LiteOS/LiteOS_Lab/drivers/third_party/ST/STM32L4xx_HAL_Driver/Src\stm32l4xx_hal_dma.c ****     __HAL_UNLOCK(hdma);
 521              		.loc 1 475 0
 522 0070 FB68     		ldr	r3, [r7, #12]
 523 0072 0022     		movs	r2, #0
 524 0074 83F82420 		strb	r2, [r3, #36]
 476:E:/LiteOS/LiteOS_Lab/drivers/third_party/ST/STM32L4xx_HAL_Driver/Src\stm32l4xx_hal_dma.c ****     status = HAL_BUSY;
 525              		.loc 1 476 0
 526 0078 0223     		movs	r3, #2
 527 007a FB75     		strb	r3, [r7, #23]
 528              	.L23:
 477:E:/LiteOS/LiteOS_Lab/drivers/third_party/ST/STM32L4xx_HAL_Driver/Src\stm32l4xx_hal_dma.c ****   }
 478:E:/LiteOS/LiteOS_Lab/drivers/third_party/ST/STM32L4xx_HAL_Driver/Src\stm32l4xx_hal_dma.c ****   return status;
 529              		.loc 1 478 0
 530 007c FB7D     		ldrb	r3, [r7, #23]	@ zero_extendqisi2
 531              	.L21:
 479:E:/LiteOS/LiteOS_Lab/drivers/third_party/ST/STM32L4xx_HAL_Driver/Src\stm32l4xx_hal_dma.c **** }
 532              		.loc 1 479 0
 533 007e 1846     		mov	r0, r3
 534 0080 1837     		adds	r7, r7, #24
 535              	.LCFI15:
 536              		.cfi_def_cfa_offset 8
 537 0082 BD46     		mov	sp, r7
 538              	.LCFI16:
 539              		.cfi_def_cfa_register 13
 540              		@ sp needed
 541 0084 80BD     		pop	{r7, pc}
 542              		.cfi_endproc
 543              	.LFE135:
 545              		.section	.text.HAL_DMA_Start_IT,"ax",%progbits
 546              		.align	1
 547              		.global	HAL_DMA_Start_IT
 548              		.syntax unified
 549              		.thumb
ARM GAS  C:\Users\user\AppData\Local\Temp\ccuTs4tt.s 			page 19


 550              		.thumb_func
 551              		.fpu fpv4-sp-d16
 553              	HAL_DMA_Start_IT:
 554              	.LFB136:
 480:E:/LiteOS/LiteOS_Lab/drivers/third_party/ST/STM32L4xx_HAL_Driver/Src\stm32l4xx_hal_dma.c **** 
 481:E:/LiteOS/LiteOS_Lab/drivers/third_party/ST/STM32L4xx_HAL_Driver/Src\stm32l4xx_hal_dma.c **** /**
 482:E:/LiteOS/LiteOS_Lab/drivers/third_party/ST/STM32L4xx_HAL_Driver/Src\stm32l4xx_hal_dma.c ****   * @brief  Start the DMA Transfer with interrupt enabled.
 483:E:/LiteOS/LiteOS_Lab/drivers/third_party/ST/STM32L4xx_HAL_Driver/Src\stm32l4xx_hal_dma.c ****   * @param  hdma: pointer to a DMA_HandleTypeDef structure that contains
 484:E:/LiteOS/LiteOS_Lab/drivers/third_party/ST/STM32L4xx_HAL_Driver/Src\stm32l4xx_hal_dma.c ****   *               the configuration information for the specified DMA Channel.
 485:E:/LiteOS/LiteOS_Lab/drivers/third_party/ST/STM32L4xx_HAL_Driver/Src\stm32l4xx_hal_dma.c ****   * @param  SrcAddress: The source memory Buffer address
 486:E:/LiteOS/LiteOS_Lab/drivers/third_party/ST/STM32L4xx_HAL_Driver/Src\stm32l4xx_hal_dma.c ****   * @param  DstAddress: The destination memory Buffer address
 487:E:/LiteOS/LiteOS_Lab/drivers/third_party/ST/STM32L4xx_HAL_Driver/Src\stm32l4xx_hal_dma.c ****   * @param  DataLength: The length of data to be transferred from source to destination
 488:E:/LiteOS/LiteOS_Lab/drivers/third_party/ST/STM32L4xx_HAL_Driver/Src\stm32l4xx_hal_dma.c ****   * @retval HAL status
 489:E:/LiteOS/LiteOS_Lab/drivers/third_party/ST/STM32L4xx_HAL_Driver/Src\stm32l4xx_hal_dma.c ****   */
 490:E:/LiteOS/LiteOS_Lab/drivers/third_party/ST/STM32L4xx_HAL_Driver/Src\stm32l4xx_hal_dma.c **** HAL_StatusTypeDef HAL_DMA_Start_IT(DMA_HandleTypeDef *hdma, uint32_t SrcAddress, uint32_t DstAddres
 491:E:/LiteOS/LiteOS_Lab/drivers/third_party/ST/STM32L4xx_HAL_Driver/Src\stm32l4xx_hal_dma.c **** {
 555              		.loc 1 491 0
 556              		.cfi_startproc
 557              		@ args = 0, pretend = 0, frame = 24
 558              		@ frame_needed = 1, uses_anonymous_args = 0
 559 0000 80B5     		push	{r7, lr}
 560              	.LCFI17:
 561              		.cfi_def_cfa_offset 8
 562              		.cfi_offset 7, -8
 563              		.cfi_offset 14, -4
 564 0002 86B0     		sub	sp, sp, #24
 565              	.LCFI18:
 566              		.cfi_def_cfa_offset 32
 567 0004 00AF     		add	r7, sp, #0
 568              	.LCFI19:
 569              		.cfi_def_cfa_register 7
 570 0006 F860     		str	r0, [r7, #12]
 571 0008 B960     		str	r1, [r7, #8]
 572 000a 7A60     		str	r2, [r7, #4]
 573 000c 3B60     		str	r3, [r7]
 492:E:/LiteOS/LiteOS_Lab/drivers/third_party/ST/STM32L4xx_HAL_Driver/Src\stm32l4xx_hal_dma.c ****   HAL_StatusTypeDef status = HAL_OK;
 574              		.loc 1 492 0
 575 000e 0023     		movs	r3, #0
 576 0010 FB75     		strb	r3, [r7, #23]
 493:E:/LiteOS/LiteOS_Lab/drivers/third_party/ST/STM32L4xx_HAL_Driver/Src\stm32l4xx_hal_dma.c **** 
 494:E:/LiteOS/LiteOS_Lab/drivers/third_party/ST/STM32L4xx_HAL_Driver/Src\stm32l4xx_hal_dma.c ****   /* Check the parameters */
 495:E:/LiteOS/LiteOS_Lab/drivers/third_party/ST/STM32L4xx_HAL_Driver/Src\stm32l4xx_hal_dma.c ****   assert_param(IS_DMA_BUFFER_SIZE(DataLength));
 496:E:/LiteOS/LiteOS_Lab/drivers/third_party/ST/STM32L4xx_HAL_Driver/Src\stm32l4xx_hal_dma.c **** 
 497:E:/LiteOS/LiteOS_Lab/drivers/third_party/ST/STM32L4xx_HAL_Driver/Src\stm32l4xx_hal_dma.c ****   /* Process locked */
 498:E:/LiteOS/LiteOS_Lab/drivers/third_party/ST/STM32L4xx_HAL_Driver/Src\stm32l4xx_hal_dma.c ****   __HAL_LOCK(hdma);
 577              		.loc 1 498 0
 578 0012 FB68     		ldr	r3, [r7, #12]
 579 0014 93F82430 		ldrb	r3, [r3, #36]	@ zero_extendqisi2
 580 0018 012B     		cmp	r3, #1
 581 001a 01D1     		bne	.L25
 582              		.loc 1 498 0 is_stmt 0 discriminator 1
 583 001c 0223     		movs	r3, #2
 584 001e 4BE0     		b	.L26
 585              	.L25:
 586              		.loc 1 498 0 discriminator 2
 587 0020 FB68     		ldr	r3, [r7, #12]
 588 0022 0122     		movs	r2, #1
ARM GAS  C:\Users\user\AppData\Local\Temp\ccuTs4tt.s 			page 20


 589 0024 83F82420 		strb	r2, [r3, #36]
 499:E:/LiteOS/LiteOS_Lab/drivers/third_party/ST/STM32L4xx_HAL_Driver/Src\stm32l4xx_hal_dma.c **** 
 500:E:/LiteOS/LiteOS_Lab/drivers/third_party/ST/STM32L4xx_HAL_Driver/Src\stm32l4xx_hal_dma.c ****   if(HAL_DMA_STATE_READY == hdma->State)
 590              		.loc 1 500 0 is_stmt 1 discriminator 2
 591 0028 FB68     		ldr	r3, [r7, #12]
 592 002a 93F82530 		ldrb	r3, [r3, #37]
 593 002e DBB2     		uxtb	r3, r3
 594 0030 012B     		cmp	r3, #1
 595 0032 3AD1     		bne	.L27
 501:E:/LiteOS/LiteOS_Lab/drivers/third_party/ST/STM32L4xx_HAL_Driver/Src\stm32l4xx_hal_dma.c ****   {
 502:E:/LiteOS/LiteOS_Lab/drivers/third_party/ST/STM32L4xx_HAL_Driver/Src\stm32l4xx_hal_dma.c ****     /* Change DMA peripheral state */
 503:E:/LiteOS/LiteOS_Lab/drivers/third_party/ST/STM32L4xx_HAL_Driver/Src\stm32l4xx_hal_dma.c ****     hdma->State = HAL_DMA_STATE_BUSY;
 596              		.loc 1 503 0
 597 0034 FB68     		ldr	r3, [r7, #12]
 598 0036 0222     		movs	r2, #2
 599 0038 83F82520 		strb	r2, [r3, #37]
 504:E:/LiteOS/LiteOS_Lab/drivers/third_party/ST/STM32L4xx_HAL_Driver/Src\stm32l4xx_hal_dma.c ****     hdma->ErrorCode = HAL_DMA_ERROR_NONE;
 600              		.loc 1 504 0
 601 003c FB68     		ldr	r3, [r7, #12]
 602 003e 0022     		movs	r2, #0
 603 0040 DA63     		str	r2, [r3, #60]
 505:E:/LiteOS/LiteOS_Lab/drivers/third_party/ST/STM32L4xx_HAL_Driver/Src\stm32l4xx_hal_dma.c **** 
 506:E:/LiteOS/LiteOS_Lab/drivers/third_party/ST/STM32L4xx_HAL_Driver/Src\stm32l4xx_hal_dma.c ****     /* Disable the peripheral */
 507:E:/LiteOS/LiteOS_Lab/drivers/third_party/ST/STM32L4xx_HAL_Driver/Src\stm32l4xx_hal_dma.c ****     __HAL_DMA_DISABLE(hdma);
 604              		.loc 1 507 0
 605 0042 FB68     		ldr	r3, [r7, #12]
 606 0044 1B68     		ldr	r3, [r3]
 607 0046 1A68     		ldr	r2, [r3]
 608 0048 FB68     		ldr	r3, [r7, #12]
 609 004a 1B68     		ldr	r3, [r3]
 610 004c 22F00102 		bic	r2, r2, #1
 611 0050 1A60     		str	r2, [r3]
 508:E:/LiteOS/LiteOS_Lab/drivers/third_party/ST/STM32L4xx_HAL_Driver/Src\stm32l4xx_hal_dma.c **** 
 509:E:/LiteOS/LiteOS_Lab/drivers/third_party/ST/STM32L4xx_HAL_Driver/Src\stm32l4xx_hal_dma.c ****     /* Configure the source, destination address and the data length & clear flags*/
 510:E:/LiteOS/LiteOS_Lab/drivers/third_party/ST/STM32L4xx_HAL_Driver/Src\stm32l4xx_hal_dma.c ****     DMA_SetConfig(hdma, SrcAddress, DstAddress, DataLength);
 612              		.loc 1 510 0
 613 0052 3B68     		ldr	r3, [r7]
 614 0054 7A68     		ldr	r2, [r7, #4]
 615 0056 B968     		ldr	r1, [r7, #8]
 616 0058 F868     		ldr	r0, [r7, #12]
 617 005a FFF7FEFF 		bl	DMA_SetConfig
 511:E:/LiteOS/LiteOS_Lab/drivers/third_party/ST/STM32L4xx_HAL_Driver/Src\stm32l4xx_hal_dma.c **** 
 512:E:/LiteOS/LiteOS_Lab/drivers/third_party/ST/STM32L4xx_HAL_Driver/Src\stm32l4xx_hal_dma.c ****     /* Enable the transfer complete interrupt */
 513:E:/LiteOS/LiteOS_Lab/drivers/third_party/ST/STM32L4xx_HAL_Driver/Src\stm32l4xx_hal_dma.c ****     /* Enable the transfer Error interrupt */
 514:E:/LiteOS/LiteOS_Lab/drivers/third_party/ST/STM32L4xx_HAL_Driver/Src\stm32l4xx_hal_dma.c ****     if(NULL != hdma->XferHalfCpltCallback )
 618              		.loc 1 514 0
 619 005e FB68     		ldr	r3, [r7, #12]
 620 0060 1B6B     		ldr	r3, [r3, #48]
 621 0062 002B     		cmp	r3, #0
 622 0064 08D0     		beq	.L28
 515:E:/LiteOS/LiteOS_Lab/drivers/third_party/ST/STM32L4xx_HAL_Driver/Src\stm32l4xx_hal_dma.c ****     {
 516:E:/LiteOS/LiteOS_Lab/drivers/third_party/ST/STM32L4xx_HAL_Driver/Src\stm32l4xx_hal_dma.c ****       /* Enable the Half transfer complete interrupt as well */
 517:E:/LiteOS/LiteOS_Lab/drivers/third_party/ST/STM32L4xx_HAL_Driver/Src\stm32l4xx_hal_dma.c ****       __HAL_DMA_ENABLE_IT(hdma, (DMA_IT_TC | DMA_IT_HT | DMA_IT_TE));
 623              		.loc 1 517 0
 624 0066 FB68     		ldr	r3, [r7, #12]
 625 0068 1B68     		ldr	r3, [r3]
 626 006a 1A68     		ldr	r2, [r3]
ARM GAS  C:\Users\user\AppData\Local\Temp\ccuTs4tt.s 			page 21


 627 006c FB68     		ldr	r3, [r7, #12]
 628 006e 1B68     		ldr	r3, [r3]
 629 0070 42F00E02 		orr	r2, r2, #14
 630 0074 1A60     		str	r2, [r3]
 631 0076 0FE0     		b	.L29
 632              	.L28:
 518:E:/LiteOS/LiteOS_Lab/drivers/third_party/ST/STM32L4xx_HAL_Driver/Src\stm32l4xx_hal_dma.c ****     }
 519:E:/LiteOS/LiteOS_Lab/drivers/third_party/ST/STM32L4xx_HAL_Driver/Src\stm32l4xx_hal_dma.c ****     else
 520:E:/LiteOS/LiteOS_Lab/drivers/third_party/ST/STM32L4xx_HAL_Driver/Src\stm32l4xx_hal_dma.c ****     {
 521:E:/LiteOS/LiteOS_Lab/drivers/third_party/ST/STM32L4xx_HAL_Driver/Src\stm32l4xx_hal_dma.c ****       __HAL_DMA_DISABLE_IT(hdma, DMA_IT_HT);
 633              		.loc 1 521 0
 634 0078 FB68     		ldr	r3, [r7, #12]
 635 007a 1B68     		ldr	r3, [r3]
 636 007c 1A68     		ldr	r2, [r3]
 637 007e FB68     		ldr	r3, [r7, #12]
 638 0080 1B68     		ldr	r3, [r3]
 639 0082 22F00402 		bic	r2, r2, #4
 640 0086 1A60     		str	r2, [r3]
 522:E:/LiteOS/LiteOS_Lab/drivers/third_party/ST/STM32L4xx_HAL_Driver/Src\stm32l4xx_hal_dma.c ****       __HAL_DMA_ENABLE_IT(hdma, (DMA_IT_TC | DMA_IT_TE));
 641              		.loc 1 522 0
 642 0088 FB68     		ldr	r3, [r7, #12]
 643 008a 1B68     		ldr	r3, [r3]
 644 008c 1A68     		ldr	r2, [r3]
 645 008e FB68     		ldr	r3, [r7, #12]
 646 0090 1B68     		ldr	r3, [r3]
 647 0092 42F00A02 		orr	r2, r2, #10
 648 0096 1A60     		str	r2, [r3]
 649              	.L29:
 523:E:/LiteOS/LiteOS_Lab/drivers/third_party/ST/STM32L4xx_HAL_Driver/Src\stm32l4xx_hal_dma.c ****     }
 524:E:/LiteOS/LiteOS_Lab/drivers/third_party/ST/STM32L4xx_HAL_Driver/Src\stm32l4xx_hal_dma.c **** 
 525:E:/LiteOS/LiteOS_Lab/drivers/third_party/ST/STM32L4xx_HAL_Driver/Src\stm32l4xx_hal_dma.c **** #ifdef DMAMUX1
 526:E:/LiteOS/LiteOS_Lab/drivers/third_party/ST/STM32L4xx_HAL_Driver/Src\stm32l4xx_hal_dma.c **** 
 527:E:/LiteOS/LiteOS_Lab/drivers/third_party/ST/STM32L4xx_HAL_Driver/Src\stm32l4xx_hal_dma.c ****     /* Check if DMAMUX Synchronization is enabled*/
 528:E:/LiteOS/LiteOS_Lab/drivers/third_party/ST/STM32L4xx_HAL_Driver/Src\stm32l4xx_hal_dma.c ****     if((hdma->DMAmuxChannel->CCR & DMAMUX_CxCR_SE) != 0U)
 529:E:/LiteOS/LiteOS_Lab/drivers/third_party/ST/STM32L4xx_HAL_Driver/Src\stm32l4xx_hal_dma.c ****     {
 530:E:/LiteOS/LiteOS_Lab/drivers/third_party/ST/STM32L4xx_HAL_Driver/Src\stm32l4xx_hal_dma.c ****       /* Enable DMAMUX sync overrun IT*/
 531:E:/LiteOS/LiteOS_Lab/drivers/third_party/ST/STM32L4xx_HAL_Driver/Src\stm32l4xx_hal_dma.c ****       hdma->DMAmuxChannel->CCR |= DMAMUX_CxCR_SOIE;
 532:E:/LiteOS/LiteOS_Lab/drivers/third_party/ST/STM32L4xx_HAL_Driver/Src\stm32l4xx_hal_dma.c ****     }
 533:E:/LiteOS/LiteOS_Lab/drivers/third_party/ST/STM32L4xx_HAL_Driver/Src\stm32l4xx_hal_dma.c **** 
 534:E:/LiteOS/LiteOS_Lab/drivers/third_party/ST/STM32L4xx_HAL_Driver/Src\stm32l4xx_hal_dma.c ****     if(hdma->DMAmuxRequestGen != 0U)
 535:E:/LiteOS/LiteOS_Lab/drivers/third_party/ST/STM32L4xx_HAL_Driver/Src\stm32l4xx_hal_dma.c ****     {
 536:E:/LiteOS/LiteOS_Lab/drivers/third_party/ST/STM32L4xx_HAL_Driver/Src\stm32l4xx_hal_dma.c ****       /* if using DMAMUX request generator, enable the DMAMUX request generator overrun IT*/
 537:E:/LiteOS/LiteOS_Lab/drivers/third_party/ST/STM32L4xx_HAL_Driver/Src\stm32l4xx_hal_dma.c ****       /* enable the request gen overrun IT*/
 538:E:/LiteOS/LiteOS_Lab/drivers/third_party/ST/STM32L4xx_HAL_Driver/Src\stm32l4xx_hal_dma.c ****       hdma->DMAmuxRequestGen->RGCR |= DMAMUX_RGxCR_OIE;
 539:E:/LiteOS/LiteOS_Lab/drivers/third_party/ST/STM32L4xx_HAL_Driver/Src\stm32l4xx_hal_dma.c ****     }
 540:E:/LiteOS/LiteOS_Lab/drivers/third_party/ST/STM32L4xx_HAL_Driver/Src\stm32l4xx_hal_dma.c **** 
 541:E:/LiteOS/LiteOS_Lab/drivers/third_party/ST/STM32L4xx_HAL_Driver/Src\stm32l4xx_hal_dma.c **** #endif /* DMAMUX1 */
 542:E:/LiteOS/LiteOS_Lab/drivers/third_party/ST/STM32L4xx_HAL_Driver/Src\stm32l4xx_hal_dma.c **** 
 543:E:/LiteOS/LiteOS_Lab/drivers/third_party/ST/STM32L4xx_HAL_Driver/Src\stm32l4xx_hal_dma.c ****     /* Enable the Peripheral */
 544:E:/LiteOS/LiteOS_Lab/drivers/third_party/ST/STM32L4xx_HAL_Driver/Src\stm32l4xx_hal_dma.c ****     __HAL_DMA_ENABLE(hdma);
 650              		.loc 1 544 0
 651 0098 FB68     		ldr	r3, [r7, #12]
 652 009a 1B68     		ldr	r3, [r3]
 653 009c 1A68     		ldr	r2, [r3]
 654 009e FB68     		ldr	r3, [r7, #12]
 655 00a0 1B68     		ldr	r3, [r3]
 656 00a2 42F00102 		orr	r2, r2, #1
ARM GAS  C:\Users\user\AppData\Local\Temp\ccuTs4tt.s 			page 22


 657 00a6 1A60     		str	r2, [r3]
 658 00a8 05E0     		b	.L30
 659              	.L27:
 545:E:/LiteOS/LiteOS_Lab/drivers/third_party/ST/STM32L4xx_HAL_Driver/Src\stm32l4xx_hal_dma.c ****   }
 546:E:/LiteOS/LiteOS_Lab/drivers/third_party/ST/STM32L4xx_HAL_Driver/Src\stm32l4xx_hal_dma.c ****   else
 547:E:/LiteOS/LiteOS_Lab/drivers/third_party/ST/STM32L4xx_HAL_Driver/Src\stm32l4xx_hal_dma.c ****   {
 548:E:/LiteOS/LiteOS_Lab/drivers/third_party/ST/STM32L4xx_HAL_Driver/Src\stm32l4xx_hal_dma.c ****     /* Process Unlocked */
 549:E:/LiteOS/LiteOS_Lab/drivers/third_party/ST/STM32L4xx_HAL_Driver/Src\stm32l4xx_hal_dma.c ****     __HAL_UNLOCK(hdma);
 660              		.loc 1 549 0
 661 00aa FB68     		ldr	r3, [r7, #12]
 662 00ac 0022     		movs	r2, #0
 663 00ae 83F82420 		strb	r2, [r3, #36]
 550:E:/LiteOS/LiteOS_Lab/drivers/third_party/ST/STM32L4xx_HAL_Driver/Src\stm32l4xx_hal_dma.c **** 
 551:E:/LiteOS/LiteOS_Lab/drivers/third_party/ST/STM32L4xx_HAL_Driver/Src\stm32l4xx_hal_dma.c ****     /* Remain BUSY */
 552:E:/LiteOS/LiteOS_Lab/drivers/third_party/ST/STM32L4xx_HAL_Driver/Src\stm32l4xx_hal_dma.c ****     status = HAL_BUSY;
 664              		.loc 1 552 0
 665 00b2 0223     		movs	r3, #2
 666 00b4 FB75     		strb	r3, [r7, #23]
 667              	.L30:
 553:E:/LiteOS/LiteOS_Lab/drivers/third_party/ST/STM32L4xx_HAL_Driver/Src\stm32l4xx_hal_dma.c ****   }
 554:E:/LiteOS/LiteOS_Lab/drivers/third_party/ST/STM32L4xx_HAL_Driver/Src\stm32l4xx_hal_dma.c ****   return status;
 668              		.loc 1 554 0
 669 00b6 FB7D     		ldrb	r3, [r7, #23]	@ zero_extendqisi2
 670              	.L26:
 555:E:/LiteOS/LiteOS_Lab/drivers/third_party/ST/STM32L4xx_HAL_Driver/Src\stm32l4xx_hal_dma.c **** }
 671              		.loc 1 555 0
 672 00b8 1846     		mov	r0, r3
 673 00ba 1837     		adds	r7, r7, #24
 674              	.LCFI20:
 675              		.cfi_def_cfa_offset 8
 676 00bc BD46     		mov	sp, r7
 677              	.LCFI21:
 678              		.cfi_def_cfa_register 13
 679              		@ sp needed
 680 00be 80BD     		pop	{r7, pc}
 681              		.cfi_endproc
 682              	.LFE136:
 684              		.section	.text.HAL_DMA_Abort,"ax",%progbits
 685              		.align	1
 686              		.global	HAL_DMA_Abort
 687              		.syntax unified
 688              		.thumb
 689              		.thumb_func
 690              		.fpu fpv4-sp-d16
 692              	HAL_DMA_Abort:
 693              	.LFB137:
 556:E:/LiteOS/LiteOS_Lab/drivers/third_party/ST/STM32L4xx_HAL_Driver/Src\stm32l4xx_hal_dma.c **** 
 557:E:/LiteOS/LiteOS_Lab/drivers/third_party/ST/STM32L4xx_HAL_Driver/Src\stm32l4xx_hal_dma.c **** /**
 558:E:/LiteOS/LiteOS_Lab/drivers/third_party/ST/STM32L4xx_HAL_Driver/Src\stm32l4xx_hal_dma.c ****   * @brief  Abort the DMA Transfer.
 559:E:/LiteOS/LiteOS_Lab/drivers/third_party/ST/STM32L4xx_HAL_Driver/Src\stm32l4xx_hal_dma.c ****   * @param  hdma: pointer to a DMA_HandleTypeDef structure that contains
 560:E:/LiteOS/LiteOS_Lab/drivers/third_party/ST/STM32L4xx_HAL_Driver/Src\stm32l4xx_hal_dma.c ****   *               the configuration information for the specified DMA Channel.
 561:E:/LiteOS/LiteOS_Lab/drivers/third_party/ST/STM32L4xx_HAL_Driver/Src\stm32l4xx_hal_dma.c ****     * @retval HAL status
 562:E:/LiteOS/LiteOS_Lab/drivers/third_party/ST/STM32L4xx_HAL_Driver/Src\stm32l4xx_hal_dma.c ****   */
 563:E:/LiteOS/LiteOS_Lab/drivers/third_party/ST/STM32L4xx_HAL_Driver/Src\stm32l4xx_hal_dma.c **** HAL_StatusTypeDef HAL_DMA_Abort(DMA_HandleTypeDef *hdma)
 564:E:/LiteOS/LiteOS_Lab/drivers/third_party/ST/STM32L4xx_HAL_Driver/Src\stm32l4xx_hal_dma.c **** {
 694              		.loc 1 564 0
 695              		.cfi_startproc
ARM GAS  C:\Users\user\AppData\Local\Temp\ccuTs4tt.s 			page 23


 696              		@ args = 0, pretend = 0, frame = 16
 697              		@ frame_needed = 1, uses_anonymous_args = 0
 698              		@ link register save eliminated.
 699 0000 80B4     		push	{r7}
 700              	.LCFI22:
 701              		.cfi_def_cfa_offset 4
 702              		.cfi_offset 7, -4
 703 0002 85B0     		sub	sp, sp, #20
 704              	.LCFI23:
 705              		.cfi_def_cfa_offset 24
 706 0004 00AF     		add	r7, sp, #0
 707              	.LCFI24:
 708              		.cfi_def_cfa_register 7
 709 0006 7860     		str	r0, [r7, #4]
 565:E:/LiteOS/LiteOS_Lab/drivers/third_party/ST/STM32L4xx_HAL_Driver/Src\stm32l4xx_hal_dma.c ****   HAL_StatusTypeDef status = HAL_OK;
 710              		.loc 1 565 0
 711 0008 0023     		movs	r3, #0
 712 000a FB73     		strb	r3, [r7, #15]
 566:E:/LiteOS/LiteOS_Lab/drivers/third_party/ST/STM32L4xx_HAL_Driver/Src\stm32l4xx_hal_dma.c **** 
 567:E:/LiteOS/LiteOS_Lab/drivers/third_party/ST/STM32L4xx_HAL_Driver/Src\stm32l4xx_hal_dma.c ****   /* Check the DMA peripheral handle */
 568:E:/LiteOS/LiteOS_Lab/drivers/third_party/ST/STM32L4xx_HAL_Driver/Src\stm32l4xx_hal_dma.c ****   if(NULL == hdma)
 713              		.loc 1 568 0
 714 000c 7B68     		ldr	r3, [r7, #4]
 715 000e 002B     		cmp	r3, #0
 716 0010 01D1     		bne	.L32
 569:E:/LiteOS/LiteOS_Lab/drivers/third_party/ST/STM32L4xx_HAL_Driver/Src\stm32l4xx_hal_dma.c ****   {
 570:E:/LiteOS/LiteOS_Lab/drivers/third_party/ST/STM32L4xx_HAL_Driver/Src\stm32l4xx_hal_dma.c ****     return HAL_ERROR;
 717              		.loc 1 570 0
 718 0012 0123     		movs	r3, #1
 719 0014 20E0     		b	.L33
 720              	.L32:
 571:E:/LiteOS/LiteOS_Lab/drivers/third_party/ST/STM32L4xx_HAL_Driver/Src\stm32l4xx_hal_dma.c ****   }
 572:E:/LiteOS/LiteOS_Lab/drivers/third_party/ST/STM32L4xx_HAL_Driver/Src\stm32l4xx_hal_dma.c **** 
 573:E:/LiteOS/LiteOS_Lab/drivers/third_party/ST/STM32L4xx_HAL_Driver/Src\stm32l4xx_hal_dma.c ****   /* Disable DMA IT */
 574:E:/LiteOS/LiteOS_Lab/drivers/third_party/ST/STM32L4xx_HAL_Driver/Src\stm32l4xx_hal_dma.c ****   __HAL_DMA_DISABLE_IT(hdma, (DMA_IT_TC | DMA_IT_HT | DMA_IT_TE));
 721              		.loc 1 574 0
 722 0016 7B68     		ldr	r3, [r7, #4]
 723 0018 1B68     		ldr	r3, [r3]
 724 001a 1A68     		ldr	r2, [r3]
 725 001c 7B68     		ldr	r3, [r7, #4]
 726 001e 1B68     		ldr	r3, [r3]
 727 0020 22F00E02 		bic	r2, r2, #14
 728 0024 1A60     		str	r2, [r3]
 575:E:/LiteOS/LiteOS_Lab/drivers/third_party/ST/STM32L4xx_HAL_Driver/Src\stm32l4xx_hal_dma.c **** 
 576:E:/LiteOS/LiteOS_Lab/drivers/third_party/ST/STM32L4xx_HAL_Driver/Src\stm32l4xx_hal_dma.c **** #if defined(DMAMUX1)
 577:E:/LiteOS/LiteOS_Lab/drivers/third_party/ST/STM32L4xx_HAL_Driver/Src\stm32l4xx_hal_dma.c ****   /* disable the DMAMUX sync overrun IT*/
 578:E:/LiteOS/LiteOS_Lab/drivers/third_party/ST/STM32L4xx_HAL_Driver/Src\stm32l4xx_hal_dma.c ****   hdma->DMAmuxChannel->CCR &= ~DMAMUX_CxCR_SOIE;
 579:E:/LiteOS/LiteOS_Lab/drivers/third_party/ST/STM32L4xx_HAL_Driver/Src\stm32l4xx_hal_dma.c **** #endif /* DMAMUX1 */
 580:E:/LiteOS/LiteOS_Lab/drivers/third_party/ST/STM32L4xx_HAL_Driver/Src\stm32l4xx_hal_dma.c **** 
 581:E:/LiteOS/LiteOS_Lab/drivers/third_party/ST/STM32L4xx_HAL_Driver/Src\stm32l4xx_hal_dma.c ****   /* Disable the channel */
 582:E:/LiteOS/LiteOS_Lab/drivers/third_party/ST/STM32L4xx_HAL_Driver/Src\stm32l4xx_hal_dma.c ****   __HAL_DMA_DISABLE(hdma);
 729              		.loc 1 582 0
 730 0026 7B68     		ldr	r3, [r7, #4]
 731 0028 1B68     		ldr	r3, [r3]
 732 002a 1A68     		ldr	r2, [r3]
 733 002c 7B68     		ldr	r3, [r7, #4]
 734 002e 1B68     		ldr	r3, [r3]
ARM GAS  C:\Users\user\AppData\Local\Temp\ccuTs4tt.s 			page 24


 735 0030 22F00102 		bic	r2, r2, #1
 736 0034 1A60     		str	r2, [r3]
 583:E:/LiteOS/LiteOS_Lab/drivers/third_party/ST/STM32L4xx_HAL_Driver/Src\stm32l4xx_hal_dma.c **** 
 584:E:/LiteOS/LiteOS_Lab/drivers/third_party/ST/STM32L4xx_HAL_Driver/Src\stm32l4xx_hal_dma.c ****   /* Clear all flags */
 585:E:/LiteOS/LiteOS_Lab/drivers/third_party/ST/STM32L4xx_HAL_Driver/Src\stm32l4xx_hal_dma.c ****   hdma->DmaBaseAddress->IFCR = (DMA_ISR_GIF1 << hdma->ChannelIndex);
 737              		.loc 1 585 0
 738 0036 7B68     		ldr	r3, [r7, #4]
 739 0038 5A6C     		ldr	r2, [r3, #68]
 740 003a 7B68     		ldr	r3, [r7, #4]
 741 003c 1B6C     		ldr	r3, [r3, #64]
 742 003e 0121     		movs	r1, #1
 743 0040 01FA02F2 		lsl	r2, r1, r2
 744 0044 5A60     		str	r2, [r3, #4]
 586:E:/LiteOS/LiteOS_Lab/drivers/third_party/ST/STM32L4xx_HAL_Driver/Src\stm32l4xx_hal_dma.c **** 
 587:E:/LiteOS/LiteOS_Lab/drivers/third_party/ST/STM32L4xx_HAL_Driver/Src\stm32l4xx_hal_dma.c **** #if defined(DMAMUX1)
 588:E:/LiteOS/LiteOS_Lab/drivers/third_party/ST/STM32L4xx_HAL_Driver/Src\stm32l4xx_hal_dma.c ****   /* Clear the DMAMUX synchro overrun flag */
 589:E:/LiteOS/LiteOS_Lab/drivers/third_party/ST/STM32L4xx_HAL_Driver/Src\stm32l4xx_hal_dma.c ****   hdma->DMAmuxChannelStatus->CFR = hdma->DMAmuxChannelStatusMask;
 590:E:/LiteOS/LiteOS_Lab/drivers/third_party/ST/STM32L4xx_HAL_Driver/Src\stm32l4xx_hal_dma.c **** 
 591:E:/LiteOS/LiteOS_Lab/drivers/third_party/ST/STM32L4xx_HAL_Driver/Src\stm32l4xx_hal_dma.c ****   if(hdma->DMAmuxRequestGen != 0U)
 592:E:/LiteOS/LiteOS_Lab/drivers/third_party/ST/STM32L4xx_HAL_Driver/Src\stm32l4xx_hal_dma.c ****   {
 593:E:/LiteOS/LiteOS_Lab/drivers/third_party/ST/STM32L4xx_HAL_Driver/Src\stm32l4xx_hal_dma.c ****     /* if using DMAMUX request generator, disable the DMAMUX request generator overrun IT*/
 594:E:/LiteOS/LiteOS_Lab/drivers/third_party/ST/STM32L4xx_HAL_Driver/Src\stm32l4xx_hal_dma.c ****     /* disable the request gen overrun IT*/
 595:E:/LiteOS/LiteOS_Lab/drivers/third_party/ST/STM32L4xx_HAL_Driver/Src\stm32l4xx_hal_dma.c ****     hdma->DMAmuxRequestGen->RGCR &= ~DMAMUX_RGxCR_OIE;
 596:E:/LiteOS/LiteOS_Lab/drivers/third_party/ST/STM32L4xx_HAL_Driver/Src\stm32l4xx_hal_dma.c **** 
 597:E:/LiteOS/LiteOS_Lab/drivers/third_party/ST/STM32L4xx_HAL_Driver/Src\stm32l4xx_hal_dma.c ****     /* Clear the DMAMUX request generator overrun flag */
 598:E:/LiteOS/LiteOS_Lab/drivers/third_party/ST/STM32L4xx_HAL_Driver/Src\stm32l4xx_hal_dma.c ****     hdma->DMAmuxRequestGenStatus->RGCFR = hdma->DMAmuxRequestGenStatusMask;
 599:E:/LiteOS/LiteOS_Lab/drivers/third_party/ST/STM32L4xx_HAL_Driver/Src\stm32l4xx_hal_dma.c ****   }
 600:E:/LiteOS/LiteOS_Lab/drivers/third_party/ST/STM32L4xx_HAL_Driver/Src\stm32l4xx_hal_dma.c **** 
 601:E:/LiteOS/LiteOS_Lab/drivers/third_party/ST/STM32L4xx_HAL_Driver/Src\stm32l4xx_hal_dma.c **** #endif /* DMAMUX1 */
 602:E:/LiteOS/LiteOS_Lab/drivers/third_party/ST/STM32L4xx_HAL_Driver/Src\stm32l4xx_hal_dma.c **** 
 603:E:/LiteOS/LiteOS_Lab/drivers/third_party/ST/STM32L4xx_HAL_Driver/Src\stm32l4xx_hal_dma.c ****   /* Change the DMA state */
 604:E:/LiteOS/LiteOS_Lab/drivers/third_party/ST/STM32L4xx_HAL_Driver/Src\stm32l4xx_hal_dma.c ****   hdma->State = HAL_DMA_STATE_READY;
 745              		.loc 1 604 0
 746 0046 7B68     		ldr	r3, [r7, #4]
 747 0048 0122     		movs	r2, #1
 748 004a 83F82520 		strb	r2, [r3, #37]
 605:E:/LiteOS/LiteOS_Lab/drivers/third_party/ST/STM32L4xx_HAL_Driver/Src\stm32l4xx_hal_dma.c **** 
 606:E:/LiteOS/LiteOS_Lab/drivers/third_party/ST/STM32L4xx_HAL_Driver/Src\stm32l4xx_hal_dma.c ****   /* Process Unlocked */
 607:E:/LiteOS/LiteOS_Lab/drivers/third_party/ST/STM32L4xx_HAL_Driver/Src\stm32l4xx_hal_dma.c ****   __HAL_UNLOCK(hdma);
 749              		.loc 1 607 0
 750 004e 7B68     		ldr	r3, [r7, #4]
 751 0050 0022     		movs	r2, #0
 752 0052 83F82420 		strb	r2, [r3, #36]
 608:E:/LiteOS/LiteOS_Lab/drivers/third_party/ST/STM32L4xx_HAL_Driver/Src\stm32l4xx_hal_dma.c **** 
 609:E:/LiteOS/LiteOS_Lab/drivers/third_party/ST/STM32L4xx_HAL_Driver/Src\stm32l4xx_hal_dma.c ****   return status;
 753              		.loc 1 609 0
 754 0056 FB7B     		ldrb	r3, [r7, #15]	@ zero_extendqisi2
 755              	.L33:
 610:E:/LiteOS/LiteOS_Lab/drivers/third_party/ST/STM32L4xx_HAL_Driver/Src\stm32l4xx_hal_dma.c **** }
 756              		.loc 1 610 0
 757 0058 1846     		mov	r0, r3
 758 005a 1437     		adds	r7, r7, #20
 759              	.LCFI25:
 760              		.cfi_def_cfa_offset 4
 761 005c BD46     		mov	sp, r7
 762              	.LCFI26:
 763              		.cfi_def_cfa_register 13
ARM GAS  C:\Users\user\AppData\Local\Temp\ccuTs4tt.s 			page 25


 764              		@ sp needed
 765 005e 5DF8047B 		ldr	r7, [sp], #4
 766              	.LCFI27:
 767              		.cfi_restore 7
 768              		.cfi_def_cfa_offset 0
 769 0062 7047     		bx	lr
 770              		.cfi_endproc
 771              	.LFE137:
 773              		.section	.text.HAL_DMA_Abort_IT,"ax",%progbits
 774              		.align	1
 775              		.global	HAL_DMA_Abort_IT
 776              		.syntax unified
 777              		.thumb
 778              		.thumb_func
 779              		.fpu fpv4-sp-d16
 781              	HAL_DMA_Abort_IT:
 782              	.LFB138:
 611:E:/LiteOS/LiteOS_Lab/drivers/third_party/ST/STM32L4xx_HAL_Driver/Src\stm32l4xx_hal_dma.c **** 
 612:E:/LiteOS/LiteOS_Lab/drivers/third_party/ST/STM32L4xx_HAL_Driver/Src\stm32l4xx_hal_dma.c **** /**
 613:E:/LiteOS/LiteOS_Lab/drivers/third_party/ST/STM32L4xx_HAL_Driver/Src\stm32l4xx_hal_dma.c ****   * @brief  Aborts the DMA Transfer in Interrupt mode.
 614:E:/LiteOS/LiteOS_Lab/drivers/third_party/ST/STM32L4xx_HAL_Driver/Src\stm32l4xx_hal_dma.c ****   * @param  hdma  : pointer to a DMA_HandleTypeDef structure that contains
 615:E:/LiteOS/LiteOS_Lab/drivers/third_party/ST/STM32L4xx_HAL_Driver/Src\stm32l4xx_hal_dma.c ****   *                 the configuration information for the specified DMA Channel.
 616:E:/LiteOS/LiteOS_Lab/drivers/third_party/ST/STM32L4xx_HAL_Driver/Src\stm32l4xx_hal_dma.c ****   * @retval HAL status
 617:E:/LiteOS/LiteOS_Lab/drivers/third_party/ST/STM32L4xx_HAL_Driver/Src\stm32l4xx_hal_dma.c ****   */
 618:E:/LiteOS/LiteOS_Lab/drivers/third_party/ST/STM32L4xx_HAL_Driver/Src\stm32l4xx_hal_dma.c **** HAL_StatusTypeDef HAL_DMA_Abort_IT(DMA_HandleTypeDef *hdma)
 619:E:/LiteOS/LiteOS_Lab/drivers/third_party/ST/STM32L4xx_HAL_Driver/Src\stm32l4xx_hal_dma.c **** {
 783              		.loc 1 619 0
 784              		.cfi_startproc
 785              		@ args = 0, pretend = 0, frame = 16
 786              		@ frame_needed = 1, uses_anonymous_args = 0
 787 0000 80B5     		push	{r7, lr}
 788              	.LCFI28:
 789              		.cfi_def_cfa_offset 8
 790              		.cfi_offset 7, -8
 791              		.cfi_offset 14, -4
 792 0002 84B0     		sub	sp, sp, #16
 793              	.LCFI29:
 794              		.cfi_def_cfa_offset 24
 795 0004 00AF     		add	r7, sp, #0
 796              	.LCFI30:
 797              		.cfi_def_cfa_register 7
 798 0006 7860     		str	r0, [r7, #4]
 620:E:/LiteOS/LiteOS_Lab/drivers/third_party/ST/STM32L4xx_HAL_Driver/Src\stm32l4xx_hal_dma.c ****   HAL_StatusTypeDef status = HAL_OK;
 799              		.loc 1 620 0
 800 0008 0023     		movs	r3, #0
 801 000a FB73     		strb	r3, [r7, #15]
 621:E:/LiteOS/LiteOS_Lab/drivers/third_party/ST/STM32L4xx_HAL_Driver/Src\stm32l4xx_hal_dma.c **** 
 622:E:/LiteOS/LiteOS_Lab/drivers/third_party/ST/STM32L4xx_HAL_Driver/Src\stm32l4xx_hal_dma.c ****   if(HAL_DMA_STATE_BUSY != hdma->State)
 802              		.loc 1 622 0
 803 000c 7B68     		ldr	r3, [r7, #4]
 804 000e 93F82530 		ldrb	r3, [r3, #37]
 805 0012 DBB2     		uxtb	r3, r3
 806 0014 022B     		cmp	r3, #2
 807 0016 05D0     		beq	.L35
 623:E:/LiteOS/LiteOS_Lab/drivers/third_party/ST/STM32L4xx_HAL_Driver/Src\stm32l4xx_hal_dma.c ****   {
 624:E:/LiteOS/LiteOS_Lab/drivers/third_party/ST/STM32L4xx_HAL_Driver/Src\stm32l4xx_hal_dma.c ****     /* no transfer ongoing */
 625:E:/LiteOS/LiteOS_Lab/drivers/third_party/ST/STM32L4xx_HAL_Driver/Src\stm32l4xx_hal_dma.c ****     hdma->ErrorCode = HAL_DMA_ERROR_NO_XFER;
ARM GAS  C:\Users\user\AppData\Local\Temp\ccuTs4tt.s 			page 26


 808              		.loc 1 625 0
 809 0018 7B68     		ldr	r3, [r7, #4]
 810 001a 0422     		movs	r2, #4
 811 001c DA63     		str	r2, [r3, #60]
 626:E:/LiteOS/LiteOS_Lab/drivers/third_party/ST/STM32L4xx_HAL_Driver/Src\stm32l4xx_hal_dma.c **** 
 627:E:/LiteOS/LiteOS_Lab/drivers/third_party/ST/STM32L4xx_HAL_Driver/Src\stm32l4xx_hal_dma.c ****     status = HAL_ERROR;
 812              		.loc 1 627 0
 813 001e 0123     		movs	r3, #1
 814 0020 FB73     		strb	r3, [r7, #15]
 815 0022 27E0     		b	.L36
 816              	.L35:
 628:E:/LiteOS/LiteOS_Lab/drivers/third_party/ST/STM32L4xx_HAL_Driver/Src\stm32l4xx_hal_dma.c ****   }
 629:E:/LiteOS/LiteOS_Lab/drivers/third_party/ST/STM32L4xx_HAL_Driver/Src\stm32l4xx_hal_dma.c ****   else
 630:E:/LiteOS/LiteOS_Lab/drivers/third_party/ST/STM32L4xx_HAL_Driver/Src\stm32l4xx_hal_dma.c ****   {
 631:E:/LiteOS/LiteOS_Lab/drivers/third_party/ST/STM32L4xx_HAL_Driver/Src\stm32l4xx_hal_dma.c ****     /* Disable DMA IT */
 632:E:/LiteOS/LiteOS_Lab/drivers/third_party/ST/STM32L4xx_HAL_Driver/Src\stm32l4xx_hal_dma.c ****     __HAL_DMA_DISABLE_IT(hdma, (DMA_IT_TC | DMA_IT_HT | DMA_IT_TE));
 817              		.loc 1 632 0
 818 0024 7B68     		ldr	r3, [r7, #4]
 819 0026 1B68     		ldr	r3, [r3]
 820 0028 1A68     		ldr	r2, [r3]
 821 002a 7B68     		ldr	r3, [r7, #4]
 822 002c 1B68     		ldr	r3, [r3]
 823 002e 22F00E02 		bic	r2, r2, #14
 824 0032 1A60     		str	r2, [r3]
 633:E:/LiteOS/LiteOS_Lab/drivers/third_party/ST/STM32L4xx_HAL_Driver/Src\stm32l4xx_hal_dma.c **** 
 634:E:/LiteOS/LiteOS_Lab/drivers/third_party/ST/STM32L4xx_HAL_Driver/Src\stm32l4xx_hal_dma.c ****     /* Disable the channel */
 635:E:/LiteOS/LiteOS_Lab/drivers/third_party/ST/STM32L4xx_HAL_Driver/Src\stm32l4xx_hal_dma.c ****     __HAL_DMA_DISABLE(hdma);
 825              		.loc 1 635 0
 826 0034 7B68     		ldr	r3, [r7, #4]
 827 0036 1B68     		ldr	r3, [r3]
 828 0038 1A68     		ldr	r2, [r3]
 829 003a 7B68     		ldr	r3, [r7, #4]
 830 003c 1B68     		ldr	r3, [r3]
 831 003e 22F00102 		bic	r2, r2, #1
 832 0042 1A60     		str	r2, [r3]
 636:E:/LiteOS/LiteOS_Lab/drivers/third_party/ST/STM32L4xx_HAL_Driver/Src\stm32l4xx_hal_dma.c **** 
 637:E:/LiteOS/LiteOS_Lab/drivers/third_party/ST/STM32L4xx_HAL_Driver/Src\stm32l4xx_hal_dma.c **** #if defined(DMAMUX1)
 638:E:/LiteOS/LiteOS_Lab/drivers/third_party/ST/STM32L4xx_HAL_Driver/Src\stm32l4xx_hal_dma.c ****     /* disable the DMAMUX sync overrun IT*/
 639:E:/LiteOS/LiteOS_Lab/drivers/third_party/ST/STM32L4xx_HAL_Driver/Src\stm32l4xx_hal_dma.c ****     hdma->DMAmuxChannel->CCR &= ~DMAMUX_CxCR_SOIE;
 640:E:/LiteOS/LiteOS_Lab/drivers/third_party/ST/STM32L4xx_HAL_Driver/Src\stm32l4xx_hal_dma.c **** 
 641:E:/LiteOS/LiteOS_Lab/drivers/third_party/ST/STM32L4xx_HAL_Driver/Src\stm32l4xx_hal_dma.c ****     /* Clear all flags */
 642:E:/LiteOS/LiteOS_Lab/drivers/third_party/ST/STM32L4xx_HAL_Driver/Src\stm32l4xx_hal_dma.c ****     hdma->DmaBaseAddress->IFCR = (DMA_ISR_GIF1 << hdma->ChannelIndex);
 643:E:/LiteOS/LiteOS_Lab/drivers/third_party/ST/STM32L4xx_HAL_Driver/Src\stm32l4xx_hal_dma.c **** 
 644:E:/LiteOS/LiteOS_Lab/drivers/third_party/ST/STM32L4xx_HAL_Driver/Src\stm32l4xx_hal_dma.c ****     /* Clear the DMAMUX synchro overrun flag */
 645:E:/LiteOS/LiteOS_Lab/drivers/third_party/ST/STM32L4xx_HAL_Driver/Src\stm32l4xx_hal_dma.c ****     hdma->DMAmuxChannelStatus->CFR = hdma->DMAmuxChannelStatusMask;
 646:E:/LiteOS/LiteOS_Lab/drivers/third_party/ST/STM32L4xx_HAL_Driver/Src\stm32l4xx_hal_dma.c **** 
 647:E:/LiteOS/LiteOS_Lab/drivers/third_party/ST/STM32L4xx_HAL_Driver/Src\stm32l4xx_hal_dma.c ****     if(hdma->DMAmuxRequestGen != 0U)
 648:E:/LiteOS/LiteOS_Lab/drivers/third_party/ST/STM32L4xx_HAL_Driver/Src\stm32l4xx_hal_dma.c ****     {
 649:E:/LiteOS/LiteOS_Lab/drivers/third_party/ST/STM32L4xx_HAL_Driver/Src\stm32l4xx_hal_dma.c ****       /* if using DMAMUX request generator, disable the DMAMUX request generator overrun IT*/
 650:E:/LiteOS/LiteOS_Lab/drivers/third_party/ST/STM32L4xx_HAL_Driver/Src\stm32l4xx_hal_dma.c ****       /* disable the request gen overrun IT*/
 651:E:/LiteOS/LiteOS_Lab/drivers/third_party/ST/STM32L4xx_HAL_Driver/Src\stm32l4xx_hal_dma.c ****       hdma->DMAmuxRequestGen->RGCR &= ~DMAMUX_RGxCR_OIE;
 652:E:/LiteOS/LiteOS_Lab/drivers/third_party/ST/STM32L4xx_HAL_Driver/Src\stm32l4xx_hal_dma.c **** 
 653:E:/LiteOS/LiteOS_Lab/drivers/third_party/ST/STM32L4xx_HAL_Driver/Src\stm32l4xx_hal_dma.c ****       /* Clear the DMAMUX request generator overrun flag */
 654:E:/LiteOS/LiteOS_Lab/drivers/third_party/ST/STM32L4xx_HAL_Driver/Src\stm32l4xx_hal_dma.c ****       hdma->DMAmuxRequestGenStatus->RGCFR = hdma->DMAmuxRequestGenStatusMask;
 655:E:/LiteOS/LiteOS_Lab/drivers/third_party/ST/STM32L4xx_HAL_Driver/Src\stm32l4xx_hal_dma.c ****     }
 656:E:/LiteOS/LiteOS_Lab/drivers/third_party/ST/STM32L4xx_HAL_Driver/Src\stm32l4xx_hal_dma.c **** 
 657:E:/LiteOS/LiteOS_Lab/drivers/third_party/ST/STM32L4xx_HAL_Driver/Src\stm32l4xx_hal_dma.c **** #else
ARM GAS  C:\Users\user\AppData\Local\Temp\ccuTs4tt.s 			page 27


 658:E:/LiteOS/LiteOS_Lab/drivers/third_party/ST/STM32L4xx_HAL_Driver/Src\stm32l4xx_hal_dma.c ****     /* Clear all flags */
 659:E:/LiteOS/LiteOS_Lab/drivers/third_party/ST/STM32L4xx_HAL_Driver/Src\stm32l4xx_hal_dma.c ****     hdma->DmaBaseAddress->IFCR = (DMA_ISR_GIF1 << hdma->ChannelIndex);
 833              		.loc 1 659 0
 834 0044 7B68     		ldr	r3, [r7, #4]
 835 0046 5A6C     		ldr	r2, [r3, #68]
 836 0048 7B68     		ldr	r3, [r7, #4]
 837 004a 1B6C     		ldr	r3, [r3, #64]
 838 004c 0121     		movs	r1, #1
 839 004e 01FA02F2 		lsl	r2, r1, r2
 840 0052 5A60     		str	r2, [r3, #4]
 660:E:/LiteOS/LiteOS_Lab/drivers/third_party/ST/STM32L4xx_HAL_Driver/Src\stm32l4xx_hal_dma.c **** #endif /* DMAMUX1 */
 661:E:/LiteOS/LiteOS_Lab/drivers/third_party/ST/STM32L4xx_HAL_Driver/Src\stm32l4xx_hal_dma.c **** 
 662:E:/LiteOS/LiteOS_Lab/drivers/third_party/ST/STM32L4xx_HAL_Driver/Src\stm32l4xx_hal_dma.c ****     /* Change the DMA state */
 663:E:/LiteOS/LiteOS_Lab/drivers/third_party/ST/STM32L4xx_HAL_Driver/Src\stm32l4xx_hal_dma.c ****     hdma->State = HAL_DMA_STATE_READY;
 841              		.loc 1 663 0
 842 0054 7B68     		ldr	r3, [r7, #4]
 843 0056 0122     		movs	r2, #1
 844 0058 83F82520 		strb	r2, [r3, #37]
 664:E:/LiteOS/LiteOS_Lab/drivers/third_party/ST/STM32L4xx_HAL_Driver/Src\stm32l4xx_hal_dma.c **** 
 665:E:/LiteOS/LiteOS_Lab/drivers/third_party/ST/STM32L4xx_HAL_Driver/Src\stm32l4xx_hal_dma.c ****     /* Process Unlocked */
 666:E:/LiteOS/LiteOS_Lab/drivers/third_party/ST/STM32L4xx_HAL_Driver/Src\stm32l4xx_hal_dma.c ****     __HAL_UNLOCK(hdma);
 845              		.loc 1 666 0
 846 005c 7B68     		ldr	r3, [r7, #4]
 847 005e 0022     		movs	r2, #0
 848 0060 83F82420 		strb	r2, [r3, #36]
 667:E:/LiteOS/LiteOS_Lab/drivers/third_party/ST/STM32L4xx_HAL_Driver/Src\stm32l4xx_hal_dma.c **** 
 668:E:/LiteOS/LiteOS_Lab/drivers/third_party/ST/STM32L4xx_HAL_Driver/Src\stm32l4xx_hal_dma.c ****     /* Call User Abort callback */
 669:E:/LiteOS/LiteOS_Lab/drivers/third_party/ST/STM32L4xx_HAL_Driver/Src\stm32l4xx_hal_dma.c ****     if(hdma->XferAbortCallback != NULL)
 849              		.loc 1 669 0
 850 0064 7B68     		ldr	r3, [r7, #4]
 851 0066 9B6B     		ldr	r3, [r3, #56]
 852 0068 002B     		cmp	r3, #0
 853 006a 03D0     		beq	.L36
 670:E:/LiteOS/LiteOS_Lab/drivers/third_party/ST/STM32L4xx_HAL_Driver/Src\stm32l4xx_hal_dma.c ****     {
 671:E:/LiteOS/LiteOS_Lab/drivers/third_party/ST/STM32L4xx_HAL_Driver/Src\stm32l4xx_hal_dma.c ****       hdma->XferAbortCallback(hdma);
 854              		.loc 1 671 0
 855 006c 7B68     		ldr	r3, [r7, #4]
 856 006e 9B6B     		ldr	r3, [r3, #56]
 857 0070 7868     		ldr	r0, [r7, #4]
 858 0072 9847     		blx	r3
 859              	.LVL0:
 860              	.L36:
 672:E:/LiteOS/LiteOS_Lab/drivers/third_party/ST/STM32L4xx_HAL_Driver/Src\stm32l4xx_hal_dma.c ****     }
 673:E:/LiteOS/LiteOS_Lab/drivers/third_party/ST/STM32L4xx_HAL_Driver/Src\stm32l4xx_hal_dma.c ****   }
 674:E:/LiteOS/LiteOS_Lab/drivers/third_party/ST/STM32L4xx_HAL_Driver/Src\stm32l4xx_hal_dma.c ****   return status;
 861              		.loc 1 674 0
 862 0074 FB7B     		ldrb	r3, [r7, #15]	@ zero_extendqisi2
 675:E:/LiteOS/LiteOS_Lab/drivers/third_party/ST/STM32L4xx_HAL_Driver/Src\stm32l4xx_hal_dma.c **** }
 863              		.loc 1 675 0
 864 0076 1846     		mov	r0, r3
 865 0078 1037     		adds	r7, r7, #16
 866              	.LCFI31:
 867              		.cfi_def_cfa_offset 8
 868 007a BD46     		mov	sp, r7
 869              	.LCFI32:
 870              		.cfi_def_cfa_register 13
 871              		@ sp needed
ARM GAS  C:\Users\user\AppData\Local\Temp\ccuTs4tt.s 			page 28


 872 007c 80BD     		pop	{r7, pc}
 873              		.cfi_endproc
 874              	.LFE138:
 876              		.section	.text.HAL_DMA_PollForTransfer,"ax",%progbits
 877              		.align	1
 878              		.global	HAL_DMA_PollForTransfer
 879              		.syntax unified
 880              		.thumb
 881              		.thumb_func
 882              		.fpu fpv4-sp-d16
 884              	HAL_DMA_PollForTransfer:
 885              	.LFB139:
 676:E:/LiteOS/LiteOS_Lab/drivers/third_party/ST/STM32L4xx_HAL_Driver/Src\stm32l4xx_hal_dma.c **** 
 677:E:/LiteOS/LiteOS_Lab/drivers/third_party/ST/STM32L4xx_HAL_Driver/Src\stm32l4xx_hal_dma.c **** /**
 678:E:/LiteOS/LiteOS_Lab/drivers/third_party/ST/STM32L4xx_HAL_Driver/Src\stm32l4xx_hal_dma.c ****   * @brief  Polling for transfer complete.
 679:E:/LiteOS/LiteOS_Lab/drivers/third_party/ST/STM32L4xx_HAL_Driver/Src\stm32l4xx_hal_dma.c ****   * @param  hdma:    pointer to a DMA_HandleTypeDef structure that contains
 680:E:/LiteOS/LiteOS_Lab/drivers/third_party/ST/STM32L4xx_HAL_Driver/Src\stm32l4xx_hal_dma.c ****   *                  the configuration information for the specified DMA Channel.
 681:E:/LiteOS/LiteOS_Lab/drivers/third_party/ST/STM32L4xx_HAL_Driver/Src\stm32l4xx_hal_dma.c ****   * @param  CompleteLevel: Specifies the DMA level complete.
 682:E:/LiteOS/LiteOS_Lab/drivers/third_party/ST/STM32L4xx_HAL_Driver/Src\stm32l4xx_hal_dma.c ****   * @param  Timeout:       Timeout duration.
 683:E:/LiteOS/LiteOS_Lab/drivers/third_party/ST/STM32L4xx_HAL_Driver/Src\stm32l4xx_hal_dma.c ****   * @retval HAL status
 684:E:/LiteOS/LiteOS_Lab/drivers/third_party/ST/STM32L4xx_HAL_Driver/Src\stm32l4xx_hal_dma.c ****   */
 685:E:/LiteOS/LiteOS_Lab/drivers/third_party/ST/STM32L4xx_HAL_Driver/Src\stm32l4xx_hal_dma.c **** HAL_StatusTypeDef HAL_DMA_PollForTransfer(DMA_HandleTypeDef *hdma, HAL_DMA_LevelCompleteTypeDef Com
 686:E:/LiteOS/LiteOS_Lab/drivers/third_party/ST/STM32L4xx_HAL_Driver/Src\stm32l4xx_hal_dma.c **** {
 886              		.loc 1 686 0
 887              		.cfi_startproc
 888              		@ args = 0, pretend = 0, frame = 24
 889              		@ frame_needed = 1, uses_anonymous_args = 0
 890 0000 80B5     		push	{r7, lr}
 891              	.LCFI33:
 892              		.cfi_def_cfa_offset 8
 893              		.cfi_offset 7, -8
 894              		.cfi_offset 14, -4
 895 0002 86B0     		sub	sp, sp, #24
 896              	.LCFI34:
 897              		.cfi_def_cfa_offset 32
 898 0004 00AF     		add	r7, sp, #0
 899              	.LCFI35:
 900              		.cfi_def_cfa_register 7
 901 0006 F860     		str	r0, [r7, #12]
 902 0008 0B46     		mov	r3, r1
 903 000a 7A60     		str	r2, [r7, #4]
 904 000c FB72     		strb	r3, [r7, #11]
 687:E:/LiteOS/LiteOS_Lab/drivers/third_party/ST/STM32L4xx_HAL_Driver/Src\stm32l4xx_hal_dma.c ****   uint32_t temp;
 688:E:/LiteOS/LiteOS_Lab/drivers/third_party/ST/STM32L4xx_HAL_Driver/Src\stm32l4xx_hal_dma.c ****   uint32_t tickstart = 0;
 905              		.loc 1 688 0
 906 000e 0023     		movs	r3, #0
 907 0010 3B61     		str	r3, [r7, #16]
 689:E:/LiteOS/LiteOS_Lab/drivers/third_party/ST/STM32L4xx_HAL_Driver/Src\stm32l4xx_hal_dma.c **** 
 690:E:/LiteOS/LiteOS_Lab/drivers/third_party/ST/STM32L4xx_HAL_Driver/Src\stm32l4xx_hal_dma.c ****   if(HAL_DMA_STATE_BUSY != hdma->State)
 908              		.loc 1 690 0
 909 0012 FB68     		ldr	r3, [r7, #12]
 910 0014 93F82530 		ldrb	r3, [r3, #37]
 911 0018 DBB2     		uxtb	r3, r3
 912 001a 022B     		cmp	r3, #2
 913 001c 08D0     		beq	.L39
 691:E:/LiteOS/LiteOS_Lab/drivers/third_party/ST/STM32L4xx_HAL_Driver/Src\stm32l4xx_hal_dma.c ****   {
 692:E:/LiteOS/LiteOS_Lab/drivers/third_party/ST/STM32L4xx_HAL_Driver/Src\stm32l4xx_hal_dma.c ****     /* no transfer ongoing */
ARM GAS  C:\Users\user\AppData\Local\Temp\ccuTs4tt.s 			page 29


 693:E:/LiteOS/LiteOS_Lab/drivers/third_party/ST/STM32L4xx_HAL_Driver/Src\stm32l4xx_hal_dma.c ****     hdma->ErrorCode = HAL_DMA_ERROR_NO_XFER;
 914              		.loc 1 693 0
 915 001e FB68     		ldr	r3, [r7, #12]
 916 0020 0422     		movs	r2, #4
 917 0022 DA63     		str	r2, [r3, #60]
 694:E:/LiteOS/LiteOS_Lab/drivers/third_party/ST/STM32L4xx_HAL_Driver/Src\stm32l4xx_hal_dma.c ****     __HAL_UNLOCK(hdma);
 918              		.loc 1 694 0
 919 0024 FB68     		ldr	r3, [r7, #12]
 920 0026 0022     		movs	r2, #0
 921 0028 83F82420 		strb	r2, [r3, #36]
 695:E:/LiteOS/LiteOS_Lab/drivers/third_party/ST/STM32L4xx_HAL_Driver/Src\stm32l4xx_hal_dma.c ****     return HAL_ERROR;
 922              		.loc 1 695 0
 923 002c 0123     		movs	r3, #1
 924 002e 80E0     		b	.L40
 925              	.L39:
 696:E:/LiteOS/LiteOS_Lab/drivers/third_party/ST/STM32L4xx_HAL_Driver/Src\stm32l4xx_hal_dma.c ****   }
 697:E:/LiteOS/LiteOS_Lab/drivers/third_party/ST/STM32L4xx_HAL_Driver/Src\stm32l4xx_hal_dma.c **** 
 698:E:/LiteOS/LiteOS_Lab/drivers/third_party/ST/STM32L4xx_HAL_Driver/Src\stm32l4xx_hal_dma.c ****   /* Polling mode not supported in circular mode */
 699:E:/LiteOS/LiteOS_Lab/drivers/third_party/ST/STM32L4xx_HAL_Driver/Src\stm32l4xx_hal_dma.c ****   if (RESET != (hdma->Instance->CCR & DMA_CCR_CIRC))
 926              		.loc 1 699 0
 927 0030 FB68     		ldr	r3, [r7, #12]
 928 0032 1B68     		ldr	r3, [r3]
 929 0034 1B68     		ldr	r3, [r3]
 930 0036 03F02003 		and	r3, r3, #32
 931 003a 002B     		cmp	r3, #0
 932 003c 05D0     		beq	.L41
 700:E:/LiteOS/LiteOS_Lab/drivers/third_party/ST/STM32L4xx_HAL_Driver/Src\stm32l4xx_hal_dma.c ****   {
 701:E:/LiteOS/LiteOS_Lab/drivers/third_party/ST/STM32L4xx_HAL_Driver/Src\stm32l4xx_hal_dma.c ****     hdma->ErrorCode = HAL_DMA_ERROR_NOT_SUPPORTED;
 933              		.loc 1 701 0
 934 003e FB68     		ldr	r3, [r7, #12]
 935 0040 4FF48072 		mov	r2, #256
 936 0044 DA63     		str	r2, [r3, #60]
 702:E:/LiteOS/LiteOS_Lab/drivers/third_party/ST/STM32L4xx_HAL_Driver/Src\stm32l4xx_hal_dma.c ****     return HAL_ERROR;
 937              		.loc 1 702 0
 938 0046 0123     		movs	r3, #1
 939 0048 73E0     		b	.L40
 940              	.L41:
 703:E:/LiteOS/LiteOS_Lab/drivers/third_party/ST/STM32L4xx_HAL_Driver/Src\stm32l4xx_hal_dma.c ****   }
 704:E:/LiteOS/LiteOS_Lab/drivers/third_party/ST/STM32L4xx_HAL_Driver/Src\stm32l4xx_hal_dma.c **** 
 705:E:/LiteOS/LiteOS_Lab/drivers/third_party/ST/STM32L4xx_HAL_Driver/Src\stm32l4xx_hal_dma.c ****   /* Get the level transfer complete flag */
 706:E:/LiteOS/LiteOS_Lab/drivers/third_party/ST/STM32L4xx_HAL_Driver/Src\stm32l4xx_hal_dma.c ****   if (HAL_DMA_FULL_TRANSFER == CompleteLevel)
 941              		.loc 1 706 0
 942 004a FB7A     		ldrb	r3, [r7, #11]	@ zero_extendqisi2
 943 004c 002B     		cmp	r3, #0
 944 004e 06D1     		bne	.L42
 707:E:/LiteOS/LiteOS_Lab/drivers/third_party/ST/STM32L4xx_HAL_Driver/Src\stm32l4xx_hal_dma.c ****   {
 708:E:/LiteOS/LiteOS_Lab/drivers/third_party/ST/STM32L4xx_HAL_Driver/Src\stm32l4xx_hal_dma.c ****     /* Transfer Complete flag */
 709:E:/LiteOS/LiteOS_Lab/drivers/third_party/ST/STM32L4xx_HAL_Driver/Src\stm32l4xx_hal_dma.c ****     temp = DMA_FLAG_TC1 << hdma->ChannelIndex;
 945              		.loc 1 709 0
 946 0050 FB68     		ldr	r3, [r7, #12]
 947 0052 5B6C     		ldr	r3, [r3, #68]
 948 0054 0222     		movs	r2, #2
 949 0056 02FA03F3 		lsl	r3, r2, r3
 950 005a 7B61     		str	r3, [r7, #20]
 951 005c 05E0     		b	.L43
 952              	.L42:
 710:E:/LiteOS/LiteOS_Lab/drivers/third_party/ST/STM32L4xx_HAL_Driver/Src\stm32l4xx_hal_dma.c ****   }
ARM GAS  C:\Users\user\AppData\Local\Temp\ccuTs4tt.s 			page 30


 711:E:/LiteOS/LiteOS_Lab/drivers/third_party/ST/STM32L4xx_HAL_Driver/Src\stm32l4xx_hal_dma.c ****   else
 712:E:/LiteOS/LiteOS_Lab/drivers/third_party/ST/STM32L4xx_HAL_Driver/Src\stm32l4xx_hal_dma.c ****   {
 713:E:/LiteOS/LiteOS_Lab/drivers/third_party/ST/STM32L4xx_HAL_Driver/Src\stm32l4xx_hal_dma.c ****     /* Half Transfer Complete flag */
 714:E:/LiteOS/LiteOS_Lab/drivers/third_party/ST/STM32L4xx_HAL_Driver/Src\stm32l4xx_hal_dma.c ****     temp = DMA_FLAG_HT1 << hdma->ChannelIndex;
 953              		.loc 1 714 0
 954 005e FB68     		ldr	r3, [r7, #12]
 955 0060 5B6C     		ldr	r3, [r3, #68]
 956 0062 0422     		movs	r2, #4
 957 0064 02FA03F3 		lsl	r3, r2, r3
 958 0068 7B61     		str	r3, [r7, #20]
 959              	.L43:
 715:E:/LiteOS/LiteOS_Lab/drivers/third_party/ST/STM32L4xx_HAL_Driver/Src\stm32l4xx_hal_dma.c ****   }
 716:E:/LiteOS/LiteOS_Lab/drivers/third_party/ST/STM32L4xx_HAL_Driver/Src\stm32l4xx_hal_dma.c **** 
 717:E:/LiteOS/LiteOS_Lab/drivers/third_party/ST/STM32L4xx_HAL_Driver/Src\stm32l4xx_hal_dma.c ****   /* Get tick */
 718:E:/LiteOS/LiteOS_Lab/drivers/third_party/ST/STM32L4xx_HAL_Driver/Src\stm32l4xx_hal_dma.c ****   tickstart = HAL_GetTick();
 960              		.loc 1 718 0
 961 006a FFF7FEFF 		bl	HAL_GetTick
 962 006e 3861     		str	r0, [r7, #16]
 719:E:/LiteOS/LiteOS_Lab/drivers/third_party/ST/STM32L4xx_HAL_Driver/Src\stm32l4xx_hal_dma.c **** 
 720:E:/LiteOS/LiteOS_Lab/drivers/third_party/ST/STM32L4xx_HAL_Driver/Src\stm32l4xx_hal_dma.c ****   while(RESET == (hdma->DmaBaseAddress->ISR & temp))
 963              		.loc 1 720 0
 964 0070 3BE0     		b	.L44
 965              	.L47:
 721:E:/LiteOS/LiteOS_Lab/drivers/third_party/ST/STM32L4xx_HAL_Driver/Src\stm32l4xx_hal_dma.c ****   {
 722:E:/LiteOS/LiteOS_Lab/drivers/third_party/ST/STM32L4xx_HAL_Driver/Src\stm32l4xx_hal_dma.c ****     if((RESET != (hdma->DmaBaseAddress->ISR & (DMA_FLAG_TE1 << hdma->ChannelIndex))))
 966              		.loc 1 722 0
 967 0072 FB68     		ldr	r3, [r7, #12]
 968 0074 1B6C     		ldr	r3, [r3, #64]
 969 0076 1A68     		ldr	r2, [r3]
 970 0078 FB68     		ldr	r3, [r7, #12]
 971 007a 5B6C     		ldr	r3, [r3, #68]
 972 007c 0821     		movs	r1, #8
 973 007e 01FA03F3 		lsl	r3, r1, r3
 974 0082 1340     		ands	r3, r3, r2
 975 0084 002B     		cmp	r3, #0
 976 0086 14D0     		beq	.L45
 723:E:/LiteOS/LiteOS_Lab/drivers/third_party/ST/STM32L4xx_HAL_Driver/Src\stm32l4xx_hal_dma.c ****     {
 724:E:/LiteOS/LiteOS_Lab/drivers/third_party/ST/STM32L4xx_HAL_Driver/Src\stm32l4xx_hal_dma.c ****       /* When a DMA transfer error occurs */
 725:E:/LiteOS/LiteOS_Lab/drivers/third_party/ST/STM32L4xx_HAL_Driver/Src\stm32l4xx_hal_dma.c ****       /* A hardware clear of its EN bits is performed */
 726:E:/LiteOS/LiteOS_Lab/drivers/third_party/ST/STM32L4xx_HAL_Driver/Src\stm32l4xx_hal_dma.c ****       /* Clear all flags */
 727:E:/LiteOS/LiteOS_Lab/drivers/third_party/ST/STM32L4xx_HAL_Driver/Src\stm32l4xx_hal_dma.c ****       hdma->DmaBaseAddress->IFCR = (DMA_ISR_GIF1 << hdma->ChannelIndex);
 977              		.loc 1 727 0
 978 0088 FB68     		ldr	r3, [r7, #12]
 979 008a 5A6C     		ldr	r2, [r3, #68]
 980 008c FB68     		ldr	r3, [r7, #12]
 981 008e 1B6C     		ldr	r3, [r3, #64]
 982 0090 0121     		movs	r1, #1
 983 0092 01FA02F2 		lsl	r2, r1, r2
 984 0096 5A60     		str	r2, [r3, #4]
 728:E:/LiteOS/LiteOS_Lab/drivers/third_party/ST/STM32L4xx_HAL_Driver/Src\stm32l4xx_hal_dma.c **** 
 729:E:/LiteOS/LiteOS_Lab/drivers/third_party/ST/STM32L4xx_HAL_Driver/Src\stm32l4xx_hal_dma.c ****       /* Update error code */
 730:E:/LiteOS/LiteOS_Lab/drivers/third_party/ST/STM32L4xx_HAL_Driver/Src\stm32l4xx_hal_dma.c ****       hdma->ErrorCode = HAL_DMA_ERROR_TE;
 985              		.loc 1 730 0
 986 0098 FB68     		ldr	r3, [r7, #12]
 987 009a 0122     		movs	r2, #1
 988 009c DA63     		str	r2, [r3, #60]
 731:E:/LiteOS/LiteOS_Lab/drivers/third_party/ST/STM32L4xx_HAL_Driver/Src\stm32l4xx_hal_dma.c **** 
ARM GAS  C:\Users\user\AppData\Local\Temp\ccuTs4tt.s 			page 31


 732:E:/LiteOS/LiteOS_Lab/drivers/third_party/ST/STM32L4xx_HAL_Driver/Src\stm32l4xx_hal_dma.c ****       /* Change the DMA state */
 733:E:/LiteOS/LiteOS_Lab/drivers/third_party/ST/STM32L4xx_HAL_Driver/Src\stm32l4xx_hal_dma.c ****       hdma->State= HAL_DMA_STATE_READY;
 989              		.loc 1 733 0
 990 009e FB68     		ldr	r3, [r7, #12]
 991 00a0 0122     		movs	r2, #1
 992 00a2 83F82520 		strb	r2, [r3, #37]
 734:E:/LiteOS/LiteOS_Lab/drivers/third_party/ST/STM32L4xx_HAL_Driver/Src\stm32l4xx_hal_dma.c **** 
 735:E:/LiteOS/LiteOS_Lab/drivers/third_party/ST/STM32L4xx_HAL_Driver/Src\stm32l4xx_hal_dma.c ****       /* Process Unlocked */
 736:E:/LiteOS/LiteOS_Lab/drivers/third_party/ST/STM32L4xx_HAL_Driver/Src\stm32l4xx_hal_dma.c ****       __HAL_UNLOCK(hdma);
 993              		.loc 1 736 0
 994 00a6 FB68     		ldr	r3, [r7, #12]
 995 00a8 0022     		movs	r2, #0
 996 00aa 83F82420 		strb	r2, [r3, #36]
 737:E:/LiteOS/LiteOS_Lab/drivers/third_party/ST/STM32L4xx_HAL_Driver/Src\stm32l4xx_hal_dma.c **** 
 738:E:/LiteOS/LiteOS_Lab/drivers/third_party/ST/STM32L4xx_HAL_Driver/Src\stm32l4xx_hal_dma.c ****       return HAL_ERROR;
 997              		.loc 1 738 0
 998 00ae 0123     		movs	r3, #1
 999 00b0 3FE0     		b	.L40
 1000              	.L45:
 739:E:/LiteOS/LiteOS_Lab/drivers/third_party/ST/STM32L4xx_HAL_Driver/Src\stm32l4xx_hal_dma.c ****     }
 740:E:/LiteOS/LiteOS_Lab/drivers/third_party/ST/STM32L4xx_HAL_Driver/Src\stm32l4xx_hal_dma.c ****     /* Check for the Timeout */
 741:E:/LiteOS/LiteOS_Lab/drivers/third_party/ST/STM32L4xx_HAL_Driver/Src\stm32l4xx_hal_dma.c ****     if(Timeout != HAL_MAX_DELAY)
 1001              		.loc 1 741 0
 1002 00b2 7B68     		ldr	r3, [r7, #4]
 1003 00b4 B3F1FF3F 		cmp	r3, #-1
 1004 00b8 17D0     		beq	.L44
 742:E:/LiteOS/LiteOS_Lab/drivers/third_party/ST/STM32L4xx_HAL_Driver/Src\stm32l4xx_hal_dma.c ****     {
 743:E:/LiteOS/LiteOS_Lab/drivers/third_party/ST/STM32L4xx_HAL_Driver/Src\stm32l4xx_hal_dma.c ****       if((Timeout == 0) || ((HAL_GetTick() - tickstart) > Timeout))
 1005              		.loc 1 743 0
 1006 00ba 7B68     		ldr	r3, [r7, #4]
 1007 00bc 002B     		cmp	r3, #0
 1008 00be 07D0     		beq	.L46
 1009              		.loc 1 743 0 is_stmt 0 discriminator 1
 1010 00c0 FFF7FEFF 		bl	HAL_GetTick
 1011 00c4 0246     		mov	r2, r0
 1012 00c6 3B69     		ldr	r3, [r7, #16]
 1013 00c8 D31A     		subs	r3, r2, r3
 1014 00ca 7A68     		ldr	r2, [r7, #4]
 1015 00cc 9A42     		cmp	r2, r3
 1016 00ce 0CD2     		bcs	.L44
 1017              	.L46:
 744:E:/LiteOS/LiteOS_Lab/drivers/third_party/ST/STM32L4xx_HAL_Driver/Src\stm32l4xx_hal_dma.c ****       {
 745:E:/LiteOS/LiteOS_Lab/drivers/third_party/ST/STM32L4xx_HAL_Driver/Src\stm32l4xx_hal_dma.c ****         /* Update error code */
 746:E:/LiteOS/LiteOS_Lab/drivers/third_party/ST/STM32L4xx_HAL_Driver/Src\stm32l4xx_hal_dma.c ****         hdma->ErrorCode = HAL_DMA_ERROR_TIMEOUT;
 1018              		.loc 1 746 0 is_stmt 1
 1019 00d0 FB68     		ldr	r3, [r7, #12]
 1020 00d2 2022     		movs	r2, #32
 1021 00d4 DA63     		str	r2, [r3, #60]
 747:E:/LiteOS/LiteOS_Lab/drivers/third_party/ST/STM32L4xx_HAL_Driver/Src\stm32l4xx_hal_dma.c **** 
 748:E:/LiteOS/LiteOS_Lab/drivers/third_party/ST/STM32L4xx_HAL_Driver/Src\stm32l4xx_hal_dma.c ****         /* Change the DMA state */
 749:E:/LiteOS/LiteOS_Lab/drivers/third_party/ST/STM32L4xx_HAL_Driver/Src\stm32l4xx_hal_dma.c ****         hdma->State = HAL_DMA_STATE_READY;
 1022              		.loc 1 749 0
 1023 00d6 FB68     		ldr	r3, [r7, #12]
 1024 00d8 0122     		movs	r2, #1
 1025 00da 83F82520 		strb	r2, [r3, #37]
 750:E:/LiteOS/LiteOS_Lab/drivers/third_party/ST/STM32L4xx_HAL_Driver/Src\stm32l4xx_hal_dma.c **** 
 751:E:/LiteOS/LiteOS_Lab/drivers/third_party/ST/STM32L4xx_HAL_Driver/Src\stm32l4xx_hal_dma.c ****         /* Process Unlocked */
ARM GAS  C:\Users\user\AppData\Local\Temp\ccuTs4tt.s 			page 32


 752:E:/LiteOS/LiteOS_Lab/drivers/third_party/ST/STM32L4xx_HAL_Driver/Src\stm32l4xx_hal_dma.c ****         __HAL_UNLOCK(hdma);
 1026              		.loc 1 752 0
 1027 00de FB68     		ldr	r3, [r7, #12]
 1028 00e0 0022     		movs	r2, #0
 1029 00e2 83F82420 		strb	r2, [r3, #36]
 753:E:/LiteOS/LiteOS_Lab/drivers/third_party/ST/STM32L4xx_HAL_Driver/Src\stm32l4xx_hal_dma.c **** 
 754:E:/LiteOS/LiteOS_Lab/drivers/third_party/ST/STM32L4xx_HAL_Driver/Src\stm32l4xx_hal_dma.c ****         return HAL_ERROR;
 1030              		.loc 1 754 0
 1031 00e6 0123     		movs	r3, #1
 1032 00e8 23E0     		b	.L40
 1033              	.L44:
 720:E:/LiteOS/LiteOS_Lab/drivers/third_party/ST/STM32L4xx_HAL_Driver/Src\stm32l4xx_hal_dma.c ****   {
 1034              		.loc 1 720 0
 1035 00ea FB68     		ldr	r3, [r7, #12]
 1036 00ec 1B6C     		ldr	r3, [r3, #64]
 1037 00ee 1A68     		ldr	r2, [r3]
 1038 00f0 7B69     		ldr	r3, [r7, #20]
 1039 00f2 1340     		ands	r3, r3, r2
 1040 00f4 002B     		cmp	r3, #0
 1041 00f6 BCD0     		beq	.L47
 755:E:/LiteOS/LiteOS_Lab/drivers/third_party/ST/STM32L4xx_HAL_Driver/Src\stm32l4xx_hal_dma.c ****       }
 756:E:/LiteOS/LiteOS_Lab/drivers/third_party/ST/STM32L4xx_HAL_Driver/Src\stm32l4xx_hal_dma.c ****     }
 757:E:/LiteOS/LiteOS_Lab/drivers/third_party/ST/STM32L4xx_HAL_Driver/Src\stm32l4xx_hal_dma.c ****   }
 758:E:/LiteOS/LiteOS_Lab/drivers/third_party/ST/STM32L4xx_HAL_Driver/Src\stm32l4xx_hal_dma.c **** 
 759:E:/LiteOS/LiteOS_Lab/drivers/third_party/ST/STM32L4xx_HAL_Driver/Src\stm32l4xx_hal_dma.c **** #if defined(DMAMUX1)
 760:E:/LiteOS/LiteOS_Lab/drivers/third_party/ST/STM32L4xx_HAL_Driver/Src\stm32l4xx_hal_dma.c ****   /*Check for DMAMUX Request generator (if used) overrun status */
 761:E:/LiteOS/LiteOS_Lab/drivers/third_party/ST/STM32L4xx_HAL_Driver/Src\stm32l4xx_hal_dma.c ****   if(hdma->DMAmuxRequestGen != 0U)
 762:E:/LiteOS/LiteOS_Lab/drivers/third_party/ST/STM32L4xx_HAL_Driver/Src\stm32l4xx_hal_dma.c ****   {
 763:E:/LiteOS/LiteOS_Lab/drivers/third_party/ST/STM32L4xx_HAL_Driver/Src\stm32l4xx_hal_dma.c ****     /* if using DMAMUX request generator Check for DMAMUX request generator overrun */
 764:E:/LiteOS/LiteOS_Lab/drivers/third_party/ST/STM32L4xx_HAL_Driver/Src\stm32l4xx_hal_dma.c ****     if((hdma->DMAmuxRequestGenStatus->RGSR & hdma->DMAmuxRequestGenStatusMask) != 0U)
 765:E:/LiteOS/LiteOS_Lab/drivers/third_party/ST/STM32L4xx_HAL_Driver/Src\stm32l4xx_hal_dma.c ****     {
 766:E:/LiteOS/LiteOS_Lab/drivers/third_party/ST/STM32L4xx_HAL_Driver/Src\stm32l4xx_hal_dma.c ****       /* Disable the request gen overrun interrupt */
 767:E:/LiteOS/LiteOS_Lab/drivers/third_party/ST/STM32L4xx_HAL_Driver/Src\stm32l4xx_hal_dma.c ****       hdma->DMAmuxRequestGen->RGCR |= DMAMUX_RGxCR_OIE;
 768:E:/LiteOS/LiteOS_Lab/drivers/third_party/ST/STM32L4xx_HAL_Driver/Src\stm32l4xx_hal_dma.c **** 
 769:E:/LiteOS/LiteOS_Lab/drivers/third_party/ST/STM32L4xx_HAL_Driver/Src\stm32l4xx_hal_dma.c ****       /* Clear the DMAMUX request generator overrun flag */
 770:E:/LiteOS/LiteOS_Lab/drivers/third_party/ST/STM32L4xx_HAL_Driver/Src\stm32l4xx_hal_dma.c ****       hdma->DMAmuxRequestGenStatus->RGCFR = hdma->DMAmuxRequestGenStatusMask;
 771:E:/LiteOS/LiteOS_Lab/drivers/third_party/ST/STM32L4xx_HAL_Driver/Src\stm32l4xx_hal_dma.c **** 
 772:E:/LiteOS/LiteOS_Lab/drivers/third_party/ST/STM32L4xx_HAL_Driver/Src\stm32l4xx_hal_dma.c ****       /* Update error code */
 773:E:/LiteOS/LiteOS_Lab/drivers/third_party/ST/STM32L4xx_HAL_Driver/Src\stm32l4xx_hal_dma.c ****       hdma->ErrorCode |= HAL_DMA_ERROR_REQGEN;
 774:E:/LiteOS/LiteOS_Lab/drivers/third_party/ST/STM32L4xx_HAL_Driver/Src\stm32l4xx_hal_dma.c ****     }
 775:E:/LiteOS/LiteOS_Lab/drivers/third_party/ST/STM32L4xx_HAL_Driver/Src\stm32l4xx_hal_dma.c ****   }
 776:E:/LiteOS/LiteOS_Lab/drivers/third_party/ST/STM32L4xx_HAL_Driver/Src\stm32l4xx_hal_dma.c **** 
 777:E:/LiteOS/LiteOS_Lab/drivers/third_party/ST/STM32L4xx_HAL_Driver/Src\stm32l4xx_hal_dma.c ****   /* Check for DMAMUX Synchronization overrun */
 778:E:/LiteOS/LiteOS_Lab/drivers/third_party/ST/STM32L4xx_HAL_Driver/Src\stm32l4xx_hal_dma.c ****   if((hdma->DMAmuxChannelStatus->CSR & hdma->DMAmuxChannelStatusMask) != 0U)
 779:E:/LiteOS/LiteOS_Lab/drivers/third_party/ST/STM32L4xx_HAL_Driver/Src\stm32l4xx_hal_dma.c ****   {
 780:E:/LiteOS/LiteOS_Lab/drivers/third_party/ST/STM32L4xx_HAL_Driver/Src\stm32l4xx_hal_dma.c ****     /* Clear the DMAMUX synchro overrun flag */
 781:E:/LiteOS/LiteOS_Lab/drivers/third_party/ST/STM32L4xx_HAL_Driver/Src\stm32l4xx_hal_dma.c ****     hdma->DMAmuxChannelStatus->CFR = hdma->DMAmuxChannelStatusMask;
 782:E:/LiteOS/LiteOS_Lab/drivers/third_party/ST/STM32L4xx_HAL_Driver/Src\stm32l4xx_hal_dma.c **** 
 783:E:/LiteOS/LiteOS_Lab/drivers/third_party/ST/STM32L4xx_HAL_Driver/Src\stm32l4xx_hal_dma.c ****     /* Update error code */
 784:E:/LiteOS/LiteOS_Lab/drivers/third_party/ST/STM32L4xx_HAL_Driver/Src\stm32l4xx_hal_dma.c ****     hdma->ErrorCode |= HAL_DMA_ERROR_SYNC;
 785:E:/LiteOS/LiteOS_Lab/drivers/third_party/ST/STM32L4xx_HAL_Driver/Src\stm32l4xx_hal_dma.c ****   }
 786:E:/LiteOS/LiteOS_Lab/drivers/third_party/ST/STM32L4xx_HAL_Driver/Src\stm32l4xx_hal_dma.c **** #endif /* DMAMUX1 */
 787:E:/LiteOS/LiteOS_Lab/drivers/third_party/ST/STM32L4xx_HAL_Driver/Src\stm32l4xx_hal_dma.c **** 
 788:E:/LiteOS/LiteOS_Lab/drivers/third_party/ST/STM32L4xx_HAL_Driver/Src\stm32l4xx_hal_dma.c ****   if(HAL_DMA_FULL_TRANSFER == CompleteLevel)
 1042              		.loc 1 788 0
 1043 00f8 FB7A     		ldrb	r3, [r7, #11]	@ zero_extendqisi2
 1044 00fa 002B     		cmp	r3, #0
ARM GAS  C:\Users\user\AppData\Local\Temp\ccuTs4tt.s 			page 33


 1045 00fc 0CD1     		bne	.L48
 789:E:/LiteOS/LiteOS_Lab/drivers/third_party/ST/STM32L4xx_HAL_Driver/Src\stm32l4xx_hal_dma.c ****   {
 790:E:/LiteOS/LiteOS_Lab/drivers/third_party/ST/STM32L4xx_HAL_Driver/Src\stm32l4xx_hal_dma.c ****     /* Clear the transfer complete flag */
 791:E:/LiteOS/LiteOS_Lab/drivers/third_party/ST/STM32L4xx_HAL_Driver/Src\stm32l4xx_hal_dma.c ****     hdma->DmaBaseAddress->IFCR = (DMA_FLAG_TC1 << hdma->ChannelIndex);
 1046              		.loc 1 791 0
 1047 00fe FB68     		ldr	r3, [r7, #12]
 1048 0100 5A6C     		ldr	r2, [r3, #68]
 1049 0102 FB68     		ldr	r3, [r7, #12]
 1050 0104 1B6C     		ldr	r3, [r3, #64]
 1051 0106 0221     		movs	r1, #2
 1052 0108 01FA02F2 		lsl	r2, r1, r2
 1053 010c 5A60     		str	r2, [r3, #4]
 792:E:/LiteOS/LiteOS_Lab/drivers/third_party/ST/STM32L4xx_HAL_Driver/Src\stm32l4xx_hal_dma.c **** 
 793:E:/LiteOS/LiteOS_Lab/drivers/third_party/ST/STM32L4xx_HAL_Driver/Src\stm32l4xx_hal_dma.c ****     /* The selected Channelx EN bit is cleared (DMA is disabled and
 794:E:/LiteOS/LiteOS_Lab/drivers/third_party/ST/STM32L4xx_HAL_Driver/Src\stm32l4xx_hal_dma.c ****     all transfers are complete) */
 795:E:/LiteOS/LiteOS_Lab/drivers/third_party/ST/STM32L4xx_HAL_Driver/Src\stm32l4xx_hal_dma.c ****     hdma->State = HAL_DMA_STATE_READY;
 1054              		.loc 1 795 0
 1055 010e FB68     		ldr	r3, [r7, #12]
 1056 0110 0122     		movs	r2, #1
 1057 0112 83F82520 		strb	r2, [r3, #37]
 1058 0116 07E0     		b	.L49
 1059              	.L48:
 796:E:/LiteOS/LiteOS_Lab/drivers/third_party/ST/STM32L4xx_HAL_Driver/Src\stm32l4xx_hal_dma.c ****   }
 797:E:/LiteOS/LiteOS_Lab/drivers/third_party/ST/STM32L4xx_HAL_Driver/Src\stm32l4xx_hal_dma.c ****   else
 798:E:/LiteOS/LiteOS_Lab/drivers/third_party/ST/STM32L4xx_HAL_Driver/Src\stm32l4xx_hal_dma.c ****   {
 799:E:/LiteOS/LiteOS_Lab/drivers/third_party/ST/STM32L4xx_HAL_Driver/Src\stm32l4xx_hal_dma.c ****     /* Clear the half transfer complete flag */
 800:E:/LiteOS/LiteOS_Lab/drivers/third_party/ST/STM32L4xx_HAL_Driver/Src\stm32l4xx_hal_dma.c ****     hdma->DmaBaseAddress->IFCR = (DMA_FLAG_HT1 << hdma->ChannelIndex);
 1060              		.loc 1 800 0
 1061 0118 FB68     		ldr	r3, [r7, #12]
 1062 011a 5A6C     		ldr	r2, [r3, #68]
 1063 011c FB68     		ldr	r3, [r7, #12]
 1064 011e 1B6C     		ldr	r3, [r3, #64]
 1065 0120 0421     		movs	r1, #4
 1066 0122 01FA02F2 		lsl	r2, r1, r2
 1067 0126 5A60     		str	r2, [r3, #4]
 1068              	.L49:
 801:E:/LiteOS/LiteOS_Lab/drivers/third_party/ST/STM32L4xx_HAL_Driver/Src\stm32l4xx_hal_dma.c ****   }
 802:E:/LiteOS/LiteOS_Lab/drivers/third_party/ST/STM32L4xx_HAL_Driver/Src\stm32l4xx_hal_dma.c **** 
 803:E:/LiteOS/LiteOS_Lab/drivers/third_party/ST/STM32L4xx_HAL_Driver/Src\stm32l4xx_hal_dma.c ****   /* Process unlocked */
 804:E:/LiteOS/LiteOS_Lab/drivers/third_party/ST/STM32L4xx_HAL_Driver/Src\stm32l4xx_hal_dma.c ****   __HAL_UNLOCK(hdma);
 1069              		.loc 1 804 0
 1070 0128 FB68     		ldr	r3, [r7, #12]
 1071 012a 0022     		movs	r2, #0
 1072 012c 83F82420 		strb	r2, [r3, #36]
 805:E:/LiteOS/LiteOS_Lab/drivers/third_party/ST/STM32L4xx_HAL_Driver/Src\stm32l4xx_hal_dma.c **** 
 806:E:/LiteOS/LiteOS_Lab/drivers/third_party/ST/STM32L4xx_HAL_Driver/Src\stm32l4xx_hal_dma.c ****   return HAL_OK;
 1073              		.loc 1 806 0
 1074 0130 0023     		movs	r3, #0
 1075              	.L40:
 807:E:/LiteOS/LiteOS_Lab/drivers/third_party/ST/STM32L4xx_HAL_Driver/Src\stm32l4xx_hal_dma.c **** }
 1076              		.loc 1 807 0
 1077 0132 1846     		mov	r0, r3
 1078 0134 1837     		adds	r7, r7, #24
 1079              	.LCFI36:
 1080              		.cfi_def_cfa_offset 8
 1081 0136 BD46     		mov	sp, r7
 1082              	.LCFI37:
ARM GAS  C:\Users\user\AppData\Local\Temp\ccuTs4tt.s 			page 34


 1083              		.cfi_def_cfa_register 13
 1084              		@ sp needed
 1085 0138 80BD     		pop	{r7, pc}
 1086              		.cfi_endproc
 1087              	.LFE139:
 1089              		.section	.text.HAL_DMA_IRQHandler,"ax",%progbits
 1090              		.align	1
 1091              		.global	HAL_DMA_IRQHandler
 1092              		.syntax unified
 1093              		.thumb
 1094              		.thumb_func
 1095              		.fpu fpv4-sp-d16
 1097              	HAL_DMA_IRQHandler:
 1098              	.LFB140:
 808:E:/LiteOS/LiteOS_Lab/drivers/third_party/ST/STM32L4xx_HAL_Driver/Src\stm32l4xx_hal_dma.c **** 
 809:E:/LiteOS/LiteOS_Lab/drivers/third_party/ST/STM32L4xx_HAL_Driver/Src\stm32l4xx_hal_dma.c **** /**
 810:E:/LiteOS/LiteOS_Lab/drivers/third_party/ST/STM32L4xx_HAL_Driver/Src\stm32l4xx_hal_dma.c ****   * @brief  Handle DMA interrupt request.
 811:E:/LiteOS/LiteOS_Lab/drivers/third_party/ST/STM32L4xx_HAL_Driver/Src\stm32l4xx_hal_dma.c ****   * @param  hdma: pointer to a DMA_HandleTypeDef structure that contains
 812:E:/LiteOS/LiteOS_Lab/drivers/third_party/ST/STM32L4xx_HAL_Driver/Src\stm32l4xx_hal_dma.c ****   *               the configuration information for the specified DMA Channel.
 813:E:/LiteOS/LiteOS_Lab/drivers/third_party/ST/STM32L4xx_HAL_Driver/Src\stm32l4xx_hal_dma.c ****   * @retval None
 814:E:/LiteOS/LiteOS_Lab/drivers/third_party/ST/STM32L4xx_HAL_Driver/Src\stm32l4xx_hal_dma.c ****   */
 815:E:/LiteOS/LiteOS_Lab/drivers/third_party/ST/STM32L4xx_HAL_Driver/Src\stm32l4xx_hal_dma.c **** void HAL_DMA_IRQHandler(DMA_HandleTypeDef *hdma)
 816:E:/LiteOS/LiteOS_Lab/drivers/third_party/ST/STM32L4xx_HAL_Driver/Src\stm32l4xx_hal_dma.c **** {
 1099              		.loc 1 816 0
 1100              		.cfi_startproc
 1101              		@ args = 0, pretend = 0, frame = 16
 1102              		@ frame_needed = 1, uses_anonymous_args = 0
 1103 0000 80B5     		push	{r7, lr}
 1104              	.LCFI38:
 1105              		.cfi_def_cfa_offset 8
 1106              		.cfi_offset 7, -8
 1107              		.cfi_offset 14, -4
 1108 0002 84B0     		sub	sp, sp, #16
 1109              	.LCFI39:
 1110              		.cfi_def_cfa_offset 24
 1111 0004 00AF     		add	r7, sp, #0
 1112              	.LCFI40:
 1113              		.cfi_def_cfa_register 7
 1114 0006 7860     		str	r0, [r7, #4]
 817:E:/LiteOS/LiteOS_Lab/drivers/third_party/ST/STM32L4xx_HAL_Driver/Src\stm32l4xx_hal_dma.c ****   uint32_t flag_it = hdma->DmaBaseAddress->ISR;
 1115              		.loc 1 817 0
 1116 0008 7B68     		ldr	r3, [r7, #4]
 1117 000a 1B6C     		ldr	r3, [r3, #64]
 1118 000c 1B68     		ldr	r3, [r3]
 1119 000e FB60     		str	r3, [r7, #12]
 818:E:/LiteOS/LiteOS_Lab/drivers/third_party/ST/STM32L4xx_HAL_Driver/Src\stm32l4xx_hal_dma.c ****   uint32_t source_it = hdma->Instance->CCR;
 1120              		.loc 1 818 0
 1121 0010 7B68     		ldr	r3, [r7, #4]
 1122 0012 1B68     		ldr	r3, [r3]
 1123 0014 1B68     		ldr	r3, [r3]
 1124 0016 BB60     		str	r3, [r7, #8]
 819:E:/LiteOS/LiteOS_Lab/drivers/third_party/ST/STM32L4xx_HAL_Driver/Src\stm32l4xx_hal_dma.c **** 
 820:E:/LiteOS/LiteOS_Lab/drivers/third_party/ST/STM32L4xx_HAL_Driver/Src\stm32l4xx_hal_dma.c ****   /* Half Transfer Complete Interrupt management ******************************/
 821:E:/LiteOS/LiteOS_Lab/drivers/third_party/ST/STM32L4xx_HAL_Driver/Src\stm32l4xx_hal_dma.c ****   if ((RESET != (flag_it & (DMA_FLAG_HT1 << hdma->ChannelIndex))) && (RESET != (source_it & DMA_IT_
 1125              		.loc 1 821 0
 1126 0018 7B68     		ldr	r3, [r7, #4]
 1127 001a 5B6C     		ldr	r3, [r3, #68]
ARM GAS  C:\Users\user\AppData\Local\Temp\ccuTs4tt.s 			page 35


 1128 001c 0422     		movs	r2, #4
 1129 001e 9A40     		lsls	r2, r2, r3
 1130 0020 FB68     		ldr	r3, [r7, #12]
 1131 0022 1340     		ands	r3, r3, r2
 1132 0024 002B     		cmp	r3, #0
 1133 0026 24D0     		beq	.L51
 1134              		.loc 1 821 0 is_stmt 0 discriminator 1
 1135 0028 BB68     		ldr	r3, [r7, #8]
 1136 002a 03F00403 		and	r3, r3, #4
 1137 002e 002B     		cmp	r3, #0
 1138 0030 1FD0     		beq	.L51
 822:E:/LiteOS/LiteOS_Lab/drivers/third_party/ST/STM32L4xx_HAL_Driver/Src\stm32l4xx_hal_dma.c ****   {
 823:E:/LiteOS/LiteOS_Lab/drivers/third_party/ST/STM32L4xx_HAL_Driver/Src\stm32l4xx_hal_dma.c ****       /* Disable the half transfer interrupt if the DMA mode is not CIRCULAR */
 824:E:/LiteOS/LiteOS_Lab/drivers/third_party/ST/STM32L4xx_HAL_Driver/Src\stm32l4xx_hal_dma.c ****       if((hdma->Instance->CCR & DMA_CCR_CIRC) == 0)
 1139              		.loc 1 824 0 is_stmt 1
 1140 0032 7B68     		ldr	r3, [r7, #4]
 1141 0034 1B68     		ldr	r3, [r3]
 1142 0036 1B68     		ldr	r3, [r3]
 1143 0038 03F02003 		and	r3, r3, #32
 1144 003c 002B     		cmp	r3, #0
 1145 003e 07D1     		bne	.L52
 825:E:/LiteOS/LiteOS_Lab/drivers/third_party/ST/STM32L4xx_HAL_Driver/Src\stm32l4xx_hal_dma.c ****       {
 826:E:/LiteOS/LiteOS_Lab/drivers/third_party/ST/STM32L4xx_HAL_Driver/Src\stm32l4xx_hal_dma.c ****         /* Disable the half transfer interrupt */
 827:E:/LiteOS/LiteOS_Lab/drivers/third_party/ST/STM32L4xx_HAL_Driver/Src\stm32l4xx_hal_dma.c ****         __HAL_DMA_DISABLE_IT(hdma, DMA_IT_HT);
 1146              		.loc 1 827 0
 1147 0040 7B68     		ldr	r3, [r7, #4]
 1148 0042 1B68     		ldr	r3, [r3]
 1149 0044 1A68     		ldr	r2, [r3]
 1150 0046 7B68     		ldr	r3, [r7, #4]
 1151 0048 1B68     		ldr	r3, [r3]
 1152 004a 22F00402 		bic	r2, r2, #4
 1153 004e 1A60     		str	r2, [r3]
 1154              	.L52:
 828:E:/LiteOS/LiteOS_Lab/drivers/third_party/ST/STM32L4xx_HAL_Driver/Src\stm32l4xx_hal_dma.c ****       }
 829:E:/LiteOS/LiteOS_Lab/drivers/third_party/ST/STM32L4xx_HAL_Driver/Src\stm32l4xx_hal_dma.c ****       /* Clear the half transfer complete flag */
 830:E:/LiteOS/LiteOS_Lab/drivers/third_party/ST/STM32L4xx_HAL_Driver/Src\stm32l4xx_hal_dma.c ****       hdma->DmaBaseAddress->IFCR = (DMA_ISR_HTIF1 << hdma->ChannelIndex);
 1155              		.loc 1 830 0
 1156 0050 7B68     		ldr	r3, [r7, #4]
 1157 0052 5A6C     		ldr	r2, [r3, #68]
 1158 0054 7B68     		ldr	r3, [r7, #4]
 1159 0056 1B6C     		ldr	r3, [r3, #64]
 1160 0058 0421     		movs	r1, #4
 1161 005a 01FA02F2 		lsl	r2, r1, r2
 1162 005e 5A60     		str	r2, [r3, #4]
 831:E:/LiteOS/LiteOS_Lab/drivers/third_party/ST/STM32L4xx_HAL_Driver/Src\stm32l4xx_hal_dma.c **** 
 832:E:/LiteOS/LiteOS_Lab/drivers/third_party/ST/STM32L4xx_HAL_Driver/Src\stm32l4xx_hal_dma.c ****       /* DMA peripheral state is not updated in Half Transfer */
 833:E:/LiteOS/LiteOS_Lab/drivers/third_party/ST/STM32L4xx_HAL_Driver/Src\stm32l4xx_hal_dma.c ****       /* but in Transfer Complete case */
 834:E:/LiteOS/LiteOS_Lab/drivers/third_party/ST/STM32L4xx_HAL_Driver/Src\stm32l4xx_hal_dma.c **** 
 835:E:/LiteOS/LiteOS_Lab/drivers/third_party/ST/STM32L4xx_HAL_Driver/Src\stm32l4xx_hal_dma.c ****      if(hdma->XferHalfCpltCallback != NULL)
 1163              		.loc 1 835 0
 1164 0060 7B68     		ldr	r3, [r7, #4]
 1165 0062 1B6B     		ldr	r3, [r3, #48]
 1166 0064 002B     		cmp	r3, #0
 1167 0066 69D0     		beq	.L54
 836:E:/LiteOS/LiteOS_Lab/drivers/third_party/ST/STM32L4xx_HAL_Driver/Src\stm32l4xx_hal_dma.c ****       {
 837:E:/LiteOS/LiteOS_Lab/drivers/third_party/ST/STM32L4xx_HAL_Driver/Src\stm32l4xx_hal_dma.c ****         /* Half transfer callback */
 838:E:/LiteOS/LiteOS_Lab/drivers/third_party/ST/STM32L4xx_HAL_Driver/Src\stm32l4xx_hal_dma.c ****         hdma->XferHalfCpltCallback(hdma);
ARM GAS  C:\Users\user\AppData\Local\Temp\ccuTs4tt.s 			page 36


 1168              		.loc 1 838 0
 1169 0068 7B68     		ldr	r3, [r7, #4]
 1170 006a 1B6B     		ldr	r3, [r3, #48]
 1171 006c 7868     		ldr	r0, [r7, #4]
 1172 006e 9847     		blx	r3
 1173              	.LVL1:
 835:E:/LiteOS/LiteOS_Lab/drivers/third_party/ST/STM32L4xx_HAL_Driver/Src\stm32l4xx_hal_dma.c ****       {
 1174              		.loc 1 835 0
 1175 0070 64E0     		b	.L54
 1176              	.L51:
 839:E:/LiteOS/LiteOS_Lab/drivers/third_party/ST/STM32L4xx_HAL_Driver/Src\stm32l4xx_hal_dma.c ****       }
 840:E:/LiteOS/LiteOS_Lab/drivers/third_party/ST/STM32L4xx_HAL_Driver/Src\stm32l4xx_hal_dma.c ****   }
 841:E:/LiteOS/LiteOS_Lab/drivers/third_party/ST/STM32L4xx_HAL_Driver/Src\stm32l4xx_hal_dma.c **** 
 842:E:/LiteOS/LiteOS_Lab/drivers/third_party/ST/STM32L4xx_HAL_Driver/Src\stm32l4xx_hal_dma.c ****   /* Transfer Complete Interrupt management ***********************************/
 843:E:/LiteOS/LiteOS_Lab/drivers/third_party/ST/STM32L4xx_HAL_Driver/Src\stm32l4xx_hal_dma.c ****   else if ((RESET != (flag_it & (DMA_FLAG_TC1 << hdma->ChannelIndex))) && (RESET != (source_it & DM
 1177              		.loc 1 843 0
 1178 0072 7B68     		ldr	r3, [r7, #4]
 1179 0074 5B6C     		ldr	r3, [r3, #68]
 1180 0076 0222     		movs	r2, #2
 1181 0078 9A40     		lsls	r2, r2, r3
 1182 007a FB68     		ldr	r3, [r7, #12]
 1183 007c 1340     		ands	r3, r3, r2
 1184 007e 002B     		cmp	r3, #0
 1185 0080 2CD0     		beq	.L55
 1186              		.loc 1 843 0 is_stmt 0 discriminator 1
 1187 0082 BB68     		ldr	r3, [r7, #8]
 1188 0084 03F00203 		and	r3, r3, #2
 1189 0088 002B     		cmp	r3, #0
 1190 008a 27D0     		beq	.L55
 844:E:/LiteOS/LiteOS_Lab/drivers/third_party/ST/STM32L4xx_HAL_Driver/Src\stm32l4xx_hal_dma.c ****   {
 845:E:/LiteOS/LiteOS_Lab/drivers/third_party/ST/STM32L4xx_HAL_Driver/Src\stm32l4xx_hal_dma.c ****     if((hdma->Instance->CCR & DMA_CCR_CIRC) == 0)
 1191              		.loc 1 845 0 is_stmt 1
 1192 008c 7B68     		ldr	r3, [r7, #4]
 1193 008e 1B68     		ldr	r3, [r3]
 1194 0090 1B68     		ldr	r3, [r3]
 1195 0092 03F02003 		and	r3, r3, #32
 1196 0096 002B     		cmp	r3, #0
 1197 0098 0BD1     		bne	.L56
 846:E:/LiteOS/LiteOS_Lab/drivers/third_party/ST/STM32L4xx_HAL_Driver/Src\stm32l4xx_hal_dma.c ****     {
 847:E:/LiteOS/LiteOS_Lab/drivers/third_party/ST/STM32L4xx_HAL_Driver/Src\stm32l4xx_hal_dma.c ****       /* Disable the transfer complete and error interrupt */
 848:E:/LiteOS/LiteOS_Lab/drivers/third_party/ST/STM32L4xx_HAL_Driver/Src\stm32l4xx_hal_dma.c ****       __HAL_DMA_DISABLE_IT(hdma, DMA_IT_TE | DMA_IT_TC);
 1198              		.loc 1 848 0
 1199 009a 7B68     		ldr	r3, [r7, #4]
 1200 009c 1B68     		ldr	r3, [r3]
 1201 009e 1A68     		ldr	r2, [r3]
 1202 00a0 7B68     		ldr	r3, [r7, #4]
 1203 00a2 1B68     		ldr	r3, [r3]
 1204 00a4 22F00A02 		bic	r2, r2, #10
 1205 00a8 1A60     		str	r2, [r3]
 849:E:/LiteOS/LiteOS_Lab/drivers/third_party/ST/STM32L4xx_HAL_Driver/Src\stm32l4xx_hal_dma.c **** 
 850:E:/LiteOS/LiteOS_Lab/drivers/third_party/ST/STM32L4xx_HAL_Driver/Src\stm32l4xx_hal_dma.c ****       /* Change the DMA state */
 851:E:/LiteOS/LiteOS_Lab/drivers/third_party/ST/STM32L4xx_HAL_Driver/Src\stm32l4xx_hal_dma.c ****       hdma->State = HAL_DMA_STATE_READY;
 1206              		.loc 1 851 0
 1207 00aa 7B68     		ldr	r3, [r7, #4]
 1208 00ac 0122     		movs	r2, #1
 1209 00ae 83F82520 		strb	r2, [r3, #37]
 1210              	.L56:
ARM GAS  C:\Users\user\AppData\Local\Temp\ccuTs4tt.s 			page 37


 852:E:/LiteOS/LiteOS_Lab/drivers/third_party/ST/STM32L4xx_HAL_Driver/Src\stm32l4xx_hal_dma.c ****     }
 853:E:/LiteOS/LiteOS_Lab/drivers/third_party/ST/STM32L4xx_HAL_Driver/Src\stm32l4xx_hal_dma.c ****     /* Clear the transfer complete flag */
 854:E:/LiteOS/LiteOS_Lab/drivers/third_party/ST/STM32L4xx_HAL_Driver/Src\stm32l4xx_hal_dma.c ****     hdma->DmaBaseAddress->IFCR = (DMA_ISR_TCIF1 << hdma->ChannelIndex);
 1211              		.loc 1 854 0
 1212 00b2 7B68     		ldr	r3, [r7, #4]
 1213 00b4 5A6C     		ldr	r2, [r3, #68]
 1214 00b6 7B68     		ldr	r3, [r7, #4]
 1215 00b8 1B6C     		ldr	r3, [r3, #64]
 1216 00ba 0221     		movs	r1, #2
 1217 00bc 01FA02F2 		lsl	r2, r1, r2
 1218 00c0 5A60     		str	r2, [r3, #4]
 855:E:/LiteOS/LiteOS_Lab/drivers/third_party/ST/STM32L4xx_HAL_Driver/Src\stm32l4xx_hal_dma.c **** 
 856:E:/LiteOS/LiteOS_Lab/drivers/third_party/ST/STM32L4xx_HAL_Driver/Src\stm32l4xx_hal_dma.c ****     /* Process Unlocked */
 857:E:/LiteOS/LiteOS_Lab/drivers/third_party/ST/STM32L4xx_HAL_Driver/Src\stm32l4xx_hal_dma.c ****     __HAL_UNLOCK(hdma);
 1219              		.loc 1 857 0
 1220 00c2 7B68     		ldr	r3, [r7, #4]
 1221 00c4 0022     		movs	r2, #0
 1222 00c6 83F82420 		strb	r2, [r3, #36]
 858:E:/LiteOS/LiteOS_Lab/drivers/third_party/ST/STM32L4xx_HAL_Driver/Src\stm32l4xx_hal_dma.c **** 
 859:E:/LiteOS/LiteOS_Lab/drivers/third_party/ST/STM32L4xx_HAL_Driver/Src\stm32l4xx_hal_dma.c ****     if(hdma->XferCpltCallback != NULL)
 1223              		.loc 1 859 0
 1224 00ca 7B68     		ldr	r3, [r7, #4]
 1225 00cc DB6A     		ldr	r3, [r3, #44]
 1226 00ce 002B     		cmp	r3, #0
 1227 00d0 34D0     		beq	.L54
 860:E:/LiteOS/LiteOS_Lab/drivers/third_party/ST/STM32L4xx_HAL_Driver/Src\stm32l4xx_hal_dma.c ****     {
 861:E:/LiteOS/LiteOS_Lab/drivers/third_party/ST/STM32L4xx_HAL_Driver/Src\stm32l4xx_hal_dma.c ****       /* Transfer complete callback */
 862:E:/LiteOS/LiteOS_Lab/drivers/third_party/ST/STM32L4xx_HAL_Driver/Src\stm32l4xx_hal_dma.c ****       hdma->XferCpltCallback(hdma);
 1228              		.loc 1 862 0
 1229 00d2 7B68     		ldr	r3, [r7, #4]
 1230 00d4 DB6A     		ldr	r3, [r3, #44]
 1231 00d6 7868     		ldr	r0, [r7, #4]
 1232 00d8 9847     		blx	r3
 1233              	.LVL2:
 859:E:/LiteOS/LiteOS_Lab/drivers/third_party/ST/STM32L4xx_HAL_Driver/Src\stm32l4xx_hal_dma.c ****     {
 1234              		.loc 1 859 0
 1235 00da 2FE0     		b	.L54
 1236              	.L55:
 863:E:/LiteOS/LiteOS_Lab/drivers/third_party/ST/STM32L4xx_HAL_Driver/Src\stm32l4xx_hal_dma.c ****     }
 864:E:/LiteOS/LiteOS_Lab/drivers/third_party/ST/STM32L4xx_HAL_Driver/Src\stm32l4xx_hal_dma.c ****   }
 865:E:/LiteOS/LiteOS_Lab/drivers/third_party/ST/STM32L4xx_HAL_Driver/Src\stm32l4xx_hal_dma.c **** 
 866:E:/LiteOS/LiteOS_Lab/drivers/third_party/ST/STM32L4xx_HAL_Driver/Src\stm32l4xx_hal_dma.c ****   /* Transfer Error Interrupt management **************************************/
 867:E:/LiteOS/LiteOS_Lab/drivers/third_party/ST/STM32L4xx_HAL_Driver/Src\stm32l4xx_hal_dma.c ****   else if (( RESET != (flag_it & (DMA_FLAG_TE1 << hdma->ChannelIndex))) && (RESET != (source_it & D
 1237              		.loc 1 867 0
 1238 00dc 7B68     		ldr	r3, [r7, #4]
 1239 00de 5B6C     		ldr	r3, [r3, #68]
 1240 00e0 0822     		movs	r2, #8
 1241 00e2 9A40     		lsls	r2, r2, r3
 1242 00e4 FB68     		ldr	r3, [r7, #12]
 1243 00e6 1340     		ands	r3, r3, r2
 1244 00e8 002B     		cmp	r3, #0
 1245 00ea 28D0     		beq	.L59
 1246              		.loc 1 867 0 is_stmt 0 discriminator 1
 1247 00ec BB68     		ldr	r3, [r7, #8]
 1248 00ee 03F00803 		and	r3, r3, #8
 1249 00f2 002B     		cmp	r3, #0
 1250 00f4 23D0     		beq	.L59
ARM GAS  C:\Users\user\AppData\Local\Temp\ccuTs4tt.s 			page 38


 868:E:/LiteOS/LiteOS_Lab/drivers/third_party/ST/STM32L4xx_HAL_Driver/Src\stm32l4xx_hal_dma.c ****   {
 869:E:/LiteOS/LiteOS_Lab/drivers/third_party/ST/STM32L4xx_HAL_Driver/Src\stm32l4xx_hal_dma.c ****     /* When a DMA transfer error occurs */
 870:E:/LiteOS/LiteOS_Lab/drivers/third_party/ST/STM32L4xx_HAL_Driver/Src\stm32l4xx_hal_dma.c ****     /* A hardware clear of its EN bits is performed */
 871:E:/LiteOS/LiteOS_Lab/drivers/third_party/ST/STM32L4xx_HAL_Driver/Src\stm32l4xx_hal_dma.c ****     /* Disable ALL DMA IT */
 872:E:/LiteOS/LiteOS_Lab/drivers/third_party/ST/STM32L4xx_HAL_Driver/Src\stm32l4xx_hal_dma.c ****     __HAL_DMA_DISABLE_IT(hdma, (DMA_IT_TC | DMA_IT_HT | DMA_IT_TE));
 1251              		.loc 1 872 0 is_stmt 1
 1252 00f6 7B68     		ldr	r3, [r7, #4]
 1253 00f8 1B68     		ldr	r3, [r3]
 1254 00fa 1A68     		ldr	r2, [r3]
 1255 00fc 7B68     		ldr	r3, [r7, #4]
 1256 00fe 1B68     		ldr	r3, [r3]
 1257 0100 22F00E02 		bic	r2, r2, #14
 1258 0104 1A60     		str	r2, [r3]
 873:E:/LiteOS/LiteOS_Lab/drivers/third_party/ST/STM32L4xx_HAL_Driver/Src\stm32l4xx_hal_dma.c **** 
 874:E:/LiteOS/LiteOS_Lab/drivers/third_party/ST/STM32L4xx_HAL_Driver/Src\stm32l4xx_hal_dma.c ****     /* Clear all flags */
 875:E:/LiteOS/LiteOS_Lab/drivers/third_party/ST/STM32L4xx_HAL_Driver/Src\stm32l4xx_hal_dma.c ****     hdma->DmaBaseAddress->IFCR = (DMA_ISR_GIF1 << hdma->ChannelIndex);
 1259              		.loc 1 875 0
 1260 0106 7B68     		ldr	r3, [r7, #4]
 1261 0108 5A6C     		ldr	r2, [r3, #68]
 1262 010a 7B68     		ldr	r3, [r7, #4]
 1263 010c 1B6C     		ldr	r3, [r3, #64]
 1264 010e 0121     		movs	r1, #1
 1265 0110 01FA02F2 		lsl	r2, r1, r2
 1266 0114 5A60     		str	r2, [r3, #4]
 876:E:/LiteOS/LiteOS_Lab/drivers/third_party/ST/STM32L4xx_HAL_Driver/Src\stm32l4xx_hal_dma.c **** 
 877:E:/LiteOS/LiteOS_Lab/drivers/third_party/ST/STM32L4xx_HAL_Driver/Src\stm32l4xx_hal_dma.c ****     /* Update error code */
 878:E:/LiteOS/LiteOS_Lab/drivers/third_party/ST/STM32L4xx_HAL_Driver/Src\stm32l4xx_hal_dma.c ****     hdma->ErrorCode = HAL_DMA_ERROR_TE;
 1267              		.loc 1 878 0
 1268 0116 7B68     		ldr	r3, [r7, #4]
 1269 0118 0122     		movs	r2, #1
 1270 011a DA63     		str	r2, [r3, #60]
 879:E:/LiteOS/LiteOS_Lab/drivers/third_party/ST/STM32L4xx_HAL_Driver/Src\stm32l4xx_hal_dma.c **** 
 880:E:/LiteOS/LiteOS_Lab/drivers/third_party/ST/STM32L4xx_HAL_Driver/Src\stm32l4xx_hal_dma.c ****     /* Change the DMA state */
 881:E:/LiteOS/LiteOS_Lab/drivers/third_party/ST/STM32L4xx_HAL_Driver/Src\stm32l4xx_hal_dma.c ****     hdma->State = HAL_DMA_STATE_READY;
 1271              		.loc 1 881 0
 1272 011c 7B68     		ldr	r3, [r7, #4]
 1273 011e 0122     		movs	r2, #1
 1274 0120 83F82520 		strb	r2, [r3, #37]
 882:E:/LiteOS/LiteOS_Lab/drivers/third_party/ST/STM32L4xx_HAL_Driver/Src\stm32l4xx_hal_dma.c **** 
 883:E:/LiteOS/LiteOS_Lab/drivers/third_party/ST/STM32L4xx_HAL_Driver/Src\stm32l4xx_hal_dma.c ****     /* Process Unlocked */
 884:E:/LiteOS/LiteOS_Lab/drivers/third_party/ST/STM32L4xx_HAL_Driver/Src\stm32l4xx_hal_dma.c ****     __HAL_UNLOCK(hdma);
 1275              		.loc 1 884 0
 1276 0124 7B68     		ldr	r3, [r7, #4]
 1277 0126 0022     		movs	r2, #0
 1278 0128 83F82420 		strb	r2, [r3, #36]
 885:E:/LiteOS/LiteOS_Lab/drivers/third_party/ST/STM32L4xx_HAL_Driver/Src\stm32l4xx_hal_dma.c **** 
 886:E:/LiteOS/LiteOS_Lab/drivers/third_party/ST/STM32L4xx_HAL_Driver/Src\stm32l4xx_hal_dma.c ****     if (hdma->XferErrorCallback != NULL)
 1279              		.loc 1 886 0
 1280 012c 7B68     		ldr	r3, [r7, #4]
 1281 012e 5B6B     		ldr	r3, [r3, #52]
 1282 0130 002B     		cmp	r3, #0
 1283 0132 04D0     		beq	.L59
 887:E:/LiteOS/LiteOS_Lab/drivers/third_party/ST/STM32L4xx_HAL_Driver/Src\stm32l4xx_hal_dma.c ****     {
 888:E:/LiteOS/LiteOS_Lab/drivers/third_party/ST/STM32L4xx_HAL_Driver/Src\stm32l4xx_hal_dma.c ****       /* Transfer error callback */
 889:E:/LiteOS/LiteOS_Lab/drivers/third_party/ST/STM32L4xx_HAL_Driver/Src\stm32l4xx_hal_dma.c ****       hdma->XferErrorCallback(hdma);
 1284              		.loc 1 889 0
 1285 0134 7B68     		ldr	r3, [r7, #4]
ARM GAS  C:\Users\user\AppData\Local\Temp\ccuTs4tt.s 			page 39


 1286 0136 5B6B     		ldr	r3, [r3, #52]
 1287 0138 7868     		ldr	r0, [r7, #4]
 1288 013a 9847     		blx	r3
 1289              	.LVL3:
 1290              	.L54:
 890:E:/LiteOS/LiteOS_Lab/drivers/third_party/ST/STM32L4xx_HAL_Driver/Src\stm32l4xx_hal_dma.c ****     }
 891:E:/LiteOS/LiteOS_Lab/drivers/third_party/ST/STM32L4xx_HAL_Driver/Src\stm32l4xx_hal_dma.c ****   }
 892:E:/LiteOS/LiteOS_Lab/drivers/third_party/ST/STM32L4xx_HAL_Driver/Src\stm32l4xx_hal_dma.c ****   return;
 1291              		.loc 1 892 0 discriminator 1
 1292 013c 00BF     		nop
 1293              	.L59:
 1294              		.loc 1 892 0 is_stmt 0
 1295 013e 00BF     		nop
 893:E:/LiteOS/LiteOS_Lab/drivers/third_party/ST/STM32L4xx_HAL_Driver/Src\stm32l4xx_hal_dma.c **** }
 1296              		.loc 1 893 0 is_stmt 1
 1297 0140 1037     		adds	r7, r7, #16
 1298              	.LCFI41:
 1299              		.cfi_def_cfa_offset 8
 1300 0142 BD46     		mov	sp, r7
 1301              	.LCFI42:
 1302              		.cfi_def_cfa_register 13
 1303              		@ sp needed
 1304 0144 80BD     		pop	{r7, pc}
 1305              		.cfi_endproc
 1306              	.LFE140:
 1308              		.section	.text.HAL_DMA_RegisterCallback,"ax",%progbits
 1309              		.align	1
 1310              		.global	HAL_DMA_RegisterCallback
 1311              		.syntax unified
 1312              		.thumb
 1313              		.thumb_func
 1314              		.fpu fpv4-sp-d16
 1316              	HAL_DMA_RegisterCallback:
 1317              	.LFB141:
 894:E:/LiteOS/LiteOS_Lab/drivers/third_party/ST/STM32L4xx_HAL_Driver/Src\stm32l4xx_hal_dma.c **** 
 895:E:/LiteOS/LiteOS_Lab/drivers/third_party/ST/STM32L4xx_HAL_Driver/Src\stm32l4xx_hal_dma.c **** /**
 896:E:/LiteOS/LiteOS_Lab/drivers/third_party/ST/STM32L4xx_HAL_Driver/Src\stm32l4xx_hal_dma.c ****   * @brief  Register callbacks
 897:E:/LiteOS/LiteOS_Lab/drivers/third_party/ST/STM32L4xx_HAL_Driver/Src\stm32l4xx_hal_dma.c ****   * @param  hdma:                 pointer to a DMA_HandleTypeDef structure that contains
 898:E:/LiteOS/LiteOS_Lab/drivers/third_party/ST/STM32L4xx_HAL_Driver/Src\stm32l4xx_hal_dma.c ****   *                               the configuration information for the specified DMA Channel.
 899:E:/LiteOS/LiteOS_Lab/drivers/third_party/ST/STM32L4xx_HAL_Driver/Src\stm32l4xx_hal_dma.c ****   * @param  CallbackID:           User Callback identifer
 900:E:/LiteOS/LiteOS_Lab/drivers/third_party/ST/STM32L4xx_HAL_Driver/Src\stm32l4xx_hal_dma.c ****   *                               a HAL_DMA_CallbackIDTypeDef ENUM as parameter.
 901:E:/LiteOS/LiteOS_Lab/drivers/third_party/ST/STM32L4xx_HAL_Driver/Src\stm32l4xx_hal_dma.c ****   * @param  pCallback:            pointer to private callbacsk function which has pointer to
 902:E:/LiteOS/LiteOS_Lab/drivers/third_party/ST/STM32L4xx_HAL_Driver/Src\stm32l4xx_hal_dma.c ****   *                               a DMA_HandleTypeDef structure as parameter.
 903:E:/LiteOS/LiteOS_Lab/drivers/third_party/ST/STM32L4xx_HAL_Driver/Src\stm32l4xx_hal_dma.c ****   * @retval HAL status
 904:E:/LiteOS/LiteOS_Lab/drivers/third_party/ST/STM32L4xx_HAL_Driver/Src\stm32l4xx_hal_dma.c ****   */
 905:E:/LiteOS/LiteOS_Lab/drivers/third_party/ST/STM32L4xx_HAL_Driver/Src\stm32l4xx_hal_dma.c **** HAL_StatusTypeDef HAL_DMA_RegisterCallback(DMA_HandleTypeDef *hdma, HAL_DMA_CallbackIDTypeDef Callb
 906:E:/LiteOS/LiteOS_Lab/drivers/third_party/ST/STM32L4xx_HAL_Driver/Src\stm32l4xx_hal_dma.c **** {
 1318              		.loc 1 906 0
 1319              		.cfi_startproc
 1320              		@ args = 0, pretend = 0, frame = 24
 1321              		@ frame_needed = 1, uses_anonymous_args = 0
 1322              		@ link register save eliminated.
 1323 0000 80B4     		push	{r7}
 1324              	.LCFI43:
 1325              		.cfi_def_cfa_offset 4
 1326              		.cfi_offset 7, -4
 1327 0002 87B0     		sub	sp, sp, #28
ARM GAS  C:\Users\user\AppData\Local\Temp\ccuTs4tt.s 			page 40


 1328              	.LCFI44:
 1329              		.cfi_def_cfa_offset 32
 1330 0004 00AF     		add	r7, sp, #0
 1331              	.LCFI45:
 1332              		.cfi_def_cfa_register 7
 1333 0006 F860     		str	r0, [r7, #12]
 1334 0008 0B46     		mov	r3, r1
 1335 000a 7A60     		str	r2, [r7, #4]
 1336 000c FB72     		strb	r3, [r7, #11]
 907:E:/LiteOS/LiteOS_Lab/drivers/third_party/ST/STM32L4xx_HAL_Driver/Src\stm32l4xx_hal_dma.c ****   HAL_StatusTypeDef status = HAL_OK;
 1337              		.loc 1 907 0
 1338 000e 0023     		movs	r3, #0
 1339 0010 FB75     		strb	r3, [r7, #23]
 908:E:/LiteOS/LiteOS_Lab/drivers/third_party/ST/STM32L4xx_HAL_Driver/Src\stm32l4xx_hal_dma.c **** 
 909:E:/LiteOS/LiteOS_Lab/drivers/third_party/ST/STM32L4xx_HAL_Driver/Src\stm32l4xx_hal_dma.c ****   /* Process locked */
 910:E:/LiteOS/LiteOS_Lab/drivers/third_party/ST/STM32L4xx_HAL_Driver/Src\stm32l4xx_hal_dma.c ****   __HAL_LOCK(hdma);
 1340              		.loc 1 910 0
 1341 0012 FB68     		ldr	r3, [r7, #12]
 1342 0014 93F82430 		ldrb	r3, [r3, #36]	@ zero_extendqisi2
 1343 0018 012B     		cmp	r3, #1
 1344 001a 01D1     		bne	.L61
 1345              		.loc 1 910 0 is_stmt 0 discriminator 1
 1346 001c 0223     		movs	r3, #2
 1347 001e 32E0     		b	.L62
 1348              	.L61:
 1349              		.loc 1 910 0 discriminator 2
 1350 0020 FB68     		ldr	r3, [r7, #12]
 1351 0022 0122     		movs	r2, #1
 1352 0024 83F82420 		strb	r2, [r3, #36]
 911:E:/LiteOS/LiteOS_Lab/drivers/third_party/ST/STM32L4xx_HAL_Driver/Src\stm32l4xx_hal_dma.c **** 
 912:E:/LiteOS/LiteOS_Lab/drivers/third_party/ST/STM32L4xx_HAL_Driver/Src\stm32l4xx_hal_dma.c ****   if(HAL_DMA_STATE_READY == hdma->State)
 1353              		.loc 1 912 0 is_stmt 1 discriminator 2
 1354 0028 FB68     		ldr	r3, [r7, #12]
 1355 002a 93F82530 		ldrb	r3, [r3, #37]
 1356 002e DBB2     		uxtb	r3, r3
 1357 0030 012B     		cmp	r3, #1
 1358 0032 21D1     		bne	.L63
 913:E:/LiteOS/LiteOS_Lab/drivers/third_party/ST/STM32L4xx_HAL_Driver/Src\stm32l4xx_hal_dma.c ****   {
 914:E:/LiteOS/LiteOS_Lab/drivers/third_party/ST/STM32L4xx_HAL_Driver/Src\stm32l4xx_hal_dma.c ****     switch (CallbackID)
 1359              		.loc 1 914 0
 1360 0034 FB7A     		ldrb	r3, [r7, #11]	@ zero_extendqisi2
 1361 0036 032B     		cmp	r3, #3
 1362 0038 1AD8     		bhi	.L64
 1363 003a 01A2     		adr	r2, .L66
 1364 003c 52F823F0 		ldr	pc, [r2, r3, lsl #2]
 1365              		.p2align 2
 1366              	.L66:
 1367 0040 51000000 		.word	.L65+1
 1368 0044 59000000 		.word	.L67+1
 1369 0048 61000000 		.word	.L68+1
 1370 004c 69000000 		.word	.L69+1
 1371              		.p2align 1
 1372              	.L65:
 915:E:/LiteOS/LiteOS_Lab/drivers/third_party/ST/STM32L4xx_HAL_Driver/Src\stm32l4xx_hal_dma.c ****     {
 916:E:/LiteOS/LiteOS_Lab/drivers/third_party/ST/STM32L4xx_HAL_Driver/Src\stm32l4xx_hal_dma.c ****      case  HAL_DMA_XFER_CPLT_CB_ID:
 917:E:/LiteOS/LiteOS_Lab/drivers/third_party/ST/STM32L4xx_HAL_Driver/Src\stm32l4xx_hal_dma.c ****            hdma->XferCpltCallback = pCallback;
 1373              		.loc 1 917 0
ARM GAS  C:\Users\user\AppData\Local\Temp\ccuTs4tt.s 			page 41


 1374 0050 FB68     		ldr	r3, [r7, #12]
 1375 0052 7A68     		ldr	r2, [r7, #4]
 1376 0054 DA62     		str	r2, [r3, #44]
 918:E:/LiteOS/LiteOS_Lab/drivers/third_party/ST/STM32L4xx_HAL_Driver/Src\stm32l4xx_hal_dma.c ****            break;
 1377              		.loc 1 918 0
 1378 0056 11E0     		b	.L71
 1379              	.L67:
 919:E:/LiteOS/LiteOS_Lab/drivers/third_party/ST/STM32L4xx_HAL_Driver/Src\stm32l4xx_hal_dma.c **** 
 920:E:/LiteOS/LiteOS_Lab/drivers/third_party/ST/STM32L4xx_HAL_Driver/Src\stm32l4xx_hal_dma.c ****      case  HAL_DMA_XFER_HALFCPLT_CB_ID:
 921:E:/LiteOS/LiteOS_Lab/drivers/third_party/ST/STM32L4xx_HAL_Driver/Src\stm32l4xx_hal_dma.c ****            hdma->XferHalfCpltCallback = pCallback;
 1380              		.loc 1 921 0
 1381 0058 FB68     		ldr	r3, [r7, #12]
 1382 005a 7A68     		ldr	r2, [r7, #4]
 1383 005c 1A63     		str	r2, [r3, #48]
 922:E:/LiteOS/LiteOS_Lab/drivers/third_party/ST/STM32L4xx_HAL_Driver/Src\stm32l4xx_hal_dma.c ****            break;
 1384              		.loc 1 922 0
 1385 005e 0DE0     		b	.L71
 1386              	.L68:
 923:E:/LiteOS/LiteOS_Lab/drivers/third_party/ST/STM32L4xx_HAL_Driver/Src\stm32l4xx_hal_dma.c **** 
 924:E:/LiteOS/LiteOS_Lab/drivers/third_party/ST/STM32L4xx_HAL_Driver/Src\stm32l4xx_hal_dma.c ****      case  HAL_DMA_XFER_ERROR_CB_ID:
 925:E:/LiteOS/LiteOS_Lab/drivers/third_party/ST/STM32L4xx_HAL_Driver/Src\stm32l4xx_hal_dma.c ****            hdma->XferErrorCallback = pCallback;
 1387              		.loc 1 925 0
 1388 0060 FB68     		ldr	r3, [r7, #12]
 1389 0062 7A68     		ldr	r2, [r7, #4]
 1390 0064 5A63     		str	r2, [r3, #52]
 926:E:/LiteOS/LiteOS_Lab/drivers/third_party/ST/STM32L4xx_HAL_Driver/Src\stm32l4xx_hal_dma.c ****            break;
 1391              		.loc 1 926 0
 1392 0066 09E0     		b	.L71
 1393              	.L69:
 927:E:/LiteOS/LiteOS_Lab/drivers/third_party/ST/STM32L4xx_HAL_Driver/Src\stm32l4xx_hal_dma.c **** 
 928:E:/LiteOS/LiteOS_Lab/drivers/third_party/ST/STM32L4xx_HAL_Driver/Src\stm32l4xx_hal_dma.c ****      case  HAL_DMA_XFER_ABORT_CB_ID:
 929:E:/LiteOS/LiteOS_Lab/drivers/third_party/ST/STM32L4xx_HAL_Driver/Src\stm32l4xx_hal_dma.c ****            hdma->XferAbortCallback = pCallback;
 1394              		.loc 1 929 0
 1395 0068 FB68     		ldr	r3, [r7, #12]
 1396 006a 7A68     		ldr	r2, [r7, #4]
 1397 006c 9A63     		str	r2, [r3, #56]
 930:E:/LiteOS/LiteOS_Lab/drivers/third_party/ST/STM32L4xx_HAL_Driver/Src\stm32l4xx_hal_dma.c ****            break;
 1398              		.loc 1 930 0
 1399 006e 05E0     		b	.L71
 1400              	.L64:
 931:E:/LiteOS/LiteOS_Lab/drivers/third_party/ST/STM32L4xx_HAL_Driver/Src\stm32l4xx_hal_dma.c **** 
 932:E:/LiteOS/LiteOS_Lab/drivers/third_party/ST/STM32L4xx_HAL_Driver/Src\stm32l4xx_hal_dma.c ****      default:
 933:E:/LiteOS/LiteOS_Lab/drivers/third_party/ST/STM32L4xx_HAL_Driver/Src\stm32l4xx_hal_dma.c ****            status = HAL_ERROR;
 1401              		.loc 1 933 0
 1402 0070 0123     		movs	r3, #1
 1403 0072 FB75     		strb	r3, [r7, #23]
 934:E:/LiteOS/LiteOS_Lab/drivers/third_party/ST/STM32L4xx_HAL_Driver/Src\stm32l4xx_hal_dma.c ****            break;
 1404              		.loc 1 934 0
 1405 0074 00BF     		nop
 1406 0076 01E0     		b	.L71
 1407              	.L63:
 935:E:/LiteOS/LiteOS_Lab/drivers/third_party/ST/STM32L4xx_HAL_Driver/Src\stm32l4xx_hal_dma.c ****     }
 936:E:/LiteOS/LiteOS_Lab/drivers/third_party/ST/STM32L4xx_HAL_Driver/Src\stm32l4xx_hal_dma.c ****   }
 937:E:/LiteOS/LiteOS_Lab/drivers/third_party/ST/STM32L4xx_HAL_Driver/Src\stm32l4xx_hal_dma.c ****   else
 938:E:/LiteOS/LiteOS_Lab/drivers/third_party/ST/STM32L4xx_HAL_Driver/Src\stm32l4xx_hal_dma.c ****   {
 939:E:/LiteOS/LiteOS_Lab/drivers/third_party/ST/STM32L4xx_HAL_Driver/Src\stm32l4xx_hal_dma.c ****     status = HAL_ERROR;
 1408              		.loc 1 939 0
ARM GAS  C:\Users\user\AppData\Local\Temp\ccuTs4tt.s 			page 42


 1409 0078 0123     		movs	r3, #1
 1410 007a FB75     		strb	r3, [r7, #23]
 1411              	.L71:
 940:E:/LiteOS/LiteOS_Lab/drivers/third_party/ST/STM32L4xx_HAL_Driver/Src\stm32l4xx_hal_dma.c ****   }
 941:E:/LiteOS/LiteOS_Lab/drivers/third_party/ST/STM32L4xx_HAL_Driver/Src\stm32l4xx_hal_dma.c **** 
 942:E:/LiteOS/LiteOS_Lab/drivers/third_party/ST/STM32L4xx_HAL_Driver/Src\stm32l4xx_hal_dma.c ****   /* Release Lock */
 943:E:/LiteOS/LiteOS_Lab/drivers/third_party/ST/STM32L4xx_HAL_Driver/Src\stm32l4xx_hal_dma.c ****   __HAL_UNLOCK(hdma);
 1412              		.loc 1 943 0
 1413 007c FB68     		ldr	r3, [r7, #12]
 1414 007e 0022     		movs	r2, #0
 1415 0080 83F82420 		strb	r2, [r3, #36]
 944:E:/LiteOS/LiteOS_Lab/drivers/third_party/ST/STM32L4xx_HAL_Driver/Src\stm32l4xx_hal_dma.c **** 
 945:E:/LiteOS/LiteOS_Lab/drivers/third_party/ST/STM32L4xx_HAL_Driver/Src\stm32l4xx_hal_dma.c ****   return status;
 1416              		.loc 1 945 0
 1417 0084 FB7D     		ldrb	r3, [r7, #23]	@ zero_extendqisi2
 1418              	.L62:
 946:E:/LiteOS/LiteOS_Lab/drivers/third_party/ST/STM32L4xx_HAL_Driver/Src\stm32l4xx_hal_dma.c **** }
 1419              		.loc 1 946 0
 1420 0086 1846     		mov	r0, r3
 1421 0088 1C37     		adds	r7, r7, #28
 1422              	.LCFI46:
 1423              		.cfi_def_cfa_offset 4
 1424 008a BD46     		mov	sp, r7
 1425              	.LCFI47:
 1426              		.cfi_def_cfa_register 13
 1427              		@ sp needed
 1428 008c 5DF8047B 		ldr	r7, [sp], #4
 1429              	.LCFI48:
 1430              		.cfi_restore 7
 1431              		.cfi_def_cfa_offset 0
 1432 0090 7047     		bx	lr
 1433              		.cfi_endproc
 1434              	.LFE141:
 1436 0092 00BF     		.section	.text.HAL_DMA_UnRegisterCallback,"ax",%progbits
 1437              		.align	1
 1438              		.global	HAL_DMA_UnRegisterCallback
 1439              		.syntax unified
 1440              		.thumb
 1441              		.thumb_func
 1442              		.fpu fpv4-sp-d16
 1444              	HAL_DMA_UnRegisterCallback:
 1445              	.LFB142:
 947:E:/LiteOS/LiteOS_Lab/drivers/third_party/ST/STM32L4xx_HAL_Driver/Src\stm32l4xx_hal_dma.c **** 
 948:E:/LiteOS/LiteOS_Lab/drivers/third_party/ST/STM32L4xx_HAL_Driver/Src\stm32l4xx_hal_dma.c **** /**
 949:E:/LiteOS/LiteOS_Lab/drivers/third_party/ST/STM32L4xx_HAL_Driver/Src\stm32l4xx_hal_dma.c ****   * @brief  UnRegister callbacks
 950:E:/LiteOS/LiteOS_Lab/drivers/third_party/ST/STM32L4xx_HAL_Driver/Src\stm32l4xx_hal_dma.c ****   * @param  hdma:                 pointer to a DMA_HandleTypeDef structure that contains
 951:E:/LiteOS/LiteOS_Lab/drivers/third_party/ST/STM32L4xx_HAL_Driver/Src\stm32l4xx_hal_dma.c ****   *                               the configuration information for the specified DMA Channel.
 952:E:/LiteOS/LiteOS_Lab/drivers/third_party/ST/STM32L4xx_HAL_Driver/Src\stm32l4xx_hal_dma.c ****   * @param  CallbackID:           User Callback identifer
 953:E:/LiteOS/LiteOS_Lab/drivers/third_party/ST/STM32L4xx_HAL_Driver/Src\stm32l4xx_hal_dma.c ****   *                               a HAL_DMA_CallbackIDTypeDef ENUM as parameter.
 954:E:/LiteOS/LiteOS_Lab/drivers/third_party/ST/STM32L4xx_HAL_Driver/Src\stm32l4xx_hal_dma.c ****   * @retval HAL status
 955:E:/LiteOS/LiteOS_Lab/drivers/third_party/ST/STM32L4xx_HAL_Driver/Src\stm32l4xx_hal_dma.c ****   */
 956:E:/LiteOS/LiteOS_Lab/drivers/third_party/ST/STM32L4xx_HAL_Driver/Src\stm32l4xx_hal_dma.c **** HAL_StatusTypeDef HAL_DMA_UnRegisterCallback(DMA_HandleTypeDef *hdma, HAL_DMA_CallbackIDTypeDef Cal
 957:E:/LiteOS/LiteOS_Lab/drivers/third_party/ST/STM32L4xx_HAL_Driver/Src\stm32l4xx_hal_dma.c **** {
 1446              		.loc 1 957 0
 1447              		.cfi_startproc
 1448              		@ args = 0, pretend = 0, frame = 16
 1449              		@ frame_needed = 1, uses_anonymous_args = 0
ARM GAS  C:\Users\user\AppData\Local\Temp\ccuTs4tt.s 			page 43


 1450              		@ link register save eliminated.
 1451 0000 80B4     		push	{r7}
 1452              	.LCFI49:
 1453              		.cfi_def_cfa_offset 4
 1454              		.cfi_offset 7, -4
 1455 0002 85B0     		sub	sp, sp, #20
 1456              	.LCFI50:
 1457              		.cfi_def_cfa_offset 24
 1458 0004 00AF     		add	r7, sp, #0
 1459              	.LCFI51:
 1460              		.cfi_def_cfa_register 7
 1461 0006 7860     		str	r0, [r7, #4]
 1462 0008 0B46     		mov	r3, r1
 1463 000a FB70     		strb	r3, [r7, #3]
 958:E:/LiteOS/LiteOS_Lab/drivers/third_party/ST/STM32L4xx_HAL_Driver/Src\stm32l4xx_hal_dma.c ****   HAL_StatusTypeDef status = HAL_OK;
 1464              		.loc 1 958 0
 1465 000c 0023     		movs	r3, #0
 1466 000e FB73     		strb	r3, [r7, #15]
 959:E:/LiteOS/LiteOS_Lab/drivers/third_party/ST/STM32L4xx_HAL_Driver/Src\stm32l4xx_hal_dma.c **** 
 960:E:/LiteOS/LiteOS_Lab/drivers/third_party/ST/STM32L4xx_HAL_Driver/Src\stm32l4xx_hal_dma.c ****     /* Process locked */
 961:E:/LiteOS/LiteOS_Lab/drivers/third_party/ST/STM32L4xx_HAL_Driver/Src\stm32l4xx_hal_dma.c ****   __HAL_LOCK(hdma);
 1467              		.loc 1 961 0
 1468 0010 7B68     		ldr	r3, [r7, #4]
 1469 0012 93F82430 		ldrb	r3, [r3, #36]	@ zero_extendqisi2
 1470 0016 012B     		cmp	r3, #1
 1471 0018 01D1     		bne	.L73
 1472              		.loc 1 961 0 is_stmt 0 discriminator 1
 1473 001a 0223     		movs	r3, #2
 1474 001c 42E0     		b	.L74
 1475              	.L73:
 1476              		.loc 1 961 0 discriminator 2
 1477 001e 7B68     		ldr	r3, [r7, #4]
 1478 0020 0122     		movs	r2, #1
 1479 0022 83F82420 		strb	r2, [r3, #36]
 962:E:/LiteOS/LiteOS_Lab/drivers/third_party/ST/STM32L4xx_HAL_Driver/Src\stm32l4xx_hal_dma.c **** 
 963:E:/LiteOS/LiteOS_Lab/drivers/third_party/ST/STM32L4xx_HAL_Driver/Src\stm32l4xx_hal_dma.c ****   if(HAL_DMA_STATE_READY == hdma->State)
 1480              		.loc 1 963 0 is_stmt 1 discriminator 2
 1481 0026 7B68     		ldr	r3, [r7, #4]
 1482 0028 93F82530 		ldrb	r3, [r3, #37]
 1483 002c DBB2     		uxtb	r3, r3
 1484 002e 012B     		cmp	r3, #1
 1485 0030 31D1     		bne	.L75
 964:E:/LiteOS/LiteOS_Lab/drivers/third_party/ST/STM32L4xx_HAL_Driver/Src\stm32l4xx_hal_dma.c ****   {
 965:E:/LiteOS/LiteOS_Lab/drivers/third_party/ST/STM32L4xx_HAL_Driver/Src\stm32l4xx_hal_dma.c ****     switch (CallbackID)
 1486              		.loc 1 965 0
 1487 0032 FB78     		ldrb	r3, [r7, #3]	@ zero_extendqisi2
 1488 0034 042B     		cmp	r3, #4
 1489 0036 2AD8     		bhi	.L76
 1490 0038 01A2     		adr	r2, .L78
 1491 003a 52F823F0 		ldr	pc, [r2, r3, lsl #2]
 1492 003e 00BF     		.p2align 2
 1493              	.L78:
 1494 0040 55000000 		.word	.L77+1
 1495 0044 5D000000 		.word	.L79+1
 1496 0048 65000000 		.word	.L80+1
 1497 004c 6D000000 		.word	.L81+1
 1498 0050 75000000 		.word	.L82+1
ARM GAS  C:\Users\user\AppData\Local\Temp\ccuTs4tt.s 			page 44


 1499              		.p2align 1
 1500              	.L77:
 966:E:/LiteOS/LiteOS_Lab/drivers/third_party/ST/STM32L4xx_HAL_Driver/Src\stm32l4xx_hal_dma.c ****     {
 967:E:/LiteOS/LiteOS_Lab/drivers/third_party/ST/STM32L4xx_HAL_Driver/Src\stm32l4xx_hal_dma.c ****      case  HAL_DMA_XFER_CPLT_CB_ID:
 968:E:/LiteOS/LiteOS_Lab/drivers/third_party/ST/STM32L4xx_HAL_Driver/Src\stm32l4xx_hal_dma.c ****            hdma->XferCpltCallback = NULL;
 1501              		.loc 1 968 0
 1502 0054 7B68     		ldr	r3, [r7, #4]
 1503 0056 0022     		movs	r2, #0
 1504 0058 DA62     		str	r2, [r3, #44]
 969:E:/LiteOS/LiteOS_Lab/drivers/third_party/ST/STM32L4xx_HAL_Driver/Src\stm32l4xx_hal_dma.c ****            break;
 1505              		.loc 1 969 0
 1506 005a 1EE0     		b	.L84
 1507              	.L79:
 970:E:/LiteOS/LiteOS_Lab/drivers/third_party/ST/STM32L4xx_HAL_Driver/Src\stm32l4xx_hal_dma.c **** 
 971:E:/LiteOS/LiteOS_Lab/drivers/third_party/ST/STM32L4xx_HAL_Driver/Src\stm32l4xx_hal_dma.c ****      case  HAL_DMA_XFER_HALFCPLT_CB_ID:
 972:E:/LiteOS/LiteOS_Lab/drivers/third_party/ST/STM32L4xx_HAL_Driver/Src\stm32l4xx_hal_dma.c ****            hdma->XferHalfCpltCallback = NULL;
 1508              		.loc 1 972 0
 1509 005c 7B68     		ldr	r3, [r7, #4]
 1510 005e 0022     		movs	r2, #0
 1511 0060 1A63     		str	r2, [r3, #48]
 973:E:/LiteOS/LiteOS_Lab/drivers/third_party/ST/STM32L4xx_HAL_Driver/Src\stm32l4xx_hal_dma.c ****            break;
 1512              		.loc 1 973 0
 1513 0062 1AE0     		b	.L84
 1514              	.L80:
 974:E:/LiteOS/LiteOS_Lab/drivers/third_party/ST/STM32L4xx_HAL_Driver/Src\stm32l4xx_hal_dma.c **** 
 975:E:/LiteOS/LiteOS_Lab/drivers/third_party/ST/STM32L4xx_HAL_Driver/Src\stm32l4xx_hal_dma.c ****      case  HAL_DMA_XFER_ERROR_CB_ID:
 976:E:/LiteOS/LiteOS_Lab/drivers/third_party/ST/STM32L4xx_HAL_Driver/Src\stm32l4xx_hal_dma.c ****            hdma->XferErrorCallback = NULL;
 1515              		.loc 1 976 0
 1516 0064 7B68     		ldr	r3, [r7, #4]
 1517 0066 0022     		movs	r2, #0
 1518 0068 5A63     		str	r2, [r3, #52]
 977:E:/LiteOS/LiteOS_Lab/drivers/third_party/ST/STM32L4xx_HAL_Driver/Src\stm32l4xx_hal_dma.c ****            break;
 1519              		.loc 1 977 0
 1520 006a 16E0     		b	.L84
 1521              	.L81:
 978:E:/LiteOS/LiteOS_Lab/drivers/third_party/ST/STM32L4xx_HAL_Driver/Src\stm32l4xx_hal_dma.c **** 
 979:E:/LiteOS/LiteOS_Lab/drivers/third_party/ST/STM32L4xx_HAL_Driver/Src\stm32l4xx_hal_dma.c ****      case  HAL_DMA_XFER_ABORT_CB_ID:
 980:E:/LiteOS/LiteOS_Lab/drivers/third_party/ST/STM32L4xx_HAL_Driver/Src\stm32l4xx_hal_dma.c ****            hdma->XferAbortCallback = NULL;
 1522              		.loc 1 980 0
 1523 006c 7B68     		ldr	r3, [r7, #4]
 1524 006e 0022     		movs	r2, #0
 1525 0070 9A63     		str	r2, [r3, #56]
 981:E:/LiteOS/LiteOS_Lab/drivers/third_party/ST/STM32L4xx_HAL_Driver/Src\stm32l4xx_hal_dma.c ****            break;
 1526              		.loc 1 981 0
 1527 0072 12E0     		b	.L84
 1528              	.L82:
 982:E:/LiteOS/LiteOS_Lab/drivers/third_party/ST/STM32L4xx_HAL_Driver/Src\stm32l4xx_hal_dma.c **** 
 983:E:/LiteOS/LiteOS_Lab/drivers/third_party/ST/STM32L4xx_HAL_Driver/Src\stm32l4xx_hal_dma.c ****     case   HAL_DMA_XFER_ALL_CB_ID:
 984:E:/LiteOS/LiteOS_Lab/drivers/third_party/ST/STM32L4xx_HAL_Driver/Src\stm32l4xx_hal_dma.c ****            hdma->XferCpltCallback = NULL;
 1529              		.loc 1 984 0
 1530 0074 7B68     		ldr	r3, [r7, #4]
 1531 0076 0022     		movs	r2, #0
 1532 0078 DA62     		str	r2, [r3, #44]
 985:E:/LiteOS/LiteOS_Lab/drivers/third_party/ST/STM32L4xx_HAL_Driver/Src\stm32l4xx_hal_dma.c ****            hdma->XferHalfCpltCallback = NULL;
 1533              		.loc 1 985 0
 1534 007a 7B68     		ldr	r3, [r7, #4]
 1535 007c 0022     		movs	r2, #0
ARM GAS  C:\Users\user\AppData\Local\Temp\ccuTs4tt.s 			page 45


 1536 007e 1A63     		str	r2, [r3, #48]
 986:E:/LiteOS/LiteOS_Lab/drivers/third_party/ST/STM32L4xx_HAL_Driver/Src\stm32l4xx_hal_dma.c ****            hdma->XferErrorCallback = NULL;
 1537              		.loc 1 986 0
 1538 0080 7B68     		ldr	r3, [r7, #4]
 1539 0082 0022     		movs	r2, #0
 1540 0084 5A63     		str	r2, [r3, #52]
 987:E:/LiteOS/LiteOS_Lab/drivers/third_party/ST/STM32L4xx_HAL_Driver/Src\stm32l4xx_hal_dma.c ****            hdma->XferAbortCallback = NULL;
 1541              		.loc 1 987 0
 1542 0086 7B68     		ldr	r3, [r7, #4]
 1543 0088 0022     		movs	r2, #0
 1544 008a 9A63     		str	r2, [r3, #56]
 988:E:/LiteOS/LiteOS_Lab/drivers/third_party/ST/STM32L4xx_HAL_Driver/Src\stm32l4xx_hal_dma.c ****            break;
 1545              		.loc 1 988 0
 1546 008c 05E0     		b	.L84
 1547              	.L76:
 989:E:/LiteOS/LiteOS_Lab/drivers/third_party/ST/STM32L4xx_HAL_Driver/Src\stm32l4xx_hal_dma.c **** 
 990:E:/LiteOS/LiteOS_Lab/drivers/third_party/ST/STM32L4xx_HAL_Driver/Src\stm32l4xx_hal_dma.c ****     default:
 991:E:/LiteOS/LiteOS_Lab/drivers/third_party/ST/STM32L4xx_HAL_Driver/Src\stm32l4xx_hal_dma.c ****            status = HAL_ERROR;
 1548              		.loc 1 991 0
 1549 008e 0123     		movs	r3, #1
 1550 0090 FB73     		strb	r3, [r7, #15]
 992:E:/LiteOS/LiteOS_Lab/drivers/third_party/ST/STM32L4xx_HAL_Driver/Src\stm32l4xx_hal_dma.c ****            break;
 1551              		.loc 1 992 0
 1552 0092 00BF     		nop
 1553 0094 01E0     		b	.L84
 1554              	.L75:
 993:E:/LiteOS/LiteOS_Lab/drivers/third_party/ST/STM32L4xx_HAL_Driver/Src\stm32l4xx_hal_dma.c ****     }
 994:E:/LiteOS/LiteOS_Lab/drivers/third_party/ST/STM32L4xx_HAL_Driver/Src\stm32l4xx_hal_dma.c ****   }
 995:E:/LiteOS/LiteOS_Lab/drivers/third_party/ST/STM32L4xx_HAL_Driver/Src\stm32l4xx_hal_dma.c ****   else
 996:E:/LiteOS/LiteOS_Lab/drivers/third_party/ST/STM32L4xx_HAL_Driver/Src\stm32l4xx_hal_dma.c ****   {
 997:E:/LiteOS/LiteOS_Lab/drivers/third_party/ST/STM32L4xx_HAL_Driver/Src\stm32l4xx_hal_dma.c ****     status = HAL_ERROR;
 1555              		.loc 1 997 0
 1556 0096 0123     		movs	r3, #1
 1557 0098 FB73     		strb	r3, [r7, #15]
 1558              	.L84:
 998:E:/LiteOS/LiteOS_Lab/drivers/third_party/ST/STM32L4xx_HAL_Driver/Src\stm32l4xx_hal_dma.c ****   }
 999:E:/LiteOS/LiteOS_Lab/drivers/third_party/ST/STM32L4xx_HAL_Driver/Src\stm32l4xx_hal_dma.c **** 
1000:E:/LiteOS/LiteOS_Lab/drivers/third_party/ST/STM32L4xx_HAL_Driver/Src\stm32l4xx_hal_dma.c ****   /* Release Lock */
1001:E:/LiteOS/LiteOS_Lab/drivers/third_party/ST/STM32L4xx_HAL_Driver/Src\stm32l4xx_hal_dma.c ****   __HAL_UNLOCK(hdma);
 1559              		.loc 1 1001 0
 1560 009a 7B68     		ldr	r3, [r7, #4]
 1561 009c 0022     		movs	r2, #0
 1562 009e 83F82420 		strb	r2, [r3, #36]
1002:E:/LiteOS/LiteOS_Lab/drivers/third_party/ST/STM32L4xx_HAL_Driver/Src\stm32l4xx_hal_dma.c **** 
1003:E:/LiteOS/LiteOS_Lab/drivers/third_party/ST/STM32L4xx_HAL_Driver/Src\stm32l4xx_hal_dma.c ****   return status;
 1563              		.loc 1 1003 0
 1564 00a2 FB7B     		ldrb	r3, [r7, #15]	@ zero_extendqisi2
 1565              	.L74:
1004:E:/LiteOS/LiteOS_Lab/drivers/third_party/ST/STM32L4xx_HAL_Driver/Src\stm32l4xx_hal_dma.c **** }
 1566              		.loc 1 1004 0
 1567 00a4 1846     		mov	r0, r3
 1568 00a6 1437     		adds	r7, r7, #20
 1569              	.LCFI52:
 1570              		.cfi_def_cfa_offset 4
 1571 00a8 BD46     		mov	sp, r7
 1572              	.LCFI53:
 1573              		.cfi_def_cfa_register 13
ARM GAS  C:\Users\user\AppData\Local\Temp\ccuTs4tt.s 			page 46


 1574              		@ sp needed
 1575 00aa 5DF8047B 		ldr	r7, [sp], #4
 1576              	.LCFI54:
 1577              		.cfi_restore 7
 1578              		.cfi_def_cfa_offset 0
 1579 00ae 7047     		bx	lr
 1580              		.cfi_endproc
 1581              	.LFE142:
 1583              		.section	.text.HAL_DMA_GetState,"ax",%progbits
 1584              		.align	1
 1585              		.global	HAL_DMA_GetState
 1586              		.syntax unified
 1587              		.thumb
 1588              		.thumb_func
 1589              		.fpu fpv4-sp-d16
 1591              	HAL_DMA_GetState:
 1592              	.LFB143:
1005:E:/LiteOS/LiteOS_Lab/drivers/third_party/ST/STM32L4xx_HAL_Driver/Src\stm32l4xx_hal_dma.c **** 
1006:E:/LiteOS/LiteOS_Lab/drivers/third_party/ST/STM32L4xx_HAL_Driver/Src\stm32l4xx_hal_dma.c **** /**
1007:E:/LiteOS/LiteOS_Lab/drivers/third_party/ST/STM32L4xx_HAL_Driver/Src\stm32l4xx_hal_dma.c ****   * @}
1008:E:/LiteOS/LiteOS_Lab/drivers/third_party/ST/STM32L4xx_HAL_Driver/Src\stm32l4xx_hal_dma.c ****   */
1009:E:/LiteOS/LiteOS_Lab/drivers/third_party/ST/STM32L4xx_HAL_Driver/Src\stm32l4xx_hal_dma.c **** 
1010:E:/LiteOS/LiteOS_Lab/drivers/third_party/ST/STM32L4xx_HAL_Driver/Src\stm32l4xx_hal_dma.c **** 
1011:E:/LiteOS/LiteOS_Lab/drivers/third_party/ST/STM32L4xx_HAL_Driver/Src\stm32l4xx_hal_dma.c **** 
1012:E:/LiteOS/LiteOS_Lab/drivers/third_party/ST/STM32L4xx_HAL_Driver/Src\stm32l4xx_hal_dma.c **** /** @defgroup DMA_Exported_Functions_Group3 Peripheral State and Errors functions
1013:E:/LiteOS/LiteOS_Lab/drivers/third_party/ST/STM32L4xx_HAL_Driver/Src\stm32l4xx_hal_dma.c ****  *  @brief    Peripheral State and Errors functions
1014:E:/LiteOS/LiteOS_Lab/drivers/third_party/ST/STM32L4xx_HAL_Driver/Src\stm32l4xx_hal_dma.c ****  *
1015:E:/LiteOS/LiteOS_Lab/drivers/third_party/ST/STM32L4xx_HAL_Driver/Src\stm32l4xx_hal_dma.c **** @verbatim
1016:E:/LiteOS/LiteOS_Lab/drivers/third_party/ST/STM32L4xx_HAL_Driver/Src\stm32l4xx_hal_dma.c ****  ===============================================================================
1017:E:/LiteOS/LiteOS_Lab/drivers/third_party/ST/STM32L4xx_HAL_Driver/Src\stm32l4xx_hal_dma.c ****             ##### Peripheral State and Errors functions #####
1018:E:/LiteOS/LiteOS_Lab/drivers/third_party/ST/STM32L4xx_HAL_Driver/Src\stm32l4xx_hal_dma.c ****  ===============================================================================
1019:E:/LiteOS/LiteOS_Lab/drivers/third_party/ST/STM32L4xx_HAL_Driver/Src\stm32l4xx_hal_dma.c ****     [..]
1020:E:/LiteOS/LiteOS_Lab/drivers/third_party/ST/STM32L4xx_HAL_Driver/Src\stm32l4xx_hal_dma.c ****     This subsection provides functions allowing to
1021:E:/LiteOS/LiteOS_Lab/drivers/third_party/ST/STM32L4xx_HAL_Driver/Src\stm32l4xx_hal_dma.c ****       (+) Check the DMA state
1022:E:/LiteOS/LiteOS_Lab/drivers/third_party/ST/STM32L4xx_HAL_Driver/Src\stm32l4xx_hal_dma.c ****       (+) Get error code
1023:E:/LiteOS/LiteOS_Lab/drivers/third_party/ST/STM32L4xx_HAL_Driver/Src\stm32l4xx_hal_dma.c **** 
1024:E:/LiteOS/LiteOS_Lab/drivers/third_party/ST/STM32L4xx_HAL_Driver/Src\stm32l4xx_hal_dma.c **** @endverbatim
1025:E:/LiteOS/LiteOS_Lab/drivers/third_party/ST/STM32L4xx_HAL_Driver/Src\stm32l4xx_hal_dma.c ****   * @{
1026:E:/LiteOS/LiteOS_Lab/drivers/third_party/ST/STM32L4xx_HAL_Driver/Src\stm32l4xx_hal_dma.c ****   */
1027:E:/LiteOS/LiteOS_Lab/drivers/third_party/ST/STM32L4xx_HAL_Driver/Src\stm32l4xx_hal_dma.c **** 
1028:E:/LiteOS/LiteOS_Lab/drivers/third_party/ST/STM32L4xx_HAL_Driver/Src\stm32l4xx_hal_dma.c **** /**
1029:E:/LiteOS/LiteOS_Lab/drivers/third_party/ST/STM32L4xx_HAL_Driver/Src\stm32l4xx_hal_dma.c ****   * @brief  Return the DMA hande state.
1030:E:/LiteOS/LiteOS_Lab/drivers/third_party/ST/STM32L4xx_HAL_Driver/Src\stm32l4xx_hal_dma.c ****   * @param  hdma: pointer to a DMA_HandleTypeDef structure that contains
1031:E:/LiteOS/LiteOS_Lab/drivers/third_party/ST/STM32L4xx_HAL_Driver/Src\stm32l4xx_hal_dma.c ****   *               the configuration information for the specified DMA Channel.
1032:E:/LiteOS/LiteOS_Lab/drivers/third_party/ST/STM32L4xx_HAL_Driver/Src\stm32l4xx_hal_dma.c ****   * @retval HAL state
1033:E:/LiteOS/LiteOS_Lab/drivers/third_party/ST/STM32L4xx_HAL_Driver/Src\stm32l4xx_hal_dma.c ****   */
1034:E:/LiteOS/LiteOS_Lab/drivers/third_party/ST/STM32L4xx_HAL_Driver/Src\stm32l4xx_hal_dma.c **** HAL_DMA_StateTypeDef HAL_DMA_GetState(DMA_HandleTypeDef *hdma)
1035:E:/LiteOS/LiteOS_Lab/drivers/third_party/ST/STM32L4xx_HAL_Driver/Src\stm32l4xx_hal_dma.c **** {
 1593              		.loc 1 1035 0
 1594              		.cfi_startproc
 1595              		@ args = 0, pretend = 0, frame = 8
 1596              		@ frame_needed = 1, uses_anonymous_args = 0
 1597              		@ link register save eliminated.
 1598 0000 80B4     		push	{r7}
 1599              	.LCFI55:
 1600              		.cfi_def_cfa_offset 4
 1601              		.cfi_offset 7, -4
ARM GAS  C:\Users\user\AppData\Local\Temp\ccuTs4tt.s 			page 47


 1602 0002 83B0     		sub	sp, sp, #12
 1603              	.LCFI56:
 1604              		.cfi_def_cfa_offset 16
 1605 0004 00AF     		add	r7, sp, #0
 1606              	.LCFI57:
 1607              		.cfi_def_cfa_register 7
 1608 0006 7860     		str	r0, [r7, #4]
1036:E:/LiteOS/LiteOS_Lab/drivers/third_party/ST/STM32L4xx_HAL_Driver/Src\stm32l4xx_hal_dma.c ****   /* Return DMA handle state */
1037:E:/LiteOS/LiteOS_Lab/drivers/third_party/ST/STM32L4xx_HAL_Driver/Src\stm32l4xx_hal_dma.c ****   return hdma->State;
 1609              		.loc 1 1037 0
 1610 0008 7B68     		ldr	r3, [r7, #4]
 1611 000a 93F82530 		ldrb	r3, [r3, #37]
 1612 000e DBB2     		uxtb	r3, r3
1038:E:/LiteOS/LiteOS_Lab/drivers/third_party/ST/STM32L4xx_HAL_Driver/Src\stm32l4xx_hal_dma.c **** }
 1613              		.loc 1 1038 0
 1614 0010 1846     		mov	r0, r3
 1615 0012 0C37     		adds	r7, r7, #12
 1616              	.LCFI58:
 1617              		.cfi_def_cfa_offset 4
 1618 0014 BD46     		mov	sp, r7
 1619              	.LCFI59:
 1620              		.cfi_def_cfa_register 13
 1621              		@ sp needed
 1622 0016 5DF8047B 		ldr	r7, [sp], #4
 1623              	.LCFI60:
 1624              		.cfi_restore 7
 1625              		.cfi_def_cfa_offset 0
 1626 001a 7047     		bx	lr
 1627              		.cfi_endproc
 1628              	.LFE143:
 1630              		.section	.text.HAL_DMA_GetError,"ax",%progbits
 1631              		.align	1
 1632              		.global	HAL_DMA_GetError
 1633              		.syntax unified
 1634              		.thumb
 1635              		.thumb_func
 1636              		.fpu fpv4-sp-d16
 1638              	HAL_DMA_GetError:
 1639              	.LFB144:
1039:E:/LiteOS/LiteOS_Lab/drivers/third_party/ST/STM32L4xx_HAL_Driver/Src\stm32l4xx_hal_dma.c **** 
1040:E:/LiteOS/LiteOS_Lab/drivers/third_party/ST/STM32L4xx_HAL_Driver/Src\stm32l4xx_hal_dma.c **** /**
1041:E:/LiteOS/LiteOS_Lab/drivers/third_party/ST/STM32L4xx_HAL_Driver/Src\stm32l4xx_hal_dma.c ****   * @brief  Return the DMA error code.
1042:E:/LiteOS/LiteOS_Lab/drivers/third_party/ST/STM32L4xx_HAL_Driver/Src\stm32l4xx_hal_dma.c ****   * @param  hdma : pointer to a DMA_HandleTypeDef structure that contains
1043:E:/LiteOS/LiteOS_Lab/drivers/third_party/ST/STM32L4xx_HAL_Driver/Src\stm32l4xx_hal_dma.c ****   *              the configuration information for the specified DMA Channel.
1044:E:/LiteOS/LiteOS_Lab/drivers/third_party/ST/STM32L4xx_HAL_Driver/Src\stm32l4xx_hal_dma.c ****   * @retval DMA Error Code
1045:E:/LiteOS/LiteOS_Lab/drivers/third_party/ST/STM32L4xx_HAL_Driver/Src\stm32l4xx_hal_dma.c ****   */
1046:E:/LiteOS/LiteOS_Lab/drivers/third_party/ST/STM32L4xx_HAL_Driver/Src\stm32l4xx_hal_dma.c **** uint32_t HAL_DMA_GetError(DMA_HandleTypeDef *hdma)
1047:E:/LiteOS/LiteOS_Lab/drivers/third_party/ST/STM32L4xx_HAL_Driver/Src\stm32l4xx_hal_dma.c **** {
 1640              		.loc 1 1047 0
 1641              		.cfi_startproc
 1642              		@ args = 0, pretend = 0, frame = 8
 1643              		@ frame_needed = 1, uses_anonymous_args = 0
 1644              		@ link register save eliminated.
 1645 0000 80B4     		push	{r7}
 1646              	.LCFI61:
 1647              		.cfi_def_cfa_offset 4
 1648              		.cfi_offset 7, -4
ARM GAS  C:\Users\user\AppData\Local\Temp\ccuTs4tt.s 			page 48


 1649 0002 83B0     		sub	sp, sp, #12
 1650              	.LCFI62:
 1651              		.cfi_def_cfa_offset 16
 1652 0004 00AF     		add	r7, sp, #0
 1653              	.LCFI63:
 1654              		.cfi_def_cfa_register 7
 1655 0006 7860     		str	r0, [r7, #4]
1048:E:/LiteOS/LiteOS_Lab/drivers/third_party/ST/STM32L4xx_HAL_Driver/Src\stm32l4xx_hal_dma.c ****   return hdma->ErrorCode;
 1656              		.loc 1 1048 0
 1657 0008 7B68     		ldr	r3, [r7, #4]
 1658 000a DB6B     		ldr	r3, [r3, #60]
1049:E:/LiteOS/LiteOS_Lab/drivers/third_party/ST/STM32L4xx_HAL_Driver/Src\stm32l4xx_hal_dma.c **** }
 1659              		.loc 1 1049 0
 1660 000c 1846     		mov	r0, r3
 1661 000e 0C37     		adds	r7, r7, #12
 1662              	.LCFI64:
 1663              		.cfi_def_cfa_offset 4
 1664 0010 BD46     		mov	sp, r7
 1665              	.LCFI65:
 1666              		.cfi_def_cfa_register 13
 1667              		@ sp needed
 1668 0012 5DF8047B 		ldr	r7, [sp], #4
 1669              	.LCFI66:
 1670              		.cfi_restore 7
 1671              		.cfi_def_cfa_offset 0
 1672 0016 7047     		bx	lr
 1673              		.cfi_endproc
 1674              	.LFE144:
 1676              		.section	.text.DMA_SetConfig,"ax",%progbits
 1677              		.align	1
 1678              		.syntax unified
 1679              		.thumb
 1680              		.thumb_func
 1681              		.fpu fpv4-sp-d16
 1683              	DMA_SetConfig:
 1684              	.LFB145:
1050:E:/LiteOS/LiteOS_Lab/drivers/third_party/ST/STM32L4xx_HAL_Driver/Src\stm32l4xx_hal_dma.c **** 
1051:E:/LiteOS/LiteOS_Lab/drivers/third_party/ST/STM32L4xx_HAL_Driver/Src\stm32l4xx_hal_dma.c **** /**
1052:E:/LiteOS/LiteOS_Lab/drivers/third_party/ST/STM32L4xx_HAL_Driver/Src\stm32l4xx_hal_dma.c ****   * @}
1053:E:/LiteOS/LiteOS_Lab/drivers/third_party/ST/STM32L4xx_HAL_Driver/Src\stm32l4xx_hal_dma.c ****   */
1054:E:/LiteOS/LiteOS_Lab/drivers/third_party/ST/STM32L4xx_HAL_Driver/Src\stm32l4xx_hal_dma.c **** 
1055:E:/LiteOS/LiteOS_Lab/drivers/third_party/ST/STM32L4xx_HAL_Driver/Src\stm32l4xx_hal_dma.c **** /**
1056:E:/LiteOS/LiteOS_Lab/drivers/third_party/ST/STM32L4xx_HAL_Driver/Src\stm32l4xx_hal_dma.c ****   * @}
1057:E:/LiteOS/LiteOS_Lab/drivers/third_party/ST/STM32L4xx_HAL_Driver/Src\stm32l4xx_hal_dma.c ****   */
1058:E:/LiteOS/LiteOS_Lab/drivers/third_party/ST/STM32L4xx_HAL_Driver/Src\stm32l4xx_hal_dma.c **** 
1059:E:/LiteOS/LiteOS_Lab/drivers/third_party/ST/STM32L4xx_HAL_Driver/Src\stm32l4xx_hal_dma.c **** /** @addtogroup DMA_Private_Functions
1060:E:/LiteOS/LiteOS_Lab/drivers/third_party/ST/STM32L4xx_HAL_Driver/Src\stm32l4xx_hal_dma.c ****   * @{
1061:E:/LiteOS/LiteOS_Lab/drivers/third_party/ST/STM32L4xx_HAL_Driver/Src\stm32l4xx_hal_dma.c ****   */
1062:E:/LiteOS/LiteOS_Lab/drivers/third_party/ST/STM32L4xx_HAL_Driver/Src\stm32l4xx_hal_dma.c **** 
1063:E:/LiteOS/LiteOS_Lab/drivers/third_party/ST/STM32L4xx_HAL_Driver/Src\stm32l4xx_hal_dma.c **** /**
1064:E:/LiteOS/LiteOS_Lab/drivers/third_party/ST/STM32L4xx_HAL_Driver/Src\stm32l4xx_hal_dma.c ****   * @brief  Sets the DMA Transfer parameter.
1065:E:/LiteOS/LiteOS_Lab/drivers/third_party/ST/STM32L4xx_HAL_Driver/Src\stm32l4xx_hal_dma.c ****   * @param  hdma:       pointer to a DMA_HandleTypeDef structure that contains
1066:E:/LiteOS/LiteOS_Lab/drivers/third_party/ST/STM32L4xx_HAL_Driver/Src\stm32l4xx_hal_dma.c ****   *                     the configuration information for the specified DMA Channel.
1067:E:/LiteOS/LiteOS_Lab/drivers/third_party/ST/STM32L4xx_HAL_Driver/Src\stm32l4xx_hal_dma.c ****   * @param  SrcAddress: The source memory Buffer address
1068:E:/LiteOS/LiteOS_Lab/drivers/third_party/ST/STM32L4xx_HAL_Driver/Src\stm32l4xx_hal_dma.c ****   * @param  DstAddress: The destination memory Buffer address
1069:E:/LiteOS/LiteOS_Lab/drivers/third_party/ST/STM32L4xx_HAL_Driver/Src\stm32l4xx_hal_dma.c ****   * @param  DataLength: The length of data to be transferred from source to destination
1070:E:/LiteOS/LiteOS_Lab/drivers/third_party/ST/STM32L4xx_HAL_Driver/Src\stm32l4xx_hal_dma.c ****   * @retval HAL status
ARM GAS  C:\Users\user\AppData\Local\Temp\ccuTs4tt.s 			page 49


1071:E:/LiteOS/LiteOS_Lab/drivers/third_party/ST/STM32L4xx_HAL_Driver/Src\stm32l4xx_hal_dma.c ****   */
1072:E:/LiteOS/LiteOS_Lab/drivers/third_party/ST/STM32L4xx_HAL_Driver/Src\stm32l4xx_hal_dma.c **** static void DMA_SetConfig(DMA_HandleTypeDef *hdma, uint32_t SrcAddress, uint32_t DstAddress, uint32
1073:E:/LiteOS/LiteOS_Lab/drivers/third_party/ST/STM32L4xx_HAL_Driver/Src\stm32l4xx_hal_dma.c **** {
 1685              		.loc 1 1073 0
 1686              		.cfi_startproc
 1687              		@ args = 0, pretend = 0, frame = 16
 1688              		@ frame_needed = 1, uses_anonymous_args = 0
 1689              		@ link register save eliminated.
 1690 0000 80B4     		push	{r7}
 1691              	.LCFI67:
 1692              		.cfi_def_cfa_offset 4
 1693              		.cfi_offset 7, -4
 1694 0002 85B0     		sub	sp, sp, #20
 1695              	.LCFI68:
 1696              		.cfi_def_cfa_offset 24
 1697 0004 00AF     		add	r7, sp, #0
 1698              	.LCFI69:
 1699              		.cfi_def_cfa_register 7
 1700 0006 F860     		str	r0, [r7, #12]
 1701 0008 B960     		str	r1, [r7, #8]
 1702 000a 7A60     		str	r2, [r7, #4]
 1703 000c 3B60     		str	r3, [r7]
1074:E:/LiteOS/LiteOS_Lab/drivers/third_party/ST/STM32L4xx_HAL_Driver/Src\stm32l4xx_hal_dma.c **** #if defined(DMAMUX1)
1075:E:/LiteOS/LiteOS_Lab/drivers/third_party/ST/STM32L4xx_HAL_Driver/Src\stm32l4xx_hal_dma.c ****   /* Clear the DMAMUX synchro overrun flag */
1076:E:/LiteOS/LiteOS_Lab/drivers/third_party/ST/STM32L4xx_HAL_Driver/Src\stm32l4xx_hal_dma.c ****   hdma->DMAmuxChannelStatus->CFR = hdma->DMAmuxChannelStatusMask;
1077:E:/LiteOS/LiteOS_Lab/drivers/third_party/ST/STM32L4xx_HAL_Driver/Src\stm32l4xx_hal_dma.c **** 
1078:E:/LiteOS/LiteOS_Lab/drivers/third_party/ST/STM32L4xx_HAL_Driver/Src\stm32l4xx_hal_dma.c ****   if(hdma->DMAmuxRequestGen != 0U)
1079:E:/LiteOS/LiteOS_Lab/drivers/third_party/ST/STM32L4xx_HAL_Driver/Src\stm32l4xx_hal_dma.c ****   {
1080:E:/LiteOS/LiteOS_Lab/drivers/third_party/ST/STM32L4xx_HAL_Driver/Src\stm32l4xx_hal_dma.c ****     /* Clear the DMAMUX request generator overrun flag */
1081:E:/LiteOS/LiteOS_Lab/drivers/third_party/ST/STM32L4xx_HAL_Driver/Src\stm32l4xx_hal_dma.c ****     hdma->DMAmuxRequestGenStatus->RGCFR = hdma->DMAmuxRequestGenStatusMask;
1082:E:/LiteOS/LiteOS_Lab/drivers/third_party/ST/STM32L4xx_HAL_Driver/Src\stm32l4xx_hal_dma.c ****   }
1083:E:/LiteOS/LiteOS_Lab/drivers/third_party/ST/STM32L4xx_HAL_Driver/Src\stm32l4xx_hal_dma.c **** #endif
1084:E:/LiteOS/LiteOS_Lab/drivers/third_party/ST/STM32L4xx_HAL_Driver/Src\stm32l4xx_hal_dma.c **** 
1085:E:/LiteOS/LiteOS_Lab/drivers/third_party/ST/STM32L4xx_HAL_Driver/Src\stm32l4xx_hal_dma.c ****   /* Clear all flags */
1086:E:/LiteOS/LiteOS_Lab/drivers/third_party/ST/STM32L4xx_HAL_Driver/Src\stm32l4xx_hal_dma.c ****   hdma->DmaBaseAddress->IFCR = (DMA_ISR_GIF1 << hdma->ChannelIndex);
 1704              		.loc 1 1086 0
 1705 000e FB68     		ldr	r3, [r7, #12]
 1706 0010 5A6C     		ldr	r2, [r3, #68]
 1707 0012 FB68     		ldr	r3, [r7, #12]
 1708 0014 1B6C     		ldr	r3, [r3, #64]
 1709 0016 0121     		movs	r1, #1
 1710 0018 01FA02F2 		lsl	r2, r1, r2
 1711 001c 5A60     		str	r2, [r3, #4]
1087:E:/LiteOS/LiteOS_Lab/drivers/third_party/ST/STM32L4xx_HAL_Driver/Src\stm32l4xx_hal_dma.c **** 
1088:E:/LiteOS/LiteOS_Lab/drivers/third_party/ST/STM32L4xx_HAL_Driver/Src\stm32l4xx_hal_dma.c ****   /* Configure DMA Channel data length */
1089:E:/LiteOS/LiteOS_Lab/drivers/third_party/ST/STM32L4xx_HAL_Driver/Src\stm32l4xx_hal_dma.c ****   hdma->Instance->CNDTR = DataLength;
 1712              		.loc 1 1089 0
 1713 001e FB68     		ldr	r3, [r7, #12]
 1714 0020 1B68     		ldr	r3, [r3]
 1715 0022 3A68     		ldr	r2, [r7]
 1716 0024 5A60     		str	r2, [r3, #4]
1090:E:/LiteOS/LiteOS_Lab/drivers/third_party/ST/STM32L4xx_HAL_Driver/Src\stm32l4xx_hal_dma.c **** 
1091:E:/LiteOS/LiteOS_Lab/drivers/third_party/ST/STM32L4xx_HAL_Driver/Src\stm32l4xx_hal_dma.c ****   /* Peripheral to Memory */
1092:E:/LiteOS/LiteOS_Lab/drivers/third_party/ST/STM32L4xx_HAL_Driver/Src\stm32l4xx_hal_dma.c ****   if((hdma->Init.Direction) == DMA_MEMORY_TO_PERIPH)
 1717              		.loc 1 1092 0
 1718 0026 FB68     		ldr	r3, [r7, #12]
 1719 0028 9B68     		ldr	r3, [r3, #8]
ARM GAS  C:\Users\user\AppData\Local\Temp\ccuTs4tt.s 			page 50


 1720 002a 102B     		cmp	r3, #16
 1721 002c 08D1     		bne	.L90
1093:E:/LiteOS/LiteOS_Lab/drivers/third_party/ST/STM32L4xx_HAL_Driver/Src\stm32l4xx_hal_dma.c ****   {
1094:E:/LiteOS/LiteOS_Lab/drivers/third_party/ST/STM32L4xx_HAL_Driver/Src\stm32l4xx_hal_dma.c ****     /* Configure DMA Channel destination address */
1095:E:/LiteOS/LiteOS_Lab/drivers/third_party/ST/STM32L4xx_HAL_Driver/Src\stm32l4xx_hal_dma.c ****     hdma->Instance->CPAR = DstAddress;
 1722              		.loc 1 1095 0
 1723 002e FB68     		ldr	r3, [r7, #12]
 1724 0030 1B68     		ldr	r3, [r3]
 1725 0032 7A68     		ldr	r2, [r7, #4]
 1726 0034 9A60     		str	r2, [r3, #8]
1096:E:/LiteOS/LiteOS_Lab/drivers/third_party/ST/STM32L4xx_HAL_Driver/Src\stm32l4xx_hal_dma.c **** 
1097:E:/LiteOS/LiteOS_Lab/drivers/third_party/ST/STM32L4xx_HAL_Driver/Src\stm32l4xx_hal_dma.c ****     /* Configure DMA Channel source address */
1098:E:/LiteOS/LiteOS_Lab/drivers/third_party/ST/STM32L4xx_HAL_Driver/Src\stm32l4xx_hal_dma.c ****     hdma->Instance->CMAR = SrcAddress;
 1727              		.loc 1 1098 0
 1728 0036 FB68     		ldr	r3, [r7, #12]
 1729 0038 1B68     		ldr	r3, [r3]
 1730 003a BA68     		ldr	r2, [r7, #8]
 1731 003c DA60     		str	r2, [r3, #12]
1099:E:/LiteOS/LiteOS_Lab/drivers/third_party/ST/STM32L4xx_HAL_Driver/Src\stm32l4xx_hal_dma.c ****   }
1100:E:/LiteOS/LiteOS_Lab/drivers/third_party/ST/STM32L4xx_HAL_Driver/Src\stm32l4xx_hal_dma.c ****   /* Memory to Peripheral */
1101:E:/LiteOS/LiteOS_Lab/drivers/third_party/ST/STM32L4xx_HAL_Driver/Src\stm32l4xx_hal_dma.c ****   else
1102:E:/LiteOS/LiteOS_Lab/drivers/third_party/ST/STM32L4xx_HAL_Driver/Src\stm32l4xx_hal_dma.c ****   {
1103:E:/LiteOS/LiteOS_Lab/drivers/third_party/ST/STM32L4xx_HAL_Driver/Src\stm32l4xx_hal_dma.c ****     /* Configure DMA Channel source address */
1104:E:/LiteOS/LiteOS_Lab/drivers/third_party/ST/STM32L4xx_HAL_Driver/Src\stm32l4xx_hal_dma.c ****     hdma->Instance->CPAR = SrcAddress;
1105:E:/LiteOS/LiteOS_Lab/drivers/third_party/ST/STM32L4xx_HAL_Driver/Src\stm32l4xx_hal_dma.c **** 
1106:E:/LiteOS/LiteOS_Lab/drivers/third_party/ST/STM32L4xx_HAL_Driver/Src\stm32l4xx_hal_dma.c ****     /* Configure DMA Channel destination address */
1107:E:/LiteOS/LiteOS_Lab/drivers/third_party/ST/STM32L4xx_HAL_Driver/Src\stm32l4xx_hal_dma.c ****     hdma->Instance->CMAR = DstAddress;
1108:E:/LiteOS/LiteOS_Lab/drivers/third_party/ST/STM32L4xx_HAL_Driver/Src\stm32l4xx_hal_dma.c ****   }
1109:E:/LiteOS/LiteOS_Lab/drivers/third_party/ST/STM32L4xx_HAL_Driver/Src\stm32l4xx_hal_dma.c **** }
 1732              		.loc 1 1109 0
 1733 003e 07E0     		b	.L92
 1734              	.L90:
1104:E:/LiteOS/LiteOS_Lab/drivers/third_party/ST/STM32L4xx_HAL_Driver/Src\stm32l4xx_hal_dma.c **** 
 1735              		.loc 1 1104 0
 1736 0040 FB68     		ldr	r3, [r7, #12]
 1737 0042 1B68     		ldr	r3, [r3]
 1738 0044 BA68     		ldr	r2, [r7, #8]
 1739 0046 9A60     		str	r2, [r3, #8]
1107:E:/LiteOS/LiteOS_Lab/drivers/third_party/ST/STM32L4xx_HAL_Driver/Src\stm32l4xx_hal_dma.c ****   }
 1740              		.loc 1 1107 0
 1741 0048 FB68     		ldr	r3, [r7, #12]
 1742 004a 1B68     		ldr	r3, [r3]
 1743 004c 7A68     		ldr	r2, [r7, #4]
 1744 004e DA60     		str	r2, [r3, #12]
 1745              	.L92:
 1746              		.loc 1 1109 0
 1747 0050 00BF     		nop
 1748 0052 1437     		adds	r7, r7, #20
 1749              	.LCFI70:
 1750              		.cfi_def_cfa_offset 4
 1751 0054 BD46     		mov	sp, r7
 1752              	.LCFI71:
 1753              		.cfi_def_cfa_register 13
 1754              		@ sp needed
 1755 0056 5DF8047B 		ldr	r7, [sp], #4
 1756              	.LCFI72:
 1757              		.cfi_restore 7
ARM GAS  C:\Users\user\AppData\Local\Temp\ccuTs4tt.s 			page 51


 1758              		.cfi_def_cfa_offset 0
 1759 005a 7047     		bx	lr
 1760              		.cfi_endproc
 1761              	.LFE145:
 1763              		.text
 1764              	.Letext0:
 1765              		.file 2 "e:\\ac6\\systemworkbench\\plugins\\fr.ac6.mcu.externaltools.arm-none.win32_1.16.0.2018071
 1766              		.file 3 "e:\\ac6\\systemworkbench\\plugins\\fr.ac6.mcu.externaltools.arm-none.win32_1.16.0.2018071
 1767              		.file 4 "e:\\ac6\\systemworkbench\\plugins\\fr.ac6.mcu.externaltools.arm-none.win32_1.16.0.2018071
 1768              		.file 5 "e:\\ac6\\systemworkbench\\plugins\\fr.ac6.mcu.externaltools.arm-none.win32_1.16.0.2018071
 1769              		.file 6 "e:\\ac6\\systemworkbench\\plugins\\fr.ac6.mcu.externaltools.arm-none.win32_1.16.0.2018071
 1770              		.file 7 "E:/LiteOS/LiteOS_Lab/iot_link/os/os_imp/liteos/include/los_typedef.h"
 1771              		.file 8 "e:\\ac6\\systemworkbench\\plugins\\fr.ac6.mcu.externaltools.arm-none.win32_1.16.0.2018071
 1772              		.file 9 "E:/LiteOS/LiteOS_Lab/iot_link/os/os_imp/liteos/arch/arm/common/cmsis/core_cm4.h"
 1773              		.file 10 "E:/LiteOS/LiteOS_Lab/targets/STM32L431_BearPi/Inc/system_stm32l4xx.h"
 1774              		.file 11 "E:/LiteOS/LiteOS_Lab/targets/STM32L431_BearPi/Inc/stm32l431xx.h"
 1775              		.file 12 "E:/LiteOS/LiteOS_Lab/iot_link/os/os_imp/liteos/include/los_config.h"
 1776              		.file 13 "E:/LiteOS/LiteOS_Lab/iot_link/os/os_imp/liteos/include/los_list.h"
 1777              		.file 14 "E:/LiteOS/LiteOS_Lab/iot_link/os/os_imp/liteos/include/los_err.h"
 1778              		.file 15 "E:/LiteOS/LiteOS_Lab/iot_link/os/os_imp/liteos/arch/arm/arm-m/include/los_hwi.h"
 1779              		.file 16 "E:/LiteOS/LiteOS_Lab/iot_link/os/os_imp/liteos/include/los_tick.h"
 1780              		.file 17 "E:/LiteOS/LiteOS_Lab/iot_link/os/os_imp/liteos/include/los_event.h"
 1781              		.file 18 "E:/LiteOS/LiteOS_Lab/iot_link/os/os_imp/liteos/include/los_task.h"
 1782              		.file 19 "E:/LiteOS/LiteOS_Lab/iot_link/os/os_imp/liteos/base/include/los_task.ph"
 1783              		.file 20 "E:/LiteOS/LiteOS_Lab/targets/STM32L431_BearPi/Inc/main.h"
 1784              		.file 21 "E:/LiteOS/LiteOS_Lab/targets/STM32L431_BearPi/Inc/stm32l4xx.h"
 1785              		.file 22 "E:/LiteOS/LiteOS_Lab/drivers/third_party/ST/STM32L4xx_HAL_Driver/Inc/stm32l4xx_hal_def.h
 1786              		.file 23 "E:/LiteOS/LiteOS_Lab/drivers/third_party/ST/STM32L4xx_HAL_Driver/Inc/stm32l4xx_hal_dma.h
ARM GAS  C:\Users\user\AppData\Local\Temp\ccuTs4tt.s 			page 52

