ARM GAS  C:\Users\user\AppData\Local\Temp\ccvQ1M9B.s 			page 1


   1              		.cpu cortex-m4
   2              		.eabi_attribute 27, 1
   3              		.eabi_attribute 28, 1
   4              		.eabi_attribute 20, 1
   5              		.eabi_attribute 21, 1
   6              		.eabi_attribute 23, 3
   7              		.eabi_attribute 24, 1
   8              		.eabi_attribute 25, 1
   9              		.eabi_attribute 26, 1
  10              		.eabi_attribute 30, 6
  11              		.eabi_attribute 34, 1
  12              		.eabi_attribute 18, 4
  13              		.file	"stm32l4xx_hal_spi.c"
  14              		.text
  15              	.Ltext0:
  16              		.cfi_sections	.debug_frame
  17              		.section	.text.HAL_SPI_Init,"ax",%progbits
  18              		.align	1
  19              		.global	HAL_SPI_Init
  20              		.syntax unified
  21              		.thumb
  22              		.thumb_func
  23              		.fpu fpv4-sp-d16
  25              	HAL_SPI_Init:
  26              	.LFB133:
  27              		.file 1 "E:/LiteOS/LiteOS_Lab/drivers/third_party/ST/STM32L4xx_HAL_Driver/Src/stm32l4xx_hal_spi.c"
   1:E:/LiteOS/LiteOS_Lab/drivers/third_party/ST/STM32L4xx_HAL_Driver/Src\stm32l4xx_hal_spi.c **** /**
   2:E:/LiteOS/LiteOS_Lab/drivers/third_party/ST/STM32L4xx_HAL_Driver/Src\stm32l4xx_hal_spi.c ****   ******************************************************************************
   3:E:/LiteOS/LiteOS_Lab/drivers/third_party/ST/STM32L4xx_HAL_Driver/Src\stm32l4xx_hal_spi.c ****   * @file    stm32l4xx_hal_spi.c
   4:E:/LiteOS/LiteOS_Lab/drivers/third_party/ST/STM32L4xx_HAL_Driver/Src\stm32l4xx_hal_spi.c ****   * @author  MCD Application Team
   5:E:/LiteOS/LiteOS_Lab/drivers/third_party/ST/STM32L4xx_HAL_Driver/Src\stm32l4xx_hal_spi.c ****   * @brief   SPI HAL module driver.
   6:E:/LiteOS/LiteOS_Lab/drivers/third_party/ST/STM32L4xx_HAL_Driver/Src\stm32l4xx_hal_spi.c ****   *          This file provides firmware functions to manage the following
   7:E:/LiteOS/LiteOS_Lab/drivers/third_party/ST/STM32L4xx_HAL_Driver/Src\stm32l4xx_hal_spi.c ****   *          functionalities of the Serial Peripheral Interface (SPI) peripheral:
   8:E:/LiteOS/LiteOS_Lab/drivers/third_party/ST/STM32L4xx_HAL_Driver/Src\stm32l4xx_hal_spi.c ****   *           + Initialization and de-initialization functions
   9:E:/LiteOS/LiteOS_Lab/drivers/third_party/ST/STM32L4xx_HAL_Driver/Src\stm32l4xx_hal_spi.c ****   *           + IO operation functions
  10:E:/LiteOS/LiteOS_Lab/drivers/third_party/ST/STM32L4xx_HAL_Driver/Src\stm32l4xx_hal_spi.c ****   *           + Peripheral Control functions
  11:E:/LiteOS/LiteOS_Lab/drivers/third_party/ST/STM32L4xx_HAL_Driver/Src\stm32l4xx_hal_spi.c ****   *           + Peripheral State functions
  12:E:/LiteOS/LiteOS_Lab/drivers/third_party/ST/STM32L4xx_HAL_Driver/Src\stm32l4xx_hal_spi.c ****   *
  13:E:/LiteOS/LiteOS_Lab/drivers/third_party/ST/STM32L4xx_HAL_Driver/Src\stm32l4xx_hal_spi.c ****   @verbatim
  14:E:/LiteOS/LiteOS_Lab/drivers/third_party/ST/STM32L4xx_HAL_Driver/Src\stm32l4xx_hal_spi.c ****   ==============================================================================
  15:E:/LiteOS/LiteOS_Lab/drivers/third_party/ST/STM32L4xx_HAL_Driver/Src\stm32l4xx_hal_spi.c ****                         ##### How to use this driver #####
  16:E:/LiteOS/LiteOS_Lab/drivers/third_party/ST/STM32L4xx_HAL_Driver/Src\stm32l4xx_hal_spi.c ****   ==============================================================================
  17:E:/LiteOS/LiteOS_Lab/drivers/third_party/ST/STM32L4xx_HAL_Driver/Src\stm32l4xx_hal_spi.c ****     [..]
  18:E:/LiteOS/LiteOS_Lab/drivers/third_party/ST/STM32L4xx_HAL_Driver/Src\stm32l4xx_hal_spi.c ****       The SPI HAL driver can be used as follows:
  19:E:/LiteOS/LiteOS_Lab/drivers/third_party/ST/STM32L4xx_HAL_Driver/Src\stm32l4xx_hal_spi.c **** 
  20:E:/LiteOS/LiteOS_Lab/drivers/third_party/ST/STM32L4xx_HAL_Driver/Src\stm32l4xx_hal_spi.c ****       (#) Declare a SPI_HandleTypeDef handle structure, for example:
  21:E:/LiteOS/LiteOS_Lab/drivers/third_party/ST/STM32L4xx_HAL_Driver/Src\stm32l4xx_hal_spi.c ****           SPI_HandleTypeDef  hspi;
  22:E:/LiteOS/LiteOS_Lab/drivers/third_party/ST/STM32L4xx_HAL_Driver/Src\stm32l4xx_hal_spi.c **** 
  23:E:/LiteOS/LiteOS_Lab/drivers/third_party/ST/STM32L4xx_HAL_Driver/Src\stm32l4xx_hal_spi.c ****       (#)Initialize the SPI low level resources by implementing the HAL_SPI_MspInit() API:
  24:E:/LiteOS/LiteOS_Lab/drivers/third_party/ST/STM32L4xx_HAL_Driver/Src\stm32l4xx_hal_spi.c ****           (##) Enable the SPIx interface clock
  25:E:/LiteOS/LiteOS_Lab/drivers/third_party/ST/STM32L4xx_HAL_Driver/Src\stm32l4xx_hal_spi.c ****           (##) SPI pins configuration
  26:E:/LiteOS/LiteOS_Lab/drivers/third_party/ST/STM32L4xx_HAL_Driver/Src\stm32l4xx_hal_spi.c ****               (+++) Enable the clock for the SPI GPIOs
  27:E:/LiteOS/LiteOS_Lab/drivers/third_party/ST/STM32L4xx_HAL_Driver/Src\stm32l4xx_hal_spi.c ****               (+++) Configure these SPI pins as alternate function push-pull
  28:E:/LiteOS/LiteOS_Lab/drivers/third_party/ST/STM32L4xx_HAL_Driver/Src\stm32l4xx_hal_spi.c ****           (##) NVIC configuration if you need to use interrupt process
  29:E:/LiteOS/LiteOS_Lab/drivers/third_party/ST/STM32L4xx_HAL_Driver/Src\stm32l4xx_hal_spi.c ****               (+++) Configure the SPIx interrupt priority
  30:E:/LiteOS/LiteOS_Lab/drivers/third_party/ST/STM32L4xx_HAL_Driver/Src\stm32l4xx_hal_spi.c ****               (+++) Enable the NVIC SPI IRQ handle
  31:E:/LiteOS/LiteOS_Lab/drivers/third_party/ST/STM32L4xx_HAL_Driver/Src\stm32l4xx_hal_spi.c ****           (##) DMA Configuration if you need to use DMA process
ARM GAS  C:\Users\user\AppData\Local\Temp\ccvQ1M9B.s 			page 2


  32:E:/LiteOS/LiteOS_Lab/drivers/third_party/ST/STM32L4xx_HAL_Driver/Src\stm32l4xx_hal_spi.c ****               (+++) Declare a DMA_HandleTypeDef handle structure for the transmit or receive Stream
  33:E:/LiteOS/LiteOS_Lab/drivers/third_party/ST/STM32L4xx_HAL_Driver/Src\stm32l4xx_hal_spi.c ****               (+++) Enable the DMAx clock
  34:E:/LiteOS/LiteOS_Lab/drivers/third_party/ST/STM32L4xx_HAL_Driver/Src\stm32l4xx_hal_spi.c ****               (+++) Configure the DMA handle parameters
  35:E:/LiteOS/LiteOS_Lab/drivers/third_party/ST/STM32L4xx_HAL_Driver/Src\stm32l4xx_hal_spi.c ****               (+++) Configure the DMA Tx or Rx Stream/Channel
  36:E:/LiteOS/LiteOS_Lab/drivers/third_party/ST/STM32L4xx_HAL_Driver/Src\stm32l4xx_hal_spi.c ****               (+++) Associate the initialized hdma_tx(or _rx)  handle to the hspi DMA Tx or Rx hand
  37:E:/LiteOS/LiteOS_Lab/drivers/third_party/ST/STM32L4xx_HAL_Driver/Src\stm32l4xx_hal_spi.c ****               (+++) Configure the priority and enable the NVIC for the transfer complete interrupt 
  38:E:/LiteOS/LiteOS_Lab/drivers/third_party/ST/STM32L4xx_HAL_Driver/Src\stm32l4xx_hal_spi.c **** 
  39:E:/LiteOS/LiteOS_Lab/drivers/third_party/ST/STM32L4xx_HAL_Driver/Src\stm32l4xx_hal_spi.c ****       (#) Program the Mode, BidirectionalMode , Data size, Baudrate Prescaler, NSS
  40:E:/LiteOS/LiteOS_Lab/drivers/third_party/ST/STM32L4xx_HAL_Driver/Src\stm32l4xx_hal_spi.c ****           management, Clock polarity and phase, FirstBit and CRC configuration in the hspi Init str
  41:E:/LiteOS/LiteOS_Lab/drivers/third_party/ST/STM32L4xx_HAL_Driver/Src\stm32l4xx_hal_spi.c **** 
  42:E:/LiteOS/LiteOS_Lab/drivers/third_party/ST/STM32L4xx_HAL_Driver/Src\stm32l4xx_hal_spi.c ****       (#) Initialize the SPI registers by calling the HAL_SPI_Init() API:
  43:E:/LiteOS/LiteOS_Lab/drivers/third_party/ST/STM32L4xx_HAL_Driver/Src\stm32l4xx_hal_spi.c ****           (++) This API configures also the low level Hardware GPIO, CLOCK, CORTEX...etc)
  44:E:/LiteOS/LiteOS_Lab/drivers/third_party/ST/STM32L4xx_HAL_Driver/Src\stm32l4xx_hal_spi.c ****               by calling the customized HAL_SPI_MspInit() API.
  45:E:/LiteOS/LiteOS_Lab/drivers/third_party/ST/STM32L4xx_HAL_Driver/Src\stm32l4xx_hal_spi.c ****      [..]
  46:E:/LiteOS/LiteOS_Lab/drivers/third_party/ST/STM32L4xx_HAL_Driver/Src\stm32l4xx_hal_spi.c ****        Circular mode restriction:
  47:E:/LiteOS/LiteOS_Lab/drivers/third_party/ST/STM32L4xx_HAL_Driver/Src\stm32l4xx_hal_spi.c ****       (#) The DMA circular mode cannot be used when the SPI is configured in these modes:
  48:E:/LiteOS/LiteOS_Lab/drivers/third_party/ST/STM32L4xx_HAL_Driver/Src\stm32l4xx_hal_spi.c ****           (##) Master 2Lines RxOnly
  49:E:/LiteOS/LiteOS_Lab/drivers/third_party/ST/STM32L4xx_HAL_Driver/Src\stm32l4xx_hal_spi.c ****           (##) Master 1Line Rx
  50:E:/LiteOS/LiteOS_Lab/drivers/third_party/ST/STM32L4xx_HAL_Driver/Src\stm32l4xx_hal_spi.c ****       (#) The CRC feature is not managed when the DMA circular mode is enabled
  51:E:/LiteOS/LiteOS_Lab/drivers/third_party/ST/STM32L4xx_HAL_Driver/Src\stm32l4xx_hal_spi.c ****       (#) When the SPI DMA Pause/Stop features are used, we must use the following APIs
  52:E:/LiteOS/LiteOS_Lab/drivers/third_party/ST/STM32L4xx_HAL_Driver/Src\stm32l4xx_hal_spi.c ****           the HAL_SPI_DMAPause()/ HAL_SPI_DMAStop() only under the SPI callbacks
  53:E:/LiteOS/LiteOS_Lab/drivers/third_party/ST/STM32L4xx_HAL_Driver/Src\stm32l4xx_hal_spi.c ****      [..]
  54:E:/LiteOS/LiteOS_Lab/drivers/third_party/ST/STM32L4xx_HAL_Driver/Src\stm32l4xx_hal_spi.c ****        Master Receive mode restriction:
  55:E:/LiteOS/LiteOS_Lab/drivers/third_party/ST/STM32L4xx_HAL_Driver/Src\stm32l4xx_hal_spi.c ****       (#) In Master unidirectional receive-only mode (MSTR =1, BIDIMODE=0, RXONLY=1) or
  56:E:/LiteOS/LiteOS_Lab/drivers/third_party/ST/STM32L4xx_HAL_Driver/Src\stm32l4xx_hal_spi.c ****           bidirectional receive mode (MSTR=1, BIDIMODE=1, BIDIOE=0), to ensure that the SPI
  57:E:/LiteOS/LiteOS_Lab/drivers/third_party/ST/STM32L4xx_HAL_Driver/Src\stm32l4xx_hal_spi.c ****           does not initiate a new transfer the following procedure has to be respected:
  58:E:/LiteOS/LiteOS_Lab/drivers/third_party/ST/STM32L4xx_HAL_Driver/Src\stm32l4xx_hal_spi.c ****           (##) HAL_SPI_DeInit()
  59:E:/LiteOS/LiteOS_Lab/drivers/third_party/ST/STM32L4xx_HAL_Driver/Src\stm32l4xx_hal_spi.c ****           (##) HAL_SPI_Init()
  60:E:/LiteOS/LiteOS_Lab/drivers/third_party/ST/STM32L4xx_HAL_Driver/Src\stm32l4xx_hal_spi.c ****      [..]
  61:E:/LiteOS/LiteOS_Lab/drivers/third_party/ST/STM32L4xx_HAL_Driver/Src\stm32l4xx_hal_spi.c ****        Using the HAL it is not possible to reach all supported SPI frequency with the differents SP
  62:E:/LiteOS/LiteOS_Lab/drivers/third_party/ST/STM32L4xx_HAL_Driver/Src\stm32l4xx_hal_spi.c ****        the following table resume the max SPI frequency reached with data size 8bits/16bits,
  63:E:/LiteOS/LiteOS_Lab/drivers/third_party/ST/STM32L4xx_HAL_Driver/Src\stm32l4xx_hal_spi.c ****          according to frequency of the APBx Peripheral Clock (fPCLK) used by the SPI instance.
  64:E:/LiteOS/LiteOS_Lab/drivers/third_party/ST/STM32L4xx_HAL_Driver/Src\stm32l4xx_hal_spi.c **** 
  65:E:/LiteOS/LiteOS_Lab/drivers/third_party/ST/STM32L4xx_HAL_Driver/Src\stm32l4xx_hal_spi.c ****   @endverbatim
  66:E:/LiteOS/LiteOS_Lab/drivers/third_party/ST/STM32L4xx_HAL_Driver/Src\stm32l4xx_hal_spi.c **** 
  67:E:/LiteOS/LiteOS_Lab/drivers/third_party/ST/STM32L4xx_HAL_Driver/Src\stm32l4xx_hal_spi.c ****   Additional table :
  68:E:/LiteOS/LiteOS_Lab/drivers/third_party/ST/STM32L4xx_HAL_Driver/Src\stm32l4xx_hal_spi.c **** 
  69:E:/LiteOS/LiteOS_Lab/drivers/third_party/ST/STM32L4xx_HAL_Driver/Src\stm32l4xx_hal_spi.c ****        DataSize = SPI_DATASIZE_8BIT:
  70:E:/LiteOS/LiteOS_Lab/drivers/third_party/ST/STM32L4xx_HAL_Driver/Src\stm32l4xx_hal_spi.c ****        +-------------------------------------------------------------------------------------------
  71:E:/LiteOS/LiteOS_Lab/drivers/third_party/ST/STM32L4xx_HAL_Driver/Src\stm32l4xx_hal_spi.c ****        |         |                | 2Lines Fullduplex   |     2Lines RxOnly    |         1Line     
  72:E:/LiteOS/LiteOS_Lab/drivers/third_party/ST/STM32L4xx_HAL_Driver/Src\stm32l4xx_hal_spi.c ****        | Process | Tranfert mode  |---------------------|----------------------|-------------------
  73:E:/LiteOS/LiteOS_Lab/drivers/third_party/ST/STM32L4xx_HAL_Driver/Src\stm32l4xx_hal_spi.c ****        |         |                |  Master  |  Slave   |  Master   |  Slave   |  Master   |  Slave
  74:E:/LiteOS/LiteOS_Lab/drivers/third_party/ST/STM32L4xx_HAL_Driver/Src\stm32l4xx_hal_spi.c ****        |===========================================================================================
  75:E:/LiteOS/LiteOS_Lab/drivers/third_party/ST/STM32L4xx_HAL_Driver/Src\stm32l4xx_hal_spi.c ****        |    T    |     Polling    | Fpclk/4  | Fpclk/8  |    NA     |    NA    |    NA     |   NA  
  76:E:/LiteOS/LiteOS_Lab/drivers/third_party/ST/STM32L4xx_HAL_Driver/Src\stm32l4xx_hal_spi.c ****        |    X    |----------------|----------|----------|-----------|----------|-----------|-------
  77:E:/LiteOS/LiteOS_Lab/drivers/third_party/ST/STM32L4xx_HAL_Driver/Src\stm32l4xx_hal_spi.c ****        |    /    |     Interrupt  | Fpclk/4  | Fpclk/16 |    NA     |    NA    |    NA     |   NA  
  78:E:/LiteOS/LiteOS_Lab/drivers/third_party/ST/STM32L4xx_HAL_Driver/Src\stm32l4xx_hal_spi.c ****        |    R    |----------------|----------|----------|-----------|----------|-----------|-------
  79:E:/LiteOS/LiteOS_Lab/drivers/third_party/ST/STM32L4xx_HAL_Driver/Src\stm32l4xx_hal_spi.c ****        |    X    |       DMA      | Fpclk/2  | Fpclk/2  |    NA     |    NA    |    NA     |   NA  
  80:E:/LiteOS/LiteOS_Lab/drivers/third_party/ST/STM32L4xx_HAL_Driver/Src\stm32l4xx_hal_spi.c ****        |=========|================|==========|==========|===========|==========|===========|=======
  81:E:/LiteOS/LiteOS_Lab/drivers/third_party/ST/STM32L4xx_HAL_Driver/Src\stm32l4xx_hal_spi.c ****        |         |     Polling    | Fpclk/4  | Fpclk/8  | Fpclk/16  | Fpclk/8  | Fpclk/8   | Fpclk/
  82:E:/LiteOS/LiteOS_Lab/drivers/third_party/ST/STM32L4xx_HAL_Driver/Src\stm32l4xx_hal_spi.c ****        |         |----------------|----------|----------|-----------|----------|-----------|-------
  83:E:/LiteOS/LiteOS_Lab/drivers/third_party/ST/STM32L4xx_HAL_Driver/Src\stm32l4xx_hal_spi.c ****        |    R    |     Interrupt  | Fpclk/8  | Fpclk/16 | Fpclk/8   | Fpclk/8  | Fpclk/8   | Fpclk/
  84:E:/LiteOS/LiteOS_Lab/drivers/third_party/ST/STM32L4xx_HAL_Driver/Src\stm32l4xx_hal_spi.c ****        |    X    |----------------|----------|----------|-----------|----------|-----------|-------
  85:E:/LiteOS/LiteOS_Lab/drivers/third_party/ST/STM32L4xx_HAL_Driver/Src\stm32l4xx_hal_spi.c ****        |         |       DMA      | Fpclk/4  | Fpclk/2  | Fpclk/2   | Fpclk/16 | Fpclk/2   | Fpclk/
  86:E:/LiteOS/LiteOS_Lab/drivers/third_party/ST/STM32L4xx_HAL_Driver/Src\stm32l4xx_hal_spi.c ****        |=========|================|==========|==========|===========|==========|===========|=======
  87:E:/LiteOS/LiteOS_Lab/drivers/third_party/ST/STM32L4xx_HAL_Driver/Src\stm32l4xx_hal_spi.c ****        |         |     Polling    | Fpclk/8  | Fpclk/2  |     NA    |    NA    | Fpclk/8   | Fpclk/
  88:E:/LiteOS/LiteOS_Lab/drivers/third_party/ST/STM32L4xx_HAL_Driver/Src\stm32l4xx_hal_spi.c ****        |         |----------------|----------|----------|-----------|----------|-----------|-------
ARM GAS  C:\Users\user\AppData\Local\Temp\ccvQ1M9B.s 			page 3


  89:E:/LiteOS/LiteOS_Lab/drivers/third_party/ST/STM32L4xx_HAL_Driver/Src\stm32l4xx_hal_spi.c ****        |    T    |     Interrupt  | Fpclk/2  | Fpclk/4  |     NA    |    NA    | Fpclk/16  | Fpclk/
  90:E:/LiteOS/LiteOS_Lab/drivers/third_party/ST/STM32L4xx_HAL_Driver/Src\stm32l4xx_hal_spi.c ****        |    X    |----------------|----------|----------|-----------|----------|-----------|-------
  91:E:/LiteOS/LiteOS_Lab/drivers/third_party/ST/STM32L4xx_HAL_Driver/Src\stm32l4xx_hal_spi.c ****        |         |       DMA      | Fpclk/2  | Fpclk/2  |     NA    |    NA    | Fpclk/8   | Fpclk/
  92:E:/LiteOS/LiteOS_Lab/drivers/third_party/ST/STM32L4xx_HAL_Driver/Src\stm32l4xx_hal_spi.c ****        +-------------------------------------------------------------------------------------------
  93:E:/LiteOS/LiteOS_Lab/drivers/third_party/ST/STM32L4xx_HAL_Driver/Src\stm32l4xx_hal_spi.c **** 
  94:E:/LiteOS/LiteOS_Lab/drivers/third_party/ST/STM32L4xx_HAL_Driver/Src\stm32l4xx_hal_spi.c ****        DataSize = SPI_DATASIZE_16BIT:
  95:E:/LiteOS/LiteOS_Lab/drivers/third_party/ST/STM32L4xx_HAL_Driver/Src\stm32l4xx_hal_spi.c ****        +-------------------------------------------------------------------------------------------
  96:E:/LiteOS/LiteOS_Lab/drivers/third_party/ST/STM32L4xx_HAL_Driver/Src\stm32l4xx_hal_spi.c ****        |         |                | 2Lines Fullduplex   |     2Lines RxOnly    |         1Line     
  97:E:/LiteOS/LiteOS_Lab/drivers/third_party/ST/STM32L4xx_HAL_Driver/Src\stm32l4xx_hal_spi.c ****        | Process | Tranfert mode  |---------------------|----------------------|-------------------
  98:E:/LiteOS/LiteOS_Lab/drivers/third_party/ST/STM32L4xx_HAL_Driver/Src\stm32l4xx_hal_spi.c ****        |         |                |  Master  |  Slave   |  Master   |  Slave   |  Master   |  Slave
  99:E:/LiteOS/LiteOS_Lab/drivers/third_party/ST/STM32L4xx_HAL_Driver/Src\stm32l4xx_hal_spi.c ****        |===========================================================================================
 100:E:/LiteOS/LiteOS_Lab/drivers/third_party/ST/STM32L4xx_HAL_Driver/Src\stm32l4xx_hal_spi.c ****        |    T    |     Polling    | Fpclk/4  | Fpclk/8  |    NA     |    NA    |    NA     |   NA  
 101:E:/LiteOS/LiteOS_Lab/drivers/third_party/ST/STM32L4xx_HAL_Driver/Src\stm32l4xx_hal_spi.c ****        |    X    |----------------|----------|----------|-----------|----------|-----------|-------
 102:E:/LiteOS/LiteOS_Lab/drivers/third_party/ST/STM32L4xx_HAL_Driver/Src\stm32l4xx_hal_spi.c ****        |    /    |     Interrupt  | Fpclk/4  | Fpclk/16 |    NA     |    NA    |    NA     |   NA  
 103:E:/LiteOS/LiteOS_Lab/drivers/third_party/ST/STM32L4xx_HAL_Driver/Src\stm32l4xx_hal_spi.c ****        |    R    |----------------|----------|----------|-----------|----------|-----------|-------
 104:E:/LiteOS/LiteOS_Lab/drivers/third_party/ST/STM32L4xx_HAL_Driver/Src\stm32l4xx_hal_spi.c ****        |    X    |       DMA      | Fpclk/2  | Fpclk/2  |    NA     |    NA    |    NA     |   NA  
 105:E:/LiteOS/LiteOS_Lab/drivers/third_party/ST/STM32L4xx_HAL_Driver/Src\stm32l4xx_hal_spi.c ****        |=========|================|==========|==========|===========|==========|===========|=======
 106:E:/LiteOS/LiteOS_Lab/drivers/third_party/ST/STM32L4xx_HAL_Driver/Src\stm32l4xx_hal_spi.c ****        |         |     Polling    | Fpclk/4  | Fpclk/8  | Fpclk/16  | Fpclk/8  | Fpclk/8   | Fpclk/
 107:E:/LiteOS/LiteOS_Lab/drivers/third_party/ST/STM32L4xx_HAL_Driver/Src\stm32l4xx_hal_spi.c ****        |         |----------------|----------|----------|-----------|----------|-----------|-------
 108:E:/LiteOS/LiteOS_Lab/drivers/third_party/ST/STM32L4xx_HAL_Driver/Src\stm32l4xx_hal_spi.c ****        |    R    |     Interrupt  | Fpclk/8  | Fpclk/16 | Fpclk/8   | Fpclk/8  | Fpclk/8   | Fpclk/
 109:E:/LiteOS/LiteOS_Lab/drivers/third_party/ST/STM32L4xx_HAL_Driver/Src\stm32l4xx_hal_spi.c ****        |    X    |----------------|----------|----------|-----------|----------|-----------|-------
 110:E:/LiteOS/LiteOS_Lab/drivers/third_party/ST/STM32L4xx_HAL_Driver/Src\stm32l4xx_hal_spi.c ****        |         |       DMA      | Fpclk/4  | Fpclk/2  | Fpclk/2   | Fpclk/16 | Fpclk/2   | Fpclk/
 111:E:/LiteOS/LiteOS_Lab/drivers/third_party/ST/STM32L4xx_HAL_Driver/Src\stm32l4xx_hal_spi.c ****        |=========|================|==========|==========|===========|==========|===========|=======
 112:E:/LiteOS/LiteOS_Lab/drivers/third_party/ST/STM32L4xx_HAL_Driver/Src\stm32l4xx_hal_spi.c ****        |         |     Polling    | Fpclk/8  | Fpclk/2  |     NA    |    NA    | Fpclk/8   | Fpclk/
 113:E:/LiteOS/LiteOS_Lab/drivers/third_party/ST/STM32L4xx_HAL_Driver/Src\stm32l4xx_hal_spi.c ****        |         |----------------|----------|----------|-----------|----------|-----------|-------
 114:E:/LiteOS/LiteOS_Lab/drivers/third_party/ST/STM32L4xx_HAL_Driver/Src\stm32l4xx_hal_spi.c ****        |    T    |     Interrupt  | Fpclk/2  | Fpclk/4  |     NA    |    NA    | Fpclk/16  | Fpclk/
 115:E:/LiteOS/LiteOS_Lab/drivers/third_party/ST/STM32L4xx_HAL_Driver/Src\stm32l4xx_hal_spi.c ****        |    X    |----------------|----------|----------|-----------|----------|-----------|-------
 116:E:/LiteOS/LiteOS_Lab/drivers/third_party/ST/STM32L4xx_HAL_Driver/Src\stm32l4xx_hal_spi.c ****        |         |       DMA      | Fpclk/2  | Fpclk/2  |     NA    |    NA    | Fpclk/8   | Fpclk/
 117:E:/LiteOS/LiteOS_Lab/drivers/third_party/ST/STM32L4xx_HAL_Driver/Src\stm32l4xx_hal_spi.c ****        +-------------------------------------------------------------------------------------------
 118:E:/LiteOS/LiteOS_Lab/drivers/third_party/ST/STM32L4xx_HAL_Driver/Src\stm32l4xx_hal_spi.c ****        @note The max SPI frequency depend on SPI data size (4bits, 5bits,..., 8bits,...15bits, 16bi
 119:E:/LiteOS/LiteOS_Lab/drivers/third_party/ST/STM32L4xx_HAL_Driver/Src\stm32l4xx_hal_spi.c ****              SPI mode(2 Lines fullduplex, 2 lines RxOnly, 1 line TX/RX) and Process mode (Polling, 
 120:E:/LiteOS/LiteOS_Lab/drivers/third_party/ST/STM32L4xx_HAL_Driver/Src\stm32l4xx_hal_spi.c ****        @note
 121:E:/LiteOS/LiteOS_Lab/drivers/third_party/ST/STM32L4xx_HAL_Driver/Src\stm32l4xx_hal_spi.c ****             (#) TX/RX processes are HAL_SPI_TransmitReceive(), HAL_SPI_TransmitReceive_IT() and HAL
 122:E:/LiteOS/LiteOS_Lab/drivers/third_party/ST/STM32L4xx_HAL_Driver/Src\stm32l4xx_hal_spi.c ****             (#) RX processes are HAL_SPI_Receive(), HAL_SPI_Receive_IT() and HAL_SPI_Receive_DMA()
 123:E:/LiteOS/LiteOS_Lab/drivers/third_party/ST/STM32L4xx_HAL_Driver/Src\stm32l4xx_hal_spi.c ****             (#) TX processes are HAL_SPI_Transmit(), HAL_SPI_Transmit_IT() and HAL_SPI_Transmit_DMA
 124:E:/LiteOS/LiteOS_Lab/drivers/third_party/ST/STM32L4xx_HAL_Driver/Src\stm32l4xx_hal_spi.c **** 
 125:E:/LiteOS/LiteOS_Lab/drivers/third_party/ST/STM32L4xx_HAL_Driver/Src\stm32l4xx_hal_spi.c ****   ******************************************************************************
 126:E:/LiteOS/LiteOS_Lab/drivers/third_party/ST/STM32L4xx_HAL_Driver/Src\stm32l4xx_hal_spi.c ****   * @attention
 127:E:/LiteOS/LiteOS_Lab/drivers/third_party/ST/STM32L4xx_HAL_Driver/Src\stm32l4xx_hal_spi.c ****   *
 128:E:/LiteOS/LiteOS_Lab/drivers/third_party/ST/STM32L4xx_HAL_Driver/Src\stm32l4xx_hal_spi.c ****   * <h2><center>&copy; COPYRIGHT(c) 2017 STMicroelectronics</center></h2>
 129:E:/LiteOS/LiteOS_Lab/drivers/third_party/ST/STM32L4xx_HAL_Driver/Src\stm32l4xx_hal_spi.c ****   *
 130:E:/LiteOS/LiteOS_Lab/drivers/third_party/ST/STM32L4xx_HAL_Driver/Src\stm32l4xx_hal_spi.c ****   * Redistribution and use in source and binary forms, with or without modification,
 131:E:/LiteOS/LiteOS_Lab/drivers/third_party/ST/STM32L4xx_HAL_Driver/Src\stm32l4xx_hal_spi.c ****   * are permitted provided that the following conditions are met:
 132:E:/LiteOS/LiteOS_Lab/drivers/third_party/ST/STM32L4xx_HAL_Driver/Src\stm32l4xx_hal_spi.c ****   *   1. Redistributions of source code must retain the above copyright notice,
 133:E:/LiteOS/LiteOS_Lab/drivers/third_party/ST/STM32L4xx_HAL_Driver/Src\stm32l4xx_hal_spi.c ****   *      this list of conditions and the following disclaimer.
 134:E:/LiteOS/LiteOS_Lab/drivers/third_party/ST/STM32L4xx_HAL_Driver/Src\stm32l4xx_hal_spi.c ****   *   2. Redistributions in binary form must reproduce the above copyright notice,
 135:E:/LiteOS/LiteOS_Lab/drivers/third_party/ST/STM32L4xx_HAL_Driver/Src\stm32l4xx_hal_spi.c ****   *      this list of conditions and the following disclaimer in the documentation
 136:E:/LiteOS/LiteOS_Lab/drivers/third_party/ST/STM32L4xx_HAL_Driver/Src\stm32l4xx_hal_spi.c ****   *      and/or other materials provided with the distribution.
 137:E:/LiteOS/LiteOS_Lab/drivers/third_party/ST/STM32L4xx_HAL_Driver/Src\stm32l4xx_hal_spi.c ****   *   3. Neither the name of STMicroelectronics nor the names of its contributors
 138:E:/LiteOS/LiteOS_Lab/drivers/third_party/ST/STM32L4xx_HAL_Driver/Src\stm32l4xx_hal_spi.c ****   *      may be used to endorse or promote products derived from this software
 139:E:/LiteOS/LiteOS_Lab/drivers/third_party/ST/STM32L4xx_HAL_Driver/Src\stm32l4xx_hal_spi.c ****   *      without specific prior written permission.
 140:E:/LiteOS/LiteOS_Lab/drivers/third_party/ST/STM32L4xx_HAL_Driver/Src\stm32l4xx_hal_spi.c ****   *
 141:E:/LiteOS/LiteOS_Lab/drivers/third_party/ST/STM32L4xx_HAL_Driver/Src\stm32l4xx_hal_spi.c ****   * THIS SOFTWARE IS PROVIDED BY THE COPYRIGHT HOLDERS AND CONTRIBUTORS "AS IS"
 142:E:/LiteOS/LiteOS_Lab/drivers/third_party/ST/STM32L4xx_HAL_Driver/Src\stm32l4xx_hal_spi.c ****   * AND ANY EXPRESS OR IMPLIED WARRANTIES, INCLUDING, BUT NOT LIMITED TO, THE
 143:E:/LiteOS/LiteOS_Lab/drivers/third_party/ST/STM32L4xx_HAL_Driver/Src\stm32l4xx_hal_spi.c ****   * IMPLIED WARRANTIES OF MERCHANTABILITY AND FITNESS FOR A PARTICULAR PURPOSE ARE
 144:E:/LiteOS/LiteOS_Lab/drivers/third_party/ST/STM32L4xx_HAL_Driver/Src\stm32l4xx_hal_spi.c ****   * DISCLAIMED. IN NO EVENT SHALL THE COPYRIGHT HOLDER OR CONTRIBUTORS BE LIABLE
 145:E:/LiteOS/LiteOS_Lab/drivers/third_party/ST/STM32L4xx_HAL_Driver/Src\stm32l4xx_hal_spi.c ****   * FOR ANY DIRECT, INDIRECT, INCIDENTAL, SPECIAL, EXEMPLARY, OR CONSEQUENTIAL
ARM GAS  C:\Users\user\AppData\Local\Temp\ccvQ1M9B.s 			page 4


 146:E:/LiteOS/LiteOS_Lab/drivers/third_party/ST/STM32L4xx_HAL_Driver/Src\stm32l4xx_hal_spi.c ****   * DAMAGES (INCLUDING, BUT NOT LIMITED TO, PROCUREMENT OF SUBSTITUTE GOODS OR
 147:E:/LiteOS/LiteOS_Lab/drivers/third_party/ST/STM32L4xx_HAL_Driver/Src\stm32l4xx_hal_spi.c ****   * SERVICES; LOSS OF USE, DATA, OR PROFITS; OR BUSINESS INTERRUPTION) HOWEVER
 148:E:/LiteOS/LiteOS_Lab/drivers/third_party/ST/STM32L4xx_HAL_Driver/Src\stm32l4xx_hal_spi.c ****   * CAUSED AND ON ANY THEORY OF LIABILITY, WHETHER IN CONTRACT, STRICT LIABILITY,
 149:E:/LiteOS/LiteOS_Lab/drivers/third_party/ST/STM32L4xx_HAL_Driver/Src\stm32l4xx_hal_spi.c ****   * OR TORT (INCLUDING NEGLIGENCE OR OTHERWISE) ARISING IN ANY WAY OUT OF THE USE
 150:E:/LiteOS/LiteOS_Lab/drivers/third_party/ST/STM32L4xx_HAL_Driver/Src\stm32l4xx_hal_spi.c ****   * OF THIS SOFTWARE, EVEN IF ADVISED OF THE POSSIBILITY OF SUCH DAMAGE.
 151:E:/LiteOS/LiteOS_Lab/drivers/third_party/ST/STM32L4xx_HAL_Driver/Src\stm32l4xx_hal_spi.c ****   *
 152:E:/LiteOS/LiteOS_Lab/drivers/third_party/ST/STM32L4xx_HAL_Driver/Src\stm32l4xx_hal_spi.c ****   ******************************************************************************
 153:E:/LiteOS/LiteOS_Lab/drivers/third_party/ST/STM32L4xx_HAL_Driver/Src\stm32l4xx_hal_spi.c ****   */
 154:E:/LiteOS/LiteOS_Lab/drivers/third_party/ST/STM32L4xx_HAL_Driver/Src\stm32l4xx_hal_spi.c **** 
 155:E:/LiteOS/LiteOS_Lab/drivers/third_party/ST/STM32L4xx_HAL_Driver/Src\stm32l4xx_hal_spi.c **** /* Includes ------------------------------------------------------------------*/
 156:E:/LiteOS/LiteOS_Lab/drivers/third_party/ST/STM32L4xx_HAL_Driver/Src\stm32l4xx_hal_spi.c **** #include "stm32l4xx_hal.h"
 157:E:/LiteOS/LiteOS_Lab/drivers/third_party/ST/STM32L4xx_HAL_Driver/Src\stm32l4xx_hal_spi.c **** 
 158:E:/LiteOS/LiteOS_Lab/drivers/third_party/ST/STM32L4xx_HAL_Driver/Src\stm32l4xx_hal_spi.c **** /** @addtogroup STM32L4xx_HAL_Driver
 159:E:/LiteOS/LiteOS_Lab/drivers/third_party/ST/STM32L4xx_HAL_Driver/Src\stm32l4xx_hal_spi.c ****   * @{
 160:E:/LiteOS/LiteOS_Lab/drivers/third_party/ST/STM32L4xx_HAL_Driver/Src\stm32l4xx_hal_spi.c ****   */
 161:E:/LiteOS/LiteOS_Lab/drivers/third_party/ST/STM32L4xx_HAL_Driver/Src\stm32l4xx_hal_spi.c **** 
 162:E:/LiteOS/LiteOS_Lab/drivers/third_party/ST/STM32L4xx_HAL_Driver/Src\stm32l4xx_hal_spi.c **** /** @defgroup SPI SPI
 163:E:/LiteOS/LiteOS_Lab/drivers/third_party/ST/STM32L4xx_HAL_Driver/Src\stm32l4xx_hal_spi.c ****   * @brief SPI HAL module driver
 164:E:/LiteOS/LiteOS_Lab/drivers/third_party/ST/STM32L4xx_HAL_Driver/Src\stm32l4xx_hal_spi.c ****   * @{
 165:E:/LiteOS/LiteOS_Lab/drivers/third_party/ST/STM32L4xx_HAL_Driver/Src\stm32l4xx_hal_spi.c ****   */
 166:E:/LiteOS/LiteOS_Lab/drivers/third_party/ST/STM32L4xx_HAL_Driver/Src\stm32l4xx_hal_spi.c **** #ifdef HAL_SPI_MODULE_ENABLED
 167:E:/LiteOS/LiteOS_Lab/drivers/third_party/ST/STM32L4xx_HAL_Driver/Src\stm32l4xx_hal_spi.c **** 
 168:E:/LiteOS/LiteOS_Lab/drivers/third_party/ST/STM32L4xx_HAL_Driver/Src\stm32l4xx_hal_spi.c **** /* Private typedef -----------------------------------------------------------*/
 169:E:/LiteOS/LiteOS_Lab/drivers/third_party/ST/STM32L4xx_HAL_Driver/Src\stm32l4xx_hal_spi.c **** /* Private defines -----------------------------------------------------------*/
 170:E:/LiteOS/LiteOS_Lab/drivers/third_party/ST/STM32L4xx_HAL_Driver/Src\stm32l4xx_hal_spi.c **** /** @defgroup SPI_Private_Constants SPI Private Constants
 171:E:/LiteOS/LiteOS_Lab/drivers/third_party/ST/STM32L4xx_HAL_Driver/Src\stm32l4xx_hal_spi.c ****   * @{
 172:E:/LiteOS/LiteOS_Lab/drivers/third_party/ST/STM32L4xx_HAL_Driver/Src\stm32l4xx_hal_spi.c ****   */
 173:E:/LiteOS/LiteOS_Lab/drivers/third_party/ST/STM32L4xx_HAL_Driver/Src\stm32l4xx_hal_spi.c **** #define SPI_DEFAULT_TIMEOUT 100U
 174:E:/LiteOS/LiteOS_Lab/drivers/third_party/ST/STM32L4xx_HAL_Driver/Src\stm32l4xx_hal_spi.c **** /**
 175:E:/LiteOS/LiteOS_Lab/drivers/third_party/ST/STM32L4xx_HAL_Driver/Src\stm32l4xx_hal_spi.c ****   * @}
 176:E:/LiteOS/LiteOS_Lab/drivers/third_party/ST/STM32L4xx_HAL_Driver/Src\stm32l4xx_hal_spi.c ****   */
 177:E:/LiteOS/LiteOS_Lab/drivers/third_party/ST/STM32L4xx_HAL_Driver/Src\stm32l4xx_hal_spi.c **** 
 178:E:/LiteOS/LiteOS_Lab/drivers/third_party/ST/STM32L4xx_HAL_Driver/Src\stm32l4xx_hal_spi.c **** /* Private macros ------------------------------------------------------------*/
 179:E:/LiteOS/LiteOS_Lab/drivers/third_party/ST/STM32L4xx_HAL_Driver/Src\stm32l4xx_hal_spi.c **** /* Private variables ---------------------------------------------------------*/
 180:E:/LiteOS/LiteOS_Lab/drivers/third_party/ST/STM32L4xx_HAL_Driver/Src\stm32l4xx_hal_spi.c **** /* Private function prototypes -----------------------------------------------*/
 181:E:/LiteOS/LiteOS_Lab/drivers/third_party/ST/STM32L4xx_HAL_Driver/Src\stm32l4xx_hal_spi.c **** /** @defgroup SPI_Private_Functions SPI Private Functions
 182:E:/LiteOS/LiteOS_Lab/drivers/third_party/ST/STM32L4xx_HAL_Driver/Src\stm32l4xx_hal_spi.c ****   * @{
 183:E:/LiteOS/LiteOS_Lab/drivers/third_party/ST/STM32L4xx_HAL_Driver/Src\stm32l4xx_hal_spi.c ****   */
 184:E:/LiteOS/LiteOS_Lab/drivers/third_party/ST/STM32L4xx_HAL_Driver/Src\stm32l4xx_hal_spi.c **** static void SPI_DMATransmitCplt(DMA_HandleTypeDef *hdma);
 185:E:/LiteOS/LiteOS_Lab/drivers/third_party/ST/STM32L4xx_HAL_Driver/Src\stm32l4xx_hal_spi.c **** static void SPI_DMAReceiveCplt(DMA_HandleTypeDef *hdma);
 186:E:/LiteOS/LiteOS_Lab/drivers/third_party/ST/STM32L4xx_HAL_Driver/Src\stm32l4xx_hal_spi.c **** static void SPI_DMATransmitReceiveCplt(DMA_HandleTypeDef *hdma);
 187:E:/LiteOS/LiteOS_Lab/drivers/third_party/ST/STM32L4xx_HAL_Driver/Src\stm32l4xx_hal_spi.c **** static void SPI_DMAHalfTransmitCplt(DMA_HandleTypeDef *hdma);
 188:E:/LiteOS/LiteOS_Lab/drivers/third_party/ST/STM32L4xx_HAL_Driver/Src\stm32l4xx_hal_spi.c **** static void SPI_DMAHalfReceiveCplt(DMA_HandleTypeDef *hdma);
 189:E:/LiteOS/LiteOS_Lab/drivers/third_party/ST/STM32L4xx_HAL_Driver/Src\stm32l4xx_hal_spi.c **** static void SPI_DMAHalfTransmitReceiveCplt(DMA_HandleTypeDef *hdma);
 190:E:/LiteOS/LiteOS_Lab/drivers/third_party/ST/STM32L4xx_HAL_Driver/Src\stm32l4xx_hal_spi.c **** static void SPI_DMAError(DMA_HandleTypeDef *hdma);
 191:E:/LiteOS/LiteOS_Lab/drivers/third_party/ST/STM32L4xx_HAL_Driver/Src\stm32l4xx_hal_spi.c **** static void SPI_DMAAbortOnError(DMA_HandleTypeDef *hdma);
 192:E:/LiteOS/LiteOS_Lab/drivers/third_party/ST/STM32L4xx_HAL_Driver/Src\stm32l4xx_hal_spi.c **** static void SPI_DMATxAbortCallback(DMA_HandleTypeDef *hdma);
 193:E:/LiteOS/LiteOS_Lab/drivers/third_party/ST/STM32L4xx_HAL_Driver/Src\stm32l4xx_hal_spi.c **** static void SPI_DMARxAbortCallback(DMA_HandleTypeDef *hdma);
 194:E:/LiteOS/LiteOS_Lab/drivers/third_party/ST/STM32L4xx_HAL_Driver/Src\stm32l4xx_hal_spi.c **** static HAL_StatusTypeDef SPI_WaitFlagStateUntilTimeout(SPI_HandleTypeDef *hspi, uint32_t Flag, uint
 195:E:/LiteOS/LiteOS_Lab/drivers/third_party/ST/STM32L4xx_HAL_Driver/Src\stm32l4xx_hal_spi.c ****                                                        uint32_t Timeout, uint32_t Tickstart);
 196:E:/LiteOS/LiteOS_Lab/drivers/third_party/ST/STM32L4xx_HAL_Driver/Src\stm32l4xx_hal_spi.c **** static HAL_StatusTypeDef SPI_WaitFifoStateUntilTimeout(SPI_HandleTypeDef *hspi, uint32_t Fifo, uint
 197:E:/LiteOS/LiteOS_Lab/drivers/third_party/ST/STM32L4xx_HAL_Driver/Src\stm32l4xx_hal_spi.c ****                                                        uint32_t Timeout, uint32_t Tickstart);
 198:E:/LiteOS/LiteOS_Lab/drivers/third_party/ST/STM32L4xx_HAL_Driver/Src\stm32l4xx_hal_spi.c **** static void SPI_TxISR_8BIT(struct __SPI_HandleTypeDef *hspi);
 199:E:/LiteOS/LiteOS_Lab/drivers/third_party/ST/STM32L4xx_HAL_Driver/Src\stm32l4xx_hal_spi.c **** static void SPI_TxISR_16BIT(struct __SPI_HandleTypeDef *hspi);
 200:E:/LiteOS/LiteOS_Lab/drivers/third_party/ST/STM32L4xx_HAL_Driver/Src\stm32l4xx_hal_spi.c **** static void SPI_RxISR_8BIT(struct __SPI_HandleTypeDef *hspi);
 201:E:/LiteOS/LiteOS_Lab/drivers/third_party/ST/STM32L4xx_HAL_Driver/Src\stm32l4xx_hal_spi.c **** static void SPI_RxISR_16BIT(struct __SPI_HandleTypeDef *hspi);
 202:E:/LiteOS/LiteOS_Lab/drivers/third_party/ST/STM32L4xx_HAL_Driver/Src\stm32l4xx_hal_spi.c **** static void SPI_2linesRxISR_8BIT(struct __SPI_HandleTypeDef *hspi);
ARM GAS  C:\Users\user\AppData\Local\Temp\ccvQ1M9B.s 			page 5


 203:E:/LiteOS/LiteOS_Lab/drivers/third_party/ST/STM32L4xx_HAL_Driver/Src\stm32l4xx_hal_spi.c **** static void SPI_2linesTxISR_8BIT(struct __SPI_HandleTypeDef *hspi);
 204:E:/LiteOS/LiteOS_Lab/drivers/third_party/ST/STM32L4xx_HAL_Driver/Src\stm32l4xx_hal_spi.c **** static void SPI_2linesTxISR_16BIT(struct __SPI_HandleTypeDef *hspi);
 205:E:/LiteOS/LiteOS_Lab/drivers/third_party/ST/STM32L4xx_HAL_Driver/Src\stm32l4xx_hal_spi.c **** static void SPI_2linesRxISR_16BIT(struct __SPI_HandleTypeDef *hspi);
 206:E:/LiteOS/LiteOS_Lab/drivers/third_party/ST/STM32L4xx_HAL_Driver/Src\stm32l4xx_hal_spi.c **** #if (USE_SPI_CRC != 0U)
 207:E:/LiteOS/LiteOS_Lab/drivers/third_party/ST/STM32L4xx_HAL_Driver/Src\stm32l4xx_hal_spi.c **** static void SPI_RxISR_8BITCRC(struct __SPI_HandleTypeDef *hspi);
 208:E:/LiteOS/LiteOS_Lab/drivers/third_party/ST/STM32L4xx_HAL_Driver/Src\stm32l4xx_hal_spi.c **** static void SPI_RxISR_16BITCRC(struct __SPI_HandleTypeDef *hspi);
 209:E:/LiteOS/LiteOS_Lab/drivers/third_party/ST/STM32L4xx_HAL_Driver/Src\stm32l4xx_hal_spi.c **** static void SPI_2linesRxISR_8BITCRC(struct __SPI_HandleTypeDef *hspi);
 210:E:/LiteOS/LiteOS_Lab/drivers/third_party/ST/STM32L4xx_HAL_Driver/Src\stm32l4xx_hal_spi.c **** static void SPI_2linesRxISR_16BITCRC(struct __SPI_HandleTypeDef *hspi);
 211:E:/LiteOS/LiteOS_Lab/drivers/third_party/ST/STM32L4xx_HAL_Driver/Src\stm32l4xx_hal_spi.c **** #endif /* USE_SPI_CRC */
 212:E:/LiteOS/LiteOS_Lab/drivers/third_party/ST/STM32L4xx_HAL_Driver/Src\stm32l4xx_hal_spi.c **** static void SPI_AbortRx_ISR(SPI_HandleTypeDef *hspi);
 213:E:/LiteOS/LiteOS_Lab/drivers/third_party/ST/STM32L4xx_HAL_Driver/Src\stm32l4xx_hal_spi.c **** static void SPI_AbortTx_ISR(SPI_HandleTypeDef *hspi);
 214:E:/LiteOS/LiteOS_Lab/drivers/third_party/ST/STM32L4xx_HAL_Driver/Src\stm32l4xx_hal_spi.c **** static void SPI_CloseRxTx_ISR(SPI_HandleTypeDef *hspi);
 215:E:/LiteOS/LiteOS_Lab/drivers/third_party/ST/STM32L4xx_HAL_Driver/Src\stm32l4xx_hal_spi.c **** static void SPI_CloseRx_ISR(SPI_HandleTypeDef *hspi);
 216:E:/LiteOS/LiteOS_Lab/drivers/third_party/ST/STM32L4xx_HAL_Driver/Src\stm32l4xx_hal_spi.c **** static void SPI_CloseTx_ISR(SPI_HandleTypeDef *hspi);
 217:E:/LiteOS/LiteOS_Lab/drivers/third_party/ST/STM32L4xx_HAL_Driver/Src\stm32l4xx_hal_spi.c **** static HAL_StatusTypeDef SPI_EndRxTransaction(SPI_HandleTypeDef *hspi, uint32_t Timeout, uint32_t T
 218:E:/LiteOS/LiteOS_Lab/drivers/third_party/ST/STM32L4xx_HAL_Driver/Src\stm32l4xx_hal_spi.c **** static HAL_StatusTypeDef SPI_EndRxTxTransaction(SPI_HandleTypeDef *hspi, uint32_t Timeout, uint32_t
 219:E:/LiteOS/LiteOS_Lab/drivers/third_party/ST/STM32L4xx_HAL_Driver/Src\stm32l4xx_hal_spi.c **** /**
 220:E:/LiteOS/LiteOS_Lab/drivers/third_party/ST/STM32L4xx_HAL_Driver/Src\stm32l4xx_hal_spi.c ****   * @}
 221:E:/LiteOS/LiteOS_Lab/drivers/third_party/ST/STM32L4xx_HAL_Driver/Src\stm32l4xx_hal_spi.c ****   */
 222:E:/LiteOS/LiteOS_Lab/drivers/third_party/ST/STM32L4xx_HAL_Driver/Src\stm32l4xx_hal_spi.c **** 
 223:E:/LiteOS/LiteOS_Lab/drivers/third_party/ST/STM32L4xx_HAL_Driver/Src\stm32l4xx_hal_spi.c **** /* Exported functions --------------------------------------------------------*/
 224:E:/LiteOS/LiteOS_Lab/drivers/third_party/ST/STM32L4xx_HAL_Driver/Src\stm32l4xx_hal_spi.c **** /** @defgroup SPI_Exported_Functions SPI Exported Functions
 225:E:/LiteOS/LiteOS_Lab/drivers/third_party/ST/STM32L4xx_HAL_Driver/Src\stm32l4xx_hal_spi.c ****   * @{
 226:E:/LiteOS/LiteOS_Lab/drivers/third_party/ST/STM32L4xx_HAL_Driver/Src\stm32l4xx_hal_spi.c ****   */
 227:E:/LiteOS/LiteOS_Lab/drivers/third_party/ST/STM32L4xx_HAL_Driver/Src\stm32l4xx_hal_spi.c **** 
 228:E:/LiteOS/LiteOS_Lab/drivers/third_party/ST/STM32L4xx_HAL_Driver/Src\stm32l4xx_hal_spi.c **** /** @defgroup SPI_Exported_Functions_Group1 Initialization and de-initialization functions
 229:E:/LiteOS/LiteOS_Lab/drivers/third_party/ST/STM32L4xx_HAL_Driver/Src\stm32l4xx_hal_spi.c ****  *  @brief    Initialization and Configuration functions
 230:E:/LiteOS/LiteOS_Lab/drivers/third_party/ST/STM32L4xx_HAL_Driver/Src\stm32l4xx_hal_spi.c ****  *
 231:E:/LiteOS/LiteOS_Lab/drivers/third_party/ST/STM32L4xx_HAL_Driver/Src\stm32l4xx_hal_spi.c **** @verbatim
 232:E:/LiteOS/LiteOS_Lab/drivers/third_party/ST/STM32L4xx_HAL_Driver/Src\stm32l4xx_hal_spi.c ****  ===============================================================================
 233:E:/LiteOS/LiteOS_Lab/drivers/third_party/ST/STM32L4xx_HAL_Driver/Src\stm32l4xx_hal_spi.c ****               ##### Initialization and de-initialization functions #####
 234:E:/LiteOS/LiteOS_Lab/drivers/third_party/ST/STM32L4xx_HAL_Driver/Src\stm32l4xx_hal_spi.c ****  ===============================================================================
 235:E:/LiteOS/LiteOS_Lab/drivers/third_party/ST/STM32L4xx_HAL_Driver/Src\stm32l4xx_hal_spi.c ****     [..]  This subsection provides a set of functions allowing to initialize and
 236:E:/LiteOS/LiteOS_Lab/drivers/third_party/ST/STM32L4xx_HAL_Driver/Src\stm32l4xx_hal_spi.c ****           de-initialize the SPIx peripheral:
 237:E:/LiteOS/LiteOS_Lab/drivers/third_party/ST/STM32L4xx_HAL_Driver/Src\stm32l4xx_hal_spi.c **** 
 238:E:/LiteOS/LiteOS_Lab/drivers/third_party/ST/STM32L4xx_HAL_Driver/Src\stm32l4xx_hal_spi.c ****       (+) User must implement HAL_SPI_MspInit() function in which he configures
 239:E:/LiteOS/LiteOS_Lab/drivers/third_party/ST/STM32L4xx_HAL_Driver/Src\stm32l4xx_hal_spi.c ****           all related peripherals resources (CLOCK, GPIO, DMA, IT and NVIC ).
 240:E:/LiteOS/LiteOS_Lab/drivers/third_party/ST/STM32L4xx_HAL_Driver/Src\stm32l4xx_hal_spi.c **** 
 241:E:/LiteOS/LiteOS_Lab/drivers/third_party/ST/STM32L4xx_HAL_Driver/Src\stm32l4xx_hal_spi.c ****       (+) Call the function HAL_SPI_Init() to configure the selected device with
 242:E:/LiteOS/LiteOS_Lab/drivers/third_party/ST/STM32L4xx_HAL_Driver/Src\stm32l4xx_hal_spi.c ****           the selected configuration:
 243:E:/LiteOS/LiteOS_Lab/drivers/third_party/ST/STM32L4xx_HAL_Driver/Src\stm32l4xx_hal_spi.c ****         (++) Mode
 244:E:/LiteOS/LiteOS_Lab/drivers/third_party/ST/STM32L4xx_HAL_Driver/Src\stm32l4xx_hal_spi.c ****         (++) Direction
 245:E:/LiteOS/LiteOS_Lab/drivers/third_party/ST/STM32L4xx_HAL_Driver/Src\stm32l4xx_hal_spi.c ****         (++) Data Size
 246:E:/LiteOS/LiteOS_Lab/drivers/third_party/ST/STM32L4xx_HAL_Driver/Src\stm32l4xx_hal_spi.c ****         (++) Clock Polarity and Phase
 247:E:/LiteOS/LiteOS_Lab/drivers/third_party/ST/STM32L4xx_HAL_Driver/Src\stm32l4xx_hal_spi.c ****         (++) NSS Management
 248:E:/LiteOS/LiteOS_Lab/drivers/third_party/ST/STM32L4xx_HAL_Driver/Src\stm32l4xx_hal_spi.c ****         (++) BaudRate Prescaler
 249:E:/LiteOS/LiteOS_Lab/drivers/third_party/ST/STM32L4xx_HAL_Driver/Src\stm32l4xx_hal_spi.c ****         (++) FirstBit
 250:E:/LiteOS/LiteOS_Lab/drivers/third_party/ST/STM32L4xx_HAL_Driver/Src\stm32l4xx_hal_spi.c ****         (++) TIMode
 251:E:/LiteOS/LiteOS_Lab/drivers/third_party/ST/STM32L4xx_HAL_Driver/Src\stm32l4xx_hal_spi.c ****         (++) CRC Calculation
 252:E:/LiteOS/LiteOS_Lab/drivers/third_party/ST/STM32L4xx_HAL_Driver/Src\stm32l4xx_hal_spi.c ****         (++) CRC Polynomial if CRC enabled
 253:E:/LiteOS/LiteOS_Lab/drivers/third_party/ST/STM32L4xx_HAL_Driver/Src\stm32l4xx_hal_spi.c ****         (++) CRC Length, used only with Data8 and Data16
 254:E:/LiteOS/LiteOS_Lab/drivers/third_party/ST/STM32L4xx_HAL_Driver/Src\stm32l4xx_hal_spi.c ****         (++) FIFO reception threshold
 255:E:/LiteOS/LiteOS_Lab/drivers/third_party/ST/STM32L4xx_HAL_Driver/Src\stm32l4xx_hal_spi.c **** 
 256:E:/LiteOS/LiteOS_Lab/drivers/third_party/ST/STM32L4xx_HAL_Driver/Src\stm32l4xx_hal_spi.c ****       (+) Call the function HAL_SPI_DeInit() to restore the default configuration
 257:E:/LiteOS/LiteOS_Lab/drivers/third_party/ST/STM32L4xx_HAL_Driver/Src\stm32l4xx_hal_spi.c ****           of the selected SPIx peripheral.
 258:E:/LiteOS/LiteOS_Lab/drivers/third_party/ST/STM32L4xx_HAL_Driver/Src\stm32l4xx_hal_spi.c **** 
 259:E:/LiteOS/LiteOS_Lab/drivers/third_party/ST/STM32L4xx_HAL_Driver/Src\stm32l4xx_hal_spi.c **** @endverbatim
ARM GAS  C:\Users\user\AppData\Local\Temp\ccvQ1M9B.s 			page 6


 260:E:/LiteOS/LiteOS_Lab/drivers/third_party/ST/STM32L4xx_HAL_Driver/Src\stm32l4xx_hal_spi.c ****   * @{
 261:E:/LiteOS/LiteOS_Lab/drivers/third_party/ST/STM32L4xx_HAL_Driver/Src\stm32l4xx_hal_spi.c ****   */
 262:E:/LiteOS/LiteOS_Lab/drivers/third_party/ST/STM32L4xx_HAL_Driver/Src\stm32l4xx_hal_spi.c **** 
 263:E:/LiteOS/LiteOS_Lab/drivers/third_party/ST/STM32L4xx_HAL_Driver/Src\stm32l4xx_hal_spi.c **** /**
 264:E:/LiteOS/LiteOS_Lab/drivers/third_party/ST/STM32L4xx_HAL_Driver/Src\stm32l4xx_hal_spi.c ****   * @brief  Initialize the SPI according to the specified parameters
 265:E:/LiteOS/LiteOS_Lab/drivers/third_party/ST/STM32L4xx_HAL_Driver/Src\stm32l4xx_hal_spi.c ****   *         in the SPI_InitTypeDef and initialize the associated handle.
 266:E:/LiteOS/LiteOS_Lab/drivers/third_party/ST/STM32L4xx_HAL_Driver/Src\stm32l4xx_hal_spi.c ****   * @param  hspi pointer to a SPI_HandleTypeDef structure that contains
 267:E:/LiteOS/LiteOS_Lab/drivers/third_party/ST/STM32L4xx_HAL_Driver/Src\stm32l4xx_hal_spi.c ****   *               the configuration information for SPI module.
 268:E:/LiteOS/LiteOS_Lab/drivers/third_party/ST/STM32L4xx_HAL_Driver/Src\stm32l4xx_hal_spi.c ****   * @retval HAL status
 269:E:/LiteOS/LiteOS_Lab/drivers/third_party/ST/STM32L4xx_HAL_Driver/Src\stm32l4xx_hal_spi.c ****   */
 270:E:/LiteOS/LiteOS_Lab/drivers/third_party/ST/STM32L4xx_HAL_Driver/Src\stm32l4xx_hal_spi.c **** HAL_StatusTypeDef HAL_SPI_Init(SPI_HandleTypeDef *hspi)
 271:E:/LiteOS/LiteOS_Lab/drivers/third_party/ST/STM32L4xx_HAL_Driver/Src\stm32l4xx_hal_spi.c **** {
  28              		.loc 1 271 0
  29              		.cfi_startproc
  30              		@ args = 0, pretend = 0, frame = 16
  31              		@ frame_needed = 1, uses_anonymous_args = 0
  32 0000 80B5     		push	{r7, lr}
  33              	.LCFI0:
  34              		.cfi_def_cfa_offset 8
  35              		.cfi_offset 7, -8
  36              		.cfi_offset 14, -4
  37 0002 84B0     		sub	sp, sp, #16
  38              	.LCFI1:
  39              		.cfi_def_cfa_offset 24
  40 0004 00AF     		add	r7, sp, #0
  41              	.LCFI2:
  42              		.cfi_def_cfa_register 7
  43 0006 7860     		str	r0, [r7, #4]
 272:E:/LiteOS/LiteOS_Lab/drivers/third_party/ST/STM32L4xx_HAL_Driver/Src\stm32l4xx_hal_spi.c ****   uint32_t frxth;
 273:E:/LiteOS/LiteOS_Lab/drivers/third_party/ST/STM32L4xx_HAL_Driver/Src\stm32l4xx_hal_spi.c **** 
 274:E:/LiteOS/LiteOS_Lab/drivers/third_party/ST/STM32L4xx_HAL_Driver/Src\stm32l4xx_hal_spi.c ****   /* Check the SPI handle allocation */
 275:E:/LiteOS/LiteOS_Lab/drivers/third_party/ST/STM32L4xx_HAL_Driver/Src\stm32l4xx_hal_spi.c ****   if (hspi == NULL)
  44              		.loc 1 275 0
  45 0008 7B68     		ldr	r3, [r7, #4]
  46 000a 002B     		cmp	r3, #0
  47 000c 01D1     		bne	.L2
 276:E:/LiteOS/LiteOS_Lab/drivers/third_party/ST/STM32L4xx_HAL_Driver/Src\stm32l4xx_hal_spi.c ****   {
 277:E:/LiteOS/LiteOS_Lab/drivers/third_party/ST/STM32L4xx_HAL_Driver/Src\stm32l4xx_hal_spi.c ****     return HAL_ERROR;
  48              		.loc 1 277 0
  49 000e 0123     		movs	r3, #1
  50 0010 7CE0     		b	.L3
  51              	.L2:
 278:E:/LiteOS/LiteOS_Lab/drivers/third_party/ST/STM32L4xx_HAL_Driver/Src\stm32l4xx_hal_spi.c ****   }
 279:E:/LiteOS/LiteOS_Lab/drivers/third_party/ST/STM32L4xx_HAL_Driver/Src\stm32l4xx_hal_spi.c **** 
 280:E:/LiteOS/LiteOS_Lab/drivers/third_party/ST/STM32L4xx_HAL_Driver/Src\stm32l4xx_hal_spi.c ****   /* Check the parameters */
 281:E:/LiteOS/LiteOS_Lab/drivers/third_party/ST/STM32L4xx_HAL_Driver/Src\stm32l4xx_hal_spi.c ****   assert_param(IS_SPI_ALL_INSTANCE(hspi->Instance));
 282:E:/LiteOS/LiteOS_Lab/drivers/third_party/ST/STM32L4xx_HAL_Driver/Src\stm32l4xx_hal_spi.c ****   assert_param(IS_SPI_MODE(hspi->Init.Mode));
 283:E:/LiteOS/LiteOS_Lab/drivers/third_party/ST/STM32L4xx_HAL_Driver/Src\stm32l4xx_hal_spi.c ****   assert_param(IS_SPI_DIRECTION(hspi->Init.Direction));
 284:E:/LiteOS/LiteOS_Lab/drivers/third_party/ST/STM32L4xx_HAL_Driver/Src\stm32l4xx_hal_spi.c ****   assert_param(IS_SPI_DATASIZE(hspi->Init.DataSize));
 285:E:/LiteOS/LiteOS_Lab/drivers/third_party/ST/STM32L4xx_HAL_Driver/Src\stm32l4xx_hal_spi.c ****   assert_param(IS_SPI_NSS(hspi->Init.NSS));
 286:E:/LiteOS/LiteOS_Lab/drivers/third_party/ST/STM32L4xx_HAL_Driver/Src\stm32l4xx_hal_spi.c ****   assert_param(IS_SPI_NSSP(hspi->Init.NSSPMode));
 287:E:/LiteOS/LiteOS_Lab/drivers/third_party/ST/STM32L4xx_HAL_Driver/Src\stm32l4xx_hal_spi.c ****   assert_param(IS_SPI_BAUDRATE_PRESCALER(hspi->Init.BaudRatePrescaler));
 288:E:/LiteOS/LiteOS_Lab/drivers/third_party/ST/STM32L4xx_HAL_Driver/Src\stm32l4xx_hal_spi.c ****   assert_param(IS_SPI_FIRST_BIT(hspi->Init.FirstBit));
 289:E:/LiteOS/LiteOS_Lab/drivers/third_party/ST/STM32L4xx_HAL_Driver/Src\stm32l4xx_hal_spi.c ****   assert_param(IS_SPI_TIMODE(hspi->Init.TIMode));
 290:E:/LiteOS/LiteOS_Lab/drivers/third_party/ST/STM32L4xx_HAL_Driver/Src\stm32l4xx_hal_spi.c ****   if (hspi->Init.TIMode == SPI_TIMODE_DISABLE)
 291:E:/LiteOS/LiteOS_Lab/drivers/third_party/ST/STM32L4xx_HAL_Driver/Src\stm32l4xx_hal_spi.c ****   {
 292:E:/LiteOS/LiteOS_Lab/drivers/third_party/ST/STM32L4xx_HAL_Driver/Src\stm32l4xx_hal_spi.c ****     assert_param(IS_SPI_CPOL(hspi->Init.CLKPolarity));
ARM GAS  C:\Users\user\AppData\Local\Temp\ccvQ1M9B.s 			page 7


 293:E:/LiteOS/LiteOS_Lab/drivers/third_party/ST/STM32L4xx_HAL_Driver/Src\stm32l4xx_hal_spi.c ****     assert_param(IS_SPI_CPHA(hspi->Init.CLKPhase));
 294:E:/LiteOS/LiteOS_Lab/drivers/third_party/ST/STM32L4xx_HAL_Driver/Src\stm32l4xx_hal_spi.c ****   }
 295:E:/LiteOS/LiteOS_Lab/drivers/third_party/ST/STM32L4xx_HAL_Driver/Src\stm32l4xx_hal_spi.c **** #if (USE_SPI_CRC != 0U)
 296:E:/LiteOS/LiteOS_Lab/drivers/third_party/ST/STM32L4xx_HAL_Driver/Src\stm32l4xx_hal_spi.c ****   assert_param(IS_SPI_CRC_CALCULATION(hspi->Init.CRCCalculation));
 297:E:/LiteOS/LiteOS_Lab/drivers/third_party/ST/STM32L4xx_HAL_Driver/Src\stm32l4xx_hal_spi.c ****   if (hspi->Init.CRCCalculation == SPI_CRCCALCULATION_ENABLE)
 298:E:/LiteOS/LiteOS_Lab/drivers/third_party/ST/STM32L4xx_HAL_Driver/Src\stm32l4xx_hal_spi.c ****   {
 299:E:/LiteOS/LiteOS_Lab/drivers/third_party/ST/STM32L4xx_HAL_Driver/Src\stm32l4xx_hal_spi.c ****     assert_param(IS_SPI_CRC_POLYNOMIAL(hspi->Init.CRCPolynomial));
 300:E:/LiteOS/LiteOS_Lab/drivers/third_party/ST/STM32L4xx_HAL_Driver/Src\stm32l4xx_hal_spi.c ****     assert_param(IS_SPI_CRC_LENGTH(hspi->Init.CRCLength));
 301:E:/LiteOS/LiteOS_Lab/drivers/third_party/ST/STM32L4xx_HAL_Driver/Src\stm32l4xx_hal_spi.c ****   }
 302:E:/LiteOS/LiteOS_Lab/drivers/third_party/ST/STM32L4xx_HAL_Driver/Src\stm32l4xx_hal_spi.c **** #else
 303:E:/LiteOS/LiteOS_Lab/drivers/third_party/ST/STM32L4xx_HAL_Driver/Src\stm32l4xx_hal_spi.c ****   hspi->Init.CRCCalculation = SPI_CRCCALCULATION_DISABLE;
  52              		.loc 1 303 0
  53 0012 7B68     		ldr	r3, [r7, #4]
  54 0014 0022     		movs	r2, #0
  55 0016 9A62     		str	r2, [r3, #40]
 304:E:/LiteOS/LiteOS_Lab/drivers/third_party/ST/STM32L4xx_HAL_Driver/Src\stm32l4xx_hal_spi.c **** #endif /* USE_SPI_CRC */
 305:E:/LiteOS/LiteOS_Lab/drivers/third_party/ST/STM32L4xx_HAL_Driver/Src\stm32l4xx_hal_spi.c **** 
 306:E:/LiteOS/LiteOS_Lab/drivers/third_party/ST/STM32L4xx_HAL_Driver/Src\stm32l4xx_hal_spi.c ****   if (hspi->State == HAL_SPI_STATE_RESET)
  56              		.loc 1 306 0
  57 0018 7B68     		ldr	r3, [r7, #4]
  58 001a 93F85D30 		ldrb	r3, [r3, #93]
  59 001e DBB2     		uxtb	r3, r3
  60 0020 002B     		cmp	r3, #0
  61 0022 06D1     		bne	.L4
 307:E:/LiteOS/LiteOS_Lab/drivers/third_party/ST/STM32L4xx_HAL_Driver/Src\stm32l4xx_hal_spi.c ****   {
 308:E:/LiteOS/LiteOS_Lab/drivers/third_party/ST/STM32L4xx_HAL_Driver/Src\stm32l4xx_hal_spi.c ****     /* Allocate lock resource and initialize it */
 309:E:/LiteOS/LiteOS_Lab/drivers/third_party/ST/STM32L4xx_HAL_Driver/Src\stm32l4xx_hal_spi.c ****     hspi->Lock = HAL_UNLOCKED;
  62              		.loc 1 309 0
  63 0024 7B68     		ldr	r3, [r7, #4]
  64 0026 0022     		movs	r2, #0
  65 0028 83F85C20 		strb	r2, [r3, #92]
 310:E:/LiteOS/LiteOS_Lab/drivers/third_party/ST/STM32L4xx_HAL_Driver/Src\stm32l4xx_hal_spi.c **** 
 311:E:/LiteOS/LiteOS_Lab/drivers/third_party/ST/STM32L4xx_HAL_Driver/Src\stm32l4xx_hal_spi.c ****     /* Init the low level hardware : GPIO, CLOCK, NVIC... */
 312:E:/LiteOS/LiteOS_Lab/drivers/third_party/ST/STM32L4xx_HAL_Driver/Src\stm32l4xx_hal_spi.c ****     HAL_SPI_MspInit(hspi);
  66              		.loc 1 312 0
  67 002c 7868     		ldr	r0, [r7, #4]
  68 002e FFF7FEFF 		bl	HAL_SPI_MspInit
  69              	.L4:
 313:E:/LiteOS/LiteOS_Lab/drivers/third_party/ST/STM32L4xx_HAL_Driver/Src\stm32l4xx_hal_spi.c ****   }
 314:E:/LiteOS/LiteOS_Lab/drivers/third_party/ST/STM32L4xx_HAL_Driver/Src\stm32l4xx_hal_spi.c **** 
 315:E:/LiteOS/LiteOS_Lab/drivers/third_party/ST/STM32L4xx_HAL_Driver/Src\stm32l4xx_hal_spi.c ****   hspi->State = HAL_SPI_STATE_BUSY;
  70              		.loc 1 315 0
  71 0032 7B68     		ldr	r3, [r7, #4]
  72 0034 0222     		movs	r2, #2
  73 0036 83F85D20 		strb	r2, [r3, #93]
 316:E:/LiteOS/LiteOS_Lab/drivers/third_party/ST/STM32L4xx_HAL_Driver/Src\stm32l4xx_hal_spi.c **** 
 317:E:/LiteOS/LiteOS_Lab/drivers/third_party/ST/STM32L4xx_HAL_Driver/Src\stm32l4xx_hal_spi.c ****   /* Disable the selected SPI peripheral */
 318:E:/LiteOS/LiteOS_Lab/drivers/third_party/ST/STM32L4xx_HAL_Driver/Src\stm32l4xx_hal_spi.c ****   __HAL_SPI_DISABLE(hspi);
  74              		.loc 1 318 0
  75 003a 7B68     		ldr	r3, [r7, #4]
  76 003c 1B68     		ldr	r3, [r3]
  77 003e 1A68     		ldr	r2, [r3]
  78 0040 7B68     		ldr	r3, [r7, #4]
  79 0042 1B68     		ldr	r3, [r3]
  80 0044 22F04002 		bic	r2, r2, #64
  81 0048 1A60     		str	r2, [r3]
 319:E:/LiteOS/LiteOS_Lab/drivers/third_party/ST/STM32L4xx_HAL_Driver/Src\stm32l4xx_hal_spi.c **** 
ARM GAS  C:\Users\user\AppData\Local\Temp\ccvQ1M9B.s 			page 8


 320:E:/LiteOS/LiteOS_Lab/drivers/third_party/ST/STM32L4xx_HAL_Driver/Src\stm32l4xx_hal_spi.c ****   /* Align by default the rs fifo threshold on the data size */
 321:E:/LiteOS/LiteOS_Lab/drivers/third_party/ST/STM32L4xx_HAL_Driver/Src\stm32l4xx_hal_spi.c ****   if (hspi->Init.DataSize > SPI_DATASIZE_8BIT)
  82              		.loc 1 321 0
  83 004a 7B68     		ldr	r3, [r7, #4]
  84 004c DB68     		ldr	r3, [r3, #12]
  85 004e B3F5E06F 		cmp	r3, #1792
  86 0052 02D9     		bls	.L5
 322:E:/LiteOS/LiteOS_Lab/drivers/third_party/ST/STM32L4xx_HAL_Driver/Src\stm32l4xx_hal_spi.c ****   {
 323:E:/LiteOS/LiteOS_Lab/drivers/third_party/ST/STM32L4xx_HAL_Driver/Src\stm32l4xx_hal_spi.c ****     frxth = SPI_RXFIFO_THRESHOLD_HF;
  87              		.loc 1 323 0
  88 0054 0023     		movs	r3, #0
  89 0056 FB60     		str	r3, [r7, #12]
  90 0058 02E0     		b	.L6
  91              	.L5:
 324:E:/LiteOS/LiteOS_Lab/drivers/third_party/ST/STM32L4xx_HAL_Driver/Src\stm32l4xx_hal_spi.c ****   }
 325:E:/LiteOS/LiteOS_Lab/drivers/third_party/ST/STM32L4xx_HAL_Driver/Src\stm32l4xx_hal_spi.c ****   else
 326:E:/LiteOS/LiteOS_Lab/drivers/third_party/ST/STM32L4xx_HAL_Driver/Src\stm32l4xx_hal_spi.c ****   {
 327:E:/LiteOS/LiteOS_Lab/drivers/third_party/ST/STM32L4xx_HAL_Driver/Src\stm32l4xx_hal_spi.c ****     frxth = SPI_RXFIFO_THRESHOLD_QF;
  92              		.loc 1 327 0
  93 005a 4FF48053 		mov	r3, #4096
  94 005e FB60     		str	r3, [r7, #12]
  95              	.L6:
 328:E:/LiteOS/LiteOS_Lab/drivers/third_party/ST/STM32L4xx_HAL_Driver/Src\stm32l4xx_hal_spi.c ****   }
 329:E:/LiteOS/LiteOS_Lab/drivers/third_party/ST/STM32L4xx_HAL_Driver/Src\stm32l4xx_hal_spi.c **** 
 330:E:/LiteOS/LiteOS_Lab/drivers/third_party/ST/STM32L4xx_HAL_Driver/Src\stm32l4xx_hal_spi.c ****   /* CRC calculation is valid only for 16Bit and 8 Bit */
 331:E:/LiteOS/LiteOS_Lab/drivers/third_party/ST/STM32L4xx_HAL_Driver/Src\stm32l4xx_hal_spi.c ****   if ((hspi->Init.DataSize != SPI_DATASIZE_16BIT) && (hspi->Init.DataSize != SPI_DATASIZE_8BIT))
  96              		.loc 1 331 0
  97 0060 7B68     		ldr	r3, [r7, #4]
  98 0062 DB68     		ldr	r3, [r3, #12]
  99 0064 B3F5706F 		cmp	r3, #3840
 100 0068 07D0     		beq	.L7
 101              		.loc 1 331 0 is_stmt 0 discriminator 1
 102 006a 7B68     		ldr	r3, [r7, #4]
 103 006c DB68     		ldr	r3, [r3, #12]
 104 006e B3F5E06F 		cmp	r3, #1792
 105 0072 02D0     		beq	.L7
 332:E:/LiteOS/LiteOS_Lab/drivers/third_party/ST/STM32L4xx_HAL_Driver/Src\stm32l4xx_hal_spi.c ****   {
 333:E:/LiteOS/LiteOS_Lab/drivers/third_party/ST/STM32L4xx_HAL_Driver/Src\stm32l4xx_hal_spi.c ****     /* CRC must be disabled */
 334:E:/LiteOS/LiteOS_Lab/drivers/third_party/ST/STM32L4xx_HAL_Driver/Src\stm32l4xx_hal_spi.c ****     hspi->Init.CRCCalculation = SPI_CRCCALCULATION_DISABLE;
 106              		.loc 1 334 0 is_stmt 1
 107 0074 7B68     		ldr	r3, [r7, #4]
 108 0076 0022     		movs	r2, #0
 109 0078 9A62     		str	r2, [r3, #40]
 110              	.L7:
 335:E:/LiteOS/LiteOS_Lab/drivers/third_party/ST/STM32L4xx_HAL_Driver/Src\stm32l4xx_hal_spi.c ****   }
 336:E:/LiteOS/LiteOS_Lab/drivers/third_party/ST/STM32L4xx_HAL_Driver/Src\stm32l4xx_hal_spi.c **** 
 337:E:/LiteOS/LiteOS_Lab/drivers/third_party/ST/STM32L4xx_HAL_Driver/Src\stm32l4xx_hal_spi.c ****   /* Align the CRC Length on the data size */
 338:E:/LiteOS/LiteOS_Lab/drivers/third_party/ST/STM32L4xx_HAL_Driver/Src\stm32l4xx_hal_spi.c ****   if (hspi->Init.CRCLength == SPI_CRC_LENGTH_DATASIZE)
 111              		.loc 1 338 0
 112 007a 7B68     		ldr	r3, [r7, #4]
 113 007c 1B6B     		ldr	r3, [r3, #48]
 114 007e 002B     		cmp	r3, #0
 115 0080 0BD1     		bne	.L8
 339:E:/LiteOS/LiteOS_Lab/drivers/third_party/ST/STM32L4xx_HAL_Driver/Src\stm32l4xx_hal_spi.c ****   {
 340:E:/LiteOS/LiteOS_Lab/drivers/third_party/ST/STM32L4xx_HAL_Driver/Src\stm32l4xx_hal_spi.c ****     /* CRC Length aligned on the data size : value set by default */
 341:E:/LiteOS/LiteOS_Lab/drivers/third_party/ST/STM32L4xx_HAL_Driver/Src\stm32l4xx_hal_spi.c ****     if (hspi->Init.DataSize > SPI_DATASIZE_8BIT)
 116              		.loc 1 341 0
ARM GAS  C:\Users\user\AppData\Local\Temp\ccvQ1M9B.s 			page 9


 117 0082 7B68     		ldr	r3, [r7, #4]
 118 0084 DB68     		ldr	r3, [r3, #12]
 119 0086 B3F5E06F 		cmp	r3, #1792
 120 008a 03D9     		bls	.L9
 342:E:/LiteOS/LiteOS_Lab/drivers/third_party/ST/STM32L4xx_HAL_Driver/Src\stm32l4xx_hal_spi.c ****     {
 343:E:/LiteOS/LiteOS_Lab/drivers/third_party/ST/STM32L4xx_HAL_Driver/Src\stm32l4xx_hal_spi.c ****       hspi->Init.CRCLength = SPI_CRC_LENGTH_16BIT;
 121              		.loc 1 343 0
 122 008c 7B68     		ldr	r3, [r7, #4]
 123 008e 0222     		movs	r2, #2
 124 0090 1A63     		str	r2, [r3, #48]
 125 0092 02E0     		b	.L8
 126              	.L9:
 344:E:/LiteOS/LiteOS_Lab/drivers/third_party/ST/STM32L4xx_HAL_Driver/Src\stm32l4xx_hal_spi.c ****     }
 345:E:/LiteOS/LiteOS_Lab/drivers/third_party/ST/STM32L4xx_HAL_Driver/Src\stm32l4xx_hal_spi.c ****     else
 346:E:/LiteOS/LiteOS_Lab/drivers/third_party/ST/STM32L4xx_HAL_Driver/Src\stm32l4xx_hal_spi.c ****     {
 347:E:/LiteOS/LiteOS_Lab/drivers/third_party/ST/STM32L4xx_HAL_Driver/Src\stm32l4xx_hal_spi.c ****       hspi->Init.CRCLength = SPI_CRC_LENGTH_8BIT;
 127              		.loc 1 347 0
 128 0094 7B68     		ldr	r3, [r7, #4]
 129 0096 0122     		movs	r2, #1
 130 0098 1A63     		str	r2, [r3, #48]
 131              	.L8:
 348:E:/LiteOS/LiteOS_Lab/drivers/third_party/ST/STM32L4xx_HAL_Driver/Src\stm32l4xx_hal_spi.c ****     }
 349:E:/LiteOS/LiteOS_Lab/drivers/third_party/ST/STM32L4xx_HAL_Driver/Src\stm32l4xx_hal_spi.c ****   }
 350:E:/LiteOS/LiteOS_Lab/drivers/third_party/ST/STM32L4xx_HAL_Driver/Src\stm32l4xx_hal_spi.c **** 
 351:E:/LiteOS/LiteOS_Lab/drivers/third_party/ST/STM32L4xx_HAL_Driver/Src\stm32l4xx_hal_spi.c ****   /*----------------------- SPIx CR1 & CR2 Configuration ---------------------*/
 352:E:/LiteOS/LiteOS_Lab/drivers/third_party/ST/STM32L4xx_HAL_Driver/Src\stm32l4xx_hal_spi.c ****   /* Configure : SPI Mode, Communication Mode, Clock polarity and phase, NSS management,
 353:E:/LiteOS/LiteOS_Lab/drivers/third_party/ST/STM32L4xx_HAL_Driver/Src\stm32l4xx_hal_spi.c ****   Communication speed, First bit and CRC calculation state */
 354:E:/LiteOS/LiteOS_Lab/drivers/third_party/ST/STM32L4xx_HAL_Driver/Src\stm32l4xx_hal_spi.c ****   WRITE_REG(hspi->Instance->CR1, (hspi->Init.Mode | hspi->Init.Direction |
 132              		.loc 1 354 0
 133 009a 7B68     		ldr	r3, [r7, #4]
 134 009c 5A68     		ldr	r2, [r3, #4]
 135 009e 7B68     		ldr	r3, [r7, #4]
 136 00a0 9B68     		ldr	r3, [r3, #8]
 137 00a2 1A43     		orrs	r2, r2, r3
 138 00a4 7B68     		ldr	r3, [r7, #4]
 139 00a6 1B69     		ldr	r3, [r3, #16]
 140 00a8 1A43     		orrs	r2, r2, r3
 141 00aa 7B68     		ldr	r3, [r7, #4]
 142 00ac 5B69     		ldr	r3, [r3, #20]
 143 00ae 1A43     		orrs	r2, r2, r3
 144 00b0 7B68     		ldr	r3, [r7, #4]
 145 00b2 9B69     		ldr	r3, [r3, #24]
 146 00b4 03F40073 		and	r3, r3, #512
 147 00b8 1A43     		orrs	r2, r2, r3
 148 00ba 7B68     		ldr	r3, [r7, #4]
 149 00bc DB69     		ldr	r3, [r3, #28]
 150 00be 1A43     		orrs	r2, r2, r3
 151 00c0 7B68     		ldr	r3, [r7, #4]
 152 00c2 1B6A     		ldr	r3, [r3, #32]
 153 00c4 42EA0301 		orr	r1, r2, r3
 154 00c8 7B68     		ldr	r3, [r7, #4]
 155 00ca 9A6A     		ldr	r2, [r3, #40]
 156 00cc 7B68     		ldr	r3, [r7, #4]
 157 00ce 1B68     		ldr	r3, [r3]
 158 00d0 0A43     		orrs	r2, r2, r1
 159 00d2 1A60     		str	r2, [r3]
 355:E:/LiteOS/LiteOS_Lab/drivers/third_party/ST/STM32L4xx_HAL_Driver/Src\stm32l4xx_hal_spi.c ****                                   hspi->Init.CLKPolarity | hspi->Init.CLKPhase | (hspi->Init.NSS & 
ARM GAS  C:\Users\user\AppData\Local\Temp\ccvQ1M9B.s 			page 10


 356:E:/LiteOS/LiteOS_Lab/drivers/third_party/ST/STM32L4xx_HAL_Driver/Src\stm32l4xx_hal_spi.c ****                                   hspi->Init.BaudRatePrescaler | hspi->Init.FirstBit  | hspi->Init.
 357:E:/LiteOS/LiteOS_Lab/drivers/third_party/ST/STM32L4xx_HAL_Driver/Src\stm32l4xx_hal_spi.c **** #if (USE_SPI_CRC != 0U)
 358:E:/LiteOS/LiteOS_Lab/drivers/third_party/ST/STM32L4xx_HAL_Driver/Src\stm32l4xx_hal_spi.c ****   /* Configure : CRC Length */
 359:E:/LiteOS/LiteOS_Lab/drivers/third_party/ST/STM32L4xx_HAL_Driver/Src\stm32l4xx_hal_spi.c ****   if (hspi->Init.CRCLength == SPI_CRC_LENGTH_16BIT)
 360:E:/LiteOS/LiteOS_Lab/drivers/third_party/ST/STM32L4xx_HAL_Driver/Src\stm32l4xx_hal_spi.c ****   {
 361:E:/LiteOS/LiteOS_Lab/drivers/third_party/ST/STM32L4xx_HAL_Driver/Src\stm32l4xx_hal_spi.c ****     hspi->Instance->CR1 |= SPI_CR1_CRCL;
 362:E:/LiteOS/LiteOS_Lab/drivers/third_party/ST/STM32L4xx_HAL_Driver/Src\stm32l4xx_hal_spi.c ****   }
 363:E:/LiteOS/LiteOS_Lab/drivers/third_party/ST/STM32L4xx_HAL_Driver/Src\stm32l4xx_hal_spi.c **** #endif /* USE_SPI_CRC */
 364:E:/LiteOS/LiteOS_Lab/drivers/third_party/ST/STM32L4xx_HAL_Driver/Src\stm32l4xx_hal_spi.c **** 
 365:E:/LiteOS/LiteOS_Lab/drivers/third_party/ST/STM32L4xx_HAL_Driver/Src\stm32l4xx_hal_spi.c ****   /* Configure : NSS management, TI Mode, NSS Pulse, Data size and Rx Fifo threshold */
 366:E:/LiteOS/LiteOS_Lab/drivers/third_party/ST/STM32L4xx_HAL_Driver/Src\stm32l4xx_hal_spi.c ****   WRITE_REG(hspi->Instance->CR2, (((hspi->Init.NSS >> 16U) & SPI_CR2_SSOE) | hspi->Init.TIMode |
 160              		.loc 1 366 0
 161 00d4 7B68     		ldr	r3, [r7, #4]
 162 00d6 9B69     		ldr	r3, [r3, #24]
 163 00d8 1B0C     		lsrs	r3, r3, #16
 164 00da 03F00402 		and	r2, r3, #4
 165 00de 7B68     		ldr	r3, [r7, #4]
 166 00e0 5B6A     		ldr	r3, [r3, #36]
 167 00e2 1A43     		orrs	r2, r2, r3
 168 00e4 7B68     		ldr	r3, [r7, #4]
 169 00e6 5B6B     		ldr	r3, [r3, #52]
 170 00e8 1A43     		orrs	r2, r2, r3
 171 00ea 7B68     		ldr	r3, [r7, #4]
 172 00ec DB68     		ldr	r3, [r3, #12]
 173 00ee 42EA0301 		orr	r1, r2, r3
 174 00f2 7B68     		ldr	r3, [r7, #4]
 175 00f4 1B68     		ldr	r3, [r3]
 176 00f6 FA68     		ldr	r2, [r7, #12]
 177 00f8 0A43     		orrs	r2, r2, r1
 178 00fa 5A60     		str	r2, [r3, #4]
 367:E:/LiteOS/LiteOS_Lab/drivers/third_party/ST/STM32L4xx_HAL_Driver/Src\stm32l4xx_hal_spi.c ****                                   hspi->Init.NSSPMode | hspi->Init.DataSize) | frxth);
 368:E:/LiteOS/LiteOS_Lab/drivers/third_party/ST/STM32L4xx_HAL_Driver/Src\stm32l4xx_hal_spi.c **** 
 369:E:/LiteOS/LiteOS_Lab/drivers/third_party/ST/STM32L4xx_HAL_Driver/Src\stm32l4xx_hal_spi.c **** #if (USE_SPI_CRC != 0U)
 370:E:/LiteOS/LiteOS_Lab/drivers/third_party/ST/STM32L4xx_HAL_Driver/Src\stm32l4xx_hal_spi.c ****   /*---------------------------- SPIx CRCPOLY Configuration ------------------*/
 371:E:/LiteOS/LiteOS_Lab/drivers/third_party/ST/STM32L4xx_HAL_Driver/Src\stm32l4xx_hal_spi.c ****   /* Configure : CRC Polynomial */
 372:E:/LiteOS/LiteOS_Lab/drivers/third_party/ST/STM32L4xx_HAL_Driver/Src\stm32l4xx_hal_spi.c ****   if (hspi->Init.CRCCalculation == SPI_CRCCALCULATION_ENABLE)
 373:E:/LiteOS/LiteOS_Lab/drivers/third_party/ST/STM32L4xx_HAL_Driver/Src\stm32l4xx_hal_spi.c ****   {
 374:E:/LiteOS/LiteOS_Lab/drivers/third_party/ST/STM32L4xx_HAL_Driver/Src\stm32l4xx_hal_spi.c ****     WRITE_REG(hspi->Instance->CRCPR, hspi->Init.CRCPolynomial);
 375:E:/LiteOS/LiteOS_Lab/drivers/third_party/ST/STM32L4xx_HAL_Driver/Src\stm32l4xx_hal_spi.c ****   }
 376:E:/LiteOS/LiteOS_Lab/drivers/third_party/ST/STM32L4xx_HAL_Driver/Src\stm32l4xx_hal_spi.c **** #endif /* USE_SPI_CRC */
 377:E:/LiteOS/LiteOS_Lab/drivers/third_party/ST/STM32L4xx_HAL_Driver/Src\stm32l4xx_hal_spi.c **** 
 378:E:/LiteOS/LiteOS_Lab/drivers/third_party/ST/STM32L4xx_HAL_Driver/Src\stm32l4xx_hal_spi.c **** #if defined(SPI_I2SCFGR_I2SMOD)
 379:E:/LiteOS/LiteOS_Lab/drivers/third_party/ST/STM32L4xx_HAL_Driver/Src\stm32l4xx_hal_spi.c ****   /* Activate the SPI mode (Make sure that I2SMOD bit in I2SCFGR register is reset) */
 380:E:/LiteOS/LiteOS_Lab/drivers/third_party/ST/STM32L4xx_HAL_Driver/Src\stm32l4xx_hal_spi.c ****   CLEAR_BIT(hspi->Instance->I2SCFGR, SPI_I2SCFGR_I2SMOD);
 381:E:/LiteOS/LiteOS_Lab/drivers/third_party/ST/STM32L4xx_HAL_Driver/Src\stm32l4xx_hal_spi.c **** #endif /* SPI_I2SCFGR_I2SMOD */
 382:E:/LiteOS/LiteOS_Lab/drivers/third_party/ST/STM32L4xx_HAL_Driver/Src\stm32l4xx_hal_spi.c **** 
 383:E:/LiteOS/LiteOS_Lab/drivers/third_party/ST/STM32L4xx_HAL_Driver/Src\stm32l4xx_hal_spi.c ****   hspi->ErrorCode = HAL_SPI_ERROR_NONE;
 179              		.loc 1 383 0
 180 00fc 7B68     		ldr	r3, [r7, #4]
 181 00fe 0022     		movs	r2, #0
 182 0100 1A66     		str	r2, [r3, #96]
 384:E:/LiteOS/LiteOS_Lab/drivers/third_party/ST/STM32L4xx_HAL_Driver/Src\stm32l4xx_hal_spi.c ****   hspi->State     = HAL_SPI_STATE_READY;
 183              		.loc 1 384 0
 184 0102 7B68     		ldr	r3, [r7, #4]
 185 0104 0122     		movs	r2, #1
 186 0106 83F85D20 		strb	r2, [r3, #93]
 385:E:/LiteOS/LiteOS_Lab/drivers/third_party/ST/STM32L4xx_HAL_Driver/Src\stm32l4xx_hal_spi.c **** 
ARM GAS  C:\Users\user\AppData\Local\Temp\ccvQ1M9B.s 			page 11


 386:E:/LiteOS/LiteOS_Lab/drivers/third_party/ST/STM32L4xx_HAL_Driver/Src\stm32l4xx_hal_spi.c ****   return HAL_OK;
 187              		.loc 1 386 0
 188 010a 0023     		movs	r3, #0
 189              	.L3:
 387:E:/LiteOS/LiteOS_Lab/drivers/third_party/ST/STM32L4xx_HAL_Driver/Src\stm32l4xx_hal_spi.c **** }
 190              		.loc 1 387 0
 191 010c 1846     		mov	r0, r3
 192 010e 1037     		adds	r7, r7, #16
 193              	.LCFI3:
 194              		.cfi_def_cfa_offset 8
 195 0110 BD46     		mov	sp, r7
 196              	.LCFI4:
 197              		.cfi_def_cfa_register 13
 198              		@ sp needed
 199 0112 80BD     		pop	{r7, pc}
 200              		.cfi_endproc
 201              	.LFE133:
 203              		.section	.text.HAL_SPI_DeInit,"ax",%progbits
 204              		.align	1
 205              		.global	HAL_SPI_DeInit
 206              		.syntax unified
 207              		.thumb
 208              		.thumb_func
 209              		.fpu fpv4-sp-d16
 211              	HAL_SPI_DeInit:
 212              	.LFB134:
 388:E:/LiteOS/LiteOS_Lab/drivers/third_party/ST/STM32L4xx_HAL_Driver/Src\stm32l4xx_hal_spi.c **** 
 389:E:/LiteOS/LiteOS_Lab/drivers/third_party/ST/STM32L4xx_HAL_Driver/Src\stm32l4xx_hal_spi.c **** /**
 390:E:/LiteOS/LiteOS_Lab/drivers/third_party/ST/STM32L4xx_HAL_Driver/Src\stm32l4xx_hal_spi.c ****   * @brief  De-Initialize the SPI peripheral.
 391:E:/LiteOS/LiteOS_Lab/drivers/third_party/ST/STM32L4xx_HAL_Driver/Src\stm32l4xx_hal_spi.c ****   * @param  hspi pointer to a SPI_HandleTypeDef structure that contains
 392:E:/LiteOS/LiteOS_Lab/drivers/third_party/ST/STM32L4xx_HAL_Driver/Src\stm32l4xx_hal_spi.c ****   *               the configuration information for SPI module.
 393:E:/LiteOS/LiteOS_Lab/drivers/third_party/ST/STM32L4xx_HAL_Driver/Src\stm32l4xx_hal_spi.c ****   * @retval HAL status
 394:E:/LiteOS/LiteOS_Lab/drivers/third_party/ST/STM32L4xx_HAL_Driver/Src\stm32l4xx_hal_spi.c ****   */
 395:E:/LiteOS/LiteOS_Lab/drivers/third_party/ST/STM32L4xx_HAL_Driver/Src\stm32l4xx_hal_spi.c **** HAL_StatusTypeDef HAL_SPI_DeInit(SPI_HandleTypeDef *hspi)
 396:E:/LiteOS/LiteOS_Lab/drivers/third_party/ST/STM32L4xx_HAL_Driver/Src\stm32l4xx_hal_spi.c **** {
 213              		.loc 1 396 0
 214              		.cfi_startproc
 215              		@ args = 0, pretend = 0, frame = 8
 216              		@ frame_needed = 1, uses_anonymous_args = 0
 217 0000 80B5     		push	{r7, lr}
 218              	.LCFI5:
 219              		.cfi_def_cfa_offset 8
 220              		.cfi_offset 7, -8
 221              		.cfi_offset 14, -4
 222 0002 82B0     		sub	sp, sp, #8
 223              	.LCFI6:
 224              		.cfi_def_cfa_offset 16
 225 0004 00AF     		add	r7, sp, #0
 226              	.LCFI7:
 227              		.cfi_def_cfa_register 7
 228 0006 7860     		str	r0, [r7, #4]
 397:E:/LiteOS/LiteOS_Lab/drivers/third_party/ST/STM32L4xx_HAL_Driver/Src\stm32l4xx_hal_spi.c ****   /* Check the SPI handle allocation */
 398:E:/LiteOS/LiteOS_Lab/drivers/third_party/ST/STM32L4xx_HAL_Driver/Src\stm32l4xx_hal_spi.c ****   if (hspi == NULL)
 229              		.loc 1 398 0
 230 0008 7B68     		ldr	r3, [r7, #4]
 231 000a 002B     		cmp	r3, #0
 232 000c 01D1     		bne	.L11
ARM GAS  C:\Users\user\AppData\Local\Temp\ccvQ1M9B.s 			page 12


 399:E:/LiteOS/LiteOS_Lab/drivers/third_party/ST/STM32L4xx_HAL_Driver/Src\stm32l4xx_hal_spi.c ****   {
 400:E:/LiteOS/LiteOS_Lab/drivers/third_party/ST/STM32L4xx_HAL_Driver/Src\stm32l4xx_hal_spi.c ****     return HAL_ERROR;
 233              		.loc 1 400 0
 234 000e 0123     		movs	r3, #1
 235 0010 1AE0     		b	.L12
 236              	.L11:
 401:E:/LiteOS/LiteOS_Lab/drivers/third_party/ST/STM32L4xx_HAL_Driver/Src\stm32l4xx_hal_spi.c ****   }
 402:E:/LiteOS/LiteOS_Lab/drivers/third_party/ST/STM32L4xx_HAL_Driver/Src\stm32l4xx_hal_spi.c **** 
 403:E:/LiteOS/LiteOS_Lab/drivers/third_party/ST/STM32L4xx_HAL_Driver/Src\stm32l4xx_hal_spi.c ****   /* Check SPI Instance parameter */
 404:E:/LiteOS/LiteOS_Lab/drivers/third_party/ST/STM32L4xx_HAL_Driver/Src\stm32l4xx_hal_spi.c ****   assert_param(IS_SPI_ALL_INSTANCE(hspi->Instance));
 405:E:/LiteOS/LiteOS_Lab/drivers/third_party/ST/STM32L4xx_HAL_Driver/Src\stm32l4xx_hal_spi.c **** 
 406:E:/LiteOS/LiteOS_Lab/drivers/third_party/ST/STM32L4xx_HAL_Driver/Src\stm32l4xx_hal_spi.c ****   hspi->State = HAL_SPI_STATE_BUSY;
 237              		.loc 1 406 0
 238 0012 7B68     		ldr	r3, [r7, #4]
 239 0014 0222     		movs	r2, #2
 240 0016 83F85D20 		strb	r2, [r3, #93]
 407:E:/LiteOS/LiteOS_Lab/drivers/third_party/ST/STM32L4xx_HAL_Driver/Src\stm32l4xx_hal_spi.c **** 
 408:E:/LiteOS/LiteOS_Lab/drivers/third_party/ST/STM32L4xx_HAL_Driver/Src\stm32l4xx_hal_spi.c ****   /* Disable the SPI Peripheral Clock */
 409:E:/LiteOS/LiteOS_Lab/drivers/third_party/ST/STM32L4xx_HAL_Driver/Src\stm32l4xx_hal_spi.c ****   __HAL_SPI_DISABLE(hspi);
 241              		.loc 1 409 0
 242 001a 7B68     		ldr	r3, [r7, #4]
 243 001c 1B68     		ldr	r3, [r3]
 244 001e 1A68     		ldr	r2, [r3]
 245 0020 7B68     		ldr	r3, [r7, #4]
 246 0022 1B68     		ldr	r3, [r3]
 247 0024 22F04002 		bic	r2, r2, #64
 248 0028 1A60     		str	r2, [r3]
 410:E:/LiteOS/LiteOS_Lab/drivers/third_party/ST/STM32L4xx_HAL_Driver/Src\stm32l4xx_hal_spi.c **** 
 411:E:/LiteOS/LiteOS_Lab/drivers/third_party/ST/STM32L4xx_HAL_Driver/Src\stm32l4xx_hal_spi.c ****   /* DeInit the low level hardware: GPIO, CLOCK, NVIC... */
 412:E:/LiteOS/LiteOS_Lab/drivers/third_party/ST/STM32L4xx_HAL_Driver/Src\stm32l4xx_hal_spi.c ****   HAL_SPI_MspDeInit(hspi);
 249              		.loc 1 412 0
 250 002a 7868     		ldr	r0, [r7, #4]
 251 002c FFF7FEFF 		bl	HAL_SPI_MspDeInit
 413:E:/LiteOS/LiteOS_Lab/drivers/third_party/ST/STM32L4xx_HAL_Driver/Src\stm32l4xx_hal_spi.c **** 
 414:E:/LiteOS/LiteOS_Lab/drivers/third_party/ST/STM32L4xx_HAL_Driver/Src\stm32l4xx_hal_spi.c ****   hspi->ErrorCode = HAL_SPI_ERROR_NONE;
 252              		.loc 1 414 0
 253 0030 7B68     		ldr	r3, [r7, #4]
 254 0032 0022     		movs	r2, #0
 255 0034 1A66     		str	r2, [r3, #96]
 415:E:/LiteOS/LiteOS_Lab/drivers/third_party/ST/STM32L4xx_HAL_Driver/Src\stm32l4xx_hal_spi.c ****   hspi->State = HAL_SPI_STATE_RESET;
 256              		.loc 1 415 0
 257 0036 7B68     		ldr	r3, [r7, #4]
 258 0038 0022     		movs	r2, #0
 259 003a 83F85D20 		strb	r2, [r3, #93]
 416:E:/LiteOS/LiteOS_Lab/drivers/third_party/ST/STM32L4xx_HAL_Driver/Src\stm32l4xx_hal_spi.c **** 
 417:E:/LiteOS/LiteOS_Lab/drivers/third_party/ST/STM32L4xx_HAL_Driver/Src\stm32l4xx_hal_spi.c ****   /* Release Lock */
 418:E:/LiteOS/LiteOS_Lab/drivers/third_party/ST/STM32L4xx_HAL_Driver/Src\stm32l4xx_hal_spi.c ****   __HAL_UNLOCK(hspi);
 260              		.loc 1 418 0
 261 003e 7B68     		ldr	r3, [r7, #4]
 262 0040 0022     		movs	r2, #0
 263 0042 83F85C20 		strb	r2, [r3, #92]
 419:E:/LiteOS/LiteOS_Lab/drivers/third_party/ST/STM32L4xx_HAL_Driver/Src\stm32l4xx_hal_spi.c **** 
 420:E:/LiteOS/LiteOS_Lab/drivers/third_party/ST/STM32L4xx_HAL_Driver/Src\stm32l4xx_hal_spi.c ****   return HAL_OK;
 264              		.loc 1 420 0
 265 0046 0023     		movs	r3, #0
 266              	.L12:
 421:E:/LiteOS/LiteOS_Lab/drivers/third_party/ST/STM32L4xx_HAL_Driver/Src\stm32l4xx_hal_spi.c **** }
ARM GAS  C:\Users\user\AppData\Local\Temp\ccvQ1M9B.s 			page 13


 267              		.loc 1 421 0
 268 0048 1846     		mov	r0, r3
 269 004a 0837     		adds	r7, r7, #8
 270              	.LCFI8:
 271              		.cfi_def_cfa_offset 8
 272 004c BD46     		mov	sp, r7
 273              	.LCFI9:
 274              		.cfi_def_cfa_register 13
 275              		@ sp needed
 276 004e 80BD     		pop	{r7, pc}
 277              		.cfi_endproc
 278              	.LFE134:
 280              		.section	.text.HAL_SPI_MspInit,"ax",%progbits
 281              		.align	1
 282              		.weak	HAL_SPI_MspInit
 283              		.syntax unified
 284              		.thumb
 285              		.thumb_func
 286              		.fpu fpv4-sp-d16
 288              	HAL_SPI_MspInit:
 289              	.LFB135:
 422:E:/LiteOS/LiteOS_Lab/drivers/third_party/ST/STM32L4xx_HAL_Driver/Src\stm32l4xx_hal_spi.c **** 
 423:E:/LiteOS/LiteOS_Lab/drivers/third_party/ST/STM32L4xx_HAL_Driver/Src\stm32l4xx_hal_spi.c **** /**
 424:E:/LiteOS/LiteOS_Lab/drivers/third_party/ST/STM32L4xx_HAL_Driver/Src\stm32l4xx_hal_spi.c ****   * @brief  Initialize the SPI MSP.
 425:E:/LiteOS/LiteOS_Lab/drivers/third_party/ST/STM32L4xx_HAL_Driver/Src\stm32l4xx_hal_spi.c ****   * @param  hspi pointer to a SPI_HandleTypeDef structure that contains
 426:E:/LiteOS/LiteOS_Lab/drivers/third_party/ST/STM32L4xx_HAL_Driver/Src\stm32l4xx_hal_spi.c ****   *               the configuration information for SPI module.
 427:E:/LiteOS/LiteOS_Lab/drivers/third_party/ST/STM32L4xx_HAL_Driver/Src\stm32l4xx_hal_spi.c ****   * @retval None
 428:E:/LiteOS/LiteOS_Lab/drivers/third_party/ST/STM32L4xx_HAL_Driver/Src\stm32l4xx_hal_spi.c ****   */
 429:E:/LiteOS/LiteOS_Lab/drivers/third_party/ST/STM32L4xx_HAL_Driver/Src\stm32l4xx_hal_spi.c **** __weak void HAL_SPI_MspInit(SPI_HandleTypeDef *hspi)
 430:E:/LiteOS/LiteOS_Lab/drivers/third_party/ST/STM32L4xx_HAL_Driver/Src\stm32l4xx_hal_spi.c **** {
 290              		.loc 1 430 0
 291              		.cfi_startproc
 292              		@ args = 0, pretend = 0, frame = 8
 293              		@ frame_needed = 1, uses_anonymous_args = 0
 294              		@ link register save eliminated.
 295 0000 80B4     		push	{r7}
 296              	.LCFI10:
 297              		.cfi_def_cfa_offset 4
 298              		.cfi_offset 7, -4
 299 0002 83B0     		sub	sp, sp, #12
 300              	.LCFI11:
 301              		.cfi_def_cfa_offset 16
 302 0004 00AF     		add	r7, sp, #0
 303              	.LCFI12:
 304              		.cfi_def_cfa_register 7
 305 0006 7860     		str	r0, [r7, #4]
 431:E:/LiteOS/LiteOS_Lab/drivers/third_party/ST/STM32L4xx_HAL_Driver/Src\stm32l4xx_hal_spi.c ****   /* Prevent unused argument(s) compilation warning */
 432:E:/LiteOS/LiteOS_Lab/drivers/third_party/ST/STM32L4xx_HAL_Driver/Src\stm32l4xx_hal_spi.c ****   UNUSED(hspi);
 433:E:/LiteOS/LiteOS_Lab/drivers/third_party/ST/STM32L4xx_HAL_Driver/Src\stm32l4xx_hal_spi.c **** 
 434:E:/LiteOS/LiteOS_Lab/drivers/third_party/ST/STM32L4xx_HAL_Driver/Src\stm32l4xx_hal_spi.c ****   /* NOTE : This function should not be modified, when the callback is needed,
 435:E:/LiteOS/LiteOS_Lab/drivers/third_party/ST/STM32L4xx_HAL_Driver/Src\stm32l4xx_hal_spi.c ****             the HAL_SPI_MspInit should be implemented in the user file
 436:E:/LiteOS/LiteOS_Lab/drivers/third_party/ST/STM32L4xx_HAL_Driver/Src\stm32l4xx_hal_spi.c ****    */
 437:E:/LiteOS/LiteOS_Lab/drivers/third_party/ST/STM32L4xx_HAL_Driver/Src\stm32l4xx_hal_spi.c **** }
 306              		.loc 1 437 0
 307 0008 00BF     		nop
 308 000a 0C37     		adds	r7, r7, #12
 309              	.LCFI13:
ARM GAS  C:\Users\user\AppData\Local\Temp\ccvQ1M9B.s 			page 14


 310              		.cfi_def_cfa_offset 4
 311 000c BD46     		mov	sp, r7
 312              	.LCFI14:
 313              		.cfi_def_cfa_register 13
 314              		@ sp needed
 315 000e 5DF8047B 		ldr	r7, [sp], #4
 316              	.LCFI15:
 317              		.cfi_restore 7
 318              		.cfi_def_cfa_offset 0
 319 0012 7047     		bx	lr
 320              		.cfi_endproc
 321              	.LFE135:
 323              		.section	.text.HAL_SPI_MspDeInit,"ax",%progbits
 324              		.align	1
 325              		.weak	HAL_SPI_MspDeInit
 326              		.syntax unified
 327              		.thumb
 328              		.thumb_func
 329              		.fpu fpv4-sp-d16
 331              	HAL_SPI_MspDeInit:
 332              	.LFB136:
 438:E:/LiteOS/LiteOS_Lab/drivers/third_party/ST/STM32L4xx_HAL_Driver/Src\stm32l4xx_hal_spi.c **** 
 439:E:/LiteOS/LiteOS_Lab/drivers/third_party/ST/STM32L4xx_HAL_Driver/Src\stm32l4xx_hal_spi.c **** /**
 440:E:/LiteOS/LiteOS_Lab/drivers/third_party/ST/STM32L4xx_HAL_Driver/Src\stm32l4xx_hal_spi.c ****   * @brief  De-Initialize the SPI MSP.
 441:E:/LiteOS/LiteOS_Lab/drivers/third_party/ST/STM32L4xx_HAL_Driver/Src\stm32l4xx_hal_spi.c ****   * @param  hspi pointer to a SPI_HandleTypeDef structure that contains
 442:E:/LiteOS/LiteOS_Lab/drivers/third_party/ST/STM32L4xx_HAL_Driver/Src\stm32l4xx_hal_spi.c ****   *               the configuration information for SPI module.
 443:E:/LiteOS/LiteOS_Lab/drivers/third_party/ST/STM32L4xx_HAL_Driver/Src\stm32l4xx_hal_spi.c ****   * @retval None
 444:E:/LiteOS/LiteOS_Lab/drivers/third_party/ST/STM32L4xx_HAL_Driver/Src\stm32l4xx_hal_spi.c ****   */
 445:E:/LiteOS/LiteOS_Lab/drivers/third_party/ST/STM32L4xx_HAL_Driver/Src\stm32l4xx_hal_spi.c **** __weak void HAL_SPI_MspDeInit(SPI_HandleTypeDef *hspi)
 446:E:/LiteOS/LiteOS_Lab/drivers/third_party/ST/STM32L4xx_HAL_Driver/Src\stm32l4xx_hal_spi.c **** {
 333              		.loc 1 446 0
 334              		.cfi_startproc
 335              		@ args = 0, pretend = 0, frame = 8
 336              		@ frame_needed = 1, uses_anonymous_args = 0
 337              		@ link register save eliminated.
 338 0000 80B4     		push	{r7}
 339              	.LCFI16:
 340              		.cfi_def_cfa_offset 4
 341              		.cfi_offset 7, -4
 342 0002 83B0     		sub	sp, sp, #12
 343              	.LCFI17:
 344              		.cfi_def_cfa_offset 16
 345 0004 00AF     		add	r7, sp, #0
 346              	.LCFI18:
 347              		.cfi_def_cfa_register 7
 348 0006 7860     		str	r0, [r7, #4]
 447:E:/LiteOS/LiteOS_Lab/drivers/third_party/ST/STM32L4xx_HAL_Driver/Src\stm32l4xx_hal_spi.c ****   /* Prevent unused argument(s) compilation warning */
 448:E:/LiteOS/LiteOS_Lab/drivers/third_party/ST/STM32L4xx_HAL_Driver/Src\stm32l4xx_hal_spi.c ****   UNUSED(hspi);
 449:E:/LiteOS/LiteOS_Lab/drivers/third_party/ST/STM32L4xx_HAL_Driver/Src\stm32l4xx_hal_spi.c **** 
 450:E:/LiteOS/LiteOS_Lab/drivers/third_party/ST/STM32L4xx_HAL_Driver/Src\stm32l4xx_hal_spi.c ****   /* NOTE : This function should not be modified, when the callback is needed,
 451:E:/LiteOS/LiteOS_Lab/drivers/third_party/ST/STM32L4xx_HAL_Driver/Src\stm32l4xx_hal_spi.c ****             the HAL_SPI_MspDeInit should be implemented in the user file
 452:E:/LiteOS/LiteOS_Lab/drivers/third_party/ST/STM32L4xx_HAL_Driver/Src\stm32l4xx_hal_spi.c ****    */
 453:E:/LiteOS/LiteOS_Lab/drivers/third_party/ST/STM32L4xx_HAL_Driver/Src\stm32l4xx_hal_spi.c **** }
 349              		.loc 1 453 0
 350 0008 00BF     		nop
 351 000a 0C37     		adds	r7, r7, #12
 352              	.LCFI19:
ARM GAS  C:\Users\user\AppData\Local\Temp\ccvQ1M9B.s 			page 15


 353              		.cfi_def_cfa_offset 4
 354 000c BD46     		mov	sp, r7
 355              	.LCFI20:
 356              		.cfi_def_cfa_register 13
 357              		@ sp needed
 358 000e 5DF8047B 		ldr	r7, [sp], #4
 359              	.LCFI21:
 360              		.cfi_restore 7
 361              		.cfi_def_cfa_offset 0
 362 0012 7047     		bx	lr
 363              		.cfi_endproc
 364              	.LFE136:
 366              		.section	.text.HAL_SPI_Transmit,"ax",%progbits
 367              		.align	1
 368              		.global	HAL_SPI_Transmit
 369              		.syntax unified
 370              		.thumb
 371              		.thumb_func
 372              		.fpu fpv4-sp-d16
 374              	HAL_SPI_Transmit:
 375              	.LFB137:
 454:E:/LiteOS/LiteOS_Lab/drivers/third_party/ST/STM32L4xx_HAL_Driver/Src\stm32l4xx_hal_spi.c **** 
 455:E:/LiteOS/LiteOS_Lab/drivers/third_party/ST/STM32L4xx_HAL_Driver/Src\stm32l4xx_hal_spi.c **** /**
 456:E:/LiteOS/LiteOS_Lab/drivers/third_party/ST/STM32L4xx_HAL_Driver/Src\stm32l4xx_hal_spi.c ****   * @}
 457:E:/LiteOS/LiteOS_Lab/drivers/third_party/ST/STM32L4xx_HAL_Driver/Src\stm32l4xx_hal_spi.c ****   */
 458:E:/LiteOS/LiteOS_Lab/drivers/third_party/ST/STM32L4xx_HAL_Driver/Src\stm32l4xx_hal_spi.c **** 
 459:E:/LiteOS/LiteOS_Lab/drivers/third_party/ST/STM32L4xx_HAL_Driver/Src\stm32l4xx_hal_spi.c **** /** @defgroup SPI_Exported_Functions_Group2 IO operation functions
 460:E:/LiteOS/LiteOS_Lab/drivers/third_party/ST/STM32L4xx_HAL_Driver/Src\stm32l4xx_hal_spi.c ****  *  @brief   Data transfers functions
 461:E:/LiteOS/LiteOS_Lab/drivers/third_party/ST/STM32L4xx_HAL_Driver/Src\stm32l4xx_hal_spi.c ****  *
 462:E:/LiteOS/LiteOS_Lab/drivers/third_party/ST/STM32L4xx_HAL_Driver/Src\stm32l4xx_hal_spi.c **** @verbatim
 463:E:/LiteOS/LiteOS_Lab/drivers/third_party/ST/STM32L4xx_HAL_Driver/Src\stm32l4xx_hal_spi.c ****   ==============================================================================
 464:E:/LiteOS/LiteOS_Lab/drivers/third_party/ST/STM32L4xx_HAL_Driver/Src\stm32l4xx_hal_spi.c ****                       ##### IO operation functions #####
 465:E:/LiteOS/LiteOS_Lab/drivers/third_party/ST/STM32L4xx_HAL_Driver/Src\stm32l4xx_hal_spi.c ****  ===============================================================================
 466:E:/LiteOS/LiteOS_Lab/drivers/third_party/ST/STM32L4xx_HAL_Driver/Src\stm32l4xx_hal_spi.c ****  [..]
 467:E:/LiteOS/LiteOS_Lab/drivers/third_party/ST/STM32L4xx_HAL_Driver/Src\stm32l4xx_hal_spi.c ****     This subsection provides a set of functions allowing to manage the SPI
 468:E:/LiteOS/LiteOS_Lab/drivers/third_party/ST/STM32L4xx_HAL_Driver/Src\stm32l4xx_hal_spi.c ****     data transfers.
 469:E:/LiteOS/LiteOS_Lab/drivers/third_party/ST/STM32L4xx_HAL_Driver/Src\stm32l4xx_hal_spi.c **** 
 470:E:/LiteOS/LiteOS_Lab/drivers/third_party/ST/STM32L4xx_HAL_Driver/Src\stm32l4xx_hal_spi.c ****     [..] The SPI supports master and slave mode :
 471:E:/LiteOS/LiteOS_Lab/drivers/third_party/ST/STM32L4xx_HAL_Driver/Src\stm32l4xx_hal_spi.c **** 
 472:E:/LiteOS/LiteOS_Lab/drivers/third_party/ST/STM32L4xx_HAL_Driver/Src\stm32l4xx_hal_spi.c ****     (#) There are two modes of transfer:
 473:E:/LiteOS/LiteOS_Lab/drivers/third_party/ST/STM32L4xx_HAL_Driver/Src\stm32l4xx_hal_spi.c ****        (++) Blocking mode: The communication is performed in polling mode.
 474:E:/LiteOS/LiteOS_Lab/drivers/third_party/ST/STM32L4xx_HAL_Driver/Src\stm32l4xx_hal_spi.c ****             The HAL status of all data processing is returned by the same function
 475:E:/LiteOS/LiteOS_Lab/drivers/third_party/ST/STM32L4xx_HAL_Driver/Src\stm32l4xx_hal_spi.c ****             after finishing transfer.
 476:E:/LiteOS/LiteOS_Lab/drivers/third_party/ST/STM32L4xx_HAL_Driver/Src\stm32l4xx_hal_spi.c ****        (++) No-Blocking mode: The communication is performed using Interrupts
 477:E:/LiteOS/LiteOS_Lab/drivers/third_party/ST/STM32L4xx_HAL_Driver/Src\stm32l4xx_hal_spi.c ****             or DMA, These APIs return the HAL status.
 478:E:/LiteOS/LiteOS_Lab/drivers/third_party/ST/STM32L4xx_HAL_Driver/Src\stm32l4xx_hal_spi.c ****             The end of the data processing will be indicated through the
 479:E:/LiteOS/LiteOS_Lab/drivers/third_party/ST/STM32L4xx_HAL_Driver/Src\stm32l4xx_hal_spi.c ****             dedicated SPI IRQ when using Interrupt mode or the DMA IRQ when
 480:E:/LiteOS/LiteOS_Lab/drivers/third_party/ST/STM32L4xx_HAL_Driver/Src\stm32l4xx_hal_spi.c ****             using DMA mode.
 481:E:/LiteOS/LiteOS_Lab/drivers/third_party/ST/STM32L4xx_HAL_Driver/Src\stm32l4xx_hal_spi.c ****             The HAL_SPI_TxCpltCallback(), HAL_SPI_RxCpltCallback() and HAL_SPI_TxRxCpltCallback() u
 482:E:/LiteOS/LiteOS_Lab/drivers/third_party/ST/STM32L4xx_HAL_Driver/Src\stm32l4xx_hal_spi.c ****             will be executed respectively at the end of the transmit or Receive process
 483:E:/LiteOS/LiteOS_Lab/drivers/third_party/ST/STM32L4xx_HAL_Driver/Src\stm32l4xx_hal_spi.c ****             The HAL_SPI_ErrorCallback()user callback will be executed when a communication error is
 484:E:/LiteOS/LiteOS_Lab/drivers/third_party/ST/STM32L4xx_HAL_Driver/Src\stm32l4xx_hal_spi.c **** 
 485:E:/LiteOS/LiteOS_Lab/drivers/third_party/ST/STM32L4xx_HAL_Driver/Src\stm32l4xx_hal_spi.c ****     (#) APIs provided for these 2 transfer modes (Blocking mode or Non blocking mode using either I
 486:E:/LiteOS/LiteOS_Lab/drivers/third_party/ST/STM32L4xx_HAL_Driver/Src\stm32l4xx_hal_spi.c ****         exist for 1Line (simplex) and 2Lines (full duplex) modes.
 487:E:/LiteOS/LiteOS_Lab/drivers/third_party/ST/STM32L4xx_HAL_Driver/Src\stm32l4xx_hal_spi.c **** 
 488:E:/LiteOS/LiteOS_Lab/drivers/third_party/ST/STM32L4xx_HAL_Driver/Src\stm32l4xx_hal_spi.c **** @endverbatim
 489:E:/LiteOS/LiteOS_Lab/drivers/third_party/ST/STM32L4xx_HAL_Driver/Src\stm32l4xx_hal_spi.c ****   * @{
ARM GAS  C:\Users\user\AppData\Local\Temp\ccvQ1M9B.s 			page 16


 490:E:/LiteOS/LiteOS_Lab/drivers/third_party/ST/STM32L4xx_HAL_Driver/Src\stm32l4xx_hal_spi.c ****   */
 491:E:/LiteOS/LiteOS_Lab/drivers/third_party/ST/STM32L4xx_HAL_Driver/Src\stm32l4xx_hal_spi.c **** 
 492:E:/LiteOS/LiteOS_Lab/drivers/third_party/ST/STM32L4xx_HAL_Driver/Src\stm32l4xx_hal_spi.c **** /**
 493:E:/LiteOS/LiteOS_Lab/drivers/third_party/ST/STM32L4xx_HAL_Driver/Src\stm32l4xx_hal_spi.c ****   * @brief  Transmit an amount of data in blocking mode.
 494:E:/LiteOS/LiteOS_Lab/drivers/third_party/ST/STM32L4xx_HAL_Driver/Src\stm32l4xx_hal_spi.c ****   * @param  hspi pointer to a SPI_HandleTypeDef structure that contains
 495:E:/LiteOS/LiteOS_Lab/drivers/third_party/ST/STM32L4xx_HAL_Driver/Src\stm32l4xx_hal_spi.c ****   *               the configuration information for SPI module.
 496:E:/LiteOS/LiteOS_Lab/drivers/third_party/ST/STM32L4xx_HAL_Driver/Src\stm32l4xx_hal_spi.c ****   * @param  pData pointer to data buffer
 497:E:/LiteOS/LiteOS_Lab/drivers/third_party/ST/STM32L4xx_HAL_Driver/Src\stm32l4xx_hal_spi.c ****   * @param  Size amount of data to be sent
 498:E:/LiteOS/LiteOS_Lab/drivers/third_party/ST/STM32L4xx_HAL_Driver/Src\stm32l4xx_hal_spi.c ****   * @param  Timeout Timeout duration
 499:E:/LiteOS/LiteOS_Lab/drivers/third_party/ST/STM32L4xx_HAL_Driver/Src\stm32l4xx_hal_spi.c ****   * @retval HAL status
 500:E:/LiteOS/LiteOS_Lab/drivers/third_party/ST/STM32L4xx_HAL_Driver/Src\stm32l4xx_hal_spi.c ****   */
 501:E:/LiteOS/LiteOS_Lab/drivers/third_party/ST/STM32L4xx_HAL_Driver/Src\stm32l4xx_hal_spi.c **** HAL_StatusTypeDef HAL_SPI_Transmit(SPI_HandleTypeDef *hspi, uint8_t *pData, uint16_t Size, uint32_t
 502:E:/LiteOS/LiteOS_Lab/drivers/third_party/ST/STM32L4xx_HAL_Driver/Src\stm32l4xx_hal_spi.c **** {
 376              		.loc 1 502 0
 377              		.cfi_startproc
 378              		@ args = 0, pretend = 0, frame = 32
 379              		@ frame_needed = 1, uses_anonymous_args = 0
 380 0000 80B5     		push	{r7, lr}
 381              	.LCFI22:
 382              		.cfi_def_cfa_offset 8
 383              		.cfi_offset 7, -8
 384              		.cfi_offset 14, -4
 385 0002 88B0     		sub	sp, sp, #32
 386              	.LCFI23:
 387              		.cfi_def_cfa_offset 40
 388 0004 00AF     		add	r7, sp, #0
 389              	.LCFI24:
 390              		.cfi_def_cfa_register 7
 391 0006 F860     		str	r0, [r7, #12]
 392 0008 B960     		str	r1, [r7, #8]
 393 000a 3B60     		str	r3, [r7]
 394 000c 1346     		mov	r3, r2	@ movhi
 395 000e FB80     		strh	r3, [r7, #6]	@ movhi
 503:E:/LiteOS/LiteOS_Lab/drivers/third_party/ST/STM32L4xx_HAL_Driver/Src\stm32l4xx_hal_spi.c ****   uint32_t tickstart = 0U;
 396              		.loc 1 503 0
 397 0010 0023     		movs	r3, #0
 398 0012 BB61     		str	r3, [r7, #24]
 504:E:/LiteOS/LiteOS_Lab/drivers/third_party/ST/STM32L4xx_HAL_Driver/Src\stm32l4xx_hal_spi.c ****   HAL_StatusTypeDef errorcode = HAL_OK;
 399              		.loc 1 504 0
 400 0014 0023     		movs	r3, #0
 401 0016 FB77     		strb	r3, [r7, #31]
 505:E:/LiteOS/LiteOS_Lab/drivers/third_party/ST/STM32L4xx_HAL_Driver/Src\stm32l4xx_hal_spi.c **** 
 506:E:/LiteOS/LiteOS_Lab/drivers/third_party/ST/STM32L4xx_HAL_Driver/Src\stm32l4xx_hal_spi.c ****   /* Check Direction parameter */
 507:E:/LiteOS/LiteOS_Lab/drivers/third_party/ST/STM32L4xx_HAL_Driver/Src\stm32l4xx_hal_spi.c ****   assert_param(IS_SPI_DIRECTION_2LINES_OR_1LINE(hspi->Init.Direction));
 508:E:/LiteOS/LiteOS_Lab/drivers/third_party/ST/STM32L4xx_HAL_Driver/Src\stm32l4xx_hal_spi.c **** 
 509:E:/LiteOS/LiteOS_Lab/drivers/third_party/ST/STM32L4xx_HAL_Driver/Src\stm32l4xx_hal_spi.c ****   /* Process Locked */
 510:E:/LiteOS/LiteOS_Lab/drivers/third_party/ST/STM32L4xx_HAL_Driver/Src\stm32l4xx_hal_spi.c ****   __HAL_LOCK(hspi);
 402              		.loc 1 510 0
 403 0018 FB68     		ldr	r3, [r7, #12]
 404 001a 93F85C30 		ldrb	r3, [r3, #92]	@ zero_extendqisi2
 405 001e 012B     		cmp	r3, #1
 406 0020 01D1     		bne	.L16
 407              		.loc 1 510 0 is_stmt 0 discriminator 1
 408 0022 0223     		movs	r3, #2
 409 0024 3EE1     		b	.L17
 410              	.L16:
 411              		.loc 1 510 0 discriminator 2
ARM GAS  C:\Users\user\AppData\Local\Temp\ccvQ1M9B.s 			page 17


 412 0026 FB68     		ldr	r3, [r7, #12]
 413 0028 0122     		movs	r2, #1
 414 002a 83F85C20 		strb	r2, [r3, #92]
 511:E:/LiteOS/LiteOS_Lab/drivers/third_party/ST/STM32L4xx_HAL_Driver/Src\stm32l4xx_hal_spi.c **** 
 512:E:/LiteOS/LiteOS_Lab/drivers/third_party/ST/STM32L4xx_HAL_Driver/Src\stm32l4xx_hal_spi.c ****   /* Init tickstart for timeout management*/
 513:E:/LiteOS/LiteOS_Lab/drivers/third_party/ST/STM32L4xx_HAL_Driver/Src\stm32l4xx_hal_spi.c ****   tickstart = HAL_GetTick();
 415              		.loc 1 513 0 is_stmt 1 discriminator 2
 416 002e FFF7FEFF 		bl	HAL_GetTick
 417 0032 B861     		str	r0, [r7, #24]
 514:E:/LiteOS/LiteOS_Lab/drivers/third_party/ST/STM32L4xx_HAL_Driver/Src\stm32l4xx_hal_spi.c **** 
 515:E:/LiteOS/LiteOS_Lab/drivers/third_party/ST/STM32L4xx_HAL_Driver/Src\stm32l4xx_hal_spi.c ****   if (hspi->State != HAL_SPI_STATE_READY)
 418              		.loc 1 515 0 discriminator 2
 419 0034 FB68     		ldr	r3, [r7, #12]
 420 0036 93F85D30 		ldrb	r3, [r3, #93]
 421 003a DBB2     		uxtb	r3, r3
 422 003c 012B     		cmp	r3, #1
 423 003e 02D0     		beq	.L18
 516:E:/LiteOS/LiteOS_Lab/drivers/third_party/ST/STM32L4xx_HAL_Driver/Src\stm32l4xx_hal_spi.c ****   {
 517:E:/LiteOS/LiteOS_Lab/drivers/third_party/ST/STM32L4xx_HAL_Driver/Src\stm32l4xx_hal_spi.c ****     errorcode = HAL_BUSY;
 424              		.loc 1 517 0
 425 0040 0223     		movs	r3, #2
 426 0042 FB77     		strb	r3, [r7, #31]
 518:E:/LiteOS/LiteOS_Lab/drivers/third_party/ST/STM32L4xx_HAL_Driver/Src\stm32l4xx_hal_spi.c ****     goto error;
 427              		.loc 1 518 0
 428 0044 25E1     		b	.L19
 429              	.L18:
 519:E:/LiteOS/LiteOS_Lab/drivers/third_party/ST/STM32L4xx_HAL_Driver/Src\stm32l4xx_hal_spi.c ****   }
 520:E:/LiteOS/LiteOS_Lab/drivers/third_party/ST/STM32L4xx_HAL_Driver/Src\stm32l4xx_hal_spi.c **** 
 521:E:/LiteOS/LiteOS_Lab/drivers/third_party/ST/STM32L4xx_HAL_Driver/Src\stm32l4xx_hal_spi.c ****   if ((pData == NULL) || (Size == 0U))
 430              		.loc 1 521 0
 431 0046 BB68     		ldr	r3, [r7, #8]
 432 0048 002B     		cmp	r3, #0
 433 004a 02D0     		beq	.L20
 434              		.loc 1 521 0 is_stmt 0 discriminator 1
 435 004c FB88     		ldrh	r3, [r7, #6]
 436 004e 002B     		cmp	r3, #0
 437 0050 02D1     		bne	.L21
 438              	.L20:
 522:E:/LiteOS/LiteOS_Lab/drivers/third_party/ST/STM32L4xx_HAL_Driver/Src\stm32l4xx_hal_spi.c ****   {
 523:E:/LiteOS/LiteOS_Lab/drivers/third_party/ST/STM32L4xx_HAL_Driver/Src\stm32l4xx_hal_spi.c ****     errorcode = HAL_ERROR;
 439              		.loc 1 523 0 is_stmt 1
 440 0052 0123     		movs	r3, #1
 441 0054 FB77     		strb	r3, [r7, #31]
 524:E:/LiteOS/LiteOS_Lab/drivers/third_party/ST/STM32L4xx_HAL_Driver/Src\stm32l4xx_hal_spi.c ****     goto error;
 442              		.loc 1 524 0
 443 0056 1CE1     		b	.L19
 444              	.L21:
 525:E:/LiteOS/LiteOS_Lab/drivers/third_party/ST/STM32L4xx_HAL_Driver/Src\stm32l4xx_hal_spi.c ****   }
 526:E:/LiteOS/LiteOS_Lab/drivers/third_party/ST/STM32L4xx_HAL_Driver/Src\stm32l4xx_hal_spi.c **** 
 527:E:/LiteOS/LiteOS_Lab/drivers/third_party/ST/STM32L4xx_HAL_Driver/Src\stm32l4xx_hal_spi.c ****   /* Set the transaction information */
 528:E:/LiteOS/LiteOS_Lab/drivers/third_party/ST/STM32L4xx_HAL_Driver/Src\stm32l4xx_hal_spi.c ****   hspi->State       = HAL_SPI_STATE_BUSY_TX;
 445              		.loc 1 528 0
 446 0058 FB68     		ldr	r3, [r7, #12]
 447 005a 0322     		movs	r2, #3
 448 005c 83F85D20 		strb	r2, [r3, #93]
 529:E:/LiteOS/LiteOS_Lab/drivers/third_party/ST/STM32L4xx_HAL_Driver/Src\stm32l4xx_hal_spi.c ****   hspi->ErrorCode   = HAL_SPI_ERROR_NONE;
 449              		.loc 1 529 0
ARM GAS  C:\Users\user\AppData\Local\Temp\ccvQ1M9B.s 			page 18


 450 0060 FB68     		ldr	r3, [r7, #12]
 451 0062 0022     		movs	r2, #0
 452 0064 1A66     		str	r2, [r3, #96]
 530:E:/LiteOS/LiteOS_Lab/drivers/third_party/ST/STM32L4xx_HAL_Driver/Src\stm32l4xx_hal_spi.c ****   hspi->pTxBuffPtr  = (uint8_t *)pData;
 453              		.loc 1 530 0
 454 0066 FB68     		ldr	r3, [r7, #12]
 455 0068 BA68     		ldr	r2, [r7, #8]
 456 006a 9A63     		str	r2, [r3, #56]
 531:E:/LiteOS/LiteOS_Lab/drivers/third_party/ST/STM32L4xx_HAL_Driver/Src\stm32l4xx_hal_spi.c ****   hspi->TxXferSize  = Size;
 457              		.loc 1 531 0
 458 006c FB68     		ldr	r3, [r7, #12]
 459 006e FA88     		ldrh	r2, [r7, #6]	@ movhi
 460 0070 9A87     		strh	r2, [r3, #60]	@ movhi
 532:E:/LiteOS/LiteOS_Lab/drivers/third_party/ST/STM32L4xx_HAL_Driver/Src\stm32l4xx_hal_spi.c ****   hspi->TxXferCount = Size;
 461              		.loc 1 532 0
 462 0072 FB68     		ldr	r3, [r7, #12]
 463 0074 FA88     		ldrh	r2, [r7, #6]	@ movhi
 464 0076 DA87     		strh	r2, [r3, #62]	@ movhi
 533:E:/LiteOS/LiteOS_Lab/drivers/third_party/ST/STM32L4xx_HAL_Driver/Src\stm32l4xx_hal_spi.c **** 
 534:E:/LiteOS/LiteOS_Lab/drivers/third_party/ST/STM32L4xx_HAL_Driver/Src\stm32l4xx_hal_spi.c ****   /*Init field not used in handle to zero */
 535:E:/LiteOS/LiteOS_Lab/drivers/third_party/ST/STM32L4xx_HAL_Driver/Src\stm32l4xx_hal_spi.c ****   hspi->pRxBuffPtr  = (uint8_t *)NULL;
 465              		.loc 1 535 0
 466 0078 FB68     		ldr	r3, [r7, #12]
 467 007a 0022     		movs	r2, #0
 468 007c 1A64     		str	r2, [r3, #64]
 536:E:/LiteOS/LiteOS_Lab/drivers/third_party/ST/STM32L4xx_HAL_Driver/Src\stm32l4xx_hal_spi.c ****   hspi->RxXferSize  = 0U;
 469              		.loc 1 536 0
 470 007e FB68     		ldr	r3, [r7, #12]
 471 0080 0022     		movs	r2, #0
 472 0082 A3F84420 		strh	r2, [r3, #68]	@ movhi
 537:E:/LiteOS/LiteOS_Lab/drivers/third_party/ST/STM32L4xx_HAL_Driver/Src\stm32l4xx_hal_spi.c ****   hspi->RxXferCount = 0U;
 473              		.loc 1 537 0
 474 0086 FB68     		ldr	r3, [r7, #12]
 475 0088 0022     		movs	r2, #0
 476 008a A3F84620 		strh	r2, [r3, #70]	@ movhi
 538:E:/LiteOS/LiteOS_Lab/drivers/third_party/ST/STM32L4xx_HAL_Driver/Src\stm32l4xx_hal_spi.c ****   hspi->TxISR       = NULL;
 477              		.loc 1 538 0
 478 008e FB68     		ldr	r3, [r7, #12]
 479 0090 0022     		movs	r2, #0
 480 0092 1A65     		str	r2, [r3, #80]
 539:E:/LiteOS/LiteOS_Lab/drivers/third_party/ST/STM32L4xx_HAL_Driver/Src\stm32l4xx_hal_spi.c ****   hspi->RxISR       = NULL;
 481              		.loc 1 539 0
 482 0094 FB68     		ldr	r3, [r7, #12]
 483 0096 0022     		movs	r2, #0
 484 0098 DA64     		str	r2, [r3, #76]
 540:E:/LiteOS/LiteOS_Lab/drivers/third_party/ST/STM32L4xx_HAL_Driver/Src\stm32l4xx_hal_spi.c **** 
 541:E:/LiteOS/LiteOS_Lab/drivers/third_party/ST/STM32L4xx_HAL_Driver/Src\stm32l4xx_hal_spi.c ****   /* Configure communication direction : 1Line */
 542:E:/LiteOS/LiteOS_Lab/drivers/third_party/ST/STM32L4xx_HAL_Driver/Src\stm32l4xx_hal_spi.c ****   if (hspi->Init.Direction == SPI_DIRECTION_1LINE)
 485              		.loc 1 542 0
 486 009a FB68     		ldr	r3, [r7, #12]
 487 009c 9B68     		ldr	r3, [r3, #8]
 488 009e B3F5004F 		cmp	r3, #32768
 489 00a2 07D1     		bne	.L22
 543:E:/LiteOS/LiteOS_Lab/drivers/third_party/ST/STM32L4xx_HAL_Driver/Src\stm32l4xx_hal_spi.c ****   {
 544:E:/LiteOS/LiteOS_Lab/drivers/third_party/ST/STM32L4xx_HAL_Driver/Src\stm32l4xx_hal_spi.c ****     SPI_1LINE_TX(hspi);
 490              		.loc 1 544 0
 491 00a4 FB68     		ldr	r3, [r7, #12]
ARM GAS  C:\Users\user\AppData\Local\Temp\ccvQ1M9B.s 			page 19


 492 00a6 1B68     		ldr	r3, [r3]
 493 00a8 1A68     		ldr	r2, [r3]
 494 00aa FB68     		ldr	r3, [r7, #12]
 495 00ac 1B68     		ldr	r3, [r3]
 496 00ae 42F48042 		orr	r2, r2, #16384
 497 00b2 1A60     		str	r2, [r3]
 498              	.L22:
 545:E:/LiteOS/LiteOS_Lab/drivers/third_party/ST/STM32L4xx_HAL_Driver/Src\stm32l4xx_hal_spi.c ****   }
 546:E:/LiteOS/LiteOS_Lab/drivers/third_party/ST/STM32L4xx_HAL_Driver/Src\stm32l4xx_hal_spi.c **** 
 547:E:/LiteOS/LiteOS_Lab/drivers/third_party/ST/STM32L4xx_HAL_Driver/Src\stm32l4xx_hal_spi.c **** #if (USE_SPI_CRC != 0U)
 548:E:/LiteOS/LiteOS_Lab/drivers/third_party/ST/STM32L4xx_HAL_Driver/Src\stm32l4xx_hal_spi.c ****   /* Reset CRC Calculation */
 549:E:/LiteOS/LiteOS_Lab/drivers/third_party/ST/STM32L4xx_HAL_Driver/Src\stm32l4xx_hal_spi.c ****   if (hspi->Init.CRCCalculation == SPI_CRCCALCULATION_ENABLE)
 550:E:/LiteOS/LiteOS_Lab/drivers/third_party/ST/STM32L4xx_HAL_Driver/Src\stm32l4xx_hal_spi.c ****   {
 551:E:/LiteOS/LiteOS_Lab/drivers/third_party/ST/STM32L4xx_HAL_Driver/Src\stm32l4xx_hal_spi.c ****     SPI_RESET_CRC(hspi);
 552:E:/LiteOS/LiteOS_Lab/drivers/third_party/ST/STM32L4xx_HAL_Driver/Src\stm32l4xx_hal_spi.c ****   }
 553:E:/LiteOS/LiteOS_Lab/drivers/third_party/ST/STM32L4xx_HAL_Driver/Src\stm32l4xx_hal_spi.c **** #endif /* USE_SPI_CRC */
 554:E:/LiteOS/LiteOS_Lab/drivers/third_party/ST/STM32L4xx_HAL_Driver/Src\stm32l4xx_hal_spi.c **** 
 555:E:/LiteOS/LiteOS_Lab/drivers/third_party/ST/STM32L4xx_HAL_Driver/Src\stm32l4xx_hal_spi.c ****   /* Check if the SPI is already enabled */
 556:E:/LiteOS/LiteOS_Lab/drivers/third_party/ST/STM32L4xx_HAL_Driver/Src\stm32l4xx_hal_spi.c ****   if ((hspi->Instance->CR1 & SPI_CR1_SPE) != SPI_CR1_SPE)
 499              		.loc 1 556 0
 500 00b4 FB68     		ldr	r3, [r7, #12]
 501 00b6 1B68     		ldr	r3, [r3]
 502 00b8 1B68     		ldr	r3, [r3]
 503 00ba 03F04003 		and	r3, r3, #64
 504 00be 402B     		cmp	r3, #64
 505 00c0 07D0     		beq	.L23
 557:E:/LiteOS/LiteOS_Lab/drivers/third_party/ST/STM32L4xx_HAL_Driver/Src\stm32l4xx_hal_spi.c ****   {
 558:E:/LiteOS/LiteOS_Lab/drivers/third_party/ST/STM32L4xx_HAL_Driver/Src\stm32l4xx_hal_spi.c ****     /* Enable SPI peripheral */
 559:E:/LiteOS/LiteOS_Lab/drivers/third_party/ST/STM32L4xx_HAL_Driver/Src\stm32l4xx_hal_spi.c ****     __HAL_SPI_ENABLE(hspi);
 506              		.loc 1 559 0
 507 00c2 FB68     		ldr	r3, [r7, #12]
 508 00c4 1B68     		ldr	r3, [r3]
 509 00c6 1A68     		ldr	r2, [r3]
 510 00c8 FB68     		ldr	r3, [r7, #12]
 511 00ca 1B68     		ldr	r3, [r3]
 512 00cc 42F04002 		orr	r2, r2, #64
 513 00d0 1A60     		str	r2, [r3]
 514              	.L23:
 560:E:/LiteOS/LiteOS_Lab/drivers/third_party/ST/STM32L4xx_HAL_Driver/Src\stm32l4xx_hal_spi.c ****   }
 561:E:/LiteOS/LiteOS_Lab/drivers/third_party/ST/STM32L4xx_HAL_Driver/Src\stm32l4xx_hal_spi.c **** 
 562:E:/LiteOS/LiteOS_Lab/drivers/third_party/ST/STM32L4xx_HAL_Driver/Src\stm32l4xx_hal_spi.c ****   /* Transmit data in 16 Bit mode */
 563:E:/LiteOS/LiteOS_Lab/drivers/third_party/ST/STM32L4xx_HAL_Driver/Src\stm32l4xx_hal_spi.c ****   if (hspi->Init.DataSize > SPI_DATASIZE_8BIT)
 515              		.loc 1 563 0
 516 00d2 FB68     		ldr	r3, [r7, #12]
 517 00d4 DB68     		ldr	r3, [r3, #12]
 518 00d6 B3F5E06F 		cmp	r3, #1792
 519 00da 47D9     		bls	.L24
 564:E:/LiteOS/LiteOS_Lab/drivers/third_party/ST/STM32L4xx_HAL_Driver/Src\stm32l4xx_hal_spi.c ****   {
 565:E:/LiteOS/LiteOS_Lab/drivers/third_party/ST/STM32L4xx_HAL_Driver/Src\stm32l4xx_hal_spi.c ****     if ((hspi->Init.Mode == SPI_MODE_SLAVE) || (hspi->TxXferCount == 0x01U))
 520              		.loc 1 565 0
 521 00dc FB68     		ldr	r3, [r7, #12]
 522 00de 5B68     		ldr	r3, [r3, #4]
 523 00e0 002B     		cmp	r3, #0
 524 00e2 04D0     		beq	.L25
 525              		.loc 1 565 0 is_stmt 0 discriminator 1
 526 00e4 FB68     		ldr	r3, [r7, #12]
 527 00e6 DB8F     		ldrh	r3, [r3, #62]	@ movhi
ARM GAS  C:\Users\user\AppData\Local\Temp\ccvQ1M9B.s 			page 20


 528 00e8 9BB2     		uxth	r3, r3
 529 00ea 012B     		cmp	r3, #1
 530 00ec 38D1     		bne	.L27
 531              	.L25:
 566:E:/LiteOS/LiteOS_Lab/drivers/third_party/ST/STM32L4xx_HAL_Driver/Src\stm32l4xx_hal_spi.c ****     {
 567:E:/LiteOS/LiteOS_Lab/drivers/third_party/ST/STM32L4xx_HAL_Driver/Src\stm32l4xx_hal_spi.c ****       hspi->Instance->DR = *((uint16_t *)pData);
 532              		.loc 1 567 0 is_stmt 1
 533 00ee BB68     		ldr	r3, [r7, #8]
 534 00f0 1A88     		ldrh	r2, [r3]
 535 00f2 FB68     		ldr	r3, [r7, #12]
 536 00f4 1B68     		ldr	r3, [r3]
 537 00f6 DA60     		str	r2, [r3, #12]
 568:E:/LiteOS/LiteOS_Lab/drivers/third_party/ST/STM32L4xx_HAL_Driver/Src\stm32l4xx_hal_spi.c ****       pData += sizeof(uint16_t);
 538              		.loc 1 568 0
 539 00f8 BB68     		ldr	r3, [r7, #8]
 540 00fa 0233     		adds	r3, r3, #2
 541 00fc BB60     		str	r3, [r7, #8]
 569:E:/LiteOS/LiteOS_Lab/drivers/third_party/ST/STM32L4xx_HAL_Driver/Src\stm32l4xx_hal_spi.c ****       hspi->TxXferCount--;
 542              		.loc 1 569 0
 543 00fe FB68     		ldr	r3, [r7, #12]
 544 0100 DB8F     		ldrh	r3, [r3, #62]	@ movhi
 545 0102 9BB2     		uxth	r3, r3
 546 0104 013B     		subs	r3, r3, #1
 547 0106 9AB2     		uxth	r2, r3
 548 0108 FB68     		ldr	r3, [r7, #12]
 549 010a DA87     		strh	r2, [r3, #62]	@ movhi
 570:E:/LiteOS/LiteOS_Lab/drivers/third_party/ST/STM32L4xx_HAL_Driver/Src\stm32l4xx_hal_spi.c ****     }
 571:E:/LiteOS/LiteOS_Lab/drivers/third_party/ST/STM32L4xx_HAL_Driver/Src\stm32l4xx_hal_spi.c ****     /* Transmit data in 16 Bit mode */
 572:E:/LiteOS/LiteOS_Lab/drivers/third_party/ST/STM32L4xx_HAL_Driver/Src\stm32l4xx_hal_spi.c ****     while (hspi->TxXferCount > 0U)
 550              		.loc 1 572 0
 551 010c 28E0     		b	.L27
 552              	.L30:
 573:E:/LiteOS/LiteOS_Lab/drivers/third_party/ST/STM32L4xx_HAL_Driver/Src\stm32l4xx_hal_spi.c ****     {
 574:E:/LiteOS/LiteOS_Lab/drivers/third_party/ST/STM32L4xx_HAL_Driver/Src\stm32l4xx_hal_spi.c ****       /* Wait until TXE flag is set to send data */
 575:E:/LiteOS/LiteOS_Lab/drivers/third_party/ST/STM32L4xx_HAL_Driver/Src\stm32l4xx_hal_spi.c ****       if (__HAL_SPI_GET_FLAG(hspi, SPI_FLAG_TXE))
 553              		.loc 1 575 0
 554 010e FB68     		ldr	r3, [r7, #12]
 555 0110 1B68     		ldr	r3, [r3]
 556 0112 9B68     		ldr	r3, [r3, #8]
 557 0114 03F00203 		and	r3, r3, #2
 558 0118 022B     		cmp	r3, #2
 559 011a 0FD1     		bne	.L28
 576:E:/LiteOS/LiteOS_Lab/drivers/third_party/ST/STM32L4xx_HAL_Driver/Src\stm32l4xx_hal_spi.c ****       {
 577:E:/LiteOS/LiteOS_Lab/drivers/third_party/ST/STM32L4xx_HAL_Driver/Src\stm32l4xx_hal_spi.c ****         hspi->Instance->DR = *((uint16_t *)pData);
 560              		.loc 1 577 0
 561 011c BB68     		ldr	r3, [r7, #8]
 562 011e 1A88     		ldrh	r2, [r3]
 563 0120 FB68     		ldr	r3, [r7, #12]
 564 0122 1B68     		ldr	r3, [r3]
 565 0124 DA60     		str	r2, [r3, #12]
 578:E:/LiteOS/LiteOS_Lab/drivers/third_party/ST/STM32L4xx_HAL_Driver/Src\stm32l4xx_hal_spi.c ****         pData += sizeof(uint16_t);
 566              		.loc 1 578 0
 567 0126 BB68     		ldr	r3, [r7, #8]
 568 0128 0233     		adds	r3, r3, #2
 569 012a BB60     		str	r3, [r7, #8]
 579:E:/LiteOS/LiteOS_Lab/drivers/third_party/ST/STM32L4xx_HAL_Driver/Src\stm32l4xx_hal_spi.c ****         hspi->TxXferCount--;
 570              		.loc 1 579 0
ARM GAS  C:\Users\user\AppData\Local\Temp\ccvQ1M9B.s 			page 21


 571 012c FB68     		ldr	r3, [r7, #12]
 572 012e DB8F     		ldrh	r3, [r3, #62]	@ movhi
 573 0130 9BB2     		uxth	r3, r3
 574 0132 013B     		subs	r3, r3, #1
 575 0134 9AB2     		uxth	r2, r3
 576 0136 FB68     		ldr	r3, [r7, #12]
 577 0138 DA87     		strh	r2, [r3, #62]	@ movhi
 578 013a 11E0     		b	.L27
 579              	.L28:
 580:E:/LiteOS/LiteOS_Lab/drivers/third_party/ST/STM32L4xx_HAL_Driver/Src\stm32l4xx_hal_spi.c ****       }
 581:E:/LiteOS/LiteOS_Lab/drivers/third_party/ST/STM32L4xx_HAL_Driver/Src\stm32l4xx_hal_spi.c ****       else
 582:E:/LiteOS/LiteOS_Lab/drivers/third_party/ST/STM32L4xx_HAL_Driver/Src\stm32l4xx_hal_spi.c ****       {
 583:E:/LiteOS/LiteOS_Lab/drivers/third_party/ST/STM32L4xx_HAL_Driver/Src\stm32l4xx_hal_spi.c ****         /* Timeout management */
 584:E:/LiteOS/LiteOS_Lab/drivers/third_party/ST/STM32L4xx_HAL_Driver/Src\stm32l4xx_hal_spi.c ****         if ((Timeout == 0U) || ((Timeout != HAL_MAX_DELAY) && ((HAL_GetTick() - tickstart) >=  Time
 580              		.loc 1 584 0
 581 013c 3B68     		ldr	r3, [r7]
 582 013e 002B     		cmp	r3, #0
 583 0140 0BD0     		beq	.L29
 584              		.loc 1 584 0 is_stmt 0 discriminator 1
 585 0142 3B68     		ldr	r3, [r7]
 586 0144 B3F1FF3F 		cmp	r3, #-1
 587 0148 0AD0     		beq	.L27
 588              		.loc 1 584 0 discriminator 2
 589 014a FFF7FEFF 		bl	HAL_GetTick
 590 014e 0246     		mov	r2, r0
 591 0150 BB69     		ldr	r3, [r7, #24]
 592 0152 D31A     		subs	r3, r2, r3
 593 0154 3A68     		ldr	r2, [r7]
 594 0156 9A42     		cmp	r2, r3
 595 0158 02D8     		bhi	.L27
 596              	.L29:
 585:E:/LiteOS/LiteOS_Lab/drivers/third_party/ST/STM32L4xx_HAL_Driver/Src\stm32l4xx_hal_spi.c ****         {
 586:E:/LiteOS/LiteOS_Lab/drivers/third_party/ST/STM32L4xx_HAL_Driver/Src\stm32l4xx_hal_spi.c ****           errorcode = HAL_TIMEOUT;
 597              		.loc 1 586 0 is_stmt 1
 598 015a 0323     		movs	r3, #3
 599 015c FB77     		strb	r3, [r7, #31]
 587:E:/LiteOS/LiteOS_Lab/drivers/third_party/ST/STM32L4xx_HAL_Driver/Src\stm32l4xx_hal_spi.c ****           goto error;
 600              		.loc 1 587 0
 601 015e 98E0     		b	.L19
 602              	.L27:
 572:E:/LiteOS/LiteOS_Lab/drivers/third_party/ST/STM32L4xx_HAL_Driver/Src\stm32l4xx_hal_spi.c ****     {
 603              		.loc 1 572 0
 604 0160 FB68     		ldr	r3, [r7, #12]
 605 0162 DB8F     		ldrh	r3, [r3, #62]	@ movhi
 606 0164 9BB2     		uxth	r3, r3
 607 0166 002B     		cmp	r3, #0
 608 0168 D1D1     		bne	.L30
 609 016a 70E0     		b	.L31
 610              	.L24:
 588:E:/LiteOS/LiteOS_Lab/drivers/third_party/ST/STM32L4xx_HAL_Driver/Src\stm32l4xx_hal_spi.c ****         }
 589:E:/LiteOS/LiteOS_Lab/drivers/third_party/ST/STM32L4xx_HAL_Driver/Src\stm32l4xx_hal_spi.c ****       }
 590:E:/LiteOS/LiteOS_Lab/drivers/third_party/ST/STM32L4xx_HAL_Driver/Src\stm32l4xx_hal_spi.c ****     }
 591:E:/LiteOS/LiteOS_Lab/drivers/third_party/ST/STM32L4xx_HAL_Driver/Src\stm32l4xx_hal_spi.c ****   }
 592:E:/LiteOS/LiteOS_Lab/drivers/third_party/ST/STM32L4xx_HAL_Driver/Src\stm32l4xx_hal_spi.c ****   /* Transmit data in 8 Bit mode */
 593:E:/LiteOS/LiteOS_Lab/drivers/third_party/ST/STM32L4xx_HAL_Driver/Src\stm32l4xx_hal_spi.c ****   else
 594:E:/LiteOS/LiteOS_Lab/drivers/third_party/ST/STM32L4xx_HAL_Driver/Src\stm32l4xx_hal_spi.c ****   {
 595:E:/LiteOS/LiteOS_Lab/drivers/third_party/ST/STM32L4xx_HAL_Driver/Src\stm32l4xx_hal_spi.c ****     if ((hspi->Init.Mode == SPI_MODE_SLAVE) || (hspi->TxXferCount == 0x01U))
ARM GAS  C:\Users\user\AppData\Local\Temp\ccvQ1M9B.s 			page 22


 611              		.loc 1 595 0
 612 016c FB68     		ldr	r3, [r7, #12]
 613 016e 5B68     		ldr	r3, [r3, #4]
 614 0170 002B     		cmp	r3, #0
 615 0172 04D0     		beq	.L32
 616              		.loc 1 595 0 is_stmt 0 discriminator 1
 617 0174 FB68     		ldr	r3, [r7, #12]
 618 0176 DB8F     		ldrh	r3, [r3, #62]	@ movhi
 619 0178 9BB2     		uxth	r3, r3
 620 017a 012B     		cmp	r3, #1
 621 017c 62D1     		bne	.L35
 622              	.L32:
 596:E:/LiteOS/LiteOS_Lab/drivers/third_party/ST/STM32L4xx_HAL_Driver/Src\stm32l4xx_hal_spi.c ****     {
 597:E:/LiteOS/LiteOS_Lab/drivers/third_party/ST/STM32L4xx_HAL_Driver/Src\stm32l4xx_hal_spi.c ****       if (hspi->TxXferCount > 1U)
 623              		.loc 1 597 0 is_stmt 1
 624 017e FB68     		ldr	r3, [r7, #12]
 625 0180 DB8F     		ldrh	r3, [r3, #62]	@ movhi
 626 0182 9BB2     		uxth	r3, r3
 627 0184 012B     		cmp	r3, #1
 628 0186 0FD9     		bls	.L34
 598:E:/LiteOS/LiteOS_Lab/drivers/third_party/ST/STM32L4xx_HAL_Driver/Src\stm32l4xx_hal_spi.c ****       {
 599:E:/LiteOS/LiteOS_Lab/drivers/third_party/ST/STM32L4xx_HAL_Driver/Src\stm32l4xx_hal_spi.c ****         /* write on the data register in packing mode */
 600:E:/LiteOS/LiteOS_Lab/drivers/third_party/ST/STM32L4xx_HAL_Driver/Src\stm32l4xx_hal_spi.c ****         hspi->Instance->DR = *((uint16_t *)pData);
 629              		.loc 1 600 0
 630 0188 BB68     		ldr	r3, [r7, #8]
 631 018a 1A88     		ldrh	r2, [r3]
 632 018c FB68     		ldr	r3, [r7, #12]
 633 018e 1B68     		ldr	r3, [r3]
 634 0190 DA60     		str	r2, [r3, #12]
 601:E:/LiteOS/LiteOS_Lab/drivers/third_party/ST/STM32L4xx_HAL_Driver/Src\stm32l4xx_hal_spi.c ****         pData += sizeof(uint16_t);
 635              		.loc 1 601 0
 636 0192 BB68     		ldr	r3, [r7, #8]
 637 0194 0233     		adds	r3, r3, #2
 638 0196 BB60     		str	r3, [r7, #8]
 602:E:/LiteOS/LiteOS_Lab/drivers/third_party/ST/STM32L4xx_HAL_Driver/Src\stm32l4xx_hal_spi.c ****         hspi->TxXferCount -= 2U;
 639              		.loc 1 602 0
 640 0198 FB68     		ldr	r3, [r7, #12]
 641 019a DB8F     		ldrh	r3, [r3, #62]	@ movhi
 642 019c 9BB2     		uxth	r3, r3
 643 019e 023B     		subs	r3, r3, #2
 644 01a0 9AB2     		uxth	r2, r3
 645 01a2 FB68     		ldr	r3, [r7, #12]
 646 01a4 DA87     		strh	r2, [r3, #62]	@ movhi
 647 01a6 4DE0     		b	.L35
 648              	.L34:
 603:E:/LiteOS/LiteOS_Lab/drivers/third_party/ST/STM32L4xx_HAL_Driver/Src\stm32l4xx_hal_spi.c ****       }
 604:E:/LiteOS/LiteOS_Lab/drivers/third_party/ST/STM32L4xx_HAL_Driver/Src\stm32l4xx_hal_spi.c ****       else
 605:E:/LiteOS/LiteOS_Lab/drivers/third_party/ST/STM32L4xx_HAL_Driver/Src\stm32l4xx_hal_spi.c ****       {
 606:E:/LiteOS/LiteOS_Lab/drivers/third_party/ST/STM32L4xx_HAL_Driver/Src\stm32l4xx_hal_spi.c ****         *((__IO uint8_t *)&hspi->Instance->DR) = (*pData++);
 649              		.loc 1 606 0
 650 01a8 BB68     		ldr	r3, [r7, #8]
 651 01aa 5A1C     		adds	r2, r3, #1
 652 01ac BA60     		str	r2, [r7, #8]
 653 01ae FA68     		ldr	r2, [r7, #12]
 654 01b0 1268     		ldr	r2, [r2]
 655 01b2 0C32     		adds	r2, r2, #12
 656 01b4 1B78     		ldrb	r3, [r3]	@ zero_extendqisi2
ARM GAS  C:\Users\user\AppData\Local\Temp\ccvQ1M9B.s 			page 23


 657 01b6 1370     		strb	r3, [r2]
 607:E:/LiteOS/LiteOS_Lab/drivers/third_party/ST/STM32L4xx_HAL_Driver/Src\stm32l4xx_hal_spi.c ****         hspi->TxXferCount--;
 658              		.loc 1 607 0
 659 01b8 FB68     		ldr	r3, [r7, #12]
 660 01ba DB8F     		ldrh	r3, [r3, #62]	@ movhi
 661 01bc 9BB2     		uxth	r3, r3
 662 01be 013B     		subs	r3, r3, #1
 663 01c0 9AB2     		uxth	r2, r3
 664 01c2 FB68     		ldr	r3, [r7, #12]
 665 01c4 DA87     		strh	r2, [r3, #62]	@ movhi
 608:E:/LiteOS/LiteOS_Lab/drivers/third_party/ST/STM32L4xx_HAL_Driver/Src\stm32l4xx_hal_spi.c ****       }
 609:E:/LiteOS/LiteOS_Lab/drivers/third_party/ST/STM32L4xx_HAL_Driver/Src\stm32l4xx_hal_spi.c ****     }
 610:E:/LiteOS/LiteOS_Lab/drivers/third_party/ST/STM32L4xx_HAL_Driver/Src\stm32l4xx_hal_spi.c ****     while (hspi->TxXferCount > 0U)
 666              		.loc 1 610 0
 667 01c6 3DE0     		b	.L35
 668              	.L40:
 611:E:/LiteOS/LiteOS_Lab/drivers/third_party/ST/STM32L4xx_HAL_Driver/Src\stm32l4xx_hal_spi.c ****     {
 612:E:/LiteOS/LiteOS_Lab/drivers/third_party/ST/STM32L4xx_HAL_Driver/Src\stm32l4xx_hal_spi.c ****       /* Wait until TXE flag is set to send data */
 613:E:/LiteOS/LiteOS_Lab/drivers/third_party/ST/STM32L4xx_HAL_Driver/Src\stm32l4xx_hal_spi.c ****       if (__HAL_SPI_GET_FLAG(hspi, SPI_FLAG_TXE))
 669              		.loc 1 613 0
 670 01c8 FB68     		ldr	r3, [r7, #12]
 671 01ca 1B68     		ldr	r3, [r3]
 672 01cc 9B68     		ldr	r3, [r3, #8]
 673 01ce 03F00203 		and	r3, r3, #2
 674 01d2 022B     		cmp	r3, #2
 675 01d4 24D1     		bne	.L36
 614:E:/LiteOS/LiteOS_Lab/drivers/third_party/ST/STM32L4xx_HAL_Driver/Src\stm32l4xx_hal_spi.c ****       {
 615:E:/LiteOS/LiteOS_Lab/drivers/third_party/ST/STM32L4xx_HAL_Driver/Src\stm32l4xx_hal_spi.c ****         if (hspi->TxXferCount > 1U)
 676              		.loc 1 615 0
 677 01d6 FB68     		ldr	r3, [r7, #12]
 678 01d8 DB8F     		ldrh	r3, [r3, #62]	@ movhi
 679 01da 9BB2     		uxth	r3, r3
 680 01dc 012B     		cmp	r3, #1
 681 01de 0FD9     		bls	.L37
 616:E:/LiteOS/LiteOS_Lab/drivers/third_party/ST/STM32L4xx_HAL_Driver/Src\stm32l4xx_hal_spi.c ****         {
 617:E:/LiteOS/LiteOS_Lab/drivers/third_party/ST/STM32L4xx_HAL_Driver/Src\stm32l4xx_hal_spi.c ****           /* write on the data register in packing mode */
 618:E:/LiteOS/LiteOS_Lab/drivers/third_party/ST/STM32L4xx_HAL_Driver/Src\stm32l4xx_hal_spi.c ****           hspi->Instance->DR = *((uint16_t *)pData);
 682              		.loc 1 618 0
 683 01e0 BB68     		ldr	r3, [r7, #8]
 684 01e2 1A88     		ldrh	r2, [r3]
 685 01e4 FB68     		ldr	r3, [r7, #12]
 686 01e6 1B68     		ldr	r3, [r3]
 687 01e8 DA60     		str	r2, [r3, #12]
 619:E:/LiteOS/LiteOS_Lab/drivers/third_party/ST/STM32L4xx_HAL_Driver/Src\stm32l4xx_hal_spi.c ****           pData += sizeof(uint16_t);
 688              		.loc 1 619 0
 689 01ea BB68     		ldr	r3, [r7, #8]
 690 01ec 0233     		adds	r3, r3, #2
 691 01ee BB60     		str	r3, [r7, #8]
 620:E:/LiteOS/LiteOS_Lab/drivers/third_party/ST/STM32L4xx_HAL_Driver/Src\stm32l4xx_hal_spi.c ****           hspi->TxXferCount -= 2U;
 692              		.loc 1 620 0
 693 01f0 FB68     		ldr	r3, [r7, #12]
 694 01f2 DB8F     		ldrh	r3, [r3, #62]	@ movhi
 695 01f4 9BB2     		uxth	r3, r3
 696 01f6 023B     		subs	r3, r3, #2
 697 01f8 9AB2     		uxth	r2, r3
 698 01fa FB68     		ldr	r3, [r7, #12]
 699 01fc DA87     		strh	r2, [r3, #62]	@ movhi
ARM GAS  C:\Users\user\AppData\Local\Temp\ccvQ1M9B.s 			page 24


 700 01fe 21E0     		b	.L35
 701              	.L37:
 621:E:/LiteOS/LiteOS_Lab/drivers/third_party/ST/STM32L4xx_HAL_Driver/Src\stm32l4xx_hal_spi.c ****         }
 622:E:/LiteOS/LiteOS_Lab/drivers/third_party/ST/STM32L4xx_HAL_Driver/Src\stm32l4xx_hal_spi.c ****         else
 623:E:/LiteOS/LiteOS_Lab/drivers/third_party/ST/STM32L4xx_HAL_Driver/Src\stm32l4xx_hal_spi.c ****         {
 624:E:/LiteOS/LiteOS_Lab/drivers/third_party/ST/STM32L4xx_HAL_Driver/Src\stm32l4xx_hal_spi.c ****           *((__IO uint8_t *)&hspi->Instance->DR) = (*pData++);
 702              		.loc 1 624 0
 703 0200 BB68     		ldr	r3, [r7, #8]
 704 0202 5A1C     		adds	r2, r3, #1
 705 0204 BA60     		str	r2, [r7, #8]
 706 0206 FA68     		ldr	r2, [r7, #12]
 707 0208 1268     		ldr	r2, [r2]
 708 020a 0C32     		adds	r2, r2, #12
 709 020c 1B78     		ldrb	r3, [r3]	@ zero_extendqisi2
 710 020e 1370     		strb	r3, [r2]
 625:E:/LiteOS/LiteOS_Lab/drivers/third_party/ST/STM32L4xx_HAL_Driver/Src\stm32l4xx_hal_spi.c ****           hspi->TxXferCount--;
 711              		.loc 1 625 0
 712 0210 FB68     		ldr	r3, [r7, #12]
 713 0212 DB8F     		ldrh	r3, [r3, #62]	@ movhi
 714 0214 9BB2     		uxth	r3, r3
 715 0216 013B     		subs	r3, r3, #1
 716 0218 9AB2     		uxth	r2, r3
 717 021a FB68     		ldr	r3, [r7, #12]
 718 021c DA87     		strh	r2, [r3, #62]	@ movhi
 719 021e 11E0     		b	.L35
 720              	.L36:
 626:E:/LiteOS/LiteOS_Lab/drivers/third_party/ST/STM32L4xx_HAL_Driver/Src\stm32l4xx_hal_spi.c ****         }
 627:E:/LiteOS/LiteOS_Lab/drivers/third_party/ST/STM32L4xx_HAL_Driver/Src\stm32l4xx_hal_spi.c ****       }
 628:E:/LiteOS/LiteOS_Lab/drivers/third_party/ST/STM32L4xx_HAL_Driver/Src\stm32l4xx_hal_spi.c ****       else
 629:E:/LiteOS/LiteOS_Lab/drivers/third_party/ST/STM32L4xx_HAL_Driver/Src\stm32l4xx_hal_spi.c ****       {
 630:E:/LiteOS/LiteOS_Lab/drivers/third_party/ST/STM32L4xx_HAL_Driver/Src\stm32l4xx_hal_spi.c ****         /* Timeout management */
 631:E:/LiteOS/LiteOS_Lab/drivers/third_party/ST/STM32L4xx_HAL_Driver/Src\stm32l4xx_hal_spi.c ****         if ((Timeout == 0U) || ((Timeout != HAL_MAX_DELAY) && ((HAL_GetTick() - tickstart) >=  Time
 721              		.loc 1 631 0
 722 0220 3B68     		ldr	r3, [r7]
 723 0222 002B     		cmp	r3, #0
 724 0224 0BD0     		beq	.L39
 725              		.loc 1 631 0 is_stmt 0 discriminator 1
 726 0226 3B68     		ldr	r3, [r7]
 727 0228 B3F1FF3F 		cmp	r3, #-1
 728 022c 0AD0     		beq	.L35
 729              		.loc 1 631 0 discriminator 2
 730 022e FFF7FEFF 		bl	HAL_GetTick
 731 0232 0246     		mov	r2, r0
 732 0234 BB69     		ldr	r3, [r7, #24]
 733 0236 D31A     		subs	r3, r2, r3
 734 0238 3A68     		ldr	r2, [r7]
 735 023a 9A42     		cmp	r2, r3
 736 023c 02D8     		bhi	.L35
 737              	.L39:
 632:E:/LiteOS/LiteOS_Lab/drivers/third_party/ST/STM32L4xx_HAL_Driver/Src\stm32l4xx_hal_spi.c ****         {
 633:E:/LiteOS/LiteOS_Lab/drivers/third_party/ST/STM32L4xx_HAL_Driver/Src\stm32l4xx_hal_spi.c ****           errorcode = HAL_TIMEOUT;
 738              		.loc 1 633 0 is_stmt 1
 739 023e 0323     		movs	r3, #3
 740 0240 FB77     		strb	r3, [r7, #31]
 634:E:/LiteOS/LiteOS_Lab/drivers/third_party/ST/STM32L4xx_HAL_Driver/Src\stm32l4xx_hal_spi.c ****           goto error;
 741              		.loc 1 634 0
 742 0242 26E0     		b	.L19
ARM GAS  C:\Users\user\AppData\Local\Temp\ccvQ1M9B.s 			page 25


 743              	.L35:
 610:E:/LiteOS/LiteOS_Lab/drivers/third_party/ST/STM32L4xx_HAL_Driver/Src\stm32l4xx_hal_spi.c ****     {
 744              		.loc 1 610 0
 745 0244 FB68     		ldr	r3, [r7, #12]
 746 0246 DB8F     		ldrh	r3, [r3, #62]	@ movhi
 747 0248 9BB2     		uxth	r3, r3
 748 024a 002B     		cmp	r3, #0
 749 024c BCD1     		bne	.L40
 750              	.L31:
 635:E:/LiteOS/LiteOS_Lab/drivers/third_party/ST/STM32L4xx_HAL_Driver/Src\stm32l4xx_hal_spi.c ****         }
 636:E:/LiteOS/LiteOS_Lab/drivers/third_party/ST/STM32L4xx_HAL_Driver/Src\stm32l4xx_hal_spi.c ****       }
 637:E:/LiteOS/LiteOS_Lab/drivers/third_party/ST/STM32L4xx_HAL_Driver/Src\stm32l4xx_hal_spi.c ****     }
 638:E:/LiteOS/LiteOS_Lab/drivers/third_party/ST/STM32L4xx_HAL_Driver/Src\stm32l4xx_hal_spi.c ****   }
 639:E:/LiteOS/LiteOS_Lab/drivers/third_party/ST/STM32L4xx_HAL_Driver/Src\stm32l4xx_hal_spi.c **** #if (USE_SPI_CRC != 0U)
 640:E:/LiteOS/LiteOS_Lab/drivers/third_party/ST/STM32L4xx_HAL_Driver/Src\stm32l4xx_hal_spi.c ****   /* Enable CRC Transmission */
 641:E:/LiteOS/LiteOS_Lab/drivers/third_party/ST/STM32L4xx_HAL_Driver/Src\stm32l4xx_hal_spi.c ****   if (hspi->Init.CRCCalculation == SPI_CRCCALCULATION_ENABLE)
 642:E:/LiteOS/LiteOS_Lab/drivers/third_party/ST/STM32L4xx_HAL_Driver/Src\stm32l4xx_hal_spi.c ****   {
 643:E:/LiteOS/LiteOS_Lab/drivers/third_party/ST/STM32L4xx_HAL_Driver/Src\stm32l4xx_hal_spi.c ****     SET_BIT(hspi->Instance->CR1, SPI_CR1_CRCNEXT);
 644:E:/LiteOS/LiteOS_Lab/drivers/third_party/ST/STM32L4xx_HAL_Driver/Src\stm32l4xx_hal_spi.c ****   }
 645:E:/LiteOS/LiteOS_Lab/drivers/third_party/ST/STM32L4xx_HAL_Driver/Src\stm32l4xx_hal_spi.c **** #endif /* USE_SPI_CRC */
 646:E:/LiteOS/LiteOS_Lab/drivers/third_party/ST/STM32L4xx_HAL_Driver/Src\stm32l4xx_hal_spi.c **** 
 647:E:/LiteOS/LiteOS_Lab/drivers/third_party/ST/STM32L4xx_HAL_Driver/Src\stm32l4xx_hal_spi.c ****   /* Check the end of the transaction */
 648:E:/LiteOS/LiteOS_Lab/drivers/third_party/ST/STM32L4xx_HAL_Driver/Src\stm32l4xx_hal_spi.c ****   if (SPI_EndRxTxTransaction(hspi, Timeout, tickstart) != HAL_OK)
 751              		.loc 1 648 0
 752 024e BA69     		ldr	r2, [r7, #24]
 753 0250 3968     		ldr	r1, [r7]
 754 0252 F868     		ldr	r0, [r7, #12]
 755 0254 FFF7FEFF 		bl	SPI_EndRxTxTransaction
 756 0258 0346     		mov	r3, r0
 757 025a 002B     		cmp	r3, #0
 758 025c 02D0     		beq	.L41
 649:E:/LiteOS/LiteOS_Lab/drivers/third_party/ST/STM32L4xx_HAL_Driver/Src\stm32l4xx_hal_spi.c ****   {
 650:E:/LiteOS/LiteOS_Lab/drivers/third_party/ST/STM32L4xx_HAL_Driver/Src\stm32l4xx_hal_spi.c ****     hspi->ErrorCode = HAL_SPI_ERROR_FLAG;
 759              		.loc 1 650 0
 760 025e FB68     		ldr	r3, [r7, #12]
 761 0260 2022     		movs	r2, #32
 762 0262 1A66     		str	r2, [r3, #96]
 763              	.L41:
 651:E:/LiteOS/LiteOS_Lab/drivers/third_party/ST/STM32L4xx_HAL_Driver/Src\stm32l4xx_hal_spi.c ****   }
 652:E:/LiteOS/LiteOS_Lab/drivers/third_party/ST/STM32L4xx_HAL_Driver/Src\stm32l4xx_hal_spi.c **** 
 653:E:/LiteOS/LiteOS_Lab/drivers/third_party/ST/STM32L4xx_HAL_Driver/Src\stm32l4xx_hal_spi.c ****   /* Clear overrun flag in 2 Lines communication mode because received is not read */
 654:E:/LiteOS/LiteOS_Lab/drivers/third_party/ST/STM32L4xx_HAL_Driver/Src\stm32l4xx_hal_spi.c ****   if (hspi->Init.Direction == SPI_DIRECTION_2LINES)
 764              		.loc 1 654 0
 765 0264 FB68     		ldr	r3, [r7, #12]
 766 0266 9B68     		ldr	r3, [r3, #8]
 767 0268 002B     		cmp	r3, #0
 768 026a 0AD1     		bne	.L42
 769              	.LBB2:
 655:E:/LiteOS/LiteOS_Lab/drivers/third_party/ST/STM32L4xx_HAL_Driver/Src\stm32l4xx_hal_spi.c ****   {
 656:E:/LiteOS/LiteOS_Lab/drivers/third_party/ST/STM32L4xx_HAL_Driver/Src\stm32l4xx_hal_spi.c ****     __HAL_SPI_CLEAR_OVRFLAG(hspi);
 770              		.loc 1 656 0
 771 026c 0023     		movs	r3, #0
 772 026e 7B61     		str	r3, [r7, #20]
 773 0270 FB68     		ldr	r3, [r7, #12]
 774 0272 1B68     		ldr	r3, [r3]
 775 0274 DB68     		ldr	r3, [r3, #12]
 776 0276 7B61     		str	r3, [r7, #20]
ARM GAS  C:\Users\user\AppData\Local\Temp\ccvQ1M9B.s 			page 26


 777 0278 FB68     		ldr	r3, [r7, #12]
 778 027a 1B68     		ldr	r3, [r3]
 779 027c 9B68     		ldr	r3, [r3, #8]
 780 027e 7B61     		str	r3, [r7, #20]
 781 0280 7B69     		ldr	r3, [r7, #20]
 782              	.L42:
 783              	.LBE2:
 657:E:/LiteOS/LiteOS_Lab/drivers/third_party/ST/STM32L4xx_HAL_Driver/Src\stm32l4xx_hal_spi.c ****   }
 658:E:/LiteOS/LiteOS_Lab/drivers/third_party/ST/STM32L4xx_HAL_Driver/Src\stm32l4xx_hal_spi.c **** 
 659:E:/LiteOS/LiteOS_Lab/drivers/third_party/ST/STM32L4xx_HAL_Driver/Src\stm32l4xx_hal_spi.c ****   if (hspi->ErrorCode != HAL_SPI_ERROR_NONE)
 784              		.loc 1 659 0
 785 0282 FB68     		ldr	r3, [r7, #12]
 786 0284 1B6E     		ldr	r3, [r3, #96]
 787 0286 002B     		cmp	r3, #0
 788 0288 02D0     		beq	.L43
 660:E:/LiteOS/LiteOS_Lab/drivers/third_party/ST/STM32L4xx_HAL_Driver/Src\stm32l4xx_hal_spi.c ****   {
 661:E:/LiteOS/LiteOS_Lab/drivers/third_party/ST/STM32L4xx_HAL_Driver/Src\stm32l4xx_hal_spi.c ****     errorcode = HAL_ERROR;
 789              		.loc 1 661 0
 790 028a 0123     		movs	r3, #1
 791 028c FB77     		strb	r3, [r7, #31]
 792 028e 00E0     		b	.L19
 793              	.L43:
 662:E:/LiteOS/LiteOS_Lab/drivers/third_party/ST/STM32L4xx_HAL_Driver/Src\stm32l4xx_hal_spi.c ****   }
 663:E:/LiteOS/LiteOS_Lab/drivers/third_party/ST/STM32L4xx_HAL_Driver/Src\stm32l4xx_hal_spi.c **** 
 664:E:/LiteOS/LiteOS_Lab/drivers/third_party/ST/STM32L4xx_HAL_Driver/Src\stm32l4xx_hal_spi.c **** error:
 794              		.loc 1 664 0
 795 0290 00BF     		nop
 796              	.L19:
 665:E:/LiteOS/LiteOS_Lab/drivers/third_party/ST/STM32L4xx_HAL_Driver/Src\stm32l4xx_hal_spi.c ****   hspi->State = HAL_SPI_STATE_READY;
 797              		.loc 1 665 0
 798 0292 FB68     		ldr	r3, [r7, #12]
 799 0294 0122     		movs	r2, #1
 800 0296 83F85D20 		strb	r2, [r3, #93]
 666:E:/LiteOS/LiteOS_Lab/drivers/third_party/ST/STM32L4xx_HAL_Driver/Src\stm32l4xx_hal_spi.c ****   /* Process Unlocked */
 667:E:/LiteOS/LiteOS_Lab/drivers/third_party/ST/STM32L4xx_HAL_Driver/Src\stm32l4xx_hal_spi.c ****   __HAL_UNLOCK(hspi);
 801              		.loc 1 667 0
 802 029a FB68     		ldr	r3, [r7, #12]
 803 029c 0022     		movs	r2, #0
 804 029e 83F85C20 		strb	r2, [r3, #92]
 668:E:/LiteOS/LiteOS_Lab/drivers/third_party/ST/STM32L4xx_HAL_Driver/Src\stm32l4xx_hal_spi.c ****   return errorcode;
 805              		.loc 1 668 0
 806 02a2 FB7F     		ldrb	r3, [r7, #31]	@ zero_extendqisi2
 807              	.L17:
 669:E:/LiteOS/LiteOS_Lab/drivers/third_party/ST/STM32L4xx_HAL_Driver/Src\stm32l4xx_hal_spi.c **** }
 808              		.loc 1 669 0
 809 02a4 1846     		mov	r0, r3
 810 02a6 2037     		adds	r7, r7, #32
 811              	.LCFI25:
 812              		.cfi_def_cfa_offset 8
 813 02a8 BD46     		mov	sp, r7
 814              	.LCFI26:
 815              		.cfi_def_cfa_register 13
 816              		@ sp needed
 817 02aa 80BD     		pop	{r7, pc}
 818              		.cfi_endproc
 819              	.LFE137:
 821              		.section	.text.HAL_SPI_Receive,"ax",%progbits
ARM GAS  C:\Users\user\AppData\Local\Temp\ccvQ1M9B.s 			page 27


 822              		.align	1
 823              		.global	HAL_SPI_Receive
 824              		.syntax unified
 825              		.thumb
 826              		.thumb_func
 827              		.fpu fpv4-sp-d16
 829              	HAL_SPI_Receive:
 830              	.LFB138:
 670:E:/LiteOS/LiteOS_Lab/drivers/third_party/ST/STM32L4xx_HAL_Driver/Src\stm32l4xx_hal_spi.c **** 
 671:E:/LiteOS/LiteOS_Lab/drivers/third_party/ST/STM32L4xx_HAL_Driver/Src\stm32l4xx_hal_spi.c **** /**
 672:E:/LiteOS/LiteOS_Lab/drivers/third_party/ST/STM32L4xx_HAL_Driver/Src\stm32l4xx_hal_spi.c ****   * @brief  Receive an amount of data in blocking mode.
 673:E:/LiteOS/LiteOS_Lab/drivers/third_party/ST/STM32L4xx_HAL_Driver/Src\stm32l4xx_hal_spi.c ****   * @param  hspi pointer to a SPI_HandleTypeDef structure that contains
 674:E:/LiteOS/LiteOS_Lab/drivers/third_party/ST/STM32L4xx_HAL_Driver/Src\stm32l4xx_hal_spi.c ****   *               the configuration information for SPI module.
 675:E:/LiteOS/LiteOS_Lab/drivers/third_party/ST/STM32L4xx_HAL_Driver/Src\stm32l4xx_hal_spi.c ****   * @param  pData pointer to data buffer
 676:E:/LiteOS/LiteOS_Lab/drivers/third_party/ST/STM32L4xx_HAL_Driver/Src\stm32l4xx_hal_spi.c ****   * @param  Size amount of data to be received
 677:E:/LiteOS/LiteOS_Lab/drivers/third_party/ST/STM32L4xx_HAL_Driver/Src\stm32l4xx_hal_spi.c ****   * @param  Timeout Timeout duration
 678:E:/LiteOS/LiteOS_Lab/drivers/third_party/ST/STM32L4xx_HAL_Driver/Src\stm32l4xx_hal_spi.c ****   * @retval HAL status
 679:E:/LiteOS/LiteOS_Lab/drivers/third_party/ST/STM32L4xx_HAL_Driver/Src\stm32l4xx_hal_spi.c ****   */
 680:E:/LiteOS/LiteOS_Lab/drivers/third_party/ST/STM32L4xx_HAL_Driver/Src\stm32l4xx_hal_spi.c **** HAL_StatusTypeDef HAL_SPI_Receive(SPI_HandleTypeDef *hspi, uint8_t *pData, uint16_t Size, uint32_t 
 681:E:/LiteOS/LiteOS_Lab/drivers/third_party/ST/STM32L4xx_HAL_Driver/Src\stm32l4xx_hal_spi.c **** {
 831              		.loc 1 681 0
 832              		.cfi_startproc
 833              		@ args = 0, pretend = 0, frame = 24
 834              		@ frame_needed = 1, uses_anonymous_args = 0
 835 0000 80B5     		push	{r7, lr}
 836              	.LCFI27:
 837              		.cfi_def_cfa_offset 8
 838              		.cfi_offset 7, -8
 839              		.cfi_offset 14, -4
 840 0002 88B0     		sub	sp, sp, #32
 841              	.LCFI28:
 842              		.cfi_def_cfa_offset 40
 843 0004 02AF     		add	r7, sp, #8
 844              	.LCFI29:
 845              		.cfi_def_cfa 7, 32
 846 0006 F860     		str	r0, [r7, #12]
 847 0008 B960     		str	r1, [r7, #8]
 848 000a 3B60     		str	r3, [r7]
 849 000c 1346     		mov	r3, r2	@ movhi
 850 000e FB80     		strh	r3, [r7, #6]	@ movhi
 682:E:/LiteOS/LiteOS_Lab/drivers/third_party/ST/STM32L4xx_HAL_Driver/Src\stm32l4xx_hal_spi.c **** #if (USE_SPI_CRC != 0U)
 683:E:/LiteOS/LiteOS_Lab/drivers/third_party/ST/STM32L4xx_HAL_Driver/Src\stm32l4xx_hal_spi.c ****   __IO uint16_t tmpreg = 0U;
 684:E:/LiteOS/LiteOS_Lab/drivers/third_party/ST/STM32L4xx_HAL_Driver/Src\stm32l4xx_hal_spi.c **** #endif /* USE_SPI_CRC */
 685:E:/LiteOS/LiteOS_Lab/drivers/third_party/ST/STM32L4xx_HAL_Driver/Src\stm32l4xx_hal_spi.c ****   uint32_t tickstart = 0U;
 851              		.loc 1 685 0
 852 0010 0023     		movs	r3, #0
 853 0012 3B61     		str	r3, [r7, #16]
 686:E:/LiteOS/LiteOS_Lab/drivers/third_party/ST/STM32L4xx_HAL_Driver/Src\stm32l4xx_hal_spi.c ****   HAL_StatusTypeDef errorcode = HAL_OK;
 854              		.loc 1 686 0
 855 0014 0023     		movs	r3, #0
 856 0016 FB75     		strb	r3, [r7, #23]
 687:E:/LiteOS/LiteOS_Lab/drivers/third_party/ST/STM32L4xx_HAL_Driver/Src\stm32l4xx_hal_spi.c **** 
 688:E:/LiteOS/LiteOS_Lab/drivers/third_party/ST/STM32L4xx_HAL_Driver/Src\stm32l4xx_hal_spi.c ****   if ((hspi->Init.Mode == SPI_MODE_MASTER) && (hspi->Init.Direction == SPI_DIRECTION_2LINES))
 857              		.loc 1 688 0
 858 0018 FB68     		ldr	r3, [r7, #12]
 859 001a 5B68     		ldr	r3, [r3, #4]
 860 001c B3F5827F 		cmp	r3, #260
ARM GAS  C:\Users\user\AppData\Local\Temp\ccvQ1M9B.s 			page 28


 861 0020 12D1     		bne	.L45
 862              		.loc 1 688 0 is_stmt 0 discriminator 1
 863 0022 FB68     		ldr	r3, [r7, #12]
 864 0024 9B68     		ldr	r3, [r3, #8]
 865 0026 002B     		cmp	r3, #0
 866 0028 0ED1     		bne	.L45
 689:E:/LiteOS/LiteOS_Lab/drivers/third_party/ST/STM32L4xx_HAL_Driver/Src\stm32l4xx_hal_spi.c ****   {
 690:E:/LiteOS/LiteOS_Lab/drivers/third_party/ST/STM32L4xx_HAL_Driver/Src\stm32l4xx_hal_spi.c ****     hspi->State = HAL_SPI_STATE_BUSY_RX;
 867              		.loc 1 690 0 is_stmt 1
 868 002a FB68     		ldr	r3, [r7, #12]
 869 002c 0422     		movs	r2, #4
 870 002e 83F85D20 		strb	r2, [r3, #93]
 691:E:/LiteOS/LiteOS_Lab/drivers/third_party/ST/STM32L4xx_HAL_Driver/Src\stm32l4xx_hal_spi.c ****     /* Call transmit-receive function to send Dummy data on Tx line and generate clock on CLK line 
 692:E:/LiteOS/LiteOS_Lab/drivers/third_party/ST/STM32L4xx_HAL_Driver/Src\stm32l4xx_hal_spi.c ****     return HAL_SPI_TransmitReceive(hspi, pData, pData, Size, Timeout);
 871              		.loc 1 692 0
 872 0032 FA88     		ldrh	r2, [r7, #6]
 873 0034 3B68     		ldr	r3, [r7]
 874 0036 0093     		str	r3, [sp]
 875 0038 1346     		mov	r3, r2
 876 003a BA68     		ldr	r2, [r7, #8]
 877 003c B968     		ldr	r1, [r7, #8]
 878 003e F868     		ldr	r0, [r7, #12]
 879 0040 FFF7FEFF 		bl	HAL_SPI_TransmitReceive
 880 0044 0346     		mov	r3, r0
 881 0046 FAE0     		b	.L46
 882              	.L45:
 693:E:/LiteOS/LiteOS_Lab/drivers/third_party/ST/STM32L4xx_HAL_Driver/Src\stm32l4xx_hal_spi.c ****   }
 694:E:/LiteOS/LiteOS_Lab/drivers/third_party/ST/STM32L4xx_HAL_Driver/Src\stm32l4xx_hal_spi.c **** 
 695:E:/LiteOS/LiteOS_Lab/drivers/third_party/ST/STM32L4xx_HAL_Driver/Src\stm32l4xx_hal_spi.c ****   /* Process Locked */
 696:E:/LiteOS/LiteOS_Lab/drivers/third_party/ST/STM32L4xx_HAL_Driver/Src\stm32l4xx_hal_spi.c ****   __HAL_LOCK(hspi);
 883              		.loc 1 696 0
 884 0048 FB68     		ldr	r3, [r7, #12]
 885 004a 93F85C30 		ldrb	r3, [r3, #92]	@ zero_extendqisi2
 886 004e 012B     		cmp	r3, #1
 887 0050 01D1     		bne	.L47
 888              		.loc 1 696 0 is_stmt 0 discriminator 1
 889 0052 0223     		movs	r3, #2
 890 0054 F3E0     		b	.L46
 891              	.L47:
 892              		.loc 1 696 0 discriminator 2
 893 0056 FB68     		ldr	r3, [r7, #12]
 894 0058 0122     		movs	r2, #1
 895 005a 83F85C20 		strb	r2, [r3, #92]
 697:E:/LiteOS/LiteOS_Lab/drivers/third_party/ST/STM32L4xx_HAL_Driver/Src\stm32l4xx_hal_spi.c **** 
 698:E:/LiteOS/LiteOS_Lab/drivers/third_party/ST/STM32L4xx_HAL_Driver/Src\stm32l4xx_hal_spi.c ****   /* Init tickstart for timeout management*/
 699:E:/LiteOS/LiteOS_Lab/drivers/third_party/ST/STM32L4xx_HAL_Driver/Src\stm32l4xx_hal_spi.c ****   tickstart = HAL_GetTick();
 896              		.loc 1 699 0 is_stmt 1 discriminator 2
 897 005e FFF7FEFF 		bl	HAL_GetTick
 898 0062 3861     		str	r0, [r7, #16]
 700:E:/LiteOS/LiteOS_Lab/drivers/third_party/ST/STM32L4xx_HAL_Driver/Src\stm32l4xx_hal_spi.c **** 
 701:E:/LiteOS/LiteOS_Lab/drivers/third_party/ST/STM32L4xx_HAL_Driver/Src\stm32l4xx_hal_spi.c ****   if (hspi->State != HAL_SPI_STATE_READY)
 899              		.loc 1 701 0 discriminator 2
 900 0064 FB68     		ldr	r3, [r7, #12]
 901 0066 93F85D30 		ldrb	r3, [r3, #93]
 902 006a DBB2     		uxtb	r3, r3
 903 006c 012B     		cmp	r3, #1
 904 006e 02D0     		beq	.L48
ARM GAS  C:\Users\user\AppData\Local\Temp\ccvQ1M9B.s 			page 29


 702:E:/LiteOS/LiteOS_Lab/drivers/third_party/ST/STM32L4xx_HAL_Driver/Src\stm32l4xx_hal_spi.c ****   {
 703:E:/LiteOS/LiteOS_Lab/drivers/third_party/ST/STM32L4xx_HAL_Driver/Src\stm32l4xx_hal_spi.c ****     errorcode = HAL_BUSY;
 905              		.loc 1 703 0
 906 0070 0223     		movs	r3, #2
 907 0072 FB75     		strb	r3, [r7, #23]
 704:E:/LiteOS/LiteOS_Lab/drivers/third_party/ST/STM32L4xx_HAL_Driver/Src\stm32l4xx_hal_spi.c ****     goto error;
 908              		.loc 1 704 0
 909 0074 DAE0     		b	.L49
 910              	.L48:
 705:E:/LiteOS/LiteOS_Lab/drivers/third_party/ST/STM32L4xx_HAL_Driver/Src\stm32l4xx_hal_spi.c ****   }
 706:E:/LiteOS/LiteOS_Lab/drivers/third_party/ST/STM32L4xx_HAL_Driver/Src\stm32l4xx_hal_spi.c **** 
 707:E:/LiteOS/LiteOS_Lab/drivers/third_party/ST/STM32L4xx_HAL_Driver/Src\stm32l4xx_hal_spi.c ****   if ((pData == NULL) || (Size == 0U))
 911              		.loc 1 707 0
 912 0076 BB68     		ldr	r3, [r7, #8]
 913 0078 002B     		cmp	r3, #0
 914 007a 02D0     		beq	.L50
 915              		.loc 1 707 0 is_stmt 0 discriminator 1
 916 007c FB88     		ldrh	r3, [r7, #6]
 917 007e 002B     		cmp	r3, #0
 918 0080 02D1     		bne	.L51
 919              	.L50:
 708:E:/LiteOS/LiteOS_Lab/drivers/third_party/ST/STM32L4xx_HAL_Driver/Src\stm32l4xx_hal_spi.c ****   {
 709:E:/LiteOS/LiteOS_Lab/drivers/third_party/ST/STM32L4xx_HAL_Driver/Src\stm32l4xx_hal_spi.c ****     errorcode = HAL_ERROR;
 920              		.loc 1 709 0 is_stmt 1
 921 0082 0123     		movs	r3, #1
 922 0084 FB75     		strb	r3, [r7, #23]
 710:E:/LiteOS/LiteOS_Lab/drivers/third_party/ST/STM32L4xx_HAL_Driver/Src\stm32l4xx_hal_spi.c ****     goto error;
 923              		.loc 1 710 0
 924 0086 D1E0     		b	.L49
 925              	.L51:
 711:E:/LiteOS/LiteOS_Lab/drivers/third_party/ST/STM32L4xx_HAL_Driver/Src\stm32l4xx_hal_spi.c ****   }
 712:E:/LiteOS/LiteOS_Lab/drivers/third_party/ST/STM32L4xx_HAL_Driver/Src\stm32l4xx_hal_spi.c **** 
 713:E:/LiteOS/LiteOS_Lab/drivers/third_party/ST/STM32L4xx_HAL_Driver/Src\stm32l4xx_hal_spi.c ****   /* Set the transaction information */
 714:E:/LiteOS/LiteOS_Lab/drivers/third_party/ST/STM32L4xx_HAL_Driver/Src\stm32l4xx_hal_spi.c ****   hspi->State       = HAL_SPI_STATE_BUSY_RX;
 926              		.loc 1 714 0
 927 0088 FB68     		ldr	r3, [r7, #12]
 928 008a 0422     		movs	r2, #4
 929 008c 83F85D20 		strb	r2, [r3, #93]
 715:E:/LiteOS/LiteOS_Lab/drivers/third_party/ST/STM32L4xx_HAL_Driver/Src\stm32l4xx_hal_spi.c ****   hspi->ErrorCode   = HAL_SPI_ERROR_NONE;
 930              		.loc 1 715 0
 931 0090 FB68     		ldr	r3, [r7, #12]
 932 0092 0022     		movs	r2, #0
 933 0094 1A66     		str	r2, [r3, #96]
 716:E:/LiteOS/LiteOS_Lab/drivers/third_party/ST/STM32L4xx_HAL_Driver/Src\stm32l4xx_hal_spi.c ****   hspi->pRxBuffPtr  = (uint8_t *)pData;
 934              		.loc 1 716 0
 935 0096 FB68     		ldr	r3, [r7, #12]
 936 0098 BA68     		ldr	r2, [r7, #8]
 937 009a 1A64     		str	r2, [r3, #64]
 717:E:/LiteOS/LiteOS_Lab/drivers/third_party/ST/STM32L4xx_HAL_Driver/Src\stm32l4xx_hal_spi.c ****   hspi->RxXferSize  = Size;
 938              		.loc 1 717 0
 939 009c FB68     		ldr	r3, [r7, #12]
 940 009e FA88     		ldrh	r2, [r7, #6]	@ movhi
 941 00a0 A3F84420 		strh	r2, [r3, #68]	@ movhi
 718:E:/LiteOS/LiteOS_Lab/drivers/third_party/ST/STM32L4xx_HAL_Driver/Src\stm32l4xx_hal_spi.c ****   hspi->RxXferCount = Size;
 942              		.loc 1 718 0
 943 00a4 FB68     		ldr	r3, [r7, #12]
 944 00a6 FA88     		ldrh	r2, [r7, #6]	@ movhi
ARM GAS  C:\Users\user\AppData\Local\Temp\ccvQ1M9B.s 			page 30


 945 00a8 A3F84620 		strh	r2, [r3, #70]	@ movhi
 719:E:/LiteOS/LiteOS_Lab/drivers/third_party/ST/STM32L4xx_HAL_Driver/Src\stm32l4xx_hal_spi.c **** 
 720:E:/LiteOS/LiteOS_Lab/drivers/third_party/ST/STM32L4xx_HAL_Driver/Src\stm32l4xx_hal_spi.c ****   /*Init field not used in handle to zero */
 721:E:/LiteOS/LiteOS_Lab/drivers/third_party/ST/STM32L4xx_HAL_Driver/Src\stm32l4xx_hal_spi.c ****   hspi->pTxBuffPtr  = (uint8_t *)NULL;
 946              		.loc 1 721 0
 947 00ac FB68     		ldr	r3, [r7, #12]
 948 00ae 0022     		movs	r2, #0
 949 00b0 9A63     		str	r2, [r3, #56]
 722:E:/LiteOS/LiteOS_Lab/drivers/third_party/ST/STM32L4xx_HAL_Driver/Src\stm32l4xx_hal_spi.c ****   hspi->TxXferSize  = 0U;
 950              		.loc 1 722 0
 951 00b2 FB68     		ldr	r3, [r7, #12]
 952 00b4 0022     		movs	r2, #0
 953 00b6 9A87     		strh	r2, [r3, #60]	@ movhi
 723:E:/LiteOS/LiteOS_Lab/drivers/third_party/ST/STM32L4xx_HAL_Driver/Src\stm32l4xx_hal_spi.c ****   hspi->TxXferCount = 0U;
 954              		.loc 1 723 0
 955 00b8 FB68     		ldr	r3, [r7, #12]
 956 00ba 0022     		movs	r2, #0
 957 00bc DA87     		strh	r2, [r3, #62]	@ movhi
 724:E:/LiteOS/LiteOS_Lab/drivers/third_party/ST/STM32L4xx_HAL_Driver/Src\stm32l4xx_hal_spi.c ****   hspi->RxISR       = NULL;
 958              		.loc 1 724 0
 959 00be FB68     		ldr	r3, [r7, #12]
 960 00c0 0022     		movs	r2, #0
 961 00c2 DA64     		str	r2, [r3, #76]
 725:E:/LiteOS/LiteOS_Lab/drivers/third_party/ST/STM32L4xx_HAL_Driver/Src\stm32l4xx_hal_spi.c ****   hspi->TxISR       = NULL;
 962              		.loc 1 725 0
 963 00c4 FB68     		ldr	r3, [r7, #12]
 964 00c6 0022     		movs	r2, #0
 965 00c8 1A65     		str	r2, [r3, #80]
 726:E:/LiteOS/LiteOS_Lab/drivers/third_party/ST/STM32L4xx_HAL_Driver/Src\stm32l4xx_hal_spi.c **** 
 727:E:/LiteOS/LiteOS_Lab/drivers/third_party/ST/STM32L4xx_HAL_Driver/Src\stm32l4xx_hal_spi.c **** #if (USE_SPI_CRC != 0U)
 728:E:/LiteOS/LiteOS_Lab/drivers/third_party/ST/STM32L4xx_HAL_Driver/Src\stm32l4xx_hal_spi.c ****   /* Reset CRC Calculation */
 729:E:/LiteOS/LiteOS_Lab/drivers/third_party/ST/STM32L4xx_HAL_Driver/Src\stm32l4xx_hal_spi.c ****   if (hspi->Init.CRCCalculation == SPI_CRCCALCULATION_ENABLE)
 730:E:/LiteOS/LiteOS_Lab/drivers/third_party/ST/STM32L4xx_HAL_Driver/Src\stm32l4xx_hal_spi.c ****   {
 731:E:/LiteOS/LiteOS_Lab/drivers/third_party/ST/STM32L4xx_HAL_Driver/Src\stm32l4xx_hal_spi.c ****     SPI_RESET_CRC(hspi);
 732:E:/LiteOS/LiteOS_Lab/drivers/third_party/ST/STM32L4xx_HAL_Driver/Src\stm32l4xx_hal_spi.c ****     /* this is done to handle the CRCNEXT before the latest data */
 733:E:/LiteOS/LiteOS_Lab/drivers/third_party/ST/STM32L4xx_HAL_Driver/Src\stm32l4xx_hal_spi.c ****     hspi->RxXferCount--;
 734:E:/LiteOS/LiteOS_Lab/drivers/third_party/ST/STM32L4xx_HAL_Driver/Src\stm32l4xx_hal_spi.c ****   }
 735:E:/LiteOS/LiteOS_Lab/drivers/third_party/ST/STM32L4xx_HAL_Driver/Src\stm32l4xx_hal_spi.c **** #endif /* USE_SPI_CRC */
 736:E:/LiteOS/LiteOS_Lab/drivers/third_party/ST/STM32L4xx_HAL_Driver/Src\stm32l4xx_hal_spi.c **** 
 737:E:/LiteOS/LiteOS_Lab/drivers/third_party/ST/STM32L4xx_HAL_Driver/Src\stm32l4xx_hal_spi.c ****   /* Set the Rx Fifo threshold */
 738:E:/LiteOS/LiteOS_Lab/drivers/third_party/ST/STM32L4xx_HAL_Driver/Src\stm32l4xx_hal_spi.c ****   if (hspi->Init.DataSize > SPI_DATASIZE_8BIT)
 966              		.loc 1 738 0
 967 00ca FB68     		ldr	r3, [r7, #12]
 968 00cc DB68     		ldr	r3, [r3, #12]
 969 00ce B3F5E06F 		cmp	r3, #1792
 970 00d2 08D9     		bls	.L52
 739:E:/LiteOS/LiteOS_Lab/drivers/third_party/ST/STM32L4xx_HAL_Driver/Src\stm32l4xx_hal_spi.c ****   {
 740:E:/LiteOS/LiteOS_Lab/drivers/third_party/ST/STM32L4xx_HAL_Driver/Src\stm32l4xx_hal_spi.c ****     /* Set RX Fifo threshold according the reception data length: 16bit */
 741:E:/LiteOS/LiteOS_Lab/drivers/third_party/ST/STM32L4xx_HAL_Driver/Src\stm32l4xx_hal_spi.c ****     CLEAR_BIT(hspi->Instance->CR2, SPI_RXFIFO_THRESHOLD);
 971              		.loc 1 741 0
 972 00d4 FB68     		ldr	r3, [r7, #12]
 973 00d6 1B68     		ldr	r3, [r3]
 974 00d8 5A68     		ldr	r2, [r3, #4]
 975 00da FB68     		ldr	r3, [r7, #12]
 976 00dc 1B68     		ldr	r3, [r3]
 977 00de 22F48052 		bic	r2, r2, #4096
 978 00e2 5A60     		str	r2, [r3, #4]
ARM GAS  C:\Users\user\AppData\Local\Temp\ccvQ1M9B.s 			page 31


 979 00e4 07E0     		b	.L53
 980              	.L52:
 742:E:/LiteOS/LiteOS_Lab/drivers/third_party/ST/STM32L4xx_HAL_Driver/Src\stm32l4xx_hal_spi.c ****   }
 743:E:/LiteOS/LiteOS_Lab/drivers/third_party/ST/STM32L4xx_HAL_Driver/Src\stm32l4xx_hal_spi.c ****   else
 744:E:/LiteOS/LiteOS_Lab/drivers/third_party/ST/STM32L4xx_HAL_Driver/Src\stm32l4xx_hal_spi.c ****   {
 745:E:/LiteOS/LiteOS_Lab/drivers/third_party/ST/STM32L4xx_HAL_Driver/Src\stm32l4xx_hal_spi.c ****     /* Set RX Fifo threshold according the reception data length: 8bit */
 746:E:/LiteOS/LiteOS_Lab/drivers/third_party/ST/STM32L4xx_HAL_Driver/Src\stm32l4xx_hal_spi.c ****     SET_BIT(hspi->Instance->CR2, SPI_RXFIFO_THRESHOLD);
 981              		.loc 1 746 0
 982 00e6 FB68     		ldr	r3, [r7, #12]
 983 00e8 1B68     		ldr	r3, [r3]
 984 00ea 5A68     		ldr	r2, [r3, #4]
 985 00ec FB68     		ldr	r3, [r7, #12]
 986 00ee 1B68     		ldr	r3, [r3]
 987 00f0 42F48052 		orr	r2, r2, #4096
 988 00f4 5A60     		str	r2, [r3, #4]
 989              	.L53:
 747:E:/LiteOS/LiteOS_Lab/drivers/third_party/ST/STM32L4xx_HAL_Driver/Src\stm32l4xx_hal_spi.c ****   }
 748:E:/LiteOS/LiteOS_Lab/drivers/third_party/ST/STM32L4xx_HAL_Driver/Src\stm32l4xx_hal_spi.c **** 
 749:E:/LiteOS/LiteOS_Lab/drivers/third_party/ST/STM32L4xx_HAL_Driver/Src\stm32l4xx_hal_spi.c ****   /* Configure communication direction: 1Line */
 750:E:/LiteOS/LiteOS_Lab/drivers/third_party/ST/STM32L4xx_HAL_Driver/Src\stm32l4xx_hal_spi.c ****   if (hspi->Init.Direction == SPI_DIRECTION_1LINE)
 990              		.loc 1 750 0
 991 00f6 FB68     		ldr	r3, [r7, #12]
 992 00f8 9B68     		ldr	r3, [r3, #8]
 993 00fa B3F5004F 		cmp	r3, #32768
 994 00fe 07D1     		bne	.L54
 751:E:/LiteOS/LiteOS_Lab/drivers/third_party/ST/STM32L4xx_HAL_Driver/Src\stm32l4xx_hal_spi.c ****   {
 752:E:/LiteOS/LiteOS_Lab/drivers/third_party/ST/STM32L4xx_HAL_Driver/Src\stm32l4xx_hal_spi.c ****     SPI_1LINE_RX(hspi);
 995              		.loc 1 752 0
 996 0100 FB68     		ldr	r3, [r7, #12]
 997 0102 1B68     		ldr	r3, [r3]
 998 0104 1A68     		ldr	r2, [r3]
 999 0106 FB68     		ldr	r3, [r7, #12]
 1000 0108 1B68     		ldr	r3, [r3]
 1001 010a 22F48042 		bic	r2, r2, #16384
 1002 010e 1A60     		str	r2, [r3]
 1003              	.L54:
 753:E:/LiteOS/LiteOS_Lab/drivers/third_party/ST/STM32L4xx_HAL_Driver/Src\stm32l4xx_hal_spi.c ****   }
 754:E:/LiteOS/LiteOS_Lab/drivers/third_party/ST/STM32L4xx_HAL_Driver/Src\stm32l4xx_hal_spi.c **** 
 755:E:/LiteOS/LiteOS_Lab/drivers/third_party/ST/STM32L4xx_HAL_Driver/Src\stm32l4xx_hal_spi.c ****   /* Check if the SPI is already enabled */
 756:E:/LiteOS/LiteOS_Lab/drivers/third_party/ST/STM32L4xx_HAL_Driver/Src\stm32l4xx_hal_spi.c ****   if ((hspi->Instance->CR1 & SPI_CR1_SPE) != SPI_CR1_SPE)
 1004              		.loc 1 756 0
 1005 0110 FB68     		ldr	r3, [r7, #12]
 1006 0112 1B68     		ldr	r3, [r3]
 1007 0114 1B68     		ldr	r3, [r3]
 1008 0116 03F04003 		and	r3, r3, #64
 1009 011a 402B     		cmp	r3, #64
 1010 011c 07D0     		beq	.L55
 757:E:/LiteOS/LiteOS_Lab/drivers/third_party/ST/STM32L4xx_HAL_Driver/Src\stm32l4xx_hal_spi.c ****   {
 758:E:/LiteOS/LiteOS_Lab/drivers/third_party/ST/STM32L4xx_HAL_Driver/Src\stm32l4xx_hal_spi.c ****     /* Enable SPI peripheral */
 759:E:/LiteOS/LiteOS_Lab/drivers/third_party/ST/STM32L4xx_HAL_Driver/Src\stm32l4xx_hal_spi.c ****     __HAL_SPI_ENABLE(hspi);
 1011              		.loc 1 759 0
 1012 011e FB68     		ldr	r3, [r7, #12]
 1013 0120 1B68     		ldr	r3, [r3]
 1014 0122 1A68     		ldr	r2, [r3]
 1015 0124 FB68     		ldr	r3, [r7, #12]
 1016 0126 1B68     		ldr	r3, [r3]
 1017 0128 42F04002 		orr	r2, r2, #64
ARM GAS  C:\Users\user\AppData\Local\Temp\ccvQ1M9B.s 			page 32


 1018 012c 1A60     		str	r2, [r3]
 1019              	.L55:
 760:E:/LiteOS/LiteOS_Lab/drivers/third_party/ST/STM32L4xx_HAL_Driver/Src\stm32l4xx_hal_spi.c ****   }
 761:E:/LiteOS/LiteOS_Lab/drivers/third_party/ST/STM32L4xx_HAL_Driver/Src\stm32l4xx_hal_spi.c **** 
 762:E:/LiteOS/LiteOS_Lab/drivers/third_party/ST/STM32L4xx_HAL_Driver/Src\stm32l4xx_hal_spi.c ****   /* Receive data in 8 Bit mode */
 763:E:/LiteOS/LiteOS_Lab/drivers/third_party/ST/STM32L4xx_HAL_Driver/Src\stm32l4xx_hal_spi.c ****   if (hspi->Init.DataSize <= SPI_DATASIZE_8BIT)
 1020              		.loc 1 763 0
 1021 012e FB68     		ldr	r3, [r7, #12]
 1022 0130 DB68     		ldr	r3, [r3, #12]
 1023 0132 B3F5E06F 		cmp	r3, #1792
 1024 0136 60D8     		bhi	.L62
 764:E:/LiteOS/LiteOS_Lab/drivers/third_party/ST/STM32L4xx_HAL_Driver/Src\stm32l4xx_hal_spi.c ****   {
 765:E:/LiteOS/LiteOS_Lab/drivers/third_party/ST/STM32L4xx_HAL_Driver/Src\stm32l4xx_hal_spi.c ****     /* Transfer loop */
 766:E:/LiteOS/LiteOS_Lab/drivers/third_party/ST/STM32L4xx_HAL_Driver/Src\stm32l4xx_hal_spi.c ****     while (hspi->RxXferCount > 0U)
 1025              		.loc 1 766 0
 1026 0138 2CE0     		b	.L57
 1027              	.L60:
 767:E:/LiteOS/LiteOS_Lab/drivers/third_party/ST/STM32L4xx_HAL_Driver/Src\stm32l4xx_hal_spi.c ****     {
 768:E:/LiteOS/LiteOS_Lab/drivers/third_party/ST/STM32L4xx_HAL_Driver/Src\stm32l4xx_hal_spi.c ****       /* Check the RXNE flag */
 769:E:/LiteOS/LiteOS_Lab/drivers/third_party/ST/STM32L4xx_HAL_Driver/Src\stm32l4xx_hal_spi.c ****       if (__HAL_SPI_GET_FLAG(hspi, SPI_FLAG_RXNE))
 1028              		.loc 1 769 0
 1029 013a FB68     		ldr	r3, [r7, #12]
 1030 013c 1B68     		ldr	r3, [r3]
 1031 013e 9B68     		ldr	r3, [r3, #8]
 1032 0140 03F00103 		and	r3, r3, #1
 1033 0144 012B     		cmp	r3, #1
 1034 0146 13D1     		bne	.L58
 770:E:/LiteOS/LiteOS_Lab/drivers/third_party/ST/STM32L4xx_HAL_Driver/Src\stm32l4xx_hal_spi.c ****       {
 771:E:/LiteOS/LiteOS_Lab/drivers/third_party/ST/STM32L4xx_HAL_Driver/Src\stm32l4xx_hal_spi.c ****         /* read the received data */
 772:E:/LiteOS/LiteOS_Lab/drivers/third_party/ST/STM32L4xx_HAL_Driver/Src\stm32l4xx_hal_spi.c ****         (* (uint8_t *)pData) = *(__IO uint8_t *)&hspi->Instance->DR;
 1035              		.loc 1 772 0
 1036 0148 FB68     		ldr	r3, [r7, #12]
 1037 014a 1B68     		ldr	r3, [r3]
 1038 014c 0C33     		adds	r3, r3, #12
 1039 014e 1B78     		ldrb	r3, [r3]
 1040 0150 DAB2     		uxtb	r2, r3
 1041 0152 BB68     		ldr	r3, [r7, #8]
 1042 0154 1A70     		strb	r2, [r3]
 773:E:/LiteOS/LiteOS_Lab/drivers/third_party/ST/STM32L4xx_HAL_Driver/Src\stm32l4xx_hal_spi.c ****         pData += sizeof(uint8_t);
 1043              		.loc 1 773 0
 1044 0156 BB68     		ldr	r3, [r7, #8]
 1045 0158 0133     		adds	r3, r3, #1
 1046 015a BB60     		str	r3, [r7, #8]
 774:E:/LiteOS/LiteOS_Lab/drivers/third_party/ST/STM32L4xx_HAL_Driver/Src\stm32l4xx_hal_spi.c ****         hspi->RxXferCount--;
 1047              		.loc 1 774 0
 1048 015c FB68     		ldr	r3, [r7, #12]
 1049 015e B3F84630 		ldrh	r3, [r3, #70]	@ movhi
 1050 0162 9BB2     		uxth	r3, r3
 1051 0164 013B     		subs	r3, r3, #1
 1052 0166 9AB2     		uxth	r2, r3
 1053 0168 FB68     		ldr	r3, [r7, #12]
 1054 016a A3F84620 		strh	r2, [r3, #70]	@ movhi
 1055 016e 11E0     		b	.L57
 1056              	.L58:
 775:E:/LiteOS/LiteOS_Lab/drivers/third_party/ST/STM32L4xx_HAL_Driver/Src\stm32l4xx_hal_spi.c ****       }
 776:E:/LiteOS/LiteOS_Lab/drivers/third_party/ST/STM32L4xx_HAL_Driver/Src\stm32l4xx_hal_spi.c ****       else
 777:E:/LiteOS/LiteOS_Lab/drivers/third_party/ST/STM32L4xx_HAL_Driver/Src\stm32l4xx_hal_spi.c ****       {
ARM GAS  C:\Users\user\AppData\Local\Temp\ccvQ1M9B.s 			page 33


 778:E:/LiteOS/LiteOS_Lab/drivers/third_party/ST/STM32L4xx_HAL_Driver/Src\stm32l4xx_hal_spi.c ****         /* Timeout management */
 779:E:/LiteOS/LiteOS_Lab/drivers/third_party/ST/STM32L4xx_HAL_Driver/Src\stm32l4xx_hal_spi.c ****         if ((Timeout == 0U) || ((Timeout != HAL_MAX_DELAY) && ((HAL_GetTick() - tickstart) >=  Time
 1057              		.loc 1 779 0
 1058 0170 3B68     		ldr	r3, [r7]
 1059 0172 002B     		cmp	r3, #0
 1060 0174 0BD0     		beq	.L59
 1061              		.loc 1 779 0 is_stmt 0 discriminator 1
 1062 0176 3B68     		ldr	r3, [r7]
 1063 0178 B3F1FF3F 		cmp	r3, #-1
 1064 017c 0AD0     		beq	.L57
 1065              		.loc 1 779 0 discriminator 2
 1066 017e FFF7FEFF 		bl	HAL_GetTick
 1067 0182 0246     		mov	r2, r0
 1068 0184 3B69     		ldr	r3, [r7, #16]
 1069 0186 D31A     		subs	r3, r2, r3
 1070 0188 3A68     		ldr	r2, [r7]
 1071 018a 9A42     		cmp	r2, r3
 1072 018c 02D8     		bhi	.L57
 1073              	.L59:
 780:E:/LiteOS/LiteOS_Lab/drivers/third_party/ST/STM32L4xx_HAL_Driver/Src\stm32l4xx_hal_spi.c ****         {
 781:E:/LiteOS/LiteOS_Lab/drivers/third_party/ST/STM32L4xx_HAL_Driver/Src\stm32l4xx_hal_spi.c ****           errorcode = HAL_TIMEOUT;
 1074              		.loc 1 781 0 is_stmt 1
 1075 018e 0323     		movs	r3, #3
 1076 0190 FB75     		strb	r3, [r7, #23]
 782:E:/LiteOS/LiteOS_Lab/drivers/third_party/ST/STM32L4xx_HAL_Driver/Src\stm32l4xx_hal_spi.c ****           goto error;
 1077              		.loc 1 782 0
 1078 0192 4BE0     		b	.L49
 1079              	.L57:
 766:E:/LiteOS/LiteOS_Lab/drivers/third_party/ST/STM32L4xx_HAL_Driver/Src\stm32l4xx_hal_spi.c ****     {
 1080              		.loc 1 766 0
 1081 0194 FB68     		ldr	r3, [r7, #12]
 1082 0196 B3F84630 		ldrh	r3, [r3, #70]	@ movhi
 1083 019a 9BB2     		uxth	r3, r3
 1084 019c 002B     		cmp	r3, #0
 1085 019e CCD1     		bne	.L60
 1086 01a0 31E0     		b	.L61
 1087              	.L65:
 783:E:/LiteOS/LiteOS_Lab/drivers/third_party/ST/STM32L4xx_HAL_Driver/Src\stm32l4xx_hal_spi.c ****         }
 784:E:/LiteOS/LiteOS_Lab/drivers/third_party/ST/STM32L4xx_HAL_Driver/Src\stm32l4xx_hal_spi.c ****       }
 785:E:/LiteOS/LiteOS_Lab/drivers/third_party/ST/STM32L4xx_HAL_Driver/Src\stm32l4xx_hal_spi.c ****     }
 786:E:/LiteOS/LiteOS_Lab/drivers/third_party/ST/STM32L4xx_HAL_Driver/Src\stm32l4xx_hal_spi.c ****   }
 787:E:/LiteOS/LiteOS_Lab/drivers/third_party/ST/STM32L4xx_HAL_Driver/Src\stm32l4xx_hal_spi.c ****   else
 788:E:/LiteOS/LiteOS_Lab/drivers/third_party/ST/STM32L4xx_HAL_Driver/Src\stm32l4xx_hal_spi.c ****   {
 789:E:/LiteOS/LiteOS_Lab/drivers/third_party/ST/STM32L4xx_HAL_Driver/Src\stm32l4xx_hal_spi.c ****     /* Transfer loop */
 790:E:/LiteOS/LiteOS_Lab/drivers/third_party/ST/STM32L4xx_HAL_Driver/Src\stm32l4xx_hal_spi.c ****     while (hspi->RxXferCount > 0U)
 791:E:/LiteOS/LiteOS_Lab/drivers/third_party/ST/STM32L4xx_HAL_Driver/Src\stm32l4xx_hal_spi.c ****     {
 792:E:/LiteOS/LiteOS_Lab/drivers/third_party/ST/STM32L4xx_HAL_Driver/Src\stm32l4xx_hal_spi.c ****       /* Check the RXNE flag */
 793:E:/LiteOS/LiteOS_Lab/drivers/third_party/ST/STM32L4xx_HAL_Driver/Src\stm32l4xx_hal_spi.c ****       if (__HAL_SPI_GET_FLAG(hspi, SPI_FLAG_RXNE))
 1088              		.loc 1 793 0
 1089 01a2 FB68     		ldr	r3, [r7, #12]
 1090 01a4 1B68     		ldr	r3, [r3]
 1091 01a6 9B68     		ldr	r3, [r3, #8]
 1092 01a8 03F00103 		and	r3, r3, #1
 1093 01ac 012B     		cmp	r3, #1
 1094 01ae 12D1     		bne	.L63
 794:E:/LiteOS/LiteOS_Lab/drivers/third_party/ST/STM32L4xx_HAL_Driver/Src\stm32l4xx_hal_spi.c ****       {
 795:E:/LiteOS/LiteOS_Lab/drivers/third_party/ST/STM32L4xx_HAL_Driver/Src\stm32l4xx_hal_spi.c ****         *((uint16_t *)pData) = hspi->Instance->DR;
ARM GAS  C:\Users\user\AppData\Local\Temp\ccvQ1M9B.s 			page 34


 1095              		.loc 1 795 0
 1096 01b0 FB68     		ldr	r3, [r7, #12]
 1097 01b2 1B68     		ldr	r3, [r3]
 1098 01b4 DB68     		ldr	r3, [r3, #12]
 1099 01b6 9AB2     		uxth	r2, r3
 1100 01b8 BB68     		ldr	r3, [r7, #8]
 1101 01ba 1A80     		strh	r2, [r3]	@ movhi
 796:E:/LiteOS/LiteOS_Lab/drivers/third_party/ST/STM32L4xx_HAL_Driver/Src\stm32l4xx_hal_spi.c ****         pData += sizeof(uint16_t);
 1102              		.loc 1 796 0
 1103 01bc BB68     		ldr	r3, [r7, #8]
 1104 01be 0233     		adds	r3, r3, #2
 1105 01c0 BB60     		str	r3, [r7, #8]
 797:E:/LiteOS/LiteOS_Lab/drivers/third_party/ST/STM32L4xx_HAL_Driver/Src\stm32l4xx_hal_spi.c ****         hspi->RxXferCount--;
 1106              		.loc 1 797 0
 1107 01c2 FB68     		ldr	r3, [r7, #12]
 1108 01c4 B3F84630 		ldrh	r3, [r3, #70]	@ movhi
 1109 01c8 9BB2     		uxth	r3, r3
 1110 01ca 013B     		subs	r3, r3, #1
 1111 01cc 9AB2     		uxth	r2, r3
 1112 01ce FB68     		ldr	r3, [r7, #12]
 1113 01d0 A3F84620 		strh	r2, [r3, #70]	@ movhi
 1114 01d4 11E0     		b	.L62
 1115              	.L63:
 798:E:/LiteOS/LiteOS_Lab/drivers/third_party/ST/STM32L4xx_HAL_Driver/Src\stm32l4xx_hal_spi.c ****       }
 799:E:/LiteOS/LiteOS_Lab/drivers/third_party/ST/STM32L4xx_HAL_Driver/Src\stm32l4xx_hal_spi.c ****       else
 800:E:/LiteOS/LiteOS_Lab/drivers/third_party/ST/STM32L4xx_HAL_Driver/Src\stm32l4xx_hal_spi.c ****       {
 801:E:/LiteOS/LiteOS_Lab/drivers/third_party/ST/STM32L4xx_HAL_Driver/Src\stm32l4xx_hal_spi.c ****         /* Timeout management */
 802:E:/LiteOS/LiteOS_Lab/drivers/third_party/ST/STM32L4xx_HAL_Driver/Src\stm32l4xx_hal_spi.c ****         if ((Timeout == 0U) || ((Timeout != HAL_MAX_DELAY) && ((HAL_GetTick() - tickstart) >=  Time
 1116              		.loc 1 802 0
 1117 01d6 3B68     		ldr	r3, [r7]
 1118 01d8 002B     		cmp	r3, #0
 1119 01da 0BD0     		beq	.L64
 1120              		.loc 1 802 0 is_stmt 0 discriminator 1
 1121 01dc 3B68     		ldr	r3, [r7]
 1122 01de B3F1FF3F 		cmp	r3, #-1
 1123 01e2 0AD0     		beq	.L62
 1124              		.loc 1 802 0 discriminator 2
 1125 01e4 FFF7FEFF 		bl	HAL_GetTick
 1126 01e8 0246     		mov	r2, r0
 1127 01ea 3B69     		ldr	r3, [r7, #16]
 1128 01ec D31A     		subs	r3, r2, r3
 1129 01ee 3A68     		ldr	r2, [r7]
 1130 01f0 9A42     		cmp	r2, r3
 1131 01f2 02D8     		bhi	.L62
 1132              	.L64:
 803:E:/LiteOS/LiteOS_Lab/drivers/third_party/ST/STM32L4xx_HAL_Driver/Src\stm32l4xx_hal_spi.c ****         {
 804:E:/LiteOS/LiteOS_Lab/drivers/third_party/ST/STM32L4xx_HAL_Driver/Src\stm32l4xx_hal_spi.c ****           errorcode = HAL_TIMEOUT;
 1133              		.loc 1 804 0 is_stmt 1
 1134 01f4 0323     		movs	r3, #3
 1135 01f6 FB75     		strb	r3, [r7, #23]
 805:E:/LiteOS/LiteOS_Lab/drivers/third_party/ST/STM32L4xx_HAL_Driver/Src\stm32l4xx_hal_spi.c ****           goto error;
 1136              		.loc 1 805 0
 1137 01f8 18E0     		b	.L49
 1138              	.L62:
 790:E:/LiteOS/LiteOS_Lab/drivers/third_party/ST/STM32L4xx_HAL_Driver/Src\stm32l4xx_hal_spi.c ****     {
 1139              		.loc 1 790 0
 1140 01fa FB68     		ldr	r3, [r7, #12]
ARM GAS  C:\Users\user\AppData\Local\Temp\ccvQ1M9B.s 			page 35


 1141 01fc B3F84630 		ldrh	r3, [r3, #70]	@ movhi
 1142 0200 9BB2     		uxth	r3, r3
 1143 0202 002B     		cmp	r3, #0
 1144 0204 CDD1     		bne	.L65
 1145              	.L61:
 806:E:/LiteOS/LiteOS_Lab/drivers/third_party/ST/STM32L4xx_HAL_Driver/Src\stm32l4xx_hal_spi.c ****         }
 807:E:/LiteOS/LiteOS_Lab/drivers/third_party/ST/STM32L4xx_HAL_Driver/Src\stm32l4xx_hal_spi.c ****       }
 808:E:/LiteOS/LiteOS_Lab/drivers/third_party/ST/STM32L4xx_HAL_Driver/Src\stm32l4xx_hal_spi.c ****     }
 809:E:/LiteOS/LiteOS_Lab/drivers/third_party/ST/STM32L4xx_HAL_Driver/Src\stm32l4xx_hal_spi.c ****   }
 810:E:/LiteOS/LiteOS_Lab/drivers/third_party/ST/STM32L4xx_HAL_Driver/Src\stm32l4xx_hal_spi.c **** 
 811:E:/LiteOS/LiteOS_Lab/drivers/third_party/ST/STM32L4xx_HAL_Driver/Src\stm32l4xx_hal_spi.c **** #if (USE_SPI_CRC != 0U)
 812:E:/LiteOS/LiteOS_Lab/drivers/third_party/ST/STM32L4xx_HAL_Driver/Src\stm32l4xx_hal_spi.c ****   /* Handle the CRC Transmission */
 813:E:/LiteOS/LiteOS_Lab/drivers/third_party/ST/STM32L4xx_HAL_Driver/Src\stm32l4xx_hal_spi.c ****   if (hspi->Init.CRCCalculation == SPI_CRCCALCULATION_ENABLE)
 814:E:/LiteOS/LiteOS_Lab/drivers/third_party/ST/STM32L4xx_HAL_Driver/Src\stm32l4xx_hal_spi.c ****   {
 815:E:/LiteOS/LiteOS_Lab/drivers/third_party/ST/STM32L4xx_HAL_Driver/Src\stm32l4xx_hal_spi.c ****     /* freeze the CRC before the latest data */
 816:E:/LiteOS/LiteOS_Lab/drivers/third_party/ST/STM32L4xx_HAL_Driver/Src\stm32l4xx_hal_spi.c ****     SET_BIT(hspi->Instance->CR1, SPI_CR1_CRCNEXT);
 817:E:/LiteOS/LiteOS_Lab/drivers/third_party/ST/STM32L4xx_HAL_Driver/Src\stm32l4xx_hal_spi.c **** 
 818:E:/LiteOS/LiteOS_Lab/drivers/third_party/ST/STM32L4xx_HAL_Driver/Src\stm32l4xx_hal_spi.c ****     /* Read the latest data */
 819:E:/LiteOS/LiteOS_Lab/drivers/third_party/ST/STM32L4xx_HAL_Driver/Src\stm32l4xx_hal_spi.c ****     if (SPI_WaitFlagStateUntilTimeout(hspi, SPI_FLAG_RXNE, SET, Timeout, tickstart) != HAL_OK)
 820:E:/LiteOS/LiteOS_Lab/drivers/third_party/ST/STM32L4xx_HAL_Driver/Src\stm32l4xx_hal_spi.c ****     {
 821:E:/LiteOS/LiteOS_Lab/drivers/third_party/ST/STM32L4xx_HAL_Driver/Src\stm32l4xx_hal_spi.c ****       /* the latest data has not been received */
 822:E:/LiteOS/LiteOS_Lab/drivers/third_party/ST/STM32L4xx_HAL_Driver/Src\stm32l4xx_hal_spi.c ****       errorcode = HAL_TIMEOUT;
 823:E:/LiteOS/LiteOS_Lab/drivers/third_party/ST/STM32L4xx_HAL_Driver/Src\stm32l4xx_hal_spi.c ****       goto error;
 824:E:/LiteOS/LiteOS_Lab/drivers/third_party/ST/STM32L4xx_HAL_Driver/Src\stm32l4xx_hal_spi.c ****     }
 825:E:/LiteOS/LiteOS_Lab/drivers/third_party/ST/STM32L4xx_HAL_Driver/Src\stm32l4xx_hal_spi.c **** 
 826:E:/LiteOS/LiteOS_Lab/drivers/third_party/ST/STM32L4xx_HAL_Driver/Src\stm32l4xx_hal_spi.c ****     /* Receive last data in 16 Bit mode */
 827:E:/LiteOS/LiteOS_Lab/drivers/third_party/ST/STM32L4xx_HAL_Driver/Src\stm32l4xx_hal_spi.c ****     if (hspi->Init.DataSize > SPI_DATASIZE_8BIT)
 828:E:/LiteOS/LiteOS_Lab/drivers/third_party/ST/STM32L4xx_HAL_Driver/Src\stm32l4xx_hal_spi.c ****     {
 829:E:/LiteOS/LiteOS_Lab/drivers/third_party/ST/STM32L4xx_HAL_Driver/Src\stm32l4xx_hal_spi.c ****       *((uint16_t *)pData) = hspi->Instance->DR;
 830:E:/LiteOS/LiteOS_Lab/drivers/third_party/ST/STM32L4xx_HAL_Driver/Src\stm32l4xx_hal_spi.c ****     }
 831:E:/LiteOS/LiteOS_Lab/drivers/third_party/ST/STM32L4xx_HAL_Driver/Src\stm32l4xx_hal_spi.c ****     /* Receive last data in 8 Bit mode */
 832:E:/LiteOS/LiteOS_Lab/drivers/third_party/ST/STM32L4xx_HAL_Driver/Src\stm32l4xx_hal_spi.c ****     else
 833:E:/LiteOS/LiteOS_Lab/drivers/third_party/ST/STM32L4xx_HAL_Driver/Src\stm32l4xx_hal_spi.c ****     {
 834:E:/LiteOS/LiteOS_Lab/drivers/third_party/ST/STM32L4xx_HAL_Driver/Src\stm32l4xx_hal_spi.c ****       (*(uint8_t *)pData) = *(__IO uint8_t *)&hspi->Instance->DR;
 835:E:/LiteOS/LiteOS_Lab/drivers/third_party/ST/STM32L4xx_HAL_Driver/Src\stm32l4xx_hal_spi.c ****     }
 836:E:/LiteOS/LiteOS_Lab/drivers/third_party/ST/STM32L4xx_HAL_Driver/Src\stm32l4xx_hal_spi.c **** 
 837:E:/LiteOS/LiteOS_Lab/drivers/third_party/ST/STM32L4xx_HAL_Driver/Src\stm32l4xx_hal_spi.c ****     /* Wait the CRC data */
 838:E:/LiteOS/LiteOS_Lab/drivers/third_party/ST/STM32L4xx_HAL_Driver/Src\stm32l4xx_hal_spi.c ****     if (SPI_WaitFlagStateUntilTimeout(hspi, SPI_FLAG_RXNE, SET, Timeout, tickstart) != HAL_OK)
 839:E:/LiteOS/LiteOS_Lab/drivers/third_party/ST/STM32L4xx_HAL_Driver/Src\stm32l4xx_hal_spi.c ****     {
 840:E:/LiteOS/LiteOS_Lab/drivers/third_party/ST/STM32L4xx_HAL_Driver/Src\stm32l4xx_hal_spi.c ****       SET_BIT(hspi->ErrorCode, HAL_SPI_ERROR_CRC);
 841:E:/LiteOS/LiteOS_Lab/drivers/third_party/ST/STM32L4xx_HAL_Driver/Src\stm32l4xx_hal_spi.c ****       errorcode = HAL_TIMEOUT;
 842:E:/LiteOS/LiteOS_Lab/drivers/third_party/ST/STM32L4xx_HAL_Driver/Src\stm32l4xx_hal_spi.c ****       goto error;
 843:E:/LiteOS/LiteOS_Lab/drivers/third_party/ST/STM32L4xx_HAL_Driver/Src\stm32l4xx_hal_spi.c ****     }
 844:E:/LiteOS/LiteOS_Lab/drivers/third_party/ST/STM32L4xx_HAL_Driver/Src\stm32l4xx_hal_spi.c **** 
 845:E:/LiteOS/LiteOS_Lab/drivers/third_party/ST/STM32L4xx_HAL_Driver/Src\stm32l4xx_hal_spi.c ****     /* Read CRC to Flush DR and RXNE flag */
 846:E:/LiteOS/LiteOS_Lab/drivers/third_party/ST/STM32L4xx_HAL_Driver/Src\stm32l4xx_hal_spi.c ****     if (hspi->Init.DataSize == SPI_DATASIZE_16BIT)
 847:E:/LiteOS/LiteOS_Lab/drivers/third_party/ST/STM32L4xx_HAL_Driver/Src\stm32l4xx_hal_spi.c ****     {
 848:E:/LiteOS/LiteOS_Lab/drivers/third_party/ST/STM32L4xx_HAL_Driver/Src\stm32l4xx_hal_spi.c ****       tmpreg = hspi->Instance->DR;
 849:E:/LiteOS/LiteOS_Lab/drivers/third_party/ST/STM32L4xx_HAL_Driver/Src\stm32l4xx_hal_spi.c ****       /* To avoid GCC warning */
 850:E:/LiteOS/LiteOS_Lab/drivers/third_party/ST/STM32L4xx_HAL_Driver/Src\stm32l4xx_hal_spi.c ****       UNUSED(tmpreg);
 851:E:/LiteOS/LiteOS_Lab/drivers/third_party/ST/STM32L4xx_HAL_Driver/Src\stm32l4xx_hal_spi.c ****     }
 852:E:/LiteOS/LiteOS_Lab/drivers/third_party/ST/STM32L4xx_HAL_Driver/Src\stm32l4xx_hal_spi.c ****     else
 853:E:/LiteOS/LiteOS_Lab/drivers/third_party/ST/STM32L4xx_HAL_Driver/Src\stm32l4xx_hal_spi.c ****     {
 854:E:/LiteOS/LiteOS_Lab/drivers/third_party/ST/STM32L4xx_HAL_Driver/Src\stm32l4xx_hal_spi.c ****       tmpreg = *(__IO uint8_t *)&hspi->Instance->DR;
 855:E:/LiteOS/LiteOS_Lab/drivers/third_party/ST/STM32L4xx_HAL_Driver/Src\stm32l4xx_hal_spi.c ****       /* To avoid GCC warning */
 856:E:/LiteOS/LiteOS_Lab/drivers/third_party/ST/STM32L4xx_HAL_Driver/Src\stm32l4xx_hal_spi.c ****       UNUSED(tmpreg);
 857:E:/LiteOS/LiteOS_Lab/drivers/third_party/ST/STM32L4xx_HAL_Driver/Src\stm32l4xx_hal_spi.c **** 
ARM GAS  C:\Users\user\AppData\Local\Temp\ccvQ1M9B.s 			page 36


 858:E:/LiteOS/LiteOS_Lab/drivers/third_party/ST/STM32L4xx_HAL_Driver/Src\stm32l4xx_hal_spi.c ****       if ((hspi->Init.DataSize == SPI_DATASIZE_8BIT) && (hspi->Init.CRCLength == SPI_CRC_LENGTH_16B
 859:E:/LiteOS/LiteOS_Lab/drivers/third_party/ST/STM32L4xx_HAL_Driver/Src\stm32l4xx_hal_spi.c ****       {
 860:E:/LiteOS/LiteOS_Lab/drivers/third_party/ST/STM32L4xx_HAL_Driver/Src\stm32l4xx_hal_spi.c ****         if (SPI_WaitFlagStateUntilTimeout(hspi, SPI_FLAG_RXNE, SPI_FLAG_RXNE, Timeout, tickstart) !
 861:E:/LiteOS/LiteOS_Lab/drivers/third_party/ST/STM32L4xx_HAL_Driver/Src\stm32l4xx_hal_spi.c ****         {
 862:E:/LiteOS/LiteOS_Lab/drivers/third_party/ST/STM32L4xx_HAL_Driver/Src\stm32l4xx_hal_spi.c ****           /* Error on the CRC reception */
 863:E:/LiteOS/LiteOS_Lab/drivers/third_party/ST/STM32L4xx_HAL_Driver/Src\stm32l4xx_hal_spi.c ****           SET_BIT(hspi->ErrorCode, HAL_SPI_ERROR_CRC);
 864:E:/LiteOS/LiteOS_Lab/drivers/third_party/ST/STM32L4xx_HAL_Driver/Src\stm32l4xx_hal_spi.c ****           errorcode = HAL_TIMEOUT;
 865:E:/LiteOS/LiteOS_Lab/drivers/third_party/ST/STM32L4xx_HAL_Driver/Src\stm32l4xx_hal_spi.c ****           goto error;
 866:E:/LiteOS/LiteOS_Lab/drivers/third_party/ST/STM32L4xx_HAL_Driver/Src\stm32l4xx_hal_spi.c ****         }
 867:E:/LiteOS/LiteOS_Lab/drivers/third_party/ST/STM32L4xx_HAL_Driver/Src\stm32l4xx_hal_spi.c ****         tmpreg = *(__IO uint8_t *)&hspi->Instance->DR;
 868:E:/LiteOS/LiteOS_Lab/drivers/third_party/ST/STM32L4xx_HAL_Driver/Src\stm32l4xx_hal_spi.c ****         /* To avoid GCC warning */
 869:E:/LiteOS/LiteOS_Lab/drivers/third_party/ST/STM32L4xx_HAL_Driver/Src\stm32l4xx_hal_spi.c ****         UNUSED(tmpreg);
 870:E:/LiteOS/LiteOS_Lab/drivers/third_party/ST/STM32L4xx_HAL_Driver/Src\stm32l4xx_hal_spi.c ****       }
 871:E:/LiteOS/LiteOS_Lab/drivers/third_party/ST/STM32L4xx_HAL_Driver/Src\stm32l4xx_hal_spi.c ****     }
 872:E:/LiteOS/LiteOS_Lab/drivers/third_party/ST/STM32L4xx_HAL_Driver/Src\stm32l4xx_hal_spi.c ****   }
 873:E:/LiteOS/LiteOS_Lab/drivers/third_party/ST/STM32L4xx_HAL_Driver/Src\stm32l4xx_hal_spi.c **** #endif /* USE_SPI_CRC */
 874:E:/LiteOS/LiteOS_Lab/drivers/third_party/ST/STM32L4xx_HAL_Driver/Src\stm32l4xx_hal_spi.c **** 
 875:E:/LiteOS/LiteOS_Lab/drivers/third_party/ST/STM32L4xx_HAL_Driver/Src\stm32l4xx_hal_spi.c ****   /* Check the end of the transaction */
 876:E:/LiteOS/LiteOS_Lab/drivers/third_party/ST/STM32L4xx_HAL_Driver/Src\stm32l4xx_hal_spi.c ****   if (SPI_EndRxTransaction(hspi, Timeout, tickstart) != HAL_OK)
 1146              		.loc 1 876 0
 1147 0206 3A69     		ldr	r2, [r7, #16]
 1148 0208 3968     		ldr	r1, [r7]
 1149 020a F868     		ldr	r0, [r7, #12]
 1150 020c FFF7FEFF 		bl	SPI_EndRxTransaction
 1151 0210 0346     		mov	r3, r0
 1152 0212 002B     		cmp	r3, #0
 1153 0214 02D0     		beq	.L66
 877:E:/LiteOS/LiteOS_Lab/drivers/third_party/ST/STM32L4xx_HAL_Driver/Src\stm32l4xx_hal_spi.c ****   {
 878:E:/LiteOS/LiteOS_Lab/drivers/third_party/ST/STM32L4xx_HAL_Driver/Src\stm32l4xx_hal_spi.c ****     hspi->ErrorCode = HAL_SPI_ERROR_FLAG;
 1154              		.loc 1 878 0
 1155 0216 FB68     		ldr	r3, [r7, #12]
 1156 0218 2022     		movs	r2, #32
 1157 021a 1A66     		str	r2, [r3, #96]
 1158              	.L66:
 879:E:/LiteOS/LiteOS_Lab/drivers/third_party/ST/STM32L4xx_HAL_Driver/Src\stm32l4xx_hal_spi.c ****   }
 880:E:/LiteOS/LiteOS_Lab/drivers/third_party/ST/STM32L4xx_HAL_Driver/Src\stm32l4xx_hal_spi.c **** 
 881:E:/LiteOS/LiteOS_Lab/drivers/third_party/ST/STM32L4xx_HAL_Driver/Src\stm32l4xx_hal_spi.c **** #if (USE_SPI_CRC != 0U)
 882:E:/LiteOS/LiteOS_Lab/drivers/third_party/ST/STM32L4xx_HAL_Driver/Src\stm32l4xx_hal_spi.c ****   /* Check if CRC error occurred */
 883:E:/LiteOS/LiteOS_Lab/drivers/third_party/ST/STM32L4xx_HAL_Driver/Src\stm32l4xx_hal_spi.c ****   if (__HAL_SPI_GET_FLAG(hspi, SPI_FLAG_CRCERR))
 884:E:/LiteOS/LiteOS_Lab/drivers/third_party/ST/STM32L4xx_HAL_Driver/Src\stm32l4xx_hal_spi.c ****   {
 885:E:/LiteOS/LiteOS_Lab/drivers/third_party/ST/STM32L4xx_HAL_Driver/Src\stm32l4xx_hal_spi.c ****     SET_BIT(hspi->ErrorCode, HAL_SPI_ERROR_CRC);
 886:E:/LiteOS/LiteOS_Lab/drivers/third_party/ST/STM32L4xx_HAL_Driver/Src\stm32l4xx_hal_spi.c ****     __HAL_SPI_CLEAR_CRCERRFLAG(hspi);
 887:E:/LiteOS/LiteOS_Lab/drivers/third_party/ST/STM32L4xx_HAL_Driver/Src\stm32l4xx_hal_spi.c ****   }
 888:E:/LiteOS/LiteOS_Lab/drivers/third_party/ST/STM32L4xx_HAL_Driver/Src\stm32l4xx_hal_spi.c **** #endif /* USE_SPI_CRC */
 889:E:/LiteOS/LiteOS_Lab/drivers/third_party/ST/STM32L4xx_HAL_Driver/Src\stm32l4xx_hal_spi.c **** 
 890:E:/LiteOS/LiteOS_Lab/drivers/third_party/ST/STM32L4xx_HAL_Driver/Src\stm32l4xx_hal_spi.c ****   if (hspi->ErrorCode != HAL_SPI_ERROR_NONE)
 1159              		.loc 1 890 0
 1160 021c FB68     		ldr	r3, [r7, #12]
 1161 021e 1B6E     		ldr	r3, [r3, #96]
 1162 0220 002B     		cmp	r3, #0
 1163 0222 02D0     		beq	.L67
 891:E:/LiteOS/LiteOS_Lab/drivers/third_party/ST/STM32L4xx_HAL_Driver/Src\stm32l4xx_hal_spi.c ****   {
 892:E:/LiteOS/LiteOS_Lab/drivers/third_party/ST/STM32L4xx_HAL_Driver/Src\stm32l4xx_hal_spi.c ****     errorcode = HAL_ERROR;
 1164              		.loc 1 892 0
 1165 0224 0123     		movs	r3, #1
 1166 0226 FB75     		strb	r3, [r7, #23]
 1167 0228 00E0     		b	.L49
ARM GAS  C:\Users\user\AppData\Local\Temp\ccvQ1M9B.s 			page 37


 1168              	.L67:
 893:E:/LiteOS/LiteOS_Lab/drivers/third_party/ST/STM32L4xx_HAL_Driver/Src\stm32l4xx_hal_spi.c ****   }
 894:E:/LiteOS/LiteOS_Lab/drivers/third_party/ST/STM32L4xx_HAL_Driver/Src\stm32l4xx_hal_spi.c **** 
 895:E:/LiteOS/LiteOS_Lab/drivers/third_party/ST/STM32L4xx_HAL_Driver/Src\stm32l4xx_hal_spi.c **** error :
 1169              		.loc 1 895 0
 1170 022a 00BF     		nop
 1171              	.L49:
 896:E:/LiteOS/LiteOS_Lab/drivers/third_party/ST/STM32L4xx_HAL_Driver/Src\stm32l4xx_hal_spi.c ****   hspi->State = HAL_SPI_STATE_READY;
 1172              		.loc 1 896 0
 1173 022c FB68     		ldr	r3, [r7, #12]
 1174 022e 0122     		movs	r2, #1
 1175 0230 83F85D20 		strb	r2, [r3, #93]
 897:E:/LiteOS/LiteOS_Lab/drivers/third_party/ST/STM32L4xx_HAL_Driver/Src\stm32l4xx_hal_spi.c ****   __HAL_UNLOCK(hspi);
 1176              		.loc 1 897 0
 1177 0234 FB68     		ldr	r3, [r7, #12]
 1178 0236 0022     		movs	r2, #0
 1179 0238 83F85C20 		strb	r2, [r3, #92]
 898:E:/LiteOS/LiteOS_Lab/drivers/third_party/ST/STM32L4xx_HAL_Driver/Src\stm32l4xx_hal_spi.c ****   return errorcode;
 1180              		.loc 1 898 0
 1181 023c FB7D     		ldrb	r3, [r7, #23]	@ zero_extendqisi2
 1182              	.L46:
 899:E:/LiteOS/LiteOS_Lab/drivers/third_party/ST/STM32L4xx_HAL_Driver/Src\stm32l4xx_hal_spi.c **** }
 1183              		.loc 1 899 0
 1184 023e 1846     		mov	r0, r3
 1185 0240 1837     		adds	r7, r7, #24
 1186              	.LCFI30:
 1187              		.cfi_def_cfa_offset 8
 1188 0242 BD46     		mov	sp, r7
 1189              	.LCFI31:
 1190              		.cfi_def_cfa_register 13
 1191              		@ sp needed
 1192 0244 80BD     		pop	{r7, pc}
 1193              		.cfi_endproc
 1194              	.LFE138:
 1196              		.section	.text.HAL_SPI_TransmitReceive,"ax",%progbits
 1197              		.align	1
 1198              		.global	HAL_SPI_TransmitReceive
 1199              		.syntax unified
 1200              		.thumb
 1201              		.thumb_func
 1202              		.fpu fpv4-sp-d16
 1204              	HAL_SPI_TransmitReceive:
 1205              	.LFB139:
 900:E:/LiteOS/LiteOS_Lab/drivers/third_party/ST/STM32L4xx_HAL_Driver/Src\stm32l4xx_hal_spi.c **** 
 901:E:/LiteOS/LiteOS_Lab/drivers/third_party/ST/STM32L4xx_HAL_Driver/Src\stm32l4xx_hal_spi.c **** /**
 902:E:/LiteOS/LiteOS_Lab/drivers/third_party/ST/STM32L4xx_HAL_Driver/Src\stm32l4xx_hal_spi.c ****   * @brief  Transmit and Receive an amount of data in blocking mode.
 903:E:/LiteOS/LiteOS_Lab/drivers/third_party/ST/STM32L4xx_HAL_Driver/Src\stm32l4xx_hal_spi.c ****   * @param  hspi pointer to a SPI_HandleTypeDef structure that contains
 904:E:/LiteOS/LiteOS_Lab/drivers/third_party/ST/STM32L4xx_HAL_Driver/Src\stm32l4xx_hal_spi.c ****   *               the configuration information for SPI module.
 905:E:/LiteOS/LiteOS_Lab/drivers/third_party/ST/STM32L4xx_HAL_Driver/Src\stm32l4xx_hal_spi.c ****   * @param  pTxData pointer to transmission data buffer
 906:E:/LiteOS/LiteOS_Lab/drivers/third_party/ST/STM32L4xx_HAL_Driver/Src\stm32l4xx_hal_spi.c ****   * @param  pRxData pointer to reception data buffer
 907:E:/LiteOS/LiteOS_Lab/drivers/third_party/ST/STM32L4xx_HAL_Driver/Src\stm32l4xx_hal_spi.c ****   * @param  Size amount of data to be sent and received
 908:E:/LiteOS/LiteOS_Lab/drivers/third_party/ST/STM32L4xx_HAL_Driver/Src\stm32l4xx_hal_spi.c ****   * @param  Timeout Timeout duration
 909:E:/LiteOS/LiteOS_Lab/drivers/third_party/ST/STM32L4xx_HAL_Driver/Src\stm32l4xx_hal_spi.c ****   * @retval HAL status
 910:E:/LiteOS/LiteOS_Lab/drivers/third_party/ST/STM32L4xx_HAL_Driver/Src\stm32l4xx_hal_spi.c ****   */
 911:E:/LiteOS/LiteOS_Lab/drivers/third_party/ST/STM32L4xx_HAL_Driver/Src\stm32l4xx_hal_spi.c **** HAL_StatusTypeDef HAL_SPI_TransmitReceive(SPI_HandleTypeDef *hspi, uint8_t *pTxData, uint8_t *pRxDa
 912:E:/LiteOS/LiteOS_Lab/drivers/third_party/ST/STM32L4xx_HAL_Driver/Src\stm32l4xx_hal_spi.c ****                                           uint32_t Timeout)
 913:E:/LiteOS/LiteOS_Lab/drivers/third_party/ST/STM32L4xx_HAL_Driver/Src\stm32l4xx_hal_spi.c **** {
ARM GAS  C:\Users\user\AppData\Local\Temp\ccvQ1M9B.s 			page 38


 1206              		.loc 1 913 0
 1207              		.cfi_startproc
 1208              		@ args = 4, pretend = 0, frame = 40
 1209              		@ frame_needed = 1, uses_anonymous_args = 0
 1210 0000 80B5     		push	{r7, lr}
 1211              	.LCFI32:
 1212              		.cfi_def_cfa_offset 8
 1213              		.cfi_offset 7, -8
 1214              		.cfi_offset 14, -4
 1215 0002 8AB0     		sub	sp, sp, #40
 1216              	.LCFI33:
 1217              		.cfi_def_cfa_offset 48
 1218 0004 00AF     		add	r7, sp, #0
 1219              	.LCFI34:
 1220              		.cfi_def_cfa_register 7
 1221 0006 F860     		str	r0, [r7, #12]
 1222 0008 B960     		str	r1, [r7, #8]
 1223 000a 7A60     		str	r2, [r7, #4]
 1224 000c 7B80     		strh	r3, [r7, #2]	@ movhi
 914:E:/LiteOS/LiteOS_Lab/drivers/third_party/ST/STM32L4xx_HAL_Driver/Src\stm32l4xx_hal_spi.c ****   uint32_t tmp = 0U, tmp1 = 0U;
 1225              		.loc 1 914 0
 1226 000e 0023     		movs	r3, #0
 1227 0010 FB61     		str	r3, [r7, #28]
 1228 0012 0023     		movs	r3, #0
 1229 0014 BB61     		str	r3, [r7, #24]
 915:E:/LiteOS/LiteOS_Lab/drivers/third_party/ST/STM32L4xx_HAL_Driver/Src\stm32l4xx_hal_spi.c **** #if (USE_SPI_CRC != 0U)
 916:E:/LiteOS/LiteOS_Lab/drivers/third_party/ST/STM32L4xx_HAL_Driver/Src\stm32l4xx_hal_spi.c ****   __IO uint16_t tmpreg = 0U;
 917:E:/LiteOS/LiteOS_Lab/drivers/third_party/ST/STM32L4xx_HAL_Driver/Src\stm32l4xx_hal_spi.c **** #endif /* USE_SPI_CRC */
 918:E:/LiteOS/LiteOS_Lab/drivers/third_party/ST/STM32L4xx_HAL_Driver/Src\stm32l4xx_hal_spi.c ****   uint32_t tickstart = 0U;
 1230              		.loc 1 918 0
 1231 0016 0023     		movs	r3, #0
 1232 0018 7B61     		str	r3, [r7, #20]
 919:E:/LiteOS/LiteOS_Lab/drivers/third_party/ST/STM32L4xx_HAL_Driver/Src\stm32l4xx_hal_spi.c ****   /* Variable used to alternate Rx and Tx during transfer */
 920:E:/LiteOS/LiteOS_Lab/drivers/third_party/ST/STM32L4xx_HAL_Driver/Src\stm32l4xx_hal_spi.c ****   uint32_t txallowed = 1U;
 1233              		.loc 1 920 0
 1234 001a 0123     		movs	r3, #1
 1235 001c 7B62     		str	r3, [r7, #36]
 921:E:/LiteOS/LiteOS_Lab/drivers/third_party/ST/STM32L4xx_HAL_Driver/Src\stm32l4xx_hal_spi.c ****   HAL_StatusTypeDef errorcode = HAL_OK;
 1236              		.loc 1 921 0
 1237 001e 0023     		movs	r3, #0
 1238 0020 87F82330 		strb	r3, [r7, #35]
 922:E:/LiteOS/LiteOS_Lab/drivers/third_party/ST/STM32L4xx_HAL_Driver/Src\stm32l4xx_hal_spi.c **** 
 923:E:/LiteOS/LiteOS_Lab/drivers/third_party/ST/STM32L4xx_HAL_Driver/Src\stm32l4xx_hal_spi.c ****   /* Check Direction parameter */
 924:E:/LiteOS/LiteOS_Lab/drivers/third_party/ST/STM32L4xx_HAL_Driver/Src\stm32l4xx_hal_spi.c ****   assert_param(IS_SPI_DIRECTION_2LINES(hspi->Init.Direction));
 925:E:/LiteOS/LiteOS_Lab/drivers/third_party/ST/STM32L4xx_HAL_Driver/Src\stm32l4xx_hal_spi.c **** 
 926:E:/LiteOS/LiteOS_Lab/drivers/third_party/ST/STM32L4xx_HAL_Driver/Src\stm32l4xx_hal_spi.c ****   /* Process Locked */
 927:E:/LiteOS/LiteOS_Lab/drivers/third_party/ST/STM32L4xx_HAL_Driver/Src\stm32l4xx_hal_spi.c ****   __HAL_LOCK(hspi);
 1239              		.loc 1 927 0
 1240 0024 FB68     		ldr	r3, [r7, #12]
 1241 0026 93F85C30 		ldrb	r3, [r3, #92]	@ zero_extendqisi2
 1242 002a 012B     		cmp	r3, #1
 1243 002c 01D1     		bne	.L69
 1244              		.loc 1 927 0 is_stmt 0 discriminator 1
 1245 002e 0223     		movs	r3, #2
 1246 0030 DEE1     		b	.L70
 1247              	.L69:
 1248              		.loc 1 927 0 discriminator 2
ARM GAS  C:\Users\user\AppData\Local\Temp\ccvQ1M9B.s 			page 39


 1249 0032 FB68     		ldr	r3, [r7, #12]
 1250 0034 0122     		movs	r2, #1
 1251 0036 83F85C20 		strb	r2, [r3, #92]
 928:E:/LiteOS/LiteOS_Lab/drivers/third_party/ST/STM32L4xx_HAL_Driver/Src\stm32l4xx_hal_spi.c **** 
 929:E:/LiteOS/LiteOS_Lab/drivers/third_party/ST/STM32L4xx_HAL_Driver/Src\stm32l4xx_hal_spi.c ****   /* Init tickstart for timeout management*/
 930:E:/LiteOS/LiteOS_Lab/drivers/third_party/ST/STM32L4xx_HAL_Driver/Src\stm32l4xx_hal_spi.c ****   tickstart = HAL_GetTick();
 1252              		.loc 1 930 0 is_stmt 1 discriminator 2
 1253 003a FFF7FEFF 		bl	HAL_GetTick
 1254 003e 7861     		str	r0, [r7, #20]
 931:E:/LiteOS/LiteOS_Lab/drivers/third_party/ST/STM32L4xx_HAL_Driver/Src\stm32l4xx_hal_spi.c **** 
 932:E:/LiteOS/LiteOS_Lab/drivers/third_party/ST/STM32L4xx_HAL_Driver/Src\stm32l4xx_hal_spi.c ****   tmp  = hspi->State;
 1255              		.loc 1 932 0 discriminator 2
 1256 0040 FB68     		ldr	r3, [r7, #12]
 1257 0042 93F85D30 		ldrb	r3, [r3, #93]
 1258 0046 DBB2     		uxtb	r3, r3
 1259 0048 FB61     		str	r3, [r7, #28]
 933:E:/LiteOS/LiteOS_Lab/drivers/third_party/ST/STM32L4xx_HAL_Driver/Src\stm32l4xx_hal_spi.c ****   tmp1 = hspi->Init.Mode;
 1260              		.loc 1 933 0 discriminator 2
 1261 004a FB68     		ldr	r3, [r7, #12]
 1262 004c 5B68     		ldr	r3, [r3, #4]
 1263 004e BB61     		str	r3, [r7, #24]
 934:E:/LiteOS/LiteOS_Lab/drivers/third_party/ST/STM32L4xx_HAL_Driver/Src\stm32l4xx_hal_spi.c **** 
 935:E:/LiteOS/LiteOS_Lab/drivers/third_party/ST/STM32L4xx_HAL_Driver/Src\stm32l4xx_hal_spi.c ****   if (!((tmp == HAL_SPI_STATE_READY) || \
 1264              		.loc 1 935 0 discriminator 2
 1265 0050 FB69     		ldr	r3, [r7, #28]
 1266 0052 012B     		cmp	r3, #1
 1267 0054 0ED0     		beq	.L71
 1268              		.loc 1 935 0 is_stmt 0 discriminator 1
 1269 0056 BB69     		ldr	r3, [r7, #24]
 1270 0058 B3F5827F 		cmp	r3, #260
 1271 005c 06D1     		bne	.L72
 936:E:/LiteOS/LiteOS_Lab/drivers/third_party/ST/STM32L4xx_HAL_Driver/Src\stm32l4xx_hal_spi.c ****         ((tmp1 == SPI_MODE_MASTER) && (hspi->Init.Direction == SPI_DIRECTION_2LINES) && (tmp == HAL
 1272              		.loc 1 936 0 is_stmt 1
 1273 005e FB68     		ldr	r3, [r7, #12]
 1274 0060 9B68     		ldr	r3, [r3, #8]
 1275 0062 002B     		cmp	r3, #0
 1276 0064 02D1     		bne	.L72
 1277              		.loc 1 936 0 is_stmt 0 discriminator 1
 1278 0066 FB69     		ldr	r3, [r7, #28]
 1279 0068 042B     		cmp	r3, #4
 1280 006a 03D0     		beq	.L71
 1281              	.L72:
 937:E:/LiteOS/LiteOS_Lab/drivers/third_party/ST/STM32L4xx_HAL_Driver/Src\stm32l4xx_hal_spi.c ****   {
 938:E:/LiteOS/LiteOS_Lab/drivers/third_party/ST/STM32L4xx_HAL_Driver/Src\stm32l4xx_hal_spi.c ****     errorcode = HAL_BUSY;
 1282              		.loc 1 938 0 is_stmt 1
 1283 006c 0223     		movs	r3, #2
 1284 006e 87F82330 		strb	r3, [r7, #35]
 939:E:/LiteOS/LiteOS_Lab/drivers/third_party/ST/STM32L4xx_HAL_Driver/Src\stm32l4xx_hal_spi.c ****     goto error;
 1285              		.loc 1 939 0
 1286 0072 B3E1     		b	.L73
 1287              	.L71:
 940:E:/LiteOS/LiteOS_Lab/drivers/third_party/ST/STM32L4xx_HAL_Driver/Src\stm32l4xx_hal_spi.c ****   }
 941:E:/LiteOS/LiteOS_Lab/drivers/third_party/ST/STM32L4xx_HAL_Driver/Src\stm32l4xx_hal_spi.c **** 
 942:E:/LiteOS/LiteOS_Lab/drivers/third_party/ST/STM32L4xx_HAL_Driver/Src\stm32l4xx_hal_spi.c ****   if ((pTxData == NULL) || (pRxData == NULL) || (Size == 0U))
 1288              		.loc 1 942 0
 1289 0074 BB68     		ldr	r3, [r7, #8]
 1290 0076 002B     		cmp	r3, #0
ARM GAS  C:\Users\user\AppData\Local\Temp\ccvQ1M9B.s 			page 40


 1291 0078 05D0     		beq	.L74
 1292              		.loc 1 942 0 is_stmt 0 discriminator 1
 1293 007a 7B68     		ldr	r3, [r7, #4]
 1294 007c 002B     		cmp	r3, #0
 1295 007e 02D0     		beq	.L74
 1296              		.loc 1 942 0 discriminator 2
 1297 0080 7B88     		ldrh	r3, [r7, #2]
 1298 0082 002B     		cmp	r3, #0
 1299 0084 03D1     		bne	.L75
 1300              	.L74:
 943:E:/LiteOS/LiteOS_Lab/drivers/third_party/ST/STM32L4xx_HAL_Driver/Src\stm32l4xx_hal_spi.c ****   {
 944:E:/LiteOS/LiteOS_Lab/drivers/third_party/ST/STM32L4xx_HAL_Driver/Src\stm32l4xx_hal_spi.c ****     errorcode = HAL_ERROR;
 1301              		.loc 1 944 0 is_stmt 1
 1302 0086 0123     		movs	r3, #1
 1303 0088 87F82330 		strb	r3, [r7, #35]
 945:E:/LiteOS/LiteOS_Lab/drivers/third_party/ST/STM32L4xx_HAL_Driver/Src\stm32l4xx_hal_spi.c ****     goto error;
 1304              		.loc 1 945 0
 1305 008c A6E1     		b	.L73
 1306              	.L75:
 946:E:/LiteOS/LiteOS_Lab/drivers/third_party/ST/STM32L4xx_HAL_Driver/Src\stm32l4xx_hal_spi.c ****   }
 947:E:/LiteOS/LiteOS_Lab/drivers/third_party/ST/STM32L4xx_HAL_Driver/Src\stm32l4xx_hal_spi.c **** 
 948:E:/LiteOS/LiteOS_Lab/drivers/third_party/ST/STM32L4xx_HAL_Driver/Src\stm32l4xx_hal_spi.c ****   /* Don't overwrite in case of HAL_SPI_STATE_BUSY_RX */
 949:E:/LiteOS/LiteOS_Lab/drivers/third_party/ST/STM32L4xx_HAL_Driver/Src\stm32l4xx_hal_spi.c ****   if (hspi->State != HAL_SPI_STATE_BUSY_RX)
 1307              		.loc 1 949 0
 1308 008e FB68     		ldr	r3, [r7, #12]
 1309 0090 93F85D30 		ldrb	r3, [r3, #93]
 1310 0094 DBB2     		uxtb	r3, r3
 1311 0096 042B     		cmp	r3, #4
 1312 0098 03D0     		beq	.L76
 950:E:/LiteOS/LiteOS_Lab/drivers/third_party/ST/STM32L4xx_HAL_Driver/Src\stm32l4xx_hal_spi.c ****   {
 951:E:/LiteOS/LiteOS_Lab/drivers/third_party/ST/STM32L4xx_HAL_Driver/Src\stm32l4xx_hal_spi.c ****     hspi->State = HAL_SPI_STATE_BUSY_TX_RX;
 1313              		.loc 1 951 0
 1314 009a FB68     		ldr	r3, [r7, #12]
 1315 009c 0522     		movs	r2, #5
 1316 009e 83F85D20 		strb	r2, [r3, #93]
 1317              	.L76:
 952:E:/LiteOS/LiteOS_Lab/drivers/third_party/ST/STM32L4xx_HAL_Driver/Src\stm32l4xx_hal_spi.c ****   }
 953:E:/LiteOS/LiteOS_Lab/drivers/third_party/ST/STM32L4xx_HAL_Driver/Src\stm32l4xx_hal_spi.c **** 
 954:E:/LiteOS/LiteOS_Lab/drivers/third_party/ST/STM32L4xx_HAL_Driver/Src\stm32l4xx_hal_spi.c ****   /* Set the transaction information */
 955:E:/LiteOS/LiteOS_Lab/drivers/third_party/ST/STM32L4xx_HAL_Driver/Src\stm32l4xx_hal_spi.c ****   hspi->ErrorCode   = HAL_SPI_ERROR_NONE;
 1318              		.loc 1 955 0
 1319 00a2 FB68     		ldr	r3, [r7, #12]
 1320 00a4 0022     		movs	r2, #0
 1321 00a6 1A66     		str	r2, [r3, #96]
 956:E:/LiteOS/LiteOS_Lab/drivers/third_party/ST/STM32L4xx_HAL_Driver/Src\stm32l4xx_hal_spi.c ****   hspi->pRxBuffPtr  = (uint8_t *)pRxData;
 1322              		.loc 1 956 0
 1323 00a8 FB68     		ldr	r3, [r7, #12]
 1324 00aa 7A68     		ldr	r2, [r7, #4]
 1325 00ac 1A64     		str	r2, [r3, #64]
 957:E:/LiteOS/LiteOS_Lab/drivers/third_party/ST/STM32L4xx_HAL_Driver/Src\stm32l4xx_hal_spi.c ****   hspi->RxXferCount = Size;
 1326              		.loc 1 957 0
 1327 00ae FB68     		ldr	r3, [r7, #12]
 1328 00b0 7A88     		ldrh	r2, [r7, #2]	@ movhi
 1329 00b2 A3F84620 		strh	r2, [r3, #70]	@ movhi
 958:E:/LiteOS/LiteOS_Lab/drivers/third_party/ST/STM32L4xx_HAL_Driver/Src\stm32l4xx_hal_spi.c ****   hspi->RxXferSize  = Size;
 1330              		.loc 1 958 0
 1331 00b6 FB68     		ldr	r3, [r7, #12]
ARM GAS  C:\Users\user\AppData\Local\Temp\ccvQ1M9B.s 			page 41


 1332 00b8 7A88     		ldrh	r2, [r7, #2]	@ movhi
 1333 00ba A3F84420 		strh	r2, [r3, #68]	@ movhi
 959:E:/LiteOS/LiteOS_Lab/drivers/third_party/ST/STM32L4xx_HAL_Driver/Src\stm32l4xx_hal_spi.c ****   hspi->pTxBuffPtr  = (uint8_t *)pTxData;
 1334              		.loc 1 959 0
 1335 00be FB68     		ldr	r3, [r7, #12]
 1336 00c0 BA68     		ldr	r2, [r7, #8]
 1337 00c2 9A63     		str	r2, [r3, #56]
 960:E:/LiteOS/LiteOS_Lab/drivers/third_party/ST/STM32L4xx_HAL_Driver/Src\stm32l4xx_hal_spi.c ****   hspi->TxXferCount = Size;
 1338              		.loc 1 960 0
 1339 00c4 FB68     		ldr	r3, [r7, #12]
 1340 00c6 7A88     		ldrh	r2, [r7, #2]	@ movhi
 1341 00c8 DA87     		strh	r2, [r3, #62]	@ movhi
 961:E:/LiteOS/LiteOS_Lab/drivers/third_party/ST/STM32L4xx_HAL_Driver/Src\stm32l4xx_hal_spi.c ****   hspi->TxXferSize  = Size;
 1342              		.loc 1 961 0
 1343 00ca FB68     		ldr	r3, [r7, #12]
 1344 00cc 7A88     		ldrh	r2, [r7, #2]	@ movhi
 1345 00ce 9A87     		strh	r2, [r3, #60]	@ movhi
 962:E:/LiteOS/LiteOS_Lab/drivers/third_party/ST/STM32L4xx_HAL_Driver/Src\stm32l4xx_hal_spi.c **** 
 963:E:/LiteOS/LiteOS_Lab/drivers/third_party/ST/STM32L4xx_HAL_Driver/Src\stm32l4xx_hal_spi.c ****   /*Init field not used in handle to zero */
 964:E:/LiteOS/LiteOS_Lab/drivers/third_party/ST/STM32L4xx_HAL_Driver/Src\stm32l4xx_hal_spi.c ****   hspi->RxISR       = NULL;
 1346              		.loc 1 964 0
 1347 00d0 FB68     		ldr	r3, [r7, #12]
 1348 00d2 0022     		movs	r2, #0
 1349 00d4 DA64     		str	r2, [r3, #76]
 965:E:/LiteOS/LiteOS_Lab/drivers/third_party/ST/STM32L4xx_HAL_Driver/Src\stm32l4xx_hal_spi.c ****   hspi->TxISR       = NULL;
 1350              		.loc 1 965 0
 1351 00d6 FB68     		ldr	r3, [r7, #12]
 1352 00d8 0022     		movs	r2, #0
 1353 00da 1A65     		str	r2, [r3, #80]
 966:E:/LiteOS/LiteOS_Lab/drivers/third_party/ST/STM32L4xx_HAL_Driver/Src\stm32l4xx_hal_spi.c **** 
 967:E:/LiteOS/LiteOS_Lab/drivers/third_party/ST/STM32L4xx_HAL_Driver/Src\stm32l4xx_hal_spi.c **** #if (USE_SPI_CRC != 0U)
 968:E:/LiteOS/LiteOS_Lab/drivers/third_party/ST/STM32L4xx_HAL_Driver/Src\stm32l4xx_hal_spi.c ****   /* Reset CRC Calculation */
 969:E:/LiteOS/LiteOS_Lab/drivers/third_party/ST/STM32L4xx_HAL_Driver/Src\stm32l4xx_hal_spi.c ****   if (hspi->Init.CRCCalculation == SPI_CRCCALCULATION_ENABLE)
 970:E:/LiteOS/LiteOS_Lab/drivers/third_party/ST/STM32L4xx_HAL_Driver/Src\stm32l4xx_hal_spi.c ****   {
 971:E:/LiteOS/LiteOS_Lab/drivers/third_party/ST/STM32L4xx_HAL_Driver/Src\stm32l4xx_hal_spi.c ****     SPI_RESET_CRC(hspi);
 972:E:/LiteOS/LiteOS_Lab/drivers/third_party/ST/STM32L4xx_HAL_Driver/Src\stm32l4xx_hal_spi.c ****   }
 973:E:/LiteOS/LiteOS_Lab/drivers/third_party/ST/STM32L4xx_HAL_Driver/Src\stm32l4xx_hal_spi.c **** #endif /* USE_SPI_CRC */
 974:E:/LiteOS/LiteOS_Lab/drivers/third_party/ST/STM32L4xx_HAL_Driver/Src\stm32l4xx_hal_spi.c **** 
 975:E:/LiteOS/LiteOS_Lab/drivers/third_party/ST/STM32L4xx_HAL_Driver/Src\stm32l4xx_hal_spi.c ****   /* Set the Rx Fifo threshold */
 976:E:/LiteOS/LiteOS_Lab/drivers/third_party/ST/STM32L4xx_HAL_Driver/Src\stm32l4xx_hal_spi.c ****   if ((hspi->Init.DataSize > SPI_DATASIZE_8BIT) || (hspi->RxXferCount > 1U))
 1354              		.loc 1 976 0
 1355 00dc FB68     		ldr	r3, [r7, #12]
 1356 00de DB68     		ldr	r3, [r3, #12]
 1357 00e0 B3F5E06F 		cmp	r3, #1792
 1358 00e4 05D8     		bhi	.L77
 1359              		.loc 1 976 0 is_stmt 0 discriminator 1
 1360 00e6 FB68     		ldr	r3, [r7, #12]
 1361 00e8 B3F84630 		ldrh	r3, [r3, #70]	@ movhi
 1362 00ec 9BB2     		uxth	r3, r3
 1363 00ee 012B     		cmp	r3, #1
 1364 00f0 08D9     		bls	.L78
 1365              	.L77:
 977:E:/LiteOS/LiteOS_Lab/drivers/third_party/ST/STM32L4xx_HAL_Driver/Src\stm32l4xx_hal_spi.c ****   {
 978:E:/LiteOS/LiteOS_Lab/drivers/third_party/ST/STM32L4xx_HAL_Driver/Src\stm32l4xx_hal_spi.c ****     /* Set fiforxthreshold according the reception data length: 16bit */
 979:E:/LiteOS/LiteOS_Lab/drivers/third_party/ST/STM32L4xx_HAL_Driver/Src\stm32l4xx_hal_spi.c ****     CLEAR_BIT(hspi->Instance->CR2, SPI_RXFIFO_THRESHOLD);
 1366              		.loc 1 979 0 is_stmt 1
 1367 00f2 FB68     		ldr	r3, [r7, #12]
ARM GAS  C:\Users\user\AppData\Local\Temp\ccvQ1M9B.s 			page 42


 1368 00f4 1B68     		ldr	r3, [r3]
 1369 00f6 5A68     		ldr	r2, [r3, #4]
 1370 00f8 FB68     		ldr	r3, [r7, #12]
 1371 00fa 1B68     		ldr	r3, [r3]
 1372 00fc 22F48052 		bic	r2, r2, #4096
 1373 0100 5A60     		str	r2, [r3, #4]
 1374 0102 07E0     		b	.L79
 1375              	.L78:
 980:E:/LiteOS/LiteOS_Lab/drivers/third_party/ST/STM32L4xx_HAL_Driver/Src\stm32l4xx_hal_spi.c ****   }
 981:E:/LiteOS/LiteOS_Lab/drivers/third_party/ST/STM32L4xx_HAL_Driver/Src\stm32l4xx_hal_spi.c ****   else
 982:E:/LiteOS/LiteOS_Lab/drivers/third_party/ST/STM32L4xx_HAL_Driver/Src\stm32l4xx_hal_spi.c ****   {
 983:E:/LiteOS/LiteOS_Lab/drivers/third_party/ST/STM32L4xx_HAL_Driver/Src\stm32l4xx_hal_spi.c ****     /* Set fiforxthreshold according the reception data length: 8bit */
 984:E:/LiteOS/LiteOS_Lab/drivers/third_party/ST/STM32L4xx_HAL_Driver/Src\stm32l4xx_hal_spi.c ****     SET_BIT(hspi->Instance->CR2, SPI_RXFIFO_THRESHOLD);
 1376              		.loc 1 984 0
 1377 0104 FB68     		ldr	r3, [r7, #12]
 1378 0106 1B68     		ldr	r3, [r3]
 1379 0108 5A68     		ldr	r2, [r3, #4]
 1380 010a FB68     		ldr	r3, [r7, #12]
 1381 010c 1B68     		ldr	r3, [r3]
 1382 010e 42F48052 		orr	r2, r2, #4096
 1383 0112 5A60     		str	r2, [r3, #4]
 1384              	.L79:
 985:E:/LiteOS/LiteOS_Lab/drivers/third_party/ST/STM32L4xx_HAL_Driver/Src\stm32l4xx_hal_spi.c ****   }
 986:E:/LiteOS/LiteOS_Lab/drivers/third_party/ST/STM32L4xx_HAL_Driver/Src\stm32l4xx_hal_spi.c **** 
 987:E:/LiteOS/LiteOS_Lab/drivers/third_party/ST/STM32L4xx_HAL_Driver/Src\stm32l4xx_hal_spi.c ****   /* Check if the SPI is already enabled */
 988:E:/LiteOS/LiteOS_Lab/drivers/third_party/ST/STM32L4xx_HAL_Driver/Src\stm32l4xx_hal_spi.c ****   if ((hspi->Instance->CR1 & SPI_CR1_SPE) != SPI_CR1_SPE)
 1385              		.loc 1 988 0
 1386 0114 FB68     		ldr	r3, [r7, #12]
 1387 0116 1B68     		ldr	r3, [r3]
 1388 0118 1B68     		ldr	r3, [r3]
 1389 011a 03F04003 		and	r3, r3, #64
 1390 011e 402B     		cmp	r3, #64
 1391 0120 07D0     		beq	.L80
 989:E:/LiteOS/LiteOS_Lab/drivers/third_party/ST/STM32L4xx_HAL_Driver/Src\stm32l4xx_hal_spi.c ****   {
 990:E:/LiteOS/LiteOS_Lab/drivers/third_party/ST/STM32L4xx_HAL_Driver/Src\stm32l4xx_hal_spi.c ****     /* Enable SPI peripheral */
 991:E:/LiteOS/LiteOS_Lab/drivers/third_party/ST/STM32L4xx_HAL_Driver/Src\stm32l4xx_hal_spi.c ****     __HAL_SPI_ENABLE(hspi);
 1392              		.loc 1 991 0
 1393 0122 FB68     		ldr	r3, [r7, #12]
 1394 0124 1B68     		ldr	r3, [r3]
 1395 0126 1A68     		ldr	r2, [r3]
 1396 0128 FB68     		ldr	r3, [r7, #12]
 1397 012a 1B68     		ldr	r3, [r3]
 1398 012c 42F04002 		orr	r2, r2, #64
 1399 0130 1A60     		str	r2, [r3]
 1400              	.L80:
 992:E:/LiteOS/LiteOS_Lab/drivers/third_party/ST/STM32L4xx_HAL_Driver/Src\stm32l4xx_hal_spi.c ****   }
 993:E:/LiteOS/LiteOS_Lab/drivers/third_party/ST/STM32L4xx_HAL_Driver/Src\stm32l4xx_hal_spi.c **** 
 994:E:/LiteOS/LiteOS_Lab/drivers/third_party/ST/STM32L4xx_HAL_Driver/Src\stm32l4xx_hal_spi.c ****   /* Transmit and Receive data in 16 Bit mode */
 995:E:/LiteOS/LiteOS_Lab/drivers/third_party/ST/STM32L4xx_HAL_Driver/Src\stm32l4xx_hal_spi.c ****   if (hspi->Init.DataSize > SPI_DATASIZE_8BIT)
 1401              		.loc 1 995 0
 1402 0132 FB68     		ldr	r3, [r7, #12]
 1403 0134 DB68     		ldr	r3, [r3, #12]
 1404 0136 B3F5E06F 		cmp	r3, #1792
 1405 013a 75D9     		bls	.L81
 996:E:/LiteOS/LiteOS_Lab/drivers/third_party/ST/STM32L4xx_HAL_Driver/Src\stm32l4xx_hal_spi.c ****   {
 997:E:/LiteOS/LiteOS_Lab/drivers/third_party/ST/STM32L4xx_HAL_Driver/Src\stm32l4xx_hal_spi.c ****     if ((hspi->Init.Mode == SPI_MODE_SLAVE) || (hspi->TxXferCount == 0x01U))
 1406              		.loc 1 997 0
ARM GAS  C:\Users\user\AppData\Local\Temp\ccvQ1M9B.s 			page 43


 1407 013c FB68     		ldr	r3, [r7, #12]
 1408 013e 5B68     		ldr	r3, [r3, #4]
 1409 0140 002B     		cmp	r3, #0
 1410 0142 04D0     		beq	.L82
 1411              		.loc 1 997 0 is_stmt 0 discriminator 1
 1412 0144 FB68     		ldr	r3, [r7, #12]
 1413 0146 DB8F     		ldrh	r3, [r3, #62]	@ movhi
 1414 0148 9BB2     		uxth	r3, r3
 1415 014a 012B     		cmp	r3, #1
 1416 014c 60D1     		bne	.L84
 1417              	.L82:
 998:E:/LiteOS/LiteOS_Lab/drivers/third_party/ST/STM32L4xx_HAL_Driver/Src\stm32l4xx_hal_spi.c ****     {
 999:E:/LiteOS/LiteOS_Lab/drivers/third_party/ST/STM32L4xx_HAL_Driver/Src\stm32l4xx_hal_spi.c ****       hspi->Instance->DR = *((uint16_t *)pTxData);
 1418              		.loc 1 999 0 is_stmt 1
 1419 014e BB68     		ldr	r3, [r7, #8]
 1420 0150 1A88     		ldrh	r2, [r3]
 1421 0152 FB68     		ldr	r3, [r7, #12]
 1422 0154 1B68     		ldr	r3, [r3]
 1423 0156 DA60     		str	r2, [r3, #12]
1000:E:/LiteOS/LiteOS_Lab/drivers/third_party/ST/STM32L4xx_HAL_Driver/Src\stm32l4xx_hal_spi.c ****       pTxData += sizeof(uint16_t);
 1424              		.loc 1 1000 0
 1425 0158 BB68     		ldr	r3, [r7, #8]
 1426 015a 0233     		adds	r3, r3, #2
 1427 015c BB60     		str	r3, [r7, #8]
1001:E:/LiteOS/LiteOS_Lab/drivers/third_party/ST/STM32L4xx_HAL_Driver/Src\stm32l4xx_hal_spi.c ****       hspi->TxXferCount--;
 1428              		.loc 1 1001 0
 1429 015e FB68     		ldr	r3, [r7, #12]
 1430 0160 DB8F     		ldrh	r3, [r3, #62]	@ movhi
 1431 0162 9BB2     		uxth	r3, r3
 1432 0164 013B     		subs	r3, r3, #1
 1433 0166 9AB2     		uxth	r2, r3
 1434 0168 FB68     		ldr	r3, [r7, #12]
 1435 016a DA87     		strh	r2, [r3, #62]	@ movhi
1002:E:/LiteOS/LiteOS_Lab/drivers/third_party/ST/STM32L4xx_HAL_Driver/Src\stm32l4xx_hal_spi.c ****     }
1003:E:/LiteOS/LiteOS_Lab/drivers/third_party/ST/STM32L4xx_HAL_Driver/Src\stm32l4xx_hal_spi.c ****     while ((hspi->TxXferCount > 0U) || (hspi->RxXferCount > 0U))
 1436              		.loc 1 1003 0
 1437 016c 50E0     		b	.L84
 1438              	.L87:
1004:E:/LiteOS/LiteOS_Lab/drivers/third_party/ST/STM32L4xx_HAL_Driver/Src\stm32l4xx_hal_spi.c ****     {
1005:E:/LiteOS/LiteOS_Lab/drivers/third_party/ST/STM32L4xx_HAL_Driver/Src\stm32l4xx_hal_spi.c ****       /* Check TXE flag */
1006:E:/LiteOS/LiteOS_Lab/drivers/third_party/ST/STM32L4xx_HAL_Driver/Src\stm32l4xx_hal_spi.c ****       if (txallowed && (hspi->TxXferCount > 0U) && (__HAL_SPI_GET_FLAG(hspi, SPI_FLAG_TXE)))
 1439              		.loc 1 1006 0
 1440 016e 7B6A     		ldr	r3, [r7, #36]
 1441 0170 002B     		cmp	r3, #0
 1442 0172 1CD0     		beq	.L85
 1443              		.loc 1 1006 0 is_stmt 0 discriminator 1
 1444 0174 FB68     		ldr	r3, [r7, #12]
 1445 0176 DB8F     		ldrh	r3, [r3, #62]	@ movhi
 1446 0178 9BB2     		uxth	r3, r3
 1447 017a 002B     		cmp	r3, #0
 1448 017c 17D0     		beq	.L85
 1449              		.loc 1 1006 0 discriminator 2
 1450 017e FB68     		ldr	r3, [r7, #12]
 1451 0180 1B68     		ldr	r3, [r3]
 1452 0182 9B68     		ldr	r3, [r3, #8]
 1453 0184 03F00203 		and	r3, r3, #2
 1454 0188 022B     		cmp	r3, #2
ARM GAS  C:\Users\user\AppData\Local\Temp\ccvQ1M9B.s 			page 44


 1455 018a 10D1     		bne	.L85
1007:E:/LiteOS/LiteOS_Lab/drivers/third_party/ST/STM32L4xx_HAL_Driver/Src\stm32l4xx_hal_spi.c ****       {
1008:E:/LiteOS/LiteOS_Lab/drivers/third_party/ST/STM32L4xx_HAL_Driver/Src\stm32l4xx_hal_spi.c ****         hspi->Instance->DR = *((uint16_t *)pTxData);
 1456              		.loc 1 1008 0 is_stmt 1
 1457 018c BB68     		ldr	r3, [r7, #8]
 1458 018e 1A88     		ldrh	r2, [r3]
 1459 0190 FB68     		ldr	r3, [r7, #12]
 1460 0192 1B68     		ldr	r3, [r3]
 1461 0194 DA60     		str	r2, [r3, #12]
1009:E:/LiteOS/LiteOS_Lab/drivers/third_party/ST/STM32L4xx_HAL_Driver/Src\stm32l4xx_hal_spi.c ****         pTxData += sizeof(uint16_t);
 1462              		.loc 1 1009 0
 1463 0196 BB68     		ldr	r3, [r7, #8]
 1464 0198 0233     		adds	r3, r3, #2
 1465 019a BB60     		str	r3, [r7, #8]
1010:E:/LiteOS/LiteOS_Lab/drivers/third_party/ST/STM32L4xx_HAL_Driver/Src\stm32l4xx_hal_spi.c ****         hspi->TxXferCount--;
 1466              		.loc 1 1010 0
 1467 019c FB68     		ldr	r3, [r7, #12]
 1468 019e DB8F     		ldrh	r3, [r3, #62]	@ movhi
 1469 01a0 9BB2     		uxth	r3, r3
 1470 01a2 013B     		subs	r3, r3, #1
 1471 01a4 9AB2     		uxth	r2, r3
 1472 01a6 FB68     		ldr	r3, [r7, #12]
 1473 01a8 DA87     		strh	r2, [r3, #62]	@ movhi
1011:E:/LiteOS/LiteOS_Lab/drivers/third_party/ST/STM32L4xx_HAL_Driver/Src\stm32l4xx_hal_spi.c ****         /* Next Data is a reception (Rx). Tx not allowed */
1012:E:/LiteOS/LiteOS_Lab/drivers/third_party/ST/STM32L4xx_HAL_Driver/Src\stm32l4xx_hal_spi.c ****         txallowed = 0U;
 1474              		.loc 1 1012 0
 1475 01aa 0023     		movs	r3, #0
 1476 01ac 7B62     		str	r3, [r7, #36]
 1477              	.L85:
1013:E:/LiteOS/LiteOS_Lab/drivers/third_party/ST/STM32L4xx_HAL_Driver/Src\stm32l4xx_hal_spi.c **** 
1014:E:/LiteOS/LiteOS_Lab/drivers/third_party/ST/STM32L4xx_HAL_Driver/Src\stm32l4xx_hal_spi.c **** #if (USE_SPI_CRC != 0U)
1015:E:/LiteOS/LiteOS_Lab/drivers/third_party/ST/STM32L4xx_HAL_Driver/Src\stm32l4xx_hal_spi.c ****         /* Enable CRC Transmission */
1016:E:/LiteOS/LiteOS_Lab/drivers/third_party/ST/STM32L4xx_HAL_Driver/Src\stm32l4xx_hal_spi.c ****         if ((hspi->TxXferCount == 0U) && (hspi->Init.CRCCalculation == SPI_CRCCALCULATION_ENABLE))
1017:E:/LiteOS/LiteOS_Lab/drivers/third_party/ST/STM32L4xx_HAL_Driver/Src\stm32l4xx_hal_spi.c ****         {
1018:E:/LiteOS/LiteOS_Lab/drivers/third_party/ST/STM32L4xx_HAL_Driver/Src\stm32l4xx_hal_spi.c ****           /* Set NSS Soft to received correctly the CRC on slave mode with NSS pulse activated */
1019:E:/LiteOS/LiteOS_Lab/drivers/third_party/ST/STM32L4xx_HAL_Driver/Src\stm32l4xx_hal_spi.c ****           if (((hspi->Instance->CR1 & SPI_CR1_MSTR) == 0U) && ((hspi->Instance->CR2 & SPI_CR2_NSSP)
1020:E:/LiteOS/LiteOS_Lab/drivers/third_party/ST/STM32L4xx_HAL_Driver/Src\stm32l4xx_hal_spi.c ****           {
1021:E:/LiteOS/LiteOS_Lab/drivers/third_party/ST/STM32L4xx_HAL_Driver/Src\stm32l4xx_hal_spi.c ****             SET_BIT(hspi->Instance->CR1, SPI_CR1_SSM);
1022:E:/LiteOS/LiteOS_Lab/drivers/third_party/ST/STM32L4xx_HAL_Driver/Src\stm32l4xx_hal_spi.c ****           }
1023:E:/LiteOS/LiteOS_Lab/drivers/third_party/ST/STM32L4xx_HAL_Driver/Src\stm32l4xx_hal_spi.c ****           SET_BIT(hspi->Instance->CR1, SPI_CR1_CRCNEXT);
1024:E:/LiteOS/LiteOS_Lab/drivers/third_party/ST/STM32L4xx_HAL_Driver/Src\stm32l4xx_hal_spi.c ****         }
1025:E:/LiteOS/LiteOS_Lab/drivers/third_party/ST/STM32L4xx_HAL_Driver/Src\stm32l4xx_hal_spi.c **** #endif /* USE_SPI_CRC */
1026:E:/LiteOS/LiteOS_Lab/drivers/third_party/ST/STM32L4xx_HAL_Driver/Src\stm32l4xx_hal_spi.c ****       }
1027:E:/LiteOS/LiteOS_Lab/drivers/third_party/ST/STM32L4xx_HAL_Driver/Src\stm32l4xx_hal_spi.c **** 
1028:E:/LiteOS/LiteOS_Lab/drivers/third_party/ST/STM32L4xx_HAL_Driver/Src\stm32l4xx_hal_spi.c ****       /* Check RXNE flag */
1029:E:/LiteOS/LiteOS_Lab/drivers/third_party/ST/STM32L4xx_HAL_Driver/Src\stm32l4xx_hal_spi.c ****       if ((hspi->RxXferCount > 0U) && (__HAL_SPI_GET_FLAG(hspi, SPI_FLAG_RXNE)))
 1478              		.loc 1 1029 0
 1479 01ae FB68     		ldr	r3, [r7, #12]
 1480 01b0 B3F84630 		ldrh	r3, [r3, #70]	@ movhi
 1481 01b4 9BB2     		uxth	r3, r3
 1482 01b6 002B     		cmp	r3, #0
 1483 01b8 1AD0     		beq	.L86
 1484              		.loc 1 1029 0 is_stmt 0 discriminator 1
 1485 01ba FB68     		ldr	r3, [r7, #12]
 1486 01bc 1B68     		ldr	r3, [r3]
 1487 01be 9B68     		ldr	r3, [r3, #8]
 1488 01c0 03F00103 		and	r3, r3, #1
ARM GAS  C:\Users\user\AppData\Local\Temp\ccvQ1M9B.s 			page 45


 1489 01c4 012B     		cmp	r3, #1
 1490 01c6 13D1     		bne	.L86
1030:E:/LiteOS/LiteOS_Lab/drivers/third_party/ST/STM32L4xx_HAL_Driver/Src\stm32l4xx_hal_spi.c ****       {
1031:E:/LiteOS/LiteOS_Lab/drivers/third_party/ST/STM32L4xx_HAL_Driver/Src\stm32l4xx_hal_spi.c ****         *((uint16_t *)pRxData) = hspi->Instance->DR;
 1491              		.loc 1 1031 0 is_stmt 1
 1492 01c8 FB68     		ldr	r3, [r7, #12]
 1493 01ca 1B68     		ldr	r3, [r3]
 1494 01cc DB68     		ldr	r3, [r3, #12]
 1495 01ce 9AB2     		uxth	r2, r3
 1496 01d0 7B68     		ldr	r3, [r7, #4]
 1497 01d2 1A80     		strh	r2, [r3]	@ movhi
1032:E:/LiteOS/LiteOS_Lab/drivers/third_party/ST/STM32L4xx_HAL_Driver/Src\stm32l4xx_hal_spi.c ****         pRxData += sizeof(uint16_t);
 1498              		.loc 1 1032 0
 1499 01d4 7B68     		ldr	r3, [r7, #4]
 1500 01d6 0233     		adds	r3, r3, #2
 1501 01d8 7B60     		str	r3, [r7, #4]
1033:E:/LiteOS/LiteOS_Lab/drivers/third_party/ST/STM32L4xx_HAL_Driver/Src\stm32l4xx_hal_spi.c ****         hspi->RxXferCount--;
 1502              		.loc 1 1033 0
 1503 01da FB68     		ldr	r3, [r7, #12]
 1504 01dc B3F84630 		ldrh	r3, [r3, #70]	@ movhi
 1505 01e0 9BB2     		uxth	r3, r3
 1506 01e2 013B     		subs	r3, r3, #1
 1507 01e4 9AB2     		uxth	r2, r3
 1508 01e6 FB68     		ldr	r3, [r7, #12]
 1509 01e8 A3F84620 		strh	r2, [r3, #70]	@ movhi
1034:E:/LiteOS/LiteOS_Lab/drivers/third_party/ST/STM32L4xx_HAL_Driver/Src\stm32l4xx_hal_spi.c ****         /* Next Data is a Transmission (Tx). Tx is allowed */
1035:E:/LiteOS/LiteOS_Lab/drivers/third_party/ST/STM32L4xx_HAL_Driver/Src\stm32l4xx_hal_spi.c ****         txallowed = 1U;
 1510              		.loc 1 1035 0
 1511 01ec 0123     		movs	r3, #1
 1512 01ee 7B62     		str	r3, [r7, #36]
 1513              	.L86:
1036:E:/LiteOS/LiteOS_Lab/drivers/third_party/ST/STM32L4xx_HAL_Driver/Src\stm32l4xx_hal_spi.c ****       }
1037:E:/LiteOS/LiteOS_Lab/drivers/third_party/ST/STM32L4xx_HAL_Driver/Src\stm32l4xx_hal_spi.c ****       if ((Timeout != HAL_MAX_DELAY) && ((HAL_GetTick() - tickstart) >=  Timeout))
 1514              		.loc 1 1037 0
 1515 01f0 3B6B     		ldr	r3, [r7, #48]
 1516 01f2 B3F1FF3F 		cmp	r3, #-1
 1517 01f6 0BD0     		beq	.L84
 1518              		.loc 1 1037 0 is_stmt 0 discriminator 1
 1519 01f8 FFF7FEFF 		bl	HAL_GetTick
 1520 01fc 0246     		mov	r2, r0
 1521 01fe 7B69     		ldr	r3, [r7, #20]
 1522 0200 D31A     		subs	r3, r2, r3
 1523 0202 3A6B     		ldr	r2, [r7, #48]
 1524 0204 9A42     		cmp	r2, r3
 1525 0206 03D8     		bhi	.L84
1038:E:/LiteOS/LiteOS_Lab/drivers/third_party/ST/STM32L4xx_HAL_Driver/Src\stm32l4xx_hal_spi.c ****       {
1039:E:/LiteOS/LiteOS_Lab/drivers/third_party/ST/STM32L4xx_HAL_Driver/Src\stm32l4xx_hal_spi.c ****         errorcode = HAL_TIMEOUT;
 1526              		.loc 1 1039 0 is_stmt 1
 1527 0208 0323     		movs	r3, #3
 1528 020a 87F82330 		strb	r3, [r7, #35]
1040:E:/LiteOS/LiteOS_Lab/drivers/third_party/ST/STM32L4xx_HAL_Driver/Src\stm32l4xx_hal_spi.c ****         goto error;
 1529              		.loc 1 1040 0
 1530 020e E5E0     		b	.L73
 1531              	.L84:
1003:E:/LiteOS/LiteOS_Lab/drivers/third_party/ST/STM32L4xx_HAL_Driver/Src\stm32l4xx_hal_spi.c ****     {
 1532              		.loc 1 1003 0
 1533 0210 FB68     		ldr	r3, [r7, #12]
ARM GAS  C:\Users\user\AppData\Local\Temp\ccvQ1M9B.s 			page 46


 1534 0212 DB8F     		ldrh	r3, [r3, #62]	@ movhi
 1535 0214 9BB2     		uxth	r3, r3
 1536 0216 002B     		cmp	r3, #0
 1537 0218 A9D1     		bne	.L87
1003:E:/LiteOS/LiteOS_Lab/drivers/third_party/ST/STM32L4xx_HAL_Driver/Src\stm32l4xx_hal_spi.c ****     {
 1538              		.loc 1 1003 0 is_stmt 0 discriminator 1
 1539 021a FB68     		ldr	r3, [r7, #12]
 1540 021c B3F84630 		ldrh	r3, [r3, #70]	@ movhi
 1541 0220 9BB2     		uxth	r3, r3
 1542 0222 002B     		cmp	r3, #0
 1543 0224 A3D1     		bne	.L87
 1544 0226 C9E0     		b	.L88
 1545              	.L81:
1041:E:/LiteOS/LiteOS_Lab/drivers/third_party/ST/STM32L4xx_HAL_Driver/Src\stm32l4xx_hal_spi.c ****       }
1042:E:/LiteOS/LiteOS_Lab/drivers/third_party/ST/STM32L4xx_HAL_Driver/Src\stm32l4xx_hal_spi.c ****     }
1043:E:/LiteOS/LiteOS_Lab/drivers/third_party/ST/STM32L4xx_HAL_Driver/Src\stm32l4xx_hal_spi.c ****   }
1044:E:/LiteOS/LiteOS_Lab/drivers/third_party/ST/STM32L4xx_HAL_Driver/Src\stm32l4xx_hal_spi.c ****   /* Transmit and Receive data in 8 Bit mode */
1045:E:/LiteOS/LiteOS_Lab/drivers/third_party/ST/STM32L4xx_HAL_Driver/Src\stm32l4xx_hal_spi.c ****   else
1046:E:/LiteOS/LiteOS_Lab/drivers/third_party/ST/STM32L4xx_HAL_Driver/Src\stm32l4xx_hal_spi.c ****   {
1047:E:/LiteOS/LiteOS_Lab/drivers/third_party/ST/STM32L4xx_HAL_Driver/Src\stm32l4xx_hal_spi.c ****     if ((hspi->Init.Mode == SPI_MODE_SLAVE) || (hspi->TxXferCount == 0x01U))
 1546              		.loc 1 1047 0 is_stmt 1
 1547 0228 FB68     		ldr	r3, [r7, #12]
 1548 022a 5B68     		ldr	r3, [r3, #4]
 1549 022c 002B     		cmp	r3, #0
 1550 022e 05D0     		beq	.L89
 1551              		.loc 1 1047 0 is_stmt 0 discriminator 1
 1552 0230 FB68     		ldr	r3, [r7, #12]
 1553 0232 DB8F     		ldrh	r3, [r3, #62]	@ movhi
 1554 0234 9BB2     		uxth	r3, r3
 1555 0236 012B     		cmp	r3, #1
 1556 0238 40F0B380 		bne	.L92
 1557              	.L89:
1048:E:/LiteOS/LiteOS_Lab/drivers/third_party/ST/STM32L4xx_HAL_Driver/Src\stm32l4xx_hal_spi.c ****     {
1049:E:/LiteOS/LiteOS_Lab/drivers/third_party/ST/STM32L4xx_HAL_Driver/Src\stm32l4xx_hal_spi.c ****       if (hspi->TxXferCount > 1U)
 1558              		.loc 1 1049 0 is_stmt 1
 1559 023c FB68     		ldr	r3, [r7, #12]
 1560 023e DB8F     		ldrh	r3, [r3, #62]	@ movhi
 1561 0240 9BB2     		uxth	r3, r3
 1562 0242 012B     		cmp	r3, #1
 1563 0244 0FD9     		bls	.L91
1050:E:/LiteOS/LiteOS_Lab/drivers/third_party/ST/STM32L4xx_HAL_Driver/Src\stm32l4xx_hal_spi.c ****       {
1051:E:/LiteOS/LiteOS_Lab/drivers/third_party/ST/STM32L4xx_HAL_Driver/Src\stm32l4xx_hal_spi.c ****         hspi->Instance->DR = *((uint16_t *)pTxData);
 1564              		.loc 1 1051 0
 1565 0246 BB68     		ldr	r3, [r7, #8]
 1566 0248 1A88     		ldrh	r2, [r3]
 1567 024a FB68     		ldr	r3, [r7, #12]
 1568 024c 1B68     		ldr	r3, [r3]
 1569 024e DA60     		str	r2, [r3, #12]
1052:E:/LiteOS/LiteOS_Lab/drivers/third_party/ST/STM32L4xx_HAL_Driver/Src\stm32l4xx_hal_spi.c ****         pTxData += sizeof(uint16_t);
 1570              		.loc 1 1052 0
 1571 0250 BB68     		ldr	r3, [r7, #8]
 1572 0252 0233     		adds	r3, r3, #2
 1573 0254 BB60     		str	r3, [r7, #8]
1053:E:/LiteOS/LiteOS_Lab/drivers/third_party/ST/STM32L4xx_HAL_Driver/Src\stm32l4xx_hal_spi.c ****         hspi->TxXferCount -= 2U;
 1574              		.loc 1 1053 0
 1575 0256 FB68     		ldr	r3, [r7, #12]
 1576 0258 DB8F     		ldrh	r3, [r3, #62]	@ movhi
ARM GAS  C:\Users\user\AppData\Local\Temp\ccvQ1M9B.s 			page 47


 1577 025a 9BB2     		uxth	r3, r3
 1578 025c 023B     		subs	r3, r3, #2
 1579 025e 9AB2     		uxth	r2, r3
 1580 0260 FB68     		ldr	r3, [r7, #12]
 1581 0262 DA87     		strh	r2, [r3, #62]	@ movhi
 1582 0264 9DE0     		b	.L92
 1583              	.L91:
1054:E:/LiteOS/LiteOS_Lab/drivers/third_party/ST/STM32L4xx_HAL_Driver/Src\stm32l4xx_hal_spi.c ****       }
1055:E:/LiteOS/LiteOS_Lab/drivers/third_party/ST/STM32L4xx_HAL_Driver/Src\stm32l4xx_hal_spi.c ****       else
1056:E:/LiteOS/LiteOS_Lab/drivers/third_party/ST/STM32L4xx_HAL_Driver/Src\stm32l4xx_hal_spi.c ****       {
1057:E:/LiteOS/LiteOS_Lab/drivers/third_party/ST/STM32L4xx_HAL_Driver/Src\stm32l4xx_hal_spi.c ****         *(__IO uint8_t *)&hspi->Instance->DR = (*pTxData++);
 1584              		.loc 1 1057 0
 1585 0266 BB68     		ldr	r3, [r7, #8]
 1586 0268 5A1C     		adds	r2, r3, #1
 1587 026a BA60     		str	r2, [r7, #8]
 1588 026c FA68     		ldr	r2, [r7, #12]
 1589 026e 1268     		ldr	r2, [r2]
 1590 0270 0C32     		adds	r2, r2, #12
 1591 0272 1B78     		ldrb	r3, [r3]	@ zero_extendqisi2
 1592 0274 1370     		strb	r3, [r2]
1058:E:/LiteOS/LiteOS_Lab/drivers/third_party/ST/STM32L4xx_HAL_Driver/Src\stm32l4xx_hal_spi.c ****         hspi->TxXferCount--;
 1593              		.loc 1 1058 0
 1594 0276 FB68     		ldr	r3, [r7, #12]
 1595 0278 DB8F     		ldrh	r3, [r3, #62]	@ movhi
 1596 027a 9BB2     		uxth	r3, r3
 1597 027c 013B     		subs	r3, r3, #1
 1598 027e 9AB2     		uxth	r2, r3
 1599 0280 FB68     		ldr	r3, [r7, #12]
 1600 0282 DA87     		strh	r2, [r3, #62]	@ movhi
1059:E:/LiteOS/LiteOS_Lab/drivers/third_party/ST/STM32L4xx_HAL_Driver/Src\stm32l4xx_hal_spi.c ****       }
1060:E:/LiteOS/LiteOS_Lab/drivers/third_party/ST/STM32L4xx_HAL_Driver/Src\stm32l4xx_hal_spi.c ****     }
1061:E:/LiteOS/LiteOS_Lab/drivers/third_party/ST/STM32L4xx_HAL_Driver/Src\stm32l4xx_hal_spi.c ****     while ((hspi->TxXferCount > 0U) || (hspi->RxXferCount > 0U))
 1601              		.loc 1 1061 0
 1602 0284 8DE0     		b	.L92
 1603              	.L100:
1062:E:/LiteOS/LiteOS_Lab/drivers/third_party/ST/STM32L4xx_HAL_Driver/Src\stm32l4xx_hal_spi.c ****     {
1063:E:/LiteOS/LiteOS_Lab/drivers/third_party/ST/STM32L4xx_HAL_Driver/Src\stm32l4xx_hal_spi.c ****       /* Check TXE flag */
1064:E:/LiteOS/LiteOS_Lab/drivers/third_party/ST/STM32L4xx_HAL_Driver/Src\stm32l4xx_hal_spi.c ****       if (txallowed && (hspi->TxXferCount > 0U) && (__HAL_SPI_GET_FLAG(hspi, SPI_FLAG_TXE)))
 1604              		.loc 1 1064 0
 1605 0286 7B6A     		ldr	r3, [r7, #36]
 1606 0288 002B     		cmp	r3, #0
 1607 028a 31D0     		beq	.L93
 1608              		.loc 1 1064 0 is_stmt 0 discriminator 1
 1609 028c FB68     		ldr	r3, [r7, #12]
 1610 028e DB8F     		ldrh	r3, [r3, #62]	@ movhi
 1611 0290 9BB2     		uxth	r3, r3
 1612 0292 002B     		cmp	r3, #0
 1613 0294 2CD0     		beq	.L93
 1614              		.loc 1 1064 0 discriminator 2
 1615 0296 FB68     		ldr	r3, [r7, #12]
 1616 0298 1B68     		ldr	r3, [r3]
 1617 029a 9B68     		ldr	r3, [r3, #8]
 1618 029c 03F00203 		and	r3, r3, #2
 1619 02a0 022B     		cmp	r3, #2
 1620 02a2 25D1     		bne	.L93
1065:E:/LiteOS/LiteOS_Lab/drivers/third_party/ST/STM32L4xx_HAL_Driver/Src\stm32l4xx_hal_spi.c ****       {
1066:E:/LiteOS/LiteOS_Lab/drivers/third_party/ST/STM32L4xx_HAL_Driver/Src\stm32l4xx_hal_spi.c ****         if (hspi->TxXferCount > 1U)
ARM GAS  C:\Users\user\AppData\Local\Temp\ccvQ1M9B.s 			page 48


 1621              		.loc 1 1066 0 is_stmt 1
 1622 02a4 FB68     		ldr	r3, [r7, #12]
 1623 02a6 DB8F     		ldrh	r3, [r3, #62]	@ movhi
 1624 02a8 9BB2     		uxth	r3, r3
 1625 02aa 012B     		cmp	r3, #1
 1626 02ac 0FD9     		bls	.L94
1067:E:/LiteOS/LiteOS_Lab/drivers/third_party/ST/STM32L4xx_HAL_Driver/Src\stm32l4xx_hal_spi.c ****         {
1068:E:/LiteOS/LiteOS_Lab/drivers/third_party/ST/STM32L4xx_HAL_Driver/Src\stm32l4xx_hal_spi.c ****           hspi->Instance->DR = *((uint16_t *)pTxData);
 1627              		.loc 1 1068 0
 1628 02ae BB68     		ldr	r3, [r7, #8]
 1629 02b0 1A88     		ldrh	r2, [r3]
 1630 02b2 FB68     		ldr	r3, [r7, #12]
 1631 02b4 1B68     		ldr	r3, [r3]
 1632 02b6 DA60     		str	r2, [r3, #12]
1069:E:/LiteOS/LiteOS_Lab/drivers/third_party/ST/STM32L4xx_HAL_Driver/Src\stm32l4xx_hal_spi.c ****           pTxData += sizeof(uint16_t);
 1633              		.loc 1 1069 0
 1634 02b8 BB68     		ldr	r3, [r7, #8]
 1635 02ba 0233     		adds	r3, r3, #2
 1636 02bc BB60     		str	r3, [r7, #8]
1070:E:/LiteOS/LiteOS_Lab/drivers/third_party/ST/STM32L4xx_HAL_Driver/Src\stm32l4xx_hal_spi.c ****           hspi->TxXferCount -= 2U;
 1637              		.loc 1 1070 0
 1638 02be FB68     		ldr	r3, [r7, #12]
 1639 02c0 DB8F     		ldrh	r3, [r3, #62]	@ movhi
 1640 02c2 9BB2     		uxth	r3, r3
 1641 02c4 023B     		subs	r3, r3, #2
 1642 02c6 9AB2     		uxth	r2, r3
 1643 02c8 FB68     		ldr	r3, [r7, #12]
 1644 02ca DA87     		strh	r2, [r3, #62]	@ movhi
 1645 02cc 0EE0     		b	.L95
 1646              	.L94:
1071:E:/LiteOS/LiteOS_Lab/drivers/third_party/ST/STM32L4xx_HAL_Driver/Src\stm32l4xx_hal_spi.c ****         }
1072:E:/LiteOS/LiteOS_Lab/drivers/third_party/ST/STM32L4xx_HAL_Driver/Src\stm32l4xx_hal_spi.c ****         else
1073:E:/LiteOS/LiteOS_Lab/drivers/third_party/ST/STM32L4xx_HAL_Driver/Src\stm32l4xx_hal_spi.c ****         {
1074:E:/LiteOS/LiteOS_Lab/drivers/third_party/ST/STM32L4xx_HAL_Driver/Src\stm32l4xx_hal_spi.c ****           *(__IO uint8_t *)&hspi->Instance->DR = (*pTxData++);
 1647              		.loc 1 1074 0
 1648 02ce BB68     		ldr	r3, [r7, #8]
 1649 02d0 5A1C     		adds	r2, r3, #1
 1650 02d2 BA60     		str	r2, [r7, #8]
 1651 02d4 FA68     		ldr	r2, [r7, #12]
 1652 02d6 1268     		ldr	r2, [r2]
 1653 02d8 0C32     		adds	r2, r2, #12
 1654 02da 1B78     		ldrb	r3, [r3]	@ zero_extendqisi2
 1655 02dc 1370     		strb	r3, [r2]
1075:E:/LiteOS/LiteOS_Lab/drivers/third_party/ST/STM32L4xx_HAL_Driver/Src\stm32l4xx_hal_spi.c ****           hspi->TxXferCount--;
 1656              		.loc 1 1075 0
 1657 02de FB68     		ldr	r3, [r7, #12]
 1658 02e0 DB8F     		ldrh	r3, [r3, #62]	@ movhi
 1659 02e2 9BB2     		uxth	r3, r3
 1660 02e4 013B     		subs	r3, r3, #1
 1661 02e6 9AB2     		uxth	r2, r3
 1662 02e8 FB68     		ldr	r3, [r7, #12]
 1663 02ea DA87     		strh	r2, [r3, #62]	@ movhi
 1664              	.L95:
1076:E:/LiteOS/LiteOS_Lab/drivers/third_party/ST/STM32L4xx_HAL_Driver/Src\stm32l4xx_hal_spi.c ****         }
1077:E:/LiteOS/LiteOS_Lab/drivers/third_party/ST/STM32L4xx_HAL_Driver/Src\stm32l4xx_hal_spi.c ****         /* Next Data is a reception (Rx). Tx not allowed */
1078:E:/LiteOS/LiteOS_Lab/drivers/third_party/ST/STM32L4xx_HAL_Driver/Src\stm32l4xx_hal_spi.c ****         txallowed = 0U;
 1665              		.loc 1 1078 0
ARM GAS  C:\Users\user\AppData\Local\Temp\ccvQ1M9B.s 			page 49


 1666 02ec 0023     		movs	r3, #0
 1667 02ee 7B62     		str	r3, [r7, #36]
 1668              	.L93:
1079:E:/LiteOS/LiteOS_Lab/drivers/third_party/ST/STM32L4xx_HAL_Driver/Src\stm32l4xx_hal_spi.c **** 
1080:E:/LiteOS/LiteOS_Lab/drivers/third_party/ST/STM32L4xx_HAL_Driver/Src\stm32l4xx_hal_spi.c **** #if (USE_SPI_CRC != 0U)
1081:E:/LiteOS/LiteOS_Lab/drivers/third_party/ST/STM32L4xx_HAL_Driver/Src\stm32l4xx_hal_spi.c ****         /* Enable CRC Transmission */
1082:E:/LiteOS/LiteOS_Lab/drivers/third_party/ST/STM32L4xx_HAL_Driver/Src\stm32l4xx_hal_spi.c ****         if ((hspi->TxXferCount == 0U) && (hspi->Init.CRCCalculation == SPI_CRCCALCULATION_ENABLE))
1083:E:/LiteOS/LiteOS_Lab/drivers/third_party/ST/STM32L4xx_HAL_Driver/Src\stm32l4xx_hal_spi.c ****         {
1084:E:/LiteOS/LiteOS_Lab/drivers/third_party/ST/STM32L4xx_HAL_Driver/Src\stm32l4xx_hal_spi.c ****           /* Set NSS Soft to received correctly the CRC on slave mode with NSS pulse activated */
1085:E:/LiteOS/LiteOS_Lab/drivers/third_party/ST/STM32L4xx_HAL_Driver/Src\stm32l4xx_hal_spi.c ****           if (((hspi->Instance->CR1 & SPI_CR1_MSTR) == 0U) && ((hspi->Instance->CR2 & SPI_CR2_NSSP)
1086:E:/LiteOS/LiteOS_Lab/drivers/third_party/ST/STM32L4xx_HAL_Driver/Src\stm32l4xx_hal_spi.c ****           {
1087:E:/LiteOS/LiteOS_Lab/drivers/third_party/ST/STM32L4xx_HAL_Driver/Src\stm32l4xx_hal_spi.c ****             SET_BIT(hspi->Instance->CR1, SPI_CR1_SSM);
1088:E:/LiteOS/LiteOS_Lab/drivers/third_party/ST/STM32L4xx_HAL_Driver/Src\stm32l4xx_hal_spi.c ****           }
1089:E:/LiteOS/LiteOS_Lab/drivers/third_party/ST/STM32L4xx_HAL_Driver/Src\stm32l4xx_hal_spi.c ****           SET_BIT(hspi->Instance->CR1, SPI_CR1_CRCNEXT);
1090:E:/LiteOS/LiteOS_Lab/drivers/third_party/ST/STM32L4xx_HAL_Driver/Src\stm32l4xx_hal_spi.c ****         }
1091:E:/LiteOS/LiteOS_Lab/drivers/third_party/ST/STM32L4xx_HAL_Driver/Src\stm32l4xx_hal_spi.c **** #endif /* USE_SPI_CRC */
1092:E:/LiteOS/LiteOS_Lab/drivers/third_party/ST/STM32L4xx_HAL_Driver/Src\stm32l4xx_hal_spi.c ****       }
1093:E:/LiteOS/LiteOS_Lab/drivers/third_party/ST/STM32L4xx_HAL_Driver/Src\stm32l4xx_hal_spi.c **** 
1094:E:/LiteOS/LiteOS_Lab/drivers/third_party/ST/STM32L4xx_HAL_Driver/Src\stm32l4xx_hal_spi.c ****       /* Wait until RXNE flag is reset */
1095:E:/LiteOS/LiteOS_Lab/drivers/third_party/ST/STM32L4xx_HAL_Driver/Src\stm32l4xx_hal_spi.c ****       if ((hspi->RxXferCount > 0U) && (__HAL_SPI_GET_FLAG(hspi, SPI_FLAG_RXNE)))
 1669              		.loc 1 1095 0
 1670 02f0 FB68     		ldr	r3, [r7, #12]
 1671 02f2 B3F84630 		ldrh	r3, [r3, #70]	@ movhi
 1672 02f6 9BB2     		uxth	r3, r3
 1673 02f8 002B     		cmp	r3, #0
 1674 02fa 42D0     		beq	.L96
 1675              		.loc 1 1095 0 is_stmt 0 discriminator 1
 1676 02fc FB68     		ldr	r3, [r7, #12]
 1677 02fe 1B68     		ldr	r3, [r3]
 1678 0300 9B68     		ldr	r3, [r3, #8]
 1679 0302 03F00103 		and	r3, r3, #1
 1680 0306 012B     		cmp	r3, #1
 1681 0308 3BD1     		bne	.L96
1096:E:/LiteOS/LiteOS_Lab/drivers/third_party/ST/STM32L4xx_HAL_Driver/Src\stm32l4xx_hal_spi.c ****       {
1097:E:/LiteOS/LiteOS_Lab/drivers/third_party/ST/STM32L4xx_HAL_Driver/Src\stm32l4xx_hal_spi.c ****         if (hspi->RxXferCount > 1U)
 1682              		.loc 1 1097 0 is_stmt 1
 1683 030a FB68     		ldr	r3, [r7, #12]
 1684 030c B3F84630 		ldrh	r3, [r3, #70]	@ movhi
 1685 0310 9BB2     		uxth	r3, r3
 1686 0312 012B     		cmp	r3, #1
 1687 0314 20D9     		bls	.L97
1098:E:/LiteOS/LiteOS_Lab/drivers/third_party/ST/STM32L4xx_HAL_Driver/Src\stm32l4xx_hal_spi.c ****         {
1099:E:/LiteOS/LiteOS_Lab/drivers/third_party/ST/STM32L4xx_HAL_Driver/Src\stm32l4xx_hal_spi.c ****           *((uint16_t *)pRxData) = hspi->Instance->DR;
 1688              		.loc 1 1099 0
 1689 0316 FB68     		ldr	r3, [r7, #12]
 1690 0318 1B68     		ldr	r3, [r3]
 1691 031a DB68     		ldr	r3, [r3, #12]
 1692 031c 9AB2     		uxth	r2, r3
 1693 031e 7B68     		ldr	r3, [r7, #4]
 1694 0320 1A80     		strh	r2, [r3]	@ movhi
1100:E:/LiteOS/LiteOS_Lab/drivers/third_party/ST/STM32L4xx_HAL_Driver/Src\stm32l4xx_hal_spi.c ****           pRxData += sizeof(uint16_t);
 1695              		.loc 1 1100 0
 1696 0322 7B68     		ldr	r3, [r7, #4]
 1697 0324 0233     		adds	r3, r3, #2
 1698 0326 7B60     		str	r3, [r7, #4]
1101:E:/LiteOS/LiteOS_Lab/drivers/third_party/ST/STM32L4xx_HAL_Driver/Src\stm32l4xx_hal_spi.c ****           hspi->RxXferCount -= 2U;
 1699              		.loc 1 1101 0
ARM GAS  C:\Users\user\AppData\Local\Temp\ccvQ1M9B.s 			page 50


 1700 0328 FB68     		ldr	r3, [r7, #12]
 1701 032a B3F84630 		ldrh	r3, [r3, #70]	@ movhi
 1702 032e 9BB2     		uxth	r3, r3
 1703 0330 023B     		subs	r3, r3, #2
 1704 0332 9AB2     		uxth	r2, r3
 1705 0334 FB68     		ldr	r3, [r7, #12]
 1706 0336 A3F84620 		strh	r2, [r3, #70]	@ movhi
1102:E:/LiteOS/LiteOS_Lab/drivers/third_party/ST/STM32L4xx_HAL_Driver/Src\stm32l4xx_hal_spi.c ****           if (hspi->RxXferCount <= 1U)
 1707              		.loc 1 1102 0
 1708 033a FB68     		ldr	r3, [r7, #12]
 1709 033c B3F84630 		ldrh	r3, [r3, #70]	@ movhi
 1710 0340 9BB2     		uxth	r3, r3
 1711 0342 012B     		cmp	r3, #1
 1712 0344 1BD8     		bhi	.L99
1103:E:/LiteOS/LiteOS_Lab/drivers/third_party/ST/STM32L4xx_HAL_Driver/Src\stm32l4xx_hal_spi.c ****           {
1104:E:/LiteOS/LiteOS_Lab/drivers/third_party/ST/STM32L4xx_HAL_Driver/Src\stm32l4xx_hal_spi.c ****             /* Set RX Fifo threshold before to switch on 8 bit data size */
1105:E:/LiteOS/LiteOS_Lab/drivers/third_party/ST/STM32L4xx_HAL_Driver/Src\stm32l4xx_hal_spi.c ****             SET_BIT(hspi->Instance->CR2, SPI_RXFIFO_THRESHOLD);
 1713              		.loc 1 1105 0
 1714 0346 FB68     		ldr	r3, [r7, #12]
 1715 0348 1B68     		ldr	r3, [r3]
 1716 034a 5A68     		ldr	r2, [r3, #4]
 1717 034c FB68     		ldr	r3, [r7, #12]
 1718 034e 1B68     		ldr	r3, [r3]
 1719 0350 42F48052 		orr	r2, r2, #4096
 1720 0354 5A60     		str	r2, [r3, #4]
 1721 0356 12E0     		b	.L99
 1722              	.L97:
1106:E:/LiteOS/LiteOS_Lab/drivers/third_party/ST/STM32L4xx_HAL_Driver/Src\stm32l4xx_hal_spi.c ****           }
1107:E:/LiteOS/LiteOS_Lab/drivers/third_party/ST/STM32L4xx_HAL_Driver/Src\stm32l4xx_hal_spi.c ****         }
1108:E:/LiteOS/LiteOS_Lab/drivers/third_party/ST/STM32L4xx_HAL_Driver/Src\stm32l4xx_hal_spi.c ****         else
1109:E:/LiteOS/LiteOS_Lab/drivers/third_party/ST/STM32L4xx_HAL_Driver/Src\stm32l4xx_hal_spi.c ****         {
1110:E:/LiteOS/LiteOS_Lab/drivers/third_party/ST/STM32L4xx_HAL_Driver/Src\stm32l4xx_hal_spi.c ****           (*(uint8_t *)pRxData++) = *(__IO uint8_t *)&hspi->Instance->DR;
 1723              		.loc 1 1110 0
 1724 0358 FB68     		ldr	r3, [r7, #12]
 1725 035a 1B68     		ldr	r3, [r3]
 1726 035c 03F10C02 		add	r2, r3, #12
 1727 0360 7B68     		ldr	r3, [r7, #4]
 1728 0362 591C     		adds	r1, r3, #1
 1729 0364 7960     		str	r1, [r7, #4]
 1730 0366 1278     		ldrb	r2, [r2]
 1731 0368 D2B2     		uxtb	r2, r2
 1732 036a 1A70     		strb	r2, [r3]
1111:E:/LiteOS/LiteOS_Lab/drivers/third_party/ST/STM32L4xx_HAL_Driver/Src\stm32l4xx_hal_spi.c ****           hspi->RxXferCount--;
 1733              		.loc 1 1111 0
 1734 036c FB68     		ldr	r3, [r7, #12]
 1735 036e B3F84630 		ldrh	r3, [r3, #70]	@ movhi
 1736 0372 9BB2     		uxth	r3, r3
 1737 0374 013B     		subs	r3, r3, #1
 1738 0376 9AB2     		uxth	r2, r3
 1739 0378 FB68     		ldr	r3, [r7, #12]
 1740 037a A3F84620 		strh	r2, [r3, #70]	@ movhi
 1741              	.L99:
1112:E:/LiteOS/LiteOS_Lab/drivers/third_party/ST/STM32L4xx_HAL_Driver/Src\stm32l4xx_hal_spi.c ****         }
1113:E:/LiteOS/LiteOS_Lab/drivers/third_party/ST/STM32L4xx_HAL_Driver/Src\stm32l4xx_hal_spi.c ****         /* Next Data is a Transmission (Tx). Tx is allowed */
1114:E:/LiteOS/LiteOS_Lab/drivers/third_party/ST/STM32L4xx_HAL_Driver/Src\stm32l4xx_hal_spi.c ****         txallowed = 1U;
 1742              		.loc 1 1114 0
 1743 037e 0123     		movs	r3, #1
ARM GAS  C:\Users\user\AppData\Local\Temp\ccvQ1M9B.s 			page 51


 1744 0380 7B62     		str	r3, [r7, #36]
 1745              	.L96:
1115:E:/LiteOS/LiteOS_Lab/drivers/third_party/ST/STM32L4xx_HAL_Driver/Src\stm32l4xx_hal_spi.c ****       }
1116:E:/LiteOS/LiteOS_Lab/drivers/third_party/ST/STM32L4xx_HAL_Driver/Src\stm32l4xx_hal_spi.c ****       if ((Timeout != HAL_MAX_DELAY) && ((HAL_GetTick() - tickstart) >=  Timeout))
 1746              		.loc 1 1116 0
 1747 0382 3B6B     		ldr	r3, [r7, #48]
 1748 0384 B3F1FF3F 		cmp	r3, #-1
 1749 0388 0BD0     		beq	.L92
 1750              		.loc 1 1116 0 is_stmt 0 discriminator 1
 1751 038a FFF7FEFF 		bl	HAL_GetTick
 1752 038e 0246     		mov	r2, r0
 1753 0390 7B69     		ldr	r3, [r7, #20]
 1754 0392 D31A     		subs	r3, r2, r3
 1755 0394 3A6B     		ldr	r2, [r7, #48]
 1756 0396 9A42     		cmp	r2, r3
 1757 0398 03D8     		bhi	.L92
1117:E:/LiteOS/LiteOS_Lab/drivers/third_party/ST/STM32L4xx_HAL_Driver/Src\stm32l4xx_hal_spi.c ****       {
1118:E:/LiteOS/LiteOS_Lab/drivers/third_party/ST/STM32L4xx_HAL_Driver/Src\stm32l4xx_hal_spi.c ****         errorcode = HAL_TIMEOUT;
 1758              		.loc 1 1118 0 is_stmt 1
 1759 039a 0323     		movs	r3, #3
 1760 039c 87F82330 		strb	r3, [r7, #35]
1119:E:/LiteOS/LiteOS_Lab/drivers/third_party/ST/STM32L4xx_HAL_Driver/Src\stm32l4xx_hal_spi.c ****         goto error;
 1761              		.loc 1 1119 0
 1762 03a0 1CE0     		b	.L73
 1763              	.L92:
1061:E:/LiteOS/LiteOS_Lab/drivers/third_party/ST/STM32L4xx_HAL_Driver/Src\stm32l4xx_hal_spi.c ****     {
 1764              		.loc 1 1061 0
 1765 03a2 FB68     		ldr	r3, [r7, #12]
 1766 03a4 DB8F     		ldrh	r3, [r3, #62]	@ movhi
 1767 03a6 9BB2     		uxth	r3, r3
 1768 03a8 002B     		cmp	r3, #0
 1769 03aa 7FF46CAF 		bne	.L100
1061:E:/LiteOS/LiteOS_Lab/drivers/third_party/ST/STM32L4xx_HAL_Driver/Src\stm32l4xx_hal_spi.c ****     {
 1770              		.loc 1 1061 0 is_stmt 0 discriminator 1
 1771 03ae FB68     		ldr	r3, [r7, #12]
 1772 03b0 B3F84630 		ldrh	r3, [r3, #70]	@ movhi
 1773 03b4 9BB2     		uxth	r3, r3
 1774 03b6 002B     		cmp	r3, #0
 1775 03b8 7FF465AF 		bne	.L100
 1776              	.L88:
1120:E:/LiteOS/LiteOS_Lab/drivers/third_party/ST/STM32L4xx_HAL_Driver/Src\stm32l4xx_hal_spi.c ****       }
1121:E:/LiteOS/LiteOS_Lab/drivers/third_party/ST/STM32L4xx_HAL_Driver/Src\stm32l4xx_hal_spi.c ****     }
1122:E:/LiteOS/LiteOS_Lab/drivers/third_party/ST/STM32L4xx_HAL_Driver/Src\stm32l4xx_hal_spi.c ****   }
1123:E:/LiteOS/LiteOS_Lab/drivers/third_party/ST/STM32L4xx_HAL_Driver/Src\stm32l4xx_hal_spi.c **** 
1124:E:/LiteOS/LiteOS_Lab/drivers/third_party/ST/STM32L4xx_HAL_Driver/Src\stm32l4xx_hal_spi.c **** #if (USE_SPI_CRC != 0U)
1125:E:/LiteOS/LiteOS_Lab/drivers/third_party/ST/STM32L4xx_HAL_Driver/Src\stm32l4xx_hal_spi.c ****   /* Read CRC from DR to close CRC calculation process */
1126:E:/LiteOS/LiteOS_Lab/drivers/third_party/ST/STM32L4xx_HAL_Driver/Src\stm32l4xx_hal_spi.c ****   if (hspi->Init.CRCCalculation == SPI_CRCCALCULATION_ENABLE)
1127:E:/LiteOS/LiteOS_Lab/drivers/third_party/ST/STM32L4xx_HAL_Driver/Src\stm32l4xx_hal_spi.c ****   {
1128:E:/LiteOS/LiteOS_Lab/drivers/third_party/ST/STM32L4xx_HAL_Driver/Src\stm32l4xx_hal_spi.c ****     /* Wait until TXE flag */
1129:E:/LiteOS/LiteOS_Lab/drivers/third_party/ST/STM32L4xx_HAL_Driver/Src\stm32l4xx_hal_spi.c ****     if (SPI_WaitFlagStateUntilTimeout(hspi, SPI_FLAG_RXNE, SET, Timeout, tickstart) != HAL_OK)
1130:E:/LiteOS/LiteOS_Lab/drivers/third_party/ST/STM32L4xx_HAL_Driver/Src\stm32l4xx_hal_spi.c ****     {
1131:E:/LiteOS/LiteOS_Lab/drivers/third_party/ST/STM32L4xx_HAL_Driver/Src\stm32l4xx_hal_spi.c ****       /* Error on the CRC reception */
1132:E:/LiteOS/LiteOS_Lab/drivers/third_party/ST/STM32L4xx_HAL_Driver/Src\stm32l4xx_hal_spi.c ****       SET_BIT(hspi->ErrorCode, HAL_SPI_ERROR_CRC);
1133:E:/LiteOS/LiteOS_Lab/drivers/third_party/ST/STM32L4xx_HAL_Driver/Src\stm32l4xx_hal_spi.c ****       errorcode = HAL_TIMEOUT;
1134:E:/LiteOS/LiteOS_Lab/drivers/third_party/ST/STM32L4xx_HAL_Driver/Src\stm32l4xx_hal_spi.c ****       goto error;
1135:E:/LiteOS/LiteOS_Lab/drivers/third_party/ST/STM32L4xx_HAL_Driver/Src\stm32l4xx_hal_spi.c ****     }
1136:E:/LiteOS/LiteOS_Lab/drivers/third_party/ST/STM32L4xx_HAL_Driver/Src\stm32l4xx_hal_spi.c ****     /* Read CRC */
ARM GAS  C:\Users\user\AppData\Local\Temp\ccvQ1M9B.s 			page 52


1137:E:/LiteOS/LiteOS_Lab/drivers/third_party/ST/STM32L4xx_HAL_Driver/Src\stm32l4xx_hal_spi.c ****     if (hspi->Init.DataSize == SPI_DATASIZE_16BIT)
1138:E:/LiteOS/LiteOS_Lab/drivers/third_party/ST/STM32L4xx_HAL_Driver/Src\stm32l4xx_hal_spi.c ****     {
1139:E:/LiteOS/LiteOS_Lab/drivers/third_party/ST/STM32L4xx_HAL_Driver/Src\stm32l4xx_hal_spi.c ****       tmpreg = hspi->Instance->DR;
1140:E:/LiteOS/LiteOS_Lab/drivers/third_party/ST/STM32L4xx_HAL_Driver/Src\stm32l4xx_hal_spi.c ****       /* To avoid GCC warning */
1141:E:/LiteOS/LiteOS_Lab/drivers/third_party/ST/STM32L4xx_HAL_Driver/Src\stm32l4xx_hal_spi.c ****       UNUSED(tmpreg);
1142:E:/LiteOS/LiteOS_Lab/drivers/third_party/ST/STM32L4xx_HAL_Driver/Src\stm32l4xx_hal_spi.c ****     }
1143:E:/LiteOS/LiteOS_Lab/drivers/third_party/ST/STM32L4xx_HAL_Driver/Src\stm32l4xx_hal_spi.c ****     else
1144:E:/LiteOS/LiteOS_Lab/drivers/third_party/ST/STM32L4xx_HAL_Driver/Src\stm32l4xx_hal_spi.c ****     {
1145:E:/LiteOS/LiteOS_Lab/drivers/third_party/ST/STM32L4xx_HAL_Driver/Src\stm32l4xx_hal_spi.c ****       tmpreg = *(__IO uint8_t *)&hspi->Instance->DR;
1146:E:/LiteOS/LiteOS_Lab/drivers/third_party/ST/STM32L4xx_HAL_Driver/Src\stm32l4xx_hal_spi.c ****       /* To avoid GCC warning */
1147:E:/LiteOS/LiteOS_Lab/drivers/third_party/ST/STM32L4xx_HAL_Driver/Src\stm32l4xx_hal_spi.c ****       UNUSED(tmpreg);
1148:E:/LiteOS/LiteOS_Lab/drivers/third_party/ST/STM32L4xx_HAL_Driver/Src\stm32l4xx_hal_spi.c **** 
1149:E:/LiteOS/LiteOS_Lab/drivers/third_party/ST/STM32L4xx_HAL_Driver/Src\stm32l4xx_hal_spi.c ****       if (hspi->Init.CRCLength == SPI_CRC_LENGTH_16BIT)
1150:E:/LiteOS/LiteOS_Lab/drivers/third_party/ST/STM32L4xx_HAL_Driver/Src\stm32l4xx_hal_spi.c ****       {
1151:E:/LiteOS/LiteOS_Lab/drivers/third_party/ST/STM32L4xx_HAL_Driver/Src\stm32l4xx_hal_spi.c ****         if (SPI_WaitFlagStateUntilTimeout(hspi, SPI_FLAG_RXNE, SET, Timeout, tickstart) != HAL_OK)
1152:E:/LiteOS/LiteOS_Lab/drivers/third_party/ST/STM32L4xx_HAL_Driver/Src\stm32l4xx_hal_spi.c ****         {
1153:E:/LiteOS/LiteOS_Lab/drivers/third_party/ST/STM32L4xx_HAL_Driver/Src\stm32l4xx_hal_spi.c ****           /* Error on the CRC reception */
1154:E:/LiteOS/LiteOS_Lab/drivers/third_party/ST/STM32L4xx_HAL_Driver/Src\stm32l4xx_hal_spi.c ****           SET_BIT(hspi->ErrorCode, HAL_SPI_ERROR_CRC);
1155:E:/LiteOS/LiteOS_Lab/drivers/third_party/ST/STM32L4xx_HAL_Driver/Src\stm32l4xx_hal_spi.c ****           errorcode = HAL_TIMEOUT;
1156:E:/LiteOS/LiteOS_Lab/drivers/third_party/ST/STM32L4xx_HAL_Driver/Src\stm32l4xx_hal_spi.c ****           goto error;
1157:E:/LiteOS/LiteOS_Lab/drivers/third_party/ST/STM32L4xx_HAL_Driver/Src\stm32l4xx_hal_spi.c ****         }
1158:E:/LiteOS/LiteOS_Lab/drivers/third_party/ST/STM32L4xx_HAL_Driver/Src\stm32l4xx_hal_spi.c ****         tmpreg = *(__IO uint8_t *)&hspi->Instance->DR;
1159:E:/LiteOS/LiteOS_Lab/drivers/third_party/ST/STM32L4xx_HAL_Driver/Src\stm32l4xx_hal_spi.c ****         /* To avoid GCC warning */
1160:E:/LiteOS/LiteOS_Lab/drivers/third_party/ST/STM32L4xx_HAL_Driver/Src\stm32l4xx_hal_spi.c ****         UNUSED(tmpreg);
1161:E:/LiteOS/LiteOS_Lab/drivers/third_party/ST/STM32L4xx_HAL_Driver/Src\stm32l4xx_hal_spi.c ****       }
1162:E:/LiteOS/LiteOS_Lab/drivers/third_party/ST/STM32L4xx_HAL_Driver/Src\stm32l4xx_hal_spi.c ****     }
1163:E:/LiteOS/LiteOS_Lab/drivers/third_party/ST/STM32L4xx_HAL_Driver/Src\stm32l4xx_hal_spi.c ****   }
1164:E:/LiteOS/LiteOS_Lab/drivers/third_party/ST/STM32L4xx_HAL_Driver/Src\stm32l4xx_hal_spi.c **** 
1165:E:/LiteOS/LiteOS_Lab/drivers/third_party/ST/STM32L4xx_HAL_Driver/Src\stm32l4xx_hal_spi.c ****   /* Check if CRC error occurred */
1166:E:/LiteOS/LiteOS_Lab/drivers/third_party/ST/STM32L4xx_HAL_Driver/Src\stm32l4xx_hal_spi.c ****   if (__HAL_SPI_GET_FLAG(hspi, SPI_FLAG_CRCERR))
1167:E:/LiteOS/LiteOS_Lab/drivers/third_party/ST/STM32L4xx_HAL_Driver/Src\stm32l4xx_hal_spi.c ****   {
1168:E:/LiteOS/LiteOS_Lab/drivers/third_party/ST/STM32L4xx_HAL_Driver/Src\stm32l4xx_hal_spi.c ****     SET_BIT(hspi->ErrorCode, HAL_SPI_ERROR_CRC);
1169:E:/LiteOS/LiteOS_Lab/drivers/third_party/ST/STM32L4xx_HAL_Driver/Src\stm32l4xx_hal_spi.c ****     /* Clear CRC Flag */
1170:E:/LiteOS/LiteOS_Lab/drivers/third_party/ST/STM32L4xx_HAL_Driver/Src\stm32l4xx_hal_spi.c ****     __HAL_SPI_CLEAR_CRCERRFLAG(hspi);
1171:E:/LiteOS/LiteOS_Lab/drivers/third_party/ST/STM32L4xx_HAL_Driver/Src\stm32l4xx_hal_spi.c **** 
1172:E:/LiteOS/LiteOS_Lab/drivers/third_party/ST/STM32L4xx_HAL_Driver/Src\stm32l4xx_hal_spi.c ****     errorcode = HAL_ERROR;
1173:E:/LiteOS/LiteOS_Lab/drivers/third_party/ST/STM32L4xx_HAL_Driver/Src\stm32l4xx_hal_spi.c ****   }
1174:E:/LiteOS/LiteOS_Lab/drivers/third_party/ST/STM32L4xx_HAL_Driver/Src\stm32l4xx_hal_spi.c **** #endif /* USE_SPI_CRC */
1175:E:/LiteOS/LiteOS_Lab/drivers/third_party/ST/STM32L4xx_HAL_Driver/Src\stm32l4xx_hal_spi.c **** 
1176:E:/LiteOS/LiteOS_Lab/drivers/third_party/ST/STM32L4xx_HAL_Driver/Src\stm32l4xx_hal_spi.c ****   /* Check the end of the transaction */
1177:E:/LiteOS/LiteOS_Lab/drivers/third_party/ST/STM32L4xx_HAL_Driver/Src\stm32l4xx_hal_spi.c ****   if (SPI_EndRxTxTransaction(hspi, Timeout, tickstart) != HAL_OK)
 1777              		.loc 1 1177 0 is_stmt 1
 1778 03bc 7A69     		ldr	r2, [r7, #20]
 1779 03be 396B     		ldr	r1, [r7, #48]
 1780 03c0 F868     		ldr	r0, [r7, #12]
 1781 03c2 FFF7FEFF 		bl	SPI_EndRxTxTransaction
 1782 03c6 0346     		mov	r3, r0
 1783 03c8 002B     		cmp	r3, #0
 1784 03ca 06D0     		beq	.L101
1178:E:/LiteOS/LiteOS_Lab/drivers/third_party/ST/STM32L4xx_HAL_Driver/Src\stm32l4xx_hal_spi.c ****   {
1179:E:/LiteOS/LiteOS_Lab/drivers/third_party/ST/STM32L4xx_HAL_Driver/Src\stm32l4xx_hal_spi.c ****     errorcode = HAL_ERROR;
 1785              		.loc 1 1179 0
 1786 03cc 0123     		movs	r3, #1
 1787 03ce 87F82330 		strb	r3, [r7, #35]
1180:E:/LiteOS/LiteOS_Lab/drivers/third_party/ST/STM32L4xx_HAL_Driver/Src\stm32l4xx_hal_spi.c ****     hspi->ErrorCode = HAL_SPI_ERROR_FLAG;
 1788              		.loc 1 1180 0
 1789 03d2 FB68     		ldr	r3, [r7, #12]
ARM GAS  C:\Users\user\AppData\Local\Temp\ccvQ1M9B.s 			page 53


 1790 03d4 2022     		movs	r2, #32
 1791 03d6 1A66     		str	r2, [r3, #96]
 1792 03d8 00E0     		b	.L73
 1793              	.L101:
1181:E:/LiteOS/LiteOS_Lab/drivers/third_party/ST/STM32L4xx_HAL_Driver/Src\stm32l4xx_hal_spi.c ****   }
1182:E:/LiteOS/LiteOS_Lab/drivers/third_party/ST/STM32L4xx_HAL_Driver/Src\stm32l4xx_hal_spi.c **** 
1183:E:/LiteOS/LiteOS_Lab/drivers/third_party/ST/STM32L4xx_HAL_Driver/Src\stm32l4xx_hal_spi.c **** error :
 1794              		.loc 1 1183 0
 1795 03da 00BF     		nop
 1796              	.L73:
1184:E:/LiteOS/LiteOS_Lab/drivers/third_party/ST/STM32L4xx_HAL_Driver/Src\stm32l4xx_hal_spi.c ****   hspi->State = HAL_SPI_STATE_READY;
 1797              		.loc 1 1184 0
 1798 03dc FB68     		ldr	r3, [r7, #12]
 1799 03de 0122     		movs	r2, #1
 1800 03e0 83F85D20 		strb	r2, [r3, #93]
1185:E:/LiteOS/LiteOS_Lab/drivers/third_party/ST/STM32L4xx_HAL_Driver/Src\stm32l4xx_hal_spi.c ****   __HAL_UNLOCK(hspi);
 1801              		.loc 1 1185 0
 1802 03e4 FB68     		ldr	r3, [r7, #12]
 1803 03e6 0022     		movs	r2, #0
 1804 03e8 83F85C20 		strb	r2, [r3, #92]
1186:E:/LiteOS/LiteOS_Lab/drivers/third_party/ST/STM32L4xx_HAL_Driver/Src\stm32l4xx_hal_spi.c ****   return errorcode;
 1805              		.loc 1 1186 0
 1806 03ec 97F82330 		ldrb	r3, [r7, #35]	@ zero_extendqisi2
 1807              	.L70:
1187:E:/LiteOS/LiteOS_Lab/drivers/third_party/ST/STM32L4xx_HAL_Driver/Src\stm32l4xx_hal_spi.c **** }
 1808              		.loc 1 1187 0
 1809 03f0 1846     		mov	r0, r3
 1810 03f2 2837     		adds	r7, r7, #40
 1811              	.LCFI35:
 1812              		.cfi_def_cfa_offset 8
 1813 03f4 BD46     		mov	sp, r7
 1814              	.LCFI36:
 1815              		.cfi_def_cfa_register 13
 1816              		@ sp needed
 1817 03f6 80BD     		pop	{r7, pc}
 1818              		.cfi_endproc
 1819              	.LFE139:
 1821              		.section	.text.HAL_SPI_Transmit_IT,"ax",%progbits
 1822              		.align	1
 1823              		.global	HAL_SPI_Transmit_IT
 1824              		.syntax unified
 1825              		.thumb
 1826              		.thumb_func
 1827              		.fpu fpv4-sp-d16
 1829              	HAL_SPI_Transmit_IT:
 1830              	.LFB140:
1188:E:/LiteOS/LiteOS_Lab/drivers/third_party/ST/STM32L4xx_HAL_Driver/Src\stm32l4xx_hal_spi.c **** 
1189:E:/LiteOS/LiteOS_Lab/drivers/third_party/ST/STM32L4xx_HAL_Driver/Src\stm32l4xx_hal_spi.c **** /**
1190:E:/LiteOS/LiteOS_Lab/drivers/third_party/ST/STM32L4xx_HAL_Driver/Src\stm32l4xx_hal_spi.c ****   * @brief  Transmit an amount of data in non-blocking mode with Interrupt.
1191:E:/LiteOS/LiteOS_Lab/drivers/third_party/ST/STM32L4xx_HAL_Driver/Src\stm32l4xx_hal_spi.c ****   * @param  hspi pointer to a SPI_HandleTypeDef structure that contains
1192:E:/LiteOS/LiteOS_Lab/drivers/third_party/ST/STM32L4xx_HAL_Driver/Src\stm32l4xx_hal_spi.c ****   *               the configuration information for SPI module.
1193:E:/LiteOS/LiteOS_Lab/drivers/third_party/ST/STM32L4xx_HAL_Driver/Src\stm32l4xx_hal_spi.c ****   * @param  pData pointer to data buffer
1194:E:/LiteOS/LiteOS_Lab/drivers/third_party/ST/STM32L4xx_HAL_Driver/Src\stm32l4xx_hal_spi.c ****   * @param  Size amount of data to be sent
1195:E:/LiteOS/LiteOS_Lab/drivers/third_party/ST/STM32L4xx_HAL_Driver/Src\stm32l4xx_hal_spi.c ****   * @retval HAL status
1196:E:/LiteOS/LiteOS_Lab/drivers/third_party/ST/STM32L4xx_HAL_Driver/Src\stm32l4xx_hal_spi.c ****   */
1197:E:/LiteOS/LiteOS_Lab/drivers/third_party/ST/STM32L4xx_HAL_Driver/Src\stm32l4xx_hal_spi.c **** HAL_StatusTypeDef HAL_SPI_Transmit_IT(SPI_HandleTypeDef *hspi, uint8_t *pData, uint16_t Size)
1198:E:/LiteOS/LiteOS_Lab/drivers/third_party/ST/STM32L4xx_HAL_Driver/Src\stm32l4xx_hal_spi.c **** {
ARM GAS  C:\Users\user\AppData\Local\Temp\ccvQ1M9B.s 			page 54


 1831              		.loc 1 1198 0
 1832              		.cfi_startproc
 1833              		@ args = 0, pretend = 0, frame = 24
 1834              		@ frame_needed = 1, uses_anonymous_args = 0
 1835              		@ link register save eliminated.
 1836 0000 80B4     		push	{r7}
 1837              	.LCFI37:
 1838              		.cfi_def_cfa_offset 4
 1839              		.cfi_offset 7, -4
 1840 0002 87B0     		sub	sp, sp, #28
 1841              	.LCFI38:
 1842              		.cfi_def_cfa_offset 32
 1843 0004 00AF     		add	r7, sp, #0
 1844              	.LCFI39:
 1845              		.cfi_def_cfa_register 7
 1846 0006 F860     		str	r0, [r7, #12]
 1847 0008 B960     		str	r1, [r7, #8]
 1848 000a 1346     		mov	r3, r2
 1849 000c FB80     		strh	r3, [r7, #6]	@ movhi
1199:E:/LiteOS/LiteOS_Lab/drivers/third_party/ST/STM32L4xx_HAL_Driver/Src\stm32l4xx_hal_spi.c ****   HAL_StatusTypeDef errorcode = HAL_OK;
 1850              		.loc 1 1199 0
 1851 000e 0023     		movs	r3, #0
 1852 0010 FB75     		strb	r3, [r7, #23]
1200:E:/LiteOS/LiteOS_Lab/drivers/third_party/ST/STM32L4xx_HAL_Driver/Src\stm32l4xx_hal_spi.c **** 
1201:E:/LiteOS/LiteOS_Lab/drivers/third_party/ST/STM32L4xx_HAL_Driver/Src\stm32l4xx_hal_spi.c ****   /* Check Direction parameter */
1202:E:/LiteOS/LiteOS_Lab/drivers/third_party/ST/STM32L4xx_HAL_Driver/Src\stm32l4xx_hal_spi.c ****   assert_param(IS_SPI_DIRECTION_2LINES_OR_1LINE(hspi->Init.Direction));
1203:E:/LiteOS/LiteOS_Lab/drivers/third_party/ST/STM32L4xx_HAL_Driver/Src\stm32l4xx_hal_spi.c **** 
1204:E:/LiteOS/LiteOS_Lab/drivers/third_party/ST/STM32L4xx_HAL_Driver/Src\stm32l4xx_hal_spi.c ****   /* Process Locked */
1205:E:/LiteOS/LiteOS_Lab/drivers/third_party/ST/STM32L4xx_HAL_Driver/Src\stm32l4xx_hal_spi.c ****   __HAL_LOCK(hspi);
 1853              		.loc 1 1205 0
 1854 0012 FB68     		ldr	r3, [r7, #12]
 1855 0014 93F85C30 		ldrb	r3, [r3, #92]	@ zero_extendqisi2
 1856 0018 012B     		cmp	r3, #1
 1857 001a 01D1     		bne	.L103
 1858              		.loc 1 1205 0 is_stmt 0 discriminator 1
 1859 001c 0223     		movs	r3, #2
 1860 001e 6AE0     		b	.L104
 1861              	.L103:
 1862              		.loc 1 1205 0 discriminator 2
 1863 0020 FB68     		ldr	r3, [r7, #12]
 1864 0022 0122     		movs	r2, #1
 1865 0024 83F85C20 		strb	r2, [r3, #92]
1206:E:/LiteOS/LiteOS_Lab/drivers/third_party/ST/STM32L4xx_HAL_Driver/Src\stm32l4xx_hal_spi.c **** 
1207:E:/LiteOS/LiteOS_Lab/drivers/third_party/ST/STM32L4xx_HAL_Driver/Src\stm32l4xx_hal_spi.c ****   if ((pData == NULL) || (Size == 0U))
 1866              		.loc 1 1207 0 is_stmt 1 discriminator 2
 1867 0028 BB68     		ldr	r3, [r7, #8]
 1868 002a 002B     		cmp	r3, #0
 1869 002c 02D0     		beq	.L105
 1870              		.loc 1 1207 0 is_stmt 0 discriminator 1
 1871 002e FB88     		ldrh	r3, [r7, #6]
 1872 0030 002B     		cmp	r3, #0
 1873 0032 02D1     		bne	.L106
 1874              	.L105:
1208:E:/LiteOS/LiteOS_Lab/drivers/third_party/ST/STM32L4xx_HAL_Driver/Src\stm32l4xx_hal_spi.c ****   {
1209:E:/LiteOS/LiteOS_Lab/drivers/third_party/ST/STM32L4xx_HAL_Driver/Src\stm32l4xx_hal_spi.c ****     errorcode = HAL_ERROR;
 1875              		.loc 1 1209 0 is_stmt 1
 1876 0034 0123     		movs	r3, #1
ARM GAS  C:\Users\user\AppData\Local\Temp\ccvQ1M9B.s 			page 55


 1877 0036 FB75     		strb	r3, [r7, #23]
1210:E:/LiteOS/LiteOS_Lab/drivers/third_party/ST/STM32L4xx_HAL_Driver/Src\stm32l4xx_hal_spi.c ****     goto error;
 1878              		.loc 1 1210 0
 1879 0038 58E0     		b	.L107
 1880              	.L106:
1211:E:/LiteOS/LiteOS_Lab/drivers/third_party/ST/STM32L4xx_HAL_Driver/Src\stm32l4xx_hal_spi.c ****   }
1212:E:/LiteOS/LiteOS_Lab/drivers/third_party/ST/STM32L4xx_HAL_Driver/Src\stm32l4xx_hal_spi.c **** 
1213:E:/LiteOS/LiteOS_Lab/drivers/third_party/ST/STM32L4xx_HAL_Driver/Src\stm32l4xx_hal_spi.c ****   if (hspi->State != HAL_SPI_STATE_READY)
 1881              		.loc 1 1213 0
 1882 003a FB68     		ldr	r3, [r7, #12]
 1883 003c 93F85D30 		ldrb	r3, [r3, #93]
 1884 0040 DBB2     		uxtb	r3, r3
 1885 0042 012B     		cmp	r3, #1
 1886 0044 02D0     		beq	.L108
1214:E:/LiteOS/LiteOS_Lab/drivers/third_party/ST/STM32L4xx_HAL_Driver/Src\stm32l4xx_hal_spi.c ****   {
1215:E:/LiteOS/LiteOS_Lab/drivers/third_party/ST/STM32L4xx_HAL_Driver/Src\stm32l4xx_hal_spi.c ****     errorcode = HAL_BUSY;
 1887              		.loc 1 1215 0
 1888 0046 0223     		movs	r3, #2
 1889 0048 FB75     		strb	r3, [r7, #23]
1216:E:/LiteOS/LiteOS_Lab/drivers/third_party/ST/STM32L4xx_HAL_Driver/Src\stm32l4xx_hal_spi.c ****     goto error;
 1890              		.loc 1 1216 0
 1891 004a 4FE0     		b	.L107
 1892              	.L108:
1217:E:/LiteOS/LiteOS_Lab/drivers/third_party/ST/STM32L4xx_HAL_Driver/Src\stm32l4xx_hal_spi.c ****   }
1218:E:/LiteOS/LiteOS_Lab/drivers/third_party/ST/STM32L4xx_HAL_Driver/Src\stm32l4xx_hal_spi.c **** 
1219:E:/LiteOS/LiteOS_Lab/drivers/third_party/ST/STM32L4xx_HAL_Driver/Src\stm32l4xx_hal_spi.c ****   /* Set the transaction information */
1220:E:/LiteOS/LiteOS_Lab/drivers/third_party/ST/STM32L4xx_HAL_Driver/Src\stm32l4xx_hal_spi.c ****   hspi->State       = HAL_SPI_STATE_BUSY_TX;
 1893              		.loc 1 1220 0
 1894 004c FB68     		ldr	r3, [r7, #12]
 1895 004e 0322     		movs	r2, #3
 1896 0050 83F85D20 		strb	r2, [r3, #93]
1221:E:/LiteOS/LiteOS_Lab/drivers/third_party/ST/STM32L4xx_HAL_Driver/Src\stm32l4xx_hal_spi.c ****   hspi->ErrorCode   = HAL_SPI_ERROR_NONE;
 1897              		.loc 1 1221 0
 1898 0054 FB68     		ldr	r3, [r7, #12]
 1899 0056 0022     		movs	r2, #0
 1900 0058 1A66     		str	r2, [r3, #96]
1222:E:/LiteOS/LiteOS_Lab/drivers/third_party/ST/STM32L4xx_HAL_Driver/Src\stm32l4xx_hal_spi.c ****   hspi->pTxBuffPtr  = (uint8_t *)pData;
 1901              		.loc 1 1222 0
 1902 005a FB68     		ldr	r3, [r7, #12]
 1903 005c BA68     		ldr	r2, [r7, #8]
 1904 005e 9A63     		str	r2, [r3, #56]
1223:E:/LiteOS/LiteOS_Lab/drivers/third_party/ST/STM32L4xx_HAL_Driver/Src\stm32l4xx_hal_spi.c ****   hspi->TxXferSize  = Size;
 1905              		.loc 1 1223 0
 1906 0060 FB68     		ldr	r3, [r7, #12]
 1907 0062 FA88     		ldrh	r2, [r7, #6]	@ movhi
 1908 0064 9A87     		strh	r2, [r3, #60]	@ movhi
1224:E:/LiteOS/LiteOS_Lab/drivers/third_party/ST/STM32L4xx_HAL_Driver/Src\stm32l4xx_hal_spi.c ****   hspi->TxXferCount = Size;
 1909              		.loc 1 1224 0
 1910 0066 FB68     		ldr	r3, [r7, #12]
 1911 0068 FA88     		ldrh	r2, [r7, #6]	@ movhi
 1912 006a DA87     		strh	r2, [r3, #62]	@ movhi
1225:E:/LiteOS/LiteOS_Lab/drivers/third_party/ST/STM32L4xx_HAL_Driver/Src\stm32l4xx_hal_spi.c **** 
1226:E:/LiteOS/LiteOS_Lab/drivers/third_party/ST/STM32L4xx_HAL_Driver/Src\stm32l4xx_hal_spi.c ****   /* Init field not used in handle to zero */
1227:E:/LiteOS/LiteOS_Lab/drivers/third_party/ST/STM32L4xx_HAL_Driver/Src\stm32l4xx_hal_spi.c ****   hspi->pRxBuffPtr  = (uint8_t *)NULL;
 1913              		.loc 1 1227 0
 1914 006c FB68     		ldr	r3, [r7, #12]
 1915 006e 0022     		movs	r2, #0
ARM GAS  C:\Users\user\AppData\Local\Temp\ccvQ1M9B.s 			page 56


 1916 0070 1A64     		str	r2, [r3, #64]
1228:E:/LiteOS/LiteOS_Lab/drivers/third_party/ST/STM32L4xx_HAL_Driver/Src\stm32l4xx_hal_spi.c ****   hspi->RxXferSize  = 0U;
 1917              		.loc 1 1228 0
 1918 0072 FB68     		ldr	r3, [r7, #12]
 1919 0074 0022     		movs	r2, #0
 1920 0076 A3F84420 		strh	r2, [r3, #68]	@ movhi
1229:E:/LiteOS/LiteOS_Lab/drivers/third_party/ST/STM32L4xx_HAL_Driver/Src\stm32l4xx_hal_spi.c ****   hspi->RxXferCount = 0U;
 1921              		.loc 1 1229 0
 1922 007a FB68     		ldr	r3, [r7, #12]
 1923 007c 0022     		movs	r2, #0
 1924 007e A3F84620 		strh	r2, [r3, #70]	@ movhi
1230:E:/LiteOS/LiteOS_Lab/drivers/third_party/ST/STM32L4xx_HAL_Driver/Src\stm32l4xx_hal_spi.c ****   hspi->RxISR       = NULL;
 1925              		.loc 1 1230 0
 1926 0082 FB68     		ldr	r3, [r7, #12]
 1927 0084 0022     		movs	r2, #0
 1928 0086 DA64     		str	r2, [r3, #76]
1231:E:/LiteOS/LiteOS_Lab/drivers/third_party/ST/STM32L4xx_HAL_Driver/Src\stm32l4xx_hal_spi.c **** 
1232:E:/LiteOS/LiteOS_Lab/drivers/third_party/ST/STM32L4xx_HAL_Driver/Src\stm32l4xx_hal_spi.c ****   /* Set the function for IT treatment */
1233:E:/LiteOS/LiteOS_Lab/drivers/third_party/ST/STM32L4xx_HAL_Driver/Src\stm32l4xx_hal_spi.c ****   if (hspi->Init.DataSize > SPI_DATASIZE_8BIT)
 1929              		.loc 1 1233 0
 1930 0088 FB68     		ldr	r3, [r7, #12]
 1931 008a DB68     		ldr	r3, [r3, #12]
 1932 008c B3F5E06F 		cmp	r3, #1792
 1933 0090 03D9     		bls	.L109
1234:E:/LiteOS/LiteOS_Lab/drivers/third_party/ST/STM32L4xx_HAL_Driver/Src\stm32l4xx_hal_spi.c ****   {
1235:E:/LiteOS/LiteOS_Lab/drivers/third_party/ST/STM32L4xx_HAL_Driver/Src\stm32l4xx_hal_spi.c ****     hspi->TxISR = SPI_TxISR_16BIT;
 1934              		.loc 1 1235 0
 1935 0092 FB68     		ldr	r3, [r7, #12]
 1936 0094 1B4A     		ldr	r2, .L113
 1937 0096 1A65     		str	r2, [r3, #80]
 1938 0098 02E0     		b	.L110
 1939              	.L109:
1236:E:/LiteOS/LiteOS_Lab/drivers/third_party/ST/STM32L4xx_HAL_Driver/Src\stm32l4xx_hal_spi.c ****   }
1237:E:/LiteOS/LiteOS_Lab/drivers/third_party/ST/STM32L4xx_HAL_Driver/Src\stm32l4xx_hal_spi.c ****   else
1238:E:/LiteOS/LiteOS_Lab/drivers/third_party/ST/STM32L4xx_HAL_Driver/Src\stm32l4xx_hal_spi.c ****   {
1239:E:/LiteOS/LiteOS_Lab/drivers/third_party/ST/STM32L4xx_HAL_Driver/Src\stm32l4xx_hal_spi.c ****     hspi->TxISR = SPI_TxISR_8BIT;
 1940              		.loc 1 1239 0
 1941 009a FB68     		ldr	r3, [r7, #12]
 1942 009c 1A4A     		ldr	r2, .L113+4
 1943 009e 1A65     		str	r2, [r3, #80]
 1944              	.L110:
1240:E:/LiteOS/LiteOS_Lab/drivers/third_party/ST/STM32L4xx_HAL_Driver/Src\stm32l4xx_hal_spi.c ****   }
1241:E:/LiteOS/LiteOS_Lab/drivers/third_party/ST/STM32L4xx_HAL_Driver/Src\stm32l4xx_hal_spi.c **** 
1242:E:/LiteOS/LiteOS_Lab/drivers/third_party/ST/STM32L4xx_HAL_Driver/Src\stm32l4xx_hal_spi.c ****   /* Configure communication direction : 1Line */
1243:E:/LiteOS/LiteOS_Lab/drivers/third_party/ST/STM32L4xx_HAL_Driver/Src\stm32l4xx_hal_spi.c ****   if (hspi->Init.Direction == SPI_DIRECTION_1LINE)
 1945              		.loc 1 1243 0
 1946 00a0 FB68     		ldr	r3, [r7, #12]
 1947 00a2 9B68     		ldr	r3, [r3, #8]
 1948 00a4 B3F5004F 		cmp	r3, #32768
 1949 00a8 07D1     		bne	.L111
1244:E:/LiteOS/LiteOS_Lab/drivers/third_party/ST/STM32L4xx_HAL_Driver/Src\stm32l4xx_hal_spi.c ****   {
1245:E:/LiteOS/LiteOS_Lab/drivers/third_party/ST/STM32L4xx_HAL_Driver/Src\stm32l4xx_hal_spi.c ****     SPI_1LINE_TX(hspi);
 1950              		.loc 1 1245 0
 1951 00aa FB68     		ldr	r3, [r7, #12]
 1952 00ac 1B68     		ldr	r3, [r3]
 1953 00ae 1A68     		ldr	r2, [r3]
 1954 00b0 FB68     		ldr	r3, [r7, #12]
ARM GAS  C:\Users\user\AppData\Local\Temp\ccvQ1M9B.s 			page 57


 1955 00b2 1B68     		ldr	r3, [r3]
 1956 00b4 42F48042 		orr	r2, r2, #16384
 1957 00b8 1A60     		str	r2, [r3]
 1958              	.L111:
1246:E:/LiteOS/LiteOS_Lab/drivers/third_party/ST/STM32L4xx_HAL_Driver/Src\stm32l4xx_hal_spi.c ****   }
1247:E:/LiteOS/LiteOS_Lab/drivers/third_party/ST/STM32L4xx_HAL_Driver/Src\stm32l4xx_hal_spi.c **** 
1248:E:/LiteOS/LiteOS_Lab/drivers/third_party/ST/STM32L4xx_HAL_Driver/Src\stm32l4xx_hal_spi.c **** #if (USE_SPI_CRC != 0U)
1249:E:/LiteOS/LiteOS_Lab/drivers/third_party/ST/STM32L4xx_HAL_Driver/Src\stm32l4xx_hal_spi.c ****   /* Reset CRC Calculation */
1250:E:/LiteOS/LiteOS_Lab/drivers/third_party/ST/STM32L4xx_HAL_Driver/Src\stm32l4xx_hal_spi.c ****   if (hspi->Init.CRCCalculation == SPI_CRCCALCULATION_ENABLE)
1251:E:/LiteOS/LiteOS_Lab/drivers/third_party/ST/STM32L4xx_HAL_Driver/Src\stm32l4xx_hal_spi.c ****   {
1252:E:/LiteOS/LiteOS_Lab/drivers/third_party/ST/STM32L4xx_HAL_Driver/Src\stm32l4xx_hal_spi.c ****     SPI_RESET_CRC(hspi);
1253:E:/LiteOS/LiteOS_Lab/drivers/third_party/ST/STM32L4xx_HAL_Driver/Src\stm32l4xx_hal_spi.c ****   }
1254:E:/LiteOS/LiteOS_Lab/drivers/third_party/ST/STM32L4xx_HAL_Driver/Src\stm32l4xx_hal_spi.c **** #endif /* USE_SPI_CRC */
1255:E:/LiteOS/LiteOS_Lab/drivers/third_party/ST/STM32L4xx_HAL_Driver/Src\stm32l4xx_hal_spi.c **** 
1256:E:/LiteOS/LiteOS_Lab/drivers/third_party/ST/STM32L4xx_HAL_Driver/Src\stm32l4xx_hal_spi.c ****   /* Enable TXE and ERR interrupt */
1257:E:/LiteOS/LiteOS_Lab/drivers/third_party/ST/STM32L4xx_HAL_Driver/Src\stm32l4xx_hal_spi.c ****   __HAL_SPI_ENABLE_IT(hspi, (SPI_IT_TXE | SPI_IT_ERR));
 1959              		.loc 1 1257 0
 1960 00ba FB68     		ldr	r3, [r7, #12]
 1961 00bc 1B68     		ldr	r3, [r3]
 1962 00be 5A68     		ldr	r2, [r3, #4]
 1963 00c0 FB68     		ldr	r3, [r7, #12]
 1964 00c2 1B68     		ldr	r3, [r3]
 1965 00c4 42F0A002 		orr	r2, r2, #160
 1966 00c8 5A60     		str	r2, [r3, #4]
1258:E:/LiteOS/LiteOS_Lab/drivers/third_party/ST/STM32L4xx_HAL_Driver/Src\stm32l4xx_hal_spi.c **** 
1259:E:/LiteOS/LiteOS_Lab/drivers/third_party/ST/STM32L4xx_HAL_Driver/Src\stm32l4xx_hal_spi.c **** 
1260:E:/LiteOS/LiteOS_Lab/drivers/third_party/ST/STM32L4xx_HAL_Driver/Src\stm32l4xx_hal_spi.c ****   /* Check if the SPI is already enabled */
1261:E:/LiteOS/LiteOS_Lab/drivers/third_party/ST/STM32L4xx_HAL_Driver/Src\stm32l4xx_hal_spi.c ****   if ((hspi->Instance->CR1 & SPI_CR1_SPE) != SPI_CR1_SPE)
 1967              		.loc 1 1261 0
 1968 00ca FB68     		ldr	r3, [r7, #12]
 1969 00cc 1B68     		ldr	r3, [r3]
 1970 00ce 1B68     		ldr	r3, [r3]
 1971 00d0 03F04003 		and	r3, r3, #64
 1972 00d4 402B     		cmp	r3, #64
 1973 00d6 08D0     		beq	.L112
1262:E:/LiteOS/LiteOS_Lab/drivers/third_party/ST/STM32L4xx_HAL_Driver/Src\stm32l4xx_hal_spi.c ****   {
1263:E:/LiteOS/LiteOS_Lab/drivers/third_party/ST/STM32L4xx_HAL_Driver/Src\stm32l4xx_hal_spi.c ****     /* Enable SPI peripheral */
1264:E:/LiteOS/LiteOS_Lab/drivers/third_party/ST/STM32L4xx_HAL_Driver/Src\stm32l4xx_hal_spi.c ****     __HAL_SPI_ENABLE(hspi);
 1974              		.loc 1 1264 0
 1975 00d8 FB68     		ldr	r3, [r7, #12]
 1976 00da 1B68     		ldr	r3, [r3]
 1977 00dc 1A68     		ldr	r2, [r3]
 1978 00de FB68     		ldr	r3, [r7, #12]
 1979 00e0 1B68     		ldr	r3, [r3]
 1980 00e2 42F04002 		orr	r2, r2, #64
 1981 00e6 1A60     		str	r2, [r3]
 1982 00e8 00E0     		b	.L107
 1983              	.L112:
1265:E:/LiteOS/LiteOS_Lab/drivers/third_party/ST/STM32L4xx_HAL_Driver/Src\stm32l4xx_hal_spi.c ****   }
1266:E:/LiteOS/LiteOS_Lab/drivers/third_party/ST/STM32L4xx_HAL_Driver/Src\stm32l4xx_hal_spi.c **** 
1267:E:/LiteOS/LiteOS_Lab/drivers/third_party/ST/STM32L4xx_HAL_Driver/Src\stm32l4xx_hal_spi.c **** error :
 1984              		.loc 1 1267 0
 1985 00ea 00BF     		nop
 1986              	.L107:
1268:E:/LiteOS/LiteOS_Lab/drivers/third_party/ST/STM32L4xx_HAL_Driver/Src\stm32l4xx_hal_spi.c ****   __HAL_UNLOCK(hspi);
 1987              		.loc 1 1268 0
 1988 00ec FB68     		ldr	r3, [r7, #12]
ARM GAS  C:\Users\user\AppData\Local\Temp\ccvQ1M9B.s 			page 58


 1989 00ee 0022     		movs	r2, #0
 1990 00f0 83F85C20 		strb	r2, [r3, #92]
1269:E:/LiteOS/LiteOS_Lab/drivers/third_party/ST/STM32L4xx_HAL_Driver/Src\stm32l4xx_hal_spi.c ****   return errorcode;
 1991              		.loc 1 1269 0
 1992 00f4 FB7D     		ldrb	r3, [r7, #23]	@ zero_extendqisi2
 1993              	.L104:
1270:E:/LiteOS/LiteOS_Lab/drivers/third_party/ST/STM32L4xx_HAL_Driver/Src\stm32l4xx_hal_spi.c **** }
 1994              		.loc 1 1270 0
 1995 00f6 1846     		mov	r0, r3
 1996 00f8 1C37     		adds	r7, r7, #28
 1997              	.LCFI40:
 1998              		.cfi_def_cfa_offset 4
 1999 00fa BD46     		mov	sp, r7
 2000              	.LCFI41:
 2001              		.cfi_def_cfa_register 13
 2002              		@ sp needed
 2003 00fc 5DF8047B 		ldr	r7, [sp], #4
 2004              	.LCFI42:
 2005              		.cfi_restore 7
 2006              		.cfi_def_cfa_offset 0
 2007 0100 7047     		bx	lr
 2008              	.L114:
 2009 0102 00BF     		.align	2
 2010              	.L113:
 2011 0104 00000000 		.word	SPI_TxISR_16BIT
 2012 0108 00000000 		.word	SPI_TxISR_8BIT
 2013              		.cfi_endproc
 2014              	.LFE140:
 2016              		.section	.text.HAL_SPI_Receive_IT,"ax",%progbits
 2017              		.align	1
 2018              		.global	HAL_SPI_Receive_IT
 2019              		.syntax unified
 2020              		.thumb
 2021              		.thumb_func
 2022              		.fpu fpv4-sp-d16
 2024              	HAL_SPI_Receive_IT:
 2025              	.LFB141:
1271:E:/LiteOS/LiteOS_Lab/drivers/third_party/ST/STM32L4xx_HAL_Driver/Src\stm32l4xx_hal_spi.c **** 
1272:E:/LiteOS/LiteOS_Lab/drivers/third_party/ST/STM32L4xx_HAL_Driver/Src\stm32l4xx_hal_spi.c **** /**
1273:E:/LiteOS/LiteOS_Lab/drivers/third_party/ST/STM32L4xx_HAL_Driver/Src\stm32l4xx_hal_spi.c ****   * @brief  Receive an amount of data in non-blocking mode with Interrupt.
1274:E:/LiteOS/LiteOS_Lab/drivers/third_party/ST/STM32L4xx_HAL_Driver/Src\stm32l4xx_hal_spi.c ****   * @param  hspi pointer to a SPI_HandleTypeDef structure that contains
1275:E:/LiteOS/LiteOS_Lab/drivers/third_party/ST/STM32L4xx_HAL_Driver/Src\stm32l4xx_hal_spi.c ****   *               the configuration information for SPI module.
1276:E:/LiteOS/LiteOS_Lab/drivers/third_party/ST/STM32L4xx_HAL_Driver/Src\stm32l4xx_hal_spi.c ****   * @param  pData pointer to data buffer
1277:E:/LiteOS/LiteOS_Lab/drivers/third_party/ST/STM32L4xx_HAL_Driver/Src\stm32l4xx_hal_spi.c ****   * @param  Size amount of data to be sent
1278:E:/LiteOS/LiteOS_Lab/drivers/third_party/ST/STM32L4xx_HAL_Driver/Src\stm32l4xx_hal_spi.c ****   * @retval HAL status
1279:E:/LiteOS/LiteOS_Lab/drivers/third_party/ST/STM32L4xx_HAL_Driver/Src\stm32l4xx_hal_spi.c ****   */
1280:E:/LiteOS/LiteOS_Lab/drivers/third_party/ST/STM32L4xx_HAL_Driver/Src\stm32l4xx_hal_spi.c **** HAL_StatusTypeDef HAL_SPI_Receive_IT(SPI_HandleTypeDef *hspi, uint8_t *pData, uint16_t Size)
1281:E:/LiteOS/LiteOS_Lab/drivers/third_party/ST/STM32L4xx_HAL_Driver/Src\stm32l4xx_hal_spi.c **** {
 2026              		.loc 1 1281 0
 2027              		.cfi_startproc
 2028              		@ args = 0, pretend = 0, frame = 24
 2029              		@ frame_needed = 1, uses_anonymous_args = 0
 2030 0000 80B5     		push	{r7, lr}
 2031              	.LCFI43:
 2032              		.cfi_def_cfa_offset 8
 2033              		.cfi_offset 7, -8
 2034              		.cfi_offset 14, -4
ARM GAS  C:\Users\user\AppData\Local\Temp\ccvQ1M9B.s 			page 59


 2035 0002 86B0     		sub	sp, sp, #24
 2036              	.LCFI44:
 2037              		.cfi_def_cfa_offset 32
 2038 0004 00AF     		add	r7, sp, #0
 2039              	.LCFI45:
 2040              		.cfi_def_cfa_register 7
 2041 0006 F860     		str	r0, [r7, #12]
 2042 0008 B960     		str	r1, [r7, #8]
 2043 000a 1346     		mov	r3, r2
 2044 000c FB80     		strh	r3, [r7, #6]	@ movhi
1282:E:/LiteOS/LiteOS_Lab/drivers/third_party/ST/STM32L4xx_HAL_Driver/Src\stm32l4xx_hal_spi.c ****   HAL_StatusTypeDef errorcode = HAL_OK;
 2045              		.loc 1 1282 0
 2046 000e 0023     		movs	r3, #0
 2047 0010 FB75     		strb	r3, [r7, #23]
1283:E:/LiteOS/LiteOS_Lab/drivers/third_party/ST/STM32L4xx_HAL_Driver/Src\stm32l4xx_hal_spi.c **** 
1284:E:/LiteOS/LiteOS_Lab/drivers/third_party/ST/STM32L4xx_HAL_Driver/Src\stm32l4xx_hal_spi.c ****   if ((hspi->Init.Direction == SPI_DIRECTION_2LINES) && (hspi->Init.Mode == SPI_MODE_MASTER))
 2048              		.loc 1 1284 0
 2049 0012 FB68     		ldr	r3, [r7, #12]
 2050 0014 9B68     		ldr	r3, [r3, #8]
 2051 0016 002B     		cmp	r3, #0
 2052 0018 10D1     		bne	.L116
 2053              		.loc 1 1284 0 is_stmt 0 discriminator 1
 2054 001a FB68     		ldr	r3, [r7, #12]
 2055 001c 5B68     		ldr	r3, [r3, #4]
 2056 001e B3F5827F 		cmp	r3, #260
 2057 0022 0BD1     		bne	.L116
1285:E:/LiteOS/LiteOS_Lab/drivers/third_party/ST/STM32L4xx_HAL_Driver/Src\stm32l4xx_hal_spi.c ****   {
1286:E:/LiteOS/LiteOS_Lab/drivers/third_party/ST/STM32L4xx_HAL_Driver/Src\stm32l4xx_hal_spi.c ****     hspi->State = HAL_SPI_STATE_BUSY_RX;
 2058              		.loc 1 1286 0 is_stmt 1
 2059 0024 FB68     		ldr	r3, [r7, #12]
 2060 0026 0422     		movs	r2, #4
 2061 0028 83F85D20 		strb	r2, [r3, #93]
1287:E:/LiteOS/LiteOS_Lab/drivers/third_party/ST/STM32L4xx_HAL_Driver/Src\stm32l4xx_hal_spi.c ****     /* Call transmit-receive function to send Dummy data on Tx line and generate clock on CLK line 
1288:E:/LiteOS/LiteOS_Lab/drivers/third_party/ST/STM32L4xx_HAL_Driver/Src\stm32l4xx_hal_spi.c ****     return HAL_SPI_TransmitReceive_IT(hspi, pData, pData, Size);
 2062              		.loc 1 1288 0
 2063 002c FB88     		ldrh	r3, [r7, #6]
 2064 002e BA68     		ldr	r2, [r7, #8]
 2065 0030 B968     		ldr	r1, [r7, #8]
 2066 0032 F868     		ldr	r0, [r7, #12]
 2067 0034 FFF7FEFF 		bl	HAL_SPI_TransmitReceive_IT
 2068 0038 0346     		mov	r3, r0
 2069 003a 81E0     		b	.L117
 2070              	.L116:
1289:E:/LiteOS/LiteOS_Lab/drivers/third_party/ST/STM32L4xx_HAL_Driver/Src\stm32l4xx_hal_spi.c ****   }
1290:E:/LiteOS/LiteOS_Lab/drivers/third_party/ST/STM32L4xx_HAL_Driver/Src\stm32l4xx_hal_spi.c **** 
1291:E:/LiteOS/LiteOS_Lab/drivers/third_party/ST/STM32L4xx_HAL_Driver/Src\stm32l4xx_hal_spi.c ****   /* Process Locked */
1292:E:/LiteOS/LiteOS_Lab/drivers/third_party/ST/STM32L4xx_HAL_Driver/Src\stm32l4xx_hal_spi.c ****   __HAL_LOCK(hspi);
 2071              		.loc 1 1292 0
 2072 003c FB68     		ldr	r3, [r7, #12]
 2073 003e 93F85C30 		ldrb	r3, [r3, #92]	@ zero_extendqisi2
 2074 0042 012B     		cmp	r3, #1
 2075 0044 01D1     		bne	.L118
 2076              		.loc 1 1292 0 is_stmt 0 discriminator 1
 2077 0046 0223     		movs	r3, #2
 2078 0048 7AE0     		b	.L117
 2079              	.L118:
 2080              		.loc 1 1292 0 discriminator 2
ARM GAS  C:\Users\user\AppData\Local\Temp\ccvQ1M9B.s 			page 60


 2081 004a FB68     		ldr	r3, [r7, #12]
 2082 004c 0122     		movs	r2, #1
 2083 004e 83F85C20 		strb	r2, [r3, #92]
1293:E:/LiteOS/LiteOS_Lab/drivers/third_party/ST/STM32L4xx_HAL_Driver/Src\stm32l4xx_hal_spi.c **** 
1294:E:/LiteOS/LiteOS_Lab/drivers/third_party/ST/STM32L4xx_HAL_Driver/Src\stm32l4xx_hal_spi.c ****   if (hspi->State != HAL_SPI_STATE_READY)
 2084              		.loc 1 1294 0 is_stmt 1 discriminator 2
 2085 0052 FB68     		ldr	r3, [r7, #12]
 2086 0054 93F85D30 		ldrb	r3, [r3, #93]
 2087 0058 DBB2     		uxtb	r3, r3
 2088 005a 012B     		cmp	r3, #1
 2089 005c 02D0     		beq	.L119
1295:E:/LiteOS/LiteOS_Lab/drivers/third_party/ST/STM32L4xx_HAL_Driver/Src\stm32l4xx_hal_spi.c ****   {
1296:E:/LiteOS/LiteOS_Lab/drivers/third_party/ST/STM32L4xx_HAL_Driver/Src\stm32l4xx_hal_spi.c ****     errorcode = HAL_BUSY;
 2090              		.loc 1 1296 0
 2091 005e 0223     		movs	r3, #2
 2092 0060 FB75     		strb	r3, [r7, #23]
1297:E:/LiteOS/LiteOS_Lab/drivers/third_party/ST/STM32L4xx_HAL_Driver/Src\stm32l4xx_hal_spi.c ****     goto error;
 2093              		.loc 1 1297 0
 2094 0062 68E0     		b	.L120
 2095              	.L119:
1298:E:/LiteOS/LiteOS_Lab/drivers/third_party/ST/STM32L4xx_HAL_Driver/Src\stm32l4xx_hal_spi.c ****   }
1299:E:/LiteOS/LiteOS_Lab/drivers/third_party/ST/STM32L4xx_HAL_Driver/Src\stm32l4xx_hal_spi.c **** 
1300:E:/LiteOS/LiteOS_Lab/drivers/third_party/ST/STM32L4xx_HAL_Driver/Src\stm32l4xx_hal_spi.c ****   if ((pData == NULL) || (Size == 0U))
 2096              		.loc 1 1300 0
 2097 0064 BB68     		ldr	r3, [r7, #8]
 2098 0066 002B     		cmp	r3, #0
 2099 0068 02D0     		beq	.L121
 2100              		.loc 1 1300 0 is_stmt 0 discriminator 1
 2101 006a FB88     		ldrh	r3, [r7, #6]
 2102 006c 002B     		cmp	r3, #0
 2103 006e 02D1     		bne	.L122
 2104              	.L121:
1301:E:/LiteOS/LiteOS_Lab/drivers/third_party/ST/STM32L4xx_HAL_Driver/Src\stm32l4xx_hal_spi.c ****   {
1302:E:/LiteOS/LiteOS_Lab/drivers/third_party/ST/STM32L4xx_HAL_Driver/Src\stm32l4xx_hal_spi.c ****     errorcode = HAL_ERROR;
 2105              		.loc 1 1302 0 is_stmt 1
 2106 0070 0123     		movs	r3, #1
 2107 0072 FB75     		strb	r3, [r7, #23]
1303:E:/LiteOS/LiteOS_Lab/drivers/third_party/ST/STM32L4xx_HAL_Driver/Src\stm32l4xx_hal_spi.c ****     goto error;
 2108              		.loc 1 1303 0
 2109 0074 5FE0     		b	.L120
 2110              	.L122:
1304:E:/LiteOS/LiteOS_Lab/drivers/third_party/ST/STM32L4xx_HAL_Driver/Src\stm32l4xx_hal_spi.c ****   }
1305:E:/LiteOS/LiteOS_Lab/drivers/third_party/ST/STM32L4xx_HAL_Driver/Src\stm32l4xx_hal_spi.c **** 
1306:E:/LiteOS/LiteOS_Lab/drivers/third_party/ST/STM32L4xx_HAL_Driver/Src\stm32l4xx_hal_spi.c ****   /* Set the transaction information */
1307:E:/LiteOS/LiteOS_Lab/drivers/third_party/ST/STM32L4xx_HAL_Driver/Src\stm32l4xx_hal_spi.c ****   hspi->State       = HAL_SPI_STATE_BUSY_RX;
 2111              		.loc 1 1307 0
 2112 0076 FB68     		ldr	r3, [r7, #12]
 2113 0078 0422     		movs	r2, #4
 2114 007a 83F85D20 		strb	r2, [r3, #93]
1308:E:/LiteOS/LiteOS_Lab/drivers/third_party/ST/STM32L4xx_HAL_Driver/Src\stm32l4xx_hal_spi.c ****   hspi->ErrorCode   = HAL_SPI_ERROR_NONE;
 2115              		.loc 1 1308 0
 2116 007e FB68     		ldr	r3, [r7, #12]
 2117 0080 0022     		movs	r2, #0
 2118 0082 1A66     		str	r2, [r3, #96]
1309:E:/LiteOS/LiteOS_Lab/drivers/third_party/ST/STM32L4xx_HAL_Driver/Src\stm32l4xx_hal_spi.c ****   hspi->pRxBuffPtr  = (uint8_t *)pData;
 2119              		.loc 1 1309 0
 2120 0084 FB68     		ldr	r3, [r7, #12]
ARM GAS  C:\Users\user\AppData\Local\Temp\ccvQ1M9B.s 			page 61


 2121 0086 BA68     		ldr	r2, [r7, #8]
 2122 0088 1A64     		str	r2, [r3, #64]
1310:E:/LiteOS/LiteOS_Lab/drivers/third_party/ST/STM32L4xx_HAL_Driver/Src\stm32l4xx_hal_spi.c ****   hspi->RxXferSize  = Size;
 2123              		.loc 1 1310 0
 2124 008a FB68     		ldr	r3, [r7, #12]
 2125 008c FA88     		ldrh	r2, [r7, #6]	@ movhi
 2126 008e A3F84420 		strh	r2, [r3, #68]	@ movhi
1311:E:/LiteOS/LiteOS_Lab/drivers/third_party/ST/STM32L4xx_HAL_Driver/Src\stm32l4xx_hal_spi.c ****   hspi->RxXferCount = Size;
 2127              		.loc 1 1311 0
 2128 0092 FB68     		ldr	r3, [r7, #12]
 2129 0094 FA88     		ldrh	r2, [r7, #6]	@ movhi
 2130 0096 A3F84620 		strh	r2, [r3, #70]	@ movhi
1312:E:/LiteOS/LiteOS_Lab/drivers/third_party/ST/STM32L4xx_HAL_Driver/Src\stm32l4xx_hal_spi.c **** 
1313:E:/LiteOS/LiteOS_Lab/drivers/third_party/ST/STM32L4xx_HAL_Driver/Src\stm32l4xx_hal_spi.c ****   /* Init field not used in handle to zero */
1314:E:/LiteOS/LiteOS_Lab/drivers/third_party/ST/STM32L4xx_HAL_Driver/Src\stm32l4xx_hal_spi.c ****   hspi->pTxBuffPtr  = (uint8_t *)NULL;
 2131              		.loc 1 1314 0
 2132 009a FB68     		ldr	r3, [r7, #12]
 2133 009c 0022     		movs	r2, #0
 2134 009e 9A63     		str	r2, [r3, #56]
1315:E:/LiteOS/LiteOS_Lab/drivers/third_party/ST/STM32L4xx_HAL_Driver/Src\stm32l4xx_hal_spi.c ****   hspi->TxXferSize  = 0U;
 2135              		.loc 1 1315 0
 2136 00a0 FB68     		ldr	r3, [r7, #12]
 2137 00a2 0022     		movs	r2, #0
 2138 00a4 9A87     		strh	r2, [r3, #60]	@ movhi
1316:E:/LiteOS/LiteOS_Lab/drivers/third_party/ST/STM32L4xx_HAL_Driver/Src\stm32l4xx_hal_spi.c ****   hspi->TxXferCount = 0U;
 2139              		.loc 1 1316 0
 2140 00a6 FB68     		ldr	r3, [r7, #12]
 2141 00a8 0022     		movs	r2, #0
 2142 00aa DA87     		strh	r2, [r3, #62]	@ movhi
1317:E:/LiteOS/LiteOS_Lab/drivers/third_party/ST/STM32L4xx_HAL_Driver/Src\stm32l4xx_hal_spi.c ****   hspi->TxISR       = NULL;
 2143              		.loc 1 1317 0
 2144 00ac FB68     		ldr	r3, [r7, #12]
 2145 00ae 0022     		movs	r2, #0
 2146 00b0 1A65     		str	r2, [r3, #80]
1318:E:/LiteOS/LiteOS_Lab/drivers/third_party/ST/STM32L4xx_HAL_Driver/Src\stm32l4xx_hal_spi.c **** 
1319:E:/LiteOS/LiteOS_Lab/drivers/third_party/ST/STM32L4xx_HAL_Driver/Src\stm32l4xx_hal_spi.c ****   /* Check the data size to adapt Rx threshold and the set the function for IT treatment */
1320:E:/LiteOS/LiteOS_Lab/drivers/third_party/ST/STM32L4xx_HAL_Driver/Src\stm32l4xx_hal_spi.c ****   if (hspi->Init.DataSize > SPI_DATASIZE_8BIT)
 2147              		.loc 1 1320 0
 2148 00b2 FB68     		ldr	r3, [r7, #12]
 2149 00b4 DB68     		ldr	r3, [r3, #12]
 2150 00b6 B3F5E06F 		cmp	r3, #1792
 2151 00ba 0BD9     		bls	.L123
1321:E:/LiteOS/LiteOS_Lab/drivers/third_party/ST/STM32L4xx_HAL_Driver/Src\stm32l4xx_hal_spi.c ****   {
1322:E:/LiteOS/LiteOS_Lab/drivers/third_party/ST/STM32L4xx_HAL_Driver/Src\stm32l4xx_hal_spi.c ****     /* Set RX Fifo threshold according the reception data length: 16 bit */
1323:E:/LiteOS/LiteOS_Lab/drivers/third_party/ST/STM32L4xx_HAL_Driver/Src\stm32l4xx_hal_spi.c ****     CLEAR_BIT(hspi->Instance->CR2, SPI_RXFIFO_THRESHOLD);
 2152              		.loc 1 1323 0
 2153 00bc FB68     		ldr	r3, [r7, #12]
 2154 00be 1B68     		ldr	r3, [r3]
 2155 00c0 5A68     		ldr	r2, [r3, #4]
 2156 00c2 FB68     		ldr	r3, [r7, #12]
 2157 00c4 1B68     		ldr	r3, [r3]
 2158 00c6 22F48052 		bic	r2, r2, #4096
 2159 00ca 5A60     		str	r2, [r3, #4]
1324:E:/LiteOS/LiteOS_Lab/drivers/third_party/ST/STM32L4xx_HAL_Driver/Src\stm32l4xx_hal_spi.c ****     hspi->RxISR = SPI_RxISR_16BIT;
 2160              		.loc 1 1324 0
 2161 00cc FB68     		ldr	r3, [r7, #12]
 2162 00ce 1E4A     		ldr	r2, .L127
ARM GAS  C:\Users\user\AppData\Local\Temp\ccvQ1M9B.s 			page 62


 2163 00d0 DA64     		str	r2, [r3, #76]
 2164 00d2 0AE0     		b	.L124
 2165              	.L123:
1325:E:/LiteOS/LiteOS_Lab/drivers/third_party/ST/STM32L4xx_HAL_Driver/Src\stm32l4xx_hal_spi.c ****   }
1326:E:/LiteOS/LiteOS_Lab/drivers/third_party/ST/STM32L4xx_HAL_Driver/Src\stm32l4xx_hal_spi.c ****   else
1327:E:/LiteOS/LiteOS_Lab/drivers/third_party/ST/STM32L4xx_HAL_Driver/Src\stm32l4xx_hal_spi.c ****   {
1328:E:/LiteOS/LiteOS_Lab/drivers/third_party/ST/STM32L4xx_HAL_Driver/Src\stm32l4xx_hal_spi.c ****     /* Set RX Fifo threshold according the reception data length: 8 bit */
1329:E:/LiteOS/LiteOS_Lab/drivers/third_party/ST/STM32L4xx_HAL_Driver/Src\stm32l4xx_hal_spi.c ****     SET_BIT(hspi->Instance->CR2, SPI_RXFIFO_THRESHOLD);
 2166              		.loc 1 1329 0
 2167 00d4 FB68     		ldr	r3, [r7, #12]
 2168 00d6 1B68     		ldr	r3, [r3]
 2169 00d8 5A68     		ldr	r2, [r3, #4]
 2170 00da FB68     		ldr	r3, [r7, #12]
 2171 00dc 1B68     		ldr	r3, [r3]
 2172 00de 42F48052 		orr	r2, r2, #4096
 2173 00e2 5A60     		str	r2, [r3, #4]
1330:E:/LiteOS/LiteOS_Lab/drivers/third_party/ST/STM32L4xx_HAL_Driver/Src\stm32l4xx_hal_spi.c ****     hspi->RxISR = SPI_RxISR_8BIT;
 2174              		.loc 1 1330 0
 2175 00e4 FB68     		ldr	r3, [r7, #12]
 2176 00e6 194A     		ldr	r2, .L127+4
 2177 00e8 DA64     		str	r2, [r3, #76]
 2178              	.L124:
1331:E:/LiteOS/LiteOS_Lab/drivers/third_party/ST/STM32L4xx_HAL_Driver/Src\stm32l4xx_hal_spi.c ****   }
1332:E:/LiteOS/LiteOS_Lab/drivers/third_party/ST/STM32L4xx_HAL_Driver/Src\stm32l4xx_hal_spi.c **** 
1333:E:/LiteOS/LiteOS_Lab/drivers/third_party/ST/STM32L4xx_HAL_Driver/Src\stm32l4xx_hal_spi.c ****   /* Configure communication direction : 1Line */
1334:E:/LiteOS/LiteOS_Lab/drivers/third_party/ST/STM32L4xx_HAL_Driver/Src\stm32l4xx_hal_spi.c ****   if (hspi->Init.Direction == SPI_DIRECTION_1LINE)
 2179              		.loc 1 1334 0
 2180 00ea FB68     		ldr	r3, [r7, #12]
 2181 00ec 9B68     		ldr	r3, [r3, #8]
 2182 00ee B3F5004F 		cmp	r3, #32768
 2183 00f2 07D1     		bne	.L125
1335:E:/LiteOS/LiteOS_Lab/drivers/third_party/ST/STM32L4xx_HAL_Driver/Src\stm32l4xx_hal_spi.c ****   {
1336:E:/LiteOS/LiteOS_Lab/drivers/third_party/ST/STM32L4xx_HAL_Driver/Src\stm32l4xx_hal_spi.c ****     SPI_1LINE_RX(hspi);
 2184              		.loc 1 1336 0
 2185 00f4 FB68     		ldr	r3, [r7, #12]
 2186 00f6 1B68     		ldr	r3, [r3]
 2187 00f8 1A68     		ldr	r2, [r3]
 2188 00fa FB68     		ldr	r3, [r7, #12]
 2189 00fc 1B68     		ldr	r3, [r3]
 2190 00fe 22F48042 		bic	r2, r2, #16384
 2191 0102 1A60     		str	r2, [r3]
 2192              	.L125:
1337:E:/LiteOS/LiteOS_Lab/drivers/third_party/ST/STM32L4xx_HAL_Driver/Src\stm32l4xx_hal_spi.c ****   }
1338:E:/LiteOS/LiteOS_Lab/drivers/third_party/ST/STM32L4xx_HAL_Driver/Src\stm32l4xx_hal_spi.c **** 
1339:E:/LiteOS/LiteOS_Lab/drivers/third_party/ST/STM32L4xx_HAL_Driver/Src\stm32l4xx_hal_spi.c **** #if (USE_SPI_CRC != 0U)
1340:E:/LiteOS/LiteOS_Lab/drivers/third_party/ST/STM32L4xx_HAL_Driver/Src\stm32l4xx_hal_spi.c ****   /* Reset CRC Calculation */
1341:E:/LiteOS/LiteOS_Lab/drivers/third_party/ST/STM32L4xx_HAL_Driver/Src\stm32l4xx_hal_spi.c ****   if (hspi->Init.CRCCalculation == SPI_CRCCALCULATION_ENABLE)
1342:E:/LiteOS/LiteOS_Lab/drivers/third_party/ST/STM32L4xx_HAL_Driver/Src\stm32l4xx_hal_spi.c ****   {
1343:E:/LiteOS/LiteOS_Lab/drivers/third_party/ST/STM32L4xx_HAL_Driver/Src\stm32l4xx_hal_spi.c ****     hspi->CRCSize = 1U;
1344:E:/LiteOS/LiteOS_Lab/drivers/third_party/ST/STM32L4xx_HAL_Driver/Src\stm32l4xx_hal_spi.c ****     if ((hspi->Init.DataSize <= SPI_DATASIZE_8BIT) && (hspi->Init.CRCLength == SPI_CRC_LENGTH_16BIT
1345:E:/LiteOS/LiteOS_Lab/drivers/third_party/ST/STM32L4xx_HAL_Driver/Src\stm32l4xx_hal_spi.c ****     {
1346:E:/LiteOS/LiteOS_Lab/drivers/third_party/ST/STM32L4xx_HAL_Driver/Src\stm32l4xx_hal_spi.c ****       hspi->CRCSize = 2U;
1347:E:/LiteOS/LiteOS_Lab/drivers/third_party/ST/STM32L4xx_HAL_Driver/Src\stm32l4xx_hal_spi.c ****     }
1348:E:/LiteOS/LiteOS_Lab/drivers/third_party/ST/STM32L4xx_HAL_Driver/Src\stm32l4xx_hal_spi.c ****     SPI_RESET_CRC(hspi);
1349:E:/LiteOS/LiteOS_Lab/drivers/third_party/ST/STM32L4xx_HAL_Driver/Src\stm32l4xx_hal_spi.c ****   }
1350:E:/LiteOS/LiteOS_Lab/drivers/third_party/ST/STM32L4xx_HAL_Driver/Src\stm32l4xx_hal_spi.c ****   else
1351:E:/LiteOS/LiteOS_Lab/drivers/third_party/ST/STM32L4xx_HAL_Driver/Src\stm32l4xx_hal_spi.c ****   {
ARM GAS  C:\Users\user\AppData\Local\Temp\ccvQ1M9B.s 			page 63


1352:E:/LiteOS/LiteOS_Lab/drivers/third_party/ST/STM32L4xx_HAL_Driver/Src\stm32l4xx_hal_spi.c ****     hspi->CRCSize = 0U;
1353:E:/LiteOS/LiteOS_Lab/drivers/third_party/ST/STM32L4xx_HAL_Driver/Src\stm32l4xx_hal_spi.c ****   }
1354:E:/LiteOS/LiteOS_Lab/drivers/third_party/ST/STM32L4xx_HAL_Driver/Src\stm32l4xx_hal_spi.c **** #endif /* USE_SPI_CRC */
1355:E:/LiteOS/LiteOS_Lab/drivers/third_party/ST/STM32L4xx_HAL_Driver/Src\stm32l4xx_hal_spi.c **** 
1356:E:/LiteOS/LiteOS_Lab/drivers/third_party/ST/STM32L4xx_HAL_Driver/Src\stm32l4xx_hal_spi.c ****   /* Enable TXE and ERR interrupt */
1357:E:/LiteOS/LiteOS_Lab/drivers/third_party/ST/STM32L4xx_HAL_Driver/Src\stm32l4xx_hal_spi.c ****   __HAL_SPI_ENABLE_IT(hspi, (SPI_IT_RXNE | SPI_IT_ERR));
 2193              		.loc 1 1357 0
 2194 0104 FB68     		ldr	r3, [r7, #12]
 2195 0106 1B68     		ldr	r3, [r3]
 2196 0108 5A68     		ldr	r2, [r3, #4]
 2197 010a FB68     		ldr	r3, [r7, #12]
 2198 010c 1B68     		ldr	r3, [r3]
 2199 010e 42F06002 		orr	r2, r2, #96
 2200 0112 5A60     		str	r2, [r3, #4]
1358:E:/LiteOS/LiteOS_Lab/drivers/third_party/ST/STM32L4xx_HAL_Driver/Src\stm32l4xx_hal_spi.c **** 
1359:E:/LiteOS/LiteOS_Lab/drivers/third_party/ST/STM32L4xx_HAL_Driver/Src\stm32l4xx_hal_spi.c ****   /* Note : The SPI must be enabled after unlocking current process
1360:E:/LiteOS/LiteOS_Lab/drivers/third_party/ST/STM32L4xx_HAL_Driver/Src\stm32l4xx_hal_spi.c ****             to avoid the risk of SPI interrupt handle execution before current
1361:E:/LiteOS/LiteOS_Lab/drivers/third_party/ST/STM32L4xx_HAL_Driver/Src\stm32l4xx_hal_spi.c ****             process unlock */
1362:E:/LiteOS/LiteOS_Lab/drivers/third_party/ST/STM32L4xx_HAL_Driver/Src\stm32l4xx_hal_spi.c **** 
1363:E:/LiteOS/LiteOS_Lab/drivers/third_party/ST/STM32L4xx_HAL_Driver/Src\stm32l4xx_hal_spi.c ****   /* Check if the SPI is already enabled */
1364:E:/LiteOS/LiteOS_Lab/drivers/third_party/ST/STM32L4xx_HAL_Driver/Src\stm32l4xx_hal_spi.c ****   if ((hspi->Instance->CR1 & SPI_CR1_SPE) != SPI_CR1_SPE)
 2201              		.loc 1 1364 0
 2202 0114 FB68     		ldr	r3, [r7, #12]
 2203 0116 1B68     		ldr	r3, [r3]
 2204 0118 1B68     		ldr	r3, [r3]
 2205 011a 03F04003 		and	r3, r3, #64
 2206 011e 402B     		cmp	r3, #64
 2207 0120 08D0     		beq	.L126
1365:E:/LiteOS/LiteOS_Lab/drivers/third_party/ST/STM32L4xx_HAL_Driver/Src\stm32l4xx_hal_spi.c ****   {
1366:E:/LiteOS/LiteOS_Lab/drivers/third_party/ST/STM32L4xx_HAL_Driver/Src\stm32l4xx_hal_spi.c ****     /* Enable SPI peripheral */
1367:E:/LiteOS/LiteOS_Lab/drivers/third_party/ST/STM32L4xx_HAL_Driver/Src\stm32l4xx_hal_spi.c ****     __HAL_SPI_ENABLE(hspi);
 2208              		.loc 1 1367 0
 2209 0122 FB68     		ldr	r3, [r7, #12]
 2210 0124 1B68     		ldr	r3, [r3]
 2211 0126 1A68     		ldr	r2, [r3]
 2212 0128 FB68     		ldr	r3, [r7, #12]
 2213 012a 1B68     		ldr	r3, [r3]
 2214 012c 42F04002 		orr	r2, r2, #64
 2215 0130 1A60     		str	r2, [r3]
 2216 0132 00E0     		b	.L120
 2217              	.L126:
1368:E:/LiteOS/LiteOS_Lab/drivers/third_party/ST/STM32L4xx_HAL_Driver/Src\stm32l4xx_hal_spi.c ****   }
1369:E:/LiteOS/LiteOS_Lab/drivers/third_party/ST/STM32L4xx_HAL_Driver/Src\stm32l4xx_hal_spi.c **** 
1370:E:/LiteOS/LiteOS_Lab/drivers/third_party/ST/STM32L4xx_HAL_Driver/Src\stm32l4xx_hal_spi.c **** error :
 2218              		.loc 1 1370 0
 2219 0134 00BF     		nop
 2220              	.L120:
1371:E:/LiteOS/LiteOS_Lab/drivers/third_party/ST/STM32L4xx_HAL_Driver/Src\stm32l4xx_hal_spi.c ****   /* Process Unlocked */
1372:E:/LiteOS/LiteOS_Lab/drivers/third_party/ST/STM32L4xx_HAL_Driver/Src\stm32l4xx_hal_spi.c ****   __HAL_UNLOCK(hspi);
 2221              		.loc 1 1372 0
 2222 0136 FB68     		ldr	r3, [r7, #12]
 2223 0138 0022     		movs	r2, #0
 2224 013a 83F85C20 		strb	r2, [r3, #92]
1373:E:/LiteOS/LiteOS_Lab/drivers/third_party/ST/STM32L4xx_HAL_Driver/Src\stm32l4xx_hal_spi.c ****   return errorcode;
 2225              		.loc 1 1373 0
 2226 013e FB7D     		ldrb	r3, [r7, #23]	@ zero_extendqisi2
 2227              	.L117:
ARM GAS  C:\Users\user\AppData\Local\Temp\ccvQ1M9B.s 			page 64


1374:E:/LiteOS/LiteOS_Lab/drivers/third_party/ST/STM32L4xx_HAL_Driver/Src\stm32l4xx_hal_spi.c **** }
 2228              		.loc 1 1374 0
 2229 0140 1846     		mov	r0, r3
 2230 0142 1837     		adds	r7, r7, #24
 2231              	.LCFI46:
 2232              		.cfi_def_cfa_offset 8
 2233 0144 BD46     		mov	sp, r7
 2234              	.LCFI47:
 2235              		.cfi_def_cfa_register 13
 2236              		@ sp needed
 2237 0146 80BD     		pop	{r7, pc}
 2238              	.L128:
 2239              		.align	2
 2240              	.L127:
 2241 0148 00000000 		.word	SPI_RxISR_16BIT
 2242 014c 00000000 		.word	SPI_RxISR_8BIT
 2243              		.cfi_endproc
 2244              	.LFE141:
 2246              		.section	.text.HAL_SPI_TransmitReceive_IT,"ax",%progbits
 2247              		.align	1
 2248              		.global	HAL_SPI_TransmitReceive_IT
 2249              		.syntax unified
 2250              		.thumb
 2251              		.thumb_func
 2252              		.fpu fpv4-sp-d16
 2254              	HAL_SPI_TransmitReceive_IT:
 2255              	.LFB142:
1375:E:/LiteOS/LiteOS_Lab/drivers/third_party/ST/STM32L4xx_HAL_Driver/Src\stm32l4xx_hal_spi.c **** 
1376:E:/LiteOS/LiteOS_Lab/drivers/third_party/ST/STM32L4xx_HAL_Driver/Src\stm32l4xx_hal_spi.c **** /**
1377:E:/LiteOS/LiteOS_Lab/drivers/third_party/ST/STM32L4xx_HAL_Driver/Src\stm32l4xx_hal_spi.c ****   * @brief  Transmit and Receive an amount of data in non-blocking mode with Interrupt.
1378:E:/LiteOS/LiteOS_Lab/drivers/third_party/ST/STM32L4xx_HAL_Driver/Src\stm32l4xx_hal_spi.c ****   * @param  hspi pointer to a SPI_HandleTypeDef structure that contains
1379:E:/LiteOS/LiteOS_Lab/drivers/third_party/ST/STM32L4xx_HAL_Driver/Src\stm32l4xx_hal_spi.c ****   *               the configuration information for SPI module.
1380:E:/LiteOS/LiteOS_Lab/drivers/third_party/ST/STM32L4xx_HAL_Driver/Src\stm32l4xx_hal_spi.c ****   * @param  pTxData pointer to transmission data buffer
1381:E:/LiteOS/LiteOS_Lab/drivers/third_party/ST/STM32L4xx_HAL_Driver/Src\stm32l4xx_hal_spi.c ****   * @param  pRxData pointer to reception data buffer
1382:E:/LiteOS/LiteOS_Lab/drivers/third_party/ST/STM32L4xx_HAL_Driver/Src\stm32l4xx_hal_spi.c ****   * @param  Size amount of data to be sent and received
1383:E:/LiteOS/LiteOS_Lab/drivers/third_party/ST/STM32L4xx_HAL_Driver/Src\stm32l4xx_hal_spi.c ****   * @retval HAL status
1384:E:/LiteOS/LiteOS_Lab/drivers/third_party/ST/STM32L4xx_HAL_Driver/Src\stm32l4xx_hal_spi.c ****   */
1385:E:/LiteOS/LiteOS_Lab/drivers/third_party/ST/STM32L4xx_HAL_Driver/Src\stm32l4xx_hal_spi.c **** HAL_StatusTypeDef HAL_SPI_TransmitReceive_IT(SPI_HandleTypeDef *hspi, uint8_t *pTxData, uint8_t *pR
1386:E:/LiteOS/LiteOS_Lab/drivers/third_party/ST/STM32L4xx_HAL_Driver/Src\stm32l4xx_hal_spi.c **** {
 2256              		.loc 1 1386 0
 2257              		.cfi_startproc
 2258              		@ args = 0, pretend = 0, frame = 32
 2259              		@ frame_needed = 1, uses_anonymous_args = 0
 2260              		@ link register save eliminated.
 2261 0000 80B4     		push	{r7}
 2262              	.LCFI48:
 2263              		.cfi_def_cfa_offset 4
 2264              		.cfi_offset 7, -4
 2265 0002 89B0     		sub	sp, sp, #36
 2266              	.LCFI49:
 2267              		.cfi_def_cfa_offset 40
 2268 0004 00AF     		add	r7, sp, #0
 2269              	.LCFI50:
 2270              		.cfi_def_cfa_register 7
 2271 0006 F860     		str	r0, [r7, #12]
 2272 0008 B960     		str	r1, [r7, #8]
 2273 000a 7A60     		str	r2, [r7, #4]
ARM GAS  C:\Users\user\AppData\Local\Temp\ccvQ1M9B.s 			page 65


 2274 000c 7B80     		strh	r3, [r7, #2]	@ movhi
1387:E:/LiteOS/LiteOS_Lab/drivers/third_party/ST/STM32L4xx_HAL_Driver/Src\stm32l4xx_hal_spi.c ****   uint32_t tmp = 0U, tmp1 = 0U;
 2275              		.loc 1 1387 0
 2276 000e 0023     		movs	r3, #0
 2277 0010 BB61     		str	r3, [r7, #24]
 2278 0012 0023     		movs	r3, #0
 2279 0014 7B61     		str	r3, [r7, #20]
1388:E:/LiteOS/LiteOS_Lab/drivers/third_party/ST/STM32L4xx_HAL_Driver/Src\stm32l4xx_hal_spi.c ****   HAL_StatusTypeDef errorcode = HAL_OK;
 2280              		.loc 1 1388 0
 2281 0016 0023     		movs	r3, #0
 2282 0018 FB77     		strb	r3, [r7, #31]
1389:E:/LiteOS/LiteOS_Lab/drivers/third_party/ST/STM32L4xx_HAL_Driver/Src\stm32l4xx_hal_spi.c **** 
1390:E:/LiteOS/LiteOS_Lab/drivers/third_party/ST/STM32L4xx_HAL_Driver/Src\stm32l4xx_hal_spi.c ****   /* Check Direction parameter */
1391:E:/LiteOS/LiteOS_Lab/drivers/third_party/ST/STM32L4xx_HAL_Driver/Src\stm32l4xx_hal_spi.c ****   assert_param(IS_SPI_DIRECTION_2LINES(hspi->Init.Direction));
1392:E:/LiteOS/LiteOS_Lab/drivers/third_party/ST/STM32L4xx_HAL_Driver/Src\stm32l4xx_hal_spi.c **** 
1393:E:/LiteOS/LiteOS_Lab/drivers/third_party/ST/STM32L4xx_HAL_Driver/Src\stm32l4xx_hal_spi.c ****   /* Process locked */
1394:E:/LiteOS/LiteOS_Lab/drivers/third_party/ST/STM32L4xx_HAL_Driver/Src\stm32l4xx_hal_spi.c ****   __HAL_LOCK(hspi);
 2283              		.loc 1 1394 0
 2284 001a FB68     		ldr	r3, [r7, #12]
 2285 001c 93F85C30 		ldrb	r3, [r3, #92]	@ zero_extendqisi2
 2286 0020 012B     		cmp	r3, #1
 2287 0022 01D1     		bne	.L130
 2288              		.loc 1 1394 0 is_stmt 0 discriminator 1
 2289 0024 0223     		movs	r3, #2
 2290 0026 95E0     		b	.L131
 2291              	.L130:
 2292              		.loc 1 1394 0 discriminator 2
 2293 0028 FB68     		ldr	r3, [r7, #12]
 2294 002a 0122     		movs	r2, #1
 2295 002c 83F85C20 		strb	r2, [r3, #92]
1395:E:/LiteOS/LiteOS_Lab/drivers/third_party/ST/STM32L4xx_HAL_Driver/Src\stm32l4xx_hal_spi.c **** 
1396:E:/LiteOS/LiteOS_Lab/drivers/third_party/ST/STM32L4xx_HAL_Driver/Src\stm32l4xx_hal_spi.c ****   tmp  = hspi->State;
 2296              		.loc 1 1396 0 is_stmt 1 discriminator 2
 2297 0030 FB68     		ldr	r3, [r7, #12]
 2298 0032 93F85D30 		ldrb	r3, [r3, #93]
 2299 0036 DBB2     		uxtb	r3, r3
 2300 0038 BB61     		str	r3, [r7, #24]
1397:E:/LiteOS/LiteOS_Lab/drivers/third_party/ST/STM32L4xx_HAL_Driver/Src\stm32l4xx_hal_spi.c ****   tmp1 = hspi->Init.Mode;
 2301              		.loc 1 1397 0 discriminator 2
 2302 003a FB68     		ldr	r3, [r7, #12]
 2303 003c 5B68     		ldr	r3, [r3, #4]
 2304 003e 7B61     		str	r3, [r7, #20]
1398:E:/LiteOS/LiteOS_Lab/drivers/third_party/ST/STM32L4xx_HAL_Driver/Src\stm32l4xx_hal_spi.c **** 
1399:E:/LiteOS/LiteOS_Lab/drivers/third_party/ST/STM32L4xx_HAL_Driver/Src\stm32l4xx_hal_spi.c ****   if (!((tmp == HAL_SPI_STATE_READY) || \
 2305              		.loc 1 1399 0 discriminator 2
 2306 0040 BB69     		ldr	r3, [r7, #24]
 2307 0042 012B     		cmp	r3, #1
 2308 0044 0DD0     		beq	.L132
 2309              		.loc 1 1399 0 is_stmt 0 discriminator 1
 2310 0046 7B69     		ldr	r3, [r7, #20]
 2311 0048 B3F5827F 		cmp	r3, #260
 2312 004c 06D1     		bne	.L133
1400:E:/LiteOS/LiteOS_Lab/drivers/third_party/ST/STM32L4xx_HAL_Driver/Src\stm32l4xx_hal_spi.c ****         ((tmp1 == SPI_MODE_MASTER) && (hspi->Init.Direction == SPI_DIRECTION_2LINES) && (tmp == HAL
 2313              		.loc 1 1400 0 is_stmt 1
 2314 004e FB68     		ldr	r3, [r7, #12]
 2315 0050 9B68     		ldr	r3, [r3, #8]
 2316 0052 002B     		cmp	r3, #0
ARM GAS  C:\Users\user\AppData\Local\Temp\ccvQ1M9B.s 			page 66


 2317 0054 02D1     		bne	.L133
 2318              		.loc 1 1400 0 is_stmt 0 discriminator 1
 2319 0056 BB69     		ldr	r3, [r7, #24]
 2320 0058 042B     		cmp	r3, #4
 2321 005a 02D0     		beq	.L132
 2322              	.L133:
1401:E:/LiteOS/LiteOS_Lab/drivers/third_party/ST/STM32L4xx_HAL_Driver/Src\stm32l4xx_hal_spi.c ****   {
1402:E:/LiteOS/LiteOS_Lab/drivers/third_party/ST/STM32L4xx_HAL_Driver/Src\stm32l4xx_hal_spi.c ****     errorcode = HAL_BUSY;
 2323              		.loc 1 1402 0 is_stmt 1
 2324 005c 0223     		movs	r3, #2
 2325 005e FB77     		strb	r3, [r7, #31]
1403:E:/LiteOS/LiteOS_Lab/drivers/third_party/ST/STM32L4xx_HAL_Driver/Src\stm32l4xx_hal_spi.c ****     goto error;
 2326              		.loc 1 1403 0
 2327 0060 73E0     		b	.L134
 2328              	.L132:
1404:E:/LiteOS/LiteOS_Lab/drivers/third_party/ST/STM32L4xx_HAL_Driver/Src\stm32l4xx_hal_spi.c ****   }
1405:E:/LiteOS/LiteOS_Lab/drivers/third_party/ST/STM32L4xx_HAL_Driver/Src\stm32l4xx_hal_spi.c **** 
1406:E:/LiteOS/LiteOS_Lab/drivers/third_party/ST/STM32L4xx_HAL_Driver/Src\stm32l4xx_hal_spi.c ****   if ((pTxData == NULL) || (pRxData == NULL) || (Size == 0U))
 2329              		.loc 1 1406 0
 2330 0062 BB68     		ldr	r3, [r7, #8]
 2331 0064 002B     		cmp	r3, #0
 2332 0066 05D0     		beq	.L135
 2333              		.loc 1 1406 0 is_stmt 0 discriminator 1
 2334 0068 7B68     		ldr	r3, [r7, #4]
 2335 006a 002B     		cmp	r3, #0
 2336 006c 02D0     		beq	.L135
 2337              		.loc 1 1406 0 discriminator 2
 2338 006e 7B88     		ldrh	r3, [r7, #2]
 2339 0070 002B     		cmp	r3, #0
 2340 0072 02D1     		bne	.L136
 2341              	.L135:
1407:E:/LiteOS/LiteOS_Lab/drivers/third_party/ST/STM32L4xx_HAL_Driver/Src\stm32l4xx_hal_spi.c ****   {
1408:E:/LiteOS/LiteOS_Lab/drivers/third_party/ST/STM32L4xx_HAL_Driver/Src\stm32l4xx_hal_spi.c ****     errorcode = HAL_ERROR;
 2342              		.loc 1 1408 0 is_stmt 1
 2343 0074 0123     		movs	r3, #1
 2344 0076 FB77     		strb	r3, [r7, #31]
1409:E:/LiteOS/LiteOS_Lab/drivers/third_party/ST/STM32L4xx_HAL_Driver/Src\stm32l4xx_hal_spi.c ****     goto error;
 2345              		.loc 1 1409 0
 2346 0078 67E0     		b	.L134
 2347              	.L136:
1410:E:/LiteOS/LiteOS_Lab/drivers/third_party/ST/STM32L4xx_HAL_Driver/Src\stm32l4xx_hal_spi.c ****   }
1411:E:/LiteOS/LiteOS_Lab/drivers/third_party/ST/STM32L4xx_HAL_Driver/Src\stm32l4xx_hal_spi.c **** 
1412:E:/LiteOS/LiteOS_Lab/drivers/third_party/ST/STM32L4xx_HAL_Driver/Src\stm32l4xx_hal_spi.c ****   /* Don't overwrite in case of HAL_SPI_STATE_BUSY_RX */
1413:E:/LiteOS/LiteOS_Lab/drivers/third_party/ST/STM32L4xx_HAL_Driver/Src\stm32l4xx_hal_spi.c ****   if (hspi->State != HAL_SPI_STATE_BUSY_RX)
 2348              		.loc 1 1413 0
 2349 007a FB68     		ldr	r3, [r7, #12]
 2350 007c 93F85D30 		ldrb	r3, [r3, #93]
 2351 0080 DBB2     		uxtb	r3, r3
 2352 0082 042B     		cmp	r3, #4
 2353 0084 03D0     		beq	.L137
1414:E:/LiteOS/LiteOS_Lab/drivers/third_party/ST/STM32L4xx_HAL_Driver/Src\stm32l4xx_hal_spi.c ****   {
1415:E:/LiteOS/LiteOS_Lab/drivers/third_party/ST/STM32L4xx_HAL_Driver/Src\stm32l4xx_hal_spi.c ****     hspi->State = HAL_SPI_STATE_BUSY_TX_RX;
 2354              		.loc 1 1415 0
 2355 0086 FB68     		ldr	r3, [r7, #12]
 2356 0088 0522     		movs	r2, #5
 2357 008a 83F85D20 		strb	r2, [r3, #93]
 2358              	.L137:
ARM GAS  C:\Users\user\AppData\Local\Temp\ccvQ1M9B.s 			page 67


1416:E:/LiteOS/LiteOS_Lab/drivers/third_party/ST/STM32L4xx_HAL_Driver/Src\stm32l4xx_hal_spi.c ****   }
1417:E:/LiteOS/LiteOS_Lab/drivers/third_party/ST/STM32L4xx_HAL_Driver/Src\stm32l4xx_hal_spi.c **** 
1418:E:/LiteOS/LiteOS_Lab/drivers/third_party/ST/STM32L4xx_HAL_Driver/Src\stm32l4xx_hal_spi.c ****   /* Set the transaction information */
1419:E:/LiteOS/LiteOS_Lab/drivers/third_party/ST/STM32L4xx_HAL_Driver/Src\stm32l4xx_hal_spi.c ****   hspi->ErrorCode   = HAL_SPI_ERROR_NONE;
 2359              		.loc 1 1419 0
 2360 008e FB68     		ldr	r3, [r7, #12]
 2361 0090 0022     		movs	r2, #0
 2362 0092 1A66     		str	r2, [r3, #96]
1420:E:/LiteOS/LiteOS_Lab/drivers/third_party/ST/STM32L4xx_HAL_Driver/Src\stm32l4xx_hal_spi.c ****   hspi->pTxBuffPtr  = (uint8_t *)pTxData;
 2363              		.loc 1 1420 0
 2364 0094 FB68     		ldr	r3, [r7, #12]
 2365 0096 BA68     		ldr	r2, [r7, #8]
 2366 0098 9A63     		str	r2, [r3, #56]
1421:E:/LiteOS/LiteOS_Lab/drivers/third_party/ST/STM32L4xx_HAL_Driver/Src\stm32l4xx_hal_spi.c ****   hspi->TxXferSize  = Size;
 2367              		.loc 1 1421 0
 2368 009a FB68     		ldr	r3, [r7, #12]
 2369 009c 7A88     		ldrh	r2, [r7, #2]	@ movhi
 2370 009e 9A87     		strh	r2, [r3, #60]	@ movhi
1422:E:/LiteOS/LiteOS_Lab/drivers/third_party/ST/STM32L4xx_HAL_Driver/Src\stm32l4xx_hal_spi.c ****   hspi->TxXferCount = Size;
 2371              		.loc 1 1422 0
 2372 00a0 FB68     		ldr	r3, [r7, #12]
 2373 00a2 7A88     		ldrh	r2, [r7, #2]	@ movhi
 2374 00a4 DA87     		strh	r2, [r3, #62]	@ movhi
1423:E:/LiteOS/LiteOS_Lab/drivers/third_party/ST/STM32L4xx_HAL_Driver/Src\stm32l4xx_hal_spi.c ****   hspi->pRxBuffPtr  = (uint8_t *)pRxData;
 2375              		.loc 1 1423 0
 2376 00a6 FB68     		ldr	r3, [r7, #12]
 2377 00a8 7A68     		ldr	r2, [r7, #4]
 2378 00aa 1A64     		str	r2, [r3, #64]
1424:E:/LiteOS/LiteOS_Lab/drivers/third_party/ST/STM32L4xx_HAL_Driver/Src\stm32l4xx_hal_spi.c ****   hspi->RxXferSize  = Size;
 2379              		.loc 1 1424 0
 2380 00ac FB68     		ldr	r3, [r7, #12]
 2381 00ae 7A88     		ldrh	r2, [r7, #2]	@ movhi
 2382 00b0 A3F84420 		strh	r2, [r3, #68]	@ movhi
1425:E:/LiteOS/LiteOS_Lab/drivers/third_party/ST/STM32L4xx_HAL_Driver/Src\stm32l4xx_hal_spi.c ****   hspi->RxXferCount = Size;
 2383              		.loc 1 1425 0
 2384 00b4 FB68     		ldr	r3, [r7, #12]
 2385 00b6 7A88     		ldrh	r2, [r7, #2]	@ movhi
 2386 00b8 A3F84620 		strh	r2, [r3, #70]	@ movhi
1426:E:/LiteOS/LiteOS_Lab/drivers/third_party/ST/STM32L4xx_HAL_Driver/Src\stm32l4xx_hal_spi.c **** 
1427:E:/LiteOS/LiteOS_Lab/drivers/third_party/ST/STM32L4xx_HAL_Driver/Src\stm32l4xx_hal_spi.c ****   /* Set the function for IT treatment */
1428:E:/LiteOS/LiteOS_Lab/drivers/third_party/ST/STM32L4xx_HAL_Driver/Src\stm32l4xx_hal_spi.c ****   if (hspi->Init.DataSize > SPI_DATASIZE_8BIT)
 2387              		.loc 1 1428 0
 2388 00bc FB68     		ldr	r3, [r7, #12]
 2389 00be DB68     		ldr	r3, [r3, #12]
 2390 00c0 B3F5E06F 		cmp	r3, #1792
 2391 00c4 06D9     		bls	.L138
1429:E:/LiteOS/LiteOS_Lab/drivers/third_party/ST/STM32L4xx_HAL_Driver/Src\stm32l4xx_hal_spi.c ****   {
1430:E:/LiteOS/LiteOS_Lab/drivers/third_party/ST/STM32L4xx_HAL_Driver/Src\stm32l4xx_hal_spi.c ****     hspi->RxISR     = SPI_2linesRxISR_16BIT;
 2392              		.loc 1 1430 0
 2393 00c6 FB68     		ldr	r3, [r7, #12]
 2394 00c8 254A     		ldr	r2, .L144
 2395 00ca DA64     		str	r2, [r3, #76]
1431:E:/LiteOS/LiteOS_Lab/drivers/third_party/ST/STM32L4xx_HAL_Driver/Src\stm32l4xx_hal_spi.c ****     hspi->TxISR     = SPI_2linesTxISR_16BIT;
 2396              		.loc 1 1431 0
 2397 00cc FB68     		ldr	r3, [r7, #12]
 2398 00ce 254A     		ldr	r2, .L144+4
 2399 00d0 1A65     		str	r2, [r3, #80]
ARM GAS  C:\Users\user\AppData\Local\Temp\ccvQ1M9B.s 			page 68


 2400 00d2 05E0     		b	.L139
 2401              	.L138:
1432:E:/LiteOS/LiteOS_Lab/drivers/third_party/ST/STM32L4xx_HAL_Driver/Src\stm32l4xx_hal_spi.c ****   }
1433:E:/LiteOS/LiteOS_Lab/drivers/third_party/ST/STM32L4xx_HAL_Driver/Src\stm32l4xx_hal_spi.c ****   else
1434:E:/LiteOS/LiteOS_Lab/drivers/third_party/ST/STM32L4xx_HAL_Driver/Src\stm32l4xx_hal_spi.c ****   {
1435:E:/LiteOS/LiteOS_Lab/drivers/third_party/ST/STM32L4xx_HAL_Driver/Src\stm32l4xx_hal_spi.c ****     hspi->RxISR     = SPI_2linesRxISR_8BIT;
 2402              		.loc 1 1435 0
 2403 00d4 FB68     		ldr	r3, [r7, #12]
 2404 00d6 244A     		ldr	r2, .L144+8
 2405 00d8 DA64     		str	r2, [r3, #76]
1436:E:/LiteOS/LiteOS_Lab/drivers/third_party/ST/STM32L4xx_HAL_Driver/Src\stm32l4xx_hal_spi.c ****     hspi->TxISR     = SPI_2linesTxISR_8BIT;
 2406              		.loc 1 1436 0
 2407 00da FB68     		ldr	r3, [r7, #12]
 2408 00dc 234A     		ldr	r2, .L144+12
 2409 00de 1A65     		str	r2, [r3, #80]
 2410              	.L139:
1437:E:/LiteOS/LiteOS_Lab/drivers/third_party/ST/STM32L4xx_HAL_Driver/Src\stm32l4xx_hal_spi.c ****   }
1438:E:/LiteOS/LiteOS_Lab/drivers/third_party/ST/STM32L4xx_HAL_Driver/Src\stm32l4xx_hal_spi.c **** 
1439:E:/LiteOS/LiteOS_Lab/drivers/third_party/ST/STM32L4xx_HAL_Driver/Src\stm32l4xx_hal_spi.c **** #if (USE_SPI_CRC != 0U)
1440:E:/LiteOS/LiteOS_Lab/drivers/third_party/ST/STM32L4xx_HAL_Driver/Src\stm32l4xx_hal_spi.c ****   /* Reset CRC Calculation */
1441:E:/LiteOS/LiteOS_Lab/drivers/third_party/ST/STM32L4xx_HAL_Driver/Src\stm32l4xx_hal_spi.c ****   if (hspi->Init.CRCCalculation == SPI_CRCCALCULATION_ENABLE)
1442:E:/LiteOS/LiteOS_Lab/drivers/third_party/ST/STM32L4xx_HAL_Driver/Src\stm32l4xx_hal_spi.c ****   {
1443:E:/LiteOS/LiteOS_Lab/drivers/third_party/ST/STM32L4xx_HAL_Driver/Src\stm32l4xx_hal_spi.c ****     hspi->CRCSize = 1U;
1444:E:/LiteOS/LiteOS_Lab/drivers/third_party/ST/STM32L4xx_HAL_Driver/Src\stm32l4xx_hal_spi.c ****     if ((hspi->Init.DataSize <= SPI_DATASIZE_8BIT) && (hspi->Init.CRCLength == SPI_CRC_LENGTH_16BIT
1445:E:/LiteOS/LiteOS_Lab/drivers/third_party/ST/STM32L4xx_HAL_Driver/Src\stm32l4xx_hal_spi.c ****     {
1446:E:/LiteOS/LiteOS_Lab/drivers/third_party/ST/STM32L4xx_HAL_Driver/Src\stm32l4xx_hal_spi.c ****       hspi->CRCSize = 2U;
1447:E:/LiteOS/LiteOS_Lab/drivers/third_party/ST/STM32L4xx_HAL_Driver/Src\stm32l4xx_hal_spi.c ****     }
1448:E:/LiteOS/LiteOS_Lab/drivers/third_party/ST/STM32L4xx_HAL_Driver/Src\stm32l4xx_hal_spi.c ****     SPI_RESET_CRC(hspi);
1449:E:/LiteOS/LiteOS_Lab/drivers/third_party/ST/STM32L4xx_HAL_Driver/Src\stm32l4xx_hal_spi.c ****   }
1450:E:/LiteOS/LiteOS_Lab/drivers/third_party/ST/STM32L4xx_HAL_Driver/Src\stm32l4xx_hal_spi.c ****   else
1451:E:/LiteOS/LiteOS_Lab/drivers/third_party/ST/STM32L4xx_HAL_Driver/Src\stm32l4xx_hal_spi.c ****   {
1452:E:/LiteOS/LiteOS_Lab/drivers/third_party/ST/STM32L4xx_HAL_Driver/Src\stm32l4xx_hal_spi.c ****     hspi->CRCSize = 0U;
1453:E:/LiteOS/LiteOS_Lab/drivers/third_party/ST/STM32L4xx_HAL_Driver/Src\stm32l4xx_hal_spi.c ****   }
1454:E:/LiteOS/LiteOS_Lab/drivers/third_party/ST/STM32L4xx_HAL_Driver/Src\stm32l4xx_hal_spi.c **** #endif /* USE_SPI_CRC */
1455:E:/LiteOS/LiteOS_Lab/drivers/third_party/ST/STM32L4xx_HAL_Driver/Src\stm32l4xx_hal_spi.c **** 
1456:E:/LiteOS/LiteOS_Lab/drivers/third_party/ST/STM32L4xx_HAL_Driver/Src\stm32l4xx_hal_spi.c ****   /* Check if packing mode is enabled and if there is more than 2 data to receive */
1457:E:/LiteOS/LiteOS_Lab/drivers/third_party/ST/STM32L4xx_HAL_Driver/Src\stm32l4xx_hal_spi.c ****   if ((hspi->Init.DataSize > SPI_DATASIZE_8BIT) || (hspi->RxXferCount >= 2U))
 2411              		.loc 1 1457 0
 2412 00e0 FB68     		ldr	r3, [r7, #12]
 2413 00e2 DB68     		ldr	r3, [r3, #12]
 2414 00e4 B3F5E06F 		cmp	r3, #1792
 2415 00e8 05D8     		bhi	.L140
 2416              		.loc 1 1457 0 is_stmt 0 discriminator 1
 2417 00ea FB68     		ldr	r3, [r7, #12]
 2418 00ec B3F84630 		ldrh	r3, [r3, #70]	@ movhi
 2419 00f0 9BB2     		uxth	r3, r3
 2420 00f2 012B     		cmp	r3, #1
 2421 00f4 08D9     		bls	.L141
 2422              	.L140:
1458:E:/LiteOS/LiteOS_Lab/drivers/third_party/ST/STM32L4xx_HAL_Driver/Src\stm32l4xx_hal_spi.c ****   {
1459:E:/LiteOS/LiteOS_Lab/drivers/third_party/ST/STM32L4xx_HAL_Driver/Src\stm32l4xx_hal_spi.c ****     /* Set RX Fifo threshold according the reception data length: 16 bit */
1460:E:/LiteOS/LiteOS_Lab/drivers/third_party/ST/STM32L4xx_HAL_Driver/Src\stm32l4xx_hal_spi.c ****     CLEAR_BIT(hspi->Instance->CR2, SPI_RXFIFO_THRESHOLD);
 2423              		.loc 1 1460 0 is_stmt 1
 2424 00f6 FB68     		ldr	r3, [r7, #12]
 2425 00f8 1B68     		ldr	r3, [r3]
 2426 00fa 5A68     		ldr	r2, [r3, #4]
 2427 00fc FB68     		ldr	r3, [r7, #12]
ARM GAS  C:\Users\user\AppData\Local\Temp\ccvQ1M9B.s 			page 69


 2428 00fe 1B68     		ldr	r3, [r3]
 2429 0100 22F48052 		bic	r2, r2, #4096
 2430 0104 5A60     		str	r2, [r3, #4]
 2431 0106 07E0     		b	.L142
 2432              	.L141:
1461:E:/LiteOS/LiteOS_Lab/drivers/third_party/ST/STM32L4xx_HAL_Driver/Src\stm32l4xx_hal_spi.c ****   }
1462:E:/LiteOS/LiteOS_Lab/drivers/third_party/ST/STM32L4xx_HAL_Driver/Src\stm32l4xx_hal_spi.c ****   else
1463:E:/LiteOS/LiteOS_Lab/drivers/third_party/ST/STM32L4xx_HAL_Driver/Src\stm32l4xx_hal_spi.c ****   {
1464:E:/LiteOS/LiteOS_Lab/drivers/third_party/ST/STM32L4xx_HAL_Driver/Src\stm32l4xx_hal_spi.c ****     /* Set RX Fifo threshold according the reception data length: 8 bit */
1465:E:/LiteOS/LiteOS_Lab/drivers/third_party/ST/STM32L4xx_HAL_Driver/Src\stm32l4xx_hal_spi.c ****     SET_BIT(hspi->Instance->CR2, SPI_RXFIFO_THRESHOLD);
 2433              		.loc 1 1465 0
 2434 0108 FB68     		ldr	r3, [r7, #12]
 2435 010a 1B68     		ldr	r3, [r3]
 2436 010c 5A68     		ldr	r2, [r3, #4]
 2437 010e FB68     		ldr	r3, [r7, #12]
 2438 0110 1B68     		ldr	r3, [r3]
 2439 0112 42F48052 		orr	r2, r2, #4096
 2440 0116 5A60     		str	r2, [r3, #4]
 2441              	.L142:
1466:E:/LiteOS/LiteOS_Lab/drivers/third_party/ST/STM32L4xx_HAL_Driver/Src\stm32l4xx_hal_spi.c ****   }
1467:E:/LiteOS/LiteOS_Lab/drivers/third_party/ST/STM32L4xx_HAL_Driver/Src\stm32l4xx_hal_spi.c **** 
1468:E:/LiteOS/LiteOS_Lab/drivers/third_party/ST/STM32L4xx_HAL_Driver/Src\stm32l4xx_hal_spi.c ****   /* Enable TXE, RXNE and ERR interrupt */
1469:E:/LiteOS/LiteOS_Lab/drivers/third_party/ST/STM32L4xx_HAL_Driver/Src\stm32l4xx_hal_spi.c ****   __HAL_SPI_ENABLE_IT(hspi, (SPI_IT_TXE | SPI_IT_RXNE | SPI_IT_ERR));
 2442              		.loc 1 1469 0
 2443 0118 FB68     		ldr	r3, [r7, #12]
 2444 011a 1B68     		ldr	r3, [r3]
 2445 011c 5A68     		ldr	r2, [r3, #4]
 2446 011e FB68     		ldr	r3, [r7, #12]
 2447 0120 1B68     		ldr	r3, [r3]
 2448 0122 42F0E002 		orr	r2, r2, #224
 2449 0126 5A60     		str	r2, [r3, #4]
1470:E:/LiteOS/LiteOS_Lab/drivers/third_party/ST/STM32L4xx_HAL_Driver/Src\stm32l4xx_hal_spi.c **** 
1471:E:/LiteOS/LiteOS_Lab/drivers/third_party/ST/STM32L4xx_HAL_Driver/Src\stm32l4xx_hal_spi.c ****   /* Check if the SPI is already enabled */
1472:E:/LiteOS/LiteOS_Lab/drivers/third_party/ST/STM32L4xx_HAL_Driver/Src\stm32l4xx_hal_spi.c ****   if ((hspi->Instance->CR1 & SPI_CR1_SPE) != SPI_CR1_SPE)
 2450              		.loc 1 1472 0
 2451 0128 FB68     		ldr	r3, [r7, #12]
 2452 012a 1B68     		ldr	r3, [r3]
 2453 012c 1B68     		ldr	r3, [r3]
 2454 012e 03F04003 		and	r3, r3, #64
 2455 0132 402B     		cmp	r3, #64
 2456 0134 08D0     		beq	.L143
1473:E:/LiteOS/LiteOS_Lab/drivers/third_party/ST/STM32L4xx_HAL_Driver/Src\stm32l4xx_hal_spi.c ****   {
1474:E:/LiteOS/LiteOS_Lab/drivers/third_party/ST/STM32L4xx_HAL_Driver/Src\stm32l4xx_hal_spi.c ****     /* Enable SPI peripheral */
1475:E:/LiteOS/LiteOS_Lab/drivers/third_party/ST/STM32L4xx_HAL_Driver/Src\stm32l4xx_hal_spi.c ****     __HAL_SPI_ENABLE(hspi);
 2457              		.loc 1 1475 0
 2458 0136 FB68     		ldr	r3, [r7, #12]
 2459 0138 1B68     		ldr	r3, [r3]
 2460 013a 1A68     		ldr	r2, [r3]
 2461 013c FB68     		ldr	r3, [r7, #12]
 2462 013e 1B68     		ldr	r3, [r3]
 2463 0140 42F04002 		orr	r2, r2, #64
 2464 0144 1A60     		str	r2, [r3]
 2465 0146 00E0     		b	.L134
 2466              	.L143:
1476:E:/LiteOS/LiteOS_Lab/drivers/third_party/ST/STM32L4xx_HAL_Driver/Src\stm32l4xx_hal_spi.c ****   }
1477:E:/LiteOS/LiteOS_Lab/drivers/third_party/ST/STM32L4xx_HAL_Driver/Src\stm32l4xx_hal_spi.c **** 
1478:E:/LiteOS/LiteOS_Lab/drivers/third_party/ST/STM32L4xx_HAL_Driver/Src\stm32l4xx_hal_spi.c **** error :
ARM GAS  C:\Users\user\AppData\Local\Temp\ccvQ1M9B.s 			page 70


 2467              		.loc 1 1478 0
 2468 0148 00BF     		nop
 2469              	.L134:
1479:E:/LiteOS/LiteOS_Lab/drivers/third_party/ST/STM32L4xx_HAL_Driver/Src\stm32l4xx_hal_spi.c ****   /* Process Unlocked */
1480:E:/LiteOS/LiteOS_Lab/drivers/third_party/ST/STM32L4xx_HAL_Driver/Src\stm32l4xx_hal_spi.c ****   __HAL_UNLOCK(hspi);
 2470              		.loc 1 1480 0
 2471 014a FB68     		ldr	r3, [r7, #12]
 2472 014c 0022     		movs	r2, #0
 2473 014e 83F85C20 		strb	r2, [r3, #92]
1481:E:/LiteOS/LiteOS_Lab/drivers/third_party/ST/STM32L4xx_HAL_Driver/Src\stm32l4xx_hal_spi.c ****   return errorcode;
 2474              		.loc 1 1481 0
 2475 0152 FB7F     		ldrb	r3, [r7, #31]	@ zero_extendqisi2
 2476              	.L131:
1482:E:/LiteOS/LiteOS_Lab/drivers/third_party/ST/STM32L4xx_HAL_Driver/Src\stm32l4xx_hal_spi.c **** }
 2477              		.loc 1 1482 0
 2478 0154 1846     		mov	r0, r3
 2479 0156 2437     		adds	r7, r7, #36
 2480              	.LCFI51:
 2481              		.cfi_def_cfa_offset 4
 2482 0158 BD46     		mov	sp, r7
 2483              	.LCFI52:
 2484              		.cfi_def_cfa_register 13
 2485              		@ sp needed
 2486 015a 5DF8047B 		ldr	r7, [sp], #4
 2487              	.LCFI53:
 2488              		.cfi_restore 7
 2489              		.cfi_def_cfa_offset 0
 2490 015e 7047     		bx	lr
 2491              	.L145:
 2492              		.align	2
 2493              	.L144:
 2494 0160 00000000 		.word	SPI_2linesRxISR_16BIT
 2495 0164 00000000 		.word	SPI_2linesTxISR_16BIT
 2496 0168 00000000 		.word	SPI_2linesRxISR_8BIT
 2497 016c 00000000 		.word	SPI_2linesTxISR_8BIT
 2498              		.cfi_endproc
 2499              	.LFE142:
 2501              		.section	.text.HAL_SPI_Transmit_DMA,"ax",%progbits
 2502              		.align	1
 2503              		.global	HAL_SPI_Transmit_DMA
 2504              		.syntax unified
 2505              		.thumb
 2506              		.thumb_func
 2507              		.fpu fpv4-sp-d16
 2509              	HAL_SPI_Transmit_DMA:
 2510              	.LFB143:
1483:E:/LiteOS/LiteOS_Lab/drivers/third_party/ST/STM32L4xx_HAL_Driver/Src\stm32l4xx_hal_spi.c **** 
1484:E:/LiteOS/LiteOS_Lab/drivers/third_party/ST/STM32L4xx_HAL_Driver/Src\stm32l4xx_hal_spi.c **** /**
1485:E:/LiteOS/LiteOS_Lab/drivers/third_party/ST/STM32L4xx_HAL_Driver/Src\stm32l4xx_hal_spi.c ****   * @brief  Transmit an amount of data in non-blocking mode with DMA.
1486:E:/LiteOS/LiteOS_Lab/drivers/third_party/ST/STM32L4xx_HAL_Driver/Src\stm32l4xx_hal_spi.c ****   * @param  hspi pointer to a SPI_HandleTypeDef structure that contains
1487:E:/LiteOS/LiteOS_Lab/drivers/third_party/ST/STM32L4xx_HAL_Driver/Src\stm32l4xx_hal_spi.c ****   *               the configuration information for SPI module.
1488:E:/LiteOS/LiteOS_Lab/drivers/third_party/ST/STM32L4xx_HAL_Driver/Src\stm32l4xx_hal_spi.c ****   * @param  pData pointer to data buffer
1489:E:/LiteOS/LiteOS_Lab/drivers/third_party/ST/STM32L4xx_HAL_Driver/Src\stm32l4xx_hal_spi.c ****   * @param  Size amount of data to be sent
1490:E:/LiteOS/LiteOS_Lab/drivers/third_party/ST/STM32L4xx_HAL_Driver/Src\stm32l4xx_hal_spi.c ****   * @retval HAL status
1491:E:/LiteOS/LiteOS_Lab/drivers/third_party/ST/STM32L4xx_HAL_Driver/Src\stm32l4xx_hal_spi.c ****   */
1492:E:/LiteOS/LiteOS_Lab/drivers/third_party/ST/STM32L4xx_HAL_Driver/Src\stm32l4xx_hal_spi.c **** HAL_StatusTypeDef HAL_SPI_Transmit_DMA(SPI_HandleTypeDef *hspi, uint8_t *pData, uint16_t Size)
1493:E:/LiteOS/LiteOS_Lab/drivers/third_party/ST/STM32L4xx_HAL_Driver/Src\stm32l4xx_hal_spi.c **** {
ARM GAS  C:\Users\user\AppData\Local\Temp\ccvQ1M9B.s 			page 71


 2511              		.loc 1 1493 0
 2512              		.cfi_startproc
 2513              		@ args = 0, pretend = 0, frame = 24
 2514              		@ frame_needed = 1, uses_anonymous_args = 0
 2515 0000 80B5     		push	{r7, lr}
 2516              	.LCFI54:
 2517              		.cfi_def_cfa_offset 8
 2518              		.cfi_offset 7, -8
 2519              		.cfi_offset 14, -4
 2520 0002 86B0     		sub	sp, sp, #24
 2521              	.LCFI55:
 2522              		.cfi_def_cfa_offset 32
 2523 0004 00AF     		add	r7, sp, #0
 2524              	.LCFI56:
 2525              		.cfi_def_cfa_register 7
 2526 0006 F860     		str	r0, [r7, #12]
 2527 0008 B960     		str	r1, [r7, #8]
 2528 000a 1346     		mov	r3, r2
 2529 000c FB80     		strh	r3, [r7, #6]	@ movhi
1494:E:/LiteOS/LiteOS_Lab/drivers/third_party/ST/STM32L4xx_HAL_Driver/Src\stm32l4xx_hal_spi.c ****   HAL_StatusTypeDef errorcode = HAL_OK;
 2530              		.loc 1 1494 0
 2531 000e 0023     		movs	r3, #0
 2532 0010 FB75     		strb	r3, [r7, #23]
1495:E:/LiteOS/LiteOS_Lab/drivers/third_party/ST/STM32L4xx_HAL_Driver/Src\stm32l4xx_hal_spi.c **** 
1496:E:/LiteOS/LiteOS_Lab/drivers/third_party/ST/STM32L4xx_HAL_Driver/Src\stm32l4xx_hal_spi.c ****   /* Check tx dma handle */
1497:E:/LiteOS/LiteOS_Lab/drivers/third_party/ST/STM32L4xx_HAL_Driver/Src\stm32l4xx_hal_spi.c ****   assert_param(IS_SPI_DMA_HANDLE(hspi->hdmatx));
1498:E:/LiteOS/LiteOS_Lab/drivers/third_party/ST/STM32L4xx_HAL_Driver/Src\stm32l4xx_hal_spi.c **** 
1499:E:/LiteOS/LiteOS_Lab/drivers/third_party/ST/STM32L4xx_HAL_Driver/Src\stm32l4xx_hal_spi.c ****   /* Check Direction parameter */
1500:E:/LiteOS/LiteOS_Lab/drivers/third_party/ST/STM32L4xx_HAL_Driver/Src\stm32l4xx_hal_spi.c ****   assert_param(IS_SPI_DIRECTION_2LINES_OR_1LINE(hspi->Init.Direction));
1501:E:/LiteOS/LiteOS_Lab/drivers/third_party/ST/STM32L4xx_HAL_Driver/Src\stm32l4xx_hal_spi.c **** 
1502:E:/LiteOS/LiteOS_Lab/drivers/third_party/ST/STM32L4xx_HAL_Driver/Src\stm32l4xx_hal_spi.c ****   /* Process Locked */
1503:E:/LiteOS/LiteOS_Lab/drivers/third_party/ST/STM32L4xx_HAL_Driver/Src\stm32l4xx_hal_spi.c ****   __HAL_LOCK(hspi);
 2533              		.loc 1 1503 0
 2534 0012 FB68     		ldr	r3, [r7, #12]
 2535 0014 93F85C30 		ldrb	r3, [r3, #92]	@ zero_extendqisi2
 2536 0018 012B     		cmp	r3, #1
 2537 001a 01D1     		bne	.L147
 2538              		.loc 1 1503 0 is_stmt 0 discriminator 1
 2539 001c 0223     		movs	r3, #2
 2540 001e C0E0     		b	.L148
 2541              	.L147:
 2542              		.loc 1 1503 0 discriminator 2
 2543 0020 FB68     		ldr	r3, [r7, #12]
 2544 0022 0122     		movs	r2, #1
 2545 0024 83F85C20 		strb	r2, [r3, #92]
1504:E:/LiteOS/LiteOS_Lab/drivers/third_party/ST/STM32L4xx_HAL_Driver/Src\stm32l4xx_hal_spi.c **** 
1505:E:/LiteOS/LiteOS_Lab/drivers/third_party/ST/STM32L4xx_HAL_Driver/Src\stm32l4xx_hal_spi.c ****   if (hspi->State != HAL_SPI_STATE_READY)
 2546              		.loc 1 1505 0 is_stmt 1 discriminator 2
 2547 0028 FB68     		ldr	r3, [r7, #12]
 2548 002a 93F85D30 		ldrb	r3, [r3, #93]
 2549 002e DBB2     		uxtb	r3, r3
 2550 0030 012B     		cmp	r3, #1
 2551 0032 02D0     		beq	.L149
1506:E:/LiteOS/LiteOS_Lab/drivers/third_party/ST/STM32L4xx_HAL_Driver/Src\stm32l4xx_hal_spi.c ****   {
1507:E:/LiteOS/LiteOS_Lab/drivers/third_party/ST/STM32L4xx_HAL_Driver/Src\stm32l4xx_hal_spi.c ****     errorcode = HAL_BUSY;
 2552              		.loc 1 1507 0
 2553 0034 0223     		movs	r3, #2
ARM GAS  C:\Users\user\AppData\Local\Temp\ccvQ1M9B.s 			page 72


 2554 0036 FB75     		strb	r3, [r7, #23]
1508:E:/LiteOS/LiteOS_Lab/drivers/third_party/ST/STM32L4xx_HAL_Driver/Src\stm32l4xx_hal_spi.c ****     goto error;
 2555              		.loc 1 1508 0
 2556 0038 AEE0     		b	.L150
 2557              	.L149:
1509:E:/LiteOS/LiteOS_Lab/drivers/third_party/ST/STM32L4xx_HAL_Driver/Src\stm32l4xx_hal_spi.c ****   }
1510:E:/LiteOS/LiteOS_Lab/drivers/third_party/ST/STM32L4xx_HAL_Driver/Src\stm32l4xx_hal_spi.c **** 
1511:E:/LiteOS/LiteOS_Lab/drivers/third_party/ST/STM32L4xx_HAL_Driver/Src\stm32l4xx_hal_spi.c ****   if ((pData == NULL) || (Size == 0U))
 2558              		.loc 1 1511 0
 2559 003a BB68     		ldr	r3, [r7, #8]
 2560 003c 002B     		cmp	r3, #0
 2561 003e 02D0     		beq	.L151
 2562              		.loc 1 1511 0 is_stmt 0 discriminator 1
 2563 0040 FB88     		ldrh	r3, [r7, #6]
 2564 0042 002B     		cmp	r3, #0
 2565 0044 02D1     		bne	.L152
 2566              	.L151:
1512:E:/LiteOS/LiteOS_Lab/drivers/third_party/ST/STM32L4xx_HAL_Driver/Src\stm32l4xx_hal_spi.c ****   {
1513:E:/LiteOS/LiteOS_Lab/drivers/third_party/ST/STM32L4xx_HAL_Driver/Src\stm32l4xx_hal_spi.c ****     errorcode = HAL_ERROR;
 2567              		.loc 1 1513 0 is_stmt 1
 2568 0046 0123     		movs	r3, #1
 2569 0048 FB75     		strb	r3, [r7, #23]
1514:E:/LiteOS/LiteOS_Lab/drivers/third_party/ST/STM32L4xx_HAL_Driver/Src\stm32l4xx_hal_spi.c ****     goto error;
 2570              		.loc 1 1514 0
 2571 004a A5E0     		b	.L150
 2572              	.L152:
1515:E:/LiteOS/LiteOS_Lab/drivers/third_party/ST/STM32L4xx_HAL_Driver/Src\stm32l4xx_hal_spi.c ****   }
1516:E:/LiteOS/LiteOS_Lab/drivers/third_party/ST/STM32L4xx_HAL_Driver/Src\stm32l4xx_hal_spi.c **** 
1517:E:/LiteOS/LiteOS_Lab/drivers/third_party/ST/STM32L4xx_HAL_Driver/Src\stm32l4xx_hal_spi.c ****   /* Set the transaction information */
1518:E:/LiteOS/LiteOS_Lab/drivers/third_party/ST/STM32L4xx_HAL_Driver/Src\stm32l4xx_hal_spi.c ****   hspi->State       = HAL_SPI_STATE_BUSY_TX;
 2573              		.loc 1 1518 0
 2574 004c FB68     		ldr	r3, [r7, #12]
 2575 004e 0322     		movs	r2, #3
 2576 0050 83F85D20 		strb	r2, [r3, #93]
1519:E:/LiteOS/LiteOS_Lab/drivers/third_party/ST/STM32L4xx_HAL_Driver/Src\stm32l4xx_hal_spi.c ****   hspi->ErrorCode   = HAL_SPI_ERROR_NONE;
 2577              		.loc 1 1519 0
 2578 0054 FB68     		ldr	r3, [r7, #12]
 2579 0056 0022     		movs	r2, #0
 2580 0058 1A66     		str	r2, [r3, #96]
1520:E:/LiteOS/LiteOS_Lab/drivers/third_party/ST/STM32L4xx_HAL_Driver/Src\stm32l4xx_hal_spi.c ****   hspi->pTxBuffPtr  = (uint8_t *)pData;
 2581              		.loc 1 1520 0
 2582 005a FB68     		ldr	r3, [r7, #12]
 2583 005c BA68     		ldr	r2, [r7, #8]
 2584 005e 9A63     		str	r2, [r3, #56]
1521:E:/LiteOS/LiteOS_Lab/drivers/third_party/ST/STM32L4xx_HAL_Driver/Src\stm32l4xx_hal_spi.c ****   hspi->TxXferSize  = Size;
 2585              		.loc 1 1521 0
 2586 0060 FB68     		ldr	r3, [r7, #12]
 2587 0062 FA88     		ldrh	r2, [r7, #6]	@ movhi
 2588 0064 9A87     		strh	r2, [r3, #60]	@ movhi
1522:E:/LiteOS/LiteOS_Lab/drivers/third_party/ST/STM32L4xx_HAL_Driver/Src\stm32l4xx_hal_spi.c ****   hspi->TxXferCount = Size;
 2589              		.loc 1 1522 0
 2590 0066 FB68     		ldr	r3, [r7, #12]
 2591 0068 FA88     		ldrh	r2, [r7, #6]	@ movhi
 2592 006a DA87     		strh	r2, [r3, #62]	@ movhi
1523:E:/LiteOS/LiteOS_Lab/drivers/third_party/ST/STM32L4xx_HAL_Driver/Src\stm32l4xx_hal_spi.c **** 
1524:E:/LiteOS/LiteOS_Lab/drivers/third_party/ST/STM32L4xx_HAL_Driver/Src\stm32l4xx_hal_spi.c ****   /* Init field not used in handle to zero */
1525:E:/LiteOS/LiteOS_Lab/drivers/third_party/ST/STM32L4xx_HAL_Driver/Src\stm32l4xx_hal_spi.c ****   hspi->pRxBuffPtr  = (uint8_t *)NULL;
ARM GAS  C:\Users\user\AppData\Local\Temp\ccvQ1M9B.s 			page 73


 2593              		.loc 1 1525 0
 2594 006c FB68     		ldr	r3, [r7, #12]
 2595 006e 0022     		movs	r2, #0
 2596 0070 1A64     		str	r2, [r3, #64]
1526:E:/LiteOS/LiteOS_Lab/drivers/third_party/ST/STM32L4xx_HAL_Driver/Src\stm32l4xx_hal_spi.c ****   hspi->TxISR       = NULL;
 2597              		.loc 1 1526 0
 2598 0072 FB68     		ldr	r3, [r7, #12]
 2599 0074 0022     		movs	r2, #0
 2600 0076 1A65     		str	r2, [r3, #80]
1527:E:/LiteOS/LiteOS_Lab/drivers/third_party/ST/STM32L4xx_HAL_Driver/Src\stm32l4xx_hal_spi.c ****   hspi->RxISR       = NULL;
 2601              		.loc 1 1527 0
 2602 0078 FB68     		ldr	r3, [r7, #12]
 2603 007a 0022     		movs	r2, #0
 2604 007c DA64     		str	r2, [r3, #76]
1528:E:/LiteOS/LiteOS_Lab/drivers/third_party/ST/STM32L4xx_HAL_Driver/Src\stm32l4xx_hal_spi.c ****   hspi->RxXferSize  = 0U;
 2605              		.loc 1 1528 0
 2606 007e FB68     		ldr	r3, [r7, #12]
 2607 0080 0022     		movs	r2, #0
 2608 0082 A3F84420 		strh	r2, [r3, #68]	@ movhi
1529:E:/LiteOS/LiteOS_Lab/drivers/third_party/ST/STM32L4xx_HAL_Driver/Src\stm32l4xx_hal_spi.c ****   hspi->RxXferCount = 0U;
 2609              		.loc 1 1529 0
 2610 0086 FB68     		ldr	r3, [r7, #12]
 2611 0088 0022     		movs	r2, #0
 2612 008a A3F84620 		strh	r2, [r3, #70]	@ movhi
1530:E:/LiteOS/LiteOS_Lab/drivers/third_party/ST/STM32L4xx_HAL_Driver/Src\stm32l4xx_hal_spi.c **** 
1531:E:/LiteOS/LiteOS_Lab/drivers/third_party/ST/STM32L4xx_HAL_Driver/Src\stm32l4xx_hal_spi.c ****   /* Configure communication direction : 1Line */
1532:E:/LiteOS/LiteOS_Lab/drivers/third_party/ST/STM32L4xx_HAL_Driver/Src\stm32l4xx_hal_spi.c ****   if (hspi->Init.Direction == SPI_DIRECTION_1LINE)
 2613              		.loc 1 1532 0
 2614 008e FB68     		ldr	r3, [r7, #12]
 2615 0090 9B68     		ldr	r3, [r3, #8]
 2616 0092 B3F5004F 		cmp	r3, #32768
 2617 0096 07D1     		bne	.L153
1533:E:/LiteOS/LiteOS_Lab/drivers/third_party/ST/STM32L4xx_HAL_Driver/Src\stm32l4xx_hal_spi.c ****   {
1534:E:/LiteOS/LiteOS_Lab/drivers/third_party/ST/STM32L4xx_HAL_Driver/Src\stm32l4xx_hal_spi.c ****     SPI_1LINE_TX(hspi);
 2618              		.loc 1 1534 0
 2619 0098 FB68     		ldr	r3, [r7, #12]
 2620 009a 1B68     		ldr	r3, [r3]
 2621 009c 1A68     		ldr	r2, [r3]
 2622 009e FB68     		ldr	r3, [r7, #12]
 2623 00a0 1B68     		ldr	r3, [r3]
 2624 00a2 42F48042 		orr	r2, r2, #16384
 2625 00a6 1A60     		str	r2, [r3]
 2626              	.L153:
1535:E:/LiteOS/LiteOS_Lab/drivers/third_party/ST/STM32L4xx_HAL_Driver/Src\stm32l4xx_hal_spi.c ****   }
1536:E:/LiteOS/LiteOS_Lab/drivers/third_party/ST/STM32L4xx_HAL_Driver/Src\stm32l4xx_hal_spi.c **** 
1537:E:/LiteOS/LiteOS_Lab/drivers/third_party/ST/STM32L4xx_HAL_Driver/Src\stm32l4xx_hal_spi.c **** #if (USE_SPI_CRC != 0U)
1538:E:/LiteOS/LiteOS_Lab/drivers/third_party/ST/STM32L4xx_HAL_Driver/Src\stm32l4xx_hal_spi.c ****   /* Reset CRC Calculation */
1539:E:/LiteOS/LiteOS_Lab/drivers/third_party/ST/STM32L4xx_HAL_Driver/Src\stm32l4xx_hal_spi.c ****   if (hspi->Init.CRCCalculation == SPI_CRCCALCULATION_ENABLE)
1540:E:/LiteOS/LiteOS_Lab/drivers/third_party/ST/STM32L4xx_HAL_Driver/Src\stm32l4xx_hal_spi.c ****   {
1541:E:/LiteOS/LiteOS_Lab/drivers/third_party/ST/STM32L4xx_HAL_Driver/Src\stm32l4xx_hal_spi.c ****     SPI_RESET_CRC(hspi);
1542:E:/LiteOS/LiteOS_Lab/drivers/third_party/ST/STM32L4xx_HAL_Driver/Src\stm32l4xx_hal_spi.c ****   }
1543:E:/LiteOS/LiteOS_Lab/drivers/third_party/ST/STM32L4xx_HAL_Driver/Src\stm32l4xx_hal_spi.c **** #endif /* USE_SPI_CRC */
1544:E:/LiteOS/LiteOS_Lab/drivers/third_party/ST/STM32L4xx_HAL_Driver/Src\stm32l4xx_hal_spi.c **** 
1545:E:/LiteOS/LiteOS_Lab/drivers/third_party/ST/STM32L4xx_HAL_Driver/Src\stm32l4xx_hal_spi.c ****   /* Set the SPI TxDMA Half transfer complete callback */
1546:E:/LiteOS/LiteOS_Lab/drivers/third_party/ST/STM32L4xx_HAL_Driver/Src\stm32l4xx_hal_spi.c ****   hspi->hdmatx->XferHalfCpltCallback = SPI_DMAHalfTransmitCplt;
 2627              		.loc 1 1546 0
 2628 00a8 FB68     		ldr	r3, [r7, #12]
ARM GAS  C:\Users\user\AppData\Local\Temp\ccvQ1M9B.s 			page 74


 2629 00aa 5B6D     		ldr	r3, [r3, #84]
 2630 00ac 3F4A     		ldr	r2, .L157
 2631 00ae 1A63     		str	r2, [r3, #48]
1547:E:/LiteOS/LiteOS_Lab/drivers/third_party/ST/STM32L4xx_HAL_Driver/Src\stm32l4xx_hal_spi.c **** 
1548:E:/LiteOS/LiteOS_Lab/drivers/third_party/ST/STM32L4xx_HAL_Driver/Src\stm32l4xx_hal_spi.c ****   /* Set the SPI TxDMA transfer complete callback */
1549:E:/LiteOS/LiteOS_Lab/drivers/third_party/ST/STM32L4xx_HAL_Driver/Src\stm32l4xx_hal_spi.c ****   hspi->hdmatx->XferCpltCallback = SPI_DMATransmitCplt;
 2632              		.loc 1 1549 0
 2633 00b0 FB68     		ldr	r3, [r7, #12]
 2634 00b2 5B6D     		ldr	r3, [r3, #84]
 2635 00b4 3E4A     		ldr	r2, .L157+4
 2636 00b6 DA62     		str	r2, [r3, #44]
1550:E:/LiteOS/LiteOS_Lab/drivers/third_party/ST/STM32L4xx_HAL_Driver/Src\stm32l4xx_hal_spi.c **** 
1551:E:/LiteOS/LiteOS_Lab/drivers/third_party/ST/STM32L4xx_HAL_Driver/Src\stm32l4xx_hal_spi.c ****   /* Set the DMA error callback */
1552:E:/LiteOS/LiteOS_Lab/drivers/third_party/ST/STM32L4xx_HAL_Driver/Src\stm32l4xx_hal_spi.c ****   hspi->hdmatx->XferErrorCallback = SPI_DMAError;
 2637              		.loc 1 1552 0
 2638 00b8 FB68     		ldr	r3, [r7, #12]
 2639 00ba 5B6D     		ldr	r3, [r3, #84]
 2640 00bc 3D4A     		ldr	r2, .L157+8
 2641 00be 5A63     		str	r2, [r3, #52]
1553:E:/LiteOS/LiteOS_Lab/drivers/third_party/ST/STM32L4xx_HAL_Driver/Src\stm32l4xx_hal_spi.c **** 
1554:E:/LiteOS/LiteOS_Lab/drivers/third_party/ST/STM32L4xx_HAL_Driver/Src\stm32l4xx_hal_spi.c ****   /* Set the DMA AbortCpltCallback */
1555:E:/LiteOS/LiteOS_Lab/drivers/third_party/ST/STM32L4xx_HAL_Driver/Src\stm32l4xx_hal_spi.c ****   hspi->hdmatx->XferAbortCallback = NULL;
 2642              		.loc 1 1555 0
 2643 00c0 FB68     		ldr	r3, [r7, #12]
 2644 00c2 5B6D     		ldr	r3, [r3, #84]
 2645 00c4 0022     		movs	r2, #0
 2646 00c6 9A63     		str	r2, [r3, #56]
1556:E:/LiteOS/LiteOS_Lab/drivers/third_party/ST/STM32L4xx_HAL_Driver/Src\stm32l4xx_hal_spi.c **** 
1557:E:/LiteOS/LiteOS_Lab/drivers/third_party/ST/STM32L4xx_HAL_Driver/Src\stm32l4xx_hal_spi.c ****   CLEAR_BIT(hspi->Instance->CR2, SPI_CR2_LDMATX);
 2647              		.loc 1 1557 0
 2648 00c8 FB68     		ldr	r3, [r7, #12]
 2649 00ca 1B68     		ldr	r3, [r3]
 2650 00cc 5A68     		ldr	r2, [r3, #4]
 2651 00ce FB68     		ldr	r3, [r7, #12]
 2652 00d0 1B68     		ldr	r3, [r3]
 2653 00d2 22F48042 		bic	r2, r2, #16384
 2654 00d6 5A60     		str	r2, [r3, #4]
1558:E:/LiteOS/LiteOS_Lab/drivers/third_party/ST/STM32L4xx_HAL_Driver/Src\stm32l4xx_hal_spi.c ****   /* Packing mode is enabled only if the DMA setting is HALWORD */
1559:E:/LiteOS/LiteOS_Lab/drivers/third_party/ST/STM32L4xx_HAL_Driver/Src\stm32l4xx_hal_spi.c ****   if ((hspi->Init.DataSize <= SPI_DATASIZE_8BIT) && (hspi->hdmatx->Init.MemDataAlignment == DMA_MDA
 2655              		.loc 1 1559 0
 2656 00d8 FB68     		ldr	r3, [r7, #12]
 2657 00da DB68     		ldr	r3, [r3, #12]
 2658 00dc B3F5E06F 		cmp	r3, #1792
 2659 00e0 2DD8     		bhi	.L154
 2660              		.loc 1 1559 0 is_stmt 0 discriminator 1
 2661 00e2 FB68     		ldr	r3, [r7, #12]
 2662 00e4 5B6D     		ldr	r3, [r3, #84]
 2663 00e6 9B69     		ldr	r3, [r3, #24]
 2664 00e8 B3F5806F 		cmp	r3, #1024
 2665 00ec 27D1     		bne	.L154
1560:E:/LiteOS/LiteOS_Lab/drivers/third_party/ST/STM32L4xx_HAL_Driver/Src\stm32l4xx_hal_spi.c ****   {
1561:E:/LiteOS/LiteOS_Lab/drivers/third_party/ST/STM32L4xx_HAL_Driver/Src\stm32l4xx_hal_spi.c ****     /* Check the even/odd of the data size + crc if enabled */
1562:E:/LiteOS/LiteOS_Lab/drivers/third_party/ST/STM32L4xx_HAL_Driver/Src\stm32l4xx_hal_spi.c ****     if ((hspi->TxXferCount & 0x1U) == 0U)
 2666              		.loc 1 1562 0 is_stmt 1
 2667 00ee FB68     		ldr	r3, [r7, #12]
 2668 00f0 DB8F     		ldrh	r3, [r3, #62]	@ movhi
 2669 00f2 9BB2     		uxth	r3, r3
ARM GAS  C:\Users\user\AppData\Local\Temp\ccvQ1M9B.s 			page 75


 2670 00f4 03F00103 		and	r3, r3, #1
 2671 00f8 002B     		cmp	r3, #0
 2672 00fa 0FD1     		bne	.L155
1563:E:/LiteOS/LiteOS_Lab/drivers/third_party/ST/STM32L4xx_HAL_Driver/Src\stm32l4xx_hal_spi.c ****     {
1564:E:/LiteOS/LiteOS_Lab/drivers/third_party/ST/STM32L4xx_HAL_Driver/Src\stm32l4xx_hal_spi.c ****       CLEAR_BIT(hspi->Instance->CR2, SPI_CR2_LDMATX);
 2673              		.loc 1 1564 0
 2674 00fc FB68     		ldr	r3, [r7, #12]
 2675 00fe 1B68     		ldr	r3, [r3]
 2676 0100 5A68     		ldr	r2, [r3, #4]
 2677 0102 FB68     		ldr	r3, [r7, #12]
 2678 0104 1B68     		ldr	r3, [r3]
 2679 0106 22F48042 		bic	r2, r2, #16384
 2680 010a 5A60     		str	r2, [r3, #4]
1565:E:/LiteOS/LiteOS_Lab/drivers/third_party/ST/STM32L4xx_HAL_Driver/Src\stm32l4xx_hal_spi.c ****       hspi->TxXferCount = (hspi->TxXferCount >> 1U);
 2681              		.loc 1 1565 0
 2682 010c FB68     		ldr	r3, [r7, #12]
 2683 010e DB8F     		ldrh	r3, [r3, #62]	@ movhi
 2684 0110 9BB2     		uxth	r3, r3
 2685 0112 5B08     		lsrs	r3, r3, #1
 2686 0114 9AB2     		uxth	r2, r3
 2687 0116 FB68     		ldr	r3, [r7, #12]
 2688 0118 DA87     		strh	r2, [r3, #62]	@ movhi
 2689 011a 10E0     		b	.L154
 2690              	.L155:
1566:E:/LiteOS/LiteOS_Lab/drivers/third_party/ST/STM32L4xx_HAL_Driver/Src\stm32l4xx_hal_spi.c ****     }
1567:E:/LiteOS/LiteOS_Lab/drivers/third_party/ST/STM32L4xx_HAL_Driver/Src\stm32l4xx_hal_spi.c ****     else
1568:E:/LiteOS/LiteOS_Lab/drivers/third_party/ST/STM32L4xx_HAL_Driver/Src\stm32l4xx_hal_spi.c ****     {
1569:E:/LiteOS/LiteOS_Lab/drivers/third_party/ST/STM32L4xx_HAL_Driver/Src\stm32l4xx_hal_spi.c ****       SET_BIT(hspi->Instance->CR2, SPI_CR2_LDMATX);
 2691              		.loc 1 1569 0
 2692 011c FB68     		ldr	r3, [r7, #12]
 2693 011e 1B68     		ldr	r3, [r3]
 2694 0120 5A68     		ldr	r2, [r3, #4]
 2695 0122 FB68     		ldr	r3, [r7, #12]
 2696 0124 1B68     		ldr	r3, [r3]
 2697 0126 42F48042 		orr	r2, r2, #16384
 2698 012a 5A60     		str	r2, [r3, #4]
1570:E:/LiteOS/LiteOS_Lab/drivers/third_party/ST/STM32L4xx_HAL_Driver/Src\stm32l4xx_hal_spi.c ****       hspi->TxXferCount = (hspi->TxXferCount >> 1U) + 1U;
 2699              		.loc 1 1570 0
 2700 012c FB68     		ldr	r3, [r7, #12]
 2701 012e DB8F     		ldrh	r3, [r3, #62]	@ movhi
 2702 0130 9BB2     		uxth	r3, r3
 2703 0132 5B08     		lsrs	r3, r3, #1
 2704 0134 9BB2     		uxth	r3, r3
 2705 0136 0133     		adds	r3, r3, #1
 2706 0138 9AB2     		uxth	r2, r3
 2707 013a FB68     		ldr	r3, [r7, #12]
 2708 013c DA87     		strh	r2, [r3, #62]	@ movhi
 2709              	.L154:
1571:E:/LiteOS/LiteOS_Lab/drivers/third_party/ST/STM32L4xx_HAL_Driver/Src\stm32l4xx_hal_spi.c ****     }
1572:E:/LiteOS/LiteOS_Lab/drivers/third_party/ST/STM32L4xx_HAL_Driver/Src\stm32l4xx_hal_spi.c ****   }
1573:E:/LiteOS/LiteOS_Lab/drivers/third_party/ST/STM32L4xx_HAL_Driver/Src\stm32l4xx_hal_spi.c **** 
1574:E:/LiteOS/LiteOS_Lab/drivers/third_party/ST/STM32L4xx_HAL_Driver/Src\stm32l4xx_hal_spi.c ****   /* Enable the Tx DMA Stream/Channel */
1575:E:/LiteOS/LiteOS_Lab/drivers/third_party/ST/STM32L4xx_HAL_Driver/Src\stm32l4xx_hal_spi.c ****   HAL_DMA_Start_IT(hspi->hdmatx, (uint32_t)hspi->pTxBuffPtr, (uint32_t)&hspi->Instance->DR, hspi->T
 2710              		.loc 1 1575 0
 2711 013e FB68     		ldr	r3, [r7, #12]
 2712 0140 586D     		ldr	r0, [r3, #84]
 2713 0142 FB68     		ldr	r3, [r7, #12]
ARM GAS  C:\Users\user\AppData\Local\Temp\ccvQ1M9B.s 			page 76


 2714 0144 9B6B     		ldr	r3, [r3, #56]
 2715 0146 1946     		mov	r1, r3
 2716 0148 FB68     		ldr	r3, [r7, #12]
 2717 014a 1B68     		ldr	r3, [r3]
 2718 014c 0C33     		adds	r3, r3, #12
 2719 014e 1A46     		mov	r2, r3
 2720 0150 FB68     		ldr	r3, [r7, #12]
 2721 0152 DB8F     		ldrh	r3, [r3, #62]	@ movhi
 2722 0154 9BB2     		uxth	r3, r3
 2723 0156 FFF7FEFF 		bl	HAL_DMA_Start_IT
1576:E:/LiteOS/LiteOS_Lab/drivers/third_party/ST/STM32L4xx_HAL_Driver/Src\stm32l4xx_hal_spi.c **** 
1577:E:/LiteOS/LiteOS_Lab/drivers/third_party/ST/STM32L4xx_HAL_Driver/Src\stm32l4xx_hal_spi.c ****   /* Check if the SPI is already enabled */
1578:E:/LiteOS/LiteOS_Lab/drivers/third_party/ST/STM32L4xx_HAL_Driver/Src\stm32l4xx_hal_spi.c ****   if ((hspi->Instance->CR1 & SPI_CR1_SPE) != SPI_CR1_SPE)
 2724              		.loc 1 1578 0
 2725 015a FB68     		ldr	r3, [r7, #12]
 2726 015c 1B68     		ldr	r3, [r3]
 2727 015e 1B68     		ldr	r3, [r3]
 2728 0160 03F04003 		and	r3, r3, #64
 2729 0164 402B     		cmp	r3, #64
 2730 0166 07D0     		beq	.L156
1579:E:/LiteOS/LiteOS_Lab/drivers/third_party/ST/STM32L4xx_HAL_Driver/Src\stm32l4xx_hal_spi.c ****   {
1580:E:/LiteOS/LiteOS_Lab/drivers/third_party/ST/STM32L4xx_HAL_Driver/Src\stm32l4xx_hal_spi.c ****     /* Enable SPI peripheral */
1581:E:/LiteOS/LiteOS_Lab/drivers/third_party/ST/STM32L4xx_HAL_Driver/Src\stm32l4xx_hal_spi.c ****     __HAL_SPI_ENABLE(hspi);
 2731              		.loc 1 1581 0
 2732 0168 FB68     		ldr	r3, [r7, #12]
 2733 016a 1B68     		ldr	r3, [r3]
 2734 016c 1A68     		ldr	r2, [r3]
 2735 016e FB68     		ldr	r3, [r7, #12]
 2736 0170 1B68     		ldr	r3, [r3]
 2737 0172 42F04002 		orr	r2, r2, #64
 2738 0176 1A60     		str	r2, [r3]
 2739              	.L156:
1582:E:/LiteOS/LiteOS_Lab/drivers/third_party/ST/STM32L4xx_HAL_Driver/Src\stm32l4xx_hal_spi.c ****   }
1583:E:/LiteOS/LiteOS_Lab/drivers/third_party/ST/STM32L4xx_HAL_Driver/Src\stm32l4xx_hal_spi.c **** 
1584:E:/LiteOS/LiteOS_Lab/drivers/third_party/ST/STM32L4xx_HAL_Driver/Src\stm32l4xx_hal_spi.c ****   /* Enable the SPI Error Interrupt Bit */
1585:E:/LiteOS/LiteOS_Lab/drivers/third_party/ST/STM32L4xx_HAL_Driver/Src\stm32l4xx_hal_spi.c ****   __HAL_SPI_ENABLE_IT(hspi, (SPI_IT_ERR));
 2740              		.loc 1 1585 0
 2741 0178 FB68     		ldr	r3, [r7, #12]
 2742 017a 1B68     		ldr	r3, [r3]
 2743 017c 5A68     		ldr	r2, [r3, #4]
 2744 017e FB68     		ldr	r3, [r7, #12]
 2745 0180 1B68     		ldr	r3, [r3]
 2746 0182 42F02002 		orr	r2, r2, #32
 2747 0186 5A60     		str	r2, [r3, #4]
1586:E:/LiteOS/LiteOS_Lab/drivers/third_party/ST/STM32L4xx_HAL_Driver/Src\stm32l4xx_hal_spi.c **** 
1587:E:/LiteOS/LiteOS_Lab/drivers/third_party/ST/STM32L4xx_HAL_Driver/Src\stm32l4xx_hal_spi.c ****   /* Enable Tx DMA Request */
1588:E:/LiteOS/LiteOS_Lab/drivers/third_party/ST/STM32L4xx_HAL_Driver/Src\stm32l4xx_hal_spi.c ****   SET_BIT(hspi->Instance->CR2, SPI_CR2_TXDMAEN);
 2748              		.loc 1 1588 0
 2749 0188 FB68     		ldr	r3, [r7, #12]
 2750 018a 1B68     		ldr	r3, [r3]
 2751 018c 5A68     		ldr	r2, [r3, #4]
 2752 018e FB68     		ldr	r3, [r7, #12]
 2753 0190 1B68     		ldr	r3, [r3]
 2754 0192 42F00202 		orr	r2, r2, #2
 2755 0196 5A60     		str	r2, [r3, #4]
 2756              	.L150:
1589:E:/LiteOS/LiteOS_Lab/drivers/third_party/ST/STM32L4xx_HAL_Driver/Src\stm32l4xx_hal_spi.c **** 
ARM GAS  C:\Users\user\AppData\Local\Temp\ccvQ1M9B.s 			page 77


1590:E:/LiteOS/LiteOS_Lab/drivers/third_party/ST/STM32L4xx_HAL_Driver/Src\stm32l4xx_hal_spi.c **** error :
1591:E:/LiteOS/LiteOS_Lab/drivers/third_party/ST/STM32L4xx_HAL_Driver/Src\stm32l4xx_hal_spi.c ****   /* Process Unlocked */
1592:E:/LiteOS/LiteOS_Lab/drivers/third_party/ST/STM32L4xx_HAL_Driver/Src\stm32l4xx_hal_spi.c ****   __HAL_UNLOCK(hspi);
 2757              		.loc 1 1592 0
 2758 0198 FB68     		ldr	r3, [r7, #12]
 2759 019a 0022     		movs	r2, #0
 2760 019c 83F85C20 		strb	r2, [r3, #92]
1593:E:/LiteOS/LiteOS_Lab/drivers/third_party/ST/STM32L4xx_HAL_Driver/Src\stm32l4xx_hal_spi.c ****   return errorcode;
 2761              		.loc 1 1593 0
 2762 01a0 FB7D     		ldrb	r3, [r7, #23]	@ zero_extendqisi2
 2763              	.L148:
1594:E:/LiteOS/LiteOS_Lab/drivers/third_party/ST/STM32L4xx_HAL_Driver/Src\stm32l4xx_hal_spi.c **** }
 2764              		.loc 1 1594 0
 2765 01a2 1846     		mov	r0, r3
 2766 01a4 1837     		adds	r7, r7, #24
 2767              	.LCFI57:
 2768              		.cfi_def_cfa_offset 8
 2769 01a6 BD46     		mov	sp, r7
 2770              	.LCFI58:
 2771              		.cfi_def_cfa_register 13
 2772              		@ sp needed
 2773 01a8 80BD     		pop	{r7, pc}
 2774              	.L158:
 2775 01aa 00BF     		.align	2
 2776              	.L157:
 2777 01ac 00000000 		.word	SPI_DMAHalfTransmitCplt
 2778 01b0 00000000 		.word	SPI_DMATransmitCplt
 2779 01b4 00000000 		.word	SPI_DMAError
 2780              		.cfi_endproc
 2781              	.LFE143:
 2783              		.section	.text.HAL_SPI_Receive_DMA,"ax",%progbits
 2784              		.align	1
 2785              		.global	HAL_SPI_Receive_DMA
 2786              		.syntax unified
 2787              		.thumb
 2788              		.thumb_func
 2789              		.fpu fpv4-sp-d16
 2791              	HAL_SPI_Receive_DMA:
 2792              	.LFB144:
1595:E:/LiteOS/LiteOS_Lab/drivers/third_party/ST/STM32L4xx_HAL_Driver/Src\stm32l4xx_hal_spi.c **** 
1596:E:/LiteOS/LiteOS_Lab/drivers/third_party/ST/STM32L4xx_HAL_Driver/Src\stm32l4xx_hal_spi.c **** /**
1597:E:/LiteOS/LiteOS_Lab/drivers/third_party/ST/STM32L4xx_HAL_Driver/Src\stm32l4xx_hal_spi.c ****   * @brief  Receive an amount of data in non-blocking mode with DMA.
1598:E:/LiteOS/LiteOS_Lab/drivers/third_party/ST/STM32L4xx_HAL_Driver/Src\stm32l4xx_hal_spi.c ****   * @note   In case of MASTER mode and SPI_DIRECTION_2LINES direction, hdmatx shall be defined.
1599:E:/LiteOS/LiteOS_Lab/drivers/third_party/ST/STM32L4xx_HAL_Driver/Src\stm32l4xx_hal_spi.c ****   * @param  hspi pointer to a SPI_HandleTypeDef structure that contains
1600:E:/LiteOS/LiteOS_Lab/drivers/third_party/ST/STM32L4xx_HAL_Driver/Src\stm32l4xx_hal_spi.c ****   *               the configuration information for SPI module.
1601:E:/LiteOS/LiteOS_Lab/drivers/third_party/ST/STM32L4xx_HAL_Driver/Src\stm32l4xx_hal_spi.c ****   * @param  pData pointer to data buffer
1602:E:/LiteOS/LiteOS_Lab/drivers/third_party/ST/STM32L4xx_HAL_Driver/Src\stm32l4xx_hal_spi.c ****   * @note   When the CRC feature is enabled the pData Length must be Size + 1.
1603:E:/LiteOS/LiteOS_Lab/drivers/third_party/ST/STM32L4xx_HAL_Driver/Src\stm32l4xx_hal_spi.c ****   * @param  Size amount of data to be sent
1604:E:/LiteOS/LiteOS_Lab/drivers/third_party/ST/STM32L4xx_HAL_Driver/Src\stm32l4xx_hal_spi.c ****   * @retval HAL status
1605:E:/LiteOS/LiteOS_Lab/drivers/third_party/ST/STM32L4xx_HAL_Driver/Src\stm32l4xx_hal_spi.c ****   */
1606:E:/LiteOS/LiteOS_Lab/drivers/third_party/ST/STM32L4xx_HAL_Driver/Src\stm32l4xx_hal_spi.c **** HAL_StatusTypeDef HAL_SPI_Receive_DMA(SPI_HandleTypeDef *hspi, uint8_t *pData, uint16_t Size)
1607:E:/LiteOS/LiteOS_Lab/drivers/third_party/ST/STM32L4xx_HAL_Driver/Src\stm32l4xx_hal_spi.c **** {
 2793              		.loc 1 1607 0
 2794              		.cfi_startproc
 2795              		@ args = 0, pretend = 0, frame = 24
 2796              		@ frame_needed = 1, uses_anonymous_args = 0
 2797 0000 80B5     		push	{r7, lr}
ARM GAS  C:\Users\user\AppData\Local\Temp\ccvQ1M9B.s 			page 78


 2798              	.LCFI59:
 2799              		.cfi_def_cfa_offset 8
 2800              		.cfi_offset 7, -8
 2801              		.cfi_offset 14, -4
 2802 0002 86B0     		sub	sp, sp, #24
 2803              	.LCFI60:
 2804              		.cfi_def_cfa_offset 32
 2805 0004 00AF     		add	r7, sp, #0
 2806              	.LCFI61:
 2807              		.cfi_def_cfa_register 7
 2808 0006 F860     		str	r0, [r7, #12]
 2809 0008 B960     		str	r1, [r7, #8]
 2810 000a 1346     		mov	r3, r2
 2811 000c FB80     		strh	r3, [r7, #6]	@ movhi
1608:E:/LiteOS/LiteOS_Lab/drivers/third_party/ST/STM32L4xx_HAL_Driver/Src\stm32l4xx_hal_spi.c ****   HAL_StatusTypeDef errorcode = HAL_OK;
 2812              		.loc 1 1608 0
 2813 000e 0023     		movs	r3, #0
 2814 0010 FB75     		strb	r3, [r7, #23]
1609:E:/LiteOS/LiteOS_Lab/drivers/third_party/ST/STM32L4xx_HAL_Driver/Src\stm32l4xx_hal_spi.c **** 
1610:E:/LiteOS/LiteOS_Lab/drivers/third_party/ST/STM32L4xx_HAL_Driver/Src\stm32l4xx_hal_spi.c ****   /* Check rx dma handle */
1611:E:/LiteOS/LiteOS_Lab/drivers/third_party/ST/STM32L4xx_HAL_Driver/Src\stm32l4xx_hal_spi.c ****   assert_param(IS_SPI_DMA_HANDLE(hspi->hdmarx));
1612:E:/LiteOS/LiteOS_Lab/drivers/third_party/ST/STM32L4xx_HAL_Driver/Src\stm32l4xx_hal_spi.c **** 
1613:E:/LiteOS/LiteOS_Lab/drivers/third_party/ST/STM32L4xx_HAL_Driver/Src\stm32l4xx_hal_spi.c ****   if ((hspi->Init.Direction == SPI_DIRECTION_2LINES) && (hspi->Init.Mode == SPI_MODE_MASTER))
 2815              		.loc 1 1613 0
 2816 0012 FB68     		ldr	r3, [r7, #12]
 2817 0014 9B68     		ldr	r3, [r3, #8]
 2818 0016 002B     		cmp	r3, #0
 2819 0018 10D1     		bne	.L160
 2820              		.loc 1 1613 0 is_stmt 0 discriminator 1
 2821 001a FB68     		ldr	r3, [r7, #12]
 2822 001c 5B68     		ldr	r3, [r3, #4]
 2823 001e B3F5827F 		cmp	r3, #260
 2824 0022 0BD1     		bne	.L160
1614:E:/LiteOS/LiteOS_Lab/drivers/third_party/ST/STM32L4xx_HAL_Driver/Src\stm32l4xx_hal_spi.c ****   {
1615:E:/LiteOS/LiteOS_Lab/drivers/third_party/ST/STM32L4xx_HAL_Driver/Src\stm32l4xx_hal_spi.c ****     hspi->State = HAL_SPI_STATE_BUSY_RX;
 2825              		.loc 1 1615 0 is_stmt 1
 2826 0024 FB68     		ldr	r3, [r7, #12]
 2827 0026 0422     		movs	r2, #4
 2828 0028 83F85D20 		strb	r2, [r3, #93]
1616:E:/LiteOS/LiteOS_Lab/drivers/third_party/ST/STM32L4xx_HAL_Driver/Src\stm32l4xx_hal_spi.c **** 
1617:E:/LiteOS/LiteOS_Lab/drivers/third_party/ST/STM32L4xx_HAL_Driver/Src\stm32l4xx_hal_spi.c ****     /* Check tx dma handle */
1618:E:/LiteOS/LiteOS_Lab/drivers/third_party/ST/STM32L4xx_HAL_Driver/Src\stm32l4xx_hal_spi.c ****     assert_param(IS_SPI_DMA_HANDLE(hspi->hdmatx));
1619:E:/LiteOS/LiteOS_Lab/drivers/third_party/ST/STM32L4xx_HAL_Driver/Src\stm32l4xx_hal_spi.c **** 
1620:E:/LiteOS/LiteOS_Lab/drivers/third_party/ST/STM32L4xx_HAL_Driver/Src\stm32l4xx_hal_spi.c ****     /* Call transmit-receive function to send Dummy data on Tx line and generate clock on CLK line 
1621:E:/LiteOS/LiteOS_Lab/drivers/third_party/ST/STM32L4xx_HAL_Driver/Src\stm32l4xx_hal_spi.c ****     return HAL_SPI_TransmitReceive_DMA(hspi, pData, pData, Size);
 2829              		.loc 1 1621 0
 2830 002c FB88     		ldrh	r3, [r7, #6]
 2831 002e BA68     		ldr	r2, [r7, #8]
 2832 0030 B968     		ldr	r1, [r7, #8]
 2833 0032 F868     		ldr	r0, [r7, #12]
 2834 0034 FFF7FEFF 		bl	HAL_SPI_TransmitReceive_DMA
 2835 0038 0346     		mov	r3, r0
 2836 003a E3E0     		b	.L161
 2837              	.L160:
1622:E:/LiteOS/LiteOS_Lab/drivers/third_party/ST/STM32L4xx_HAL_Driver/Src\stm32l4xx_hal_spi.c ****   }
1623:E:/LiteOS/LiteOS_Lab/drivers/third_party/ST/STM32L4xx_HAL_Driver/Src\stm32l4xx_hal_spi.c **** 
1624:E:/LiteOS/LiteOS_Lab/drivers/third_party/ST/STM32L4xx_HAL_Driver/Src\stm32l4xx_hal_spi.c ****   /* Process Locked */
ARM GAS  C:\Users\user\AppData\Local\Temp\ccvQ1M9B.s 			page 79


1625:E:/LiteOS/LiteOS_Lab/drivers/third_party/ST/STM32L4xx_HAL_Driver/Src\stm32l4xx_hal_spi.c ****   __HAL_LOCK(hspi);
 2838              		.loc 1 1625 0
 2839 003c FB68     		ldr	r3, [r7, #12]
 2840 003e 93F85C30 		ldrb	r3, [r3, #92]	@ zero_extendqisi2
 2841 0042 012B     		cmp	r3, #1
 2842 0044 01D1     		bne	.L162
 2843              		.loc 1 1625 0 is_stmt 0 discriminator 1
 2844 0046 0223     		movs	r3, #2
 2845 0048 DCE0     		b	.L161
 2846              	.L162:
 2847              		.loc 1 1625 0 discriminator 2
 2848 004a FB68     		ldr	r3, [r7, #12]
 2849 004c 0122     		movs	r2, #1
 2850 004e 83F85C20 		strb	r2, [r3, #92]
1626:E:/LiteOS/LiteOS_Lab/drivers/third_party/ST/STM32L4xx_HAL_Driver/Src\stm32l4xx_hal_spi.c **** 
1627:E:/LiteOS/LiteOS_Lab/drivers/third_party/ST/STM32L4xx_HAL_Driver/Src\stm32l4xx_hal_spi.c ****   if (hspi->State != HAL_SPI_STATE_READY)
 2851              		.loc 1 1627 0 is_stmt 1 discriminator 2
 2852 0052 FB68     		ldr	r3, [r7, #12]
 2853 0054 93F85D30 		ldrb	r3, [r3, #93]
 2854 0058 DBB2     		uxtb	r3, r3
 2855 005a 012B     		cmp	r3, #1
 2856 005c 02D0     		beq	.L163
1628:E:/LiteOS/LiteOS_Lab/drivers/third_party/ST/STM32L4xx_HAL_Driver/Src\stm32l4xx_hal_spi.c ****   {
1629:E:/LiteOS/LiteOS_Lab/drivers/third_party/ST/STM32L4xx_HAL_Driver/Src\stm32l4xx_hal_spi.c ****     errorcode = HAL_BUSY;
 2857              		.loc 1 1629 0
 2858 005e 0223     		movs	r3, #2
 2859 0060 FB75     		strb	r3, [r7, #23]
1630:E:/LiteOS/LiteOS_Lab/drivers/third_party/ST/STM32L4xx_HAL_Driver/Src\stm32l4xx_hal_spi.c ****     goto error;
 2860              		.loc 1 1630 0
 2861 0062 CAE0     		b	.L164
 2862              	.L163:
1631:E:/LiteOS/LiteOS_Lab/drivers/third_party/ST/STM32L4xx_HAL_Driver/Src\stm32l4xx_hal_spi.c ****   }
1632:E:/LiteOS/LiteOS_Lab/drivers/third_party/ST/STM32L4xx_HAL_Driver/Src\stm32l4xx_hal_spi.c **** 
1633:E:/LiteOS/LiteOS_Lab/drivers/third_party/ST/STM32L4xx_HAL_Driver/Src\stm32l4xx_hal_spi.c ****   if ((pData == NULL) || (Size == 0U))
 2863              		.loc 1 1633 0
 2864 0064 BB68     		ldr	r3, [r7, #8]
 2865 0066 002B     		cmp	r3, #0
 2866 0068 02D0     		beq	.L165
 2867              		.loc 1 1633 0 is_stmt 0 discriminator 1
 2868 006a FB88     		ldrh	r3, [r7, #6]
 2869 006c 002B     		cmp	r3, #0
 2870 006e 02D1     		bne	.L166
 2871              	.L165:
1634:E:/LiteOS/LiteOS_Lab/drivers/third_party/ST/STM32L4xx_HAL_Driver/Src\stm32l4xx_hal_spi.c ****   {
1635:E:/LiteOS/LiteOS_Lab/drivers/third_party/ST/STM32L4xx_HAL_Driver/Src\stm32l4xx_hal_spi.c ****     errorcode = HAL_ERROR;
 2872              		.loc 1 1635 0 is_stmt 1
 2873 0070 0123     		movs	r3, #1
 2874 0072 FB75     		strb	r3, [r7, #23]
1636:E:/LiteOS/LiteOS_Lab/drivers/third_party/ST/STM32L4xx_HAL_Driver/Src\stm32l4xx_hal_spi.c ****     goto error;
 2875              		.loc 1 1636 0
 2876 0074 C1E0     		b	.L164
 2877              	.L166:
1637:E:/LiteOS/LiteOS_Lab/drivers/third_party/ST/STM32L4xx_HAL_Driver/Src\stm32l4xx_hal_spi.c ****   }
1638:E:/LiteOS/LiteOS_Lab/drivers/third_party/ST/STM32L4xx_HAL_Driver/Src\stm32l4xx_hal_spi.c **** 
1639:E:/LiteOS/LiteOS_Lab/drivers/third_party/ST/STM32L4xx_HAL_Driver/Src\stm32l4xx_hal_spi.c ****   /* Set the transaction information */
1640:E:/LiteOS/LiteOS_Lab/drivers/third_party/ST/STM32L4xx_HAL_Driver/Src\stm32l4xx_hal_spi.c ****   hspi->State       = HAL_SPI_STATE_BUSY_RX;
 2878              		.loc 1 1640 0
ARM GAS  C:\Users\user\AppData\Local\Temp\ccvQ1M9B.s 			page 80


 2879 0076 FB68     		ldr	r3, [r7, #12]
 2880 0078 0422     		movs	r2, #4
 2881 007a 83F85D20 		strb	r2, [r3, #93]
1641:E:/LiteOS/LiteOS_Lab/drivers/third_party/ST/STM32L4xx_HAL_Driver/Src\stm32l4xx_hal_spi.c ****   hspi->ErrorCode   = HAL_SPI_ERROR_NONE;
 2882              		.loc 1 1641 0
 2883 007e FB68     		ldr	r3, [r7, #12]
 2884 0080 0022     		movs	r2, #0
 2885 0082 1A66     		str	r2, [r3, #96]
1642:E:/LiteOS/LiteOS_Lab/drivers/third_party/ST/STM32L4xx_HAL_Driver/Src\stm32l4xx_hal_spi.c ****   hspi->pRxBuffPtr  = (uint8_t *)pData;
 2886              		.loc 1 1642 0
 2887 0084 FB68     		ldr	r3, [r7, #12]
 2888 0086 BA68     		ldr	r2, [r7, #8]
 2889 0088 1A64     		str	r2, [r3, #64]
1643:E:/LiteOS/LiteOS_Lab/drivers/third_party/ST/STM32L4xx_HAL_Driver/Src\stm32l4xx_hal_spi.c ****   hspi->RxXferSize  = Size;
 2890              		.loc 1 1643 0
 2891 008a FB68     		ldr	r3, [r7, #12]
 2892 008c FA88     		ldrh	r2, [r7, #6]	@ movhi
 2893 008e A3F84420 		strh	r2, [r3, #68]	@ movhi
1644:E:/LiteOS/LiteOS_Lab/drivers/third_party/ST/STM32L4xx_HAL_Driver/Src\stm32l4xx_hal_spi.c ****   hspi->RxXferCount = Size;
 2894              		.loc 1 1644 0
 2895 0092 FB68     		ldr	r3, [r7, #12]
 2896 0094 FA88     		ldrh	r2, [r7, #6]	@ movhi
 2897 0096 A3F84620 		strh	r2, [r3, #70]	@ movhi
1645:E:/LiteOS/LiteOS_Lab/drivers/third_party/ST/STM32L4xx_HAL_Driver/Src\stm32l4xx_hal_spi.c **** 
1646:E:/LiteOS/LiteOS_Lab/drivers/third_party/ST/STM32L4xx_HAL_Driver/Src\stm32l4xx_hal_spi.c ****   /*Init field not used in handle to zero */
1647:E:/LiteOS/LiteOS_Lab/drivers/third_party/ST/STM32L4xx_HAL_Driver/Src\stm32l4xx_hal_spi.c ****   hspi->RxISR       = NULL;
 2898              		.loc 1 1647 0
 2899 009a FB68     		ldr	r3, [r7, #12]
 2900 009c 0022     		movs	r2, #0
 2901 009e DA64     		str	r2, [r3, #76]
1648:E:/LiteOS/LiteOS_Lab/drivers/third_party/ST/STM32L4xx_HAL_Driver/Src\stm32l4xx_hal_spi.c ****   hspi->TxISR       = NULL;
 2902              		.loc 1 1648 0
 2903 00a0 FB68     		ldr	r3, [r7, #12]
 2904 00a2 0022     		movs	r2, #0
 2905 00a4 1A65     		str	r2, [r3, #80]
1649:E:/LiteOS/LiteOS_Lab/drivers/third_party/ST/STM32L4xx_HAL_Driver/Src\stm32l4xx_hal_spi.c ****   hspi->TxXferSize  = 0U;
 2906              		.loc 1 1649 0
 2907 00a6 FB68     		ldr	r3, [r7, #12]
 2908 00a8 0022     		movs	r2, #0
 2909 00aa 9A87     		strh	r2, [r3, #60]	@ movhi
1650:E:/LiteOS/LiteOS_Lab/drivers/third_party/ST/STM32L4xx_HAL_Driver/Src\stm32l4xx_hal_spi.c ****   hspi->TxXferCount = 0U;
 2910              		.loc 1 1650 0
 2911 00ac FB68     		ldr	r3, [r7, #12]
 2912 00ae 0022     		movs	r2, #0
 2913 00b0 DA87     		strh	r2, [r3, #62]	@ movhi
1651:E:/LiteOS/LiteOS_Lab/drivers/third_party/ST/STM32L4xx_HAL_Driver/Src\stm32l4xx_hal_spi.c **** 
1652:E:/LiteOS/LiteOS_Lab/drivers/third_party/ST/STM32L4xx_HAL_Driver/Src\stm32l4xx_hal_spi.c ****   /* Configure communication direction : 1Line */
1653:E:/LiteOS/LiteOS_Lab/drivers/third_party/ST/STM32L4xx_HAL_Driver/Src\stm32l4xx_hal_spi.c ****   if (hspi->Init.Direction == SPI_DIRECTION_1LINE)
 2914              		.loc 1 1653 0
 2915 00b2 FB68     		ldr	r3, [r7, #12]
 2916 00b4 9B68     		ldr	r3, [r3, #8]
 2917 00b6 B3F5004F 		cmp	r3, #32768
 2918 00ba 07D1     		bne	.L167
1654:E:/LiteOS/LiteOS_Lab/drivers/third_party/ST/STM32L4xx_HAL_Driver/Src\stm32l4xx_hal_spi.c ****   {
1655:E:/LiteOS/LiteOS_Lab/drivers/third_party/ST/STM32L4xx_HAL_Driver/Src\stm32l4xx_hal_spi.c ****     SPI_1LINE_RX(hspi);
 2919              		.loc 1 1655 0
 2920 00bc FB68     		ldr	r3, [r7, #12]
ARM GAS  C:\Users\user\AppData\Local\Temp\ccvQ1M9B.s 			page 81


 2921 00be 1B68     		ldr	r3, [r3]
 2922 00c0 1A68     		ldr	r2, [r3]
 2923 00c2 FB68     		ldr	r3, [r7, #12]
 2924 00c4 1B68     		ldr	r3, [r3]
 2925 00c6 22F48042 		bic	r2, r2, #16384
 2926 00ca 1A60     		str	r2, [r3]
 2927              	.L167:
1656:E:/LiteOS/LiteOS_Lab/drivers/third_party/ST/STM32L4xx_HAL_Driver/Src\stm32l4xx_hal_spi.c ****   }
1657:E:/LiteOS/LiteOS_Lab/drivers/third_party/ST/STM32L4xx_HAL_Driver/Src\stm32l4xx_hal_spi.c **** 
1658:E:/LiteOS/LiteOS_Lab/drivers/third_party/ST/STM32L4xx_HAL_Driver/Src\stm32l4xx_hal_spi.c **** #if (USE_SPI_CRC != 0U)
1659:E:/LiteOS/LiteOS_Lab/drivers/third_party/ST/STM32L4xx_HAL_Driver/Src\stm32l4xx_hal_spi.c ****   /* Reset CRC Calculation */
1660:E:/LiteOS/LiteOS_Lab/drivers/third_party/ST/STM32L4xx_HAL_Driver/Src\stm32l4xx_hal_spi.c ****   if (hspi->Init.CRCCalculation == SPI_CRCCALCULATION_ENABLE)
1661:E:/LiteOS/LiteOS_Lab/drivers/third_party/ST/STM32L4xx_HAL_Driver/Src\stm32l4xx_hal_spi.c ****   {
1662:E:/LiteOS/LiteOS_Lab/drivers/third_party/ST/STM32L4xx_HAL_Driver/Src\stm32l4xx_hal_spi.c ****     SPI_RESET_CRC(hspi);
1663:E:/LiteOS/LiteOS_Lab/drivers/third_party/ST/STM32L4xx_HAL_Driver/Src\stm32l4xx_hal_spi.c ****   }
1664:E:/LiteOS/LiteOS_Lab/drivers/third_party/ST/STM32L4xx_HAL_Driver/Src\stm32l4xx_hal_spi.c **** #endif /* USE_SPI_CRC */
1665:E:/LiteOS/LiteOS_Lab/drivers/third_party/ST/STM32L4xx_HAL_Driver/Src\stm32l4xx_hal_spi.c **** 
1666:E:/LiteOS/LiteOS_Lab/drivers/third_party/ST/STM32L4xx_HAL_Driver/Src\stm32l4xx_hal_spi.c **** 
1667:E:/LiteOS/LiteOS_Lab/drivers/third_party/ST/STM32L4xx_HAL_Driver/Src\stm32l4xx_hal_spi.c ****   CLEAR_BIT(hspi->Instance->CR2, SPI_CR2_LDMARX);
 2928              		.loc 1 1667 0
 2929 00cc FB68     		ldr	r3, [r7, #12]
 2930 00ce 1B68     		ldr	r3, [r3]
 2931 00d0 5A68     		ldr	r2, [r3, #4]
 2932 00d2 FB68     		ldr	r3, [r7, #12]
 2933 00d4 1B68     		ldr	r3, [r3]
 2934 00d6 22F40052 		bic	r2, r2, #8192
 2935 00da 5A60     		str	r2, [r3, #4]
1668:E:/LiteOS/LiteOS_Lab/drivers/third_party/ST/STM32L4xx_HAL_Driver/Src\stm32l4xx_hal_spi.c ****   if (hspi->Init.DataSize > SPI_DATASIZE_8BIT)
 2936              		.loc 1 1668 0
 2937 00dc FB68     		ldr	r3, [r7, #12]
 2938 00de DB68     		ldr	r3, [r3, #12]
 2939 00e0 B3F5E06F 		cmp	r3, #1792
 2940 00e4 08D9     		bls	.L168
1669:E:/LiteOS/LiteOS_Lab/drivers/third_party/ST/STM32L4xx_HAL_Driver/Src\stm32l4xx_hal_spi.c ****   {
1670:E:/LiteOS/LiteOS_Lab/drivers/third_party/ST/STM32L4xx_HAL_Driver/Src\stm32l4xx_hal_spi.c ****     /* Set RX Fifo threshold according the reception data length: 16bit */
1671:E:/LiteOS/LiteOS_Lab/drivers/third_party/ST/STM32L4xx_HAL_Driver/Src\stm32l4xx_hal_spi.c ****     CLEAR_BIT(hspi->Instance->CR2, SPI_RXFIFO_THRESHOLD);
 2941              		.loc 1 1671 0
 2942 00e6 FB68     		ldr	r3, [r7, #12]
 2943 00e8 1B68     		ldr	r3, [r3]
 2944 00ea 5A68     		ldr	r2, [r3, #4]
 2945 00ec FB68     		ldr	r3, [r7, #12]
 2946 00ee 1B68     		ldr	r3, [r3]
 2947 00f0 22F48052 		bic	r2, r2, #4096
 2948 00f4 5A60     		str	r2, [r3, #4]
 2949 00f6 42E0     		b	.L169
 2950              	.L168:
1672:E:/LiteOS/LiteOS_Lab/drivers/third_party/ST/STM32L4xx_HAL_Driver/Src\stm32l4xx_hal_spi.c ****   }
1673:E:/LiteOS/LiteOS_Lab/drivers/third_party/ST/STM32L4xx_HAL_Driver/Src\stm32l4xx_hal_spi.c ****   else
1674:E:/LiteOS/LiteOS_Lab/drivers/third_party/ST/STM32L4xx_HAL_Driver/Src\stm32l4xx_hal_spi.c ****   {
1675:E:/LiteOS/LiteOS_Lab/drivers/third_party/ST/STM32L4xx_HAL_Driver/Src\stm32l4xx_hal_spi.c ****     /* Set RX Fifo threshold according the reception data length: 8bit */
1676:E:/LiteOS/LiteOS_Lab/drivers/third_party/ST/STM32L4xx_HAL_Driver/Src\stm32l4xx_hal_spi.c ****     SET_BIT(hspi->Instance->CR2, SPI_RXFIFO_THRESHOLD);
 2951              		.loc 1 1676 0
 2952 00f8 FB68     		ldr	r3, [r7, #12]
 2953 00fa 1B68     		ldr	r3, [r3]
 2954 00fc 5A68     		ldr	r2, [r3, #4]
 2955 00fe FB68     		ldr	r3, [r7, #12]
 2956 0100 1B68     		ldr	r3, [r3]
ARM GAS  C:\Users\user\AppData\Local\Temp\ccvQ1M9B.s 			page 82


 2957 0102 42F48052 		orr	r2, r2, #4096
 2958 0106 5A60     		str	r2, [r3, #4]
1677:E:/LiteOS/LiteOS_Lab/drivers/third_party/ST/STM32L4xx_HAL_Driver/Src\stm32l4xx_hal_spi.c **** 
1678:E:/LiteOS/LiteOS_Lab/drivers/third_party/ST/STM32L4xx_HAL_Driver/Src\stm32l4xx_hal_spi.c ****     if (hspi->hdmarx->Init.MemDataAlignment == DMA_MDATAALIGN_HALFWORD)
 2959              		.loc 1 1678 0
 2960 0108 FB68     		ldr	r3, [r7, #12]
 2961 010a 9B6D     		ldr	r3, [r3, #88]
 2962 010c 9B69     		ldr	r3, [r3, #24]
 2963 010e B3F5806F 		cmp	r3, #1024
 2964 0112 34D1     		bne	.L169
1679:E:/LiteOS/LiteOS_Lab/drivers/third_party/ST/STM32L4xx_HAL_Driver/Src\stm32l4xx_hal_spi.c ****     {
1680:E:/LiteOS/LiteOS_Lab/drivers/third_party/ST/STM32L4xx_HAL_Driver/Src\stm32l4xx_hal_spi.c ****       /* Set RX Fifo threshold according the reception data length: 16bit */
1681:E:/LiteOS/LiteOS_Lab/drivers/third_party/ST/STM32L4xx_HAL_Driver/Src\stm32l4xx_hal_spi.c ****       CLEAR_BIT(hspi->Instance->CR2, SPI_RXFIFO_THRESHOLD);
 2965              		.loc 1 1681 0
 2966 0114 FB68     		ldr	r3, [r7, #12]
 2967 0116 1B68     		ldr	r3, [r3]
 2968 0118 5A68     		ldr	r2, [r3, #4]
 2969 011a FB68     		ldr	r3, [r7, #12]
 2970 011c 1B68     		ldr	r3, [r3]
 2971 011e 22F48052 		bic	r2, r2, #4096
 2972 0122 5A60     		str	r2, [r3, #4]
1682:E:/LiteOS/LiteOS_Lab/drivers/third_party/ST/STM32L4xx_HAL_Driver/Src\stm32l4xx_hal_spi.c **** 
1683:E:/LiteOS/LiteOS_Lab/drivers/third_party/ST/STM32L4xx_HAL_Driver/Src\stm32l4xx_hal_spi.c ****       if ((hspi->RxXferCount & 0x1U) == 0x0U)
 2973              		.loc 1 1683 0
 2974 0124 FB68     		ldr	r3, [r7, #12]
 2975 0126 B3F84630 		ldrh	r3, [r3, #70]	@ movhi
 2976 012a 9BB2     		uxth	r3, r3
 2977 012c 03F00103 		and	r3, r3, #1
 2978 0130 002B     		cmp	r3, #0
 2979 0132 11D1     		bne	.L170
1684:E:/LiteOS/LiteOS_Lab/drivers/third_party/ST/STM32L4xx_HAL_Driver/Src\stm32l4xx_hal_spi.c ****       {
1685:E:/LiteOS/LiteOS_Lab/drivers/third_party/ST/STM32L4xx_HAL_Driver/Src\stm32l4xx_hal_spi.c ****         CLEAR_BIT(hspi->Instance->CR2, SPI_CR2_LDMARX);
 2980              		.loc 1 1685 0
 2981 0134 FB68     		ldr	r3, [r7, #12]
 2982 0136 1B68     		ldr	r3, [r3]
 2983 0138 5A68     		ldr	r2, [r3, #4]
 2984 013a FB68     		ldr	r3, [r7, #12]
 2985 013c 1B68     		ldr	r3, [r3]
 2986 013e 22F40052 		bic	r2, r2, #8192
 2987 0142 5A60     		str	r2, [r3, #4]
1686:E:/LiteOS/LiteOS_Lab/drivers/third_party/ST/STM32L4xx_HAL_Driver/Src\stm32l4xx_hal_spi.c ****         hspi->RxXferCount = hspi->RxXferCount >> 1U;
 2988              		.loc 1 1686 0
 2989 0144 FB68     		ldr	r3, [r7, #12]
 2990 0146 B3F84630 		ldrh	r3, [r3, #70]	@ movhi
 2991 014a 9BB2     		uxth	r3, r3
 2992 014c 5B08     		lsrs	r3, r3, #1
 2993 014e 9AB2     		uxth	r2, r3
 2994 0150 FB68     		ldr	r3, [r7, #12]
 2995 0152 A3F84620 		strh	r2, [r3, #70]	@ movhi
 2996 0156 12E0     		b	.L169
 2997              	.L170:
1687:E:/LiteOS/LiteOS_Lab/drivers/third_party/ST/STM32L4xx_HAL_Driver/Src\stm32l4xx_hal_spi.c ****       }
1688:E:/LiteOS/LiteOS_Lab/drivers/third_party/ST/STM32L4xx_HAL_Driver/Src\stm32l4xx_hal_spi.c ****       else
1689:E:/LiteOS/LiteOS_Lab/drivers/third_party/ST/STM32L4xx_HAL_Driver/Src\stm32l4xx_hal_spi.c ****       {
1690:E:/LiteOS/LiteOS_Lab/drivers/third_party/ST/STM32L4xx_HAL_Driver/Src\stm32l4xx_hal_spi.c ****         SET_BIT(hspi->Instance->CR2, SPI_CR2_LDMARX);
 2998              		.loc 1 1690 0
 2999 0158 FB68     		ldr	r3, [r7, #12]
ARM GAS  C:\Users\user\AppData\Local\Temp\ccvQ1M9B.s 			page 83


 3000 015a 1B68     		ldr	r3, [r3]
 3001 015c 5A68     		ldr	r2, [r3, #4]
 3002 015e FB68     		ldr	r3, [r7, #12]
 3003 0160 1B68     		ldr	r3, [r3]
 3004 0162 42F40052 		orr	r2, r2, #8192
 3005 0166 5A60     		str	r2, [r3, #4]
1691:E:/LiteOS/LiteOS_Lab/drivers/third_party/ST/STM32L4xx_HAL_Driver/Src\stm32l4xx_hal_spi.c ****         hspi->RxXferCount = (hspi->RxXferCount >> 1U) + 1U;
 3006              		.loc 1 1691 0
 3007 0168 FB68     		ldr	r3, [r7, #12]
 3008 016a B3F84630 		ldrh	r3, [r3, #70]	@ movhi
 3009 016e 9BB2     		uxth	r3, r3
 3010 0170 5B08     		lsrs	r3, r3, #1
 3011 0172 9BB2     		uxth	r3, r3
 3012 0174 0133     		adds	r3, r3, #1
 3013 0176 9AB2     		uxth	r2, r3
 3014 0178 FB68     		ldr	r3, [r7, #12]
 3015 017a A3F84620 		strh	r2, [r3, #70]	@ movhi
 3016              	.L169:
1692:E:/LiteOS/LiteOS_Lab/drivers/third_party/ST/STM32L4xx_HAL_Driver/Src\stm32l4xx_hal_spi.c ****       }
1693:E:/LiteOS/LiteOS_Lab/drivers/third_party/ST/STM32L4xx_HAL_Driver/Src\stm32l4xx_hal_spi.c ****     }
1694:E:/LiteOS/LiteOS_Lab/drivers/third_party/ST/STM32L4xx_HAL_Driver/Src\stm32l4xx_hal_spi.c ****   }
1695:E:/LiteOS/LiteOS_Lab/drivers/third_party/ST/STM32L4xx_HAL_Driver/Src\stm32l4xx_hal_spi.c **** 
1696:E:/LiteOS/LiteOS_Lab/drivers/third_party/ST/STM32L4xx_HAL_Driver/Src\stm32l4xx_hal_spi.c ****   /* Set the SPI RxDMA Half transfer complete callback */
1697:E:/LiteOS/LiteOS_Lab/drivers/third_party/ST/STM32L4xx_HAL_Driver/Src\stm32l4xx_hal_spi.c ****   hspi->hdmarx->XferHalfCpltCallback = SPI_DMAHalfReceiveCplt;
 3017              		.loc 1 1697 0
 3018 017e FB68     		ldr	r3, [r7, #12]
 3019 0180 9B6D     		ldr	r3, [r3, #88]
 3020 0182 224A     		ldr	r2, .L172
 3021 0184 1A63     		str	r2, [r3, #48]
1698:E:/LiteOS/LiteOS_Lab/drivers/third_party/ST/STM32L4xx_HAL_Driver/Src\stm32l4xx_hal_spi.c **** 
1699:E:/LiteOS/LiteOS_Lab/drivers/third_party/ST/STM32L4xx_HAL_Driver/Src\stm32l4xx_hal_spi.c ****   /* Set the SPI Rx DMA transfer complete callback */
1700:E:/LiteOS/LiteOS_Lab/drivers/third_party/ST/STM32L4xx_HAL_Driver/Src\stm32l4xx_hal_spi.c ****   hspi->hdmarx->XferCpltCallback = SPI_DMAReceiveCplt;
 3022              		.loc 1 1700 0
 3023 0186 FB68     		ldr	r3, [r7, #12]
 3024 0188 9B6D     		ldr	r3, [r3, #88]
 3025 018a 214A     		ldr	r2, .L172+4
 3026 018c DA62     		str	r2, [r3, #44]
1701:E:/LiteOS/LiteOS_Lab/drivers/third_party/ST/STM32L4xx_HAL_Driver/Src\stm32l4xx_hal_spi.c **** 
1702:E:/LiteOS/LiteOS_Lab/drivers/third_party/ST/STM32L4xx_HAL_Driver/Src\stm32l4xx_hal_spi.c ****   /* Set the DMA error callback */
1703:E:/LiteOS/LiteOS_Lab/drivers/third_party/ST/STM32L4xx_HAL_Driver/Src\stm32l4xx_hal_spi.c ****   hspi->hdmarx->XferErrorCallback = SPI_DMAError;
 3027              		.loc 1 1703 0
 3028 018e FB68     		ldr	r3, [r7, #12]
 3029 0190 9B6D     		ldr	r3, [r3, #88]
 3030 0192 204A     		ldr	r2, .L172+8
 3031 0194 5A63     		str	r2, [r3, #52]
1704:E:/LiteOS/LiteOS_Lab/drivers/third_party/ST/STM32L4xx_HAL_Driver/Src\stm32l4xx_hal_spi.c **** 
1705:E:/LiteOS/LiteOS_Lab/drivers/third_party/ST/STM32L4xx_HAL_Driver/Src\stm32l4xx_hal_spi.c ****   /* Set the DMA AbortCpltCallback */
1706:E:/LiteOS/LiteOS_Lab/drivers/third_party/ST/STM32L4xx_HAL_Driver/Src\stm32l4xx_hal_spi.c ****   hspi->hdmarx->XferAbortCallback = NULL;
 3032              		.loc 1 1706 0
 3033 0196 FB68     		ldr	r3, [r7, #12]
 3034 0198 9B6D     		ldr	r3, [r3, #88]
 3035 019a 0022     		movs	r2, #0
 3036 019c 9A63     		str	r2, [r3, #56]
1707:E:/LiteOS/LiteOS_Lab/drivers/third_party/ST/STM32L4xx_HAL_Driver/Src\stm32l4xx_hal_spi.c **** 
1708:E:/LiteOS/LiteOS_Lab/drivers/third_party/ST/STM32L4xx_HAL_Driver/Src\stm32l4xx_hal_spi.c ****   /* Enable the Rx DMA Stream/Channel  */
1709:E:/LiteOS/LiteOS_Lab/drivers/third_party/ST/STM32L4xx_HAL_Driver/Src\stm32l4xx_hal_spi.c ****   HAL_DMA_Start_IT(hspi->hdmarx, (uint32_t)&hspi->Instance->DR, (uint32_t)hspi->pRxBuffPtr, hspi->R
 3037              		.loc 1 1709 0
ARM GAS  C:\Users\user\AppData\Local\Temp\ccvQ1M9B.s 			page 84


 3038 019e FB68     		ldr	r3, [r7, #12]
 3039 01a0 986D     		ldr	r0, [r3, #88]
 3040 01a2 FB68     		ldr	r3, [r7, #12]
 3041 01a4 1B68     		ldr	r3, [r3]
 3042 01a6 0C33     		adds	r3, r3, #12
 3043 01a8 1946     		mov	r1, r3
 3044 01aa FB68     		ldr	r3, [r7, #12]
 3045 01ac 1B6C     		ldr	r3, [r3, #64]
 3046 01ae 1A46     		mov	r2, r3
 3047 01b0 FB68     		ldr	r3, [r7, #12]
 3048 01b2 B3F84630 		ldrh	r3, [r3, #70]	@ movhi
 3049 01b6 9BB2     		uxth	r3, r3
 3050 01b8 FFF7FEFF 		bl	HAL_DMA_Start_IT
1710:E:/LiteOS/LiteOS_Lab/drivers/third_party/ST/STM32L4xx_HAL_Driver/Src\stm32l4xx_hal_spi.c **** 
1711:E:/LiteOS/LiteOS_Lab/drivers/third_party/ST/STM32L4xx_HAL_Driver/Src\stm32l4xx_hal_spi.c ****   /* Check if the SPI is already enabled */
1712:E:/LiteOS/LiteOS_Lab/drivers/third_party/ST/STM32L4xx_HAL_Driver/Src\stm32l4xx_hal_spi.c ****   if ((hspi->Instance->CR1 & SPI_CR1_SPE) != SPI_CR1_SPE)
 3051              		.loc 1 1712 0
 3052 01bc FB68     		ldr	r3, [r7, #12]
 3053 01be 1B68     		ldr	r3, [r3]
 3054 01c0 1B68     		ldr	r3, [r3]
 3055 01c2 03F04003 		and	r3, r3, #64
 3056 01c6 402B     		cmp	r3, #64
 3057 01c8 07D0     		beq	.L171
1713:E:/LiteOS/LiteOS_Lab/drivers/third_party/ST/STM32L4xx_HAL_Driver/Src\stm32l4xx_hal_spi.c ****   {
1714:E:/LiteOS/LiteOS_Lab/drivers/third_party/ST/STM32L4xx_HAL_Driver/Src\stm32l4xx_hal_spi.c ****     /* Enable SPI peripheral */
1715:E:/LiteOS/LiteOS_Lab/drivers/third_party/ST/STM32L4xx_HAL_Driver/Src\stm32l4xx_hal_spi.c ****     __HAL_SPI_ENABLE(hspi);
 3058              		.loc 1 1715 0
 3059 01ca FB68     		ldr	r3, [r7, #12]
 3060 01cc 1B68     		ldr	r3, [r3]
 3061 01ce 1A68     		ldr	r2, [r3]
 3062 01d0 FB68     		ldr	r3, [r7, #12]
 3063 01d2 1B68     		ldr	r3, [r3]
 3064 01d4 42F04002 		orr	r2, r2, #64
 3065 01d8 1A60     		str	r2, [r3]
 3066              	.L171:
1716:E:/LiteOS/LiteOS_Lab/drivers/third_party/ST/STM32L4xx_HAL_Driver/Src\stm32l4xx_hal_spi.c ****   }
1717:E:/LiteOS/LiteOS_Lab/drivers/third_party/ST/STM32L4xx_HAL_Driver/Src\stm32l4xx_hal_spi.c **** 
1718:E:/LiteOS/LiteOS_Lab/drivers/third_party/ST/STM32L4xx_HAL_Driver/Src\stm32l4xx_hal_spi.c ****   /* Enable the SPI Error Interrupt Bit */
1719:E:/LiteOS/LiteOS_Lab/drivers/third_party/ST/STM32L4xx_HAL_Driver/Src\stm32l4xx_hal_spi.c ****   __HAL_SPI_ENABLE_IT(hspi, (SPI_IT_ERR));
 3067              		.loc 1 1719 0
 3068 01da FB68     		ldr	r3, [r7, #12]
 3069 01dc 1B68     		ldr	r3, [r3]
 3070 01de 5A68     		ldr	r2, [r3, #4]
 3071 01e0 FB68     		ldr	r3, [r7, #12]
 3072 01e2 1B68     		ldr	r3, [r3]
 3073 01e4 42F02002 		orr	r2, r2, #32
 3074 01e8 5A60     		str	r2, [r3, #4]
1720:E:/LiteOS/LiteOS_Lab/drivers/third_party/ST/STM32L4xx_HAL_Driver/Src\stm32l4xx_hal_spi.c **** 
1721:E:/LiteOS/LiteOS_Lab/drivers/third_party/ST/STM32L4xx_HAL_Driver/Src\stm32l4xx_hal_spi.c ****   /* Enable Rx DMA Request */
1722:E:/LiteOS/LiteOS_Lab/drivers/third_party/ST/STM32L4xx_HAL_Driver/Src\stm32l4xx_hal_spi.c ****   SET_BIT(hspi->Instance->CR2, SPI_CR2_RXDMAEN);
 3075              		.loc 1 1722 0
 3076 01ea FB68     		ldr	r3, [r7, #12]
 3077 01ec 1B68     		ldr	r3, [r3]
 3078 01ee 5A68     		ldr	r2, [r3, #4]
 3079 01f0 FB68     		ldr	r3, [r7, #12]
 3080 01f2 1B68     		ldr	r3, [r3]
 3081 01f4 42F00102 		orr	r2, r2, #1
ARM GAS  C:\Users\user\AppData\Local\Temp\ccvQ1M9B.s 			page 85


 3082 01f8 5A60     		str	r2, [r3, #4]
 3083              	.L164:
1723:E:/LiteOS/LiteOS_Lab/drivers/third_party/ST/STM32L4xx_HAL_Driver/Src\stm32l4xx_hal_spi.c **** 
1724:E:/LiteOS/LiteOS_Lab/drivers/third_party/ST/STM32L4xx_HAL_Driver/Src\stm32l4xx_hal_spi.c **** error:
1725:E:/LiteOS/LiteOS_Lab/drivers/third_party/ST/STM32L4xx_HAL_Driver/Src\stm32l4xx_hal_spi.c ****   /* Process Unlocked */
1726:E:/LiteOS/LiteOS_Lab/drivers/third_party/ST/STM32L4xx_HAL_Driver/Src\stm32l4xx_hal_spi.c ****   __HAL_UNLOCK(hspi);
 3084              		.loc 1 1726 0
 3085 01fa FB68     		ldr	r3, [r7, #12]
 3086 01fc 0022     		movs	r2, #0
 3087 01fe 83F85C20 		strb	r2, [r3, #92]
1727:E:/LiteOS/LiteOS_Lab/drivers/third_party/ST/STM32L4xx_HAL_Driver/Src\stm32l4xx_hal_spi.c ****   return errorcode;
 3088              		.loc 1 1727 0
 3089 0202 FB7D     		ldrb	r3, [r7, #23]	@ zero_extendqisi2
 3090              	.L161:
1728:E:/LiteOS/LiteOS_Lab/drivers/third_party/ST/STM32L4xx_HAL_Driver/Src\stm32l4xx_hal_spi.c **** }
 3091              		.loc 1 1728 0
 3092 0204 1846     		mov	r0, r3
 3093 0206 1837     		adds	r7, r7, #24
 3094              	.LCFI62:
 3095              		.cfi_def_cfa_offset 8
 3096 0208 BD46     		mov	sp, r7
 3097              	.LCFI63:
 3098              		.cfi_def_cfa_register 13
 3099              		@ sp needed
 3100 020a 80BD     		pop	{r7, pc}
 3101              	.L173:
 3102              		.align	2
 3103              	.L172:
 3104 020c 00000000 		.word	SPI_DMAHalfReceiveCplt
 3105 0210 00000000 		.word	SPI_DMAReceiveCplt
 3106 0214 00000000 		.word	SPI_DMAError
 3107              		.cfi_endproc
 3108              	.LFE144:
 3110              		.section	.text.HAL_SPI_TransmitReceive_DMA,"ax",%progbits
 3111              		.align	1
 3112              		.global	HAL_SPI_TransmitReceive_DMA
 3113              		.syntax unified
 3114              		.thumb
 3115              		.thumb_func
 3116              		.fpu fpv4-sp-d16
 3118              	HAL_SPI_TransmitReceive_DMA:
 3119              	.LFB145:
1729:E:/LiteOS/LiteOS_Lab/drivers/third_party/ST/STM32L4xx_HAL_Driver/Src\stm32l4xx_hal_spi.c **** 
1730:E:/LiteOS/LiteOS_Lab/drivers/third_party/ST/STM32L4xx_HAL_Driver/Src\stm32l4xx_hal_spi.c **** /**
1731:E:/LiteOS/LiteOS_Lab/drivers/third_party/ST/STM32L4xx_HAL_Driver/Src\stm32l4xx_hal_spi.c ****   * @brief  Transmit and Receive an amount of data in non-blocking mode with DMA.
1732:E:/LiteOS/LiteOS_Lab/drivers/third_party/ST/STM32L4xx_HAL_Driver/Src\stm32l4xx_hal_spi.c ****   * @param  hspi pointer to a SPI_HandleTypeDef structure that contains
1733:E:/LiteOS/LiteOS_Lab/drivers/third_party/ST/STM32L4xx_HAL_Driver/Src\stm32l4xx_hal_spi.c ****   *               the configuration information for SPI module.
1734:E:/LiteOS/LiteOS_Lab/drivers/third_party/ST/STM32L4xx_HAL_Driver/Src\stm32l4xx_hal_spi.c ****   * @param  pTxData pointer to transmission data buffer
1735:E:/LiteOS/LiteOS_Lab/drivers/third_party/ST/STM32L4xx_HAL_Driver/Src\stm32l4xx_hal_spi.c ****   * @param  pRxData pointer to reception data buffer
1736:E:/LiteOS/LiteOS_Lab/drivers/third_party/ST/STM32L4xx_HAL_Driver/Src\stm32l4xx_hal_spi.c ****   * @note   When the CRC feature is enabled the pRxData Length must be Size + 1
1737:E:/LiteOS/LiteOS_Lab/drivers/third_party/ST/STM32L4xx_HAL_Driver/Src\stm32l4xx_hal_spi.c ****   * @param  Size amount of data to be sent
1738:E:/LiteOS/LiteOS_Lab/drivers/third_party/ST/STM32L4xx_HAL_Driver/Src\stm32l4xx_hal_spi.c ****   * @retval HAL status
1739:E:/LiteOS/LiteOS_Lab/drivers/third_party/ST/STM32L4xx_HAL_Driver/Src\stm32l4xx_hal_spi.c ****   */
1740:E:/LiteOS/LiteOS_Lab/drivers/third_party/ST/STM32L4xx_HAL_Driver/Src\stm32l4xx_hal_spi.c **** HAL_StatusTypeDef HAL_SPI_TransmitReceive_DMA(SPI_HandleTypeDef *hspi, uint8_t *pTxData, uint8_t *p
1741:E:/LiteOS/LiteOS_Lab/drivers/third_party/ST/STM32L4xx_HAL_Driver/Src\stm32l4xx_hal_spi.c ****                                               uint16_t Size)
1742:E:/LiteOS/LiteOS_Lab/drivers/third_party/ST/STM32L4xx_HAL_Driver/Src\stm32l4xx_hal_spi.c **** {
 3120              		.loc 1 1742 0
ARM GAS  C:\Users\user\AppData\Local\Temp\ccvQ1M9B.s 			page 86


 3121              		.cfi_startproc
 3122              		@ args = 0, pretend = 0, frame = 32
 3123              		@ frame_needed = 1, uses_anonymous_args = 0
 3124 0000 80B5     		push	{r7, lr}
 3125              	.LCFI64:
 3126              		.cfi_def_cfa_offset 8
 3127              		.cfi_offset 7, -8
 3128              		.cfi_offset 14, -4
 3129 0002 88B0     		sub	sp, sp, #32
 3130              	.LCFI65:
 3131              		.cfi_def_cfa_offset 40
 3132 0004 00AF     		add	r7, sp, #0
 3133              	.LCFI66:
 3134              		.cfi_def_cfa_register 7
 3135 0006 F860     		str	r0, [r7, #12]
 3136 0008 B960     		str	r1, [r7, #8]
 3137 000a 7A60     		str	r2, [r7, #4]
 3138 000c 7B80     		strh	r3, [r7, #2]	@ movhi
1743:E:/LiteOS/LiteOS_Lab/drivers/third_party/ST/STM32L4xx_HAL_Driver/Src\stm32l4xx_hal_spi.c ****   uint32_t tmp = 0U, tmp1 = 0U;
 3139              		.loc 1 1743 0
 3140 000e 0023     		movs	r3, #0
 3141 0010 BB61     		str	r3, [r7, #24]
 3142 0012 0023     		movs	r3, #0
 3143 0014 7B61     		str	r3, [r7, #20]
1744:E:/LiteOS/LiteOS_Lab/drivers/third_party/ST/STM32L4xx_HAL_Driver/Src\stm32l4xx_hal_spi.c ****   HAL_StatusTypeDef errorcode = HAL_OK;
 3144              		.loc 1 1744 0
 3145 0016 0023     		movs	r3, #0
 3146 0018 FB77     		strb	r3, [r7, #31]
1745:E:/LiteOS/LiteOS_Lab/drivers/third_party/ST/STM32L4xx_HAL_Driver/Src\stm32l4xx_hal_spi.c **** 
1746:E:/LiteOS/LiteOS_Lab/drivers/third_party/ST/STM32L4xx_HAL_Driver/Src\stm32l4xx_hal_spi.c ****   /* Check rx & tx dma handles */
1747:E:/LiteOS/LiteOS_Lab/drivers/third_party/ST/STM32L4xx_HAL_Driver/Src\stm32l4xx_hal_spi.c ****   assert_param(IS_SPI_DMA_HANDLE(hspi->hdmarx));
1748:E:/LiteOS/LiteOS_Lab/drivers/third_party/ST/STM32L4xx_HAL_Driver/Src\stm32l4xx_hal_spi.c ****   assert_param(IS_SPI_DMA_HANDLE(hspi->hdmatx));
1749:E:/LiteOS/LiteOS_Lab/drivers/third_party/ST/STM32L4xx_HAL_Driver/Src\stm32l4xx_hal_spi.c **** 
1750:E:/LiteOS/LiteOS_Lab/drivers/third_party/ST/STM32L4xx_HAL_Driver/Src\stm32l4xx_hal_spi.c ****   /* Check Direction parameter */
1751:E:/LiteOS/LiteOS_Lab/drivers/third_party/ST/STM32L4xx_HAL_Driver/Src\stm32l4xx_hal_spi.c ****   assert_param(IS_SPI_DIRECTION_2LINES(hspi->Init.Direction));
1752:E:/LiteOS/LiteOS_Lab/drivers/third_party/ST/STM32L4xx_HAL_Driver/Src\stm32l4xx_hal_spi.c **** 
1753:E:/LiteOS/LiteOS_Lab/drivers/third_party/ST/STM32L4xx_HAL_Driver/Src\stm32l4xx_hal_spi.c ****   /* Process locked */
1754:E:/LiteOS/LiteOS_Lab/drivers/third_party/ST/STM32L4xx_HAL_Driver/Src\stm32l4xx_hal_spi.c ****   __HAL_LOCK(hspi);
 3147              		.loc 1 1754 0
 3148 001a FB68     		ldr	r3, [r7, #12]
 3149 001c 93F85C30 		ldrb	r3, [r3, #92]	@ zero_extendqisi2
 3150 0020 012B     		cmp	r3, #1
 3151 0022 01D1     		bne	.L175
 3152              		.loc 1 1754 0 is_stmt 0 discriminator 1
 3153 0024 0223     		movs	r3, #2
 3154 0026 4DE1     		b	.L176
 3155              	.L175:
 3156              		.loc 1 1754 0 discriminator 2
 3157 0028 FB68     		ldr	r3, [r7, #12]
 3158 002a 0122     		movs	r2, #1
 3159 002c 83F85C20 		strb	r2, [r3, #92]
1755:E:/LiteOS/LiteOS_Lab/drivers/third_party/ST/STM32L4xx_HAL_Driver/Src\stm32l4xx_hal_spi.c **** 
1756:E:/LiteOS/LiteOS_Lab/drivers/third_party/ST/STM32L4xx_HAL_Driver/Src\stm32l4xx_hal_spi.c ****   tmp  = hspi->State;
 3160              		.loc 1 1756 0 is_stmt 1 discriminator 2
 3161 0030 FB68     		ldr	r3, [r7, #12]
 3162 0032 93F85D30 		ldrb	r3, [r3, #93]
 3163 0036 DBB2     		uxtb	r3, r3
ARM GAS  C:\Users\user\AppData\Local\Temp\ccvQ1M9B.s 			page 87


 3164 0038 BB61     		str	r3, [r7, #24]
1757:E:/LiteOS/LiteOS_Lab/drivers/third_party/ST/STM32L4xx_HAL_Driver/Src\stm32l4xx_hal_spi.c ****   tmp1 = hspi->Init.Mode;
 3165              		.loc 1 1757 0 discriminator 2
 3166 003a FB68     		ldr	r3, [r7, #12]
 3167 003c 5B68     		ldr	r3, [r3, #4]
 3168 003e 7B61     		str	r3, [r7, #20]
1758:E:/LiteOS/LiteOS_Lab/drivers/third_party/ST/STM32L4xx_HAL_Driver/Src\stm32l4xx_hal_spi.c ****   if (!((tmp == HAL_SPI_STATE_READY) ||
 3169              		.loc 1 1758 0 discriminator 2
 3170 0040 BB69     		ldr	r3, [r7, #24]
 3171 0042 012B     		cmp	r3, #1
 3172 0044 0DD0     		beq	.L177
 3173              		.loc 1 1758 0 is_stmt 0 discriminator 1
 3174 0046 7B69     		ldr	r3, [r7, #20]
 3175 0048 B3F5827F 		cmp	r3, #260
 3176 004c 06D1     		bne	.L178
1759:E:/LiteOS/LiteOS_Lab/drivers/third_party/ST/STM32L4xx_HAL_Driver/Src\stm32l4xx_hal_spi.c ****         ((tmp1 == SPI_MODE_MASTER) && (hspi->Init.Direction == SPI_DIRECTION_2LINES) && (tmp == HAL
 3177              		.loc 1 1759 0 is_stmt 1
 3178 004e FB68     		ldr	r3, [r7, #12]
 3179 0050 9B68     		ldr	r3, [r3, #8]
 3180 0052 002B     		cmp	r3, #0
 3181 0054 02D1     		bne	.L178
 3182              		.loc 1 1759 0 is_stmt 0 discriminator 1
 3183 0056 BB69     		ldr	r3, [r7, #24]
 3184 0058 042B     		cmp	r3, #4
 3185 005a 02D0     		beq	.L177
 3186              	.L178:
1760:E:/LiteOS/LiteOS_Lab/drivers/third_party/ST/STM32L4xx_HAL_Driver/Src\stm32l4xx_hal_spi.c ****   {
1761:E:/LiteOS/LiteOS_Lab/drivers/third_party/ST/STM32L4xx_HAL_Driver/Src\stm32l4xx_hal_spi.c ****     errorcode = HAL_BUSY;
 3187              		.loc 1 1761 0 is_stmt 1
 3188 005c 0223     		movs	r3, #2
 3189 005e FB77     		strb	r3, [r7, #31]
1762:E:/LiteOS/LiteOS_Lab/drivers/third_party/ST/STM32L4xx_HAL_Driver/Src\stm32l4xx_hal_spi.c ****     goto error;
 3190              		.loc 1 1762 0
 3191 0060 2BE1     		b	.L179
 3192              	.L177:
1763:E:/LiteOS/LiteOS_Lab/drivers/third_party/ST/STM32L4xx_HAL_Driver/Src\stm32l4xx_hal_spi.c ****   }
1764:E:/LiteOS/LiteOS_Lab/drivers/third_party/ST/STM32L4xx_HAL_Driver/Src\stm32l4xx_hal_spi.c **** 
1765:E:/LiteOS/LiteOS_Lab/drivers/third_party/ST/STM32L4xx_HAL_Driver/Src\stm32l4xx_hal_spi.c ****   if ((pTxData == NULL) || (pRxData == NULL) || (Size == 0U))
 3193              		.loc 1 1765 0
 3194 0062 BB68     		ldr	r3, [r7, #8]
 3195 0064 002B     		cmp	r3, #0
 3196 0066 05D0     		beq	.L180
 3197              		.loc 1 1765 0 is_stmt 0 discriminator 1
 3198 0068 7B68     		ldr	r3, [r7, #4]
 3199 006a 002B     		cmp	r3, #0
 3200 006c 02D0     		beq	.L180
 3201              		.loc 1 1765 0 discriminator 2
 3202 006e 7B88     		ldrh	r3, [r7, #2]
 3203 0070 002B     		cmp	r3, #0
 3204 0072 02D1     		bne	.L181
 3205              	.L180:
1766:E:/LiteOS/LiteOS_Lab/drivers/third_party/ST/STM32L4xx_HAL_Driver/Src\stm32l4xx_hal_spi.c ****   {
1767:E:/LiteOS/LiteOS_Lab/drivers/third_party/ST/STM32L4xx_HAL_Driver/Src\stm32l4xx_hal_spi.c ****     errorcode = HAL_ERROR;
 3206              		.loc 1 1767 0 is_stmt 1
 3207 0074 0123     		movs	r3, #1
 3208 0076 FB77     		strb	r3, [r7, #31]
1768:E:/LiteOS/LiteOS_Lab/drivers/third_party/ST/STM32L4xx_HAL_Driver/Src\stm32l4xx_hal_spi.c ****     goto error;
ARM GAS  C:\Users\user\AppData\Local\Temp\ccvQ1M9B.s 			page 88


 3209              		.loc 1 1768 0
 3210 0078 1FE1     		b	.L179
 3211              	.L181:
1769:E:/LiteOS/LiteOS_Lab/drivers/third_party/ST/STM32L4xx_HAL_Driver/Src\stm32l4xx_hal_spi.c ****   }
1770:E:/LiteOS/LiteOS_Lab/drivers/third_party/ST/STM32L4xx_HAL_Driver/Src\stm32l4xx_hal_spi.c **** 
1771:E:/LiteOS/LiteOS_Lab/drivers/third_party/ST/STM32L4xx_HAL_Driver/Src\stm32l4xx_hal_spi.c ****   /* Don't overwrite in case of HAL_SPI_STATE_BUSY_RX */
1772:E:/LiteOS/LiteOS_Lab/drivers/third_party/ST/STM32L4xx_HAL_Driver/Src\stm32l4xx_hal_spi.c ****   if (hspi->State != HAL_SPI_STATE_BUSY_RX)
 3212              		.loc 1 1772 0
 3213 007a FB68     		ldr	r3, [r7, #12]
 3214 007c 93F85D30 		ldrb	r3, [r3, #93]
 3215 0080 DBB2     		uxtb	r3, r3
 3216 0082 042B     		cmp	r3, #4
 3217 0084 03D0     		beq	.L182
1773:E:/LiteOS/LiteOS_Lab/drivers/third_party/ST/STM32L4xx_HAL_Driver/Src\stm32l4xx_hal_spi.c ****   {
1774:E:/LiteOS/LiteOS_Lab/drivers/third_party/ST/STM32L4xx_HAL_Driver/Src\stm32l4xx_hal_spi.c ****     hspi->State = HAL_SPI_STATE_BUSY_TX_RX;
 3218              		.loc 1 1774 0
 3219 0086 FB68     		ldr	r3, [r7, #12]
 3220 0088 0522     		movs	r2, #5
 3221 008a 83F85D20 		strb	r2, [r3, #93]
 3222              	.L182:
1775:E:/LiteOS/LiteOS_Lab/drivers/third_party/ST/STM32L4xx_HAL_Driver/Src\stm32l4xx_hal_spi.c ****   }
1776:E:/LiteOS/LiteOS_Lab/drivers/third_party/ST/STM32L4xx_HAL_Driver/Src\stm32l4xx_hal_spi.c **** 
1777:E:/LiteOS/LiteOS_Lab/drivers/third_party/ST/STM32L4xx_HAL_Driver/Src\stm32l4xx_hal_spi.c ****   /* Set the transaction information */
1778:E:/LiteOS/LiteOS_Lab/drivers/third_party/ST/STM32L4xx_HAL_Driver/Src\stm32l4xx_hal_spi.c ****   hspi->ErrorCode   = HAL_SPI_ERROR_NONE;
 3223              		.loc 1 1778 0
 3224 008e FB68     		ldr	r3, [r7, #12]
 3225 0090 0022     		movs	r2, #0
 3226 0092 1A66     		str	r2, [r3, #96]
1779:E:/LiteOS/LiteOS_Lab/drivers/third_party/ST/STM32L4xx_HAL_Driver/Src\stm32l4xx_hal_spi.c ****   hspi->pTxBuffPtr  = (uint8_t *)pTxData;
 3227              		.loc 1 1779 0
 3228 0094 FB68     		ldr	r3, [r7, #12]
 3229 0096 BA68     		ldr	r2, [r7, #8]
 3230 0098 9A63     		str	r2, [r3, #56]
1780:E:/LiteOS/LiteOS_Lab/drivers/third_party/ST/STM32L4xx_HAL_Driver/Src\stm32l4xx_hal_spi.c ****   hspi->TxXferSize  = Size;
 3231              		.loc 1 1780 0
 3232 009a FB68     		ldr	r3, [r7, #12]
 3233 009c 7A88     		ldrh	r2, [r7, #2]	@ movhi
 3234 009e 9A87     		strh	r2, [r3, #60]	@ movhi
1781:E:/LiteOS/LiteOS_Lab/drivers/third_party/ST/STM32L4xx_HAL_Driver/Src\stm32l4xx_hal_spi.c ****   hspi->TxXferCount = Size;
 3235              		.loc 1 1781 0
 3236 00a0 FB68     		ldr	r3, [r7, #12]
 3237 00a2 7A88     		ldrh	r2, [r7, #2]	@ movhi
 3238 00a4 DA87     		strh	r2, [r3, #62]	@ movhi
1782:E:/LiteOS/LiteOS_Lab/drivers/third_party/ST/STM32L4xx_HAL_Driver/Src\stm32l4xx_hal_spi.c ****   hspi->pRxBuffPtr  = (uint8_t *)pRxData;
 3239              		.loc 1 1782 0
 3240 00a6 FB68     		ldr	r3, [r7, #12]
 3241 00a8 7A68     		ldr	r2, [r7, #4]
 3242 00aa 1A64     		str	r2, [r3, #64]
1783:E:/LiteOS/LiteOS_Lab/drivers/third_party/ST/STM32L4xx_HAL_Driver/Src\stm32l4xx_hal_spi.c ****   hspi->RxXferSize  = Size;
 3243              		.loc 1 1783 0
 3244 00ac FB68     		ldr	r3, [r7, #12]
 3245 00ae 7A88     		ldrh	r2, [r7, #2]	@ movhi
 3246 00b0 A3F84420 		strh	r2, [r3, #68]	@ movhi
1784:E:/LiteOS/LiteOS_Lab/drivers/third_party/ST/STM32L4xx_HAL_Driver/Src\stm32l4xx_hal_spi.c ****   hspi->RxXferCount = Size;
 3247              		.loc 1 1784 0
 3248 00b4 FB68     		ldr	r3, [r7, #12]
 3249 00b6 7A88     		ldrh	r2, [r7, #2]	@ movhi
ARM GAS  C:\Users\user\AppData\Local\Temp\ccvQ1M9B.s 			page 89


 3250 00b8 A3F84620 		strh	r2, [r3, #70]	@ movhi
1785:E:/LiteOS/LiteOS_Lab/drivers/third_party/ST/STM32L4xx_HAL_Driver/Src\stm32l4xx_hal_spi.c **** 
1786:E:/LiteOS/LiteOS_Lab/drivers/third_party/ST/STM32L4xx_HAL_Driver/Src\stm32l4xx_hal_spi.c ****   /* Init field not used in handle to zero */
1787:E:/LiteOS/LiteOS_Lab/drivers/third_party/ST/STM32L4xx_HAL_Driver/Src\stm32l4xx_hal_spi.c ****   hspi->RxISR       = NULL;
 3251              		.loc 1 1787 0
 3252 00bc FB68     		ldr	r3, [r7, #12]
 3253 00be 0022     		movs	r2, #0
 3254 00c0 DA64     		str	r2, [r3, #76]
1788:E:/LiteOS/LiteOS_Lab/drivers/third_party/ST/STM32L4xx_HAL_Driver/Src\stm32l4xx_hal_spi.c ****   hspi->TxISR       = NULL;
 3255              		.loc 1 1788 0
 3256 00c2 FB68     		ldr	r3, [r7, #12]
 3257 00c4 0022     		movs	r2, #0
 3258 00c6 1A65     		str	r2, [r3, #80]
1789:E:/LiteOS/LiteOS_Lab/drivers/third_party/ST/STM32L4xx_HAL_Driver/Src\stm32l4xx_hal_spi.c **** 
1790:E:/LiteOS/LiteOS_Lab/drivers/third_party/ST/STM32L4xx_HAL_Driver/Src\stm32l4xx_hal_spi.c **** #if (USE_SPI_CRC != 0U)
1791:E:/LiteOS/LiteOS_Lab/drivers/third_party/ST/STM32L4xx_HAL_Driver/Src\stm32l4xx_hal_spi.c ****   /* Reset CRC Calculation */
1792:E:/LiteOS/LiteOS_Lab/drivers/third_party/ST/STM32L4xx_HAL_Driver/Src\stm32l4xx_hal_spi.c ****   if (hspi->Init.CRCCalculation == SPI_CRCCALCULATION_ENABLE)
1793:E:/LiteOS/LiteOS_Lab/drivers/third_party/ST/STM32L4xx_HAL_Driver/Src\stm32l4xx_hal_spi.c ****   {
1794:E:/LiteOS/LiteOS_Lab/drivers/third_party/ST/STM32L4xx_HAL_Driver/Src\stm32l4xx_hal_spi.c ****     SPI_RESET_CRC(hspi);
1795:E:/LiteOS/LiteOS_Lab/drivers/third_party/ST/STM32L4xx_HAL_Driver/Src\stm32l4xx_hal_spi.c ****   }
1796:E:/LiteOS/LiteOS_Lab/drivers/third_party/ST/STM32L4xx_HAL_Driver/Src\stm32l4xx_hal_spi.c **** #endif /* USE_SPI_CRC */
1797:E:/LiteOS/LiteOS_Lab/drivers/third_party/ST/STM32L4xx_HAL_Driver/Src\stm32l4xx_hal_spi.c **** 
1798:E:/LiteOS/LiteOS_Lab/drivers/third_party/ST/STM32L4xx_HAL_Driver/Src\stm32l4xx_hal_spi.c ****   /* Reset the threshold bit */
1799:E:/LiteOS/LiteOS_Lab/drivers/third_party/ST/STM32L4xx_HAL_Driver/Src\stm32l4xx_hal_spi.c ****   CLEAR_BIT(hspi->Instance->CR2, SPI_CR2_LDMATX | SPI_CR2_LDMARX);
 3259              		.loc 1 1799 0
 3260 00c8 FB68     		ldr	r3, [r7, #12]
 3261 00ca 1B68     		ldr	r3, [r3]
 3262 00cc 5A68     		ldr	r2, [r3, #4]
 3263 00ce FB68     		ldr	r3, [r7, #12]
 3264 00d0 1B68     		ldr	r3, [r3]
 3265 00d2 22F4C042 		bic	r2, r2, #24576
 3266 00d6 5A60     		str	r2, [r3, #4]
1800:E:/LiteOS/LiteOS_Lab/drivers/third_party/ST/STM32L4xx_HAL_Driver/Src\stm32l4xx_hal_spi.c **** 
1801:E:/LiteOS/LiteOS_Lab/drivers/third_party/ST/STM32L4xx_HAL_Driver/Src\stm32l4xx_hal_spi.c ****   /* The packing mode management is enabled by the DMA settings according the spi data size */
1802:E:/LiteOS/LiteOS_Lab/drivers/third_party/ST/STM32L4xx_HAL_Driver/Src\stm32l4xx_hal_spi.c ****   if (hspi->Init.DataSize > SPI_DATASIZE_8BIT)
 3267              		.loc 1 1802 0
 3268 00d8 FB68     		ldr	r3, [r7, #12]
 3269 00da DB68     		ldr	r3, [r3, #12]
 3270 00dc B3F5E06F 		cmp	r3, #1792
 3271 00e0 08D9     		bls	.L183
1803:E:/LiteOS/LiteOS_Lab/drivers/third_party/ST/STM32L4xx_HAL_Driver/Src\stm32l4xx_hal_spi.c ****   {
1804:E:/LiteOS/LiteOS_Lab/drivers/third_party/ST/STM32L4xx_HAL_Driver/Src\stm32l4xx_hal_spi.c ****     /* Set fiforxthreshold according the reception data length: 16bit */
1805:E:/LiteOS/LiteOS_Lab/drivers/third_party/ST/STM32L4xx_HAL_Driver/Src\stm32l4xx_hal_spi.c ****     CLEAR_BIT(hspi->Instance->CR2, SPI_RXFIFO_THRESHOLD);
 3272              		.loc 1 1805 0
 3273 00e2 FB68     		ldr	r3, [r7, #12]
 3274 00e4 1B68     		ldr	r3, [r3]
 3275 00e6 5A68     		ldr	r2, [r3, #4]
 3276 00e8 FB68     		ldr	r3, [r7, #12]
 3277 00ea 1B68     		ldr	r3, [r3]
 3278 00ec 22F48052 		bic	r2, r2, #4096
 3279 00f0 5A60     		str	r2, [r3, #4]
 3280 00f2 6FE0     		b	.L184
 3281              	.L183:
1806:E:/LiteOS/LiteOS_Lab/drivers/third_party/ST/STM32L4xx_HAL_Driver/Src\stm32l4xx_hal_spi.c ****   }
1807:E:/LiteOS/LiteOS_Lab/drivers/third_party/ST/STM32L4xx_HAL_Driver/Src\stm32l4xx_hal_spi.c ****   else
1808:E:/LiteOS/LiteOS_Lab/drivers/third_party/ST/STM32L4xx_HAL_Driver/Src\stm32l4xx_hal_spi.c ****   {
1809:E:/LiteOS/LiteOS_Lab/drivers/third_party/ST/STM32L4xx_HAL_Driver/Src\stm32l4xx_hal_spi.c ****     /* Set RX Fifo threshold according the reception data length: 8bit */
ARM GAS  C:\Users\user\AppData\Local\Temp\ccvQ1M9B.s 			page 90


1810:E:/LiteOS/LiteOS_Lab/drivers/third_party/ST/STM32L4xx_HAL_Driver/Src\stm32l4xx_hal_spi.c ****     SET_BIT(hspi->Instance->CR2, SPI_RXFIFO_THRESHOLD);
 3282              		.loc 1 1810 0
 3283 00f4 FB68     		ldr	r3, [r7, #12]
 3284 00f6 1B68     		ldr	r3, [r3]
 3285 00f8 5A68     		ldr	r2, [r3, #4]
 3286 00fa FB68     		ldr	r3, [r7, #12]
 3287 00fc 1B68     		ldr	r3, [r3]
 3288 00fe 42F48052 		orr	r2, r2, #4096
 3289 0102 5A60     		str	r2, [r3, #4]
1811:E:/LiteOS/LiteOS_Lab/drivers/third_party/ST/STM32L4xx_HAL_Driver/Src\stm32l4xx_hal_spi.c **** 
1812:E:/LiteOS/LiteOS_Lab/drivers/third_party/ST/STM32L4xx_HAL_Driver/Src\stm32l4xx_hal_spi.c ****     if (hspi->hdmatx->Init.MemDataAlignment == DMA_MDATAALIGN_HALFWORD)
 3290              		.loc 1 1812 0
 3291 0104 FB68     		ldr	r3, [r7, #12]
 3292 0106 5B6D     		ldr	r3, [r3, #84]
 3293 0108 9B69     		ldr	r3, [r3, #24]
 3294 010a B3F5806F 		cmp	r3, #1024
 3295 010e 26D1     		bne	.L185
1813:E:/LiteOS/LiteOS_Lab/drivers/third_party/ST/STM32L4xx_HAL_Driver/Src\stm32l4xx_hal_spi.c ****     {
1814:E:/LiteOS/LiteOS_Lab/drivers/third_party/ST/STM32L4xx_HAL_Driver/Src\stm32l4xx_hal_spi.c ****       if ((hspi->TxXferSize & 0x1U) == 0x0U)
 3296              		.loc 1 1814 0
 3297 0110 FB68     		ldr	r3, [r7, #12]
 3298 0112 9B8F     		ldrh	r3, [r3, #60]
 3299 0114 03F00103 		and	r3, r3, #1
 3300 0118 002B     		cmp	r3, #0
 3301 011a 0FD1     		bne	.L186
1815:E:/LiteOS/LiteOS_Lab/drivers/third_party/ST/STM32L4xx_HAL_Driver/Src\stm32l4xx_hal_spi.c ****       {
1816:E:/LiteOS/LiteOS_Lab/drivers/third_party/ST/STM32L4xx_HAL_Driver/Src\stm32l4xx_hal_spi.c ****         CLEAR_BIT(hspi->Instance->CR2, SPI_CR2_LDMATX);
 3302              		.loc 1 1816 0
 3303 011c FB68     		ldr	r3, [r7, #12]
 3304 011e 1B68     		ldr	r3, [r3]
 3305 0120 5A68     		ldr	r2, [r3, #4]
 3306 0122 FB68     		ldr	r3, [r7, #12]
 3307 0124 1B68     		ldr	r3, [r3]
 3308 0126 22F48042 		bic	r2, r2, #16384
 3309 012a 5A60     		str	r2, [r3, #4]
1817:E:/LiteOS/LiteOS_Lab/drivers/third_party/ST/STM32L4xx_HAL_Driver/Src\stm32l4xx_hal_spi.c ****         hspi->TxXferCount = hspi->TxXferCount >> 1U;
 3310              		.loc 1 1817 0
 3311 012c FB68     		ldr	r3, [r7, #12]
 3312 012e DB8F     		ldrh	r3, [r3, #62]	@ movhi
 3313 0130 9BB2     		uxth	r3, r3
 3314 0132 5B08     		lsrs	r3, r3, #1
 3315 0134 9AB2     		uxth	r2, r3
 3316 0136 FB68     		ldr	r3, [r7, #12]
 3317 0138 DA87     		strh	r2, [r3, #62]	@ movhi
 3318 013a 10E0     		b	.L185
 3319              	.L186:
1818:E:/LiteOS/LiteOS_Lab/drivers/third_party/ST/STM32L4xx_HAL_Driver/Src\stm32l4xx_hal_spi.c ****       }
1819:E:/LiteOS/LiteOS_Lab/drivers/third_party/ST/STM32L4xx_HAL_Driver/Src\stm32l4xx_hal_spi.c ****       else
1820:E:/LiteOS/LiteOS_Lab/drivers/third_party/ST/STM32L4xx_HAL_Driver/Src\stm32l4xx_hal_spi.c ****       {
1821:E:/LiteOS/LiteOS_Lab/drivers/third_party/ST/STM32L4xx_HAL_Driver/Src\stm32l4xx_hal_spi.c ****         SET_BIT(hspi->Instance->CR2, SPI_CR2_LDMATX);
 3320              		.loc 1 1821 0
 3321 013c FB68     		ldr	r3, [r7, #12]
 3322 013e 1B68     		ldr	r3, [r3]
 3323 0140 5A68     		ldr	r2, [r3, #4]
 3324 0142 FB68     		ldr	r3, [r7, #12]
 3325 0144 1B68     		ldr	r3, [r3]
 3326 0146 42F48042 		orr	r2, r2, #16384
ARM GAS  C:\Users\user\AppData\Local\Temp\ccvQ1M9B.s 			page 91


 3327 014a 5A60     		str	r2, [r3, #4]
1822:E:/LiteOS/LiteOS_Lab/drivers/third_party/ST/STM32L4xx_HAL_Driver/Src\stm32l4xx_hal_spi.c ****         hspi->TxXferCount = (hspi->TxXferCount >> 1U) + 1U;
 3328              		.loc 1 1822 0
 3329 014c FB68     		ldr	r3, [r7, #12]
 3330 014e DB8F     		ldrh	r3, [r3, #62]	@ movhi
 3331 0150 9BB2     		uxth	r3, r3
 3332 0152 5B08     		lsrs	r3, r3, #1
 3333 0154 9BB2     		uxth	r3, r3
 3334 0156 0133     		adds	r3, r3, #1
 3335 0158 9AB2     		uxth	r2, r3
 3336 015a FB68     		ldr	r3, [r7, #12]
 3337 015c DA87     		strh	r2, [r3, #62]	@ movhi
 3338              	.L185:
1823:E:/LiteOS/LiteOS_Lab/drivers/third_party/ST/STM32L4xx_HAL_Driver/Src\stm32l4xx_hal_spi.c ****       }
1824:E:/LiteOS/LiteOS_Lab/drivers/third_party/ST/STM32L4xx_HAL_Driver/Src\stm32l4xx_hal_spi.c ****     }
1825:E:/LiteOS/LiteOS_Lab/drivers/third_party/ST/STM32L4xx_HAL_Driver/Src\stm32l4xx_hal_spi.c **** 
1826:E:/LiteOS/LiteOS_Lab/drivers/third_party/ST/STM32L4xx_HAL_Driver/Src\stm32l4xx_hal_spi.c ****     if (hspi->hdmarx->Init.MemDataAlignment == DMA_MDATAALIGN_HALFWORD)
 3339              		.loc 1 1826 0
 3340 015e FB68     		ldr	r3, [r7, #12]
 3341 0160 9B6D     		ldr	r3, [r3, #88]
 3342 0162 9B69     		ldr	r3, [r3, #24]
 3343 0164 B3F5806F 		cmp	r3, #1024
 3344 0168 34D1     		bne	.L184
1827:E:/LiteOS/LiteOS_Lab/drivers/third_party/ST/STM32L4xx_HAL_Driver/Src\stm32l4xx_hal_spi.c ****     {
1828:E:/LiteOS/LiteOS_Lab/drivers/third_party/ST/STM32L4xx_HAL_Driver/Src\stm32l4xx_hal_spi.c ****       /* Set RX Fifo threshold according the reception data length: 16bit */
1829:E:/LiteOS/LiteOS_Lab/drivers/third_party/ST/STM32L4xx_HAL_Driver/Src\stm32l4xx_hal_spi.c ****       CLEAR_BIT(hspi->Instance->CR2, SPI_RXFIFO_THRESHOLD);
 3345              		.loc 1 1829 0
 3346 016a FB68     		ldr	r3, [r7, #12]
 3347 016c 1B68     		ldr	r3, [r3]
 3348 016e 5A68     		ldr	r2, [r3, #4]
 3349 0170 FB68     		ldr	r3, [r7, #12]
 3350 0172 1B68     		ldr	r3, [r3]
 3351 0174 22F48052 		bic	r2, r2, #4096
 3352 0178 5A60     		str	r2, [r3, #4]
1830:E:/LiteOS/LiteOS_Lab/drivers/third_party/ST/STM32L4xx_HAL_Driver/Src\stm32l4xx_hal_spi.c **** 
1831:E:/LiteOS/LiteOS_Lab/drivers/third_party/ST/STM32L4xx_HAL_Driver/Src\stm32l4xx_hal_spi.c ****       if ((hspi->RxXferCount & 0x1U) == 0x0U)
 3353              		.loc 1 1831 0
 3354 017a FB68     		ldr	r3, [r7, #12]
 3355 017c B3F84630 		ldrh	r3, [r3, #70]	@ movhi
 3356 0180 9BB2     		uxth	r3, r3
 3357 0182 03F00103 		and	r3, r3, #1
 3358 0186 002B     		cmp	r3, #0
 3359 0188 11D1     		bne	.L187
1832:E:/LiteOS/LiteOS_Lab/drivers/third_party/ST/STM32L4xx_HAL_Driver/Src\stm32l4xx_hal_spi.c ****       {
1833:E:/LiteOS/LiteOS_Lab/drivers/third_party/ST/STM32L4xx_HAL_Driver/Src\stm32l4xx_hal_spi.c ****         CLEAR_BIT(hspi->Instance->CR2, SPI_CR2_LDMARX);
 3360              		.loc 1 1833 0
 3361 018a FB68     		ldr	r3, [r7, #12]
 3362 018c 1B68     		ldr	r3, [r3]
 3363 018e 5A68     		ldr	r2, [r3, #4]
 3364 0190 FB68     		ldr	r3, [r7, #12]
 3365 0192 1B68     		ldr	r3, [r3]
 3366 0194 22F40052 		bic	r2, r2, #8192
 3367 0198 5A60     		str	r2, [r3, #4]
1834:E:/LiteOS/LiteOS_Lab/drivers/third_party/ST/STM32L4xx_HAL_Driver/Src\stm32l4xx_hal_spi.c ****         hspi->RxXferCount = hspi->RxXferCount >> 1U;
 3368              		.loc 1 1834 0
 3369 019a FB68     		ldr	r3, [r7, #12]
 3370 019c B3F84630 		ldrh	r3, [r3, #70]	@ movhi
ARM GAS  C:\Users\user\AppData\Local\Temp\ccvQ1M9B.s 			page 92


 3371 01a0 9BB2     		uxth	r3, r3
 3372 01a2 5B08     		lsrs	r3, r3, #1
 3373 01a4 9AB2     		uxth	r2, r3
 3374 01a6 FB68     		ldr	r3, [r7, #12]
 3375 01a8 A3F84620 		strh	r2, [r3, #70]	@ movhi
 3376 01ac 12E0     		b	.L184
 3377              	.L187:
1835:E:/LiteOS/LiteOS_Lab/drivers/third_party/ST/STM32L4xx_HAL_Driver/Src\stm32l4xx_hal_spi.c ****       }
1836:E:/LiteOS/LiteOS_Lab/drivers/third_party/ST/STM32L4xx_HAL_Driver/Src\stm32l4xx_hal_spi.c ****       else
1837:E:/LiteOS/LiteOS_Lab/drivers/third_party/ST/STM32L4xx_HAL_Driver/Src\stm32l4xx_hal_spi.c ****       {
1838:E:/LiteOS/LiteOS_Lab/drivers/third_party/ST/STM32L4xx_HAL_Driver/Src\stm32l4xx_hal_spi.c ****         SET_BIT(hspi->Instance->CR2, SPI_CR2_LDMARX);
 3378              		.loc 1 1838 0
 3379 01ae FB68     		ldr	r3, [r7, #12]
 3380 01b0 1B68     		ldr	r3, [r3]
 3381 01b2 5A68     		ldr	r2, [r3, #4]
 3382 01b4 FB68     		ldr	r3, [r7, #12]
 3383 01b6 1B68     		ldr	r3, [r3]
 3384 01b8 42F40052 		orr	r2, r2, #8192
 3385 01bc 5A60     		str	r2, [r3, #4]
1839:E:/LiteOS/LiteOS_Lab/drivers/third_party/ST/STM32L4xx_HAL_Driver/Src\stm32l4xx_hal_spi.c ****         hspi->RxXferCount = (hspi->RxXferCount >> 1U) + 1U;
 3386              		.loc 1 1839 0
 3387 01be FB68     		ldr	r3, [r7, #12]
 3388 01c0 B3F84630 		ldrh	r3, [r3, #70]	@ movhi
 3389 01c4 9BB2     		uxth	r3, r3
 3390 01c6 5B08     		lsrs	r3, r3, #1
 3391 01c8 9BB2     		uxth	r3, r3
 3392 01ca 0133     		adds	r3, r3, #1
 3393 01cc 9AB2     		uxth	r2, r3
 3394 01ce FB68     		ldr	r3, [r7, #12]
 3395 01d0 A3F84620 		strh	r2, [r3, #70]	@ movhi
 3396              	.L184:
1840:E:/LiteOS/LiteOS_Lab/drivers/third_party/ST/STM32L4xx_HAL_Driver/Src\stm32l4xx_hal_spi.c ****       }
1841:E:/LiteOS/LiteOS_Lab/drivers/third_party/ST/STM32L4xx_HAL_Driver/Src\stm32l4xx_hal_spi.c ****     }
1842:E:/LiteOS/LiteOS_Lab/drivers/third_party/ST/STM32L4xx_HAL_Driver/Src\stm32l4xx_hal_spi.c ****   }
1843:E:/LiteOS/LiteOS_Lab/drivers/third_party/ST/STM32L4xx_HAL_Driver/Src\stm32l4xx_hal_spi.c **** 
1844:E:/LiteOS/LiteOS_Lab/drivers/third_party/ST/STM32L4xx_HAL_Driver/Src\stm32l4xx_hal_spi.c ****   /* Check if we are in Rx only or in Rx/Tx Mode and configure the DMA transfer complete callback *
1845:E:/LiteOS/LiteOS_Lab/drivers/third_party/ST/STM32L4xx_HAL_Driver/Src\stm32l4xx_hal_spi.c ****   if (hspi->State == HAL_SPI_STATE_BUSY_RX)
 3397              		.loc 1 1845 0
 3398 01d4 FB68     		ldr	r3, [r7, #12]
 3399 01d6 93F85D30 		ldrb	r3, [r3, #93]
 3400 01da DBB2     		uxtb	r3, r3
 3401 01dc 042B     		cmp	r3, #4
 3402 01de 08D1     		bne	.L188
1846:E:/LiteOS/LiteOS_Lab/drivers/third_party/ST/STM32L4xx_HAL_Driver/Src\stm32l4xx_hal_spi.c ****   {
1847:E:/LiteOS/LiteOS_Lab/drivers/third_party/ST/STM32L4xx_HAL_Driver/Src\stm32l4xx_hal_spi.c ****     /* Set the SPI Rx DMA Half transfer complete callback */
1848:E:/LiteOS/LiteOS_Lab/drivers/third_party/ST/STM32L4xx_HAL_Driver/Src\stm32l4xx_hal_spi.c ****     hspi->hdmarx->XferHalfCpltCallback = SPI_DMAHalfReceiveCplt;
 3403              		.loc 1 1848 0
 3404 01e0 FB68     		ldr	r3, [r7, #12]
 3405 01e2 9B6D     		ldr	r3, [r3, #88]
 3406 01e4 394A     		ldr	r2, .L191
 3407 01e6 1A63     		str	r2, [r3, #48]
1849:E:/LiteOS/LiteOS_Lab/drivers/third_party/ST/STM32L4xx_HAL_Driver/Src\stm32l4xx_hal_spi.c ****     hspi->hdmarx->XferCpltCallback     = SPI_DMAReceiveCplt;
 3408              		.loc 1 1849 0
 3409 01e8 FB68     		ldr	r3, [r7, #12]
 3410 01ea 9B6D     		ldr	r3, [r3, #88]
 3411 01ec 384A     		ldr	r2, .L191+4
 3412 01ee DA62     		str	r2, [r3, #44]
ARM GAS  C:\Users\user\AppData\Local\Temp\ccvQ1M9B.s 			page 93


 3413 01f0 07E0     		b	.L189
 3414              	.L188:
1850:E:/LiteOS/LiteOS_Lab/drivers/third_party/ST/STM32L4xx_HAL_Driver/Src\stm32l4xx_hal_spi.c ****   }
1851:E:/LiteOS/LiteOS_Lab/drivers/third_party/ST/STM32L4xx_HAL_Driver/Src\stm32l4xx_hal_spi.c ****   else
1852:E:/LiteOS/LiteOS_Lab/drivers/third_party/ST/STM32L4xx_HAL_Driver/Src\stm32l4xx_hal_spi.c ****   {
1853:E:/LiteOS/LiteOS_Lab/drivers/third_party/ST/STM32L4xx_HAL_Driver/Src\stm32l4xx_hal_spi.c ****     /* Set the SPI Tx/Rx DMA Half transfer complete callback */
1854:E:/LiteOS/LiteOS_Lab/drivers/third_party/ST/STM32L4xx_HAL_Driver/Src\stm32l4xx_hal_spi.c ****     hspi->hdmarx->XferHalfCpltCallback = SPI_DMAHalfTransmitReceiveCplt;
 3415              		.loc 1 1854 0
 3416 01f2 FB68     		ldr	r3, [r7, #12]
 3417 01f4 9B6D     		ldr	r3, [r3, #88]
 3418 01f6 374A     		ldr	r2, .L191+8
 3419 01f8 1A63     		str	r2, [r3, #48]
1855:E:/LiteOS/LiteOS_Lab/drivers/third_party/ST/STM32L4xx_HAL_Driver/Src\stm32l4xx_hal_spi.c ****     hspi->hdmarx->XferCpltCallback     = SPI_DMATransmitReceiveCplt;
 3420              		.loc 1 1855 0
 3421 01fa FB68     		ldr	r3, [r7, #12]
 3422 01fc 9B6D     		ldr	r3, [r3, #88]
 3423 01fe 364A     		ldr	r2, .L191+12
 3424 0200 DA62     		str	r2, [r3, #44]
 3425              	.L189:
1856:E:/LiteOS/LiteOS_Lab/drivers/third_party/ST/STM32L4xx_HAL_Driver/Src\stm32l4xx_hal_spi.c ****   }
1857:E:/LiteOS/LiteOS_Lab/drivers/third_party/ST/STM32L4xx_HAL_Driver/Src\stm32l4xx_hal_spi.c **** 
1858:E:/LiteOS/LiteOS_Lab/drivers/third_party/ST/STM32L4xx_HAL_Driver/Src\stm32l4xx_hal_spi.c ****   /* Set the DMA error callback */
1859:E:/LiteOS/LiteOS_Lab/drivers/third_party/ST/STM32L4xx_HAL_Driver/Src\stm32l4xx_hal_spi.c ****   hspi->hdmarx->XferErrorCallback = SPI_DMAError;
 3426              		.loc 1 1859 0
 3427 0202 FB68     		ldr	r3, [r7, #12]
 3428 0204 9B6D     		ldr	r3, [r3, #88]
 3429 0206 354A     		ldr	r2, .L191+16
 3430 0208 5A63     		str	r2, [r3, #52]
1860:E:/LiteOS/LiteOS_Lab/drivers/third_party/ST/STM32L4xx_HAL_Driver/Src\stm32l4xx_hal_spi.c **** 
1861:E:/LiteOS/LiteOS_Lab/drivers/third_party/ST/STM32L4xx_HAL_Driver/Src\stm32l4xx_hal_spi.c ****   /* Set the DMA AbortCpltCallback */
1862:E:/LiteOS/LiteOS_Lab/drivers/third_party/ST/STM32L4xx_HAL_Driver/Src\stm32l4xx_hal_spi.c ****   hspi->hdmarx->XferAbortCallback = NULL;
 3431              		.loc 1 1862 0
 3432 020a FB68     		ldr	r3, [r7, #12]
 3433 020c 9B6D     		ldr	r3, [r3, #88]
 3434 020e 0022     		movs	r2, #0
 3435 0210 9A63     		str	r2, [r3, #56]
1863:E:/LiteOS/LiteOS_Lab/drivers/third_party/ST/STM32L4xx_HAL_Driver/Src\stm32l4xx_hal_spi.c **** 
1864:E:/LiteOS/LiteOS_Lab/drivers/third_party/ST/STM32L4xx_HAL_Driver/Src\stm32l4xx_hal_spi.c ****   /* Enable the Rx DMA Stream/Channel  */
1865:E:/LiteOS/LiteOS_Lab/drivers/third_party/ST/STM32L4xx_HAL_Driver/Src\stm32l4xx_hal_spi.c ****   HAL_DMA_Start_IT(hspi->hdmarx, (uint32_t)&hspi->Instance->DR, (uint32_t)hspi->pRxBuffPtr, hspi->R
 3436              		.loc 1 1865 0
 3437 0212 FB68     		ldr	r3, [r7, #12]
 3438 0214 986D     		ldr	r0, [r3, #88]
 3439 0216 FB68     		ldr	r3, [r7, #12]
 3440 0218 1B68     		ldr	r3, [r3]
 3441 021a 0C33     		adds	r3, r3, #12
 3442 021c 1946     		mov	r1, r3
 3443 021e FB68     		ldr	r3, [r7, #12]
 3444 0220 1B6C     		ldr	r3, [r3, #64]
 3445 0222 1A46     		mov	r2, r3
 3446 0224 FB68     		ldr	r3, [r7, #12]
 3447 0226 B3F84630 		ldrh	r3, [r3, #70]	@ movhi
 3448 022a 9BB2     		uxth	r3, r3
 3449 022c FFF7FEFF 		bl	HAL_DMA_Start_IT
1866:E:/LiteOS/LiteOS_Lab/drivers/third_party/ST/STM32L4xx_HAL_Driver/Src\stm32l4xx_hal_spi.c **** 
1867:E:/LiteOS/LiteOS_Lab/drivers/third_party/ST/STM32L4xx_HAL_Driver/Src\stm32l4xx_hal_spi.c ****   /* Enable Rx DMA Request */
1868:E:/LiteOS/LiteOS_Lab/drivers/third_party/ST/STM32L4xx_HAL_Driver/Src\stm32l4xx_hal_spi.c ****   SET_BIT(hspi->Instance->CR2, SPI_CR2_RXDMAEN);
 3450              		.loc 1 1868 0
ARM GAS  C:\Users\user\AppData\Local\Temp\ccvQ1M9B.s 			page 94


 3451 0230 FB68     		ldr	r3, [r7, #12]
 3452 0232 1B68     		ldr	r3, [r3]
 3453 0234 5A68     		ldr	r2, [r3, #4]
 3454 0236 FB68     		ldr	r3, [r7, #12]
 3455 0238 1B68     		ldr	r3, [r3]
 3456 023a 42F00102 		orr	r2, r2, #1
 3457 023e 5A60     		str	r2, [r3, #4]
1869:E:/LiteOS/LiteOS_Lab/drivers/third_party/ST/STM32L4xx_HAL_Driver/Src\stm32l4xx_hal_spi.c **** 
1870:E:/LiteOS/LiteOS_Lab/drivers/third_party/ST/STM32L4xx_HAL_Driver/Src\stm32l4xx_hal_spi.c ****   /* Set the SPI Tx DMA transfer complete callback as NULL because the communication closing
1871:E:/LiteOS/LiteOS_Lab/drivers/third_party/ST/STM32L4xx_HAL_Driver/Src\stm32l4xx_hal_spi.c ****   is performed in DMA reception complete callback  */
1872:E:/LiteOS/LiteOS_Lab/drivers/third_party/ST/STM32L4xx_HAL_Driver/Src\stm32l4xx_hal_spi.c ****   hspi->hdmatx->XferHalfCpltCallback = NULL;
 3458              		.loc 1 1872 0
 3459 0240 FB68     		ldr	r3, [r7, #12]
 3460 0242 5B6D     		ldr	r3, [r3, #84]
 3461 0244 0022     		movs	r2, #0
 3462 0246 1A63     		str	r2, [r3, #48]
1873:E:/LiteOS/LiteOS_Lab/drivers/third_party/ST/STM32L4xx_HAL_Driver/Src\stm32l4xx_hal_spi.c ****   hspi->hdmatx->XferCpltCallback     = NULL;
 3463              		.loc 1 1873 0
 3464 0248 FB68     		ldr	r3, [r7, #12]
 3465 024a 5B6D     		ldr	r3, [r3, #84]
 3466 024c 0022     		movs	r2, #0
 3467 024e DA62     		str	r2, [r3, #44]
1874:E:/LiteOS/LiteOS_Lab/drivers/third_party/ST/STM32L4xx_HAL_Driver/Src\stm32l4xx_hal_spi.c ****   hspi->hdmatx->XferErrorCallback    = NULL;
 3468              		.loc 1 1874 0
 3469 0250 FB68     		ldr	r3, [r7, #12]
 3470 0252 5B6D     		ldr	r3, [r3, #84]
 3471 0254 0022     		movs	r2, #0
 3472 0256 5A63     		str	r2, [r3, #52]
1875:E:/LiteOS/LiteOS_Lab/drivers/third_party/ST/STM32L4xx_HAL_Driver/Src\stm32l4xx_hal_spi.c ****   hspi->hdmatx->XferAbortCallback    = NULL;
 3473              		.loc 1 1875 0
 3474 0258 FB68     		ldr	r3, [r7, #12]
 3475 025a 5B6D     		ldr	r3, [r3, #84]
 3476 025c 0022     		movs	r2, #0
 3477 025e 9A63     		str	r2, [r3, #56]
1876:E:/LiteOS/LiteOS_Lab/drivers/third_party/ST/STM32L4xx_HAL_Driver/Src\stm32l4xx_hal_spi.c **** 
1877:E:/LiteOS/LiteOS_Lab/drivers/third_party/ST/STM32L4xx_HAL_Driver/Src\stm32l4xx_hal_spi.c ****   /* Enable the Tx DMA Stream/Channel  */
1878:E:/LiteOS/LiteOS_Lab/drivers/third_party/ST/STM32L4xx_HAL_Driver/Src\stm32l4xx_hal_spi.c ****   HAL_DMA_Start_IT(hspi->hdmatx, (uint32_t)hspi->pTxBuffPtr, (uint32_t)&hspi->Instance->DR, hspi->T
 3478              		.loc 1 1878 0
 3479 0260 FB68     		ldr	r3, [r7, #12]
 3480 0262 586D     		ldr	r0, [r3, #84]
 3481 0264 FB68     		ldr	r3, [r7, #12]
 3482 0266 9B6B     		ldr	r3, [r3, #56]
 3483 0268 1946     		mov	r1, r3
 3484 026a FB68     		ldr	r3, [r7, #12]
 3485 026c 1B68     		ldr	r3, [r3]
 3486 026e 0C33     		adds	r3, r3, #12
 3487 0270 1A46     		mov	r2, r3
 3488 0272 FB68     		ldr	r3, [r7, #12]
 3489 0274 DB8F     		ldrh	r3, [r3, #62]	@ movhi
 3490 0276 9BB2     		uxth	r3, r3
 3491 0278 FFF7FEFF 		bl	HAL_DMA_Start_IT
1879:E:/LiteOS/LiteOS_Lab/drivers/third_party/ST/STM32L4xx_HAL_Driver/Src\stm32l4xx_hal_spi.c **** 
1880:E:/LiteOS/LiteOS_Lab/drivers/third_party/ST/STM32L4xx_HAL_Driver/Src\stm32l4xx_hal_spi.c ****   /* Check if the SPI is already enabled */
1881:E:/LiteOS/LiteOS_Lab/drivers/third_party/ST/STM32L4xx_HAL_Driver/Src\stm32l4xx_hal_spi.c ****   if ((hspi->Instance->CR1 & SPI_CR1_SPE) != SPI_CR1_SPE)
 3492              		.loc 1 1881 0
 3493 027c FB68     		ldr	r3, [r7, #12]
 3494 027e 1B68     		ldr	r3, [r3]
ARM GAS  C:\Users\user\AppData\Local\Temp\ccvQ1M9B.s 			page 95


 3495 0280 1B68     		ldr	r3, [r3]
 3496 0282 03F04003 		and	r3, r3, #64
 3497 0286 402B     		cmp	r3, #64
 3498 0288 07D0     		beq	.L190
1882:E:/LiteOS/LiteOS_Lab/drivers/third_party/ST/STM32L4xx_HAL_Driver/Src\stm32l4xx_hal_spi.c ****   {
1883:E:/LiteOS/LiteOS_Lab/drivers/third_party/ST/STM32L4xx_HAL_Driver/Src\stm32l4xx_hal_spi.c ****     /* Enable SPI peripheral */
1884:E:/LiteOS/LiteOS_Lab/drivers/third_party/ST/STM32L4xx_HAL_Driver/Src\stm32l4xx_hal_spi.c ****     __HAL_SPI_ENABLE(hspi);
 3499              		.loc 1 1884 0
 3500 028a FB68     		ldr	r3, [r7, #12]
 3501 028c 1B68     		ldr	r3, [r3]
 3502 028e 1A68     		ldr	r2, [r3]
 3503 0290 FB68     		ldr	r3, [r7, #12]
 3504 0292 1B68     		ldr	r3, [r3]
 3505 0294 42F04002 		orr	r2, r2, #64
 3506 0298 1A60     		str	r2, [r3]
 3507              	.L190:
1885:E:/LiteOS/LiteOS_Lab/drivers/third_party/ST/STM32L4xx_HAL_Driver/Src\stm32l4xx_hal_spi.c ****   }
1886:E:/LiteOS/LiteOS_Lab/drivers/third_party/ST/STM32L4xx_HAL_Driver/Src\stm32l4xx_hal_spi.c ****   /* Enable the SPI Error Interrupt Bit */
1887:E:/LiteOS/LiteOS_Lab/drivers/third_party/ST/STM32L4xx_HAL_Driver/Src\stm32l4xx_hal_spi.c ****   __HAL_SPI_ENABLE_IT(hspi, (SPI_IT_ERR));
 3508              		.loc 1 1887 0
 3509 029a FB68     		ldr	r3, [r7, #12]
 3510 029c 1B68     		ldr	r3, [r3]
 3511 029e 5A68     		ldr	r2, [r3, #4]
 3512 02a0 FB68     		ldr	r3, [r7, #12]
 3513 02a2 1B68     		ldr	r3, [r3]
 3514 02a4 42F02002 		orr	r2, r2, #32
 3515 02a8 5A60     		str	r2, [r3, #4]
1888:E:/LiteOS/LiteOS_Lab/drivers/third_party/ST/STM32L4xx_HAL_Driver/Src\stm32l4xx_hal_spi.c **** 
1889:E:/LiteOS/LiteOS_Lab/drivers/third_party/ST/STM32L4xx_HAL_Driver/Src\stm32l4xx_hal_spi.c ****   /* Enable Tx DMA Request */
1890:E:/LiteOS/LiteOS_Lab/drivers/third_party/ST/STM32L4xx_HAL_Driver/Src\stm32l4xx_hal_spi.c ****   SET_BIT(hspi->Instance->CR2, SPI_CR2_TXDMAEN);
 3516              		.loc 1 1890 0
 3517 02aa FB68     		ldr	r3, [r7, #12]
 3518 02ac 1B68     		ldr	r3, [r3]
 3519 02ae 5A68     		ldr	r2, [r3, #4]
 3520 02b0 FB68     		ldr	r3, [r7, #12]
 3521 02b2 1B68     		ldr	r3, [r3]
 3522 02b4 42F00202 		orr	r2, r2, #2
 3523 02b8 5A60     		str	r2, [r3, #4]
 3524              	.L179:
1891:E:/LiteOS/LiteOS_Lab/drivers/third_party/ST/STM32L4xx_HAL_Driver/Src\stm32l4xx_hal_spi.c **** 
1892:E:/LiteOS/LiteOS_Lab/drivers/third_party/ST/STM32L4xx_HAL_Driver/Src\stm32l4xx_hal_spi.c **** error :
1893:E:/LiteOS/LiteOS_Lab/drivers/third_party/ST/STM32L4xx_HAL_Driver/Src\stm32l4xx_hal_spi.c ****   /* Process Unlocked */
1894:E:/LiteOS/LiteOS_Lab/drivers/third_party/ST/STM32L4xx_HAL_Driver/Src\stm32l4xx_hal_spi.c ****   __HAL_UNLOCK(hspi);
 3525              		.loc 1 1894 0
 3526 02ba FB68     		ldr	r3, [r7, #12]
 3527 02bc 0022     		movs	r2, #0
 3528 02be 83F85C20 		strb	r2, [r3, #92]
1895:E:/LiteOS/LiteOS_Lab/drivers/third_party/ST/STM32L4xx_HAL_Driver/Src\stm32l4xx_hal_spi.c ****   return errorcode;
 3529              		.loc 1 1895 0
 3530 02c2 FB7F     		ldrb	r3, [r7, #31]	@ zero_extendqisi2
 3531              	.L176:
1896:E:/LiteOS/LiteOS_Lab/drivers/third_party/ST/STM32L4xx_HAL_Driver/Src\stm32l4xx_hal_spi.c **** }
 3532              		.loc 1 1896 0
 3533 02c4 1846     		mov	r0, r3
 3534 02c6 2037     		adds	r7, r7, #32
 3535              	.LCFI67:
 3536              		.cfi_def_cfa_offset 8
ARM GAS  C:\Users\user\AppData\Local\Temp\ccvQ1M9B.s 			page 96


 3537 02c8 BD46     		mov	sp, r7
 3538              	.LCFI68:
 3539              		.cfi_def_cfa_register 13
 3540              		@ sp needed
 3541 02ca 80BD     		pop	{r7, pc}
 3542              	.L192:
 3543              		.align	2
 3544              	.L191:
 3545 02cc 00000000 		.word	SPI_DMAHalfReceiveCplt
 3546 02d0 00000000 		.word	SPI_DMAReceiveCplt
 3547 02d4 00000000 		.word	SPI_DMAHalfTransmitReceiveCplt
 3548 02d8 00000000 		.word	SPI_DMATransmitReceiveCplt
 3549 02dc 00000000 		.word	SPI_DMAError
 3550              		.cfi_endproc
 3551              	.LFE145:
 3553              		.section	.text.HAL_SPI_Abort,"ax",%progbits
 3554              		.align	1
 3555              		.global	HAL_SPI_Abort
 3556              		.syntax unified
 3557              		.thumb
 3558              		.thumb_func
 3559              		.fpu fpv4-sp-d16
 3561              	HAL_SPI_Abort:
 3562              	.LFB146:
1897:E:/LiteOS/LiteOS_Lab/drivers/third_party/ST/STM32L4xx_HAL_Driver/Src\stm32l4xx_hal_spi.c **** 
1898:E:/LiteOS/LiteOS_Lab/drivers/third_party/ST/STM32L4xx_HAL_Driver/Src\stm32l4xx_hal_spi.c **** /**
1899:E:/LiteOS/LiteOS_Lab/drivers/third_party/ST/STM32L4xx_HAL_Driver/Src\stm32l4xx_hal_spi.c ****   * @brief  Abort ongoing transfer (blocking mode).
1900:E:/LiteOS/LiteOS_Lab/drivers/third_party/ST/STM32L4xx_HAL_Driver/Src\stm32l4xx_hal_spi.c ****   * @param  hspi SPI handle.
1901:E:/LiteOS/LiteOS_Lab/drivers/third_party/ST/STM32L4xx_HAL_Driver/Src\stm32l4xx_hal_spi.c ****   * @note   This procedure could be used for aborting any ongoing transfer (Tx and Rx),
1902:E:/LiteOS/LiteOS_Lab/drivers/third_party/ST/STM32L4xx_HAL_Driver/Src\stm32l4xx_hal_spi.c ****   *         started in Interrupt or DMA mode.
1903:E:/LiteOS/LiteOS_Lab/drivers/third_party/ST/STM32L4xx_HAL_Driver/Src\stm32l4xx_hal_spi.c ****   *         This procedure performs following operations :
1904:E:/LiteOS/LiteOS_Lab/drivers/third_party/ST/STM32L4xx_HAL_Driver/Src\stm32l4xx_hal_spi.c ****   *           - Disable SPI Interrupts (depending of transfer direction)
1905:E:/LiteOS/LiteOS_Lab/drivers/third_party/ST/STM32L4xx_HAL_Driver/Src\stm32l4xx_hal_spi.c ****   *           - Disable the DMA transfer in the peripheral register (if enabled)
1906:E:/LiteOS/LiteOS_Lab/drivers/third_party/ST/STM32L4xx_HAL_Driver/Src\stm32l4xx_hal_spi.c ****   *           - Abort DMA transfer by calling HAL_DMA_Abort (in case of transfer in DMA mode)
1907:E:/LiteOS/LiteOS_Lab/drivers/third_party/ST/STM32L4xx_HAL_Driver/Src\stm32l4xx_hal_spi.c ****   *           - Set handle State to READY
1908:E:/LiteOS/LiteOS_Lab/drivers/third_party/ST/STM32L4xx_HAL_Driver/Src\stm32l4xx_hal_spi.c ****   * @note   This procedure is executed in blocking mode : when exiting function, Abort is considere
1909:E:/LiteOS/LiteOS_Lab/drivers/third_party/ST/STM32L4xx_HAL_Driver/Src\stm32l4xx_hal_spi.c ****   * @retval HAL status
1910:E:/LiteOS/LiteOS_Lab/drivers/third_party/ST/STM32L4xx_HAL_Driver/Src\stm32l4xx_hal_spi.c **** */
1911:E:/LiteOS/LiteOS_Lab/drivers/third_party/ST/STM32L4xx_HAL_Driver/Src\stm32l4xx_hal_spi.c **** HAL_StatusTypeDef HAL_SPI_Abort(SPI_HandleTypeDef *hspi)
1912:E:/LiteOS/LiteOS_Lab/drivers/third_party/ST/STM32L4xx_HAL_Driver/Src\stm32l4xx_hal_spi.c **** {
 3563              		.loc 1 1912 0
 3564              		.cfi_startproc
 3565              		@ args = 0, pretend = 0, frame = 32
 3566              		@ frame_needed = 1, uses_anonymous_args = 0
 3567 0000 80B5     		push	{r7, lr}
 3568              	.LCFI69:
 3569              		.cfi_def_cfa_offset 8
 3570              		.cfi_offset 7, -8
 3571              		.cfi_offset 14, -4
 3572 0002 8AB0     		sub	sp, sp, #40
 3573              	.LCFI70:
 3574              		.cfi_def_cfa_offset 48
 3575 0004 02AF     		add	r7, sp, #8
 3576              	.LCFI71:
 3577              		.cfi_def_cfa 7, 40
 3578 0006 7860     		str	r0, [r7, #4]
1913:E:/LiteOS/LiteOS_Lab/drivers/third_party/ST/STM32L4xx_HAL_Driver/Src\stm32l4xx_hal_spi.c ****   HAL_StatusTypeDef errorcode;
ARM GAS  C:\Users\user\AppData\Local\Temp\ccvQ1M9B.s 			page 97


1914:E:/LiteOS/LiteOS_Lab/drivers/third_party/ST/STM32L4xx_HAL_Driver/Src\stm32l4xx_hal_spi.c ****   __IO uint32_t count, resetcount;
1915:E:/LiteOS/LiteOS_Lab/drivers/third_party/ST/STM32L4xx_HAL_Driver/Src\stm32l4xx_hal_spi.c **** 
1916:E:/LiteOS/LiteOS_Lab/drivers/third_party/ST/STM32L4xx_HAL_Driver/Src\stm32l4xx_hal_spi.c ****   /* Initialized local variable  */
1917:E:/LiteOS/LiteOS_Lab/drivers/third_party/ST/STM32L4xx_HAL_Driver/Src\stm32l4xx_hal_spi.c ****   errorcode = HAL_OK;
 3579              		.loc 1 1917 0
 3580 0008 0023     		movs	r3, #0
 3581 000a FB77     		strb	r3, [r7, #31]
1918:E:/LiteOS/LiteOS_Lab/drivers/third_party/ST/STM32L4xx_HAL_Driver/Src\stm32l4xx_hal_spi.c ****   resetcount = SPI_DEFAULT_TIMEOUT * (SystemCoreClock / 24U / 1000U);
 3582              		.loc 1 1918 0
 3583 000c 884B     		ldr	r3, .L213
 3584 000e 1B68     		ldr	r3, [r3]
 3585 0010 884A     		ldr	r2, .L213+4
 3586 0012 A2FB0323 		umull	r2, r3, r2, r3
 3587 0016 5B0A     		lsrs	r3, r3, #9
 3588 0018 6422     		movs	r2, #100
 3589 001a 02FB03F3 		mul	r3, r2, r3
 3590 001e 7B61     		str	r3, [r7, #20]
1919:E:/LiteOS/LiteOS_Lab/drivers/third_party/ST/STM32L4xx_HAL_Driver/Src\stm32l4xx_hal_spi.c ****   count = resetcount;
 3591              		.loc 1 1919 0
 3592 0020 7B69     		ldr	r3, [r7, #20]
 3593 0022 BB61     		str	r3, [r7, #24]
1920:E:/LiteOS/LiteOS_Lab/drivers/third_party/ST/STM32L4xx_HAL_Driver/Src\stm32l4xx_hal_spi.c **** 
1921:E:/LiteOS/LiteOS_Lab/drivers/third_party/ST/STM32L4xx_HAL_Driver/Src\stm32l4xx_hal_spi.c ****   /* Disable TXEIE, RXNEIE and ERRIE(mode fault event, overrun error, TI frame error) interrupts */
1922:E:/LiteOS/LiteOS_Lab/drivers/third_party/ST/STM32L4xx_HAL_Driver/Src\stm32l4xx_hal_spi.c ****   if (HAL_IS_BIT_SET(hspi->Instance->CR2, SPI_CR2_TXEIE))
 3594              		.loc 1 1922 0
 3595 0024 7B68     		ldr	r3, [r7, #4]
 3596 0026 1B68     		ldr	r3, [r3]
 3597 0028 5B68     		ldr	r3, [r3, #4]
 3598 002a 03F08003 		and	r3, r3, #128
 3599 002e 802B     		cmp	r3, #128
 3600 0030 16D1     		bne	.L194
1923:E:/LiteOS/LiteOS_Lab/drivers/third_party/ST/STM32L4xx_HAL_Driver/Src\stm32l4xx_hal_spi.c ****   {
1924:E:/LiteOS/LiteOS_Lab/drivers/third_party/ST/STM32L4xx_HAL_Driver/Src\stm32l4xx_hal_spi.c ****     hspi->TxISR = SPI_AbortTx_ISR;
 3601              		.loc 1 1924 0
 3602 0032 7B68     		ldr	r3, [r7, #4]
 3603 0034 804A     		ldr	r2, .L213+8
 3604 0036 1A65     		str	r2, [r3, #80]
 3605              	.L197:
1925:E:/LiteOS/LiteOS_Lab/drivers/third_party/ST/STM32L4xx_HAL_Driver/Src\stm32l4xx_hal_spi.c ****     /* Wait HAL_SPI_STATE_ABORT state */
1926:E:/LiteOS/LiteOS_Lab/drivers/third_party/ST/STM32L4xx_HAL_Driver/Src\stm32l4xx_hal_spi.c ****     do
1927:E:/LiteOS/LiteOS_Lab/drivers/third_party/ST/STM32L4xx_HAL_Driver/Src\stm32l4xx_hal_spi.c ****     {
1928:E:/LiteOS/LiteOS_Lab/drivers/third_party/ST/STM32L4xx_HAL_Driver/Src\stm32l4xx_hal_spi.c ****       if (count-- == 0U)
 3606              		.loc 1 1928 0
 3607 0038 BB69     		ldr	r3, [r7, #24]
 3608 003a 5A1E     		subs	r2, r3, #1
 3609 003c BA61     		str	r2, [r7, #24]
 3610 003e 002B     		cmp	r3, #0
 3611 0040 06D1     		bne	.L195
1929:E:/LiteOS/LiteOS_Lab/drivers/third_party/ST/STM32L4xx_HAL_Driver/Src\stm32l4xx_hal_spi.c ****       {
1930:E:/LiteOS/LiteOS_Lab/drivers/third_party/ST/STM32L4xx_HAL_Driver/Src\stm32l4xx_hal_spi.c ****         SET_BIT(hspi->ErrorCode, HAL_SPI_ERROR_ABORT);
 3612              		.loc 1 1930 0
 3613 0042 7B68     		ldr	r3, [r7, #4]
 3614 0044 1B6E     		ldr	r3, [r3, #96]
 3615 0046 43F04002 		orr	r2, r3, #64
 3616 004a 7B68     		ldr	r3, [r7, #4]
 3617 004c 1A66     		str	r2, [r3, #96]
1931:E:/LiteOS/LiteOS_Lab/drivers/third_party/ST/STM32L4xx_HAL_Driver/Src\stm32l4xx_hal_spi.c ****         break;
ARM GAS  C:\Users\user\AppData\Local\Temp\ccvQ1M9B.s 			page 98


 3618              		.loc 1 1931 0
 3619 004e 05E0     		b	.L196
 3620              	.L195:
1932:E:/LiteOS/LiteOS_Lab/drivers/third_party/ST/STM32L4xx_HAL_Driver/Src\stm32l4xx_hal_spi.c ****       }
1933:E:/LiteOS/LiteOS_Lab/drivers/third_party/ST/STM32L4xx_HAL_Driver/Src\stm32l4xx_hal_spi.c ****     }
1934:E:/LiteOS/LiteOS_Lab/drivers/third_party/ST/STM32L4xx_HAL_Driver/Src\stm32l4xx_hal_spi.c ****     while (hspi->State != HAL_SPI_STATE_ABORT);
 3621              		.loc 1 1934 0
 3622 0050 7B68     		ldr	r3, [r7, #4]
 3623 0052 93F85D30 		ldrb	r3, [r3, #93]
 3624 0056 DBB2     		uxtb	r3, r3
 3625 0058 072B     		cmp	r3, #7
 3626 005a EDD1     		bne	.L197
 3627              	.L196:
1935:E:/LiteOS/LiteOS_Lab/drivers/third_party/ST/STM32L4xx_HAL_Driver/Src\stm32l4xx_hal_spi.c ****     /* Reset Timeout Counter */
1936:E:/LiteOS/LiteOS_Lab/drivers/third_party/ST/STM32L4xx_HAL_Driver/Src\stm32l4xx_hal_spi.c ****     count = resetcount;
 3628              		.loc 1 1936 0
 3629 005c 7B69     		ldr	r3, [r7, #20]
 3630 005e BB61     		str	r3, [r7, #24]
 3631              	.L194:
1937:E:/LiteOS/LiteOS_Lab/drivers/third_party/ST/STM32L4xx_HAL_Driver/Src\stm32l4xx_hal_spi.c ****   }
1938:E:/LiteOS/LiteOS_Lab/drivers/third_party/ST/STM32L4xx_HAL_Driver/Src\stm32l4xx_hal_spi.c **** 
1939:E:/LiteOS/LiteOS_Lab/drivers/third_party/ST/STM32L4xx_HAL_Driver/Src\stm32l4xx_hal_spi.c ****   if (HAL_IS_BIT_SET(hspi->Instance->CR2, SPI_CR2_RXNEIE))
 3632              		.loc 1 1939 0
 3633 0060 7B68     		ldr	r3, [r7, #4]
 3634 0062 1B68     		ldr	r3, [r3]
 3635 0064 5B68     		ldr	r3, [r3, #4]
 3636 0066 03F04003 		and	r3, r3, #64
 3637 006a 402B     		cmp	r3, #64
 3638 006c 16D1     		bne	.L198
1940:E:/LiteOS/LiteOS_Lab/drivers/third_party/ST/STM32L4xx_HAL_Driver/Src\stm32l4xx_hal_spi.c ****   {
1941:E:/LiteOS/LiteOS_Lab/drivers/third_party/ST/STM32L4xx_HAL_Driver/Src\stm32l4xx_hal_spi.c ****     hspi->RxISR = SPI_AbortRx_ISR;
 3639              		.loc 1 1941 0
 3640 006e 7B68     		ldr	r3, [r7, #4]
 3641 0070 724A     		ldr	r2, .L213+12
 3642 0072 DA64     		str	r2, [r3, #76]
 3643              	.L201:
1942:E:/LiteOS/LiteOS_Lab/drivers/third_party/ST/STM32L4xx_HAL_Driver/Src\stm32l4xx_hal_spi.c ****     /* Wait HAL_SPI_STATE_ABORT state */
1943:E:/LiteOS/LiteOS_Lab/drivers/third_party/ST/STM32L4xx_HAL_Driver/Src\stm32l4xx_hal_spi.c ****     do
1944:E:/LiteOS/LiteOS_Lab/drivers/third_party/ST/STM32L4xx_HAL_Driver/Src\stm32l4xx_hal_spi.c ****     {
1945:E:/LiteOS/LiteOS_Lab/drivers/third_party/ST/STM32L4xx_HAL_Driver/Src\stm32l4xx_hal_spi.c ****       if (count-- == 0U)
 3644              		.loc 1 1945 0
 3645 0074 BB69     		ldr	r3, [r7, #24]
 3646 0076 5A1E     		subs	r2, r3, #1
 3647 0078 BA61     		str	r2, [r7, #24]
 3648 007a 002B     		cmp	r3, #0
 3649 007c 06D1     		bne	.L199
1946:E:/LiteOS/LiteOS_Lab/drivers/third_party/ST/STM32L4xx_HAL_Driver/Src\stm32l4xx_hal_spi.c ****       {
1947:E:/LiteOS/LiteOS_Lab/drivers/third_party/ST/STM32L4xx_HAL_Driver/Src\stm32l4xx_hal_spi.c ****         SET_BIT(hspi->ErrorCode, HAL_SPI_ERROR_ABORT);
 3650              		.loc 1 1947 0
 3651 007e 7B68     		ldr	r3, [r7, #4]
 3652 0080 1B6E     		ldr	r3, [r3, #96]
 3653 0082 43F04002 		orr	r2, r3, #64
 3654 0086 7B68     		ldr	r3, [r7, #4]
 3655 0088 1A66     		str	r2, [r3, #96]
1948:E:/LiteOS/LiteOS_Lab/drivers/third_party/ST/STM32L4xx_HAL_Driver/Src\stm32l4xx_hal_spi.c ****         break;
 3656              		.loc 1 1948 0
 3657 008a 05E0     		b	.L200
ARM GAS  C:\Users\user\AppData\Local\Temp\ccvQ1M9B.s 			page 99


 3658              	.L199:
1949:E:/LiteOS/LiteOS_Lab/drivers/third_party/ST/STM32L4xx_HAL_Driver/Src\stm32l4xx_hal_spi.c ****       }
1950:E:/LiteOS/LiteOS_Lab/drivers/third_party/ST/STM32L4xx_HAL_Driver/Src\stm32l4xx_hal_spi.c ****     }
1951:E:/LiteOS/LiteOS_Lab/drivers/third_party/ST/STM32L4xx_HAL_Driver/Src\stm32l4xx_hal_spi.c ****     while (hspi->State != HAL_SPI_STATE_ABORT);
 3659              		.loc 1 1951 0
 3660 008c 7B68     		ldr	r3, [r7, #4]
 3661 008e 93F85D30 		ldrb	r3, [r3, #93]
 3662 0092 DBB2     		uxtb	r3, r3
 3663 0094 072B     		cmp	r3, #7
 3664 0096 EDD1     		bne	.L201
 3665              	.L200:
1952:E:/LiteOS/LiteOS_Lab/drivers/third_party/ST/STM32L4xx_HAL_Driver/Src\stm32l4xx_hal_spi.c ****     /* Reset Timeout Counter */
1953:E:/LiteOS/LiteOS_Lab/drivers/third_party/ST/STM32L4xx_HAL_Driver/Src\stm32l4xx_hal_spi.c ****     count = resetcount;
 3666              		.loc 1 1953 0
 3667 0098 7B69     		ldr	r3, [r7, #20]
 3668 009a BB61     		str	r3, [r7, #24]
 3669              	.L198:
1954:E:/LiteOS/LiteOS_Lab/drivers/third_party/ST/STM32L4xx_HAL_Driver/Src\stm32l4xx_hal_spi.c ****   }
1955:E:/LiteOS/LiteOS_Lab/drivers/third_party/ST/STM32L4xx_HAL_Driver/Src\stm32l4xx_hal_spi.c **** 
1956:E:/LiteOS/LiteOS_Lab/drivers/third_party/ST/STM32L4xx_HAL_Driver/Src\stm32l4xx_hal_spi.c ****   /* Clear ERRIE interrupts in case of DMA Mode */
1957:E:/LiteOS/LiteOS_Lab/drivers/third_party/ST/STM32L4xx_HAL_Driver/Src\stm32l4xx_hal_spi.c ****   CLEAR_BIT(hspi->Instance->CR2, SPI_CR2_ERRIE);
 3670              		.loc 1 1957 0
 3671 009c 7B68     		ldr	r3, [r7, #4]
 3672 009e 1B68     		ldr	r3, [r3]
 3673 00a0 5A68     		ldr	r2, [r3, #4]
 3674 00a2 7B68     		ldr	r3, [r7, #4]
 3675 00a4 1B68     		ldr	r3, [r3]
 3676 00a6 22F02002 		bic	r2, r2, #32
 3677 00aa 5A60     		str	r2, [r3, #4]
1958:E:/LiteOS/LiteOS_Lab/drivers/third_party/ST/STM32L4xx_HAL_Driver/Src\stm32l4xx_hal_spi.c **** 
1959:E:/LiteOS/LiteOS_Lab/drivers/third_party/ST/STM32L4xx_HAL_Driver/Src\stm32l4xx_hal_spi.c ****   /* Disable the SPI DMA Tx or SPI DMA Rx request if enabled */
1960:E:/LiteOS/LiteOS_Lab/drivers/third_party/ST/STM32L4xx_HAL_Driver/Src\stm32l4xx_hal_spi.c ****   if ((HAL_IS_BIT_SET(hspi->Instance->CR2, SPI_CR2_TXDMAEN)) || (HAL_IS_BIT_SET(hspi->Instance->CR2
 3678              		.loc 1 1960 0
 3679 00ac 7B68     		ldr	r3, [r7, #4]
 3680 00ae 1B68     		ldr	r3, [r3]
 3681 00b0 5B68     		ldr	r3, [r3, #4]
 3682 00b2 03F00203 		and	r3, r3, #2
 3683 00b6 022B     		cmp	r3, #2
 3684 00b8 07D0     		beq	.L202
 3685              		.loc 1 1960 0 is_stmt 0 discriminator 1
 3686 00ba 7B68     		ldr	r3, [r7, #4]
 3687 00bc 1B68     		ldr	r3, [r3]
 3688 00be 5B68     		ldr	r3, [r3, #4]
 3689 00c0 03F00103 		and	r3, r3, #1
 3690 00c4 012B     		cmp	r3, #1
 3691 00c6 40F08680 		bne	.L203
 3692              	.L202:
1961:E:/LiteOS/LiteOS_Lab/drivers/third_party/ST/STM32L4xx_HAL_Driver/Src\stm32l4xx_hal_spi.c ****   {
1962:E:/LiteOS/LiteOS_Lab/drivers/third_party/ST/STM32L4xx_HAL_Driver/Src\stm32l4xx_hal_spi.c ****     /* Abort the SPI DMA Tx Stream/Channel : use blocking DMA Abort API (no callback) */
1963:E:/LiteOS/LiteOS_Lab/drivers/third_party/ST/STM32L4xx_HAL_Driver/Src\stm32l4xx_hal_spi.c ****     if (hspi->hdmatx != NULL)
 3693              		.loc 1 1963 0 is_stmt 1
 3694 00ca 7B68     		ldr	r3, [r7, #4]
 3695 00cc 5B6D     		ldr	r3, [r3, #84]
 3696 00ce 002B     		cmp	r3, #0
 3697 00d0 3DD0     		beq	.L204
1964:E:/LiteOS/LiteOS_Lab/drivers/third_party/ST/STM32L4xx_HAL_Driver/Src\stm32l4xx_hal_spi.c ****     {
1965:E:/LiteOS/LiteOS_Lab/drivers/third_party/ST/STM32L4xx_HAL_Driver/Src\stm32l4xx_hal_spi.c ****       /* Set the SPI DMA Abort callback :
ARM GAS  C:\Users\user\AppData\Local\Temp\ccvQ1M9B.s 			page 100


1966:E:/LiteOS/LiteOS_Lab/drivers/third_party/ST/STM32L4xx_HAL_Driver/Src\stm32l4xx_hal_spi.c ****       will lead to call HAL_SPI_AbortCpltCallback() at end of DMA abort procedure */
1967:E:/LiteOS/LiteOS_Lab/drivers/third_party/ST/STM32L4xx_HAL_Driver/Src\stm32l4xx_hal_spi.c ****       hspi->hdmatx->XferAbortCallback = NULL;
 3698              		.loc 1 1967 0
 3699 00d2 7B68     		ldr	r3, [r7, #4]
 3700 00d4 5B6D     		ldr	r3, [r3, #84]
 3701 00d6 0022     		movs	r2, #0
 3702 00d8 9A63     		str	r2, [r3, #56]
1968:E:/LiteOS/LiteOS_Lab/drivers/third_party/ST/STM32L4xx_HAL_Driver/Src\stm32l4xx_hal_spi.c **** 
1969:E:/LiteOS/LiteOS_Lab/drivers/third_party/ST/STM32L4xx_HAL_Driver/Src\stm32l4xx_hal_spi.c ****       /* Abort DMA Tx Handle linked to SPI Peripheral */
1970:E:/LiteOS/LiteOS_Lab/drivers/third_party/ST/STM32L4xx_HAL_Driver/Src\stm32l4xx_hal_spi.c ****       if (HAL_DMA_Abort(hspi->hdmatx) != HAL_OK)
 3703              		.loc 1 1970 0
 3704 00da 7B68     		ldr	r3, [r7, #4]
 3705 00dc 5B6D     		ldr	r3, [r3, #84]
 3706 00de 1846     		mov	r0, r3
 3707 00e0 FFF7FEFF 		bl	HAL_DMA_Abort
 3708 00e4 0346     		mov	r3, r0
 3709 00e6 002B     		cmp	r3, #0
 3710 00e8 02D0     		beq	.L205
1971:E:/LiteOS/LiteOS_Lab/drivers/third_party/ST/STM32L4xx_HAL_Driver/Src\stm32l4xx_hal_spi.c ****       {
1972:E:/LiteOS/LiteOS_Lab/drivers/third_party/ST/STM32L4xx_HAL_Driver/Src\stm32l4xx_hal_spi.c ****         hspi->ErrorCode = HAL_SPI_ERROR_ABORT;
 3711              		.loc 1 1972 0
 3712 00ea 7B68     		ldr	r3, [r7, #4]
 3713 00ec 4022     		movs	r2, #64
 3714 00ee 1A66     		str	r2, [r3, #96]
 3715              	.L205:
1973:E:/LiteOS/LiteOS_Lab/drivers/third_party/ST/STM32L4xx_HAL_Driver/Src\stm32l4xx_hal_spi.c ****       }
1974:E:/LiteOS/LiteOS_Lab/drivers/third_party/ST/STM32L4xx_HAL_Driver/Src\stm32l4xx_hal_spi.c **** 
1975:E:/LiteOS/LiteOS_Lab/drivers/third_party/ST/STM32L4xx_HAL_Driver/Src\stm32l4xx_hal_spi.c ****       /* Disable Tx DMA Request */
1976:E:/LiteOS/LiteOS_Lab/drivers/third_party/ST/STM32L4xx_HAL_Driver/Src\stm32l4xx_hal_spi.c ****       CLEAR_BIT(hspi->Instance->CR2, (SPI_CR2_TXDMAEN));
 3716              		.loc 1 1976 0
 3717 00f0 7B68     		ldr	r3, [r7, #4]
 3718 00f2 1B68     		ldr	r3, [r3]
 3719 00f4 5A68     		ldr	r2, [r3, #4]
 3720 00f6 7B68     		ldr	r3, [r7, #4]
 3721 00f8 1B68     		ldr	r3, [r3]
 3722 00fa 22F00202 		bic	r2, r2, #2
 3723 00fe 5A60     		str	r2, [r3, #4]
1977:E:/LiteOS/LiteOS_Lab/drivers/third_party/ST/STM32L4xx_HAL_Driver/Src\stm32l4xx_hal_spi.c **** 
1978:E:/LiteOS/LiteOS_Lab/drivers/third_party/ST/STM32L4xx_HAL_Driver/Src\stm32l4xx_hal_spi.c ****       if (SPI_EndRxTxTransaction(hspi, SPI_DEFAULT_TIMEOUT, HAL_GetTick()) != HAL_OK)
 3724              		.loc 1 1978 0
 3725 0100 FFF7FEFF 		bl	HAL_GetTick
 3726 0104 0346     		mov	r3, r0
 3727 0106 1A46     		mov	r2, r3
 3728 0108 6421     		movs	r1, #100
 3729 010a 7868     		ldr	r0, [r7, #4]
 3730 010c FFF7FEFF 		bl	SPI_EndRxTxTransaction
 3731 0110 0346     		mov	r3, r0
 3732 0112 002B     		cmp	r3, #0
 3733 0114 02D0     		beq	.L206
1979:E:/LiteOS/LiteOS_Lab/drivers/third_party/ST/STM32L4xx_HAL_Driver/Src\stm32l4xx_hal_spi.c ****       {
1980:E:/LiteOS/LiteOS_Lab/drivers/third_party/ST/STM32L4xx_HAL_Driver/Src\stm32l4xx_hal_spi.c ****         hspi->ErrorCode = HAL_SPI_ERROR_ABORT;
 3734              		.loc 1 1980 0
 3735 0116 7B68     		ldr	r3, [r7, #4]
 3736 0118 4022     		movs	r2, #64
 3737 011a 1A66     		str	r2, [r3, #96]
 3738              	.L206:
1981:E:/LiteOS/LiteOS_Lab/drivers/third_party/ST/STM32L4xx_HAL_Driver/Src\stm32l4xx_hal_spi.c ****       }
ARM GAS  C:\Users\user\AppData\Local\Temp\ccvQ1M9B.s 			page 101


1982:E:/LiteOS/LiteOS_Lab/drivers/third_party/ST/STM32L4xx_HAL_Driver/Src\stm32l4xx_hal_spi.c **** 
1983:E:/LiteOS/LiteOS_Lab/drivers/third_party/ST/STM32L4xx_HAL_Driver/Src\stm32l4xx_hal_spi.c ****       /* Disable SPI Peripheral */
1984:E:/LiteOS/LiteOS_Lab/drivers/third_party/ST/STM32L4xx_HAL_Driver/Src\stm32l4xx_hal_spi.c ****       __HAL_SPI_DISABLE(hspi);
 3739              		.loc 1 1984 0
 3740 011c 7B68     		ldr	r3, [r7, #4]
 3741 011e 1B68     		ldr	r3, [r3]
 3742 0120 1A68     		ldr	r2, [r3]
 3743 0122 7B68     		ldr	r3, [r7, #4]
 3744 0124 1B68     		ldr	r3, [r3]
 3745 0126 22F04002 		bic	r2, r2, #64
 3746 012a 1A60     		str	r2, [r3]
1985:E:/LiteOS/LiteOS_Lab/drivers/third_party/ST/STM32L4xx_HAL_Driver/Src\stm32l4xx_hal_spi.c **** 
1986:E:/LiteOS/LiteOS_Lab/drivers/third_party/ST/STM32L4xx_HAL_Driver/Src\stm32l4xx_hal_spi.c ****       /* Empty the FRLVL fifo */
1987:E:/LiteOS/LiteOS_Lab/drivers/third_party/ST/STM32L4xx_HAL_Driver/Src\stm32l4xx_hal_spi.c ****       if (SPI_WaitFifoStateUntilTimeout(hspi, SPI_FLAG_FRLVL, SPI_FRLVL_EMPTY, SPI_DEFAULT_TIMEOUT,
 3747              		.loc 1 1987 0
 3748 012c FFF7FEFF 		bl	HAL_GetTick
 3749 0130 0346     		mov	r3, r0
 3750 0132 0093     		str	r3, [sp]
 3751 0134 6423     		movs	r3, #100
 3752 0136 0022     		movs	r2, #0
 3753 0138 4FF4C061 		mov	r1, #1536
 3754 013c 7868     		ldr	r0, [r7, #4]
 3755 013e FFF7FEFF 		bl	SPI_WaitFifoStateUntilTimeout
 3756 0142 0346     		mov	r3, r0
 3757 0144 002B     		cmp	r3, #0
 3758 0146 02D0     		beq	.L204
1988:E:/LiteOS/LiteOS_Lab/drivers/third_party/ST/STM32L4xx_HAL_Driver/Src\stm32l4xx_hal_spi.c ****       {
1989:E:/LiteOS/LiteOS_Lab/drivers/third_party/ST/STM32L4xx_HAL_Driver/Src\stm32l4xx_hal_spi.c ****         hspi->ErrorCode = HAL_SPI_ERROR_ABORT;
 3759              		.loc 1 1989 0
 3760 0148 7B68     		ldr	r3, [r7, #4]
 3761 014a 4022     		movs	r2, #64
 3762 014c 1A66     		str	r2, [r3, #96]
 3763              	.L204:
1990:E:/LiteOS/LiteOS_Lab/drivers/third_party/ST/STM32L4xx_HAL_Driver/Src\stm32l4xx_hal_spi.c ****       }
1991:E:/LiteOS/LiteOS_Lab/drivers/third_party/ST/STM32L4xx_HAL_Driver/Src\stm32l4xx_hal_spi.c ****     }
1992:E:/LiteOS/LiteOS_Lab/drivers/third_party/ST/STM32L4xx_HAL_Driver/Src\stm32l4xx_hal_spi.c ****     /* Abort the SPI DMA Rx Stream/Channel : use blocking DMA Abort API (no callback) */
1993:E:/LiteOS/LiteOS_Lab/drivers/third_party/ST/STM32L4xx_HAL_Driver/Src\stm32l4xx_hal_spi.c ****     if (hspi->hdmarx != NULL)
 3764              		.loc 1 1993 0
 3765 014e 7B68     		ldr	r3, [r7, #4]
 3766 0150 9B6D     		ldr	r3, [r3, #88]
 3767 0152 002B     		cmp	r3, #0
 3768 0154 3FD0     		beq	.L203
1994:E:/LiteOS/LiteOS_Lab/drivers/third_party/ST/STM32L4xx_HAL_Driver/Src\stm32l4xx_hal_spi.c ****     {
1995:E:/LiteOS/LiteOS_Lab/drivers/third_party/ST/STM32L4xx_HAL_Driver/Src\stm32l4xx_hal_spi.c ****       /* Set the SPI DMA Abort callback :
1996:E:/LiteOS/LiteOS_Lab/drivers/third_party/ST/STM32L4xx_HAL_Driver/Src\stm32l4xx_hal_spi.c ****       will lead to call HAL_SPI_AbortCpltCallback() at end of DMA abort procedure */
1997:E:/LiteOS/LiteOS_Lab/drivers/third_party/ST/STM32L4xx_HAL_Driver/Src\stm32l4xx_hal_spi.c ****       hspi->hdmarx->XferAbortCallback = NULL;
 3769              		.loc 1 1997 0
 3770 0156 7B68     		ldr	r3, [r7, #4]
 3771 0158 9B6D     		ldr	r3, [r3, #88]
 3772 015a 0022     		movs	r2, #0
 3773 015c 9A63     		str	r2, [r3, #56]
1998:E:/LiteOS/LiteOS_Lab/drivers/third_party/ST/STM32L4xx_HAL_Driver/Src\stm32l4xx_hal_spi.c **** 
1999:E:/LiteOS/LiteOS_Lab/drivers/third_party/ST/STM32L4xx_HAL_Driver/Src\stm32l4xx_hal_spi.c ****       /* Abort DMA Rx Handle linked to SPI Peripheral */
2000:E:/LiteOS/LiteOS_Lab/drivers/third_party/ST/STM32L4xx_HAL_Driver/Src\stm32l4xx_hal_spi.c ****       if (HAL_DMA_Abort(hspi->hdmarx) != HAL_OK)
 3774              		.loc 1 2000 0
 3775 015e 7B68     		ldr	r3, [r7, #4]
 3776 0160 9B6D     		ldr	r3, [r3, #88]
ARM GAS  C:\Users\user\AppData\Local\Temp\ccvQ1M9B.s 			page 102


 3777 0162 1846     		mov	r0, r3
 3778 0164 FFF7FEFF 		bl	HAL_DMA_Abort
 3779 0168 0346     		mov	r3, r0
 3780 016a 002B     		cmp	r3, #0
 3781 016c 02D0     		beq	.L207
2001:E:/LiteOS/LiteOS_Lab/drivers/third_party/ST/STM32L4xx_HAL_Driver/Src\stm32l4xx_hal_spi.c ****       {
2002:E:/LiteOS/LiteOS_Lab/drivers/third_party/ST/STM32L4xx_HAL_Driver/Src\stm32l4xx_hal_spi.c ****         hspi->ErrorCode = HAL_SPI_ERROR_ABORT;
 3782              		.loc 1 2002 0
 3783 016e 7B68     		ldr	r3, [r7, #4]
 3784 0170 4022     		movs	r2, #64
 3785 0172 1A66     		str	r2, [r3, #96]
 3786              	.L207:
2003:E:/LiteOS/LiteOS_Lab/drivers/third_party/ST/STM32L4xx_HAL_Driver/Src\stm32l4xx_hal_spi.c ****       }
2004:E:/LiteOS/LiteOS_Lab/drivers/third_party/ST/STM32L4xx_HAL_Driver/Src\stm32l4xx_hal_spi.c **** 
2005:E:/LiteOS/LiteOS_Lab/drivers/third_party/ST/STM32L4xx_HAL_Driver/Src\stm32l4xx_hal_spi.c ****       /* Disable peripheral */
2006:E:/LiteOS/LiteOS_Lab/drivers/third_party/ST/STM32L4xx_HAL_Driver/Src\stm32l4xx_hal_spi.c ****       __HAL_SPI_DISABLE(hspi);
 3787              		.loc 1 2006 0
 3788 0174 7B68     		ldr	r3, [r7, #4]
 3789 0176 1B68     		ldr	r3, [r3]
 3790 0178 1A68     		ldr	r2, [r3]
 3791 017a 7B68     		ldr	r3, [r7, #4]
 3792 017c 1B68     		ldr	r3, [r3]
 3793 017e 22F04002 		bic	r2, r2, #64
 3794 0182 1A60     		str	r2, [r3]
2007:E:/LiteOS/LiteOS_Lab/drivers/third_party/ST/STM32L4xx_HAL_Driver/Src\stm32l4xx_hal_spi.c **** 
2008:E:/LiteOS/LiteOS_Lab/drivers/third_party/ST/STM32L4xx_HAL_Driver/Src\stm32l4xx_hal_spi.c ****       /* Control the BSY flag */
2009:E:/LiteOS/LiteOS_Lab/drivers/third_party/ST/STM32L4xx_HAL_Driver/Src\stm32l4xx_hal_spi.c ****       if (SPI_WaitFlagStateUntilTimeout(hspi, SPI_FLAG_BSY, RESET, SPI_DEFAULT_TIMEOUT, HAL_GetTick
 3795              		.loc 1 2009 0
 3796 0184 FFF7FEFF 		bl	HAL_GetTick
 3797 0188 0346     		mov	r3, r0
 3798 018a 0093     		str	r3, [sp]
 3799 018c 6423     		movs	r3, #100
 3800 018e 0022     		movs	r2, #0
 3801 0190 8021     		movs	r1, #128
 3802 0192 7868     		ldr	r0, [r7, #4]
 3803 0194 FFF7FEFF 		bl	SPI_WaitFlagStateUntilTimeout
 3804 0198 0346     		mov	r3, r0
 3805 019a 002B     		cmp	r3, #0
 3806 019c 02D0     		beq	.L208
2010:E:/LiteOS/LiteOS_Lab/drivers/third_party/ST/STM32L4xx_HAL_Driver/Src\stm32l4xx_hal_spi.c ****       {
2011:E:/LiteOS/LiteOS_Lab/drivers/third_party/ST/STM32L4xx_HAL_Driver/Src\stm32l4xx_hal_spi.c ****         hspi->ErrorCode = HAL_SPI_ERROR_ABORT;
 3807              		.loc 1 2011 0
 3808 019e 7B68     		ldr	r3, [r7, #4]
 3809 01a0 4022     		movs	r2, #64
 3810 01a2 1A66     		str	r2, [r3, #96]
 3811              	.L208:
2012:E:/LiteOS/LiteOS_Lab/drivers/third_party/ST/STM32L4xx_HAL_Driver/Src\stm32l4xx_hal_spi.c ****       }
2013:E:/LiteOS/LiteOS_Lab/drivers/third_party/ST/STM32L4xx_HAL_Driver/Src\stm32l4xx_hal_spi.c **** 
2014:E:/LiteOS/LiteOS_Lab/drivers/third_party/ST/STM32L4xx_HAL_Driver/Src\stm32l4xx_hal_spi.c ****       /* Empty the FRLVL fifo */
2015:E:/LiteOS/LiteOS_Lab/drivers/third_party/ST/STM32L4xx_HAL_Driver/Src\stm32l4xx_hal_spi.c ****       if (SPI_WaitFifoStateUntilTimeout(hspi, SPI_FLAG_FRLVL, SPI_FRLVL_EMPTY, SPI_DEFAULT_TIMEOUT,
 3812              		.loc 1 2015 0
 3813 01a4 FFF7FEFF 		bl	HAL_GetTick
 3814 01a8 0346     		mov	r3, r0
 3815 01aa 0093     		str	r3, [sp]
 3816 01ac 6423     		movs	r3, #100
 3817 01ae 0022     		movs	r2, #0
 3818 01b0 4FF4C061 		mov	r1, #1536
ARM GAS  C:\Users\user\AppData\Local\Temp\ccvQ1M9B.s 			page 103


 3819 01b4 7868     		ldr	r0, [r7, #4]
 3820 01b6 FFF7FEFF 		bl	SPI_WaitFifoStateUntilTimeout
 3821 01ba 0346     		mov	r3, r0
 3822 01bc 002B     		cmp	r3, #0
 3823 01be 02D0     		beq	.L209
2016:E:/LiteOS/LiteOS_Lab/drivers/third_party/ST/STM32L4xx_HAL_Driver/Src\stm32l4xx_hal_spi.c ****       {
2017:E:/LiteOS/LiteOS_Lab/drivers/third_party/ST/STM32L4xx_HAL_Driver/Src\stm32l4xx_hal_spi.c ****         hspi->ErrorCode = HAL_SPI_ERROR_ABORT;
 3824              		.loc 1 2017 0
 3825 01c0 7B68     		ldr	r3, [r7, #4]
 3826 01c2 4022     		movs	r2, #64
 3827 01c4 1A66     		str	r2, [r3, #96]
 3828              	.L209:
2018:E:/LiteOS/LiteOS_Lab/drivers/third_party/ST/STM32L4xx_HAL_Driver/Src\stm32l4xx_hal_spi.c ****       }
2019:E:/LiteOS/LiteOS_Lab/drivers/third_party/ST/STM32L4xx_HAL_Driver/Src\stm32l4xx_hal_spi.c **** 
2020:E:/LiteOS/LiteOS_Lab/drivers/third_party/ST/STM32L4xx_HAL_Driver/Src\stm32l4xx_hal_spi.c ****       /* Disable Rx DMA Request */
2021:E:/LiteOS/LiteOS_Lab/drivers/third_party/ST/STM32L4xx_HAL_Driver/Src\stm32l4xx_hal_spi.c ****       CLEAR_BIT(hspi->Instance->CR2, (SPI_CR2_RXDMAEN));
 3829              		.loc 1 2021 0
 3830 01c6 7B68     		ldr	r3, [r7, #4]
 3831 01c8 1B68     		ldr	r3, [r3]
 3832 01ca 5A68     		ldr	r2, [r3, #4]
 3833 01cc 7B68     		ldr	r3, [r7, #4]
 3834 01ce 1B68     		ldr	r3, [r3]
 3835 01d0 22F00102 		bic	r2, r2, #1
 3836 01d4 5A60     		str	r2, [r3, #4]
 3837              	.L203:
2022:E:/LiteOS/LiteOS_Lab/drivers/third_party/ST/STM32L4xx_HAL_Driver/Src\stm32l4xx_hal_spi.c ****     }
2023:E:/LiteOS/LiteOS_Lab/drivers/third_party/ST/STM32L4xx_HAL_Driver/Src\stm32l4xx_hal_spi.c ****   }
2024:E:/LiteOS/LiteOS_Lab/drivers/third_party/ST/STM32L4xx_HAL_Driver/Src\stm32l4xx_hal_spi.c ****   /* Reset Tx and Rx transfer counters */
2025:E:/LiteOS/LiteOS_Lab/drivers/third_party/ST/STM32L4xx_HAL_Driver/Src\stm32l4xx_hal_spi.c ****   hspi->RxXferCount = 0U;
 3838              		.loc 1 2025 0
 3839 01d6 7B68     		ldr	r3, [r7, #4]
 3840 01d8 0022     		movs	r2, #0
 3841 01da A3F84620 		strh	r2, [r3, #70]	@ movhi
2026:E:/LiteOS/LiteOS_Lab/drivers/third_party/ST/STM32L4xx_HAL_Driver/Src\stm32l4xx_hal_spi.c ****   hspi->TxXferCount = 0U;
 3842              		.loc 1 2026 0
 3843 01de 7B68     		ldr	r3, [r7, #4]
 3844 01e0 0022     		movs	r2, #0
 3845 01e2 DA87     		strh	r2, [r3, #62]	@ movhi
2027:E:/LiteOS/LiteOS_Lab/drivers/third_party/ST/STM32L4xx_HAL_Driver/Src\stm32l4xx_hal_spi.c **** 
2028:E:/LiteOS/LiteOS_Lab/drivers/third_party/ST/STM32L4xx_HAL_Driver/Src\stm32l4xx_hal_spi.c ****   /* Check error during Abort procedure */
2029:E:/LiteOS/LiteOS_Lab/drivers/third_party/ST/STM32L4xx_HAL_Driver/Src\stm32l4xx_hal_spi.c ****   if (hspi->ErrorCode == HAL_SPI_ERROR_ABORT)
 3846              		.loc 1 2029 0
 3847 01e4 7B68     		ldr	r3, [r7, #4]
 3848 01e6 1B6E     		ldr	r3, [r3, #96]
 3849 01e8 402B     		cmp	r3, #64
 3850 01ea 02D1     		bne	.L210
2030:E:/LiteOS/LiteOS_Lab/drivers/third_party/ST/STM32L4xx_HAL_Driver/Src\stm32l4xx_hal_spi.c ****   {
2031:E:/LiteOS/LiteOS_Lab/drivers/third_party/ST/STM32L4xx_HAL_Driver/Src\stm32l4xx_hal_spi.c ****     /* return HAL_Error in case of error during Abort procedure */
2032:E:/LiteOS/LiteOS_Lab/drivers/third_party/ST/STM32L4xx_HAL_Driver/Src\stm32l4xx_hal_spi.c ****     errorcode = HAL_ERROR;
 3851              		.loc 1 2032 0
 3852 01ec 0123     		movs	r3, #1
 3853 01ee FB77     		strb	r3, [r7, #31]
 3854 01f0 02E0     		b	.L211
 3855              	.L210:
2033:E:/LiteOS/LiteOS_Lab/drivers/third_party/ST/STM32L4xx_HAL_Driver/Src\stm32l4xx_hal_spi.c ****   }
2034:E:/LiteOS/LiteOS_Lab/drivers/third_party/ST/STM32L4xx_HAL_Driver/Src\stm32l4xx_hal_spi.c ****   else
2035:E:/LiteOS/LiteOS_Lab/drivers/third_party/ST/STM32L4xx_HAL_Driver/Src\stm32l4xx_hal_spi.c ****   {
ARM GAS  C:\Users\user\AppData\Local\Temp\ccvQ1M9B.s 			page 104


2036:E:/LiteOS/LiteOS_Lab/drivers/third_party/ST/STM32L4xx_HAL_Driver/Src\stm32l4xx_hal_spi.c ****     /* Reset errorCode */
2037:E:/LiteOS/LiteOS_Lab/drivers/third_party/ST/STM32L4xx_HAL_Driver/Src\stm32l4xx_hal_spi.c ****     hspi->ErrorCode = HAL_SPI_ERROR_NONE;
 3856              		.loc 1 2037 0
 3857 01f2 7B68     		ldr	r3, [r7, #4]
 3858 01f4 0022     		movs	r2, #0
 3859 01f6 1A66     		str	r2, [r3, #96]
 3860              	.L211:
 3861              	.LBB3:
2038:E:/LiteOS/LiteOS_Lab/drivers/third_party/ST/STM32L4xx_HAL_Driver/Src\stm32l4xx_hal_spi.c ****   }
2039:E:/LiteOS/LiteOS_Lab/drivers/third_party/ST/STM32L4xx_HAL_Driver/Src\stm32l4xx_hal_spi.c **** 
2040:E:/LiteOS/LiteOS_Lab/drivers/third_party/ST/STM32L4xx_HAL_Driver/Src\stm32l4xx_hal_spi.c ****   /* Clear the Error flags in the SR register */
2041:E:/LiteOS/LiteOS_Lab/drivers/third_party/ST/STM32L4xx_HAL_Driver/Src\stm32l4xx_hal_spi.c ****   __HAL_SPI_CLEAR_OVRFLAG(hspi);
 3862              		.loc 1 2041 0
 3863 01f8 0023     		movs	r3, #0
 3864 01fa 3B61     		str	r3, [r7, #16]
 3865 01fc 7B68     		ldr	r3, [r7, #4]
 3866 01fe 1B68     		ldr	r3, [r3]
 3867 0200 DB68     		ldr	r3, [r3, #12]
 3868 0202 3B61     		str	r3, [r7, #16]
 3869 0204 7B68     		ldr	r3, [r7, #4]
 3870 0206 1B68     		ldr	r3, [r3]
 3871 0208 9B68     		ldr	r3, [r3, #8]
 3872 020a 3B61     		str	r3, [r7, #16]
 3873 020c 3B69     		ldr	r3, [r7, #16]
 3874              	.LBE3:
 3875              	.LBB4:
2042:E:/LiteOS/LiteOS_Lab/drivers/third_party/ST/STM32L4xx_HAL_Driver/Src\stm32l4xx_hal_spi.c ****   __HAL_SPI_CLEAR_FREFLAG(hspi);
 3876              		.loc 1 2042 0
 3877 020e 0023     		movs	r3, #0
 3878 0210 FB60     		str	r3, [r7, #12]
 3879 0212 7B68     		ldr	r3, [r7, #4]
 3880 0214 1B68     		ldr	r3, [r3]
 3881 0216 9B68     		ldr	r3, [r3, #8]
 3882 0218 FB60     		str	r3, [r7, #12]
 3883 021a FB68     		ldr	r3, [r7, #12]
 3884              	.LBE4:
2043:E:/LiteOS/LiteOS_Lab/drivers/third_party/ST/STM32L4xx_HAL_Driver/Src\stm32l4xx_hal_spi.c **** 
2044:E:/LiteOS/LiteOS_Lab/drivers/third_party/ST/STM32L4xx_HAL_Driver/Src\stm32l4xx_hal_spi.c ****   /* Restore hspi->state to ready */
2045:E:/LiteOS/LiteOS_Lab/drivers/third_party/ST/STM32L4xx_HAL_Driver/Src\stm32l4xx_hal_spi.c ****   hspi->State = HAL_SPI_STATE_READY;
 3885              		.loc 1 2045 0
 3886 021c 7B68     		ldr	r3, [r7, #4]
 3887 021e 0122     		movs	r2, #1
 3888 0220 83F85D20 		strb	r2, [r3, #93]
2046:E:/LiteOS/LiteOS_Lab/drivers/third_party/ST/STM32L4xx_HAL_Driver/Src\stm32l4xx_hal_spi.c **** 
2047:E:/LiteOS/LiteOS_Lab/drivers/third_party/ST/STM32L4xx_HAL_Driver/Src\stm32l4xx_hal_spi.c ****   return errorcode;
 3889              		.loc 1 2047 0
 3890 0224 FB7F     		ldrb	r3, [r7, #31]	@ zero_extendqisi2
2048:E:/LiteOS/LiteOS_Lab/drivers/third_party/ST/STM32L4xx_HAL_Driver/Src\stm32l4xx_hal_spi.c **** }
 3891              		.loc 1 2048 0
 3892 0226 1846     		mov	r0, r3
 3893 0228 2037     		adds	r7, r7, #32
 3894              	.LCFI72:
 3895              		.cfi_def_cfa_offset 8
 3896 022a BD46     		mov	sp, r7
 3897              	.LCFI73:
 3898              		.cfi_def_cfa_register 13
 3899              		@ sp needed
ARM GAS  C:\Users\user\AppData\Local\Temp\ccvQ1M9B.s 			page 105


 3900 022c 80BD     		pop	{r7, pc}
 3901              	.L214:
 3902 022e 00BF     		.align	2
 3903              	.L213:
 3904 0230 00000000 		.word	SystemCoreClock
 3905 0234 F1197605 		.word	91625969
 3906 0238 00000000 		.word	SPI_AbortTx_ISR
 3907 023c 00000000 		.word	SPI_AbortRx_ISR
 3908              		.cfi_endproc
 3909              	.LFE146:
 3911              		.section	.text.HAL_SPI_Abort_IT,"ax",%progbits
 3912              		.align	1
 3913              		.global	HAL_SPI_Abort_IT
 3914              		.syntax unified
 3915              		.thumb
 3916              		.thumb_func
 3917              		.fpu fpv4-sp-d16
 3919              	HAL_SPI_Abort_IT:
 3920              	.LFB147:
2049:E:/LiteOS/LiteOS_Lab/drivers/third_party/ST/STM32L4xx_HAL_Driver/Src\stm32l4xx_hal_spi.c **** 
2050:E:/LiteOS/LiteOS_Lab/drivers/third_party/ST/STM32L4xx_HAL_Driver/Src\stm32l4xx_hal_spi.c **** /**
2051:E:/LiteOS/LiteOS_Lab/drivers/third_party/ST/STM32L4xx_HAL_Driver/Src\stm32l4xx_hal_spi.c ****   * @brief  Abort ongoing transfer (Interrupt mode).
2052:E:/LiteOS/LiteOS_Lab/drivers/third_party/ST/STM32L4xx_HAL_Driver/Src\stm32l4xx_hal_spi.c ****   * @param  hspi SPI handle.
2053:E:/LiteOS/LiteOS_Lab/drivers/third_party/ST/STM32L4xx_HAL_Driver/Src\stm32l4xx_hal_spi.c ****   * @note   This procedure could be used for aborting any ongoing transfer (Tx and Rx),
2054:E:/LiteOS/LiteOS_Lab/drivers/third_party/ST/STM32L4xx_HAL_Driver/Src\stm32l4xx_hal_spi.c ****   *         started in Interrupt or DMA mode.
2055:E:/LiteOS/LiteOS_Lab/drivers/third_party/ST/STM32L4xx_HAL_Driver/Src\stm32l4xx_hal_spi.c ****   *         This procedure performs following operations :
2056:E:/LiteOS/LiteOS_Lab/drivers/third_party/ST/STM32L4xx_HAL_Driver/Src\stm32l4xx_hal_spi.c ****   *           - Disable SPI Interrupts (depending of transfer direction)
2057:E:/LiteOS/LiteOS_Lab/drivers/third_party/ST/STM32L4xx_HAL_Driver/Src\stm32l4xx_hal_spi.c ****   *           - Disable the DMA transfer in the peripheral register (if enabled)
2058:E:/LiteOS/LiteOS_Lab/drivers/third_party/ST/STM32L4xx_HAL_Driver/Src\stm32l4xx_hal_spi.c ****   *           - Abort DMA transfer by calling HAL_DMA_Abort_IT (in case of transfer in DMA mode)
2059:E:/LiteOS/LiteOS_Lab/drivers/third_party/ST/STM32L4xx_HAL_Driver/Src\stm32l4xx_hal_spi.c ****   *           - Set handle State to READY
2060:E:/LiteOS/LiteOS_Lab/drivers/third_party/ST/STM32L4xx_HAL_Driver/Src\stm32l4xx_hal_spi.c ****   *           - At abort completion, call user abort complete callback
2061:E:/LiteOS/LiteOS_Lab/drivers/third_party/ST/STM32L4xx_HAL_Driver/Src\stm32l4xx_hal_spi.c ****   * @note   This procedure is executed in Interrupt mode, meaning that abort procedure could be
2062:E:/LiteOS/LiteOS_Lab/drivers/third_party/ST/STM32L4xx_HAL_Driver/Src\stm32l4xx_hal_spi.c ****   *         considered as completed only when user abort complete callback is executed (not when ex
2063:E:/LiteOS/LiteOS_Lab/drivers/third_party/ST/STM32L4xx_HAL_Driver/Src\stm32l4xx_hal_spi.c ****   * @retval HAL status
2064:E:/LiteOS/LiteOS_Lab/drivers/third_party/ST/STM32L4xx_HAL_Driver/Src\stm32l4xx_hal_spi.c **** */
2065:E:/LiteOS/LiteOS_Lab/drivers/third_party/ST/STM32L4xx_HAL_Driver/Src\stm32l4xx_hal_spi.c **** HAL_StatusTypeDef HAL_SPI_Abort_IT(SPI_HandleTypeDef *hspi)
2066:E:/LiteOS/LiteOS_Lab/drivers/third_party/ST/STM32L4xx_HAL_Driver/Src\stm32l4xx_hal_spi.c **** {
 3921              		.loc 1 2066 0
 3922              		.cfi_startproc
 3923              		@ args = 0, pretend = 0, frame = 32
 3924              		@ frame_needed = 1, uses_anonymous_args = 0
 3925 0000 80B5     		push	{r7, lr}
 3926              	.LCFI74:
 3927              		.cfi_def_cfa_offset 8
 3928              		.cfi_offset 7, -8
 3929              		.cfi_offset 14, -4
 3930 0002 88B0     		sub	sp, sp, #32
 3931              	.LCFI75:
 3932              		.cfi_def_cfa_offset 40
 3933 0004 00AF     		add	r7, sp, #0
 3934              	.LCFI76:
 3935              		.cfi_def_cfa_register 7
 3936 0006 7860     		str	r0, [r7, #4]
2067:E:/LiteOS/LiteOS_Lab/drivers/third_party/ST/STM32L4xx_HAL_Driver/Src\stm32l4xx_hal_spi.c ****   HAL_StatusTypeDef errorcode;
2068:E:/LiteOS/LiteOS_Lab/drivers/third_party/ST/STM32L4xx_HAL_Driver/Src\stm32l4xx_hal_spi.c ****   uint32_t abortcplt ;
2069:E:/LiteOS/LiteOS_Lab/drivers/third_party/ST/STM32L4xx_HAL_Driver/Src\stm32l4xx_hal_spi.c ****   __IO uint32_t count, resetcount;
2070:E:/LiteOS/LiteOS_Lab/drivers/third_party/ST/STM32L4xx_HAL_Driver/Src\stm32l4xx_hal_spi.c **** 
ARM GAS  C:\Users\user\AppData\Local\Temp\ccvQ1M9B.s 			page 106


2071:E:/LiteOS/LiteOS_Lab/drivers/third_party/ST/STM32L4xx_HAL_Driver/Src\stm32l4xx_hal_spi.c ****   /* Initialized local variable  */
2072:E:/LiteOS/LiteOS_Lab/drivers/third_party/ST/STM32L4xx_HAL_Driver/Src\stm32l4xx_hal_spi.c ****   errorcode = HAL_OK;
 3937              		.loc 1 2072 0
 3938 0008 0023     		movs	r3, #0
 3939 000a FB77     		strb	r3, [r7, #31]
2073:E:/LiteOS/LiteOS_Lab/drivers/third_party/ST/STM32L4xx_HAL_Driver/Src\stm32l4xx_hal_spi.c ****   abortcplt = 1U;
 3940              		.loc 1 2073 0
 3941 000c 0123     		movs	r3, #1
 3942 000e BB61     		str	r3, [r7, #24]
2074:E:/LiteOS/LiteOS_Lab/drivers/third_party/ST/STM32L4xx_HAL_Driver/Src\stm32l4xx_hal_spi.c ****   resetcount = SPI_DEFAULT_TIMEOUT * (SystemCoreClock / 24U / 1000U);
 3943              		.loc 1 2074 0
 3944 0010 8F4B     		ldr	r3, .L240
 3945 0012 1B68     		ldr	r3, [r3]
 3946 0014 8F4A     		ldr	r2, .L240+4
 3947 0016 A2FB0323 		umull	r2, r3, r2, r3
 3948 001a 5B0A     		lsrs	r3, r3, #9
 3949 001c 6422     		movs	r2, #100
 3950 001e 02FB03F3 		mul	r3, r2, r3
 3951 0022 3B61     		str	r3, [r7, #16]
2075:E:/LiteOS/LiteOS_Lab/drivers/third_party/ST/STM32L4xx_HAL_Driver/Src\stm32l4xx_hal_spi.c ****   count = resetcount;
 3952              		.loc 1 2075 0
 3953 0024 3B69     		ldr	r3, [r7, #16]
 3954 0026 7B61     		str	r3, [r7, #20]
2076:E:/LiteOS/LiteOS_Lab/drivers/third_party/ST/STM32L4xx_HAL_Driver/Src\stm32l4xx_hal_spi.c **** 
2077:E:/LiteOS/LiteOS_Lab/drivers/third_party/ST/STM32L4xx_HAL_Driver/Src\stm32l4xx_hal_spi.c ****   /* Change Rx and Tx Irq Handler to Disable TXEIE, RXNEIE and ERRIE interrupts */
2078:E:/LiteOS/LiteOS_Lab/drivers/third_party/ST/STM32L4xx_HAL_Driver/Src\stm32l4xx_hal_spi.c ****   if (HAL_IS_BIT_SET(hspi->Instance->CR2, SPI_CR2_TXEIE))
 3955              		.loc 1 2078 0
 3956 0028 7B68     		ldr	r3, [r7, #4]
 3957 002a 1B68     		ldr	r3, [r3]
 3958 002c 5B68     		ldr	r3, [r3, #4]
 3959 002e 03F08003 		and	r3, r3, #128
 3960 0032 802B     		cmp	r3, #128
 3961 0034 16D1     		bne	.L216
2079:E:/LiteOS/LiteOS_Lab/drivers/third_party/ST/STM32L4xx_HAL_Driver/Src\stm32l4xx_hal_spi.c ****   {
2080:E:/LiteOS/LiteOS_Lab/drivers/third_party/ST/STM32L4xx_HAL_Driver/Src\stm32l4xx_hal_spi.c ****     hspi->TxISR = SPI_AbortTx_ISR;
 3962              		.loc 1 2080 0
 3963 0036 7B68     		ldr	r3, [r7, #4]
 3964 0038 874A     		ldr	r2, .L240+8
 3965 003a 1A65     		str	r2, [r3, #80]
 3966              	.L219:
2081:E:/LiteOS/LiteOS_Lab/drivers/third_party/ST/STM32L4xx_HAL_Driver/Src\stm32l4xx_hal_spi.c ****     /* Wait HAL_SPI_STATE_ABORT state */
2082:E:/LiteOS/LiteOS_Lab/drivers/third_party/ST/STM32L4xx_HAL_Driver/Src\stm32l4xx_hal_spi.c ****     do
2083:E:/LiteOS/LiteOS_Lab/drivers/third_party/ST/STM32L4xx_HAL_Driver/Src\stm32l4xx_hal_spi.c ****     {
2084:E:/LiteOS/LiteOS_Lab/drivers/third_party/ST/STM32L4xx_HAL_Driver/Src\stm32l4xx_hal_spi.c ****       if (count-- == 0U)
 3967              		.loc 1 2084 0
 3968 003c 7B69     		ldr	r3, [r7, #20]
 3969 003e 5A1E     		subs	r2, r3, #1
 3970 0040 7A61     		str	r2, [r7, #20]
 3971 0042 002B     		cmp	r3, #0
 3972 0044 06D1     		bne	.L217
2085:E:/LiteOS/LiteOS_Lab/drivers/third_party/ST/STM32L4xx_HAL_Driver/Src\stm32l4xx_hal_spi.c ****       {
2086:E:/LiteOS/LiteOS_Lab/drivers/third_party/ST/STM32L4xx_HAL_Driver/Src\stm32l4xx_hal_spi.c ****         SET_BIT(hspi->ErrorCode, HAL_SPI_ERROR_ABORT);
 3973              		.loc 1 2086 0
 3974 0046 7B68     		ldr	r3, [r7, #4]
 3975 0048 1B6E     		ldr	r3, [r3, #96]
 3976 004a 43F04002 		orr	r2, r3, #64
 3977 004e 7B68     		ldr	r3, [r7, #4]
ARM GAS  C:\Users\user\AppData\Local\Temp\ccvQ1M9B.s 			page 107


 3978 0050 1A66     		str	r2, [r3, #96]
2087:E:/LiteOS/LiteOS_Lab/drivers/third_party/ST/STM32L4xx_HAL_Driver/Src\stm32l4xx_hal_spi.c ****         break;
 3979              		.loc 1 2087 0
 3980 0052 05E0     		b	.L218
 3981              	.L217:
2088:E:/LiteOS/LiteOS_Lab/drivers/third_party/ST/STM32L4xx_HAL_Driver/Src\stm32l4xx_hal_spi.c ****       }
2089:E:/LiteOS/LiteOS_Lab/drivers/third_party/ST/STM32L4xx_HAL_Driver/Src\stm32l4xx_hal_spi.c ****     }
2090:E:/LiteOS/LiteOS_Lab/drivers/third_party/ST/STM32L4xx_HAL_Driver/Src\stm32l4xx_hal_spi.c ****     while (hspi->State != HAL_SPI_STATE_ABORT);
 3982              		.loc 1 2090 0
 3983 0054 7B68     		ldr	r3, [r7, #4]
 3984 0056 93F85D30 		ldrb	r3, [r3, #93]
 3985 005a DBB2     		uxtb	r3, r3
 3986 005c 072B     		cmp	r3, #7
 3987 005e EDD1     		bne	.L219
 3988              	.L218:
2091:E:/LiteOS/LiteOS_Lab/drivers/third_party/ST/STM32L4xx_HAL_Driver/Src\stm32l4xx_hal_spi.c ****     /* Reset Timeout Counter */
2092:E:/LiteOS/LiteOS_Lab/drivers/third_party/ST/STM32L4xx_HAL_Driver/Src\stm32l4xx_hal_spi.c ****     count = resetcount;
 3989              		.loc 1 2092 0
 3990 0060 3B69     		ldr	r3, [r7, #16]
 3991 0062 7B61     		str	r3, [r7, #20]
 3992              	.L216:
2093:E:/LiteOS/LiteOS_Lab/drivers/third_party/ST/STM32L4xx_HAL_Driver/Src\stm32l4xx_hal_spi.c ****   }
2094:E:/LiteOS/LiteOS_Lab/drivers/third_party/ST/STM32L4xx_HAL_Driver/Src\stm32l4xx_hal_spi.c **** 
2095:E:/LiteOS/LiteOS_Lab/drivers/third_party/ST/STM32L4xx_HAL_Driver/Src\stm32l4xx_hal_spi.c ****   if (HAL_IS_BIT_SET(hspi->Instance->CR2, SPI_CR2_RXNEIE))
 3993              		.loc 1 2095 0
 3994 0064 7B68     		ldr	r3, [r7, #4]
 3995 0066 1B68     		ldr	r3, [r3]
 3996 0068 5B68     		ldr	r3, [r3, #4]
 3997 006a 03F04003 		and	r3, r3, #64
 3998 006e 402B     		cmp	r3, #64
 3999 0070 16D1     		bne	.L220
2096:E:/LiteOS/LiteOS_Lab/drivers/third_party/ST/STM32L4xx_HAL_Driver/Src\stm32l4xx_hal_spi.c ****   {
2097:E:/LiteOS/LiteOS_Lab/drivers/third_party/ST/STM32L4xx_HAL_Driver/Src\stm32l4xx_hal_spi.c ****     hspi->RxISR = SPI_AbortRx_ISR;
 4000              		.loc 1 2097 0
 4001 0072 7B68     		ldr	r3, [r7, #4]
 4002 0074 794A     		ldr	r2, .L240+12
 4003 0076 DA64     		str	r2, [r3, #76]
 4004              	.L223:
2098:E:/LiteOS/LiteOS_Lab/drivers/third_party/ST/STM32L4xx_HAL_Driver/Src\stm32l4xx_hal_spi.c ****     /* Wait HAL_SPI_STATE_ABORT state */
2099:E:/LiteOS/LiteOS_Lab/drivers/third_party/ST/STM32L4xx_HAL_Driver/Src\stm32l4xx_hal_spi.c ****     do
2100:E:/LiteOS/LiteOS_Lab/drivers/third_party/ST/STM32L4xx_HAL_Driver/Src\stm32l4xx_hal_spi.c ****     {
2101:E:/LiteOS/LiteOS_Lab/drivers/third_party/ST/STM32L4xx_HAL_Driver/Src\stm32l4xx_hal_spi.c ****       if (count-- == 0U)
 4005              		.loc 1 2101 0
 4006 0078 7B69     		ldr	r3, [r7, #20]
 4007 007a 5A1E     		subs	r2, r3, #1
 4008 007c 7A61     		str	r2, [r7, #20]
 4009 007e 002B     		cmp	r3, #0
 4010 0080 06D1     		bne	.L221
2102:E:/LiteOS/LiteOS_Lab/drivers/third_party/ST/STM32L4xx_HAL_Driver/Src\stm32l4xx_hal_spi.c ****       {
2103:E:/LiteOS/LiteOS_Lab/drivers/third_party/ST/STM32L4xx_HAL_Driver/Src\stm32l4xx_hal_spi.c ****         SET_BIT(hspi->ErrorCode, HAL_SPI_ERROR_ABORT);
 4011              		.loc 1 2103 0
 4012 0082 7B68     		ldr	r3, [r7, #4]
 4013 0084 1B6E     		ldr	r3, [r3, #96]
 4014 0086 43F04002 		orr	r2, r3, #64
 4015 008a 7B68     		ldr	r3, [r7, #4]
 4016 008c 1A66     		str	r2, [r3, #96]
2104:E:/LiteOS/LiteOS_Lab/drivers/third_party/ST/STM32L4xx_HAL_Driver/Src\stm32l4xx_hal_spi.c ****         break;
ARM GAS  C:\Users\user\AppData\Local\Temp\ccvQ1M9B.s 			page 108


 4017              		.loc 1 2104 0
 4018 008e 05E0     		b	.L222
 4019              	.L221:
2105:E:/LiteOS/LiteOS_Lab/drivers/third_party/ST/STM32L4xx_HAL_Driver/Src\stm32l4xx_hal_spi.c ****       }
2106:E:/LiteOS/LiteOS_Lab/drivers/third_party/ST/STM32L4xx_HAL_Driver/Src\stm32l4xx_hal_spi.c ****     }
2107:E:/LiteOS/LiteOS_Lab/drivers/third_party/ST/STM32L4xx_HAL_Driver/Src\stm32l4xx_hal_spi.c ****     while (hspi->State != HAL_SPI_STATE_ABORT);
 4020              		.loc 1 2107 0
 4021 0090 7B68     		ldr	r3, [r7, #4]
 4022 0092 93F85D30 		ldrb	r3, [r3, #93]
 4023 0096 DBB2     		uxtb	r3, r3
 4024 0098 072B     		cmp	r3, #7
 4025 009a EDD1     		bne	.L223
 4026              	.L222:
2108:E:/LiteOS/LiteOS_Lab/drivers/third_party/ST/STM32L4xx_HAL_Driver/Src\stm32l4xx_hal_spi.c ****     /* Reset Timeout Counter */
2109:E:/LiteOS/LiteOS_Lab/drivers/third_party/ST/STM32L4xx_HAL_Driver/Src\stm32l4xx_hal_spi.c ****     count = resetcount;
 4027              		.loc 1 2109 0
 4028 009c 3B69     		ldr	r3, [r7, #16]
 4029 009e 7B61     		str	r3, [r7, #20]
 4030              	.L220:
2110:E:/LiteOS/LiteOS_Lab/drivers/third_party/ST/STM32L4xx_HAL_Driver/Src\stm32l4xx_hal_spi.c ****   }
2111:E:/LiteOS/LiteOS_Lab/drivers/third_party/ST/STM32L4xx_HAL_Driver/Src\stm32l4xx_hal_spi.c **** 
2112:E:/LiteOS/LiteOS_Lab/drivers/third_party/ST/STM32L4xx_HAL_Driver/Src\stm32l4xx_hal_spi.c ****   /* Clear ERRIE interrupts in case of DMA Mode */
2113:E:/LiteOS/LiteOS_Lab/drivers/third_party/ST/STM32L4xx_HAL_Driver/Src\stm32l4xx_hal_spi.c ****   CLEAR_BIT(hspi->Instance->CR2, SPI_CR2_ERRIE);
 4031              		.loc 1 2113 0
 4032 00a0 7B68     		ldr	r3, [r7, #4]
 4033 00a2 1B68     		ldr	r3, [r3]
 4034 00a4 5A68     		ldr	r2, [r3, #4]
 4035 00a6 7B68     		ldr	r3, [r7, #4]
 4036 00a8 1B68     		ldr	r3, [r3]
 4037 00aa 22F02002 		bic	r2, r2, #32
 4038 00ae 5A60     		str	r2, [r3, #4]
2114:E:/LiteOS/LiteOS_Lab/drivers/third_party/ST/STM32L4xx_HAL_Driver/Src\stm32l4xx_hal_spi.c **** 
2115:E:/LiteOS/LiteOS_Lab/drivers/third_party/ST/STM32L4xx_HAL_Driver/Src\stm32l4xx_hal_spi.c ****   /* If DMA Tx and/or DMA Rx Handles are associated to SPI Handle, DMA Abort complete callbacks sho
2116:E:/LiteOS/LiteOS_Lab/drivers/third_party/ST/STM32L4xx_HAL_Driver/Src\stm32l4xx_hal_spi.c ****      before any call to DMA Abort functions */
2117:E:/LiteOS/LiteOS_Lab/drivers/third_party/ST/STM32L4xx_HAL_Driver/Src\stm32l4xx_hal_spi.c ****   /* DMA Tx Handle is valid */
2118:E:/LiteOS/LiteOS_Lab/drivers/third_party/ST/STM32L4xx_HAL_Driver/Src\stm32l4xx_hal_spi.c ****   if (hspi->hdmatx != NULL)
 4039              		.loc 1 2118 0
 4040 00b0 7B68     		ldr	r3, [r7, #4]
 4041 00b2 5B6D     		ldr	r3, [r3, #84]
 4042 00b4 002B     		cmp	r3, #0
 4043 00b6 0FD0     		beq	.L224
2119:E:/LiteOS/LiteOS_Lab/drivers/third_party/ST/STM32L4xx_HAL_Driver/Src\stm32l4xx_hal_spi.c ****   {
2120:E:/LiteOS/LiteOS_Lab/drivers/third_party/ST/STM32L4xx_HAL_Driver/Src\stm32l4xx_hal_spi.c ****     /* Set DMA Abort Complete callback if UART DMA Tx request if enabled.
2121:E:/LiteOS/LiteOS_Lab/drivers/third_party/ST/STM32L4xx_HAL_Driver/Src\stm32l4xx_hal_spi.c ****        Otherwise, set it to NULL */
2122:E:/LiteOS/LiteOS_Lab/drivers/third_party/ST/STM32L4xx_HAL_Driver/Src\stm32l4xx_hal_spi.c ****     if (HAL_IS_BIT_SET(hspi->Instance->CR2, SPI_CR2_TXDMAEN))
 4044              		.loc 1 2122 0
 4045 00b8 7B68     		ldr	r3, [r7, #4]
 4046 00ba 1B68     		ldr	r3, [r3]
 4047 00bc 5B68     		ldr	r3, [r3, #4]
 4048 00be 03F00203 		and	r3, r3, #2
 4049 00c2 022B     		cmp	r3, #2
 4050 00c4 04D1     		bne	.L225
2123:E:/LiteOS/LiteOS_Lab/drivers/third_party/ST/STM32L4xx_HAL_Driver/Src\stm32l4xx_hal_spi.c ****     {
2124:E:/LiteOS/LiteOS_Lab/drivers/third_party/ST/STM32L4xx_HAL_Driver/Src\stm32l4xx_hal_spi.c ****       hspi->hdmatx->XferAbortCallback = SPI_DMATxAbortCallback;
 4051              		.loc 1 2124 0
 4052 00c6 7B68     		ldr	r3, [r7, #4]
 4053 00c8 5B6D     		ldr	r3, [r3, #84]
ARM GAS  C:\Users\user\AppData\Local\Temp\ccvQ1M9B.s 			page 109


 4054 00ca 654A     		ldr	r2, .L240+16
 4055 00cc 9A63     		str	r2, [r3, #56]
 4056 00ce 03E0     		b	.L224
 4057              	.L225:
2125:E:/LiteOS/LiteOS_Lab/drivers/third_party/ST/STM32L4xx_HAL_Driver/Src\stm32l4xx_hal_spi.c ****     }
2126:E:/LiteOS/LiteOS_Lab/drivers/third_party/ST/STM32L4xx_HAL_Driver/Src\stm32l4xx_hal_spi.c ****     else
2127:E:/LiteOS/LiteOS_Lab/drivers/third_party/ST/STM32L4xx_HAL_Driver/Src\stm32l4xx_hal_spi.c ****     {
2128:E:/LiteOS/LiteOS_Lab/drivers/third_party/ST/STM32L4xx_HAL_Driver/Src\stm32l4xx_hal_spi.c ****       hspi->hdmatx->XferAbortCallback = NULL;
 4058              		.loc 1 2128 0
 4059 00d0 7B68     		ldr	r3, [r7, #4]
 4060 00d2 5B6D     		ldr	r3, [r3, #84]
 4061 00d4 0022     		movs	r2, #0
 4062 00d6 9A63     		str	r2, [r3, #56]
 4063              	.L224:
2129:E:/LiteOS/LiteOS_Lab/drivers/third_party/ST/STM32L4xx_HAL_Driver/Src\stm32l4xx_hal_spi.c ****     }
2130:E:/LiteOS/LiteOS_Lab/drivers/third_party/ST/STM32L4xx_HAL_Driver/Src\stm32l4xx_hal_spi.c ****   }
2131:E:/LiteOS/LiteOS_Lab/drivers/third_party/ST/STM32L4xx_HAL_Driver/Src\stm32l4xx_hal_spi.c ****   /* DMA Rx Handle is valid */
2132:E:/LiteOS/LiteOS_Lab/drivers/third_party/ST/STM32L4xx_HAL_Driver/Src\stm32l4xx_hal_spi.c ****   if (hspi->hdmarx != NULL)
 4064              		.loc 1 2132 0
 4065 00d8 7B68     		ldr	r3, [r7, #4]
 4066 00da 9B6D     		ldr	r3, [r3, #88]
 4067 00dc 002B     		cmp	r3, #0
 4068 00de 0FD0     		beq	.L226
2133:E:/LiteOS/LiteOS_Lab/drivers/third_party/ST/STM32L4xx_HAL_Driver/Src\stm32l4xx_hal_spi.c ****   {
2134:E:/LiteOS/LiteOS_Lab/drivers/third_party/ST/STM32L4xx_HAL_Driver/Src\stm32l4xx_hal_spi.c ****     /* Set DMA Abort Complete callback if UART DMA Rx request if enabled.
2135:E:/LiteOS/LiteOS_Lab/drivers/third_party/ST/STM32L4xx_HAL_Driver/Src\stm32l4xx_hal_spi.c ****        Otherwise, set it to NULL */
2136:E:/LiteOS/LiteOS_Lab/drivers/third_party/ST/STM32L4xx_HAL_Driver/Src\stm32l4xx_hal_spi.c ****     if (HAL_IS_BIT_SET(hspi->Instance->CR2, SPI_CR2_RXDMAEN))
 4069              		.loc 1 2136 0
 4070 00e0 7B68     		ldr	r3, [r7, #4]
 4071 00e2 1B68     		ldr	r3, [r3]
 4072 00e4 5B68     		ldr	r3, [r3, #4]
 4073 00e6 03F00103 		and	r3, r3, #1
 4074 00ea 012B     		cmp	r3, #1
 4075 00ec 04D1     		bne	.L227
2137:E:/LiteOS/LiteOS_Lab/drivers/third_party/ST/STM32L4xx_HAL_Driver/Src\stm32l4xx_hal_spi.c ****     {
2138:E:/LiteOS/LiteOS_Lab/drivers/third_party/ST/STM32L4xx_HAL_Driver/Src\stm32l4xx_hal_spi.c ****       hspi->hdmarx->XferAbortCallback = SPI_DMARxAbortCallback;
 4076              		.loc 1 2138 0
 4077 00ee 7B68     		ldr	r3, [r7, #4]
 4078 00f0 9B6D     		ldr	r3, [r3, #88]
 4079 00f2 5C4A     		ldr	r2, .L240+20
 4080 00f4 9A63     		str	r2, [r3, #56]
 4081 00f6 03E0     		b	.L226
 4082              	.L227:
2139:E:/LiteOS/LiteOS_Lab/drivers/third_party/ST/STM32L4xx_HAL_Driver/Src\stm32l4xx_hal_spi.c ****     }
2140:E:/LiteOS/LiteOS_Lab/drivers/third_party/ST/STM32L4xx_HAL_Driver/Src\stm32l4xx_hal_spi.c ****     else
2141:E:/LiteOS/LiteOS_Lab/drivers/third_party/ST/STM32L4xx_HAL_Driver/Src\stm32l4xx_hal_spi.c ****     {
2142:E:/LiteOS/LiteOS_Lab/drivers/third_party/ST/STM32L4xx_HAL_Driver/Src\stm32l4xx_hal_spi.c ****       hspi->hdmarx->XferAbortCallback = NULL;
 4083              		.loc 1 2142 0
 4084 00f8 7B68     		ldr	r3, [r7, #4]
 4085 00fa 9B6D     		ldr	r3, [r3, #88]
 4086 00fc 0022     		movs	r2, #0
 4087 00fe 9A63     		str	r2, [r3, #56]
 4088              	.L226:
2143:E:/LiteOS/LiteOS_Lab/drivers/third_party/ST/STM32L4xx_HAL_Driver/Src\stm32l4xx_hal_spi.c ****     }
2144:E:/LiteOS/LiteOS_Lab/drivers/third_party/ST/STM32L4xx_HAL_Driver/Src\stm32l4xx_hal_spi.c ****   }
2145:E:/LiteOS/LiteOS_Lab/drivers/third_party/ST/STM32L4xx_HAL_Driver/Src\stm32l4xx_hal_spi.c **** 
2146:E:/LiteOS/LiteOS_Lab/drivers/third_party/ST/STM32L4xx_HAL_Driver/Src\stm32l4xx_hal_spi.c ****   /* Disable the SPI DMA Tx or the SPI Rx request if enabled */
ARM GAS  C:\Users\user\AppData\Local\Temp\ccvQ1M9B.s 			page 110


2147:E:/LiteOS/LiteOS_Lab/drivers/third_party/ST/STM32L4xx_HAL_Driver/Src\stm32l4xx_hal_spi.c ****   if ((HAL_IS_BIT_SET(hspi->Instance->CR2, SPI_CR2_TXDMAEN)) && (HAL_IS_BIT_SET(hspi->Instance->CR2
 4089              		.loc 1 2147 0
 4090 0100 7B68     		ldr	r3, [r7, #4]
 4091 0102 1B68     		ldr	r3, [r3]
 4092 0104 5B68     		ldr	r3, [r3, #4]
 4093 0106 03F00203 		and	r3, r3, #2
 4094 010a 022B     		cmp	r3, #2
 4095 010c 34D1     		bne	.L228
 4096              		.loc 1 2147 0 is_stmt 0 discriminator 1
 4097 010e 7B68     		ldr	r3, [r7, #4]
 4098 0110 1B68     		ldr	r3, [r3]
 4099 0112 5B68     		ldr	r3, [r3, #4]
 4100 0114 03F00103 		and	r3, r3, #1
 4101 0118 012B     		cmp	r3, #1
 4102 011a 2DD1     		bne	.L228
2148:E:/LiteOS/LiteOS_Lab/drivers/third_party/ST/STM32L4xx_HAL_Driver/Src\stm32l4xx_hal_spi.c ****   {
2149:E:/LiteOS/LiteOS_Lab/drivers/third_party/ST/STM32L4xx_HAL_Driver/Src\stm32l4xx_hal_spi.c ****     /* Abort the SPI DMA Tx Stream/Channel */
2150:E:/LiteOS/LiteOS_Lab/drivers/third_party/ST/STM32L4xx_HAL_Driver/Src\stm32l4xx_hal_spi.c ****     if (hspi->hdmatx != NULL)
 4103              		.loc 1 2150 0 is_stmt 1
 4104 011c 7B68     		ldr	r3, [r7, #4]
 4105 011e 5B6D     		ldr	r3, [r3, #84]
 4106 0120 002B     		cmp	r3, #0
 4107 0122 11D0     		beq	.L229
2151:E:/LiteOS/LiteOS_Lab/drivers/third_party/ST/STM32L4xx_HAL_Driver/Src\stm32l4xx_hal_spi.c ****     {
2152:E:/LiteOS/LiteOS_Lab/drivers/third_party/ST/STM32L4xx_HAL_Driver/Src\stm32l4xx_hal_spi.c ****       /* Abort DMA Tx Handle linked to SPI Peripheral */
2153:E:/LiteOS/LiteOS_Lab/drivers/third_party/ST/STM32L4xx_HAL_Driver/Src\stm32l4xx_hal_spi.c ****       if (HAL_DMA_Abort_IT(hspi->hdmatx) != HAL_OK)
 4108              		.loc 1 2153 0
 4109 0124 7B68     		ldr	r3, [r7, #4]
 4110 0126 5B6D     		ldr	r3, [r3, #84]
 4111 0128 1846     		mov	r0, r3
 4112 012a FFF7FEFF 		bl	HAL_DMA_Abort_IT
 4113 012e 0346     		mov	r3, r0
 4114 0130 002B     		cmp	r3, #0
 4115 0132 07D0     		beq	.L230
2154:E:/LiteOS/LiteOS_Lab/drivers/third_party/ST/STM32L4xx_HAL_Driver/Src\stm32l4xx_hal_spi.c ****       {
2155:E:/LiteOS/LiteOS_Lab/drivers/third_party/ST/STM32L4xx_HAL_Driver/Src\stm32l4xx_hal_spi.c ****         hspi->hdmatx->XferAbortCallback = NULL;
 4116              		.loc 1 2155 0
 4117 0134 7B68     		ldr	r3, [r7, #4]
 4118 0136 5B6D     		ldr	r3, [r3, #84]
 4119 0138 0022     		movs	r2, #0
 4120 013a 9A63     		str	r2, [r3, #56]
2156:E:/LiteOS/LiteOS_Lab/drivers/third_party/ST/STM32L4xx_HAL_Driver/Src\stm32l4xx_hal_spi.c ****         hspi->ErrorCode = HAL_SPI_ERROR_ABORT;
 4121              		.loc 1 2156 0
 4122 013c 7B68     		ldr	r3, [r7, #4]
 4123 013e 4022     		movs	r2, #64
 4124 0140 1A66     		str	r2, [r3, #96]
 4125 0142 01E0     		b	.L229
 4126              	.L230:
2157:E:/LiteOS/LiteOS_Lab/drivers/third_party/ST/STM32L4xx_HAL_Driver/Src\stm32l4xx_hal_spi.c ****       }
2158:E:/LiteOS/LiteOS_Lab/drivers/third_party/ST/STM32L4xx_HAL_Driver/Src\stm32l4xx_hal_spi.c ****       else
2159:E:/LiteOS/LiteOS_Lab/drivers/third_party/ST/STM32L4xx_HAL_Driver/Src\stm32l4xx_hal_spi.c ****       {
2160:E:/LiteOS/LiteOS_Lab/drivers/third_party/ST/STM32L4xx_HAL_Driver/Src\stm32l4xx_hal_spi.c ****         abortcplt = 0U;
 4127              		.loc 1 2160 0
 4128 0144 0023     		movs	r3, #0
 4129 0146 BB61     		str	r3, [r7, #24]
 4130              	.L229:
2161:E:/LiteOS/LiteOS_Lab/drivers/third_party/ST/STM32L4xx_HAL_Driver/Src\stm32l4xx_hal_spi.c ****       }
ARM GAS  C:\Users\user\AppData\Local\Temp\ccvQ1M9B.s 			page 111


2162:E:/LiteOS/LiteOS_Lab/drivers/third_party/ST/STM32L4xx_HAL_Driver/Src\stm32l4xx_hal_spi.c ****     }
2163:E:/LiteOS/LiteOS_Lab/drivers/third_party/ST/STM32L4xx_HAL_Driver/Src\stm32l4xx_hal_spi.c ****     /* Abort the SPI DMA Rx Stream/Channel */
2164:E:/LiteOS/LiteOS_Lab/drivers/third_party/ST/STM32L4xx_HAL_Driver/Src\stm32l4xx_hal_spi.c ****     if (hspi->hdmarx != NULL)
 4131              		.loc 1 2164 0
 4132 0148 7B68     		ldr	r3, [r7, #4]
 4133 014a 9B6D     		ldr	r3, [r3, #88]
 4134 014c 002B     		cmp	r3, #0
 4135 014e 13D0     		beq	.L228
2165:E:/LiteOS/LiteOS_Lab/drivers/third_party/ST/STM32L4xx_HAL_Driver/Src\stm32l4xx_hal_spi.c ****     {
2166:E:/LiteOS/LiteOS_Lab/drivers/third_party/ST/STM32L4xx_HAL_Driver/Src\stm32l4xx_hal_spi.c ****       /* Abort DMA Rx Handle linked to SPI Peripheral */
2167:E:/LiteOS/LiteOS_Lab/drivers/third_party/ST/STM32L4xx_HAL_Driver/Src\stm32l4xx_hal_spi.c ****       if (HAL_DMA_Abort_IT(hspi->hdmarx) !=  HAL_OK)
 4136              		.loc 1 2167 0
 4137 0150 7B68     		ldr	r3, [r7, #4]
 4138 0152 9B6D     		ldr	r3, [r3, #88]
 4139 0154 1846     		mov	r0, r3
 4140 0156 FFF7FEFF 		bl	HAL_DMA_Abort_IT
 4141 015a 0346     		mov	r3, r0
 4142 015c 002B     		cmp	r3, #0
 4143 015e 09D0     		beq	.L231
2168:E:/LiteOS/LiteOS_Lab/drivers/third_party/ST/STM32L4xx_HAL_Driver/Src\stm32l4xx_hal_spi.c ****       {
2169:E:/LiteOS/LiteOS_Lab/drivers/third_party/ST/STM32L4xx_HAL_Driver/Src\stm32l4xx_hal_spi.c ****         hspi->hdmarx->XferAbortCallback = NULL;
 4144              		.loc 1 2169 0
 4145 0160 7B68     		ldr	r3, [r7, #4]
 4146 0162 9B6D     		ldr	r3, [r3, #88]
 4147 0164 0022     		movs	r2, #0
 4148 0166 9A63     		str	r2, [r3, #56]
2170:E:/LiteOS/LiteOS_Lab/drivers/third_party/ST/STM32L4xx_HAL_Driver/Src\stm32l4xx_hal_spi.c ****         hspi->ErrorCode = HAL_SPI_ERROR_ABORT;
 4149              		.loc 1 2170 0
 4150 0168 7B68     		ldr	r3, [r7, #4]
 4151 016a 4022     		movs	r2, #64
 4152 016c 1A66     		str	r2, [r3, #96]
2171:E:/LiteOS/LiteOS_Lab/drivers/third_party/ST/STM32L4xx_HAL_Driver/Src\stm32l4xx_hal_spi.c ****         abortcplt = 1U;
 4153              		.loc 1 2171 0
 4154 016e 0123     		movs	r3, #1
 4155 0170 BB61     		str	r3, [r7, #24]
 4156 0172 01E0     		b	.L228
 4157              	.L231:
2172:E:/LiteOS/LiteOS_Lab/drivers/third_party/ST/STM32L4xx_HAL_Driver/Src\stm32l4xx_hal_spi.c ****       }
2173:E:/LiteOS/LiteOS_Lab/drivers/third_party/ST/STM32L4xx_HAL_Driver/Src\stm32l4xx_hal_spi.c ****       else
2174:E:/LiteOS/LiteOS_Lab/drivers/third_party/ST/STM32L4xx_HAL_Driver/Src\stm32l4xx_hal_spi.c ****       {
2175:E:/LiteOS/LiteOS_Lab/drivers/third_party/ST/STM32L4xx_HAL_Driver/Src\stm32l4xx_hal_spi.c ****         abortcplt = 0U;
 4158              		.loc 1 2175 0
 4159 0174 0023     		movs	r3, #0
 4160 0176 BB61     		str	r3, [r7, #24]
 4161              	.L228:
2176:E:/LiteOS/LiteOS_Lab/drivers/third_party/ST/STM32L4xx_HAL_Driver/Src\stm32l4xx_hal_spi.c ****       }
2177:E:/LiteOS/LiteOS_Lab/drivers/third_party/ST/STM32L4xx_HAL_Driver/Src\stm32l4xx_hal_spi.c ****     }
2178:E:/LiteOS/LiteOS_Lab/drivers/third_party/ST/STM32L4xx_HAL_Driver/Src\stm32l4xx_hal_spi.c ****   }
2179:E:/LiteOS/LiteOS_Lab/drivers/third_party/ST/STM32L4xx_HAL_Driver/Src\stm32l4xx_hal_spi.c **** 
2180:E:/LiteOS/LiteOS_Lab/drivers/third_party/ST/STM32L4xx_HAL_Driver/Src\stm32l4xx_hal_spi.c ****   /* Disable the SPI DMA Tx or the SPI Rx request if enabled */
2181:E:/LiteOS/LiteOS_Lab/drivers/third_party/ST/STM32L4xx_HAL_Driver/Src\stm32l4xx_hal_spi.c ****   if (HAL_IS_BIT_SET(hspi->Instance->CR2, SPI_CR2_TXDMAEN))
 4162              		.loc 1 2181 0
 4163 0178 7B68     		ldr	r3, [r7, #4]
 4164 017a 1B68     		ldr	r3, [r3]
 4165 017c 5B68     		ldr	r3, [r3, #4]
 4166 017e 03F00203 		and	r3, r3, #2
 4167 0182 022B     		cmp	r3, #2
ARM GAS  C:\Users\user\AppData\Local\Temp\ccvQ1M9B.s 			page 112


 4168 0184 15D1     		bne	.L232
2182:E:/LiteOS/LiteOS_Lab/drivers/third_party/ST/STM32L4xx_HAL_Driver/Src\stm32l4xx_hal_spi.c ****   {
2183:E:/LiteOS/LiteOS_Lab/drivers/third_party/ST/STM32L4xx_HAL_Driver/Src\stm32l4xx_hal_spi.c ****     /* Abort the SPI DMA Tx Stream/Channel */
2184:E:/LiteOS/LiteOS_Lab/drivers/third_party/ST/STM32L4xx_HAL_Driver/Src\stm32l4xx_hal_spi.c ****     if (hspi->hdmatx != NULL)
 4169              		.loc 1 2184 0
 4170 0186 7B68     		ldr	r3, [r7, #4]
 4171 0188 5B6D     		ldr	r3, [r3, #84]
 4172 018a 002B     		cmp	r3, #0
 4173 018c 11D0     		beq	.L232
2185:E:/LiteOS/LiteOS_Lab/drivers/third_party/ST/STM32L4xx_HAL_Driver/Src\stm32l4xx_hal_spi.c ****     {
2186:E:/LiteOS/LiteOS_Lab/drivers/third_party/ST/STM32L4xx_HAL_Driver/Src\stm32l4xx_hal_spi.c ****       /* Abort DMA Tx Handle linked to SPI Peripheral */
2187:E:/LiteOS/LiteOS_Lab/drivers/third_party/ST/STM32L4xx_HAL_Driver/Src\stm32l4xx_hal_spi.c ****       if (HAL_DMA_Abort_IT(hspi->hdmatx) != HAL_OK)
 4174              		.loc 1 2187 0
 4175 018e 7B68     		ldr	r3, [r7, #4]
 4176 0190 5B6D     		ldr	r3, [r3, #84]
 4177 0192 1846     		mov	r0, r3
 4178 0194 FFF7FEFF 		bl	HAL_DMA_Abort_IT
 4179 0198 0346     		mov	r3, r0
 4180 019a 002B     		cmp	r3, #0
 4181 019c 07D0     		beq	.L233
2188:E:/LiteOS/LiteOS_Lab/drivers/third_party/ST/STM32L4xx_HAL_Driver/Src\stm32l4xx_hal_spi.c ****       {
2189:E:/LiteOS/LiteOS_Lab/drivers/third_party/ST/STM32L4xx_HAL_Driver/Src\stm32l4xx_hal_spi.c ****         hspi->hdmatx->XferAbortCallback = NULL;
 4182              		.loc 1 2189 0
 4183 019e 7B68     		ldr	r3, [r7, #4]
 4184 01a0 5B6D     		ldr	r3, [r3, #84]
 4185 01a2 0022     		movs	r2, #0
 4186 01a4 9A63     		str	r2, [r3, #56]
2190:E:/LiteOS/LiteOS_Lab/drivers/third_party/ST/STM32L4xx_HAL_Driver/Src\stm32l4xx_hal_spi.c ****         hspi->ErrorCode = HAL_SPI_ERROR_ABORT;
 4187              		.loc 1 2190 0
 4188 01a6 7B68     		ldr	r3, [r7, #4]
 4189 01a8 4022     		movs	r2, #64
 4190 01aa 1A66     		str	r2, [r3, #96]
 4191 01ac 01E0     		b	.L232
 4192              	.L233:
2191:E:/LiteOS/LiteOS_Lab/drivers/third_party/ST/STM32L4xx_HAL_Driver/Src\stm32l4xx_hal_spi.c ****       }
2192:E:/LiteOS/LiteOS_Lab/drivers/third_party/ST/STM32L4xx_HAL_Driver/Src\stm32l4xx_hal_spi.c ****       else
2193:E:/LiteOS/LiteOS_Lab/drivers/third_party/ST/STM32L4xx_HAL_Driver/Src\stm32l4xx_hal_spi.c ****       {
2194:E:/LiteOS/LiteOS_Lab/drivers/third_party/ST/STM32L4xx_HAL_Driver/Src\stm32l4xx_hal_spi.c ****         abortcplt = 0U;
 4193              		.loc 1 2194 0
 4194 01ae 0023     		movs	r3, #0
 4195 01b0 BB61     		str	r3, [r7, #24]
 4196              	.L232:
2195:E:/LiteOS/LiteOS_Lab/drivers/third_party/ST/STM32L4xx_HAL_Driver/Src\stm32l4xx_hal_spi.c ****       }
2196:E:/LiteOS/LiteOS_Lab/drivers/third_party/ST/STM32L4xx_HAL_Driver/Src\stm32l4xx_hal_spi.c ****     }
2197:E:/LiteOS/LiteOS_Lab/drivers/third_party/ST/STM32L4xx_HAL_Driver/Src\stm32l4xx_hal_spi.c ****   }
2198:E:/LiteOS/LiteOS_Lab/drivers/third_party/ST/STM32L4xx_HAL_Driver/Src\stm32l4xx_hal_spi.c ****   /* Disable the SPI DMA Tx or the SPI Rx request if enabled */
2199:E:/LiteOS/LiteOS_Lab/drivers/third_party/ST/STM32L4xx_HAL_Driver/Src\stm32l4xx_hal_spi.c ****   if (HAL_IS_BIT_SET(hspi->Instance->CR2, SPI_CR2_RXDMAEN))
 4197              		.loc 1 2199 0
 4198 01b2 7B68     		ldr	r3, [r7, #4]
 4199 01b4 1B68     		ldr	r3, [r3]
 4200 01b6 5B68     		ldr	r3, [r3, #4]
 4201 01b8 03F00103 		and	r3, r3, #1
 4202 01bc 012B     		cmp	r3, #1
 4203 01be 15D1     		bne	.L234
2200:E:/LiteOS/LiteOS_Lab/drivers/third_party/ST/STM32L4xx_HAL_Driver/Src\stm32l4xx_hal_spi.c ****   {
2201:E:/LiteOS/LiteOS_Lab/drivers/third_party/ST/STM32L4xx_HAL_Driver/Src\stm32l4xx_hal_spi.c ****     /* Abort the SPI DMA Rx Stream/Channel */
2202:E:/LiteOS/LiteOS_Lab/drivers/third_party/ST/STM32L4xx_HAL_Driver/Src\stm32l4xx_hal_spi.c ****     if (hspi->hdmarx != NULL)
ARM GAS  C:\Users\user\AppData\Local\Temp\ccvQ1M9B.s 			page 113


 4204              		.loc 1 2202 0
 4205 01c0 7B68     		ldr	r3, [r7, #4]
 4206 01c2 9B6D     		ldr	r3, [r3, #88]
 4207 01c4 002B     		cmp	r3, #0
 4208 01c6 11D0     		beq	.L234
2203:E:/LiteOS/LiteOS_Lab/drivers/third_party/ST/STM32L4xx_HAL_Driver/Src\stm32l4xx_hal_spi.c ****     {
2204:E:/LiteOS/LiteOS_Lab/drivers/third_party/ST/STM32L4xx_HAL_Driver/Src\stm32l4xx_hal_spi.c ****       /* Abort DMA Rx Handle linked to SPI Peripheral */
2205:E:/LiteOS/LiteOS_Lab/drivers/third_party/ST/STM32L4xx_HAL_Driver/Src\stm32l4xx_hal_spi.c ****       if (HAL_DMA_Abort_IT(hspi->hdmarx) !=  HAL_OK)
 4209              		.loc 1 2205 0
 4210 01c8 7B68     		ldr	r3, [r7, #4]
 4211 01ca 9B6D     		ldr	r3, [r3, #88]
 4212 01cc 1846     		mov	r0, r3
 4213 01ce FFF7FEFF 		bl	HAL_DMA_Abort_IT
 4214 01d2 0346     		mov	r3, r0
 4215 01d4 002B     		cmp	r3, #0
 4216 01d6 07D0     		beq	.L235
2206:E:/LiteOS/LiteOS_Lab/drivers/third_party/ST/STM32L4xx_HAL_Driver/Src\stm32l4xx_hal_spi.c ****       {
2207:E:/LiteOS/LiteOS_Lab/drivers/third_party/ST/STM32L4xx_HAL_Driver/Src\stm32l4xx_hal_spi.c ****         hspi->hdmarx->XferAbortCallback = NULL;
 4217              		.loc 1 2207 0
 4218 01d8 7B68     		ldr	r3, [r7, #4]
 4219 01da 9B6D     		ldr	r3, [r3, #88]
 4220 01dc 0022     		movs	r2, #0
 4221 01de 9A63     		str	r2, [r3, #56]
2208:E:/LiteOS/LiteOS_Lab/drivers/third_party/ST/STM32L4xx_HAL_Driver/Src\stm32l4xx_hal_spi.c ****         hspi->ErrorCode = HAL_SPI_ERROR_ABORT;
 4222              		.loc 1 2208 0
 4223 01e0 7B68     		ldr	r3, [r7, #4]
 4224 01e2 4022     		movs	r2, #64
 4225 01e4 1A66     		str	r2, [r3, #96]
 4226 01e6 01E0     		b	.L234
 4227              	.L235:
2209:E:/LiteOS/LiteOS_Lab/drivers/third_party/ST/STM32L4xx_HAL_Driver/Src\stm32l4xx_hal_spi.c ****       }
2210:E:/LiteOS/LiteOS_Lab/drivers/third_party/ST/STM32L4xx_HAL_Driver/Src\stm32l4xx_hal_spi.c ****       else
2211:E:/LiteOS/LiteOS_Lab/drivers/third_party/ST/STM32L4xx_HAL_Driver/Src\stm32l4xx_hal_spi.c ****       {
2212:E:/LiteOS/LiteOS_Lab/drivers/third_party/ST/STM32L4xx_HAL_Driver/Src\stm32l4xx_hal_spi.c ****         abortcplt = 0U;
 4228              		.loc 1 2212 0
 4229 01e8 0023     		movs	r3, #0
 4230 01ea BB61     		str	r3, [r7, #24]
 4231              	.L234:
2213:E:/LiteOS/LiteOS_Lab/drivers/third_party/ST/STM32L4xx_HAL_Driver/Src\stm32l4xx_hal_spi.c ****       }
2214:E:/LiteOS/LiteOS_Lab/drivers/third_party/ST/STM32L4xx_HAL_Driver/Src\stm32l4xx_hal_spi.c ****     }
2215:E:/LiteOS/LiteOS_Lab/drivers/third_party/ST/STM32L4xx_HAL_Driver/Src\stm32l4xx_hal_spi.c ****   }
2216:E:/LiteOS/LiteOS_Lab/drivers/third_party/ST/STM32L4xx_HAL_Driver/Src\stm32l4xx_hal_spi.c **** 
2217:E:/LiteOS/LiteOS_Lab/drivers/third_party/ST/STM32L4xx_HAL_Driver/Src\stm32l4xx_hal_spi.c ****   if (abortcplt == 1U)
 4232              		.loc 1 2217 0
 4233 01ec BB69     		ldr	r3, [r7, #24]
 4234 01ee 012B     		cmp	r3, #1
 4235 01f0 29D1     		bne	.L236
2218:E:/LiteOS/LiteOS_Lab/drivers/third_party/ST/STM32L4xx_HAL_Driver/Src\stm32l4xx_hal_spi.c ****   {
2219:E:/LiteOS/LiteOS_Lab/drivers/third_party/ST/STM32L4xx_HAL_Driver/Src\stm32l4xx_hal_spi.c ****     /* Reset Tx and Rx transfer counters */
2220:E:/LiteOS/LiteOS_Lab/drivers/third_party/ST/STM32L4xx_HAL_Driver/Src\stm32l4xx_hal_spi.c ****     hspi->RxXferCount = 0U;
 4236              		.loc 1 2220 0
 4237 01f2 7B68     		ldr	r3, [r7, #4]
 4238 01f4 0022     		movs	r2, #0
 4239 01f6 A3F84620 		strh	r2, [r3, #70]	@ movhi
2221:E:/LiteOS/LiteOS_Lab/drivers/third_party/ST/STM32L4xx_HAL_Driver/Src\stm32l4xx_hal_spi.c ****     hspi->TxXferCount = 0U;
 4240              		.loc 1 2221 0
 4241 01fa 7B68     		ldr	r3, [r7, #4]
ARM GAS  C:\Users\user\AppData\Local\Temp\ccvQ1M9B.s 			page 114


 4242 01fc 0022     		movs	r2, #0
 4243 01fe DA87     		strh	r2, [r3, #62]	@ movhi
2222:E:/LiteOS/LiteOS_Lab/drivers/third_party/ST/STM32L4xx_HAL_Driver/Src\stm32l4xx_hal_spi.c **** 
2223:E:/LiteOS/LiteOS_Lab/drivers/third_party/ST/STM32L4xx_HAL_Driver/Src\stm32l4xx_hal_spi.c ****     /* Check error during Abort procedure */
2224:E:/LiteOS/LiteOS_Lab/drivers/third_party/ST/STM32L4xx_HAL_Driver/Src\stm32l4xx_hal_spi.c ****     if (hspi->ErrorCode == HAL_SPI_ERROR_ABORT)
 4244              		.loc 1 2224 0
 4245 0200 7B68     		ldr	r3, [r7, #4]
 4246 0202 1B6E     		ldr	r3, [r3, #96]
 4247 0204 402B     		cmp	r3, #64
 4248 0206 02D1     		bne	.L237
2225:E:/LiteOS/LiteOS_Lab/drivers/third_party/ST/STM32L4xx_HAL_Driver/Src\stm32l4xx_hal_spi.c ****     {
2226:E:/LiteOS/LiteOS_Lab/drivers/third_party/ST/STM32L4xx_HAL_Driver/Src\stm32l4xx_hal_spi.c ****       /* return HAL_Error in case of error during Abort procedure */
2227:E:/LiteOS/LiteOS_Lab/drivers/third_party/ST/STM32L4xx_HAL_Driver/Src\stm32l4xx_hal_spi.c ****       errorcode = HAL_ERROR;
 4249              		.loc 1 2227 0
 4250 0208 0123     		movs	r3, #1
 4251 020a FB77     		strb	r3, [r7, #31]
 4252 020c 02E0     		b	.L238
 4253              	.L237:
2228:E:/LiteOS/LiteOS_Lab/drivers/third_party/ST/STM32L4xx_HAL_Driver/Src\stm32l4xx_hal_spi.c ****     }
2229:E:/LiteOS/LiteOS_Lab/drivers/third_party/ST/STM32L4xx_HAL_Driver/Src\stm32l4xx_hal_spi.c ****     else
2230:E:/LiteOS/LiteOS_Lab/drivers/third_party/ST/STM32L4xx_HAL_Driver/Src\stm32l4xx_hal_spi.c ****     {
2231:E:/LiteOS/LiteOS_Lab/drivers/third_party/ST/STM32L4xx_HAL_Driver/Src\stm32l4xx_hal_spi.c ****       /* Reset errorCode */
2232:E:/LiteOS/LiteOS_Lab/drivers/third_party/ST/STM32L4xx_HAL_Driver/Src\stm32l4xx_hal_spi.c ****       hspi->ErrorCode = HAL_SPI_ERROR_NONE;
 4254              		.loc 1 2232 0
 4255 020e 7B68     		ldr	r3, [r7, #4]
 4256 0210 0022     		movs	r2, #0
 4257 0212 1A66     		str	r2, [r3, #96]
 4258              	.L238:
 4259              	.LBB5:
2233:E:/LiteOS/LiteOS_Lab/drivers/third_party/ST/STM32L4xx_HAL_Driver/Src\stm32l4xx_hal_spi.c ****     }
2234:E:/LiteOS/LiteOS_Lab/drivers/third_party/ST/STM32L4xx_HAL_Driver/Src\stm32l4xx_hal_spi.c **** 
2235:E:/LiteOS/LiteOS_Lab/drivers/third_party/ST/STM32L4xx_HAL_Driver/Src\stm32l4xx_hal_spi.c ****     /* Clear the Error flags in the SR register */
2236:E:/LiteOS/LiteOS_Lab/drivers/third_party/ST/STM32L4xx_HAL_Driver/Src\stm32l4xx_hal_spi.c ****     __HAL_SPI_CLEAR_OVRFLAG(hspi);
 4260              		.loc 1 2236 0
 4261 0214 0023     		movs	r3, #0
 4262 0216 FB60     		str	r3, [r7, #12]
 4263 0218 7B68     		ldr	r3, [r7, #4]
 4264 021a 1B68     		ldr	r3, [r3]
 4265 021c DB68     		ldr	r3, [r3, #12]
 4266 021e FB60     		str	r3, [r7, #12]
 4267 0220 7B68     		ldr	r3, [r7, #4]
 4268 0222 1B68     		ldr	r3, [r3]
 4269 0224 9B68     		ldr	r3, [r3, #8]
 4270 0226 FB60     		str	r3, [r7, #12]
 4271 0228 FB68     		ldr	r3, [r7, #12]
 4272              	.LBE5:
 4273              	.LBB6:
2237:E:/LiteOS/LiteOS_Lab/drivers/third_party/ST/STM32L4xx_HAL_Driver/Src\stm32l4xx_hal_spi.c ****     __HAL_SPI_CLEAR_FREFLAG(hspi);
 4274              		.loc 1 2237 0
 4275 022a 0023     		movs	r3, #0
 4276 022c BB60     		str	r3, [r7, #8]
 4277 022e 7B68     		ldr	r3, [r7, #4]
 4278 0230 1B68     		ldr	r3, [r3]
 4279 0232 9B68     		ldr	r3, [r3, #8]
 4280 0234 BB60     		str	r3, [r7, #8]
 4281 0236 BB68     		ldr	r3, [r7, #8]
 4282              	.LBE6:
ARM GAS  C:\Users\user\AppData\Local\Temp\ccvQ1M9B.s 			page 115


2238:E:/LiteOS/LiteOS_Lab/drivers/third_party/ST/STM32L4xx_HAL_Driver/Src\stm32l4xx_hal_spi.c **** 
2239:E:/LiteOS/LiteOS_Lab/drivers/third_party/ST/STM32L4xx_HAL_Driver/Src\stm32l4xx_hal_spi.c ****     /* Restore hspi->State to Ready */
2240:E:/LiteOS/LiteOS_Lab/drivers/third_party/ST/STM32L4xx_HAL_Driver/Src\stm32l4xx_hal_spi.c ****     hspi->State = HAL_SPI_STATE_READY;
 4283              		.loc 1 2240 0
 4284 0238 7B68     		ldr	r3, [r7, #4]
 4285 023a 0122     		movs	r2, #1
 4286 023c 83F85D20 		strb	r2, [r3, #93]
2241:E:/LiteOS/LiteOS_Lab/drivers/third_party/ST/STM32L4xx_HAL_Driver/Src\stm32l4xx_hal_spi.c **** 
2242:E:/LiteOS/LiteOS_Lab/drivers/third_party/ST/STM32L4xx_HAL_Driver/Src\stm32l4xx_hal_spi.c ****     /* As no DMA to be aborted, call directly user Abort complete callback */
2243:E:/LiteOS/LiteOS_Lab/drivers/third_party/ST/STM32L4xx_HAL_Driver/Src\stm32l4xx_hal_spi.c ****     HAL_SPI_AbortCpltCallback(hspi);
 4287              		.loc 1 2243 0
 4288 0240 7868     		ldr	r0, [r7, #4]
 4289 0242 FFF7FEFF 		bl	HAL_SPI_AbortCpltCallback
 4290              	.L236:
2244:E:/LiteOS/LiteOS_Lab/drivers/third_party/ST/STM32L4xx_HAL_Driver/Src\stm32l4xx_hal_spi.c ****   }
2245:E:/LiteOS/LiteOS_Lab/drivers/third_party/ST/STM32L4xx_HAL_Driver/Src\stm32l4xx_hal_spi.c **** 
2246:E:/LiteOS/LiteOS_Lab/drivers/third_party/ST/STM32L4xx_HAL_Driver/Src\stm32l4xx_hal_spi.c ****   return errorcode;
 4291              		.loc 1 2246 0
 4292 0246 FB7F     		ldrb	r3, [r7, #31]	@ zero_extendqisi2
2247:E:/LiteOS/LiteOS_Lab/drivers/third_party/ST/STM32L4xx_HAL_Driver/Src\stm32l4xx_hal_spi.c **** }
 4293              		.loc 1 2247 0
 4294 0248 1846     		mov	r0, r3
 4295 024a 2037     		adds	r7, r7, #32
 4296              	.LCFI77:
 4297              		.cfi_def_cfa_offset 8
 4298 024c BD46     		mov	sp, r7
 4299              	.LCFI78:
 4300              		.cfi_def_cfa_register 13
 4301              		@ sp needed
 4302 024e 80BD     		pop	{r7, pc}
 4303              	.L241:
 4304              		.align	2
 4305              	.L240:
 4306 0250 00000000 		.word	SystemCoreClock
 4307 0254 F1197605 		.word	91625969
 4308 0258 00000000 		.word	SPI_AbortTx_ISR
 4309 025c 00000000 		.word	SPI_AbortRx_ISR
 4310 0260 00000000 		.word	SPI_DMATxAbortCallback
 4311 0264 00000000 		.word	SPI_DMARxAbortCallback
 4312              		.cfi_endproc
 4313              	.LFE147:
 4315              		.section	.text.HAL_SPI_DMAPause,"ax",%progbits
 4316              		.align	1
 4317              		.global	HAL_SPI_DMAPause
 4318              		.syntax unified
 4319              		.thumb
 4320              		.thumb_func
 4321              		.fpu fpv4-sp-d16
 4323              	HAL_SPI_DMAPause:
 4324              	.LFB148:
2248:E:/LiteOS/LiteOS_Lab/drivers/third_party/ST/STM32L4xx_HAL_Driver/Src\stm32l4xx_hal_spi.c **** 
2249:E:/LiteOS/LiteOS_Lab/drivers/third_party/ST/STM32L4xx_HAL_Driver/Src\stm32l4xx_hal_spi.c **** /**
2250:E:/LiteOS/LiteOS_Lab/drivers/third_party/ST/STM32L4xx_HAL_Driver/Src\stm32l4xx_hal_spi.c ****   * @brief  Pause the DMA Transfer.
2251:E:/LiteOS/LiteOS_Lab/drivers/third_party/ST/STM32L4xx_HAL_Driver/Src\stm32l4xx_hal_spi.c ****   * @param  hspi pointer to a SPI_HandleTypeDef structure that contains
2252:E:/LiteOS/LiteOS_Lab/drivers/third_party/ST/STM32L4xx_HAL_Driver/Src\stm32l4xx_hal_spi.c ****   *               the configuration information for the specified SPI module.
2253:E:/LiteOS/LiteOS_Lab/drivers/third_party/ST/STM32L4xx_HAL_Driver/Src\stm32l4xx_hal_spi.c ****   * @retval HAL status
2254:E:/LiteOS/LiteOS_Lab/drivers/third_party/ST/STM32L4xx_HAL_Driver/Src\stm32l4xx_hal_spi.c ****   */
ARM GAS  C:\Users\user\AppData\Local\Temp\ccvQ1M9B.s 			page 116


2255:E:/LiteOS/LiteOS_Lab/drivers/third_party/ST/STM32L4xx_HAL_Driver/Src\stm32l4xx_hal_spi.c **** HAL_StatusTypeDef HAL_SPI_DMAPause(SPI_HandleTypeDef *hspi)
2256:E:/LiteOS/LiteOS_Lab/drivers/third_party/ST/STM32L4xx_HAL_Driver/Src\stm32l4xx_hal_spi.c **** {
 4325              		.loc 1 2256 0
 4326              		.cfi_startproc
 4327              		@ args = 0, pretend = 0, frame = 8
 4328              		@ frame_needed = 1, uses_anonymous_args = 0
 4329              		@ link register save eliminated.
 4330 0000 80B4     		push	{r7}
 4331              	.LCFI79:
 4332              		.cfi_def_cfa_offset 4
 4333              		.cfi_offset 7, -4
 4334 0002 83B0     		sub	sp, sp, #12
 4335              	.LCFI80:
 4336              		.cfi_def_cfa_offset 16
 4337 0004 00AF     		add	r7, sp, #0
 4338              	.LCFI81:
 4339              		.cfi_def_cfa_register 7
 4340 0006 7860     		str	r0, [r7, #4]
2257:E:/LiteOS/LiteOS_Lab/drivers/third_party/ST/STM32L4xx_HAL_Driver/Src\stm32l4xx_hal_spi.c ****   /* Process Locked */
2258:E:/LiteOS/LiteOS_Lab/drivers/third_party/ST/STM32L4xx_HAL_Driver/Src\stm32l4xx_hal_spi.c ****   __HAL_LOCK(hspi);
 4341              		.loc 1 2258 0
 4342 0008 7B68     		ldr	r3, [r7, #4]
 4343 000a 93F85C30 		ldrb	r3, [r3, #92]	@ zero_extendqisi2
 4344 000e 012B     		cmp	r3, #1
 4345 0010 01D1     		bne	.L243
 4346              		.loc 1 2258 0 is_stmt 0 discriminator 1
 4347 0012 0223     		movs	r3, #2
 4348 0014 10E0     		b	.L244
 4349              	.L243:
 4350              		.loc 1 2258 0 discriminator 2
 4351 0016 7B68     		ldr	r3, [r7, #4]
 4352 0018 0122     		movs	r2, #1
 4353 001a 83F85C20 		strb	r2, [r3, #92]
2259:E:/LiteOS/LiteOS_Lab/drivers/third_party/ST/STM32L4xx_HAL_Driver/Src\stm32l4xx_hal_spi.c **** 
2260:E:/LiteOS/LiteOS_Lab/drivers/third_party/ST/STM32L4xx_HAL_Driver/Src\stm32l4xx_hal_spi.c ****   /* Disable the SPI DMA Tx & Rx requests */
2261:E:/LiteOS/LiteOS_Lab/drivers/third_party/ST/STM32L4xx_HAL_Driver/Src\stm32l4xx_hal_spi.c ****   CLEAR_BIT(hspi->Instance->CR2, SPI_CR2_TXDMAEN | SPI_CR2_RXDMAEN);
 4354              		.loc 1 2261 0 is_stmt 1 discriminator 2
 4355 001e 7B68     		ldr	r3, [r7, #4]
 4356 0020 1B68     		ldr	r3, [r3]
 4357 0022 5A68     		ldr	r2, [r3, #4]
 4358 0024 7B68     		ldr	r3, [r7, #4]
 4359 0026 1B68     		ldr	r3, [r3]
 4360 0028 22F00302 		bic	r2, r2, #3
 4361 002c 5A60     		str	r2, [r3, #4]
2262:E:/LiteOS/LiteOS_Lab/drivers/third_party/ST/STM32L4xx_HAL_Driver/Src\stm32l4xx_hal_spi.c **** 
2263:E:/LiteOS/LiteOS_Lab/drivers/third_party/ST/STM32L4xx_HAL_Driver/Src\stm32l4xx_hal_spi.c ****   /* Process Unlocked */
2264:E:/LiteOS/LiteOS_Lab/drivers/third_party/ST/STM32L4xx_HAL_Driver/Src\stm32l4xx_hal_spi.c ****   __HAL_UNLOCK(hspi);
 4362              		.loc 1 2264 0 discriminator 2
 4363 002e 7B68     		ldr	r3, [r7, #4]
 4364 0030 0022     		movs	r2, #0
 4365 0032 83F85C20 		strb	r2, [r3, #92]
2265:E:/LiteOS/LiteOS_Lab/drivers/third_party/ST/STM32L4xx_HAL_Driver/Src\stm32l4xx_hal_spi.c **** 
2266:E:/LiteOS/LiteOS_Lab/drivers/third_party/ST/STM32L4xx_HAL_Driver/Src\stm32l4xx_hal_spi.c ****   return HAL_OK;
 4366              		.loc 1 2266 0 discriminator 2
 4367 0036 0023     		movs	r3, #0
 4368              	.L244:
2267:E:/LiteOS/LiteOS_Lab/drivers/third_party/ST/STM32L4xx_HAL_Driver/Src\stm32l4xx_hal_spi.c **** }
ARM GAS  C:\Users\user\AppData\Local\Temp\ccvQ1M9B.s 			page 117


 4369              		.loc 1 2267 0
 4370 0038 1846     		mov	r0, r3
 4371 003a 0C37     		adds	r7, r7, #12
 4372              	.LCFI82:
 4373              		.cfi_def_cfa_offset 4
 4374 003c BD46     		mov	sp, r7
 4375              	.LCFI83:
 4376              		.cfi_def_cfa_register 13
 4377              		@ sp needed
 4378 003e 5DF8047B 		ldr	r7, [sp], #4
 4379              	.LCFI84:
 4380              		.cfi_restore 7
 4381              		.cfi_def_cfa_offset 0
 4382 0042 7047     		bx	lr
 4383              		.cfi_endproc
 4384              	.LFE148:
 4386              		.section	.text.HAL_SPI_DMAResume,"ax",%progbits
 4387              		.align	1
 4388              		.global	HAL_SPI_DMAResume
 4389              		.syntax unified
 4390              		.thumb
 4391              		.thumb_func
 4392              		.fpu fpv4-sp-d16
 4394              	HAL_SPI_DMAResume:
 4395              	.LFB149:
2268:E:/LiteOS/LiteOS_Lab/drivers/third_party/ST/STM32L4xx_HAL_Driver/Src\stm32l4xx_hal_spi.c **** 
2269:E:/LiteOS/LiteOS_Lab/drivers/third_party/ST/STM32L4xx_HAL_Driver/Src\stm32l4xx_hal_spi.c **** /**
2270:E:/LiteOS/LiteOS_Lab/drivers/third_party/ST/STM32L4xx_HAL_Driver/Src\stm32l4xx_hal_spi.c ****   * @brief  Resume the DMA Transfer.
2271:E:/LiteOS/LiteOS_Lab/drivers/third_party/ST/STM32L4xx_HAL_Driver/Src\stm32l4xx_hal_spi.c ****   * @param  hspi pointer to a SPI_HandleTypeDef structure that contains
2272:E:/LiteOS/LiteOS_Lab/drivers/third_party/ST/STM32L4xx_HAL_Driver/Src\stm32l4xx_hal_spi.c ****   *               the configuration information for the specified SPI module.
2273:E:/LiteOS/LiteOS_Lab/drivers/third_party/ST/STM32L4xx_HAL_Driver/Src\stm32l4xx_hal_spi.c ****   * @retval HAL status
2274:E:/LiteOS/LiteOS_Lab/drivers/third_party/ST/STM32L4xx_HAL_Driver/Src\stm32l4xx_hal_spi.c ****   */
2275:E:/LiteOS/LiteOS_Lab/drivers/third_party/ST/STM32L4xx_HAL_Driver/Src\stm32l4xx_hal_spi.c **** HAL_StatusTypeDef HAL_SPI_DMAResume(SPI_HandleTypeDef *hspi)
2276:E:/LiteOS/LiteOS_Lab/drivers/third_party/ST/STM32L4xx_HAL_Driver/Src\stm32l4xx_hal_spi.c **** {
 4396              		.loc 1 2276 0
 4397              		.cfi_startproc
 4398              		@ args = 0, pretend = 0, frame = 8
 4399              		@ frame_needed = 1, uses_anonymous_args = 0
 4400              		@ link register save eliminated.
 4401 0000 80B4     		push	{r7}
 4402              	.LCFI85:
 4403              		.cfi_def_cfa_offset 4
 4404              		.cfi_offset 7, -4
 4405 0002 83B0     		sub	sp, sp, #12
 4406              	.LCFI86:
 4407              		.cfi_def_cfa_offset 16
 4408 0004 00AF     		add	r7, sp, #0
 4409              	.LCFI87:
 4410              		.cfi_def_cfa_register 7
 4411 0006 7860     		str	r0, [r7, #4]
2277:E:/LiteOS/LiteOS_Lab/drivers/third_party/ST/STM32L4xx_HAL_Driver/Src\stm32l4xx_hal_spi.c ****   /* Process Locked */
2278:E:/LiteOS/LiteOS_Lab/drivers/third_party/ST/STM32L4xx_HAL_Driver/Src\stm32l4xx_hal_spi.c ****   __HAL_LOCK(hspi);
 4412              		.loc 1 2278 0
 4413 0008 7B68     		ldr	r3, [r7, #4]
 4414 000a 93F85C30 		ldrb	r3, [r3, #92]	@ zero_extendqisi2
 4415 000e 012B     		cmp	r3, #1
 4416 0010 01D1     		bne	.L246
ARM GAS  C:\Users\user\AppData\Local\Temp\ccvQ1M9B.s 			page 118


 4417              		.loc 1 2278 0 is_stmt 0 discriminator 1
 4418 0012 0223     		movs	r3, #2
 4419 0014 10E0     		b	.L247
 4420              	.L246:
 4421              		.loc 1 2278 0 discriminator 2
 4422 0016 7B68     		ldr	r3, [r7, #4]
 4423 0018 0122     		movs	r2, #1
 4424 001a 83F85C20 		strb	r2, [r3, #92]
2279:E:/LiteOS/LiteOS_Lab/drivers/third_party/ST/STM32L4xx_HAL_Driver/Src\stm32l4xx_hal_spi.c **** 
2280:E:/LiteOS/LiteOS_Lab/drivers/third_party/ST/STM32L4xx_HAL_Driver/Src\stm32l4xx_hal_spi.c ****   /* Enable the SPI DMA Tx & Rx requests */
2281:E:/LiteOS/LiteOS_Lab/drivers/third_party/ST/STM32L4xx_HAL_Driver/Src\stm32l4xx_hal_spi.c ****   SET_BIT(hspi->Instance->CR2, SPI_CR2_TXDMAEN | SPI_CR2_RXDMAEN);
 4425              		.loc 1 2281 0 is_stmt 1 discriminator 2
 4426 001e 7B68     		ldr	r3, [r7, #4]
 4427 0020 1B68     		ldr	r3, [r3]
 4428 0022 5A68     		ldr	r2, [r3, #4]
 4429 0024 7B68     		ldr	r3, [r7, #4]
 4430 0026 1B68     		ldr	r3, [r3]
 4431 0028 42F00302 		orr	r2, r2, #3
 4432 002c 5A60     		str	r2, [r3, #4]
2282:E:/LiteOS/LiteOS_Lab/drivers/third_party/ST/STM32L4xx_HAL_Driver/Src\stm32l4xx_hal_spi.c **** 
2283:E:/LiteOS/LiteOS_Lab/drivers/third_party/ST/STM32L4xx_HAL_Driver/Src\stm32l4xx_hal_spi.c ****   /* Process Unlocked */
2284:E:/LiteOS/LiteOS_Lab/drivers/third_party/ST/STM32L4xx_HAL_Driver/Src\stm32l4xx_hal_spi.c ****   __HAL_UNLOCK(hspi);
 4433              		.loc 1 2284 0 discriminator 2
 4434 002e 7B68     		ldr	r3, [r7, #4]
 4435 0030 0022     		movs	r2, #0
 4436 0032 83F85C20 		strb	r2, [r3, #92]
2285:E:/LiteOS/LiteOS_Lab/drivers/third_party/ST/STM32L4xx_HAL_Driver/Src\stm32l4xx_hal_spi.c **** 
2286:E:/LiteOS/LiteOS_Lab/drivers/third_party/ST/STM32L4xx_HAL_Driver/Src\stm32l4xx_hal_spi.c ****   return HAL_OK;
 4437              		.loc 1 2286 0 discriminator 2
 4438 0036 0023     		movs	r3, #0
 4439              	.L247:
2287:E:/LiteOS/LiteOS_Lab/drivers/third_party/ST/STM32L4xx_HAL_Driver/Src\stm32l4xx_hal_spi.c **** }
 4440              		.loc 1 2287 0
 4441 0038 1846     		mov	r0, r3
 4442 003a 0C37     		adds	r7, r7, #12
 4443              	.LCFI88:
 4444              		.cfi_def_cfa_offset 4
 4445 003c BD46     		mov	sp, r7
 4446              	.LCFI89:
 4447              		.cfi_def_cfa_register 13
 4448              		@ sp needed
 4449 003e 5DF8047B 		ldr	r7, [sp], #4
 4450              	.LCFI90:
 4451              		.cfi_restore 7
 4452              		.cfi_def_cfa_offset 0
 4453 0042 7047     		bx	lr
 4454              		.cfi_endproc
 4455              	.LFE149:
 4457              		.section	.text.HAL_SPI_DMAStop,"ax",%progbits
 4458              		.align	1
 4459              		.global	HAL_SPI_DMAStop
 4460              		.syntax unified
 4461              		.thumb
 4462              		.thumb_func
 4463              		.fpu fpv4-sp-d16
 4465              	HAL_SPI_DMAStop:
 4466              	.LFB150:
ARM GAS  C:\Users\user\AppData\Local\Temp\ccvQ1M9B.s 			page 119


2288:E:/LiteOS/LiteOS_Lab/drivers/third_party/ST/STM32L4xx_HAL_Driver/Src\stm32l4xx_hal_spi.c **** 
2289:E:/LiteOS/LiteOS_Lab/drivers/third_party/ST/STM32L4xx_HAL_Driver/Src\stm32l4xx_hal_spi.c **** /**
2290:E:/LiteOS/LiteOS_Lab/drivers/third_party/ST/STM32L4xx_HAL_Driver/Src\stm32l4xx_hal_spi.c ****   * @brief  Stop the DMA Transfer.
2291:E:/LiteOS/LiteOS_Lab/drivers/third_party/ST/STM32L4xx_HAL_Driver/Src\stm32l4xx_hal_spi.c ****   * @param  hspi pointer to a SPI_HandleTypeDef structure that contains
2292:E:/LiteOS/LiteOS_Lab/drivers/third_party/ST/STM32L4xx_HAL_Driver/Src\stm32l4xx_hal_spi.c ****   *               the configuration information for the specified SPI module.
2293:E:/LiteOS/LiteOS_Lab/drivers/third_party/ST/STM32L4xx_HAL_Driver/Src\stm32l4xx_hal_spi.c ****   * @retval HAL status
2294:E:/LiteOS/LiteOS_Lab/drivers/third_party/ST/STM32L4xx_HAL_Driver/Src\stm32l4xx_hal_spi.c ****   */
2295:E:/LiteOS/LiteOS_Lab/drivers/third_party/ST/STM32L4xx_HAL_Driver/Src\stm32l4xx_hal_spi.c **** HAL_StatusTypeDef HAL_SPI_DMAStop(SPI_HandleTypeDef *hspi)
2296:E:/LiteOS/LiteOS_Lab/drivers/third_party/ST/STM32L4xx_HAL_Driver/Src\stm32l4xx_hal_spi.c **** {
 4467              		.loc 1 2296 0
 4468              		.cfi_startproc
 4469              		@ args = 0, pretend = 0, frame = 8
 4470              		@ frame_needed = 1, uses_anonymous_args = 0
 4471 0000 80B5     		push	{r7, lr}
 4472              	.LCFI91:
 4473              		.cfi_def_cfa_offset 8
 4474              		.cfi_offset 7, -8
 4475              		.cfi_offset 14, -4
 4476 0002 82B0     		sub	sp, sp, #8
 4477              	.LCFI92:
 4478              		.cfi_def_cfa_offset 16
 4479 0004 00AF     		add	r7, sp, #0
 4480              	.LCFI93:
 4481              		.cfi_def_cfa_register 7
 4482 0006 7860     		str	r0, [r7, #4]
2297:E:/LiteOS/LiteOS_Lab/drivers/third_party/ST/STM32L4xx_HAL_Driver/Src\stm32l4xx_hal_spi.c ****   /* The Lock is not implemented on this API to allow the user application
2298:E:/LiteOS/LiteOS_Lab/drivers/third_party/ST/STM32L4xx_HAL_Driver/Src\stm32l4xx_hal_spi.c ****      to call the HAL SPI API under callbacks HAL_SPI_TxCpltCallback() or HAL_SPI_RxCpltCallback() o
2299:E:/LiteOS/LiteOS_Lab/drivers/third_party/ST/STM32L4xx_HAL_Driver/Src\stm32l4xx_hal_spi.c ****      when calling HAL_DMA_Abort() API the DMA TX/RX Transfer complete interrupt is generated
2300:E:/LiteOS/LiteOS_Lab/drivers/third_party/ST/STM32L4xx_HAL_Driver/Src\stm32l4xx_hal_spi.c ****      and the correspond call back is executed HAL_SPI_TxCpltCallback() or HAL_SPI_RxCpltCallback() 
2301:E:/LiteOS/LiteOS_Lab/drivers/third_party/ST/STM32L4xx_HAL_Driver/Src\stm32l4xx_hal_spi.c ****      */
2302:E:/LiteOS/LiteOS_Lab/drivers/third_party/ST/STM32L4xx_HAL_Driver/Src\stm32l4xx_hal_spi.c **** 
2303:E:/LiteOS/LiteOS_Lab/drivers/third_party/ST/STM32L4xx_HAL_Driver/Src\stm32l4xx_hal_spi.c ****   /* Abort the SPI DMA tx Stream/Channel  */
2304:E:/LiteOS/LiteOS_Lab/drivers/third_party/ST/STM32L4xx_HAL_Driver/Src\stm32l4xx_hal_spi.c ****   if (hspi->hdmatx != NULL)
 4483              		.loc 1 2304 0
 4484 0008 7B68     		ldr	r3, [r7, #4]
 4485 000a 5B6D     		ldr	r3, [r3, #84]
 4486 000c 002B     		cmp	r3, #0
 4487 000e 04D0     		beq	.L249
2305:E:/LiteOS/LiteOS_Lab/drivers/third_party/ST/STM32L4xx_HAL_Driver/Src\stm32l4xx_hal_spi.c ****   {
2306:E:/LiteOS/LiteOS_Lab/drivers/third_party/ST/STM32L4xx_HAL_Driver/Src\stm32l4xx_hal_spi.c ****     HAL_DMA_Abort(hspi->hdmatx);
 4488              		.loc 1 2306 0
 4489 0010 7B68     		ldr	r3, [r7, #4]
 4490 0012 5B6D     		ldr	r3, [r3, #84]
 4491 0014 1846     		mov	r0, r3
 4492 0016 FFF7FEFF 		bl	HAL_DMA_Abort
 4493              	.L249:
2307:E:/LiteOS/LiteOS_Lab/drivers/third_party/ST/STM32L4xx_HAL_Driver/Src\stm32l4xx_hal_spi.c ****   }
2308:E:/LiteOS/LiteOS_Lab/drivers/third_party/ST/STM32L4xx_HAL_Driver/Src\stm32l4xx_hal_spi.c ****   /* Abort the SPI DMA rx Stream/Channel  */
2309:E:/LiteOS/LiteOS_Lab/drivers/third_party/ST/STM32L4xx_HAL_Driver/Src\stm32l4xx_hal_spi.c ****   if (hspi->hdmarx != NULL)
 4494              		.loc 1 2309 0
 4495 001a 7B68     		ldr	r3, [r7, #4]
 4496 001c 9B6D     		ldr	r3, [r3, #88]
 4497 001e 002B     		cmp	r3, #0
 4498 0020 04D0     		beq	.L250
2310:E:/LiteOS/LiteOS_Lab/drivers/third_party/ST/STM32L4xx_HAL_Driver/Src\stm32l4xx_hal_spi.c ****   {
2311:E:/LiteOS/LiteOS_Lab/drivers/third_party/ST/STM32L4xx_HAL_Driver/Src\stm32l4xx_hal_spi.c ****     HAL_DMA_Abort(hspi->hdmarx);
 4499              		.loc 1 2311 0
ARM GAS  C:\Users\user\AppData\Local\Temp\ccvQ1M9B.s 			page 120


 4500 0022 7B68     		ldr	r3, [r7, #4]
 4501 0024 9B6D     		ldr	r3, [r3, #88]
 4502 0026 1846     		mov	r0, r3
 4503 0028 FFF7FEFF 		bl	HAL_DMA_Abort
 4504              	.L250:
2312:E:/LiteOS/LiteOS_Lab/drivers/third_party/ST/STM32L4xx_HAL_Driver/Src\stm32l4xx_hal_spi.c ****   }
2313:E:/LiteOS/LiteOS_Lab/drivers/third_party/ST/STM32L4xx_HAL_Driver/Src\stm32l4xx_hal_spi.c **** 
2314:E:/LiteOS/LiteOS_Lab/drivers/third_party/ST/STM32L4xx_HAL_Driver/Src\stm32l4xx_hal_spi.c ****   /* Disable the SPI DMA Tx & Rx requests */
2315:E:/LiteOS/LiteOS_Lab/drivers/third_party/ST/STM32L4xx_HAL_Driver/Src\stm32l4xx_hal_spi.c ****   CLEAR_BIT(hspi->Instance->CR2, SPI_CR2_TXDMAEN | SPI_CR2_RXDMAEN);
 4505              		.loc 1 2315 0
 4506 002c 7B68     		ldr	r3, [r7, #4]
 4507 002e 1B68     		ldr	r3, [r3]
 4508 0030 5A68     		ldr	r2, [r3, #4]
 4509 0032 7B68     		ldr	r3, [r7, #4]
 4510 0034 1B68     		ldr	r3, [r3]
 4511 0036 22F00302 		bic	r2, r2, #3
 4512 003a 5A60     		str	r2, [r3, #4]
2316:E:/LiteOS/LiteOS_Lab/drivers/third_party/ST/STM32L4xx_HAL_Driver/Src\stm32l4xx_hal_spi.c ****   hspi->State = HAL_SPI_STATE_READY;
 4513              		.loc 1 2316 0
 4514 003c 7B68     		ldr	r3, [r7, #4]
 4515 003e 0122     		movs	r2, #1
 4516 0040 83F85D20 		strb	r2, [r3, #93]
2317:E:/LiteOS/LiteOS_Lab/drivers/third_party/ST/STM32L4xx_HAL_Driver/Src\stm32l4xx_hal_spi.c ****   return HAL_OK;
 4517              		.loc 1 2317 0
 4518 0044 0023     		movs	r3, #0
2318:E:/LiteOS/LiteOS_Lab/drivers/third_party/ST/STM32L4xx_HAL_Driver/Src\stm32l4xx_hal_spi.c **** }
 4519              		.loc 1 2318 0
 4520 0046 1846     		mov	r0, r3
 4521 0048 0837     		adds	r7, r7, #8
 4522              	.LCFI94:
 4523              		.cfi_def_cfa_offset 8
 4524 004a BD46     		mov	sp, r7
 4525              	.LCFI95:
 4526              		.cfi_def_cfa_register 13
 4527              		@ sp needed
 4528 004c 80BD     		pop	{r7, pc}
 4529              		.cfi_endproc
 4530              	.LFE150:
 4532              		.section	.text.HAL_SPI_IRQHandler,"ax",%progbits
 4533              		.align	1
 4534              		.global	HAL_SPI_IRQHandler
 4535              		.syntax unified
 4536              		.thumb
 4537              		.thumb_func
 4538              		.fpu fpv4-sp-d16
 4540              	HAL_SPI_IRQHandler:
 4541              	.LFB151:
2319:E:/LiteOS/LiteOS_Lab/drivers/third_party/ST/STM32L4xx_HAL_Driver/Src\stm32l4xx_hal_spi.c **** 
2320:E:/LiteOS/LiteOS_Lab/drivers/third_party/ST/STM32L4xx_HAL_Driver/Src\stm32l4xx_hal_spi.c **** /**
2321:E:/LiteOS/LiteOS_Lab/drivers/third_party/ST/STM32L4xx_HAL_Driver/Src\stm32l4xx_hal_spi.c ****   * @brief  Handle SPI interrupt request.
2322:E:/LiteOS/LiteOS_Lab/drivers/third_party/ST/STM32L4xx_HAL_Driver/Src\stm32l4xx_hal_spi.c ****   * @param  hspi pointer to a SPI_HandleTypeDef structure that contains
2323:E:/LiteOS/LiteOS_Lab/drivers/third_party/ST/STM32L4xx_HAL_Driver/Src\stm32l4xx_hal_spi.c ****   *               the configuration information for the specified SPI module.
2324:E:/LiteOS/LiteOS_Lab/drivers/third_party/ST/STM32L4xx_HAL_Driver/Src\stm32l4xx_hal_spi.c ****   * @retval None
2325:E:/LiteOS/LiteOS_Lab/drivers/third_party/ST/STM32L4xx_HAL_Driver/Src\stm32l4xx_hal_spi.c ****   */
2326:E:/LiteOS/LiteOS_Lab/drivers/third_party/ST/STM32L4xx_HAL_Driver/Src\stm32l4xx_hal_spi.c **** void HAL_SPI_IRQHandler(SPI_HandleTypeDef *hspi)
2327:E:/LiteOS/LiteOS_Lab/drivers/third_party/ST/STM32L4xx_HAL_Driver/Src\stm32l4xx_hal_spi.c **** {
 4542              		.loc 1 2327 0
ARM GAS  C:\Users\user\AppData\Local\Temp\ccvQ1M9B.s 			page 121


 4543              		.cfi_startproc
 4544              		@ args = 0, pretend = 0, frame = 32
 4545              		@ frame_needed = 1, uses_anonymous_args = 0
 4546 0000 80B5     		push	{r7, lr}
 4547              	.LCFI96:
 4548              		.cfi_def_cfa_offset 8
 4549              		.cfi_offset 7, -8
 4550              		.cfi_offset 14, -4
 4551 0002 88B0     		sub	sp, sp, #32
 4552              	.LCFI97:
 4553              		.cfi_def_cfa_offset 40
 4554 0004 00AF     		add	r7, sp, #0
 4555              	.LCFI98:
 4556              		.cfi_def_cfa_register 7
 4557 0006 7860     		str	r0, [r7, #4]
2328:E:/LiteOS/LiteOS_Lab/drivers/third_party/ST/STM32L4xx_HAL_Driver/Src\stm32l4xx_hal_spi.c ****   uint32_t itsource = hspi->Instance->CR2;
 4558              		.loc 1 2328 0
 4559 0008 7B68     		ldr	r3, [r7, #4]
 4560 000a 1B68     		ldr	r3, [r3]
 4561 000c 5B68     		ldr	r3, [r3, #4]
 4562 000e FB61     		str	r3, [r7, #28]
2329:E:/LiteOS/LiteOS_Lab/drivers/third_party/ST/STM32L4xx_HAL_Driver/Src\stm32l4xx_hal_spi.c ****   uint32_t itflag   = hspi->Instance->SR;
 4563              		.loc 1 2329 0
 4564 0010 7B68     		ldr	r3, [r7, #4]
 4565 0012 1B68     		ldr	r3, [r3]
 4566 0014 9B68     		ldr	r3, [r3, #8]
 4567 0016 BB61     		str	r3, [r7, #24]
2330:E:/LiteOS/LiteOS_Lab/drivers/third_party/ST/STM32L4xx_HAL_Driver/Src\stm32l4xx_hal_spi.c **** 
2331:E:/LiteOS/LiteOS_Lab/drivers/third_party/ST/STM32L4xx_HAL_Driver/Src\stm32l4xx_hal_spi.c ****   /* SPI in mode Receiver ----------------------------------------------------*/
2332:E:/LiteOS/LiteOS_Lab/drivers/third_party/ST/STM32L4xx_HAL_Driver/Src\stm32l4xx_hal_spi.c ****   if (((itflag & SPI_FLAG_OVR) == RESET) &&
 4568              		.loc 1 2332 0
 4569 0018 BB69     		ldr	r3, [r7, #24]
 4570 001a 03F04003 		and	r3, r3, #64
 4571 001e 002B     		cmp	r3, #0
 4572 0020 0ED1     		bne	.L253
2333:E:/LiteOS/LiteOS_Lab/drivers/third_party/ST/STM32L4xx_HAL_Driver/Src\stm32l4xx_hal_spi.c ****       ((itflag & SPI_FLAG_RXNE) != RESET) && ((itsource & SPI_IT_RXNE) != RESET))
 4573              		.loc 1 2333 0 discriminator 1
 4574 0022 BB69     		ldr	r3, [r7, #24]
 4575 0024 03F00103 		and	r3, r3, #1
2332:E:/LiteOS/LiteOS_Lab/drivers/third_party/ST/STM32L4xx_HAL_Driver/Src\stm32l4xx_hal_spi.c ****       ((itflag & SPI_FLAG_RXNE) != RESET) && ((itsource & SPI_IT_RXNE) != RESET))
 4576              		.loc 1 2332 0 discriminator 1
 4577 0028 002B     		cmp	r3, #0
 4578 002a 09D0     		beq	.L253
 4579              		.loc 1 2333 0
 4580 002c FB69     		ldr	r3, [r7, #28]
 4581 002e 03F04003 		and	r3, r3, #64
 4582 0032 002B     		cmp	r3, #0
 4583 0034 04D0     		beq	.L253
2334:E:/LiteOS/LiteOS_Lab/drivers/third_party/ST/STM32L4xx_HAL_Driver/Src\stm32l4xx_hal_spi.c ****   {
2335:E:/LiteOS/LiteOS_Lab/drivers/third_party/ST/STM32L4xx_HAL_Driver/Src\stm32l4xx_hal_spi.c ****     hspi->RxISR(hspi);
 4584              		.loc 1 2335 0
 4585 0036 7B68     		ldr	r3, [r7, #4]
 4586 0038 DB6C     		ldr	r3, [r3, #76]
 4587 003a 7868     		ldr	r0, [r7, #4]
 4588 003c 9847     		blx	r3
 4589              	.LVL0:
2336:E:/LiteOS/LiteOS_Lab/drivers/third_party/ST/STM32L4xx_HAL_Driver/Src\stm32l4xx_hal_spi.c ****     return;
ARM GAS  C:\Users\user\AppData\Local\Temp\ccvQ1M9B.s 			page 122


 4590              		.loc 1 2336 0
 4591 003e B1E0     		b	.L252
 4592              	.L253:
2337:E:/LiteOS/LiteOS_Lab/drivers/third_party/ST/STM32L4xx_HAL_Driver/Src\stm32l4xx_hal_spi.c ****   }
2338:E:/LiteOS/LiteOS_Lab/drivers/third_party/ST/STM32L4xx_HAL_Driver/Src\stm32l4xx_hal_spi.c **** 
2339:E:/LiteOS/LiteOS_Lab/drivers/third_party/ST/STM32L4xx_HAL_Driver/Src\stm32l4xx_hal_spi.c ****   /* SPI in mode Transmitter -------------------------------------------------*/
2340:E:/LiteOS/LiteOS_Lab/drivers/third_party/ST/STM32L4xx_HAL_Driver/Src\stm32l4xx_hal_spi.c ****   if (((itflag & SPI_FLAG_TXE) != RESET) && ((itsource & SPI_IT_TXE) != RESET))
 4593              		.loc 1 2340 0
 4594 0040 BB69     		ldr	r3, [r7, #24]
 4595 0042 03F00203 		and	r3, r3, #2
 4596 0046 002B     		cmp	r3, #0
 4597 0048 09D0     		beq	.L255
 4598              		.loc 1 2340 0 is_stmt 0 discriminator 1
 4599 004a FB69     		ldr	r3, [r7, #28]
 4600 004c 03F08003 		and	r3, r3, #128
 4601 0050 002B     		cmp	r3, #0
 4602 0052 04D0     		beq	.L255
2341:E:/LiteOS/LiteOS_Lab/drivers/third_party/ST/STM32L4xx_HAL_Driver/Src\stm32l4xx_hal_spi.c ****   {
2342:E:/LiteOS/LiteOS_Lab/drivers/third_party/ST/STM32L4xx_HAL_Driver/Src\stm32l4xx_hal_spi.c ****     hspi->TxISR(hspi);
 4603              		.loc 1 2342 0 is_stmt 1
 4604 0054 7B68     		ldr	r3, [r7, #4]
 4605 0056 1B6D     		ldr	r3, [r3, #80]
 4606 0058 7868     		ldr	r0, [r7, #4]
 4607 005a 9847     		blx	r3
 4608              	.LVL1:
2343:E:/LiteOS/LiteOS_Lab/drivers/third_party/ST/STM32L4xx_HAL_Driver/Src\stm32l4xx_hal_spi.c ****     return;
 4609              		.loc 1 2343 0
 4610 005c A2E0     		b	.L252
 4611              	.L255:
2344:E:/LiteOS/LiteOS_Lab/drivers/third_party/ST/STM32L4xx_HAL_Driver/Src\stm32l4xx_hal_spi.c ****   }
2345:E:/LiteOS/LiteOS_Lab/drivers/third_party/ST/STM32L4xx_HAL_Driver/Src\stm32l4xx_hal_spi.c **** 
2346:E:/LiteOS/LiteOS_Lab/drivers/third_party/ST/STM32L4xx_HAL_Driver/Src\stm32l4xx_hal_spi.c ****   /* SPI in Error Treatment --------------------------------------------------*/
2347:E:/LiteOS/LiteOS_Lab/drivers/third_party/ST/STM32L4xx_HAL_Driver/Src\stm32l4xx_hal_spi.c ****   if (((itflag & (SPI_FLAG_MODF | SPI_FLAG_OVR | SPI_FLAG_FRE)) != RESET) && ((itsource & SPI_IT_ER
 4612              		.loc 1 2347 0
 4613 005e BB69     		ldr	r3, [r7, #24]
 4614 0060 03F4B073 		and	r3, r3, #352
 4615 0064 002B     		cmp	r3, #0
 4616 0066 00F09D80 		beq	.L252
 4617              		.loc 1 2347 0 is_stmt 0 discriminator 1
 4618 006a FB69     		ldr	r3, [r7, #28]
 4619 006c 03F02003 		and	r3, r3, #32
 4620 0070 002B     		cmp	r3, #0
 4621 0072 00F09780 		beq	.L252
2348:E:/LiteOS/LiteOS_Lab/drivers/third_party/ST/STM32L4xx_HAL_Driver/Src\stm32l4xx_hal_spi.c ****   {
2349:E:/LiteOS/LiteOS_Lab/drivers/third_party/ST/STM32L4xx_HAL_Driver/Src\stm32l4xx_hal_spi.c ****     /* SPI Overrun error interrupt occurred ----------------------------------*/
2350:E:/LiteOS/LiteOS_Lab/drivers/third_party/ST/STM32L4xx_HAL_Driver/Src\stm32l4xx_hal_spi.c ****     if ((itflag & SPI_FLAG_OVR) != RESET)
 4622              		.loc 1 2350 0 is_stmt 1
 4623 0076 BB69     		ldr	r3, [r7, #24]
 4624 0078 03F04003 		and	r3, r3, #64
 4625 007c 002B     		cmp	r3, #0
 4626 007e 23D0     		beq	.L256
2351:E:/LiteOS/LiteOS_Lab/drivers/third_party/ST/STM32L4xx_HAL_Driver/Src\stm32l4xx_hal_spi.c ****     {
2352:E:/LiteOS/LiteOS_Lab/drivers/third_party/ST/STM32L4xx_HAL_Driver/Src\stm32l4xx_hal_spi.c ****       if (hspi->State != HAL_SPI_STATE_BUSY_TX)
 4627              		.loc 1 2352 0
 4628 0080 7B68     		ldr	r3, [r7, #4]
 4629 0082 93F85D30 		ldrb	r3, [r3, #93]
 4630 0086 DBB2     		uxtb	r3, r3
ARM GAS  C:\Users\user\AppData\Local\Temp\ccvQ1M9B.s 			page 123


 4631 0088 032B     		cmp	r3, #3
 4632 008a 11D0     		beq	.L257
2353:E:/LiteOS/LiteOS_Lab/drivers/third_party/ST/STM32L4xx_HAL_Driver/Src\stm32l4xx_hal_spi.c ****       {
2354:E:/LiteOS/LiteOS_Lab/drivers/third_party/ST/STM32L4xx_HAL_Driver/Src\stm32l4xx_hal_spi.c ****         SET_BIT(hspi->ErrorCode, HAL_SPI_ERROR_OVR);
 4633              		.loc 1 2354 0
 4634 008c 7B68     		ldr	r3, [r7, #4]
 4635 008e 1B6E     		ldr	r3, [r3, #96]
 4636 0090 43F00402 		orr	r2, r3, #4
 4637 0094 7B68     		ldr	r3, [r7, #4]
 4638 0096 1A66     		str	r2, [r3, #96]
 4639              	.LBB7:
2355:E:/LiteOS/LiteOS_Lab/drivers/third_party/ST/STM32L4xx_HAL_Driver/Src\stm32l4xx_hal_spi.c ****         __HAL_SPI_CLEAR_OVRFLAG(hspi);
 4640              		.loc 1 2355 0
 4641 0098 0023     		movs	r3, #0
 4642 009a 7B61     		str	r3, [r7, #20]
 4643 009c 7B68     		ldr	r3, [r7, #4]
 4644 009e 1B68     		ldr	r3, [r3]
 4645 00a0 DB68     		ldr	r3, [r3, #12]
 4646 00a2 7B61     		str	r3, [r7, #20]
 4647 00a4 7B68     		ldr	r3, [r7, #4]
 4648 00a6 1B68     		ldr	r3, [r3]
 4649 00a8 9B68     		ldr	r3, [r3, #8]
 4650 00aa 7B61     		str	r3, [r7, #20]
 4651 00ac 7B69     		ldr	r3, [r7, #20]
 4652              	.LBE7:
 4653 00ae 0BE0     		b	.L256
 4654              	.L257:
 4655              	.LBB8:
2356:E:/LiteOS/LiteOS_Lab/drivers/third_party/ST/STM32L4xx_HAL_Driver/Src\stm32l4xx_hal_spi.c ****       }
2357:E:/LiteOS/LiteOS_Lab/drivers/third_party/ST/STM32L4xx_HAL_Driver/Src\stm32l4xx_hal_spi.c ****       else
2358:E:/LiteOS/LiteOS_Lab/drivers/third_party/ST/STM32L4xx_HAL_Driver/Src\stm32l4xx_hal_spi.c ****       {
2359:E:/LiteOS/LiteOS_Lab/drivers/third_party/ST/STM32L4xx_HAL_Driver/Src\stm32l4xx_hal_spi.c ****         __HAL_SPI_CLEAR_OVRFLAG(hspi);
 4656              		.loc 1 2359 0
 4657 00b0 0023     		movs	r3, #0
 4658 00b2 3B61     		str	r3, [r7, #16]
 4659 00b4 7B68     		ldr	r3, [r7, #4]
 4660 00b6 1B68     		ldr	r3, [r3]
 4661 00b8 DB68     		ldr	r3, [r3, #12]
 4662 00ba 3B61     		str	r3, [r7, #16]
 4663 00bc 7B68     		ldr	r3, [r7, #4]
 4664 00be 1B68     		ldr	r3, [r3]
 4665 00c0 9B68     		ldr	r3, [r3, #8]
 4666 00c2 3B61     		str	r3, [r7, #16]
 4667 00c4 3B69     		ldr	r3, [r7, #16]
 4668              	.LBE8:
2360:E:/LiteOS/LiteOS_Lab/drivers/third_party/ST/STM32L4xx_HAL_Driver/Src\stm32l4xx_hal_spi.c ****         return;
 4669              		.loc 1 2360 0
 4670 00c6 6DE0     		b	.L252
 4671              	.L256:
2361:E:/LiteOS/LiteOS_Lab/drivers/third_party/ST/STM32L4xx_HAL_Driver/Src\stm32l4xx_hal_spi.c ****       }
2362:E:/LiteOS/LiteOS_Lab/drivers/third_party/ST/STM32L4xx_HAL_Driver/Src\stm32l4xx_hal_spi.c ****     }
2363:E:/LiteOS/LiteOS_Lab/drivers/third_party/ST/STM32L4xx_HAL_Driver/Src\stm32l4xx_hal_spi.c **** 
2364:E:/LiteOS/LiteOS_Lab/drivers/third_party/ST/STM32L4xx_HAL_Driver/Src\stm32l4xx_hal_spi.c ****     /* SPI Mode Fault error interrupt occurred -------------------------------*/
2365:E:/LiteOS/LiteOS_Lab/drivers/third_party/ST/STM32L4xx_HAL_Driver/Src\stm32l4xx_hal_spi.c ****     if ((itflag & SPI_FLAG_MODF) != RESET)
 4672              		.loc 1 2365 0
 4673 00c8 BB69     		ldr	r3, [r7, #24]
 4674 00ca 03F02003 		and	r3, r3, #32
ARM GAS  C:\Users\user\AppData\Local\Temp\ccvQ1M9B.s 			page 124


 4675 00ce 002B     		cmp	r3, #0
 4676 00d0 14D0     		beq	.L258
2366:E:/LiteOS/LiteOS_Lab/drivers/third_party/ST/STM32L4xx_HAL_Driver/Src\stm32l4xx_hal_spi.c ****     {
2367:E:/LiteOS/LiteOS_Lab/drivers/third_party/ST/STM32L4xx_HAL_Driver/Src\stm32l4xx_hal_spi.c ****       SET_BIT(hspi->ErrorCode, HAL_SPI_ERROR_MODF);
 4677              		.loc 1 2367 0
 4678 00d2 7B68     		ldr	r3, [r7, #4]
 4679 00d4 1B6E     		ldr	r3, [r3, #96]
 4680 00d6 43F00102 		orr	r2, r3, #1
 4681 00da 7B68     		ldr	r3, [r7, #4]
 4682 00dc 1A66     		str	r2, [r3, #96]
 4683              	.LBB9:
2368:E:/LiteOS/LiteOS_Lab/drivers/third_party/ST/STM32L4xx_HAL_Driver/Src\stm32l4xx_hal_spi.c ****       __HAL_SPI_CLEAR_MODFFLAG(hspi);
 4684              		.loc 1 2368 0
 4685 00de 0023     		movs	r3, #0
 4686 00e0 FB60     		str	r3, [r7, #12]
 4687 00e2 7B68     		ldr	r3, [r7, #4]
 4688 00e4 1B68     		ldr	r3, [r3]
 4689 00e6 9B68     		ldr	r3, [r3, #8]
 4690 00e8 FB60     		str	r3, [r7, #12]
 4691 00ea 7B68     		ldr	r3, [r7, #4]
 4692 00ec 1B68     		ldr	r3, [r3]
 4693 00ee 1A68     		ldr	r2, [r3]
 4694 00f0 7B68     		ldr	r3, [r7, #4]
 4695 00f2 1B68     		ldr	r3, [r3]
 4696 00f4 22F04002 		bic	r2, r2, #64
 4697 00f8 1A60     		str	r2, [r3]
 4698 00fa FB68     		ldr	r3, [r7, #12]
 4699              	.L258:
 4700              	.LBE9:
2369:E:/LiteOS/LiteOS_Lab/drivers/third_party/ST/STM32L4xx_HAL_Driver/Src\stm32l4xx_hal_spi.c ****     }
2370:E:/LiteOS/LiteOS_Lab/drivers/third_party/ST/STM32L4xx_HAL_Driver/Src\stm32l4xx_hal_spi.c **** 
2371:E:/LiteOS/LiteOS_Lab/drivers/third_party/ST/STM32L4xx_HAL_Driver/Src\stm32l4xx_hal_spi.c ****     /* SPI Frame error interrupt occurred ------------------------------------*/
2372:E:/LiteOS/LiteOS_Lab/drivers/third_party/ST/STM32L4xx_HAL_Driver/Src\stm32l4xx_hal_spi.c ****     if ((itflag & SPI_FLAG_FRE) != RESET)
 4701              		.loc 1 2372 0
 4702 00fc BB69     		ldr	r3, [r7, #24]
 4703 00fe 03F48073 		and	r3, r3, #256
 4704 0102 002B     		cmp	r3, #0
 4705 0104 0CD0     		beq	.L259
2373:E:/LiteOS/LiteOS_Lab/drivers/third_party/ST/STM32L4xx_HAL_Driver/Src\stm32l4xx_hal_spi.c ****     {
2374:E:/LiteOS/LiteOS_Lab/drivers/third_party/ST/STM32L4xx_HAL_Driver/Src\stm32l4xx_hal_spi.c ****       SET_BIT(hspi->ErrorCode, HAL_SPI_ERROR_FRE);
 4706              		.loc 1 2374 0
 4707 0106 7B68     		ldr	r3, [r7, #4]
 4708 0108 1B6E     		ldr	r3, [r3, #96]
 4709 010a 43F00802 		orr	r2, r3, #8
 4710 010e 7B68     		ldr	r3, [r7, #4]
 4711 0110 1A66     		str	r2, [r3, #96]
 4712              	.LBB10:
2375:E:/LiteOS/LiteOS_Lab/drivers/third_party/ST/STM32L4xx_HAL_Driver/Src\stm32l4xx_hal_spi.c ****       __HAL_SPI_CLEAR_FREFLAG(hspi);
 4713              		.loc 1 2375 0
 4714 0112 0023     		movs	r3, #0
 4715 0114 BB60     		str	r3, [r7, #8]
 4716 0116 7B68     		ldr	r3, [r7, #4]
 4717 0118 1B68     		ldr	r3, [r3]
 4718 011a 9B68     		ldr	r3, [r3, #8]
 4719 011c BB60     		str	r3, [r7, #8]
 4720 011e BB68     		ldr	r3, [r7, #8]
 4721              	.L259:
ARM GAS  C:\Users\user\AppData\Local\Temp\ccvQ1M9B.s 			page 125


 4722              	.LBE10:
2376:E:/LiteOS/LiteOS_Lab/drivers/third_party/ST/STM32L4xx_HAL_Driver/Src\stm32l4xx_hal_spi.c ****     }
2377:E:/LiteOS/LiteOS_Lab/drivers/third_party/ST/STM32L4xx_HAL_Driver/Src\stm32l4xx_hal_spi.c **** 
2378:E:/LiteOS/LiteOS_Lab/drivers/third_party/ST/STM32L4xx_HAL_Driver/Src\stm32l4xx_hal_spi.c ****     if (hspi->ErrorCode != HAL_SPI_ERROR_NONE)
 4723              		.loc 1 2378 0
 4724 0120 7B68     		ldr	r3, [r7, #4]
 4725 0122 1B6E     		ldr	r3, [r3, #96]
 4726 0124 002B     		cmp	r3, #0
 4727 0126 3CD0     		beq	.L265
2379:E:/LiteOS/LiteOS_Lab/drivers/third_party/ST/STM32L4xx_HAL_Driver/Src\stm32l4xx_hal_spi.c ****     {
2380:E:/LiteOS/LiteOS_Lab/drivers/third_party/ST/STM32L4xx_HAL_Driver/Src\stm32l4xx_hal_spi.c ****       /* Disable all interrupts */
2381:E:/LiteOS/LiteOS_Lab/drivers/third_party/ST/STM32L4xx_HAL_Driver/Src\stm32l4xx_hal_spi.c ****       __HAL_SPI_DISABLE_IT(hspi, SPI_IT_RXNE | SPI_IT_TXE | SPI_IT_ERR);
 4728              		.loc 1 2381 0
 4729 0128 7B68     		ldr	r3, [r7, #4]
 4730 012a 1B68     		ldr	r3, [r3]
 4731 012c 5A68     		ldr	r2, [r3, #4]
 4732 012e 7B68     		ldr	r3, [r7, #4]
 4733 0130 1B68     		ldr	r3, [r3]
 4734 0132 22F0E002 		bic	r2, r2, #224
 4735 0136 5A60     		str	r2, [r3, #4]
2382:E:/LiteOS/LiteOS_Lab/drivers/third_party/ST/STM32L4xx_HAL_Driver/Src\stm32l4xx_hal_spi.c **** 
2383:E:/LiteOS/LiteOS_Lab/drivers/third_party/ST/STM32L4xx_HAL_Driver/Src\stm32l4xx_hal_spi.c ****       hspi->State = HAL_SPI_STATE_READY;
 4736              		.loc 1 2383 0
 4737 0138 7B68     		ldr	r3, [r7, #4]
 4738 013a 0122     		movs	r2, #1
 4739 013c 83F85D20 		strb	r2, [r3, #93]
2384:E:/LiteOS/LiteOS_Lab/drivers/third_party/ST/STM32L4xx_HAL_Driver/Src\stm32l4xx_hal_spi.c ****       /* Disable the SPI DMA requests if enabled */
2385:E:/LiteOS/LiteOS_Lab/drivers/third_party/ST/STM32L4xx_HAL_Driver/Src\stm32l4xx_hal_spi.c ****       if ((HAL_IS_BIT_SET(itsource, SPI_CR2_TXDMAEN)) || (HAL_IS_BIT_SET(itsource, SPI_CR2_RXDMAEN)
 4740              		.loc 1 2385 0
 4741 0140 FB69     		ldr	r3, [r7, #28]
 4742 0142 03F00203 		and	r3, r3, #2
 4743 0146 002B     		cmp	r3, #0
 4744 0148 04D1     		bne	.L261
 4745              		.loc 1 2385 0 is_stmt 0 discriminator 1
 4746 014a FB69     		ldr	r3, [r7, #28]
 4747 014c 03F00103 		and	r3, r3, #1
 4748 0150 002B     		cmp	r3, #0
 4749 0152 22D0     		beq	.L262
 4750              	.L261:
2386:E:/LiteOS/LiteOS_Lab/drivers/third_party/ST/STM32L4xx_HAL_Driver/Src\stm32l4xx_hal_spi.c ****       {
2387:E:/LiteOS/LiteOS_Lab/drivers/third_party/ST/STM32L4xx_HAL_Driver/Src\stm32l4xx_hal_spi.c ****         CLEAR_BIT(hspi->Instance->CR2, (SPI_CR2_TXDMAEN | SPI_CR2_RXDMAEN));
 4751              		.loc 1 2387 0 is_stmt 1
 4752 0154 7B68     		ldr	r3, [r7, #4]
 4753 0156 1B68     		ldr	r3, [r3]
 4754 0158 5A68     		ldr	r2, [r3, #4]
 4755 015a 7B68     		ldr	r3, [r7, #4]
 4756 015c 1B68     		ldr	r3, [r3]
 4757 015e 22F00302 		bic	r2, r2, #3
 4758 0162 5A60     		str	r2, [r3, #4]
2388:E:/LiteOS/LiteOS_Lab/drivers/third_party/ST/STM32L4xx_HAL_Driver/Src\stm32l4xx_hal_spi.c **** 
2389:E:/LiteOS/LiteOS_Lab/drivers/third_party/ST/STM32L4xx_HAL_Driver/Src\stm32l4xx_hal_spi.c ****         /* Abort the SPI DMA Rx channel */
2390:E:/LiteOS/LiteOS_Lab/drivers/third_party/ST/STM32L4xx_HAL_Driver/Src\stm32l4xx_hal_spi.c ****         if (hspi->hdmarx != NULL)
 4759              		.loc 1 2390 0
 4760 0164 7B68     		ldr	r3, [r7, #4]
 4761 0166 9B6D     		ldr	r3, [r3, #88]
 4762 0168 002B     		cmp	r3, #0
 4763 016a 08D0     		beq	.L263
ARM GAS  C:\Users\user\AppData\Local\Temp\ccvQ1M9B.s 			page 126


2391:E:/LiteOS/LiteOS_Lab/drivers/third_party/ST/STM32L4xx_HAL_Driver/Src\stm32l4xx_hal_spi.c ****         {
2392:E:/LiteOS/LiteOS_Lab/drivers/third_party/ST/STM32L4xx_HAL_Driver/Src\stm32l4xx_hal_spi.c ****           /* Set the SPI DMA Abort callback :
2393:E:/LiteOS/LiteOS_Lab/drivers/third_party/ST/STM32L4xx_HAL_Driver/Src\stm32l4xx_hal_spi.c ****           will lead to call HAL_SPI_ErrorCallback() at end of DMA abort procedure */
2394:E:/LiteOS/LiteOS_Lab/drivers/third_party/ST/STM32L4xx_HAL_Driver/Src\stm32l4xx_hal_spi.c ****           hspi->hdmarx->XferAbortCallback = SPI_DMAAbortOnError;
 4764              		.loc 1 2394 0
 4765 016c 7B68     		ldr	r3, [r7, #4]
 4766 016e 9B6D     		ldr	r3, [r3, #88]
 4767 0170 0E4A     		ldr	r2, .L266
 4768 0172 9A63     		str	r2, [r3, #56]
2395:E:/LiteOS/LiteOS_Lab/drivers/third_party/ST/STM32L4xx_HAL_Driver/Src\stm32l4xx_hal_spi.c ****           HAL_DMA_Abort_IT(hspi->hdmarx);
 4769              		.loc 1 2395 0
 4770 0174 7B68     		ldr	r3, [r7, #4]
 4771 0176 9B6D     		ldr	r3, [r3, #88]
 4772 0178 1846     		mov	r0, r3
 4773 017a FFF7FEFF 		bl	HAL_DMA_Abort_IT
 4774              	.L263:
2396:E:/LiteOS/LiteOS_Lab/drivers/third_party/ST/STM32L4xx_HAL_Driver/Src\stm32l4xx_hal_spi.c ****         }
2397:E:/LiteOS/LiteOS_Lab/drivers/third_party/ST/STM32L4xx_HAL_Driver/Src\stm32l4xx_hal_spi.c ****         /* Abort the SPI DMA Tx channel */
2398:E:/LiteOS/LiteOS_Lab/drivers/third_party/ST/STM32L4xx_HAL_Driver/Src\stm32l4xx_hal_spi.c ****         if (hspi->hdmatx != NULL)
 4775              		.loc 1 2398 0
 4776 017e 7B68     		ldr	r3, [r7, #4]
 4777 0180 5B6D     		ldr	r3, [r3, #84]
 4778 0182 002B     		cmp	r3, #0
 4779 0184 0CD0     		beq	.L260
2399:E:/LiteOS/LiteOS_Lab/drivers/third_party/ST/STM32L4xx_HAL_Driver/Src\stm32l4xx_hal_spi.c ****         {
2400:E:/LiteOS/LiteOS_Lab/drivers/third_party/ST/STM32L4xx_HAL_Driver/Src\stm32l4xx_hal_spi.c ****           /* Set the SPI DMA Abort callback :
2401:E:/LiteOS/LiteOS_Lab/drivers/third_party/ST/STM32L4xx_HAL_Driver/Src\stm32l4xx_hal_spi.c ****           will lead to call HAL_SPI_ErrorCallback() at end of DMA abort procedure */
2402:E:/LiteOS/LiteOS_Lab/drivers/third_party/ST/STM32L4xx_HAL_Driver/Src\stm32l4xx_hal_spi.c ****           hspi->hdmatx->XferAbortCallback = SPI_DMAAbortOnError;
 4780              		.loc 1 2402 0
 4781 0186 7B68     		ldr	r3, [r7, #4]
 4782 0188 5B6D     		ldr	r3, [r3, #84]
 4783 018a 084A     		ldr	r2, .L266
 4784 018c 9A63     		str	r2, [r3, #56]
2403:E:/LiteOS/LiteOS_Lab/drivers/third_party/ST/STM32L4xx_HAL_Driver/Src\stm32l4xx_hal_spi.c ****           HAL_DMA_Abort_IT(hspi->hdmatx);
 4785              		.loc 1 2403 0
 4786 018e 7B68     		ldr	r3, [r7, #4]
 4787 0190 5B6D     		ldr	r3, [r3, #84]
 4788 0192 1846     		mov	r0, r3
 4789 0194 FFF7FEFF 		bl	HAL_DMA_Abort_IT
2398:E:/LiteOS/LiteOS_Lab/drivers/third_party/ST/STM32L4xx_HAL_Driver/Src\stm32l4xx_hal_spi.c ****         {
 4790              		.loc 1 2398 0
 4791 0198 02E0     		b	.L260
 4792              	.L262:
2404:E:/LiteOS/LiteOS_Lab/drivers/third_party/ST/STM32L4xx_HAL_Driver/Src\stm32l4xx_hal_spi.c ****         }
2405:E:/LiteOS/LiteOS_Lab/drivers/third_party/ST/STM32L4xx_HAL_Driver/Src\stm32l4xx_hal_spi.c ****       }
2406:E:/LiteOS/LiteOS_Lab/drivers/third_party/ST/STM32L4xx_HAL_Driver/Src\stm32l4xx_hal_spi.c ****       else
2407:E:/LiteOS/LiteOS_Lab/drivers/third_party/ST/STM32L4xx_HAL_Driver/Src\stm32l4xx_hal_spi.c ****       {
2408:E:/LiteOS/LiteOS_Lab/drivers/third_party/ST/STM32L4xx_HAL_Driver/Src\stm32l4xx_hal_spi.c ****         /* Call user error callback */
2409:E:/LiteOS/LiteOS_Lab/drivers/third_party/ST/STM32L4xx_HAL_Driver/Src\stm32l4xx_hal_spi.c ****         HAL_SPI_ErrorCallback(hspi);
 4793              		.loc 1 2409 0
 4794 019a 7868     		ldr	r0, [r7, #4]
 4795 019c FFF7FEFF 		bl	HAL_SPI_ErrorCallback
 4796              	.L260:
2410:E:/LiteOS/LiteOS_Lab/drivers/third_party/ST/STM32L4xx_HAL_Driver/Src\stm32l4xx_hal_spi.c ****       }
2411:E:/LiteOS/LiteOS_Lab/drivers/third_party/ST/STM32L4xx_HAL_Driver/Src\stm32l4xx_hal_spi.c ****     }
2412:E:/LiteOS/LiteOS_Lab/drivers/third_party/ST/STM32L4xx_HAL_Driver/Src\stm32l4xx_hal_spi.c ****     return;
 4797              		.loc 1 2412 0 discriminator 1
ARM GAS  C:\Users\user\AppData\Local\Temp\ccvQ1M9B.s 			page 127


 4798 01a0 00BF     		nop
 4799              	.L265:
 4800              		.loc 1 2412 0 is_stmt 0
 4801 01a2 00BF     		nop
 4802              	.L252:
2413:E:/LiteOS/LiteOS_Lab/drivers/third_party/ST/STM32L4xx_HAL_Driver/Src\stm32l4xx_hal_spi.c ****   }
2414:E:/LiteOS/LiteOS_Lab/drivers/third_party/ST/STM32L4xx_HAL_Driver/Src\stm32l4xx_hal_spi.c **** }
 4803              		.loc 1 2414 0 is_stmt 1
 4804 01a4 2037     		adds	r7, r7, #32
 4805              	.LCFI99:
 4806              		.cfi_def_cfa_offset 8
 4807 01a6 BD46     		mov	sp, r7
 4808              	.LCFI100:
 4809              		.cfi_def_cfa_register 13
 4810              		@ sp needed
 4811 01a8 80BD     		pop	{r7, pc}
 4812              	.L267:
 4813 01aa 00BF     		.align	2
 4814              	.L266:
 4815 01ac 00000000 		.word	SPI_DMAAbortOnError
 4816              		.cfi_endproc
 4817              	.LFE151:
 4819              		.section	.text.HAL_SPI_TxCpltCallback,"ax",%progbits
 4820              		.align	1
 4821              		.weak	HAL_SPI_TxCpltCallback
 4822              		.syntax unified
 4823              		.thumb
 4824              		.thumb_func
 4825              		.fpu fpv4-sp-d16
 4827              	HAL_SPI_TxCpltCallback:
 4828              	.LFB152:
2415:E:/LiteOS/LiteOS_Lab/drivers/third_party/ST/STM32L4xx_HAL_Driver/Src\stm32l4xx_hal_spi.c **** 
2416:E:/LiteOS/LiteOS_Lab/drivers/third_party/ST/STM32L4xx_HAL_Driver/Src\stm32l4xx_hal_spi.c **** /**
2417:E:/LiteOS/LiteOS_Lab/drivers/third_party/ST/STM32L4xx_HAL_Driver/Src\stm32l4xx_hal_spi.c ****   * @brief  Tx Transfer completed callback.
2418:E:/LiteOS/LiteOS_Lab/drivers/third_party/ST/STM32L4xx_HAL_Driver/Src\stm32l4xx_hal_spi.c ****   * @param  hspi pointer to a SPI_HandleTypeDef structure that contains
2419:E:/LiteOS/LiteOS_Lab/drivers/third_party/ST/STM32L4xx_HAL_Driver/Src\stm32l4xx_hal_spi.c ****   *               the configuration information for SPI module.
2420:E:/LiteOS/LiteOS_Lab/drivers/third_party/ST/STM32L4xx_HAL_Driver/Src\stm32l4xx_hal_spi.c ****   * @retval None
2421:E:/LiteOS/LiteOS_Lab/drivers/third_party/ST/STM32L4xx_HAL_Driver/Src\stm32l4xx_hal_spi.c ****   */
2422:E:/LiteOS/LiteOS_Lab/drivers/third_party/ST/STM32L4xx_HAL_Driver/Src\stm32l4xx_hal_spi.c **** __weak void HAL_SPI_TxCpltCallback(SPI_HandleTypeDef *hspi)
2423:E:/LiteOS/LiteOS_Lab/drivers/third_party/ST/STM32L4xx_HAL_Driver/Src\stm32l4xx_hal_spi.c **** {
 4829              		.loc 1 2423 0
 4830              		.cfi_startproc
 4831              		@ args = 0, pretend = 0, frame = 8
 4832              		@ frame_needed = 1, uses_anonymous_args = 0
 4833              		@ link register save eliminated.
 4834 0000 80B4     		push	{r7}
 4835              	.LCFI101:
 4836              		.cfi_def_cfa_offset 4
 4837              		.cfi_offset 7, -4
 4838 0002 83B0     		sub	sp, sp, #12
 4839              	.LCFI102:
 4840              		.cfi_def_cfa_offset 16
 4841 0004 00AF     		add	r7, sp, #0
 4842              	.LCFI103:
 4843              		.cfi_def_cfa_register 7
 4844 0006 7860     		str	r0, [r7, #4]
2424:E:/LiteOS/LiteOS_Lab/drivers/third_party/ST/STM32L4xx_HAL_Driver/Src\stm32l4xx_hal_spi.c ****   /* Prevent unused argument(s) compilation warning */
ARM GAS  C:\Users\user\AppData\Local\Temp\ccvQ1M9B.s 			page 128


2425:E:/LiteOS/LiteOS_Lab/drivers/third_party/ST/STM32L4xx_HAL_Driver/Src\stm32l4xx_hal_spi.c ****   UNUSED(hspi);
2426:E:/LiteOS/LiteOS_Lab/drivers/third_party/ST/STM32L4xx_HAL_Driver/Src\stm32l4xx_hal_spi.c **** 
2427:E:/LiteOS/LiteOS_Lab/drivers/third_party/ST/STM32L4xx_HAL_Driver/Src\stm32l4xx_hal_spi.c ****   /* NOTE : This function should not be modified, when the callback is needed,
2428:E:/LiteOS/LiteOS_Lab/drivers/third_party/ST/STM32L4xx_HAL_Driver/Src\stm32l4xx_hal_spi.c ****             the HAL_SPI_TxCpltCallback should be implemented in the user file
2429:E:/LiteOS/LiteOS_Lab/drivers/third_party/ST/STM32L4xx_HAL_Driver/Src\stm32l4xx_hal_spi.c ****    */
2430:E:/LiteOS/LiteOS_Lab/drivers/third_party/ST/STM32L4xx_HAL_Driver/Src\stm32l4xx_hal_spi.c **** }
 4845              		.loc 1 2430 0
 4846 0008 00BF     		nop
 4847 000a 0C37     		adds	r7, r7, #12
 4848              	.LCFI104:
 4849              		.cfi_def_cfa_offset 4
 4850 000c BD46     		mov	sp, r7
 4851              	.LCFI105:
 4852              		.cfi_def_cfa_register 13
 4853              		@ sp needed
 4854 000e 5DF8047B 		ldr	r7, [sp], #4
 4855              	.LCFI106:
 4856              		.cfi_restore 7
 4857              		.cfi_def_cfa_offset 0
 4858 0012 7047     		bx	lr
 4859              		.cfi_endproc
 4860              	.LFE152:
 4862              		.section	.text.HAL_SPI_RxCpltCallback,"ax",%progbits
 4863              		.align	1
 4864              		.weak	HAL_SPI_RxCpltCallback
 4865              		.syntax unified
 4866              		.thumb
 4867              		.thumb_func
 4868              		.fpu fpv4-sp-d16
 4870              	HAL_SPI_RxCpltCallback:
 4871              	.LFB153:
2431:E:/LiteOS/LiteOS_Lab/drivers/third_party/ST/STM32L4xx_HAL_Driver/Src\stm32l4xx_hal_spi.c **** 
2432:E:/LiteOS/LiteOS_Lab/drivers/third_party/ST/STM32L4xx_HAL_Driver/Src\stm32l4xx_hal_spi.c **** /**
2433:E:/LiteOS/LiteOS_Lab/drivers/third_party/ST/STM32L4xx_HAL_Driver/Src\stm32l4xx_hal_spi.c ****   * @brief  Rx Transfer completed callback.
2434:E:/LiteOS/LiteOS_Lab/drivers/third_party/ST/STM32L4xx_HAL_Driver/Src\stm32l4xx_hal_spi.c ****   * @param  hspi pointer to a SPI_HandleTypeDef structure that contains
2435:E:/LiteOS/LiteOS_Lab/drivers/third_party/ST/STM32L4xx_HAL_Driver/Src\stm32l4xx_hal_spi.c ****   *               the configuration information for SPI module.
2436:E:/LiteOS/LiteOS_Lab/drivers/third_party/ST/STM32L4xx_HAL_Driver/Src\stm32l4xx_hal_spi.c ****   * @retval None
2437:E:/LiteOS/LiteOS_Lab/drivers/third_party/ST/STM32L4xx_HAL_Driver/Src\stm32l4xx_hal_spi.c ****   */
2438:E:/LiteOS/LiteOS_Lab/drivers/third_party/ST/STM32L4xx_HAL_Driver/Src\stm32l4xx_hal_spi.c **** __weak void HAL_SPI_RxCpltCallback(SPI_HandleTypeDef *hspi)
2439:E:/LiteOS/LiteOS_Lab/drivers/third_party/ST/STM32L4xx_HAL_Driver/Src\stm32l4xx_hal_spi.c **** {
 4872              		.loc 1 2439 0
 4873              		.cfi_startproc
 4874              		@ args = 0, pretend = 0, frame = 8
 4875              		@ frame_needed = 1, uses_anonymous_args = 0
 4876              		@ link register save eliminated.
 4877 0000 80B4     		push	{r7}
 4878              	.LCFI107:
 4879              		.cfi_def_cfa_offset 4
 4880              		.cfi_offset 7, -4
 4881 0002 83B0     		sub	sp, sp, #12
 4882              	.LCFI108:
 4883              		.cfi_def_cfa_offset 16
 4884 0004 00AF     		add	r7, sp, #0
 4885              	.LCFI109:
 4886              		.cfi_def_cfa_register 7
 4887 0006 7860     		str	r0, [r7, #4]
2440:E:/LiteOS/LiteOS_Lab/drivers/third_party/ST/STM32L4xx_HAL_Driver/Src\stm32l4xx_hal_spi.c ****   /* Prevent unused argument(s) compilation warning */
ARM GAS  C:\Users\user\AppData\Local\Temp\ccvQ1M9B.s 			page 129


2441:E:/LiteOS/LiteOS_Lab/drivers/third_party/ST/STM32L4xx_HAL_Driver/Src\stm32l4xx_hal_spi.c ****   UNUSED(hspi);
2442:E:/LiteOS/LiteOS_Lab/drivers/third_party/ST/STM32L4xx_HAL_Driver/Src\stm32l4xx_hal_spi.c **** 
2443:E:/LiteOS/LiteOS_Lab/drivers/third_party/ST/STM32L4xx_HAL_Driver/Src\stm32l4xx_hal_spi.c ****   /* NOTE : This function should not be modified, when the callback is needed,
2444:E:/LiteOS/LiteOS_Lab/drivers/third_party/ST/STM32L4xx_HAL_Driver/Src\stm32l4xx_hal_spi.c ****             the HAL_SPI_RxCpltCallback should be implemented in the user file
2445:E:/LiteOS/LiteOS_Lab/drivers/third_party/ST/STM32L4xx_HAL_Driver/Src\stm32l4xx_hal_spi.c ****    */
2446:E:/LiteOS/LiteOS_Lab/drivers/third_party/ST/STM32L4xx_HAL_Driver/Src\stm32l4xx_hal_spi.c **** }
 4888              		.loc 1 2446 0
 4889 0008 00BF     		nop
 4890 000a 0C37     		adds	r7, r7, #12
 4891              	.LCFI110:
 4892              		.cfi_def_cfa_offset 4
 4893 000c BD46     		mov	sp, r7
 4894              	.LCFI111:
 4895              		.cfi_def_cfa_register 13
 4896              		@ sp needed
 4897 000e 5DF8047B 		ldr	r7, [sp], #4
 4898              	.LCFI112:
 4899              		.cfi_restore 7
 4900              		.cfi_def_cfa_offset 0
 4901 0012 7047     		bx	lr
 4902              		.cfi_endproc
 4903              	.LFE153:
 4905              		.section	.text.HAL_SPI_TxRxCpltCallback,"ax",%progbits
 4906              		.align	1
 4907              		.weak	HAL_SPI_TxRxCpltCallback
 4908              		.syntax unified
 4909              		.thumb
 4910              		.thumb_func
 4911              		.fpu fpv4-sp-d16
 4913              	HAL_SPI_TxRxCpltCallback:
 4914              	.LFB154:
2447:E:/LiteOS/LiteOS_Lab/drivers/third_party/ST/STM32L4xx_HAL_Driver/Src\stm32l4xx_hal_spi.c **** 
2448:E:/LiteOS/LiteOS_Lab/drivers/third_party/ST/STM32L4xx_HAL_Driver/Src\stm32l4xx_hal_spi.c **** /**
2449:E:/LiteOS/LiteOS_Lab/drivers/third_party/ST/STM32L4xx_HAL_Driver/Src\stm32l4xx_hal_spi.c ****   * @brief  Tx and Rx Transfer completed callback.
2450:E:/LiteOS/LiteOS_Lab/drivers/third_party/ST/STM32L4xx_HAL_Driver/Src\stm32l4xx_hal_spi.c ****   * @param  hspi pointer to a SPI_HandleTypeDef structure that contains
2451:E:/LiteOS/LiteOS_Lab/drivers/third_party/ST/STM32L4xx_HAL_Driver/Src\stm32l4xx_hal_spi.c ****   *               the configuration information for SPI module.
2452:E:/LiteOS/LiteOS_Lab/drivers/third_party/ST/STM32L4xx_HAL_Driver/Src\stm32l4xx_hal_spi.c ****   * @retval None
2453:E:/LiteOS/LiteOS_Lab/drivers/third_party/ST/STM32L4xx_HAL_Driver/Src\stm32l4xx_hal_spi.c ****   */
2454:E:/LiteOS/LiteOS_Lab/drivers/third_party/ST/STM32L4xx_HAL_Driver/Src\stm32l4xx_hal_spi.c **** __weak void HAL_SPI_TxRxCpltCallback(SPI_HandleTypeDef *hspi)
2455:E:/LiteOS/LiteOS_Lab/drivers/third_party/ST/STM32L4xx_HAL_Driver/Src\stm32l4xx_hal_spi.c **** {
 4915              		.loc 1 2455 0
 4916              		.cfi_startproc
 4917              		@ args = 0, pretend = 0, frame = 8
 4918              		@ frame_needed = 1, uses_anonymous_args = 0
 4919              		@ link register save eliminated.
 4920 0000 80B4     		push	{r7}
 4921              	.LCFI113:
 4922              		.cfi_def_cfa_offset 4
 4923              		.cfi_offset 7, -4
 4924 0002 83B0     		sub	sp, sp, #12
 4925              	.LCFI114:
 4926              		.cfi_def_cfa_offset 16
 4927 0004 00AF     		add	r7, sp, #0
 4928              	.LCFI115:
 4929              		.cfi_def_cfa_register 7
 4930 0006 7860     		str	r0, [r7, #4]
2456:E:/LiteOS/LiteOS_Lab/drivers/third_party/ST/STM32L4xx_HAL_Driver/Src\stm32l4xx_hal_spi.c ****   /* Prevent unused argument(s) compilation warning */
ARM GAS  C:\Users\user\AppData\Local\Temp\ccvQ1M9B.s 			page 130


2457:E:/LiteOS/LiteOS_Lab/drivers/third_party/ST/STM32L4xx_HAL_Driver/Src\stm32l4xx_hal_spi.c ****   UNUSED(hspi);
2458:E:/LiteOS/LiteOS_Lab/drivers/third_party/ST/STM32L4xx_HAL_Driver/Src\stm32l4xx_hal_spi.c **** 
2459:E:/LiteOS/LiteOS_Lab/drivers/third_party/ST/STM32L4xx_HAL_Driver/Src\stm32l4xx_hal_spi.c ****   /* NOTE : This function should not be modified, when the callback is needed,
2460:E:/LiteOS/LiteOS_Lab/drivers/third_party/ST/STM32L4xx_HAL_Driver/Src\stm32l4xx_hal_spi.c ****             the HAL_SPI_TxRxCpltCallback should be implemented in the user file
2461:E:/LiteOS/LiteOS_Lab/drivers/third_party/ST/STM32L4xx_HAL_Driver/Src\stm32l4xx_hal_spi.c ****    */
2462:E:/LiteOS/LiteOS_Lab/drivers/third_party/ST/STM32L4xx_HAL_Driver/Src\stm32l4xx_hal_spi.c **** }
 4931              		.loc 1 2462 0
 4932 0008 00BF     		nop
 4933 000a 0C37     		adds	r7, r7, #12
 4934              	.LCFI116:
 4935              		.cfi_def_cfa_offset 4
 4936 000c BD46     		mov	sp, r7
 4937              	.LCFI117:
 4938              		.cfi_def_cfa_register 13
 4939              		@ sp needed
 4940 000e 5DF8047B 		ldr	r7, [sp], #4
 4941              	.LCFI118:
 4942              		.cfi_restore 7
 4943              		.cfi_def_cfa_offset 0
 4944 0012 7047     		bx	lr
 4945              		.cfi_endproc
 4946              	.LFE154:
 4948              		.section	.text.HAL_SPI_TxHalfCpltCallback,"ax",%progbits
 4949              		.align	1
 4950              		.weak	HAL_SPI_TxHalfCpltCallback
 4951              		.syntax unified
 4952              		.thumb
 4953              		.thumb_func
 4954              		.fpu fpv4-sp-d16
 4956              	HAL_SPI_TxHalfCpltCallback:
 4957              	.LFB155:
2463:E:/LiteOS/LiteOS_Lab/drivers/third_party/ST/STM32L4xx_HAL_Driver/Src\stm32l4xx_hal_spi.c **** 
2464:E:/LiteOS/LiteOS_Lab/drivers/third_party/ST/STM32L4xx_HAL_Driver/Src\stm32l4xx_hal_spi.c **** /**
2465:E:/LiteOS/LiteOS_Lab/drivers/third_party/ST/STM32L4xx_HAL_Driver/Src\stm32l4xx_hal_spi.c ****   * @brief  Tx Half Transfer completed callback.
2466:E:/LiteOS/LiteOS_Lab/drivers/third_party/ST/STM32L4xx_HAL_Driver/Src\stm32l4xx_hal_spi.c ****   * @param  hspi pointer to a SPI_HandleTypeDef structure that contains
2467:E:/LiteOS/LiteOS_Lab/drivers/third_party/ST/STM32L4xx_HAL_Driver/Src\stm32l4xx_hal_spi.c ****   *               the configuration information for SPI module.
2468:E:/LiteOS/LiteOS_Lab/drivers/third_party/ST/STM32L4xx_HAL_Driver/Src\stm32l4xx_hal_spi.c ****   * @retval None
2469:E:/LiteOS/LiteOS_Lab/drivers/third_party/ST/STM32L4xx_HAL_Driver/Src\stm32l4xx_hal_spi.c ****   */
2470:E:/LiteOS/LiteOS_Lab/drivers/third_party/ST/STM32L4xx_HAL_Driver/Src\stm32l4xx_hal_spi.c **** __weak void HAL_SPI_TxHalfCpltCallback(SPI_HandleTypeDef *hspi)
2471:E:/LiteOS/LiteOS_Lab/drivers/third_party/ST/STM32L4xx_HAL_Driver/Src\stm32l4xx_hal_spi.c **** {
 4958              		.loc 1 2471 0
 4959              		.cfi_startproc
 4960              		@ args = 0, pretend = 0, frame = 8
 4961              		@ frame_needed = 1, uses_anonymous_args = 0
 4962              		@ link register save eliminated.
 4963 0000 80B4     		push	{r7}
 4964              	.LCFI119:
 4965              		.cfi_def_cfa_offset 4
 4966              		.cfi_offset 7, -4
 4967 0002 83B0     		sub	sp, sp, #12
 4968              	.LCFI120:
 4969              		.cfi_def_cfa_offset 16
 4970 0004 00AF     		add	r7, sp, #0
 4971              	.LCFI121:
 4972              		.cfi_def_cfa_register 7
 4973 0006 7860     		str	r0, [r7, #4]
2472:E:/LiteOS/LiteOS_Lab/drivers/third_party/ST/STM32L4xx_HAL_Driver/Src\stm32l4xx_hal_spi.c ****   /* Prevent unused argument(s) compilation warning */
ARM GAS  C:\Users\user\AppData\Local\Temp\ccvQ1M9B.s 			page 131


2473:E:/LiteOS/LiteOS_Lab/drivers/third_party/ST/STM32L4xx_HAL_Driver/Src\stm32l4xx_hal_spi.c ****   UNUSED(hspi);
2474:E:/LiteOS/LiteOS_Lab/drivers/third_party/ST/STM32L4xx_HAL_Driver/Src\stm32l4xx_hal_spi.c **** 
2475:E:/LiteOS/LiteOS_Lab/drivers/third_party/ST/STM32L4xx_HAL_Driver/Src\stm32l4xx_hal_spi.c ****   /* NOTE : This function should not be modified, when the callback is needed,
2476:E:/LiteOS/LiteOS_Lab/drivers/third_party/ST/STM32L4xx_HAL_Driver/Src\stm32l4xx_hal_spi.c ****             the HAL_SPI_TxHalfCpltCallback should be implemented in the user file
2477:E:/LiteOS/LiteOS_Lab/drivers/third_party/ST/STM32L4xx_HAL_Driver/Src\stm32l4xx_hal_spi.c ****    */
2478:E:/LiteOS/LiteOS_Lab/drivers/third_party/ST/STM32L4xx_HAL_Driver/Src\stm32l4xx_hal_spi.c **** }
 4974              		.loc 1 2478 0
 4975 0008 00BF     		nop
 4976 000a 0C37     		adds	r7, r7, #12
 4977              	.LCFI122:
 4978              		.cfi_def_cfa_offset 4
 4979 000c BD46     		mov	sp, r7
 4980              	.LCFI123:
 4981              		.cfi_def_cfa_register 13
 4982              		@ sp needed
 4983 000e 5DF8047B 		ldr	r7, [sp], #4
 4984              	.LCFI124:
 4985              		.cfi_restore 7
 4986              		.cfi_def_cfa_offset 0
 4987 0012 7047     		bx	lr
 4988              		.cfi_endproc
 4989              	.LFE155:
 4991              		.section	.text.HAL_SPI_RxHalfCpltCallback,"ax",%progbits
 4992              		.align	1
 4993              		.weak	HAL_SPI_RxHalfCpltCallback
 4994              		.syntax unified
 4995              		.thumb
 4996              		.thumb_func
 4997              		.fpu fpv4-sp-d16
 4999              	HAL_SPI_RxHalfCpltCallback:
 5000              	.LFB156:
2479:E:/LiteOS/LiteOS_Lab/drivers/third_party/ST/STM32L4xx_HAL_Driver/Src\stm32l4xx_hal_spi.c **** 
2480:E:/LiteOS/LiteOS_Lab/drivers/third_party/ST/STM32L4xx_HAL_Driver/Src\stm32l4xx_hal_spi.c **** /**
2481:E:/LiteOS/LiteOS_Lab/drivers/third_party/ST/STM32L4xx_HAL_Driver/Src\stm32l4xx_hal_spi.c ****   * @brief  Rx Half Transfer completed callback.
2482:E:/LiteOS/LiteOS_Lab/drivers/third_party/ST/STM32L4xx_HAL_Driver/Src\stm32l4xx_hal_spi.c ****   * @param  hspi pointer to a SPI_HandleTypeDef structure that contains
2483:E:/LiteOS/LiteOS_Lab/drivers/third_party/ST/STM32L4xx_HAL_Driver/Src\stm32l4xx_hal_spi.c ****   *               the configuration information for SPI module.
2484:E:/LiteOS/LiteOS_Lab/drivers/third_party/ST/STM32L4xx_HAL_Driver/Src\stm32l4xx_hal_spi.c ****   * @retval None
2485:E:/LiteOS/LiteOS_Lab/drivers/third_party/ST/STM32L4xx_HAL_Driver/Src\stm32l4xx_hal_spi.c ****   */
2486:E:/LiteOS/LiteOS_Lab/drivers/third_party/ST/STM32L4xx_HAL_Driver/Src\stm32l4xx_hal_spi.c **** __weak void HAL_SPI_RxHalfCpltCallback(SPI_HandleTypeDef *hspi)
2487:E:/LiteOS/LiteOS_Lab/drivers/third_party/ST/STM32L4xx_HAL_Driver/Src\stm32l4xx_hal_spi.c **** {
 5001              		.loc 1 2487 0
 5002              		.cfi_startproc
 5003              		@ args = 0, pretend = 0, frame = 8
 5004              		@ frame_needed = 1, uses_anonymous_args = 0
 5005              		@ link register save eliminated.
 5006 0000 80B4     		push	{r7}
 5007              	.LCFI125:
 5008              		.cfi_def_cfa_offset 4
 5009              		.cfi_offset 7, -4
 5010 0002 83B0     		sub	sp, sp, #12
 5011              	.LCFI126:
 5012              		.cfi_def_cfa_offset 16
 5013 0004 00AF     		add	r7, sp, #0
 5014              	.LCFI127:
 5015              		.cfi_def_cfa_register 7
 5016 0006 7860     		str	r0, [r7, #4]
2488:E:/LiteOS/LiteOS_Lab/drivers/third_party/ST/STM32L4xx_HAL_Driver/Src\stm32l4xx_hal_spi.c ****   /* Prevent unused argument(s) compilation warning */
ARM GAS  C:\Users\user\AppData\Local\Temp\ccvQ1M9B.s 			page 132


2489:E:/LiteOS/LiteOS_Lab/drivers/third_party/ST/STM32L4xx_HAL_Driver/Src\stm32l4xx_hal_spi.c ****   UNUSED(hspi);
2490:E:/LiteOS/LiteOS_Lab/drivers/third_party/ST/STM32L4xx_HAL_Driver/Src\stm32l4xx_hal_spi.c **** 
2491:E:/LiteOS/LiteOS_Lab/drivers/third_party/ST/STM32L4xx_HAL_Driver/Src\stm32l4xx_hal_spi.c ****   /* NOTE : This function should not be modified, when the callback is needed,
2492:E:/LiteOS/LiteOS_Lab/drivers/third_party/ST/STM32L4xx_HAL_Driver/Src\stm32l4xx_hal_spi.c ****             the HAL_SPI_RxHalfCpltCallback() should be implemented in the user file
2493:E:/LiteOS/LiteOS_Lab/drivers/third_party/ST/STM32L4xx_HAL_Driver/Src\stm32l4xx_hal_spi.c ****    */
2494:E:/LiteOS/LiteOS_Lab/drivers/third_party/ST/STM32L4xx_HAL_Driver/Src\stm32l4xx_hal_spi.c **** }
 5017              		.loc 1 2494 0
 5018 0008 00BF     		nop
 5019 000a 0C37     		adds	r7, r7, #12
 5020              	.LCFI128:
 5021              		.cfi_def_cfa_offset 4
 5022 000c BD46     		mov	sp, r7
 5023              	.LCFI129:
 5024              		.cfi_def_cfa_register 13
 5025              		@ sp needed
 5026 000e 5DF8047B 		ldr	r7, [sp], #4
 5027              	.LCFI130:
 5028              		.cfi_restore 7
 5029              		.cfi_def_cfa_offset 0
 5030 0012 7047     		bx	lr
 5031              		.cfi_endproc
 5032              	.LFE156:
 5034              		.section	.text.HAL_SPI_TxRxHalfCpltCallback,"ax",%progbits
 5035              		.align	1
 5036              		.weak	HAL_SPI_TxRxHalfCpltCallback
 5037              		.syntax unified
 5038              		.thumb
 5039              		.thumb_func
 5040              		.fpu fpv4-sp-d16
 5042              	HAL_SPI_TxRxHalfCpltCallback:
 5043              	.LFB157:
2495:E:/LiteOS/LiteOS_Lab/drivers/third_party/ST/STM32L4xx_HAL_Driver/Src\stm32l4xx_hal_spi.c **** 
2496:E:/LiteOS/LiteOS_Lab/drivers/third_party/ST/STM32L4xx_HAL_Driver/Src\stm32l4xx_hal_spi.c **** /**
2497:E:/LiteOS/LiteOS_Lab/drivers/third_party/ST/STM32L4xx_HAL_Driver/Src\stm32l4xx_hal_spi.c ****   * @brief  Tx and Rx Half Transfer callback.
2498:E:/LiteOS/LiteOS_Lab/drivers/third_party/ST/STM32L4xx_HAL_Driver/Src\stm32l4xx_hal_spi.c ****   * @param  hspi pointer to a SPI_HandleTypeDef structure that contains
2499:E:/LiteOS/LiteOS_Lab/drivers/third_party/ST/STM32L4xx_HAL_Driver/Src\stm32l4xx_hal_spi.c ****   *               the configuration information for SPI module.
2500:E:/LiteOS/LiteOS_Lab/drivers/third_party/ST/STM32L4xx_HAL_Driver/Src\stm32l4xx_hal_spi.c ****   * @retval None
2501:E:/LiteOS/LiteOS_Lab/drivers/third_party/ST/STM32L4xx_HAL_Driver/Src\stm32l4xx_hal_spi.c ****   */
2502:E:/LiteOS/LiteOS_Lab/drivers/third_party/ST/STM32L4xx_HAL_Driver/Src\stm32l4xx_hal_spi.c **** __weak void HAL_SPI_TxRxHalfCpltCallback(SPI_HandleTypeDef *hspi)
2503:E:/LiteOS/LiteOS_Lab/drivers/third_party/ST/STM32L4xx_HAL_Driver/Src\stm32l4xx_hal_spi.c **** {
 5044              		.loc 1 2503 0
 5045              		.cfi_startproc
 5046              		@ args = 0, pretend = 0, frame = 8
 5047              		@ frame_needed = 1, uses_anonymous_args = 0
 5048              		@ link register save eliminated.
 5049 0000 80B4     		push	{r7}
 5050              	.LCFI131:
 5051              		.cfi_def_cfa_offset 4
 5052              		.cfi_offset 7, -4
 5053 0002 83B0     		sub	sp, sp, #12
 5054              	.LCFI132:
 5055              		.cfi_def_cfa_offset 16
 5056 0004 00AF     		add	r7, sp, #0
 5057              	.LCFI133:
 5058              		.cfi_def_cfa_register 7
 5059 0006 7860     		str	r0, [r7, #4]
2504:E:/LiteOS/LiteOS_Lab/drivers/third_party/ST/STM32L4xx_HAL_Driver/Src\stm32l4xx_hal_spi.c ****   /* Prevent unused argument(s) compilation warning */
ARM GAS  C:\Users\user\AppData\Local\Temp\ccvQ1M9B.s 			page 133


2505:E:/LiteOS/LiteOS_Lab/drivers/third_party/ST/STM32L4xx_HAL_Driver/Src\stm32l4xx_hal_spi.c ****   UNUSED(hspi);
2506:E:/LiteOS/LiteOS_Lab/drivers/third_party/ST/STM32L4xx_HAL_Driver/Src\stm32l4xx_hal_spi.c **** 
2507:E:/LiteOS/LiteOS_Lab/drivers/third_party/ST/STM32L4xx_HAL_Driver/Src\stm32l4xx_hal_spi.c ****   /* NOTE : This function should not be modified, when the callback is needed,
2508:E:/LiteOS/LiteOS_Lab/drivers/third_party/ST/STM32L4xx_HAL_Driver/Src\stm32l4xx_hal_spi.c ****             the HAL_SPI_TxRxHalfCpltCallback() should be implemented in the user file
2509:E:/LiteOS/LiteOS_Lab/drivers/third_party/ST/STM32L4xx_HAL_Driver/Src\stm32l4xx_hal_spi.c ****    */
2510:E:/LiteOS/LiteOS_Lab/drivers/third_party/ST/STM32L4xx_HAL_Driver/Src\stm32l4xx_hal_spi.c **** }
 5060              		.loc 1 2510 0
 5061 0008 00BF     		nop
 5062 000a 0C37     		adds	r7, r7, #12
 5063              	.LCFI134:
 5064              		.cfi_def_cfa_offset 4
 5065 000c BD46     		mov	sp, r7
 5066              	.LCFI135:
 5067              		.cfi_def_cfa_register 13
 5068              		@ sp needed
 5069 000e 5DF8047B 		ldr	r7, [sp], #4
 5070              	.LCFI136:
 5071              		.cfi_restore 7
 5072              		.cfi_def_cfa_offset 0
 5073 0012 7047     		bx	lr
 5074              		.cfi_endproc
 5075              	.LFE157:
 5077              		.section	.text.HAL_SPI_ErrorCallback,"ax",%progbits
 5078              		.align	1
 5079              		.weak	HAL_SPI_ErrorCallback
 5080              		.syntax unified
 5081              		.thumb
 5082              		.thumb_func
 5083              		.fpu fpv4-sp-d16
 5085              	HAL_SPI_ErrorCallback:
 5086              	.LFB158:
2511:E:/LiteOS/LiteOS_Lab/drivers/third_party/ST/STM32L4xx_HAL_Driver/Src\stm32l4xx_hal_spi.c **** 
2512:E:/LiteOS/LiteOS_Lab/drivers/third_party/ST/STM32L4xx_HAL_Driver/Src\stm32l4xx_hal_spi.c **** /**
2513:E:/LiteOS/LiteOS_Lab/drivers/third_party/ST/STM32L4xx_HAL_Driver/Src\stm32l4xx_hal_spi.c ****   * @brief  SPI error callback.
2514:E:/LiteOS/LiteOS_Lab/drivers/third_party/ST/STM32L4xx_HAL_Driver/Src\stm32l4xx_hal_spi.c ****   * @param  hspi pointer to a SPI_HandleTypeDef structure that contains
2515:E:/LiteOS/LiteOS_Lab/drivers/third_party/ST/STM32L4xx_HAL_Driver/Src\stm32l4xx_hal_spi.c ****   *               the configuration information for SPI module.
2516:E:/LiteOS/LiteOS_Lab/drivers/third_party/ST/STM32L4xx_HAL_Driver/Src\stm32l4xx_hal_spi.c ****   * @retval None
2517:E:/LiteOS/LiteOS_Lab/drivers/third_party/ST/STM32L4xx_HAL_Driver/Src\stm32l4xx_hal_spi.c ****   */
2518:E:/LiteOS/LiteOS_Lab/drivers/third_party/ST/STM32L4xx_HAL_Driver/Src\stm32l4xx_hal_spi.c **** __weak void HAL_SPI_ErrorCallback(SPI_HandleTypeDef *hspi)
2519:E:/LiteOS/LiteOS_Lab/drivers/third_party/ST/STM32L4xx_HAL_Driver/Src\stm32l4xx_hal_spi.c **** {
 5087              		.loc 1 2519 0
 5088              		.cfi_startproc
 5089              		@ args = 0, pretend = 0, frame = 8
 5090              		@ frame_needed = 1, uses_anonymous_args = 0
 5091              		@ link register save eliminated.
 5092 0000 80B4     		push	{r7}
 5093              	.LCFI137:
 5094              		.cfi_def_cfa_offset 4
 5095              		.cfi_offset 7, -4
 5096 0002 83B0     		sub	sp, sp, #12
 5097              	.LCFI138:
 5098              		.cfi_def_cfa_offset 16
 5099 0004 00AF     		add	r7, sp, #0
 5100              	.LCFI139:
 5101              		.cfi_def_cfa_register 7
 5102 0006 7860     		str	r0, [r7, #4]
2520:E:/LiteOS/LiteOS_Lab/drivers/third_party/ST/STM32L4xx_HAL_Driver/Src\stm32l4xx_hal_spi.c ****   /* Prevent unused argument(s) compilation warning */
ARM GAS  C:\Users\user\AppData\Local\Temp\ccvQ1M9B.s 			page 134


2521:E:/LiteOS/LiteOS_Lab/drivers/third_party/ST/STM32L4xx_HAL_Driver/Src\stm32l4xx_hal_spi.c ****   UNUSED(hspi);
2522:E:/LiteOS/LiteOS_Lab/drivers/third_party/ST/STM32L4xx_HAL_Driver/Src\stm32l4xx_hal_spi.c **** 
2523:E:/LiteOS/LiteOS_Lab/drivers/third_party/ST/STM32L4xx_HAL_Driver/Src\stm32l4xx_hal_spi.c ****   /* NOTE : This function should not be modified, when the callback is needed,
2524:E:/LiteOS/LiteOS_Lab/drivers/third_party/ST/STM32L4xx_HAL_Driver/Src\stm32l4xx_hal_spi.c ****             the HAL_SPI_ErrorCallback should be implemented in the user file
2525:E:/LiteOS/LiteOS_Lab/drivers/third_party/ST/STM32L4xx_HAL_Driver/Src\stm32l4xx_hal_spi.c ****    */
2526:E:/LiteOS/LiteOS_Lab/drivers/third_party/ST/STM32L4xx_HAL_Driver/Src\stm32l4xx_hal_spi.c ****   /* NOTE : The ErrorCode parameter in the hspi handle is updated by the SPI processes
2527:E:/LiteOS/LiteOS_Lab/drivers/third_party/ST/STM32L4xx_HAL_Driver/Src\stm32l4xx_hal_spi.c ****             and user can use HAL_SPI_GetError() API to check the latest error occurred
2528:E:/LiteOS/LiteOS_Lab/drivers/third_party/ST/STM32L4xx_HAL_Driver/Src\stm32l4xx_hal_spi.c ****    */
2529:E:/LiteOS/LiteOS_Lab/drivers/third_party/ST/STM32L4xx_HAL_Driver/Src\stm32l4xx_hal_spi.c **** }
 5103              		.loc 1 2529 0
 5104 0008 00BF     		nop
 5105 000a 0C37     		adds	r7, r7, #12
 5106              	.LCFI140:
 5107              		.cfi_def_cfa_offset 4
 5108 000c BD46     		mov	sp, r7
 5109              	.LCFI141:
 5110              		.cfi_def_cfa_register 13
 5111              		@ sp needed
 5112 000e 5DF8047B 		ldr	r7, [sp], #4
 5113              	.LCFI142:
 5114              		.cfi_restore 7
 5115              		.cfi_def_cfa_offset 0
 5116 0012 7047     		bx	lr
 5117              		.cfi_endproc
 5118              	.LFE158:
 5120              		.section	.text.HAL_SPI_AbortCpltCallback,"ax",%progbits
 5121              		.align	1
 5122              		.weak	HAL_SPI_AbortCpltCallback
 5123              		.syntax unified
 5124              		.thumb
 5125              		.thumb_func
 5126              		.fpu fpv4-sp-d16
 5128              	HAL_SPI_AbortCpltCallback:
 5129              	.LFB159:
2530:E:/LiteOS/LiteOS_Lab/drivers/third_party/ST/STM32L4xx_HAL_Driver/Src\stm32l4xx_hal_spi.c **** 
2531:E:/LiteOS/LiteOS_Lab/drivers/third_party/ST/STM32L4xx_HAL_Driver/Src\stm32l4xx_hal_spi.c **** /**
2532:E:/LiteOS/LiteOS_Lab/drivers/third_party/ST/STM32L4xx_HAL_Driver/Src\stm32l4xx_hal_spi.c ****   * @brief  SPI Abort Complete callback.
2533:E:/LiteOS/LiteOS_Lab/drivers/third_party/ST/STM32L4xx_HAL_Driver/Src\stm32l4xx_hal_spi.c ****   * @param  hspi SPI handle.
2534:E:/LiteOS/LiteOS_Lab/drivers/third_party/ST/STM32L4xx_HAL_Driver/Src\stm32l4xx_hal_spi.c ****   * @retval None
2535:E:/LiteOS/LiteOS_Lab/drivers/third_party/ST/STM32L4xx_HAL_Driver/Src\stm32l4xx_hal_spi.c ****   */
2536:E:/LiteOS/LiteOS_Lab/drivers/third_party/ST/STM32L4xx_HAL_Driver/Src\stm32l4xx_hal_spi.c **** __weak void HAL_SPI_AbortCpltCallback(SPI_HandleTypeDef *hspi)
2537:E:/LiteOS/LiteOS_Lab/drivers/third_party/ST/STM32L4xx_HAL_Driver/Src\stm32l4xx_hal_spi.c **** {
 5130              		.loc 1 2537 0
 5131              		.cfi_startproc
 5132              		@ args = 0, pretend = 0, frame = 8
 5133              		@ frame_needed = 1, uses_anonymous_args = 0
 5134              		@ link register save eliminated.
 5135 0000 80B4     		push	{r7}
 5136              	.LCFI143:
 5137              		.cfi_def_cfa_offset 4
 5138              		.cfi_offset 7, -4
 5139 0002 83B0     		sub	sp, sp, #12
 5140              	.LCFI144:
 5141              		.cfi_def_cfa_offset 16
 5142 0004 00AF     		add	r7, sp, #0
 5143              	.LCFI145:
 5144              		.cfi_def_cfa_register 7
ARM GAS  C:\Users\user\AppData\Local\Temp\ccvQ1M9B.s 			page 135


 5145 0006 7860     		str	r0, [r7, #4]
2538:E:/LiteOS/LiteOS_Lab/drivers/third_party/ST/STM32L4xx_HAL_Driver/Src\stm32l4xx_hal_spi.c ****   /* Prevent unused argument(s) compilation warning */
2539:E:/LiteOS/LiteOS_Lab/drivers/third_party/ST/STM32L4xx_HAL_Driver/Src\stm32l4xx_hal_spi.c ****   UNUSED(hspi);
2540:E:/LiteOS/LiteOS_Lab/drivers/third_party/ST/STM32L4xx_HAL_Driver/Src\stm32l4xx_hal_spi.c **** 
2541:E:/LiteOS/LiteOS_Lab/drivers/third_party/ST/STM32L4xx_HAL_Driver/Src\stm32l4xx_hal_spi.c ****   /* NOTE : This function should not be modified, when the callback is needed,
2542:E:/LiteOS/LiteOS_Lab/drivers/third_party/ST/STM32L4xx_HAL_Driver/Src\stm32l4xx_hal_spi.c ****             the HAL_SPI_AbortCpltCallback can be implemented in the user file.
2543:E:/LiteOS/LiteOS_Lab/drivers/third_party/ST/STM32L4xx_HAL_Driver/Src\stm32l4xx_hal_spi.c ****    */
2544:E:/LiteOS/LiteOS_Lab/drivers/third_party/ST/STM32L4xx_HAL_Driver/Src\stm32l4xx_hal_spi.c **** }
 5146              		.loc 1 2544 0
 5147 0008 00BF     		nop
 5148 000a 0C37     		adds	r7, r7, #12
 5149              	.LCFI146:
 5150              		.cfi_def_cfa_offset 4
 5151 000c BD46     		mov	sp, r7
 5152              	.LCFI147:
 5153              		.cfi_def_cfa_register 13
 5154              		@ sp needed
 5155 000e 5DF8047B 		ldr	r7, [sp], #4
 5156              	.LCFI148:
 5157              		.cfi_restore 7
 5158              		.cfi_def_cfa_offset 0
 5159 0012 7047     		bx	lr
 5160              		.cfi_endproc
 5161              	.LFE159:
 5163              		.section	.text.HAL_SPI_GetState,"ax",%progbits
 5164              		.align	1
 5165              		.global	HAL_SPI_GetState
 5166              		.syntax unified
 5167              		.thumb
 5168              		.thumb_func
 5169              		.fpu fpv4-sp-d16
 5171              	HAL_SPI_GetState:
 5172              	.LFB160:
2545:E:/LiteOS/LiteOS_Lab/drivers/third_party/ST/STM32L4xx_HAL_Driver/Src\stm32l4xx_hal_spi.c **** 
2546:E:/LiteOS/LiteOS_Lab/drivers/third_party/ST/STM32L4xx_HAL_Driver/Src\stm32l4xx_hal_spi.c **** /**
2547:E:/LiteOS/LiteOS_Lab/drivers/third_party/ST/STM32L4xx_HAL_Driver/Src\stm32l4xx_hal_spi.c ****   * @}
2548:E:/LiteOS/LiteOS_Lab/drivers/third_party/ST/STM32L4xx_HAL_Driver/Src\stm32l4xx_hal_spi.c ****   */
2549:E:/LiteOS/LiteOS_Lab/drivers/third_party/ST/STM32L4xx_HAL_Driver/Src\stm32l4xx_hal_spi.c **** 
2550:E:/LiteOS/LiteOS_Lab/drivers/third_party/ST/STM32L4xx_HAL_Driver/Src\stm32l4xx_hal_spi.c **** /** @defgroup SPI_Exported_Functions_Group3 Peripheral State and Errors functions
2551:E:/LiteOS/LiteOS_Lab/drivers/third_party/ST/STM32L4xx_HAL_Driver/Src\stm32l4xx_hal_spi.c ****   * @brief   SPI control functions
2552:E:/LiteOS/LiteOS_Lab/drivers/third_party/ST/STM32L4xx_HAL_Driver/Src\stm32l4xx_hal_spi.c ****   *
2553:E:/LiteOS/LiteOS_Lab/drivers/third_party/ST/STM32L4xx_HAL_Driver/Src\stm32l4xx_hal_spi.c **** @verbatim
2554:E:/LiteOS/LiteOS_Lab/drivers/third_party/ST/STM32L4xx_HAL_Driver/Src\stm32l4xx_hal_spi.c ****  ===============================================================================
2555:E:/LiteOS/LiteOS_Lab/drivers/third_party/ST/STM32L4xx_HAL_Driver/Src\stm32l4xx_hal_spi.c ****                       ##### Peripheral State and Errors functions #####
2556:E:/LiteOS/LiteOS_Lab/drivers/third_party/ST/STM32L4xx_HAL_Driver/Src\stm32l4xx_hal_spi.c ****  ===============================================================================
2557:E:/LiteOS/LiteOS_Lab/drivers/third_party/ST/STM32L4xx_HAL_Driver/Src\stm32l4xx_hal_spi.c ****     [..]
2558:E:/LiteOS/LiteOS_Lab/drivers/third_party/ST/STM32L4xx_HAL_Driver/Src\stm32l4xx_hal_spi.c ****     This subsection provides a set of functions allowing to control the SPI.
2559:E:/LiteOS/LiteOS_Lab/drivers/third_party/ST/STM32L4xx_HAL_Driver/Src\stm32l4xx_hal_spi.c ****      (+) HAL_SPI_GetState() API can be helpful to check in run-time the state of the SPI peripheral
2560:E:/LiteOS/LiteOS_Lab/drivers/third_party/ST/STM32L4xx_HAL_Driver/Src\stm32l4xx_hal_spi.c ****      (+) HAL_SPI_GetError() check in run-time Errors occurring during communication
2561:E:/LiteOS/LiteOS_Lab/drivers/third_party/ST/STM32L4xx_HAL_Driver/Src\stm32l4xx_hal_spi.c **** @endverbatim
2562:E:/LiteOS/LiteOS_Lab/drivers/third_party/ST/STM32L4xx_HAL_Driver/Src\stm32l4xx_hal_spi.c ****   * @{
2563:E:/LiteOS/LiteOS_Lab/drivers/third_party/ST/STM32L4xx_HAL_Driver/Src\stm32l4xx_hal_spi.c ****   */
2564:E:/LiteOS/LiteOS_Lab/drivers/third_party/ST/STM32L4xx_HAL_Driver/Src\stm32l4xx_hal_spi.c **** 
2565:E:/LiteOS/LiteOS_Lab/drivers/third_party/ST/STM32L4xx_HAL_Driver/Src\stm32l4xx_hal_spi.c **** /**
2566:E:/LiteOS/LiteOS_Lab/drivers/third_party/ST/STM32L4xx_HAL_Driver/Src\stm32l4xx_hal_spi.c ****   * @brief  Return the SPI handle state.
2567:E:/LiteOS/LiteOS_Lab/drivers/third_party/ST/STM32L4xx_HAL_Driver/Src\stm32l4xx_hal_spi.c ****   * @param  hspi pointer to a SPI_HandleTypeDef structure that contains
2568:E:/LiteOS/LiteOS_Lab/drivers/third_party/ST/STM32L4xx_HAL_Driver/Src\stm32l4xx_hal_spi.c ****   *               the configuration information for SPI module.
ARM GAS  C:\Users\user\AppData\Local\Temp\ccvQ1M9B.s 			page 136


2569:E:/LiteOS/LiteOS_Lab/drivers/third_party/ST/STM32L4xx_HAL_Driver/Src\stm32l4xx_hal_spi.c ****   * @retval SPI state
2570:E:/LiteOS/LiteOS_Lab/drivers/third_party/ST/STM32L4xx_HAL_Driver/Src\stm32l4xx_hal_spi.c ****   */
2571:E:/LiteOS/LiteOS_Lab/drivers/third_party/ST/STM32L4xx_HAL_Driver/Src\stm32l4xx_hal_spi.c **** HAL_SPI_StateTypeDef HAL_SPI_GetState(SPI_HandleTypeDef *hspi)
2572:E:/LiteOS/LiteOS_Lab/drivers/third_party/ST/STM32L4xx_HAL_Driver/Src\stm32l4xx_hal_spi.c **** {
 5173              		.loc 1 2572 0
 5174              		.cfi_startproc
 5175              		@ args = 0, pretend = 0, frame = 8
 5176              		@ frame_needed = 1, uses_anonymous_args = 0
 5177              		@ link register save eliminated.
 5178 0000 80B4     		push	{r7}
 5179              	.LCFI149:
 5180              		.cfi_def_cfa_offset 4
 5181              		.cfi_offset 7, -4
 5182 0002 83B0     		sub	sp, sp, #12
 5183              	.LCFI150:
 5184              		.cfi_def_cfa_offset 16
 5185 0004 00AF     		add	r7, sp, #0
 5186              	.LCFI151:
 5187              		.cfi_def_cfa_register 7
 5188 0006 7860     		str	r0, [r7, #4]
2573:E:/LiteOS/LiteOS_Lab/drivers/third_party/ST/STM32L4xx_HAL_Driver/Src\stm32l4xx_hal_spi.c ****   /* Return SPI handle state */
2574:E:/LiteOS/LiteOS_Lab/drivers/third_party/ST/STM32L4xx_HAL_Driver/Src\stm32l4xx_hal_spi.c ****   return hspi->State;
 5189              		.loc 1 2574 0
 5190 0008 7B68     		ldr	r3, [r7, #4]
 5191 000a 93F85D30 		ldrb	r3, [r3, #93]
 5192 000e DBB2     		uxtb	r3, r3
2575:E:/LiteOS/LiteOS_Lab/drivers/third_party/ST/STM32L4xx_HAL_Driver/Src\stm32l4xx_hal_spi.c **** }
 5193              		.loc 1 2575 0
 5194 0010 1846     		mov	r0, r3
 5195 0012 0C37     		adds	r7, r7, #12
 5196              	.LCFI152:
 5197              		.cfi_def_cfa_offset 4
 5198 0014 BD46     		mov	sp, r7
 5199              	.LCFI153:
 5200              		.cfi_def_cfa_register 13
 5201              		@ sp needed
 5202 0016 5DF8047B 		ldr	r7, [sp], #4
 5203              	.LCFI154:
 5204              		.cfi_restore 7
 5205              		.cfi_def_cfa_offset 0
 5206 001a 7047     		bx	lr
 5207              		.cfi_endproc
 5208              	.LFE160:
 5210              		.section	.text.HAL_SPI_GetError,"ax",%progbits
 5211              		.align	1
 5212              		.global	HAL_SPI_GetError
 5213              		.syntax unified
 5214              		.thumb
 5215              		.thumb_func
 5216              		.fpu fpv4-sp-d16
 5218              	HAL_SPI_GetError:
 5219              	.LFB161:
2576:E:/LiteOS/LiteOS_Lab/drivers/third_party/ST/STM32L4xx_HAL_Driver/Src\stm32l4xx_hal_spi.c **** 
2577:E:/LiteOS/LiteOS_Lab/drivers/third_party/ST/STM32L4xx_HAL_Driver/Src\stm32l4xx_hal_spi.c **** /**
2578:E:/LiteOS/LiteOS_Lab/drivers/third_party/ST/STM32L4xx_HAL_Driver/Src\stm32l4xx_hal_spi.c ****   * @brief  Return the SPI error code.
2579:E:/LiteOS/LiteOS_Lab/drivers/third_party/ST/STM32L4xx_HAL_Driver/Src\stm32l4xx_hal_spi.c ****   * @param  hspi pointer to a SPI_HandleTypeDef structure that contains
2580:E:/LiteOS/LiteOS_Lab/drivers/third_party/ST/STM32L4xx_HAL_Driver/Src\stm32l4xx_hal_spi.c ****   *               the configuration information for SPI module.
ARM GAS  C:\Users\user\AppData\Local\Temp\ccvQ1M9B.s 			page 137


2581:E:/LiteOS/LiteOS_Lab/drivers/third_party/ST/STM32L4xx_HAL_Driver/Src\stm32l4xx_hal_spi.c ****   * @retval SPI error code in bitmap format
2582:E:/LiteOS/LiteOS_Lab/drivers/third_party/ST/STM32L4xx_HAL_Driver/Src\stm32l4xx_hal_spi.c ****   */
2583:E:/LiteOS/LiteOS_Lab/drivers/third_party/ST/STM32L4xx_HAL_Driver/Src\stm32l4xx_hal_spi.c **** uint32_t HAL_SPI_GetError(SPI_HandleTypeDef *hspi)
2584:E:/LiteOS/LiteOS_Lab/drivers/third_party/ST/STM32L4xx_HAL_Driver/Src\stm32l4xx_hal_spi.c **** {
 5220              		.loc 1 2584 0
 5221              		.cfi_startproc
 5222              		@ args = 0, pretend = 0, frame = 8
 5223              		@ frame_needed = 1, uses_anonymous_args = 0
 5224              		@ link register save eliminated.
 5225 0000 80B4     		push	{r7}
 5226              	.LCFI155:
 5227              		.cfi_def_cfa_offset 4
 5228              		.cfi_offset 7, -4
 5229 0002 83B0     		sub	sp, sp, #12
 5230              	.LCFI156:
 5231              		.cfi_def_cfa_offset 16
 5232 0004 00AF     		add	r7, sp, #0
 5233              	.LCFI157:
 5234              		.cfi_def_cfa_register 7
 5235 0006 7860     		str	r0, [r7, #4]
2585:E:/LiteOS/LiteOS_Lab/drivers/third_party/ST/STM32L4xx_HAL_Driver/Src\stm32l4xx_hal_spi.c ****   /* Return SPI ErrorCode */
2586:E:/LiteOS/LiteOS_Lab/drivers/third_party/ST/STM32L4xx_HAL_Driver/Src\stm32l4xx_hal_spi.c ****   return hspi->ErrorCode;
 5236              		.loc 1 2586 0
 5237 0008 7B68     		ldr	r3, [r7, #4]
 5238 000a 1B6E     		ldr	r3, [r3, #96]
2587:E:/LiteOS/LiteOS_Lab/drivers/third_party/ST/STM32L4xx_HAL_Driver/Src\stm32l4xx_hal_spi.c **** }
 5239              		.loc 1 2587 0
 5240 000c 1846     		mov	r0, r3
 5241 000e 0C37     		adds	r7, r7, #12
 5242              	.LCFI158:
 5243              		.cfi_def_cfa_offset 4
 5244 0010 BD46     		mov	sp, r7
 5245              	.LCFI159:
 5246              		.cfi_def_cfa_register 13
 5247              		@ sp needed
 5248 0012 5DF8047B 		ldr	r7, [sp], #4
 5249              	.LCFI160:
 5250              		.cfi_restore 7
 5251              		.cfi_def_cfa_offset 0
 5252 0016 7047     		bx	lr
 5253              		.cfi_endproc
 5254              	.LFE161:
 5256              		.section	.text.SPI_DMATransmitCplt,"ax",%progbits
 5257              		.align	1
 5258              		.syntax unified
 5259              		.thumb
 5260              		.thumb_func
 5261              		.fpu fpv4-sp-d16
 5263              	SPI_DMATransmitCplt:
 5264              	.LFB162:
2588:E:/LiteOS/LiteOS_Lab/drivers/third_party/ST/STM32L4xx_HAL_Driver/Src\stm32l4xx_hal_spi.c **** 
2589:E:/LiteOS/LiteOS_Lab/drivers/third_party/ST/STM32L4xx_HAL_Driver/Src\stm32l4xx_hal_spi.c **** /**
2590:E:/LiteOS/LiteOS_Lab/drivers/third_party/ST/STM32L4xx_HAL_Driver/Src\stm32l4xx_hal_spi.c ****   * @}
2591:E:/LiteOS/LiteOS_Lab/drivers/third_party/ST/STM32L4xx_HAL_Driver/Src\stm32l4xx_hal_spi.c ****   */
2592:E:/LiteOS/LiteOS_Lab/drivers/third_party/ST/STM32L4xx_HAL_Driver/Src\stm32l4xx_hal_spi.c **** 
2593:E:/LiteOS/LiteOS_Lab/drivers/third_party/ST/STM32L4xx_HAL_Driver/Src\stm32l4xx_hal_spi.c **** /**
2594:E:/LiteOS/LiteOS_Lab/drivers/third_party/ST/STM32L4xx_HAL_Driver/Src\stm32l4xx_hal_spi.c ****   * @}
ARM GAS  C:\Users\user\AppData\Local\Temp\ccvQ1M9B.s 			page 138


2595:E:/LiteOS/LiteOS_Lab/drivers/third_party/ST/STM32L4xx_HAL_Driver/Src\stm32l4xx_hal_spi.c ****   */
2596:E:/LiteOS/LiteOS_Lab/drivers/third_party/ST/STM32L4xx_HAL_Driver/Src\stm32l4xx_hal_spi.c **** 
2597:E:/LiteOS/LiteOS_Lab/drivers/third_party/ST/STM32L4xx_HAL_Driver/Src\stm32l4xx_hal_spi.c **** /** @addtogroup SPI_Private_Functions
2598:E:/LiteOS/LiteOS_Lab/drivers/third_party/ST/STM32L4xx_HAL_Driver/Src\stm32l4xx_hal_spi.c ****   * @brief   Private functions
2599:E:/LiteOS/LiteOS_Lab/drivers/third_party/ST/STM32L4xx_HAL_Driver/Src\stm32l4xx_hal_spi.c ****   * @{
2600:E:/LiteOS/LiteOS_Lab/drivers/third_party/ST/STM32L4xx_HAL_Driver/Src\stm32l4xx_hal_spi.c ****   */
2601:E:/LiteOS/LiteOS_Lab/drivers/third_party/ST/STM32L4xx_HAL_Driver/Src\stm32l4xx_hal_spi.c **** 
2602:E:/LiteOS/LiteOS_Lab/drivers/third_party/ST/STM32L4xx_HAL_Driver/Src\stm32l4xx_hal_spi.c **** /**
2603:E:/LiteOS/LiteOS_Lab/drivers/third_party/ST/STM32L4xx_HAL_Driver/Src\stm32l4xx_hal_spi.c ****   * @brief  DMA SPI transmit process complete callback.
2604:E:/LiteOS/LiteOS_Lab/drivers/third_party/ST/STM32L4xx_HAL_Driver/Src\stm32l4xx_hal_spi.c ****   * @param  hdma pointer to a DMA_HandleTypeDef structure that contains
2605:E:/LiteOS/LiteOS_Lab/drivers/third_party/ST/STM32L4xx_HAL_Driver/Src\stm32l4xx_hal_spi.c ****   *               the configuration information for the specified DMA module.
2606:E:/LiteOS/LiteOS_Lab/drivers/third_party/ST/STM32L4xx_HAL_Driver/Src\stm32l4xx_hal_spi.c ****   * @retval None
2607:E:/LiteOS/LiteOS_Lab/drivers/third_party/ST/STM32L4xx_HAL_Driver/Src\stm32l4xx_hal_spi.c ****   */
2608:E:/LiteOS/LiteOS_Lab/drivers/third_party/ST/STM32L4xx_HAL_Driver/Src\stm32l4xx_hal_spi.c **** static void SPI_DMATransmitCplt(DMA_HandleTypeDef *hdma)
2609:E:/LiteOS/LiteOS_Lab/drivers/third_party/ST/STM32L4xx_HAL_Driver/Src\stm32l4xx_hal_spi.c **** {
 5265              		.loc 1 2609 0
 5266              		.cfi_startproc
 5267              		@ args = 0, pretend = 0, frame = 24
 5268              		@ frame_needed = 1, uses_anonymous_args = 0
 5269 0000 80B5     		push	{r7, lr}
 5270              	.LCFI161:
 5271              		.cfi_def_cfa_offset 8
 5272              		.cfi_offset 7, -8
 5273              		.cfi_offset 14, -4
 5274 0002 86B0     		sub	sp, sp, #24
 5275              	.LCFI162:
 5276              		.cfi_def_cfa_offset 32
 5277 0004 00AF     		add	r7, sp, #0
 5278              	.LCFI163:
 5279              		.cfi_def_cfa_register 7
 5280 0006 7860     		str	r0, [r7, #4]
2610:E:/LiteOS/LiteOS_Lab/drivers/third_party/ST/STM32L4xx_HAL_Driver/Src\stm32l4xx_hal_spi.c ****   SPI_HandleTypeDef *hspi = (SPI_HandleTypeDef *)((DMA_HandleTypeDef *)hdma)->Parent;
 5281              		.loc 1 2610 0
 5282 0008 7B68     		ldr	r3, [r7, #4]
 5283 000a 9B6A     		ldr	r3, [r3, #40]
 5284 000c 7B61     		str	r3, [r7, #20]
2611:E:/LiteOS/LiteOS_Lab/drivers/third_party/ST/STM32L4xx_HAL_Driver/Src\stm32l4xx_hal_spi.c ****   uint32_t tickstart = 0U;
 5285              		.loc 1 2611 0
 5286 000e 0023     		movs	r3, #0
 5287 0010 3B61     		str	r3, [r7, #16]
2612:E:/LiteOS/LiteOS_Lab/drivers/third_party/ST/STM32L4xx_HAL_Driver/Src\stm32l4xx_hal_spi.c **** 
2613:E:/LiteOS/LiteOS_Lab/drivers/third_party/ST/STM32L4xx_HAL_Driver/Src\stm32l4xx_hal_spi.c ****   /* Init tickstart for timeout managment*/
2614:E:/LiteOS/LiteOS_Lab/drivers/third_party/ST/STM32L4xx_HAL_Driver/Src\stm32l4xx_hal_spi.c ****   tickstart = HAL_GetTick();
 5288              		.loc 1 2614 0
 5289 0012 FFF7FEFF 		bl	HAL_GetTick
 5290 0016 3861     		str	r0, [r7, #16]
2615:E:/LiteOS/LiteOS_Lab/drivers/third_party/ST/STM32L4xx_HAL_Driver/Src\stm32l4xx_hal_spi.c **** 
2616:E:/LiteOS/LiteOS_Lab/drivers/third_party/ST/STM32L4xx_HAL_Driver/Src\stm32l4xx_hal_spi.c ****   /* DMA Normal Mode */
2617:E:/LiteOS/LiteOS_Lab/drivers/third_party/ST/STM32L4xx_HAL_Driver/Src\stm32l4xx_hal_spi.c ****   if ((hdma->Instance->CCR & DMA_CCR_CIRC) != DMA_CCR_CIRC)
 5291              		.loc 1 2617 0
 5292 0018 7B68     		ldr	r3, [r7, #4]
 5293 001a 1B68     		ldr	r3, [r3]
 5294 001c 1B68     		ldr	r3, [r3]
 5295 001e 03F02003 		and	r3, r3, #32
 5296 0022 202B     		cmp	r3, #32
 5297 0024 3BD0     		beq	.L281
2618:E:/LiteOS/LiteOS_Lab/drivers/third_party/ST/STM32L4xx_HAL_Driver/Src\stm32l4xx_hal_spi.c ****   {
ARM GAS  C:\Users\user\AppData\Local\Temp\ccvQ1M9B.s 			page 139


2619:E:/LiteOS/LiteOS_Lab/drivers/third_party/ST/STM32L4xx_HAL_Driver/Src\stm32l4xx_hal_spi.c ****     /* Disable ERR interrupt */
2620:E:/LiteOS/LiteOS_Lab/drivers/third_party/ST/STM32L4xx_HAL_Driver/Src\stm32l4xx_hal_spi.c ****     __HAL_SPI_DISABLE_IT(hspi, SPI_IT_ERR);
 5298              		.loc 1 2620 0
 5299 0026 7B69     		ldr	r3, [r7, #20]
 5300 0028 1B68     		ldr	r3, [r3]
 5301 002a 5A68     		ldr	r2, [r3, #4]
 5302 002c 7B69     		ldr	r3, [r7, #20]
 5303 002e 1B68     		ldr	r3, [r3]
 5304 0030 22F02002 		bic	r2, r2, #32
 5305 0034 5A60     		str	r2, [r3, #4]
2621:E:/LiteOS/LiteOS_Lab/drivers/third_party/ST/STM32L4xx_HAL_Driver/Src\stm32l4xx_hal_spi.c **** 
2622:E:/LiteOS/LiteOS_Lab/drivers/third_party/ST/STM32L4xx_HAL_Driver/Src\stm32l4xx_hal_spi.c ****     /* Disable Tx DMA Request */
2623:E:/LiteOS/LiteOS_Lab/drivers/third_party/ST/STM32L4xx_HAL_Driver/Src\stm32l4xx_hal_spi.c ****     CLEAR_BIT(hspi->Instance->CR2, SPI_CR2_TXDMAEN);
 5306              		.loc 1 2623 0
 5307 0036 7B69     		ldr	r3, [r7, #20]
 5308 0038 1B68     		ldr	r3, [r3]
 5309 003a 5A68     		ldr	r2, [r3, #4]
 5310 003c 7B69     		ldr	r3, [r7, #20]
 5311 003e 1B68     		ldr	r3, [r3]
 5312 0040 22F00202 		bic	r2, r2, #2
 5313 0044 5A60     		str	r2, [r3, #4]
2624:E:/LiteOS/LiteOS_Lab/drivers/third_party/ST/STM32L4xx_HAL_Driver/Src\stm32l4xx_hal_spi.c **** 
2625:E:/LiteOS/LiteOS_Lab/drivers/third_party/ST/STM32L4xx_HAL_Driver/Src\stm32l4xx_hal_spi.c ****     /* Check the end of the transaction */
2626:E:/LiteOS/LiteOS_Lab/drivers/third_party/ST/STM32L4xx_HAL_Driver/Src\stm32l4xx_hal_spi.c ****     if (SPI_EndRxTxTransaction(hspi, SPI_DEFAULT_TIMEOUT, tickstart) != HAL_OK)
 5314              		.loc 1 2626 0
 5315 0046 3A69     		ldr	r2, [r7, #16]
 5316 0048 6421     		movs	r1, #100
 5317 004a 7869     		ldr	r0, [r7, #20]
 5318 004c FFF7FEFF 		bl	SPI_EndRxTxTransaction
 5319 0050 0346     		mov	r3, r0
 5320 0052 002B     		cmp	r3, #0
 5321 0054 05D0     		beq	.L282
2627:E:/LiteOS/LiteOS_Lab/drivers/third_party/ST/STM32L4xx_HAL_Driver/Src\stm32l4xx_hal_spi.c ****     {
2628:E:/LiteOS/LiteOS_Lab/drivers/third_party/ST/STM32L4xx_HAL_Driver/Src\stm32l4xx_hal_spi.c ****       SET_BIT(hspi->ErrorCode, HAL_SPI_ERROR_FLAG);
 5322              		.loc 1 2628 0
 5323 0056 7B69     		ldr	r3, [r7, #20]
 5324 0058 1B6E     		ldr	r3, [r3, #96]
 5325 005a 43F02002 		orr	r2, r3, #32
 5326 005e 7B69     		ldr	r3, [r7, #20]
 5327 0060 1A66     		str	r2, [r3, #96]
 5328              	.L282:
2629:E:/LiteOS/LiteOS_Lab/drivers/third_party/ST/STM32L4xx_HAL_Driver/Src\stm32l4xx_hal_spi.c ****     }
2630:E:/LiteOS/LiteOS_Lab/drivers/third_party/ST/STM32L4xx_HAL_Driver/Src\stm32l4xx_hal_spi.c **** 
2631:E:/LiteOS/LiteOS_Lab/drivers/third_party/ST/STM32L4xx_HAL_Driver/Src\stm32l4xx_hal_spi.c ****     /* Clear overrun flag in 2 Lines communication mode because received data is not read */
2632:E:/LiteOS/LiteOS_Lab/drivers/third_party/ST/STM32L4xx_HAL_Driver/Src\stm32l4xx_hal_spi.c ****     if (hspi->Init.Direction == SPI_DIRECTION_2LINES)
 5329              		.loc 1 2632 0
 5330 0062 7B69     		ldr	r3, [r7, #20]
 5331 0064 9B68     		ldr	r3, [r3, #8]
 5332 0066 002B     		cmp	r3, #0
 5333 0068 0AD1     		bne	.L283
 5334              	.LBB11:
2633:E:/LiteOS/LiteOS_Lab/drivers/third_party/ST/STM32L4xx_HAL_Driver/Src\stm32l4xx_hal_spi.c ****     {
2634:E:/LiteOS/LiteOS_Lab/drivers/third_party/ST/STM32L4xx_HAL_Driver/Src\stm32l4xx_hal_spi.c ****       __HAL_SPI_CLEAR_OVRFLAG(hspi);
 5335              		.loc 1 2634 0
 5336 006a 0023     		movs	r3, #0
 5337 006c FB60     		str	r3, [r7, #12]
 5338 006e 7B69     		ldr	r3, [r7, #20]
ARM GAS  C:\Users\user\AppData\Local\Temp\ccvQ1M9B.s 			page 140


 5339 0070 1B68     		ldr	r3, [r3]
 5340 0072 DB68     		ldr	r3, [r3, #12]
 5341 0074 FB60     		str	r3, [r7, #12]
 5342 0076 7B69     		ldr	r3, [r7, #20]
 5343 0078 1B68     		ldr	r3, [r3]
 5344 007a 9B68     		ldr	r3, [r3, #8]
 5345 007c FB60     		str	r3, [r7, #12]
 5346 007e FB68     		ldr	r3, [r7, #12]
 5347              	.L283:
 5348              	.LBE11:
2635:E:/LiteOS/LiteOS_Lab/drivers/third_party/ST/STM32L4xx_HAL_Driver/Src\stm32l4xx_hal_spi.c ****     }
2636:E:/LiteOS/LiteOS_Lab/drivers/third_party/ST/STM32L4xx_HAL_Driver/Src\stm32l4xx_hal_spi.c **** 
2637:E:/LiteOS/LiteOS_Lab/drivers/third_party/ST/STM32L4xx_HAL_Driver/Src\stm32l4xx_hal_spi.c ****     hspi->TxXferCount = 0U;
 5349              		.loc 1 2637 0
 5350 0080 7B69     		ldr	r3, [r7, #20]
 5351 0082 0022     		movs	r2, #0
 5352 0084 DA87     		strh	r2, [r3, #62]	@ movhi
2638:E:/LiteOS/LiteOS_Lab/drivers/third_party/ST/STM32L4xx_HAL_Driver/Src\stm32l4xx_hal_spi.c ****     hspi->State = HAL_SPI_STATE_READY;
 5353              		.loc 1 2638 0
 5354 0086 7B69     		ldr	r3, [r7, #20]
 5355 0088 0122     		movs	r2, #1
 5356 008a 83F85D20 		strb	r2, [r3, #93]
2639:E:/LiteOS/LiteOS_Lab/drivers/third_party/ST/STM32L4xx_HAL_Driver/Src\stm32l4xx_hal_spi.c **** 
2640:E:/LiteOS/LiteOS_Lab/drivers/third_party/ST/STM32L4xx_HAL_Driver/Src\stm32l4xx_hal_spi.c ****     if (hspi->ErrorCode != HAL_SPI_ERROR_NONE)
 5357              		.loc 1 2640 0
 5358 008e 7B69     		ldr	r3, [r7, #20]
 5359 0090 1B6E     		ldr	r3, [r3, #96]
 5360 0092 002B     		cmp	r3, #0
 5361 0094 03D0     		beq	.L281
2641:E:/LiteOS/LiteOS_Lab/drivers/third_party/ST/STM32L4xx_HAL_Driver/Src\stm32l4xx_hal_spi.c ****     {
2642:E:/LiteOS/LiteOS_Lab/drivers/third_party/ST/STM32L4xx_HAL_Driver/Src\stm32l4xx_hal_spi.c ****       HAL_SPI_ErrorCallback(hspi);
 5362              		.loc 1 2642 0
 5363 0096 7869     		ldr	r0, [r7, #20]
 5364 0098 FFF7FEFF 		bl	HAL_SPI_ErrorCallback
2643:E:/LiteOS/LiteOS_Lab/drivers/third_party/ST/STM32L4xx_HAL_Driver/Src\stm32l4xx_hal_spi.c ****       return;
 5365              		.loc 1 2643 0
 5366 009c 02E0     		b	.L280
 5367              	.L281:
2644:E:/LiteOS/LiteOS_Lab/drivers/third_party/ST/STM32L4xx_HAL_Driver/Src\stm32l4xx_hal_spi.c ****     }
2645:E:/LiteOS/LiteOS_Lab/drivers/third_party/ST/STM32L4xx_HAL_Driver/Src\stm32l4xx_hal_spi.c ****   }
2646:E:/LiteOS/LiteOS_Lab/drivers/third_party/ST/STM32L4xx_HAL_Driver/Src\stm32l4xx_hal_spi.c ****   HAL_SPI_TxCpltCallback(hspi);
 5368              		.loc 1 2646 0
 5369 009e 7869     		ldr	r0, [r7, #20]
 5370 00a0 FFF7FEFF 		bl	HAL_SPI_TxCpltCallback
 5371              	.L280:
2647:E:/LiteOS/LiteOS_Lab/drivers/third_party/ST/STM32L4xx_HAL_Driver/Src\stm32l4xx_hal_spi.c **** }
 5372              		.loc 1 2647 0
 5373 00a4 1837     		adds	r7, r7, #24
 5374              	.LCFI164:
 5375              		.cfi_def_cfa_offset 8
 5376 00a6 BD46     		mov	sp, r7
 5377              	.LCFI165:
 5378              		.cfi_def_cfa_register 13
 5379              		@ sp needed
 5380 00a8 80BD     		pop	{r7, pc}
 5381              		.cfi_endproc
 5382              	.LFE162:
ARM GAS  C:\Users\user\AppData\Local\Temp\ccvQ1M9B.s 			page 141


 5384              		.section	.text.SPI_DMAReceiveCplt,"ax",%progbits
 5385              		.align	1
 5386              		.syntax unified
 5387              		.thumb
 5388              		.thumb_func
 5389              		.fpu fpv4-sp-d16
 5391              	SPI_DMAReceiveCplt:
 5392              	.LFB163:
2648:E:/LiteOS/LiteOS_Lab/drivers/third_party/ST/STM32L4xx_HAL_Driver/Src\stm32l4xx_hal_spi.c **** 
2649:E:/LiteOS/LiteOS_Lab/drivers/third_party/ST/STM32L4xx_HAL_Driver/Src\stm32l4xx_hal_spi.c **** /**
2650:E:/LiteOS/LiteOS_Lab/drivers/third_party/ST/STM32L4xx_HAL_Driver/Src\stm32l4xx_hal_spi.c ****   * @brief  DMA SPI receive process complete callback.
2651:E:/LiteOS/LiteOS_Lab/drivers/third_party/ST/STM32L4xx_HAL_Driver/Src\stm32l4xx_hal_spi.c ****   * @param  hdma pointer to a DMA_HandleTypeDef structure that contains
2652:E:/LiteOS/LiteOS_Lab/drivers/third_party/ST/STM32L4xx_HAL_Driver/Src\stm32l4xx_hal_spi.c ****   *               the configuration information for the specified DMA module.
2653:E:/LiteOS/LiteOS_Lab/drivers/third_party/ST/STM32L4xx_HAL_Driver/Src\stm32l4xx_hal_spi.c ****   * @retval None
2654:E:/LiteOS/LiteOS_Lab/drivers/third_party/ST/STM32L4xx_HAL_Driver/Src\stm32l4xx_hal_spi.c ****   */
2655:E:/LiteOS/LiteOS_Lab/drivers/third_party/ST/STM32L4xx_HAL_Driver/Src\stm32l4xx_hal_spi.c **** static void SPI_DMAReceiveCplt(DMA_HandleTypeDef *hdma)
2656:E:/LiteOS/LiteOS_Lab/drivers/third_party/ST/STM32L4xx_HAL_Driver/Src\stm32l4xx_hal_spi.c **** {
 5393              		.loc 1 2656 0
 5394              		.cfi_startproc
 5395              		@ args = 0, pretend = 0, frame = 16
 5396              		@ frame_needed = 1, uses_anonymous_args = 0
 5397 0000 80B5     		push	{r7, lr}
 5398              	.LCFI166:
 5399              		.cfi_def_cfa_offset 8
 5400              		.cfi_offset 7, -8
 5401              		.cfi_offset 14, -4
 5402 0002 84B0     		sub	sp, sp, #16
 5403              	.LCFI167:
 5404              		.cfi_def_cfa_offset 24
 5405 0004 00AF     		add	r7, sp, #0
 5406              	.LCFI168:
 5407              		.cfi_def_cfa_register 7
 5408 0006 7860     		str	r0, [r7, #4]
2657:E:/LiteOS/LiteOS_Lab/drivers/third_party/ST/STM32L4xx_HAL_Driver/Src\stm32l4xx_hal_spi.c ****   SPI_HandleTypeDef *hspi = (SPI_HandleTypeDef *)((DMA_HandleTypeDef *)hdma)->Parent;
 5409              		.loc 1 2657 0
 5410 0008 7B68     		ldr	r3, [r7, #4]
 5411 000a 9B6A     		ldr	r3, [r3, #40]
 5412 000c FB60     		str	r3, [r7, #12]
2658:E:/LiteOS/LiteOS_Lab/drivers/third_party/ST/STM32L4xx_HAL_Driver/Src\stm32l4xx_hal_spi.c ****   uint32_t tickstart = 0U;
 5413              		.loc 1 2658 0
 5414 000e 0023     		movs	r3, #0
 5415 0010 BB60     		str	r3, [r7, #8]
2659:E:/LiteOS/LiteOS_Lab/drivers/third_party/ST/STM32L4xx_HAL_Driver/Src\stm32l4xx_hal_spi.c **** #if (USE_SPI_CRC != 0U)
2660:E:/LiteOS/LiteOS_Lab/drivers/third_party/ST/STM32L4xx_HAL_Driver/Src\stm32l4xx_hal_spi.c ****   __IO uint16_t tmpreg = 0U;
2661:E:/LiteOS/LiteOS_Lab/drivers/third_party/ST/STM32L4xx_HAL_Driver/Src\stm32l4xx_hal_spi.c **** #endif /* USE_SPI_CRC */
2662:E:/LiteOS/LiteOS_Lab/drivers/third_party/ST/STM32L4xx_HAL_Driver/Src\stm32l4xx_hal_spi.c **** 
2663:E:/LiteOS/LiteOS_Lab/drivers/third_party/ST/STM32L4xx_HAL_Driver/Src\stm32l4xx_hal_spi.c ****   /* Init tickstart for timeout management*/
2664:E:/LiteOS/LiteOS_Lab/drivers/third_party/ST/STM32L4xx_HAL_Driver/Src\stm32l4xx_hal_spi.c ****   tickstart = HAL_GetTick();
 5416              		.loc 1 2664 0
 5417 0012 FFF7FEFF 		bl	HAL_GetTick
 5418 0016 B860     		str	r0, [r7, #8]
2665:E:/LiteOS/LiteOS_Lab/drivers/third_party/ST/STM32L4xx_HAL_Driver/Src\stm32l4xx_hal_spi.c **** 
2666:E:/LiteOS/LiteOS_Lab/drivers/third_party/ST/STM32L4xx_HAL_Driver/Src\stm32l4xx_hal_spi.c ****   /* DMA Normal Mode */
2667:E:/LiteOS/LiteOS_Lab/drivers/third_party/ST/STM32L4xx_HAL_Driver/Src\stm32l4xx_hal_spi.c ****   if ((hdma->Instance->CCR & DMA_CCR_CIRC) != DMA_CCR_CIRC)
 5419              		.loc 1 2667 0
 5420 0018 7B68     		ldr	r3, [r7, #4]
 5421 001a 1B68     		ldr	r3, [r3]
ARM GAS  C:\Users\user\AppData\Local\Temp\ccvQ1M9B.s 			page 142


 5422 001c 1B68     		ldr	r3, [r3]
 5423 001e 03F02003 		and	r3, r3, #32
 5424 0022 202B     		cmp	r3, #32
 5425 0024 2AD0     		beq	.L286
2668:E:/LiteOS/LiteOS_Lab/drivers/third_party/ST/STM32L4xx_HAL_Driver/Src\stm32l4xx_hal_spi.c ****   {
2669:E:/LiteOS/LiteOS_Lab/drivers/third_party/ST/STM32L4xx_HAL_Driver/Src\stm32l4xx_hal_spi.c ****     /* Disable ERR interrupt */
2670:E:/LiteOS/LiteOS_Lab/drivers/third_party/ST/STM32L4xx_HAL_Driver/Src\stm32l4xx_hal_spi.c ****     __HAL_SPI_DISABLE_IT(hspi, SPI_IT_ERR);
 5426              		.loc 1 2670 0
 5427 0026 FB68     		ldr	r3, [r7, #12]
 5428 0028 1B68     		ldr	r3, [r3]
 5429 002a 5A68     		ldr	r2, [r3, #4]
 5430 002c FB68     		ldr	r3, [r7, #12]
 5431 002e 1B68     		ldr	r3, [r3]
 5432 0030 22F02002 		bic	r2, r2, #32
 5433 0034 5A60     		str	r2, [r3, #4]
2671:E:/LiteOS/LiteOS_Lab/drivers/third_party/ST/STM32L4xx_HAL_Driver/Src\stm32l4xx_hal_spi.c **** 
2672:E:/LiteOS/LiteOS_Lab/drivers/third_party/ST/STM32L4xx_HAL_Driver/Src\stm32l4xx_hal_spi.c **** #if (USE_SPI_CRC != 0U)
2673:E:/LiteOS/LiteOS_Lab/drivers/third_party/ST/STM32L4xx_HAL_Driver/Src\stm32l4xx_hal_spi.c ****     /* CRC handling */
2674:E:/LiteOS/LiteOS_Lab/drivers/third_party/ST/STM32L4xx_HAL_Driver/Src\stm32l4xx_hal_spi.c ****     if (hspi->Init.CRCCalculation == SPI_CRCCALCULATION_ENABLE)
2675:E:/LiteOS/LiteOS_Lab/drivers/third_party/ST/STM32L4xx_HAL_Driver/Src\stm32l4xx_hal_spi.c ****     {
2676:E:/LiteOS/LiteOS_Lab/drivers/third_party/ST/STM32L4xx_HAL_Driver/Src\stm32l4xx_hal_spi.c ****       /* Wait until RXNE flag */
2677:E:/LiteOS/LiteOS_Lab/drivers/third_party/ST/STM32L4xx_HAL_Driver/Src\stm32l4xx_hal_spi.c ****       if (SPI_WaitFlagStateUntilTimeout(hspi, SPI_FLAG_RXNE, SPI_FLAG_RXNE, SPI_DEFAULT_TIMEOUT, ti
2678:E:/LiteOS/LiteOS_Lab/drivers/third_party/ST/STM32L4xx_HAL_Driver/Src\stm32l4xx_hal_spi.c ****       {
2679:E:/LiteOS/LiteOS_Lab/drivers/third_party/ST/STM32L4xx_HAL_Driver/Src\stm32l4xx_hal_spi.c ****         /* Error on the CRC reception */
2680:E:/LiteOS/LiteOS_Lab/drivers/third_party/ST/STM32L4xx_HAL_Driver/Src\stm32l4xx_hal_spi.c ****         SET_BIT(hspi->ErrorCode, HAL_SPI_ERROR_CRC);
2681:E:/LiteOS/LiteOS_Lab/drivers/third_party/ST/STM32L4xx_HAL_Driver/Src\stm32l4xx_hal_spi.c ****       }
2682:E:/LiteOS/LiteOS_Lab/drivers/third_party/ST/STM32L4xx_HAL_Driver/Src\stm32l4xx_hal_spi.c ****       /* Read CRC */
2683:E:/LiteOS/LiteOS_Lab/drivers/third_party/ST/STM32L4xx_HAL_Driver/Src\stm32l4xx_hal_spi.c ****       if (hspi->Init.DataSize > SPI_DATASIZE_8BIT)
2684:E:/LiteOS/LiteOS_Lab/drivers/third_party/ST/STM32L4xx_HAL_Driver/Src\stm32l4xx_hal_spi.c ****       {
2685:E:/LiteOS/LiteOS_Lab/drivers/third_party/ST/STM32L4xx_HAL_Driver/Src\stm32l4xx_hal_spi.c ****         tmpreg = hspi->Instance->DR;
2686:E:/LiteOS/LiteOS_Lab/drivers/third_party/ST/STM32L4xx_HAL_Driver/Src\stm32l4xx_hal_spi.c ****         /* To avoid GCC warning */
2687:E:/LiteOS/LiteOS_Lab/drivers/third_party/ST/STM32L4xx_HAL_Driver/Src\stm32l4xx_hal_spi.c ****         UNUSED(tmpreg);
2688:E:/LiteOS/LiteOS_Lab/drivers/third_party/ST/STM32L4xx_HAL_Driver/Src\stm32l4xx_hal_spi.c ****       }
2689:E:/LiteOS/LiteOS_Lab/drivers/third_party/ST/STM32L4xx_HAL_Driver/Src\stm32l4xx_hal_spi.c ****       else
2690:E:/LiteOS/LiteOS_Lab/drivers/third_party/ST/STM32L4xx_HAL_Driver/Src\stm32l4xx_hal_spi.c ****       {
2691:E:/LiteOS/LiteOS_Lab/drivers/third_party/ST/STM32L4xx_HAL_Driver/Src\stm32l4xx_hal_spi.c ****         tmpreg = *(__IO uint8_t *)&hspi->Instance->DR;
2692:E:/LiteOS/LiteOS_Lab/drivers/third_party/ST/STM32L4xx_HAL_Driver/Src\stm32l4xx_hal_spi.c ****         /* To avoid GCC warning */
2693:E:/LiteOS/LiteOS_Lab/drivers/third_party/ST/STM32L4xx_HAL_Driver/Src\stm32l4xx_hal_spi.c ****         UNUSED(tmpreg);
2694:E:/LiteOS/LiteOS_Lab/drivers/third_party/ST/STM32L4xx_HAL_Driver/Src\stm32l4xx_hal_spi.c **** 
2695:E:/LiteOS/LiteOS_Lab/drivers/third_party/ST/STM32L4xx_HAL_Driver/Src\stm32l4xx_hal_spi.c ****         if (hspi->Init.CRCLength == SPI_CRC_LENGTH_16BIT)
2696:E:/LiteOS/LiteOS_Lab/drivers/third_party/ST/STM32L4xx_HAL_Driver/Src\stm32l4xx_hal_spi.c ****         {
2697:E:/LiteOS/LiteOS_Lab/drivers/third_party/ST/STM32L4xx_HAL_Driver/Src\stm32l4xx_hal_spi.c ****           if (SPI_WaitFlagStateUntilTimeout(hspi, SPI_FLAG_RXNE, SPI_FLAG_RXNE, SPI_DEFAULT_TIMEOUT
2698:E:/LiteOS/LiteOS_Lab/drivers/third_party/ST/STM32L4xx_HAL_Driver/Src\stm32l4xx_hal_spi.c ****           {
2699:E:/LiteOS/LiteOS_Lab/drivers/third_party/ST/STM32L4xx_HAL_Driver/Src\stm32l4xx_hal_spi.c ****             /* Error on the CRC reception */
2700:E:/LiteOS/LiteOS_Lab/drivers/third_party/ST/STM32L4xx_HAL_Driver/Src\stm32l4xx_hal_spi.c ****             SET_BIT(hspi->ErrorCode, HAL_SPI_ERROR_CRC);
2701:E:/LiteOS/LiteOS_Lab/drivers/third_party/ST/STM32L4xx_HAL_Driver/Src\stm32l4xx_hal_spi.c ****           }
2702:E:/LiteOS/LiteOS_Lab/drivers/third_party/ST/STM32L4xx_HAL_Driver/Src\stm32l4xx_hal_spi.c ****           tmpreg = *(__IO uint8_t *)&hspi->Instance->DR;
2703:E:/LiteOS/LiteOS_Lab/drivers/third_party/ST/STM32L4xx_HAL_Driver/Src\stm32l4xx_hal_spi.c ****           /* To avoid GCC warning */
2704:E:/LiteOS/LiteOS_Lab/drivers/third_party/ST/STM32L4xx_HAL_Driver/Src\stm32l4xx_hal_spi.c ****           UNUSED(tmpreg);
2705:E:/LiteOS/LiteOS_Lab/drivers/third_party/ST/STM32L4xx_HAL_Driver/Src\stm32l4xx_hal_spi.c ****         }
2706:E:/LiteOS/LiteOS_Lab/drivers/third_party/ST/STM32L4xx_HAL_Driver/Src\stm32l4xx_hal_spi.c ****       }
2707:E:/LiteOS/LiteOS_Lab/drivers/third_party/ST/STM32L4xx_HAL_Driver/Src\stm32l4xx_hal_spi.c ****     }
2708:E:/LiteOS/LiteOS_Lab/drivers/third_party/ST/STM32L4xx_HAL_Driver/Src\stm32l4xx_hal_spi.c **** #endif /* USE_SPI_CRC */
2709:E:/LiteOS/LiteOS_Lab/drivers/third_party/ST/STM32L4xx_HAL_Driver/Src\stm32l4xx_hal_spi.c **** 
2710:E:/LiteOS/LiteOS_Lab/drivers/third_party/ST/STM32L4xx_HAL_Driver/Src\stm32l4xx_hal_spi.c ****     /* Disable Rx/Tx DMA Request (done by default to handle the case master rx direction 2 lines) *
2711:E:/LiteOS/LiteOS_Lab/drivers/third_party/ST/STM32L4xx_HAL_Driver/Src\stm32l4xx_hal_spi.c ****     CLEAR_BIT(hspi->Instance->CR2, SPI_CR2_TXDMAEN | SPI_CR2_RXDMAEN);
 5434              		.loc 1 2711 0
ARM GAS  C:\Users\user\AppData\Local\Temp\ccvQ1M9B.s 			page 143


 5435 0036 FB68     		ldr	r3, [r7, #12]
 5436 0038 1B68     		ldr	r3, [r3]
 5437 003a 5A68     		ldr	r2, [r3, #4]
 5438 003c FB68     		ldr	r3, [r7, #12]
 5439 003e 1B68     		ldr	r3, [r3]
 5440 0040 22F00302 		bic	r2, r2, #3
 5441 0044 5A60     		str	r2, [r3, #4]
2712:E:/LiteOS/LiteOS_Lab/drivers/third_party/ST/STM32L4xx_HAL_Driver/Src\stm32l4xx_hal_spi.c **** 
2713:E:/LiteOS/LiteOS_Lab/drivers/third_party/ST/STM32L4xx_HAL_Driver/Src\stm32l4xx_hal_spi.c ****     /* Check the end of the transaction */
2714:E:/LiteOS/LiteOS_Lab/drivers/third_party/ST/STM32L4xx_HAL_Driver/Src\stm32l4xx_hal_spi.c ****     if (SPI_EndRxTransaction(hspi, SPI_DEFAULT_TIMEOUT, tickstart) != HAL_OK)
 5442              		.loc 1 2714 0
 5443 0046 BA68     		ldr	r2, [r7, #8]
 5444 0048 6421     		movs	r1, #100
 5445 004a F868     		ldr	r0, [r7, #12]
 5446 004c FFF7FEFF 		bl	SPI_EndRxTransaction
 5447 0050 0346     		mov	r3, r0
 5448 0052 002B     		cmp	r3, #0
 5449 0054 02D0     		beq	.L287
2715:E:/LiteOS/LiteOS_Lab/drivers/third_party/ST/STM32L4xx_HAL_Driver/Src\stm32l4xx_hal_spi.c ****     {
2716:E:/LiteOS/LiteOS_Lab/drivers/third_party/ST/STM32L4xx_HAL_Driver/Src\stm32l4xx_hal_spi.c ****       hspi->ErrorCode = HAL_SPI_ERROR_FLAG;
 5450              		.loc 1 2716 0
 5451 0056 FB68     		ldr	r3, [r7, #12]
 5452 0058 2022     		movs	r2, #32
 5453 005a 1A66     		str	r2, [r3, #96]
 5454              	.L287:
2717:E:/LiteOS/LiteOS_Lab/drivers/third_party/ST/STM32L4xx_HAL_Driver/Src\stm32l4xx_hal_spi.c ****     }
2718:E:/LiteOS/LiteOS_Lab/drivers/third_party/ST/STM32L4xx_HAL_Driver/Src\stm32l4xx_hal_spi.c **** 
2719:E:/LiteOS/LiteOS_Lab/drivers/third_party/ST/STM32L4xx_HAL_Driver/Src\stm32l4xx_hal_spi.c ****     hspi->RxXferCount = 0U;
 5455              		.loc 1 2719 0
 5456 005c FB68     		ldr	r3, [r7, #12]
 5457 005e 0022     		movs	r2, #0
 5458 0060 A3F84620 		strh	r2, [r3, #70]	@ movhi
2720:E:/LiteOS/LiteOS_Lab/drivers/third_party/ST/STM32L4xx_HAL_Driver/Src\stm32l4xx_hal_spi.c ****     hspi->State = HAL_SPI_STATE_READY;
 5459              		.loc 1 2720 0
 5460 0064 FB68     		ldr	r3, [r7, #12]
 5461 0066 0122     		movs	r2, #1
 5462 0068 83F85D20 		strb	r2, [r3, #93]
2721:E:/LiteOS/LiteOS_Lab/drivers/third_party/ST/STM32L4xx_HAL_Driver/Src\stm32l4xx_hal_spi.c **** 
2722:E:/LiteOS/LiteOS_Lab/drivers/third_party/ST/STM32L4xx_HAL_Driver/Src\stm32l4xx_hal_spi.c **** #if (USE_SPI_CRC != 0U)
2723:E:/LiteOS/LiteOS_Lab/drivers/third_party/ST/STM32L4xx_HAL_Driver/Src\stm32l4xx_hal_spi.c ****     /* Check if CRC error occurred */
2724:E:/LiteOS/LiteOS_Lab/drivers/third_party/ST/STM32L4xx_HAL_Driver/Src\stm32l4xx_hal_spi.c ****     if (__HAL_SPI_GET_FLAG(hspi, SPI_FLAG_CRCERR))
2725:E:/LiteOS/LiteOS_Lab/drivers/third_party/ST/STM32L4xx_HAL_Driver/Src\stm32l4xx_hal_spi.c ****     {
2726:E:/LiteOS/LiteOS_Lab/drivers/third_party/ST/STM32L4xx_HAL_Driver/Src\stm32l4xx_hal_spi.c ****       SET_BIT(hspi->ErrorCode, HAL_SPI_ERROR_CRC);
2727:E:/LiteOS/LiteOS_Lab/drivers/third_party/ST/STM32L4xx_HAL_Driver/Src\stm32l4xx_hal_spi.c ****       __HAL_SPI_CLEAR_CRCERRFLAG(hspi);
2728:E:/LiteOS/LiteOS_Lab/drivers/third_party/ST/STM32L4xx_HAL_Driver/Src\stm32l4xx_hal_spi.c ****     }
2729:E:/LiteOS/LiteOS_Lab/drivers/third_party/ST/STM32L4xx_HAL_Driver/Src\stm32l4xx_hal_spi.c **** #endif /* USE_SPI_CRC */
2730:E:/LiteOS/LiteOS_Lab/drivers/third_party/ST/STM32L4xx_HAL_Driver/Src\stm32l4xx_hal_spi.c **** 
2731:E:/LiteOS/LiteOS_Lab/drivers/third_party/ST/STM32L4xx_HAL_Driver/Src\stm32l4xx_hal_spi.c ****     if (hspi->ErrorCode != HAL_SPI_ERROR_NONE)
 5463              		.loc 1 2731 0
 5464 006c FB68     		ldr	r3, [r7, #12]
 5465 006e 1B6E     		ldr	r3, [r3, #96]
 5466 0070 002B     		cmp	r3, #0
 5467 0072 03D0     		beq	.L286
2732:E:/LiteOS/LiteOS_Lab/drivers/third_party/ST/STM32L4xx_HAL_Driver/Src\stm32l4xx_hal_spi.c ****     {
2733:E:/LiteOS/LiteOS_Lab/drivers/third_party/ST/STM32L4xx_HAL_Driver/Src\stm32l4xx_hal_spi.c ****       HAL_SPI_ErrorCallback(hspi);
 5468              		.loc 1 2733 0
 5469 0074 F868     		ldr	r0, [r7, #12]
ARM GAS  C:\Users\user\AppData\Local\Temp\ccvQ1M9B.s 			page 144


 5470 0076 FFF7FEFF 		bl	HAL_SPI_ErrorCallback
2734:E:/LiteOS/LiteOS_Lab/drivers/third_party/ST/STM32L4xx_HAL_Driver/Src\stm32l4xx_hal_spi.c ****       return;
 5471              		.loc 1 2734 0
 5472 007a 02E0     		b	.L285
 5473              	.L286:
2735:E:/LiteOS/LiteOS_Lab/drivers/third_party/ST/STM32L4xx_HAL_Driver/Src\stm32l4xx_hal_spi.c ****     }
2736:E:/LiteOS/LiteOS_Lab/drivers/third_party/ST/STM32L4xx_HAL_Driver/Src\stm32l4xx_hal_spi.c ****   }
2737:E:/LiteOS/LiteOS_Lab/drivers/third_party/ST/STM32L4xx_HAL_Driver/Src\stm32l4xx_hal_spi.c ****   HAL_SPI_RxCpltCallback(hspi);
 5474              		.loc 1 2737 0
 5475 007c F868     		ldr	r0, [r7, #12]
 5476 007e FFF7FEFF 		bl	HAL_SPI_RxCpltCallback
 5477              	.L285:
2738:E:/LiteOS/LiteOS_Lab/drivers/third_party/ST/STM32L4xx_HAL_Driver/Src\stm32l4xx_hal_spi.c **** }
 5478              		.loc 1 2738 0
 5479 0082 1037     		adds	r7, r7, #16
 5480              	.LCFI169:
 5481              		.cfi_def_cfa_offset 8
 5482 0084 BD46     		mov	sp, r7
 5483              	.LCFI170:
 5484              		.cfi_def_cfa_register 13
 5485              		@ sp needed
 5486 0086 80BD     		pop	{r7, pc}
 5487              		.cfi_endproc
 5488              	.LFE163:
 5490              		.section	.text.SPI_DMATransmitReceiveCplt,"ax",%progbits
 5491              		.align	1
 5492              		.syntax unified
 5493              		.thumb
 5494              		.thumb_func
 5495              		.fpu fpv4-sp-d16
 5497              	SPI_DMATransmitReceiveCplt:
 5498              	.LFB164:
2739:E:/LiteOS/LiteOS_Lab/drivers/third_party/ST/STM32L4xx_HAL_Driver/Src\stm32l4xx_hal_spi.c **** 
2740:E:/LiteOS/LiteOS_Lab/drivers/third_party/ST/STM32L4xx_HAL_Driver/Src\stm32l4xx_hal_spi.c **** /**
2741:E:/LiteOS/LiteOS_Lab/drivers/third_party/ST/STM32L4xx_HAL_Driver/Src\stm32l4xx_hal_spi.c ****   * @brief  DMA SPI transmit receive process complete callback.
2742:E:/LiteOS/LiteOS_Lab/drivers/third_party/ST/STM32L4xx_HAL_Driver/Src\stm32l4xx_hal_spi.c ****   * @param  hdma pointer to a DMA_HandleTypeDef structure that contains
2743:E:/LiteOS/LiteOS_Lab/drivers/third_party/ST/STM32L4xx_HAL_Driver/Src\stm32l4xx_hal_spi.c ****   *               the configuration information for the specified DMA module.
2744:E:/LiteOS/LiteOS_Lab/drivers/third_party/ST/STM32L4xx_HAL_Driver/Src\stm32l4xx_hal_spi.c ****   * @retval None
2745:E:/LiteOS/LiteOS_Lab/drivers/third_party/ST/STM32L4xx_HAL_Driver/Src\stm32l4xx_hal_spi.c ****   */
2746:E:/LiteOS/LiteOS_Lab/drivers/third_party/ST/STM32L4xx_HAL_Driver/Src\stm32l4xx_hal_spi.c **** static void SPI_DMATransmitReceiveCplt(DMA_HandleTypeDef *hdma)
2747:E:/LiteOS/LiteOS_Lab/drivers/third_party/ST/STM32L4xx_HAL_Driver/Src\stm32l4xx_hal_spi.c **** {
 5499              		.loc 1 2747 0
 5500              		.cfi_startproc
 5501              		@ args = 0, pretend = 0, frame = 16
 5502              		@ frame_needed = 1, uses_anonymous_args = 0
 5503 0000 80B5     		push	{r7, lr}
 5504              	.LCFI171:
 5505              		.cfi_def_cfa_offset 8
 5506              		.cfi_offset 7, -8
 5507              		.cfi_offset 14, -4
 5508 0002 84B0     		sub	sp, sp, #16
 5509              	.LCFI172:
 5510              		.cfi_def_cfa_offset 24
 5511 0004 00AF     		add	r7, sp, #0
 5512              	.LCFI173:
 5513              		.cfi_def_cfa_register 7
 5514 0006 7860     		str	r0, [r7, #4]
ARM GAS  C:\Users\user\AppData\Local\Temp\ccvQ1M9B.s 			page 145


2748:E:/LiteOS/LiteOS_Lab/drivers/third_party/ST/STM32L4xx_HAL_Driver/Src\stm32l4xx_hal_spi.c ****   SPI_HandleTypeDef *hspi = (SPI_HandleTypeDef *)((DMA_HandleTypeDef *)hdma)->Parent;
 5515              		.loc 1 2748 0
 5516 0008 7B68     		ldr	r3, [r7, #4]
 5517 000a 9B6A     		ldr	r3, [r3, #40]
 5518 000c FB60     		str	r3, [r7, #12]
2749:E:/LiteOS/LiteOS_Lab/drivers/third_party/ST/STM32L4xx_HAL_Driver/Src\stm32l4xx_hal_spi.c ****   uint32_t tickstart = 0U;
 5519              		.loc 1 2749 0
 5520 000e 0023     		movs	r3, #0
 5521 0010 BB60     		str	r3, [r7, #8]
2750:E:/LiteOS/LiteOS_Lab/drivers/third_party/ST/STM32L4xx_HAL_Driver/Src\stm32l4xx_hal_spi.c **** #if (USE_SPI_CRC != 0U)
2751:E:/LiteOS/LiteOS_Lab/drivers/third_party/ST/STM32L4xx_HAL_Driver/Src\stm32l4xx_hal_spi.c ****   __IO int16_t tmpreg = 0U;
2752:E:/LiteOS/LiteOS_Lab/drivers/third_party/ST/STM32L4xx_HAL_Driver/Src\stm32l4xx_hal_spi.c **** #endif /* USE_SPI_CRC */
2753:E:/LiteOS/LiteOS_Lab/drivers/third_party/ST/STM32L4xx_HAL_Driver/Src\stm32l4xx_hal_spi.c ****   /* Init tickstart for timeout management*/
2754:E:/LiteOS/LiteOS_Lab/drivers/third_party/ST/STM32L4xx_HAL_Driver/Src\stm32l4xx_hal_spi.c ****   tickstart = HAL_GetTick();
 5522              		.loc 1 2754 0
 5523 0012 FFF7FEFF 		bl	HAL_GetTick
 5524 0016 B860     		str	r0, [r7, #8]
2755:E:/LiteOS/LiteOS_Lab/drivers/third_party/ST/STM32L4xx_HAL_Driver/Src\stm32l4xx_hal_spi.c **** 
2756:E:/LiteOS/LiteOS_Lab/drivers/third_party/ST/STM32L4xx_HAL_Driver/Src\stm32l4xx_hal_spi.c ****   /* DMA Normal Mode */
2757:E:/LiteOS/LiteOS_Lab/drivers/third_party/ST/STM32L4xx_HAL_Driver/Src\stm32l4xx_hal_spi.c ****   if ((hdma->Instance->CCR & DMA_CCR_CIRC) != DMA_CCR_CIRC)
 5525              		.loc 1 2757 0
 5526 0018 7B68     		ldr	r3, [r7, #4]
 5527 001a 1B68     		ldr	r3, [r3]
 5528 001c 1B68     		ldr	r3, [r3]
 5529 001e 03F02003 		and	r3, r3, #32
 5530 0022 202B     		cmp	r3, #32
 5531 0024 30D0     		beq	.L290
2758:E:/LiteOS/LiteOS_Lab/drivers/third_party/ST/STM32L4xx_HAL_Driver/Src\stm32l4xx_hal_spi.c ****   {
2759:E:/LiteOS/LiteOS_Lab/drivers/third_party/ST/STM32L4xx_HAL_Driver/Src\stm32l4xx_hal_spi.c ****     /* Disable ERR interrupt */
2760:E:/LiteOS/LiteOS_Lab/drivers/third_party/ST/STM32L4xx_HAL_Driver/Src\stm32l4xx_hal_spi.c ****     __HAL_SPI_DISABLE_IT(hspi, SPI_IT_ERR);
 5532              		.loc 1 2760 0
 5533 0026 FB68     		ldr	r3, [r7, #12]
 5534 0028 1B68     		ldr	r3, [r3]
 5535 002a 5A68     		ldr	r2, [r3, #4]
 5536 002c FB68     		ldr	r3, [r7, #12]
 5537 002e 1B68     		ldr	r3, [r3]
 5538 0030 22F02002 		bic	r2, r2, #32
 5539 0034 5A60     		str	r2, [r3, #4]
2761:E:/LiteOS/LiteOS_Lab/drivers/third_party/ST/STM32L4xx_HAL_Driver/Src\stm32l4xx_hal_spi.c **** 
2762:E:/LiteOS/LiteOS_Lab/drivers/third_party/ST/STM32L4xx_HAL_Driver/Src\stm32l4xx_hal_spi.c **** #if (USE_SPI_CRC != 0U)
2763:E:/LiteOS/LiteOS_Lab/drivers/third_party/ST/STM32L4xx_HAL_Driver/Src\stm32l4xx_hal_spi.c ****     /* CRC handling */
2764:E:/LiteOS/LiteOS_Lab/drivers/third_party/ST/STM32L4xx_HAL_Driver/Src\stm32l4xx_hal_spi.c ****     if (hspi->Init.CRCCalculation == SPI_CRCCALCULATION_ENABLE)
2765:E:/LiteOS/LiteOS_Lab/drivers/third_party/ST/STM32L4xx_HAL_Driver/Src\stm32l4xx_hal_spi.c ****     {
2766:E:/LiteOS/LiteOS_Lab/drivers/third_party/ST/STM32L4xx_HAL_Driver/Src\stm32l4xx_hal_spi.c ****       if ((hspi->Init.DataSize == SPI_DATASIZE_8BIT) && (hspi->Init.CRCLength == SPI_CRC_LENGTH_8BI
2767:E:/LiteOS/LiteOS_Lab/drivers/third_party/ST/STM32L4xx_HAL_Driver/Src\stm32l4xx_hal_spi.c ****       {
2768:E:/LiteOS/LiteOS_Lab/drivers/third_party/ST/STM32L4xx_HAL_Driver/Src\stm32l4xx_hal_spi.c ****         if (SPI_WaitFifoStateUntilTimeout(hspi, SPI_FLAG_FRLVL, SPI_FRLVL_QUARTER_FULL, SPI_DEFAULT
2769:E:/LiteOS/LiteOS_Lab/drivers/third_party/ST/STM32L4xx_HAL_Driver/Src\stm32l4xx_hal_spi.c ****                                           tickstart) != HAL_OK)
2770:E:/LiteOS/LiteOS_Lab/drivers/third_party/ST/STM32L4xx_HAL_Driver/Src\stm32l4xx_hal_spi.c ****         {
2771:E:/LiteOS/LiteOS_Lab/drivers/third_party/ST/STM32L4xx_HAL_Driver/Src\stm32l4xx_hal_spi.c ****           /* Error on the CRC reception */
2772:E:/LiteOS/LiteOS_Lab/drivers/third_party/ST/STM32L4xx_HAL_Driver/Src\stm32l4xx_hal_spi.c ****           SET_BIT(hspi->ErrorCode, HAL_SPI_ERROR_CRC);
2773:E:/LiteOS/LiteOS_Lab/drivers/third_party/ST/STM32L4xx_HAL_Driver/Src\stm32l4xx_hal_spi.c ****         }
2774:E:/LiteOS/LiteOS_Lab/drivers/third_party/ST/STM32L4xx_HAL_Driver/Src\stm32l4xx_hal_spi.c ****         /* Read CRC to Flush DR and RXNE flag */
2775:E:/LiteOS/LiteOS_Lab/drivers/third_party/ST/STM32L4xx_HAL_Driver/Src\stm32l4xx_hal_spi.c ****         tmpreg = *(__IO uint8_t *)&hspi->Instance->DR;
2776:E:/LiteOS/LiteOS_Lab/drivers/third_party/ST/STM32L4xx_HAL_Driver/Src\stm32l4xx_hal_spi.c ****         /* To avoid GCC warning */
2777:E:/LiteOS/LiteOS_Lab/drivers/third_party/ST/STM32L4xx_HAL_Driver/Src\stm32l4xx_hal_spi.c ****         UNUSED(tmpreg);
2778:E:/LiteOS/LiteOS_Lab/drivers/third_party/ST/STM32L4xx_HAL_Driver/Src\stm32l4xx_hal_spi.c ****       }
2779:E:/LiteOS/LiteOS_Lab/drivers/third_party/ST/STM32L4xx_HAL_Driver/Src\stm32l4xx_hal_spi.c ****       else
ARM GAS  C:\Users\user\AppData\Local\Temp\ccvQ1M9B.s 			page 146


2780:E:/LiteOS/LiteOS_Lab/drivers/third_party/ST/STM32L4xx_HAL_Driver/Src\stm32l4xx_hal_spi.c ****       {
2781:E:/LiteOS/LiteOS_Lab/drivers/third_party/ST/STM32L4xx_HAL_Driver/Src\stm32l4xx_hal_spi.c ****         if (SPI_WaitFifoStateUntilTimeout(hspi, SPI_FLAG_FRLVL, SPI_FRLVL_HALF_FULL, SPI_DEFAULT_TI
2782:E:/LiteOS/LiteOS_Lab/drivers/third_party/ST/STM32L4xx_HAL_Driver/Src\stm32l4xx_hal_spi.c ****         {
2783:E:/LiteOS/LiteOS_Lab/drivers/third_party/ST/STM32L4xx_HAL_Driver/Src\stm32l4xx_hal_spi.c ****           /* Error on the CRC reception */
2784:E:/LiteOS/LiteOS_Lab/drivers/third_party/ST/STM32L4xx_HAL_Driver/Src\stm32l4xx_hal_spi.c ****           SET_BIT(hspi->ErrorCode, HAL_SPI_ERROR_CRC);
2785:E:/LiteOS/LiteOS_Lab/drivers/third_party/ST/STM32L4xx_HAL_Driver/Src\stm32l4xx_hal_spi.c ****         }
2786:E:/LiteOS/LiteOS_Lab/drivers/third_party/ST/STM32L4xx_HAL_Driver/Src\stm32l4xx_hal_spi.c ****         /* Read CRC to Flush DR and RXNE flag */
2787:E:/LiteOS/LiteOS_Lab/drivers/third_party/ST/STM32L4xx_HAL_Driver/Src\stm32l4xx_hal_spi.c ****         tmpreg = hspi->Instance->DR;
2788:E:/LiteOS/LiteOS_Lab/drivers/third_party/ST/STM32L4xx_HAL_Driver/Src\stm32l4xx_hal_spi.c ****         /* To avoid GCC warning */
2789:E:/LiteOS/LiteOS_Lab/drivers/third_party/ST/STM32L4xx_HAL_Driver/Src\stm32l4xx_hal_spi.c ****         UNUSED(tmpreg);
2790:E:/LiteOS/LiteOS_Lab/drivers/third_party/ST/STM32L4xx_HAL_Driver/Src\stm32l4xx_hal_spi.c ****       }
2791:E:/LiteOS/LiteOS_Lab/drivers/third_party/ST/STM32L4xx_HAL_Driver/Src\stm32l4xx_hal_spi.c ****     }
2792:E:/LiteOS/LiteOS_Lab/drivers/third_party/ST/STM32L4xx_HAL_Driver/Src\stm32l4xx_hal_spi.c **** #endif /* USE_SPI_CRC */
2793:E:/LiteOS/LiteOS_Lab/drivers/third_party/ST/STM32L4xx_HAL_Driver/Src\stm32l4xx_hal_spi.c **** 
2794:E:/LiteOS/LiteOS_Lab/drivers/third_party/ST/STM32L4xx_HAL_Driver/Src\stm32l4xx_hal_spi.c ****     /* Check the end of the transaction */
2795:E:/LiteOS/LiteOS_Lab/drivers/third_party/ST/STM32L4xx_HAL_Driver/Src\stm32l4xx_hal_spi.c ****     if (SPI_EndRxTxTransaction(hspi, SPI_DEFAULT_TIMEOUT, tickstart) != HAL_OK)
 5540              		.loc 1 2795 0
 5541 0036 BA68     		ldr	r2, [r7, #8]
 5542 0038 6421     		movs	r1, #100
 5543 003a F868     		ldr	r0, [r7, #12]
 5544 003c FFF7FEFF 		bl	SPI_EndRxTxTransaction
 5545 0040 0346     		mov	r3, r0
 5546 0042 002B     		cmp	r3, #0
 5547 0044 05D0     		beq	.L291
2796:E:/LiteOS/LiteOS_Lab/drivers/third_party/ST/STM32L4xx_HAL_Driver/Src\stm32l4xx_hal_spi.c ****     {
2797:E:/LiteOS/LiteOS_Lab/drivers/third_party/ST/STM32L4xx_HAL_Driver/Src\stm32l4xx_hal_spi.c ****       SET_BIT(hspi->ErrorCode, HAL_SPI_ERROR_FLAG);
 5548              		.loc 1 2797 0
 5549 0046 FB68     		ldr	r3, [r7, #12]
 5550 0048 1B6E     		ldr	r3, [r3, #96]
 5551 004a 43F02002 		orr	r2, r3, #32
 5552 004e FB68     		ldr	r3, [r7, #12]
 5553 0050 1A66     		str	r2, [r3, #96]
 5554              	.L291:
2798:E:/LiteOS/LiteOS_Lab/drivers/third_party/ST/STM32L4xx_HAL_Driver/Src\stm32l4xx_hal_spi.c ****     }
2799:E:/LiteOS/LiteOS_Lab/drivers/third_party/ST/STM32L4xx_HAL_Driver/Src\stm32l4xx_hal_spi.c **** 
2800:E:/LiteOS/LiteOS_Lab/drivers/third_party/ST/STM32L4xx_HAL_Driver/Src\stm32l4xx_hal_spi.c ****     /* Disable Rx/Tx DMA Request */
2801:E:/LiteOS/LiteOS_Lab/drivers/third_party/ST/STM32L4xx_HAL_Driver/Src\stm32l4xx_hal_spi.c ****     CLEAR_BIT(hspi->Instance->CR2, SPI_CR2_TXDMAEN | SPI_CR2_RXDMAEN);
 5555              		.loc 1 2801 0
 5556 0052 FB68     		ldr	r3, [r7, #12]
 5557 0054 1B68     		ldr	r3, [r3]
 5558 0056 5A68     		ldr	r2, [r3, #4]
 5559 0058 FB68     		ldr	r3, [r7, #12]
 5560 005a 1B68     		ldr	r3, [r3]
 5561 005c 22F00302 		bic	r2, r2, #3
 5562 0060 5A60     		str	r2, [r3, #4]
2802:E:/LiteOS/LiteOS_Lab/drivers/third_party/ST/STM32L4xx_HAL_Driver/Src\stm32l4xx_hal_spi.c **** 
2803:E:/LiteOS/LiteOS_Lab/drivers/third_party/ST/STM32L4xx_HAL_Driver/Src\stm32l4xx_hal_spi.c ****     hspi->TxXferCount = 0U;
 5563              		.loc 1 2803 0
 5564 0062 FB68     		ldr	r3, [r7, #12]
 5565 0064 0022     		movs	r2, #0
 5566 0066 DA87     		strh	r2, [r3, #62]	@ movhi
2804:E:/LiteOS/LiteOS_Lab/drivers/third_party/ST/STM32L4xx_HAL_Driver/Src\stm32l4xx_hal_spi.c ****     hspi->RxXferCount = 0U;
 5567              		.loc 1 2804 0
 5568 0068 FB68     		ldr	r3, [r7, #12]
 5569 006a 0022     		movs	r2, #0
 5570 006c A3F84620 		strh	r2, [r3, #70]	@ movhi
2805:E:/LiteOS/LiteOS_Lab/drivers/third_party/ST/STM32L4xx_HAL_Driver/Src\stm32l4xx_hal_spi.c ****     hspi->State = HAL_SPI_STATE_READY;
ARM GAS  C:\Users\user\AppData\Local\Temp\ccvQ1M9B.s 			page 147


 5571              		.loc 1 2805 0
 5572 0070 FB68     		ldr	r3, [r7, #12]
 5573 0072 0122     		movs	r2, #1
 5574 0074 83F85D20 		strb	r2, [r3, #93]
2806:E:/LiteOS/LiteOS_Lab/drivers/third_party/ST/STM32L4xx_HAL_Driver/Src\stm32l4xx_hal_spi.c **** 
2807:E:/LiteOS/LiteOS_Lab/drivers/third_party/ST/STM32L4xx_HAL_Driver/Src\stm32l4xx_hal_spi.c **** #if (USE_SPI_CRC != 0U)
2808:E:/LiteOS/LiteOS_Lab/drivers/third_party/ST/STM32L4xx_HAL_Driver/Src\stm32l4xx_hal_spi.c ****     /* Check if CRC error occurred */
2809:E:/LiteOS/LiteOS_Lab/drivers/third_party/ST/STM32L4xx_HAL_Driver/Src\stm32l4xx_hal_spi.c ****     if (__HAL_SPI_GET_FLAG(hspi, SPI_FLAG_CRCERR))
2810:E:/LiteOS/LiteOS_Lab/drivers/third_party/ST/STM32L4xx_HAL_Driver/Src\stm32l4xx_hal_spi.c ****     {
2811:E:/LiteOS/LiteOS_Lab/drivers/third_party/ST/STM32L4xx_HAL_Driver/Src\stm32l4xx_hal_spi.c ****       SET_BIT(hspi->ErrorCode, HAL_SPI_ERROR_CRC);
2812:E:/LiteOS/LiteOS_Lab/drivers/third_party/ST/STM32L4xx_HAL_Driver/Src\stm32l4xx_hal_spi.c ****       __HAL_SPI_CLEAR_CRCERRFLAG(hspi);
2813:E:/LiteOS/LiteOS_Lab/drivers/third_party/ST/STM32L4xx_HAL_Driver/Src\stm32l4xx_hal_spi.c ****     }
2814:E:/LiteOS/LiteOS_Lab/drivers/third_party/ST/STM32L4xx_HAL_Driver/Src\stm32l4xx_hal_spi.c **** #endif /* USE_SPI_CRC */
2815:E:/LiteOS/LiteOS_Lab/drivers/third_party/ST/STM32L4xx_HAL_Driver/Src\stm32l4xx_hal_spi.c **** 
2816:E:/LiteOS/LiteOS_Lab/drivers/third_party/ST/STM32L4xx_HAL_Driver/Src\stm32l4xx_hal_spi.c ****     if (hspi->ErrorCode != HAL_SPI_ERROR_NONE)
 5575              		.loc 1 2816 0
 5576 0078 FB68     		ldr	r3, [r7, #12]
 5577 007a 1B6E     		ldr	r3, [r3, #96]
 5578 007c 002B     		cmp	r3, #0
 5579 007e 03D0     		beq	.L290
2817:E:/LiteOS/LiteOS_Lab/drivers/third_party/ST/STM32L4xx_HAL_Driver/Src\stm32l4xx_hal_spi.c ****     {
2818:E:/LiteOS/LiteOS_Lab/drivers/third_party/ST/STM32L4xx_HAL_Driver/Src\stm32l4xx_hal_spi.c ****       HAL_SPI_ErrorCallback(hspi);
 5580              		.loc 1 2818 0
 5581 0080 F868     		ldr	r0, [r7, #12]
 5582 0082 FFF7FEFF 		bl	HAL_SPI_ErrorCallback
2819:E:/LiteOS/LiteOS_Lab/drivers/third_party/ST/STM32L4xx_HAL_Driver/Src\stm32l4xx_hal_spi.c ****       return;
 5583              		.loc 1 2819 0
 5584 0086 02E0     		b	.L289
 5585              	.L290:
2820:E:/LiteOS/LiteOS_Lab/drivers/third_party/ST/STM32L4xx_HAL_Driver/Src\stm32l4xx_hal_spi.c ****     }
2821:E:/LiteOS/LiteOS_Lab/drivers/third_party/ST/STM32L4xx_HAL_Driver/Src\stm32l4xx_hal_spi.c ****   }
2822:E:/LiteOS/LiteOS_Lab/drivers/third_party/ST/STM32L4xx_HAL_Driver/Src\stm32l4xx_hal_spi.c ****   HAL_SPI_TxRxCpltCallback(hspi);
 5586              		.loc 1 2822 0
 5587 0088 F868     		ldr	r0, [r7, #12]
 5588 008a FFF7FEFF 		bl	HAL_SPI_TxRxCpltCallback
 5589              	.L289:
2823:E:/LiteOS/LiteOS_Lab/drivers/third_party/ST/STM32L4xx_HAL_Driver/Src\stm32l4xx_hal_spi.c **** }
 5590              		.loc 1 2823 0
 5591 008e 1037     		adds	r7, r7, #16
 5592              	.LCFI174:
 5593              		.cfi_def_cfa_offset 8
 5594 0090 BD46     		mov	sp, r7
 5595              	.LCFI175:
 5596              		.cfi_def_cfa_register 13
 5597              		@ sp needed
 5598 0092 80BD     		pop	{r7, pc}
 5599              		.cfi_endproc
 5600              	.LFE164:
 5602              		.section	.text.SPI_DMAHalfTransmitCplt,"ax",%progbits
 5603              		.align	1
 5604              		.syntax unified
 5605              		.thumb
 5606              		.thumb_func
 5607              		.fpu fpv4-sp-d16
 5609              	SPI_DMAHalfTransmitCplt:
 5610              	.LFB165:
2824:E:/LiteOS/LiteOS_Lab/drivers/third_party/ST/STM32L4xx_HAL_Driver/Src\stm32l4xx_hal_spi.c **** 
ARM GAS  C:\Users\user\AppData\Local\Temp\ccvQ1M9B.s 			page 148


2825:E:/LiteOS/LiteOS_Lab/drivers/third_party/ST/STM32L4xx_HAL_Driver/Src\stm32l4xx_hal_spi.c **** /**
2826:E:/LiteOS/LiteOS_Lab/drivers/third_party/ST/STM32L4xx_HAL_Driver/Src\stm32l4xx_hal_spi.c ****   * @brief  DMA SPI half transmit process complete callback.
2827:E:/LiteOS/LiteOS_Lab/drivers/third_party/ST/STM32L4xx_HAL_Driver/Src\stm32l4xx_hal_spi.c ****   * @param  hdma pointer to a DMA_HandleTypeDef structure that contains
2828:E:/LiteOS/LiteOS_Lab/drivers/third_party/ST/STM32L4xx_HAL_Driver/Src\stm32l4xx_hal_spi.c ****   *               the configuration information for the specified DMA module.
2829:E:/LiteOS/LiteOS_Lab/drivers/third_party/ST/STM32L4xx_HAL_Driver/Src\stm32l4xx_hal_spi.c ****   * @retval None
2830:E:/LiteOS/LiteOS_Lab/drivers/third_party/ST/STM32L4xx_HAL_Driver/Src\stm32l4xx_hal_spi.c ****   */
2831:E:/LiteOS/LiteOS_Lab/drivers/third_party/ST/STM32L4xx_HAL_Driver/Src\stm32l4xx_hal_spi.c **** static void SPI_DMAHalfTransmitCplt(DMA_HandleTypeDef *hdma)
2832:E:/LiteOS/LiteOS_Lab/drivers/third_party/ST/STM32L4xx_HAL_Driver/Src\stm32l4xx_hal_spi.c **** {
 5611              		.loc 1 2832 0
 5612              		.cfi_startproc
 5613              		@ args = 0, pretend = 0, frame = 16
 5614              		@ frame_needed = 1, uses_anonymous_args = 0
 5615 0000 80B5     		push	{r7, lr}
 5616              	.LCFI176:
 5617              		.cfi_def_cfa_offset 8
 5618              		.cfi_offset 7, -8
 5619              		.cfi_offset 14, -4
 5620 0002 84B0     		sub	sp, sp, #16
 5621              	.LCFI177:
 5622              		.cfi_def_cfa_offset 24
 5623 0004 00AF     		add	r7, sp, #0
 5624              	.LCFI178:
 5625              		.cfi_def_cfa_register 7
 5626 0006 7860     		str	r0, [r7, #4]
2833:E:/LiteOS/LiteOS_Lab/drivers/third_party/ST/STM32L4xx_HAL_Driver/Src\stm32l4xx_hal_spi.c ****   SPI_HandleTypeDef *hspi = (SPI_HandleTypeDef *)((DMA_HandleTypeDef *)hdma)->Parent;
 5627              		.loc 1 2833 0
 5628 0008 7B68     		ldr	r3, [r7, #4]
 5629 000a 9B6A     		ldr	r3, [r3, #40]
 5630 000c FB60     		str	r3, [r7, #12]
2834:E:/LiteOS/LiteOS_Lab/drivers/third_party/ST/STM32L4xx_HAL_Driver/Src\stm32l4xx_hal_spi.c **** 
2835:E:/LiteOS/LiteOS_Lab/drivers/third_party/ST/STM32L4xx_HAL_Driver/Src\stm32l4xx_hal_spi.c ****   HAL_SPI_TxHalfCpltCallback(hspi);
 5631              		.loc 1 2835 0
 5632 000e F868     		ldr	r0, [r7, #12]
 5633 0010 FFF7FEFF 		bl	HAL_SPI_TxHalfCpltCallback
2836:E:/LiteOS/LiteOS_Lab/drivers/third_party/ST/STM32L4xx_HAL_Driver/Src\stm32l4xx_hal_spi.c **** }
 5634              		.loc 1 2836 0
 5635 0014 00BF     		nop
 5636 0016 1037     		adds	r7, r7, #16
 5637              	.LCFI179:
 5638              		.cfi_def_cfa_offset 8
 5639 0018 BD46     		mov	sp, r7
 5640              	.LCFI180:
 5641              		.cfi_def_cfa_register 13
 5642              		@ sp needed
 5643 001a 80BD     		pop	{r7, pc}
 5644              		.cfi_endproc
 5645              	.LFE165:
 5647              		.section	.text.SPI_DMAHalfReceiveCplt,"ax",%progbits
 5648              		.align	1
 5649              		.syntax unified
 5650              		.thumb
 5651              		.thumb_func
 5652              		.fpu fpv4-sp-d16
 5654              	SPI_DMAHalfReceiveCplt:
 5655              	.LFB166:
2837:E:/LiteOS/LiteOS_Lab/drivers/third_party/ST/STM32L4xx_HAL_Driver/Src\stm32l4xx_hal_spi.c **** 
2838:E:/LiteOS/LiteOS_Lab/drivers/third_party/ST/STM32L4xx_HAL_Driver/Src\stm32l4xx_hal_spi.c **** /**
ARM GAS  C:\Users\user\AppData\Local\Temp\ccvQ1M9B.s 			page 149


2839:E:/LiteOS/LiteOS_Lab/drivers/third_party/ST/STM32L4xx_HAL_Driver/Src\stm32l4xx_hal_spi.c ****   * @brief  DMA SPI half receive process complete callback
2840:E:/LiteOS/LiteOS_Lab/drivers/third_party/ST/STM32L4xx_HAL_Driver/Src\stm32l4xx_hal_spi.c ****   * @param  hdma pointer to a DMA_HandleTypeDef structure that contains
2841:E:/LiteOS/LiteOS_Lab/drivers/third_party/ST/STM32L4xx_HAL_Driver/Src\stm32l4xx_hal_spi.c ****   *               the configuration information for the specified DMA module.
2842:E:/LiteOS/LiteOS_Lab/drivers/third_party/ST/STM32L4xx_HAL_Driver/Src\stm32l4xx_hal_spi.c ****   * @retval None
2843:E:/LiteOS/LiteOS_Lab/drivers/third_party/ST/STM32L4xx_HAL_Driver/Src\stm32l4xx_hal_spi.c ****   */
2844:E:/LiteOS/LiteOS_Lab/drivers/third_party/ST/STM32L4xx_HAL_Driver/Src\stm32l4xx_hal_spi.c **** static void SPI_DMAHalfReceiveCplt(DMA_HandleTypeDef *hdma)
2845:E:/LiteOS/LiteOS_Lab/drivers/third_party/ST/STM32L4xx_HAL_Driver/Src\stm32l4xx_hal_spi.c **** {
 5656              		.loc 1 2845 0
 5657              		.cfi_startproc
 5658              		@ args = 0, pretend = 0, frame = 16
 5659              		@ frame_needed = 1, uses_anonymous_args = 0
 5660 0000 80B5     		push	{r7, lr}
 5661              	.LCFI181:
 5662              		.cfi_def_cfa_offset 8
 5663              		.cfi_offset 7, -8
 5664              		.cfi_offset 14, -4
 5665 0002 84B0     		sub	sp, sp, #16
 5666              	.LCFI182:
 5667              		.cfi_def_cfa_offset 24
 5668 0004 00AF     		add	r7, sp, #0
 5669              	.LCFI183:
 5670              		.cfi_def_cfa_register 7
 5671 0006 7860     		str	r0, [r7, #4]
2846:E:/LiteOS/LiteOS_Lab/drivers/third_party/ST/STM32L4xx_HAL_Driver/Src\stm32l4xx_hal_spi.c ****   SPI_HandleTypeDef *hspi = (SPI_HandleTypeDef *)((DMA_HandleTypeDef *)hdma)->Parent;
 5672              		.loc 1 2846 0
 5673 0008 7B68     		ldr	r3, [r7, #4]
 5674 000a 9B6A     		ldr	r3, [r3, #40]
 5675 000c FB60     		str	r3, [r7, #12]
2847:E:/LiteOS/LiteOS_Lab/drivers/third_party/ST/STM32L4xx_HAL_Driver/Src\stm32l4xx_hal_spi.c **** 
2848:E:/LiteOS/LiteOS_Lab/drivers/third_party/ST/STM32L4xx_HAL_Driver/Src\stm32l4xx_hal_spi.c ****   HAL_SPI_RxHalfCpltCallback(hspi);
 5676              		.loc 1 2848 0
 5677 000e F868     		ldr	r0, [r7, #12]
 5678 0010 FFF7FEFF 		bl	HAL_SPI_RxHalfCpltCallback
2849:E:/LiteOS/LiteOS_Lab/drivers/third_party/ST/STM32L4xx_HAL_Driver/Src\stm32l4xx_hal_spi.c **** }
 5679              		.loc 1 2849 0
 5680 0014 00BF     		nop
 5681 0016 1037     		adds	r7, r7, #16
 5682              	.LCFI184:
 5683              		.cfi_def_cfa_offset 8
 5684 0018 BD46     		mov	sp, r7
 5685              	.LCFI185:
 5686              		.cfi_def_cfa_register 13
 5687              		@ sp needed
 5688 001a 80BD     		pop	{r7, pc}
 5689              		.cfi_endproc
 5690              	.LFE166:
 5692              		.section	.text.SPI_DMAHalfTransmitReceiveCplt,"ax",%progbits
 5693              		.align	1
 5694              		.syntax unified
 5695              		.thumb
 5696              		.thumb_func
 5697              		.fpu fpv4-sp-d16
 5699              	SPI_DMAHalfTransmitReceiveCplt:
 5700              	.LFB167:
2850:E:/LiteOS/LiteOS_Lab/drivers/third_party/ST/STM32L4xx_HAL_Driver/Src\stm32l4xx_hal_spi.c **** 
2851:E:/LiteOS/LiteOS_Lab/drivers/third_party/ST/STM32L4xx_HAL_Driver/Src\stm32l4xx_hal_spi.c **** /**
2852:E:/LiteOS/LiteOS_Lab/drivers/third_party/ST/STM32L4xx_HAL_Driver/Src\stm32l4xx_hal_spi.c ****   * @brief  DMA SPI half transmit receive process complete callback.
ARM GAS  C:\Users\user\AppData\Local\Temp\ccvQ1M9B.s 			page 150


2853:E:/LiteOS/LiteOS_Lab/drivers/third_party/ST/STM32L4xx_HAL_Driver/Src\stm32l4xx_hal_spi.c ****   * @param  hdma pointer to a DMA_HandleTypeDef structure that contains
2854:E:/LiteOS/LiteOS_Lab/drivers/third_party/ST/STM32L4xx_HAL_Driver/Src\stm32l4xx_hal_spi.c ****   *               the configuration information for the specified DMA module.
2855:E:/LiteOS/LiteOS_Lab/drivers/third_party/ST/STM32L4xx_HAL_Driver/Src\stm32l4xx_hal_spi.c ****   * @retval None
2856:E:/LiteOS/LiteOS_Lab/drivers/third_party/ST/STM32L4xx_HAL_Driver/Src\stm32l4xx_hal_spi.c ****   */
2857:E:/LiteOS/LiteOS_Lab/drivers/third_party/ST/STM32L4xx_HAL_Driver/Src\stm32l4xx_hal_spi.c **** static void SPI_DMAHalfTransmitReceiveCplt(DMA_HandleTypeDef *hdma)
2858:E:/LiteOS/LiteOS_Lab/drivers/third_party/ST/STM32L4xx_HAL_Driver/Src\stm32l4xx_hal_spi.c **** {
 5701              		.loc 1 2858 0
 5702              		.cfi_startproc
 5703              		@ args = 0, pretend = 0, frame = 16
 5704              		@ frame_needed = 1, uses_anonymous_args = 0
 5705 0000 80B5     		push	{r7, lr}
 5706              	.LCFI186:
 5707              		.cfi_def_cfa_offset 8
 5708              		.cfi_offset 7, -8
 5709              		.cfi_offset 14, -4
 5710 0002 84B0     		sub	sp, sp, #16
 5711              	.LCFI187:
 5712              		.cfi_def_cfa_offset 24
 5713 0004 00AF     		add	r7, sp, #0
 5714              	.LCFI188:
 5715              		.cfi_def_cfa_register 7
 5716 0006 7860     		str	r0, [r7, #4]
2859:E:/LiteOS/LiteOS_Lab/drivers/third_party/ST/STM32L4xx_HAL_Driver/Src\stm32l4xx_hal_spi.c ****   SPI_HandleTypeDef *hspi = (SPI_HandleTypeDef *)((DMA_HandleTypeDef *)hdma)->Parent;
 5717              		.loc 1 2859 0
 5718 0008 7B68     		ldr	r3, [r7, #4]
 5719 000a 9B6A     		ldr	r3, [r3, #40]
 5720 000c FB60     		str	r3, [r7, #12]
2860:E:/LiteOS/LiteOS_Lab/drivers/third_party/ST/STM32L4xx_HAL_Driver/Src\stm32l4xx_hal_spi.c **** 
2861:E:/LiteOS/LiteOS_Lab/drivers/third_party/ST/STM32L4xx_HAL_Driver/Src\stm32l4xx_hal_spi.c ****   HAL_SPI_TxRxHalfCpltCallback(hspi);
 5721              		.loc 1 2861 0
 5722 000e F868     		ldr	r0, [r7, #12]
 5723 0010 FFF7FEFF 		bl	HAL_SPI_TxRxHalfCpltCallback
2862:E:/LiteOS/LiteOS_Lab/drivers/third_party/ST/STM32L4xx_HAL_Driver/Src\stm32l4xx_hal_spi.c **** }
 5724              		.loc 1 2862 0
 5725 0014 00BF     		nop
 5726 0016 1037     		adds	r7, r7, #16
 5727              	.LCFI189:
 5728              		.cfi_def_cfa_offset 8
 5729 0018 BD46     		mov	sp, r7
 5730              	.LCFI190:
 5731              		.cfi_def_cfa_register 13
 5732              		@ sp needed
 5733 001a 80BD     		pop	{r7, pc}
 5734              		.cfi_endproc
 5735              	.LFE167:
 5737              		.section	.text.SPI_DMAError,"ax",%progbits
 5738              		.align	1
 5739              		.syntax unified
 5740              		.thumb
 5741              		.thumb_func
 5742              		.fpu fpv4-sp-d16
 5744              	SPI_DMAError:
 5745              	.LFB168:
2863:E:/LiteOS/LiteOS_Lab/drivers/third_party/ST/STM32L4xx_HAL_Driver/Src\stm32l4xx_hal_spi.c **** 
2864:E:/LiteOS/LiteOS_Lab/drivers/third_party/ST/STM32L4xx_HAL_Driver/Src\stm32l4xx_hal_spi.c **** /**
2865:E:/LiteOS/LiteOS_Lab/drivers/third_party/ST/STM32L4xx_HAL_Driver/Src\stm32l4xx_hal_spi.c ****   * @brief  DMA SPI communication error callback.
2866:E:/LiteOS/LiteOS_Lab/drivers/third_party/ST/STM32L4xx_HAL_Driver/Src\stm32l4xx_hal_spi.c ****   * @param  hdma pointer to a DMA_HandleTypeDef structure that contains
ARM GAS  C:\Users\user\AppData\Local\Temp\ccvQ1M9B.s 			page 151


2867:E:/LiteOS/LiteOS_Lab/drivers/third_party/ST/STM32L4xx_HAL_Driver/Src\stm32l4xx_hal_spi.c ****   *               the configuration information for the specified DMA module.
2868:E:/LiteOS/LiteOS_Lab/drivers/third_party/ST/STM32L4xx_HAL_Driver/Src\stm32l4xx_hal_spi.c ****   * @retval None
2869:E:/LiteOS/LiteOS_Lab/drivers/third_party/ST/STM32L4xx_HAL_Driver/Src\stm32l4xx_hal_spi.c ****   */
2870:E:/LiteOS/LiteOS_Lab/drivers/third_party/ST/STM32L4xx_HAL_Driver/Src\stm32l4xx_hal_spi.c **** static void SPI_DMAError(DMA_HandleTypeDef *hdma)
2871:E:/LiteOS/LiteOS_Lab/drivers/third_party/ST/STM32L4xx_HAL_Driver/Src\stm32l4xx_hal_spi.c **** {
 5746              		.loc 1 2871 0
 5747              		.cfi_startproc
 5748              		@ args = 0, pretend = 0, frame = 16
 5749              		@ frame_needed = 1, uses_anonymous_args = 0
 5750 0000 80B5     		push	{r7, lr}
 5751              	.LCFI191:
 5752              		.cfi_def_cfa_offset 8
 5753              		.cfi_offset 7, -8
 5754              		.cfi_offset 14, -4
 5755 0002 84B0     		sub	sp, sp, #16
 5756              	.LCFI192:
 5757              		.cfi_def_cfa_offset 24
 5758 0004 00AF     		add	r7, sp, #0
 5759              	.LCFI193:
 5760              		.cfi_def_cfa_register 7
 5761 0006 7860     		str	r0, [r7, #4]
2872:E:/LiteOS/LiteOS_Lab/drivers/third_party/ST/STM32L4xx_HAL_Driver/Src\stm32l4xx_hal_spi.c ****   SPI_HandleTypeDef *hspi = (SPI_HandleTypeDef *)((DMA_HandleTypeDef *)hdma)->Parent;
 5762              		.loc 1 2872 0
 5763 0008 7B68     		ldr	r3, [r7, #4]
 5764 000a 9B6A     		ldr	r3, [r3, #40]
 5765 000c FB60     		str	r3, [r7, #12]
2873:E:/LiteOS/LiteOS_Lab/drivers/third_party/ST/STM32L4xx_HAL_Driver/Src\stm32l4xx_hal_spi.c **** 
2874:E:/LiteOS/LiteOS_Lab/drivers/third_party/ST/STM32L4xx_HAL_Driver/Src\stm32l4xx_hal_spi.c ****   /* Stop the disable DMA transfer on SPI side */
2875:E:/LiteOS/LiteOS_Lab/drivers/third_party/ST/STM32L4xx_HAL_Driver/Src\stm32l4xx_hal_spi.c ****   CLEAR_BIT(hspi->Instance->CR2, SPI_CR2_TXDMAEN | SPI_CR2_RXDMAEN);
 5766              		.loc 1 2875 0
 5767 000e FB68     		ldr	r3, [r7, #12]
 5768 0010 1B68     		ldr	r3, [r3]
 5769 0012 5A68     		ldr	r2, [r3, #4]
 5770 0014 FB68     		ldr	r3, [r7, #12]
 5771 0016 1B68     		ldr	r3, [r3]
 5772 0018 22F00302 		bic	r2, r2, #3
 5773 001c 5A60     		str	r2, [r3, #4]
2876:E:/LiteOS/LiteOS_Lab/drivers/third_party/ST/STM32L4xx_HAL_Driver/Src\stm32l4xx_hal_spi.c **** 
2877:E:/LiteOS/LiteOS_Lab/drivers/third_party/ST/STM32L4xx_HAL_Driver/Src\stm32l4xx_hal_spi.c ****   SET_BIT(hspi->ErrorCode, HAL_SPI_ERROR_DMA);
 5774              		.loc 1 2877 0
 5775 001e FB68     		ldr	r3, [r7, #12]
 5776 0020 1B6E     		ldr	r3, [r3, #96]
 5777 0022 43F01002 		orr	r2, r3, #16
 5778 0026 FB68     		ldr	r3, [r7, #12]
 5779 0028 1A66     		str	r2, [r3, #96]
2878:E:/LiteOS/LiteOS_Lab/drivers/third_party/ST/STM32L4xx_HAL_Driver/Src\stm32l4xx_hal_spi.c ****   hspi->State = HAL_SPI_STATE_READY;
 5780              		.loc 1 2878 0
 5781 002a FB68     		ldr	r3, [r7, #12]
 5782 002c 0122     		movs	r2, #1
 5783 002e 83F85D20 		strb	r2, [r3, #93]
2879:E:/LiteOS/LiteOS_Lab/drivers/third_party/ST/STM32L4xx_HAL_Driver/Src\stm32l4xx_hal_spi.c ****   HAL_SPI_ErrorCallback(hspi);
 5784              		.loc 1 2879 0
 5785 0032 F868     		ldr	r0, [r7, #12]
 5786 0034 FFF7FEFF 		bl	HAL_SPI_ErrorCallback
2880:E:/LiteOS/LiteOS_Lab/drivers/third_party/ST/STM32L4xx_HAL_Driver/Src\stm32l4xx_hal_spi.c **** }
 5787              		.loc 1 2880 0
 5788 0038 00BF     		nop
ARM GAS  C:\Users\user\AppData\Local\Temp\ccvQ1M9B.s 			page 152


 5789 003a 1037     		adds	r7, r7, #16
 5790              	.LCFI194:
 5791              		.cfi_def_cfa_offset 8
 5792 003c BD46     		mov	sp, r7
 5793              	.LCFI195:
 5794              		.cfi_def_cfa_register 13
 5795              		@ sp needed
 5796 003e 80BD     		pop	{r7, pc}
 5797              		.cfi_endproc
 5798              	.LFE168:
 5800              		.section	.text.SPI_DMAAbortOnError,"ax",%progbits
 5801              		.align	1
 5802              		.syntax unified
 5803              		.thumb
 5804              		.thumb_func
 5805              		.fpu fpv4-sp-d16
 5807              	SPI_DMAAbortOnError:
 5808              	.LFB169:
2881:E:/LiteOS/LiteOS_Lab/drivers/third_party/ST/STM32L4xx_HAL_Driver/Src\stm32l4xx_hal_spi.c **** 
2882:E:/LiteOS/LiteOS_Lab/drivers/third_party/ST/STM32L4xx_HAL_Driver/Src\stm32l4xx_hal_spi.c **** /**
2883:E:/LiteOS/LiteOS_Lab/drivers/third_party/ST/STM32L4xx_HAL_Driver/Src\stm32l4xx_hal_spi.c ****   * @brief  DMA SPI communication abort callback, when initiated by HAL services on Error
2884:E:/LiteOS/LiteOS_Lab/drivers/third_party/ST/STM32L4xx_HAL_Driver/Src\stm32l4xx_hal_spi.c ****   *         (To be called at end of DMA Abort procedure following error occurrence).
2885:E:/LiteOS/LiteOS_Lab/drivers/third_party/ST/STM32L4xx_HAL_Driver/Src\stm32l4xx_hal_spi.c ****   * @param  hdma DMA handle.
2886:E:/LiteOS/LiteOS_Lab/drivers/third_party/ST/STM32L4xx_HAL_Driver/Src\stm32l4xx_hal_spi.c ****   * @retval None
2887:E:/LiteOS/LiteOS_Lab/drivers/third_party/ST/STM32L4xx_HAL_Driver/Src\stm32l4xx_hal_spi.c ****   */
2888:E:/LiteOS/LiteOS_Lab/drivers/third_party/ST/STM32L4xx_HAL_Driver/Src\stm32l4xx_hal_spi.c **** static void SPI_DMAAbortOnError(DMA_HandleTypeDef *hdma)
2889:E:/LiteOS/LiteOS_Lab/drivers/third_party/ST/STM32L4xx_HAL_Driver/Src\stm32l4xx_hal_spi.c **** {
 5809              		.loc 1 2889 0
 5810              		.cfi_startproc
 5811              		@ args = 0, pretend = 0, frame = 16
 5812              		@ frame_needed = 1, uses_anonymous_args = 0
 5813 0000 80B5     		push	{r7, lr}
 5814              	.LCFI196:
 5815              		.cfi_def_cfa_offset 8
 5816              		.cfi_offset 7, -8
 5817              		.cfi_offset 14, -4
 5818 0002 84B0     		sub	sp, sp, #16
 5819              	.LCFI197:
 5820              		.cfi_def_cfa_offset 24
 5821 0004 00AF     		add	r7, sp, #0
 5822              	.LCFI198:
 5823              		.cfi_def_cfa_register 7
 5824 0006 7860     		str	r0, [r7, #4]
2890:E:/LiteOS/LiteOS_Lab/drivers/third_party/ST/STM32L4xx_HAL_Driver/Src\stm32l4xx_hal_spi.c ****   SPI_HandleTypeDef *hspi = (SPI_HandleTypeDef *)((DMA_HandleTypeDef *)hdma)->Parent;
 5825              		.loc 1 2890 0
 5826 0008 7B68     		ldr	r3, [r7, #4]
 5827 000a 9B6A     		ldr	r3, [r3, #40]
 5828 000c FB60     		str	r3, [r7, #12]
2891:E:/LiteOS/LiteOS_Lab/drivers/third_party/ST/STM32L4xx_HAL_Driver/Src\stm32l4xx_hal_spi.c ****   hspi->RxXferCount = 0U;
 5829              		.loc 1 2891 0
 5830 000e FB68     		ldr	r3, [r7, #12]
 5831 0010 0022     		movs	r2, #0
 5832 0012 A3F84620 		strh	r2, [r3, #70]	@ movhi
2892:E:/LiteOS/LiteOS_Lab/drivers/third_party/ST/STM32L4xx_HAL_Driver/Src\stm32l4xx_hal_spi.c ****   hspi->TxXferCount = 0U;
 5833              		.loc 1 2892 0
 5834 0016 FB68     		ldr	r3, [r7, #12]
 5835 0018 0022     		movs	r2, #0
ARM GAS  C:\Users\user\AppData\Local\Temp\ccvQ1M9B.s 			page 153


 5836 001a DA87     		strh	r2, [r3, #62]	@ movhi
2893:E:/LiteOS/LiteOS_Lab/drivers/third_party/ST/STM32L4xx_HAL_Driver/Src\stm32l4xx_hal_spi.c **** 
2894:E:/LiteOS/LiteOS_Lab/drivers/third_party/ST/STM32L4xx_HAL_Driver/Src\stm32l4xx_hal_spi.c ****   HAL_SPI_ErrorCallback(hspi);
 5837              		.loc 1 2894 0
 5838 001c F868     		ldr	r0, [r7, #12]
 5839 001e FFF7FEFF 		bl	HAL_SPI_ErrorCallback
2895:E:/LiteOS/LiteOS_Lab/drivers/third_party/ST/STM32L4xx_HAL_Driver/Src\stm32l4xx_hal_spi.c **** }
 5840              		.loc 1 2895 0
 5841 0022 00BF     		nop
 5842 0024 1037     		adds	r7, r7, #16
 5843              	.LCFI199:
 5844              		.cfi_def_cfa_offset 8
 5845 0026 BD46     		mov	sp, r7
 5846              	.LCFI200:
 5847              		.cfi_def_cfa_register 13
 5848              		@ sp needed
 5849 0028 80BD     		pop	{r7, pc}
 5850              		.cfi_endproc
 5851              	.LFE169:
 5853              		.section	.text.SPI_DMATxAbortCallback,"ax",%progbits
 5854              		.align	1
 5855              		.syntax unified
 5856              		.thumb
 5857              		.thumb_func
 5858              		.fpu fpv4-sp-d16
 5860              	SPI_DMATxAbortCallback:
 5861              	.LFB170:
2896:E:/LiteOS/LiteOS_Lab/drivers/third_party/ST/STM32L4xx_HAL_Driver/Src\stm32l4xx_hal_spi.c **** 
2897:E:/LiteOS/LiteOS_Lab/drivers/third_party/ST/STM32L4xx_HAL_Driver/Src\stm32l4xx_hal_spi.c **** /**
2898:E:/LiteOS/LiteOS_Lab/drivers/third_party/ST/STM32L4xx_HAL_Driver/Src\stm32l4xx_hal_spi.c ****   * @brief  DMA SPI Tx communication abort callback, when initiated by user
2899:E:/LiteOS/LiteOS_Lab/drivers/third_party/ST/STM32L4xx_HAL_Driver/Src\stm32l4xx_hal_spi.c ****   *         (To be called at end of DMA Tx Abort procedure following user abort request).
2900:E:/LiteOS/LiteOS_Lab/drivers/third_party/ST/STM32L4xx_HAL_Driver/Src\stm32l4xx_hal_spi.c ****   * @note   When this callback is executed, User Abort complete call back is called only if no
2901:E:/LiteOS/LiteOS_Lab/drivers/third_party/ST/STM32L4xx_HAL_Driver/Src\stm32l4xx_hal_spi.c ****   *         Abort still ongoing for Rx DMA Handle.
2902:E:/LiteOS/LiteOS_Lab/drivers/third_party/ST/STM32L4xx_HAL_Driver/Src\stm32l4xx_hal_spi.c ****   * @param  hdma DMA handle.
2903:E:/LiteOS/LiteOS_Lab/drivers/third_party/ST/STM32L4xx_HAL_Driver/Src\stm32l4xx_hal_spi.c ****   * @retval None
2904:E:/LiteOS/LiteOS_Lab/drivers/third_party/ST/STM32L4xx_HAL_Driver/Src\stm32l4xx_hal_spi.c ****   */
2905:E:/LiteOS/LiteOS_Lab/drivers/third_party/ST/STM32L4xx_HAL_Driver/Src\stm32l4xx_hal_spi.c **** static void SPI_DMATxAbortCallback(DMA_HandleTypeDef *hdma)
2906:E:/LiteOS/LiteOS_Lab/drivers/third_party/ST/STM32L4xx_HAL_Driver/Src\stm32l4xx_hal_spi.c **** {
 5862              		.loc 1 2906 0
 5863              		.cfi_startproc
 5864              		@ args = 0, pretend = 0, frame = 24
 5865              		@ frame_needed = 1, uses_anonymous_args = 0
 5866 0000 80B5     		push	{r7, lr}
 5867              	.LCFI201:
 5868              		.cfi_def_cfa_offset 8
 5869              		.cfi_offset 7, -8
 5870              		.cfi_offset 14, -4
 5871 0002 88B0     		sub	sp, sp, #32
 5872              	.LCFI202:
 5873              		.cfi_def_cfa_offset 40
 5874 0004 02AF     		add	r7, sp, #8
 5875              	.LCFI203:
 5876              		.cfi_def_cfa 7, 32
 5877 0006 7860     		str	r0, [r7, #4]
2907:E:/LiteOS/LiteOS_Lab/drivers/third_party/ST/STM32L4xx_HAL_Driver/Src\stm32l4xx_hal_spi.c ****   SPI_HandleTypeDef *hspi = (SPI_HandleTypeDef *)((DMA_HandleTypeDef *)hdma)->Parent;
 5878              		.loc 1 2907 0
 5879 0008 7B68     		ldr	r3, [r7, #4]
ARM GAS  C:\Users\user\AppData\Local\Temp\ccvQ1M9B.s 			page 154


 5880 000a 9B6A     		ldr	r3, [r3, #40]
 5881 000c 7B61     		str	r3, [r7, #20]
2908:E:/LiteOS/LiteOS_Lab/drivers/third_party/ST/STM32L4xx_HAL_Driver/Src\stm32l4xx_hal_spi.c **** 
2909:E:/LiteOS/LiteOS_Lab/drivers/third_party/ST/STM32L4xx_HAL_Driver/Src\stm32l4xx_hal_spi.c ****   hspi->hdmatx->XferAbortCallback = NULL;
 5882              		.loc 1 2909 0
 5883 000e 7B69     		ldr	r3, [r7, #20]
 5884 0010 5B6D     		ldr	r3, [r3, #84]
 5885 0012 0022     		movs	r2, #0
 5886 0014 9A63     		str	r2, [r3, #56]
2910:E:/LiteOS/LiteOS_Lab/drivers/third_party/ST/STM32L4xx_HAL_Driver/Src\stm32l4xx_hal_spi.c **** 
2911:E:/LiteOS/LiteOS_Lab/drivers/third_party/ST/STM32L4xx_HAL_Driver/Src\stm32l4xx_hal_spi.c ****   /* Disable Tx DMA Request */
2912:E:/LiteOS/LiteOS_Lab/drivers/third_party/ST/STM32L4xx_HAL_Driver/Src\stm32l4xx_hal_spi.c ****   CLEAR_BIT(hspi->Instance->CR2, SPI_CR2_TXDMAEN);
 5887              		.loc 1 2912 0
 5888 0016 7B69     		ldr	r3, [r7, #20]
 5889 0018 1B68     		ldr	r3, [r3]
 5890 001a 5A68     		ldr	r2, [r3, #4]
 5891 001c 7B69     		ldr	r3, [r7, #20]
 5892 001e 1B68     		ldr	r3, [r3]
 5893 0020 22F00202 		bic	r2, r2, #2
 5894 0024 5A60     		str	r2, [r3, #4]
2913:E:/LiteOS/LiteOS_Lab/drivers/third_party/ST/STM32L4xx_HAL_Driver/Src\stm32l4xx_hal_spi.c **** 
2914:E:/LiteOS/LiteOS_Lab/drivers/third_party/ST/STM32L4xx_HAL_Driver/Src\stm32l4xx_hal_spi.c ****   if (SPI_EndRxTxTransaction(hspi, SPI_DEFAULT_TIMEOUT, HAL_GetTick()) != HAL_OK)
 5895              		.loc 1 2914 0
 5896 0026 FFF7FEFF 		bl	HAL_GetTick
 5897 002a 0346     		mov	r3, r0
 5898 002c 1A46     		mov	r2, r3
 5899 002e 6421     		movs	r1, #100
 5900 0030 7869     		ldr	r0, [r7, #20]
 5901 0032 FFF7FEFF 		bl	SPI_EndRxTxTransaction
 5902 0036 0346     		mov	r3, r0
 5903 0038 002B     		cmp	r3, #0
 5904 003a 02D0     		beq	.L299
2915:E:/LiteOS/LiteOS_Lab/drivers/third_party/ST/STM32L4xx_HAL_Driver/Src\stm32l4xx_hal_spi.c ****   {
2916:E:/LiteOS/LiteOS_Lab/drivers/third_party/ST/STM32L4xx_HAL_Driver/Src\stm32l4xx_hal_spi.c ****     hspi->ErrorCode = HAL_SPI_ERROR_ABORT;
 5905              		.loc 1 2916 0
 5906 003c 7B69     		ldr	r3, [r7, #20]
 5907 003e 4022     		movs	r2, #64
 5908 0040 1A66     		str	r2, [r3, #96]
 5909              	.L299:
2917:E:/LiteOS/LiteOS_Lab/drivers/third_party/ST/STM32L4xx_HAL_Driver/Src\stm32l4xx_hal_spi.c ****   }
2918:E:/LiteOS/LiteOS_Lab/drivers/third_party/ST/STM32L4xx_HAL_Driver/Src\stm32l4xx_hal_spi.c **** 
2919:E:/LiteOS/LiteOS_Lab/drivers/third_party/ST/STM32L4xx_HAL_Driver/Src\stm32l4xx_hal_spi.c ****   /* Disable SPI Peripheral */
2920:E:/LiteOS/LiteOS_Lab/drivers/third_party/ST/STM32L4xx_HAL_Driver/Src\stm32l4xx_hal_spi.c ****   __HAL_SPI_DISABLE(hspi);
 5910              		.loc 1 2920 0
 5911 0042 7B69     		ldr	r3, [r7, #20]
 5912 0044 1B68     		ldr	r3, [r3]
 5913 0046 1A68     		ldr	r2, [r3]
 5914 0048 7B69     		ldr	r3, [r7, #20]
 5915 004a 1B68     		ldr	r3, [r3]
 5916 004c 22F04002 		bic	r2, r2, #64
 5917 0050 1A60     		str	r2, [r3]
2921:E:/LiteOS/LiteOS_Lab/drivers/third_party/ST/STM32L4xx_HAL_Driver/Src\stm32l4xx_hal_spi.c **** 
2922:E:/LiteOS/LiteOS_Lab/drivers/third_party/ST/STM32L4xx_HAL_Driver/Src\stm32l4xx_hal_spi.c ****   /* Empty the FRLVL fifo */
2923:E:/LiteOS/LiteOS_Lab/drivers/third_party/ST/STM32L4xx_HAL_Driver/Src\stm32l4xx_hal_spi.c ****   if (SPI_WaitFifoStateUntilTimeout(hspi, SPI_FLAG_FRLVL, SPI_FRLVL_EMPTY, SPI_DEFAULT_TIMEOUT, HAL
 5918              		.loc 1 2923 0
 5919 0052 FFF7FEFF 		bl	HAL_GetTick
 5920 0056 0346     		mov	r3, r0
ARM GAS  C:\Users\user\AppData\Local\Temp\ccvQ1M9B.s 			page 155


 5921 0058 0093     		str	r3, [sp]
 5922 005a 6423     		movs	r3, #100
 5923 005c 0022     		movs	r2, #0
 5924 005e 4FF4C061 		mov	r1, #1536
 5925 0062 7869     		ldr	r0, [r7, #20]
 5926 0064 FFF7FEFF 		bl	SPI_WaitFifoStateUntilTimeout
 5927 0068 0346     		mov	r3, r0
 5928 006a 002B     		cmp	r3, #0
 5929 006c 02D0     		beq	.L300
2924:E:/LiteOS/LiteOS_Lab/drivers/third_party/ST/STM32L4xx_HAL_Driver/Src\stm32l4xx_hal_spi.c ****   {
2925:E:/LiteOS/LiteOS_Lab/drivers/third_party/ST/STM32L4xx_HAL_Driver/Src\stm32l4xx_hal_spi.c ****     hspi->ErrorCode = HAL_SPI_ERROR_ABORT;
 5930              		.loc 1 2925 0
 5931 006e 7B69     		ldr	r3, [r7, #20]
 5932 0070 4022     		movs	r2, #64
 5933 0072 1A66     		str	r2, [r3, #96]
 5934              	.L300:
2926:E:/LiteOS/LiteOS_Lab/drivers/third_party/ST/STM32L4xx_HAL_Driver/Src\stm32l4xx_hal_spi.c ****   }
2927:E:/LiteOS/LiteOS_Lab/drivers/third_party/ST/STM32L4xx_HAL_Driver/Src\stm32l4xx_hal_spi.c **** 
2928:E:/LiteOS/LiteOS_Lab/drivers/third_party/ST/STM32L4xx_HAL_Driver/Src\stm32l4xx_hal_spi.c ****   /* Check if an Abort process is still ongoing */
2929:E:/LiteOS/LiteOS_Lab/drivers/third_party/ST/STM32L4xx_HAL_Driver/Src\stm32l4xx_hal_spi.c ****   if (hspi->hdmarx != NULL)
 5935              		.loc 1 2929 0
 5936 0074 7B69     		ldr	r3, [r7, #20]
 5937 0076 9B6D     		ldr	r3, [r3, #88]
 5938 0078 002B     		cmp	r3, #0
 5939 007a 04D0     		beq	.L301
2930:E:/LiteOS/LiteOS_Lab/drivers/third_party/ST/STM32L4xx_HAL_Driver/Src\stm32l4xx_hal_spi.c ****   {
2931:E:/LiteOS/LiteOS_Lab/drivers/third_party/ST/STM32L4xx_HAL_Driver/Src\stm32l4xx_hal_spi.c ****     if (hspi->hdmarx->XferAbortCallback != NULL)
 5940              		.loc 1 2931 0
 5941 007c 7B69     		ldr	r3, [r7, #20]
 5942 007e 9B6D     		ldr	r3, [r3, #88]
 5943 0080 9B6B     		ldr	r3, [r3, #56]
 5944 0082 002B     		cmp	r3, #0
 5945 0084 27D1     		bne	.L304
 5946              	.L301:
2932:E:/LiteOS/LiteOS_Lab/drivers/third_party/ST/STM32L4xx_HAL_Driver/Src\stm32l4xx_hal_spi.c ****     {
2933:E:/LiteOS/LiteOS_Lab/drivers/third_party/ST/STM32L4xx_HAL_Driver/Src\stm32l4xx_hal_spi.c ****       return;
2934:E:/LiteOS/LiteOS_Lab/drivers/third_party/ST/STM32L4xx_HAL_Driver/Src\stm32l4xx_hal_spi.c ****     }
2935:E:/LiteOS/LiteOS_Lab/drivers/third_party/ST/STM32L4xx_HAL_Driver/Src\stm32l4xx_hal_spi.c ****   }
2936:E:/LiteOS/LiteOS_Lab/drivers/third_party/ST/STM32L4xx_HAL_Driver/Src\stm32l4xx_hal_spi.c **** 
2937:E:/LiteOS/LiteOS_Lab/drivers/third_party/ST/STM32L4xx_HAL_Driver/Src\stm32l4xx_hal_spi.c ****   /* No Abort process still ongoing : All DMA Stream/Channel are aborted, call user Abort Complete 
2938:E:/LiteOS/LiteOS_Lab/drivers/third_party/ST/STM32L4xx_HAL_Driver/Src\stm32l4xx_hal_spi.c ****   hspi->RxXferCount = 0U;
 5947              		.loc 1 2938 0
 5948 0086 7B69     		ldr	r3, [r7, #20]
 5949 0088 0022     		movs	r2, #0
 5950 008a A3F84620 		strh	r2, [r3, #70]	@ movhi
2939:E:/LiteOS/LiteOS_Lab/drivers/third_party/ST/STM32L4xx_HAL_Driver/Src\stm32l4xx_hal_spi.c ****   hspi->TxXferCount = 0U;
 5951              		.loc 1 2939 0
 5952 008e 7B69     		ldr	r3, [r7, #20]
 5953 0090 0022     		movs	r2, #0
 5954 0092 DA87     		strh	r2, [r3, #62]	@ movhi
2940:E:/LiteOS/LiteOS_Lab/drivers/third_party/ST/STM32L4xx_HAL_Driver/Src\stm32l4xx_hal_spi.c **** 
2941:E:/LiteOS/LiteOS_Lab/drivers/third_party/ST/STM32L4xx_HAL_Driver/Src\stm32l4xx_hal_spi.c ****   /* Check no error during Abort procedure */
2942:E:/LiteOS/LiteOS_Lab/drivers/third_party/ST/STM32L4xx_HAL_Driver/Src\stm32l4xx_hal_spi.c ****   if (hspi->ErrorCode != HAL_SPI_ERROR_ABORT)
 5955              		.loc 1 2942 0
 5956 0094 7B69     		ldr	r3, [r7, #20]
 5957 0096 1B6E     		ldr	r3, [r3, #96]
 5958 0098 402B     		cmp	r3, #64
ARM GAS  C:\Users\user\AppData\Local\Temp\ccvQ1M9B.s 			page 156


 5959 009a 02D0     		beq	.L303
2943:E:/LiteOS/LiteOS_Lab/drivers/third_party/ST/STM32L4xx_HAL_Driver/Src\stm32l4xx_hal_spi.c ****   {
2944:E:/LiteOS/LiteOS_Lab/drivers/third_party/ST/STM32L4xx_HAL_Driver/Src\stm32l4xx_hal_spi.c ****     /* Reset errorCode */
2945:E:/LiteOS/LiteOS_Lab/drivers/third_party/ST/STM32L4xx_HAL_Driver/Src\stm32l4xx_hal_spi.c ****     hspi->ErrorCode = HAL_SPI_ERROR_NONE;
 5960              		.loc 1 2945 0
 5961 009c 7B69     		ldr	r3, [r7, #20]
 5962 009e 0022     		movs	r2, #0
 5963 00a0 1A66     		str	r2, [r3, #96]
 5964              	.L303:
 5965              	.LBB12:
2946:E:/LiteOS/LiteOS_Lab/drivers/third_party/ST/STM32L4xx_HAL_Driver/Src\stm32l4xx_hal_spi.c ****   }
2947:E:/LiteOS/LiteOS_Lab/drivers/third_party/ST/STM32L4xx_HAL_Driver/Src\stm32l4xx_hal_spi.c **** 
2948:E:/LiteOS/LiteOS_Lab/drivers/third_party/ST/STM32L4xx_HAL_Driver/Src\stm32l4xx_hal_spi.c ****   /* Clear the Error flags in the SR register */
2949:E:/LiteOS/LiteOS_Lab/drivers/third_party/ST/STM32L4xx_HAL_Driver/Src\stm32l4xx_hal_spi.c ****   __HAL_SPI_CLEAR_OVRFLAG(hspi);
 5966              		.loc 1 2949 0
 5967 00a2 0023     		movs	r3, #0
 5968 00a4 3B61     		str	r3, [r7, #16]
 5969 00a6 7B69     		ldr	r3, [r7, #20]
 5970 00a8 1B68     		ldr	r3, [r3]
 5971 00aa DB68     		ldr	r3, [r3, #12]
 5972 00ac 3B61     		str	r3, [r7, #16]
 5973 00ae 7B69     		ldr	r3, [r7, #20]
 5974 00b0 1B68     		ldr	r3, [r3]
 5975 00b2 9B68     		ldr	r3, [r3, #8]
 5976 00b4 3B61     		str	r3, [r7, #16]
 5977 00b6 3B69     		ldr	r3, [r7, #16]
 5978              	.LBE12:
 5979              	.LBB13:
2950:E:/LiteOS/LiteOS_Lab/drivers/third_party/ST/STM32L4xx_HAL_Driver/Src\stm32l4xx_hal_spi.c ****   __HAL_SPI_CLEAR_FREFLAG(hspi);
 5980              		.loc 1 2950 0
 5981 00b8 0023     		movs	r3, #0
 5982 00ba FB60     		str	r3, [r7, #12]
 5983 00bc 7B69     		ldr	r3, [r7, #20]
 5984 00be 1B68     		ldr	r3, [r3]
 5985 00c0 9B68     		ldr	r3, [r3, #8]
 5986 00c2 FB60     		str	r3, [r7, #12]
 5987 00c4 FB68     		ldr	r3, [r7, #12]
 5988              	.LBE13:
2951:E:/LiteOS/LiteOS_Lab/drivers/third_party/ST/STM32L4xx_HAL_Driver/Src\stm32l4xx_hal_spi.c **** 
2952:E:/LiteOS/LiteOS_Lab/drivers/third_party/ST/STM32L4xx_HAL_Driver/Src\stm32l4xx_hal_spi.c ****   /* Restore hspi->State to Ready */
2953:E:/LiteOS/LiteOS_Lab/drivers/third_party/ST/STM32L4xx_HAL_Driver/Src\stm32l4xx_hal_spi.c ****   hspi->State  = HAL_SPI_STATE_READY;
 5989              		.loc 1 2953 0
 5990 00c6 7B69     		ldr	r3, [r7, #20]
 5991 00c8 0122     		movs	r2, #1
 5992 00ca 83F85D20 		strb	r2, [r3, #93]
2954:E:/LiteOS/LiteOS_Lab/drivers/third_party/ST/STM32L4xx_HAL_Driver/Src\stm32l4xx_hal_spi.c **** 
2955:E:/LiteOS/LiteOS_Lab/drivers/third_party/ST/STM32L4xx_HAL_Driver/Src\stm32l4xx_hal_spi.c ****   /* Call user Abort complete callback */
2956:E:/LiteOS/LiteOS_Lab/drivers/third_party/ST/STM32L4xx_HAL_Driver/Src\stm32l4xx_hal_spi.c ****   HAL_SPI_AbortCpltCallback(hspi);
 5993              		.loc 1 2956 0
 5994 00ce 7869     		ldr	r0, [r7, #20]
 5995 00d0 FFF7FEFF 		bl	HAL_SPI_AbortCpltCallback
 5996 00d4 00E0     		b	.L298
 5997              	.L304:
2933:E:/LiteOS/LiteOS_Lab/drivers/third_party/ST/STM32L4xx_HAL_Driver/Src\stm32l4xx_hal_spi.c ****     }
 5998              		.loc 1 2933 0
 5999 00d6 00BF     		nop
 6000              	.L298:
ARM GAS  C:\Users\user\AppData\Local\Temp\ccvQ1M9B.s 			page 157


2957:E:/LiteOS/LiteOS_Lab/drivers/third_party/ST/STM32L4xx_HAL_Driver/Src\stm32l4xx_hal_spi.c **** }
 6001              		.loc 1 2957 0
 6002 00d8 1837     		adds	r7, r7, #24
 6003              	.LCFI204:
 6004              		.cfi_def_cfa_offset 8
 6005 00da BD46     		mov	sp, r7
 6006              	.LCFI205:
 6007              		.cfi_def_cfa_register 13
 6008              		@ sp needed
 6009 00dc 80BD     		pop	{r7, pc}
 6010              		.cfi_endproc
 6011              	.LFE170:
 6013              		.section	.text.SPI_DMARxAbortCallback,"ax",%progbits
 6014              		.align	1
 6015              		.syntax unified
 6016              		.thumb
 6017              		.thumb_func
 6018              		.fpu fpv4-sp-d16
 6020              	SPI_DMARxAbortCallback:
 6021              	.LFB171:
2958:E:/LiteOS/LiteOS_Lab/drivers/third_party/ST/STM32L4xx_HAL_Driver/Src\stm32l4xx_hal_spi.c **** 
2959:E:/LiteOS/LiteOS_Lab/drivers/third_party/ST/STM32L4xx_HAL_Driver/Src\stm32l4xx_hal_spi.c **** /**
2960:E:/LiteOS/LiteOS_Lab/drivers/third_party/ST/STM32L4xx_HAL_Driver/Src\stm32l4xx_hal_spi.c ****   * @brief  DMA SPI Rx communication abort callback, when initiated by user
2961:E:/LiteOS/LiteOS_Lab/drivers/third_party/ST/STM32L4xx_HAL_Driver/Src\stm32l4xx_hal_spi.c ****   *         (To be called at end of DMA Rx Abort procedure following user abort request).
2962:E:/LiteOS/LiteOS_Lab/drivers/third_party/ST/STM32L4xx_HAL_Driver/Src\stm32l4xx_hal_spi.c ****   * @note   When this callback is executed, User Abort complete call back is called only if no
2963:E:/LiteOS/LiteOS_Lab/drivers/third_party/ST/STM32L4xx_HAL_Driver/Src\stm32l4xx_hal_spi.c ****   *         Abort still ongoing for Tx DMA Handle.
2964:E:/LiteOS/LiteOS_Lab/drivers/third_party/ST/STM32L4xx_HAL_Driver/Src\stm32l4xx_hal_spi.c ****   * @param  hdma DMA handle.
2965:E:/LiteOS/LiteOS_Lab/drivers/third_party/ST/STM32L4xx_HAL_Driver/Src\stm32l4xx_hal_spi.c ****   * @retval None
2966:E:/LiteOS/LiteOS_Lab/drivers/third_party/ST/STM32L4xx_HAL_Driver/Src\stm32l4xx_hal_spi.c ****   */
2967:E:/LiteOS/LiteOS_Lab/drivers/third_party/ST/STM32L4xx_HAL_Driver/Src\stm32l4xx_hal_spi.c **** static void SPI_DMARxAbortCallback(DMA_HandleTypeDef *hdma)
2968:E:/LiteOS/LiteOS_Lab/drivers/third_party/ST/STM32L4xx_HAL_Driver/Src\stm32l4xx_hal_spi.c **** {
 6022              		.loc 1 2968 0
 6023              		.cfi_startproc
 6024              		@ args = 0, pretend = 0, frame = 24
 6025              		@ frame_needed = 1, uses_anonymous_args = 0
 6026 0000 80B5     		push	{r7, lr}
 6027              	.LCFI206:
 6028              		.cfi_def_cfa_offset 8
 6029              		.cfi_offset 7, -8
 6030              		.cfi_offset 14, -4
 6031 0002 88B0     		sub	sp, sp, #32
 6032              	.LCFI207:
 6033              		.cfi_def_cfa_offset 40
 6034 0004 02AF     		add	r7, sp, #8
 6035              	.LCFI208:
 6036              		.cfi_def_cfa 7, 32
 6037 0006 7860     		str	r0, [r7, #4]
2969:E:/LiteOS/LiteOS_Lab/drivers/third_party/ST/STM32L4xx_HAL_Driver/Src\stm32l4xx_hal_spi.c ****   SPI_HandleTypeDef *hspi = (SPI_HandleTypeDef *)((DMA_HandleTypeDef *)hdma)->Parent;
 6038              		.loc 1 2969 0
 6039 0008 7B68     		ldr	r3, [r7, #4]
 6040 000a 9B6A     		ldr	r3, [r3, #40]
 6041 000c 7B61     		str	r3, [r7, #20]
2970:E:/LiteOS/LiteOS_Lab/drivers/third_party/ST/STM32L4xx_HAL_Driver/Src\stm32l4xx_hal_spi.c **** 
2971:E:/LiteOS/LiteOS_Lab/drivers/third_party/ST/STM32L4xx_HAL_Driver/Src\stm32l4xx_hal_spi.c ****   /* Disable SPI Peripheral */
2972:E:/LiteOS/LiteOS_Lab/drivers/third_party/ST/STM32L4xx_HAL_Driver/Src\stm32l4xx_hal_spi.c ****   __HAL_SPI_DISABLE(hspi);
 6042              		.loc 1 2972 0
 6043 000e 7B69     		ldr	r3, [r7, #20]
ARM GAS  C:\Users\user\AppData\Local\Temp\ccvQ1M9B.s 			page 158


 6044 0010 1B68     		ldr	r3, [r3]
 6045 0012 1A68     		ldr	r2, [r3]
 6046 0014 7B69     		ldr	r3, [r7, #20]
 6047 0016 1B68     		ldr	r3, [r3]
 6048 0018 22F04002 		bic	r2, r2, #64
 6049 001c 1A60     		str	r2, [r3]
2973:E:/LiteOS/LiteOS_Lab/drivers/third_party/ST/STM32L4xx_HAL_Driver/Src\stm32l4xx_hal_spi.c **** 
2974:E:/LiteOS/LiteOS_Lab/drivers/third_party/ST/STM32L4xx_HAL_Driver/Src\stm32l4xx_hal_spi.c ****   hspi->hdmarx->XferAbortCallback = NULL;
 6050              		.loc 1 2974 0
 6051 001e 7B69     		ldr	r3, [r7, #20]
 6052 0020 9B6D     		ldr	r3, [r3, #88]
 6053 0022 0022     		movs	r2, #0
 6054 0024 9A63     		str	r2, [r3, #56]
2975:E:/LiteOS/LiteOS_Lab/drivers/third_party/ST/STM32L4xx_HAL_Driver/Src\stm32l4xx_hal_spi.c **** 
2976:E:/LiteOS/LiteOS_Lab/drivers/third_party/ST/STM32L4xx_HAL_Driver/Src\stm32l4xx_hal_spi.c ****   /* Disable Rx DMA Request */
2977:E:/LiteOS/LiteOS_Lab/drivers/third_party/ST/STM32L4xx_HAL_Driver/Src\stm32l4xx_hal_spi.c ****   CLEAR_BIT(hspi->Instance->CR2, SPI_CR2_RXDMAEN);
 6055              		.loc 1 2977 0
 6056 0026 7B69     		ldr	r3, [r7, #20]
 6057 0028 1B68     		ldr	r3, [r3]
 6058 002a 5A68     		ldr	r2, [r3, #4]
 6059 002c 7B69     		ldr	r3, [r7, #20]
 6060 002e 1B68     		ldr	r3, [r3]
 6061 0030 22F00102 		bic	r2, r2, #1
 6062 0034 5A60     		str	r2, [r3, #4]
2978:E:/LiteOS/LiteOS_Lab/drivers/third_party/ST/STM32L4xx_HAL_Driver/Src\stm32l4xx_hal_spi.c **** 
2979:E:/LiteOS/LiteOS_Lab/drivers/third_party/ST/STM32L4xx_HAL_Driver/Src\stm32l4xx_hal_spi.c ****   /* Control the BSY flag */
2980:E:/LiteOS/LiteOS_Lab/drivers/third_party/ST/STM32L4xx_HAL_Driver/Src\stm32l4xx_hal_spi.c ****   if (SPI_WaitFlagStateUntilTimeout(hspi, SPI_FLAG_BSY, RESET, SPI_DEFAULT_TIMEOUT, HAL_GetTick()) 
 6063              		.loc 1 2980 0
 6064 0036 FFF7FEFF 		bl	HAL_GetTick
 6065 003a 0346     		mov	r3, r0
 6066 003c 0093     		str	r3, [sp]
 6067 003e 6423     		movs	r3, #100
 6068 0040 0022     		movs	r2, #0
 6069 0042 8021     		movs	r1, #128
 6070 0044 7869     		ldr	r0, [r7, #20]
 6071 0046 FFF7FEFF 		bl	SPI_WaitFlagStateUntilTimeout
 6072 004a 0346     		mov	r3, r0
 6073 004c 002B     		cmp	r3, #0
 6074 004e 02D0     		beq	.L306
2981:E:/LiteOS/LiteOS_Lab/drivers/third_party/ST/STM32L4xx_HAL_Driver/Src\stm32l4xx_hal_spi.c ****   {
2982:E:/LiteOS/LiteOS_Lab/drivers/third_party/ST/STM32L4xx_HAL_Driver/Src\stm32l4xx_hal_spi.c ****     hspi->ErrorCode = HAL_SPI_ERROR_ABORT;
 6075              		.loc 1 2982 0
 6076 0050 7B69     		ldr	r3, [r7, #20]
 6077 0052 4022     		movs	r2, #64
 6078 0054 1A66     		str	r2, [r3, #96]
 6079              	.L306:
2983:E:/LiteOS/LiteOS_Lab/drivers/third_party/ST/STM32L4xx_HAL_Driver/Src\stm32l4xx_hal_spi.c ****   }
2984:E:/LiteOS/LiteOS_Lab/drivers/third_party/ST/STM32L4xx_HAL_Driver/Src\stm32l4xx_hal_spi.c **** 
2985:E:/LiteOS/LiteOS_Lab/drivers/third_party/ST/STM32L4xx_HAL_Driver/Src\stm32l4xx_hal_spi.c ****   /* Empty the FRLVL fifo */
2986:E:/LiteOS/LiteOS_Lab/drivers/third_party/ST/STM32L4xx_HAL_Driver/Src\stm32l4xx_hal_spi.c ****   if (SPI_WaitFifoStateUntilTimeout(hspi, SPI_FLAG_FRLVL, SPI_FRLVL_EMPTY, SPI_DEFAULT_TIMEOUT, HAL
 6080              		.loc 1 2986 0
 6081 0056 FFF7FEFF 		bl	HAL_GetTick
 6082 005a 0346     		mov	r3, r0
 6083 005c 0093     		str	r3, [sp]
 6084 005e 6423     		movs	r3, #100
 6085 0060 0022     		movs	r2, #0
 6086 0062 4FF4C061 		mov	r1, #1536
ARM GAS  C:\Users\user\AppData\Local\Temp\ccvQ1M9B.s 			page 159


 6087 0066 7869     		ldr	r0, [r7, #20]
 6088 0068 FFF7FEFF 		bl	SPI_WaitFifoStateUntilTimeout
 6089 006c 0346     		mov	r3, r0
 6090 006e 002B     		cmp	r3, #0
 6091 0070 02D0     		beq	.L307
2987:E:/LiteOS/LiteOS_Lab/drivers/third_party/ST/STM32L4xx_HAL_Driver/Src\stm32l4xx_hal_spi.c ****   {
2988:E:/LiteOS/LiteOS_Lab/drivers/third_party/ST/STM32L4xx_HAL_Driver/Src\stm32l4xx_hal_spi.c ****     hspi->ErrorCode = HAL_SPI_ERROR_ABORT;
 6092              		.loc 1 2988 0
 6093 0072 7B69     		ldr	r3, [r7, #20]
 6094 0074 4022     		movs	r2, #64
 6095 0076 1A66     		str	r2, [r3, #96]
 6096              	.L307:
2989:E:/LiteOS/LiteOS_Lab/drivers/third_party/ST/STM32L4xx_HAL_Driver/Src\stm32l4xx_hal_spi.c ****   }
2990:E:/LiteOS/LiteOS_Lab/drivers/third_party/ST/STM32L4xx_HAL_Driver/Src\stm32l4xx_hal_spi.c **** 
2991:E:/LiteOS/LiteOS_Lab/drivers/third_party/ST/STM32L4xx_HAL_Driver/Src\stm32l4xx_hal_spi.c ****   /* Check if an Abort process is still ongoing */
2992:E:/LiteOS/LiteOS_Lab/drivers/third_party/ST/STM32L4xx_HAL_Driver/Src\stm32l4xx_hal_spi.c ****   if (hspi->hdmatx != NULL)
 6097              		.loc 1 2992 0
 6098 0078 7B69     		ldr	r3, [r7, #20]
 6099 007a 5B6D     		ldr	r3, [r3, #84]
 6100 007c 002B     		cmp	r3, #0
 6101 007e 04D0     		beq	.L308
2993:E:/LiteOS/LiteOS_Lab/drivers/third_party/ST/STM32L4xx_HAL_Driver/Src\stm32l4xx_hal_spi.c ****   {
2994:E:/LiteOS/LiteOS_Lab/drivers/third_party/ST/STM32L4xx_HAL_Driver/Src\stm32l4xx_hal_spi.c ****     if (hspi->hdmatx->XferAbortCallback != NULL)
 6102              		.loc 1 2994 0
 6103 0080 7B69     		ldr	r3, [r7, #20]
 6104 0082 5B6D     		ldr	r3, [r3, #84]
 6105 0084 9B6B     		ldr	r3, [r3, #56]
 6106 0086 002B     		cmp	r3, #0
 6107 0088 27D1     		bne	.L311
 6108              	.L308:
2995:E:/LiteOS/LiteOS_Lab/drivers/third_party/ST/STM32L4xx_HAL_Driver/Src\stm32l4xx_hal_spi.c ****     {
2996:E:/LiteOS/LiteOS_Lab/drivers/third_party/ST/STM32L4xx_HAL_Driver/Src\stm32l4xx_hal_spi.c ****       return;
2997:E:/LiteOS/LiteOS_Lab/drivers/third_party/ST/STM32L4xx_HAL_Driver/Src\stm32l4xx_hal_spi.c ****     }
2998:E:/LiteOS/LiteOS_Lab/drivers/third_party/ST/STM32L4xx_HAL_Driver/Src\stm32l4xx_hal_spi.c ****   }
2999:E:/LiteOS/LiteOS_Lab/drivers/third_party/ST/STM32L4xx_HAL_Driver/Src\stm32l4xx_hal_spi.c **** 
3000:E:/LiteOS/LiteOS_Lab/drivers/third_party/ST/STM32L4xx_HAL_Driver/Src\stm32l4xx_hal_spi.c ****   /* No Abort process still ongoing : All DMA Stream/Channel are aborted, call user Abort Complete 
3001:E:/LiteOS/LiteOS_Lab/drivers/third_party/ST/STM32L4xx_HAL_Driver/Src\stm32l4xx_hal_spi.c ****   hspi->RxXferCount = 0U;
 6109              		.loc 1 3001 0
 6110 008a 7B69     		ldr	r3, [r7, #20]
 6111 008c 0022     		movs	r2, #0
 6112 008e A3F84620 		strh	r2, [r3, #70]	@ movhi
3002:E:/LiteOS/LiteOS_Lab/drivers/third_party/ST/STM32L4xx_HAL_Driver/Src\stm32l4xx_hal_spi.c ****   hspi->TxXferCount = 0U;
 6113              		.loc 1 3002 0
 6114 0092 7B69     		ldr	r3, [r7, #20]
 6115 0094 0022     		movs	r2, #0
 6116 0096 DA87     		strh	r2, [r3, #62]	@ movhi
3003:E:/LiteOS/LiteOS_Lab/drivers/third_party/ST/STM32L4xx_HAL_Driver/Src\stm32l4xx_hal_spi.c **** 
3004:E:/LiteOS/LiteOS_Lab/drivers/third_party/ST/STM32L4xx_HAL_Driver/Src\stm32l4xx_hal_spi.c ****   /* Check no error during Abort procedure */
3005:E:/LiteOS/LiteOS_Lab/drivers/third_party/ST/STM32L4xx_HAL_Driver/Src\stm32l4xx_hal_spi.c ****   if (hspi->ErrorCode != HAL_SPI_ERROR_ABORT)
 6117              		.loc 1 3005 0
 6118 0098 7B69     		ldr	r3, [r7, #20]
 6119 009a 1B6E     		ldr	r3, [r3, #96]
 6120 009c 402B     		cmp	r3, #64
 6121 009e 02D0     		beq	.L310
3006:E:/LiteOS/LiteOS_Lab/drivers/third_party/ST/STM32L4xx_HAL_Driver/Src\stm32l4xx_hal_spi.c ****   {
3007:E:/LiteOS/LiteOS_Lab/drivers/third_party/ST/STM32L4xx_HAL_Driver/Src\stm32l4xx_hal_spi.c ****     /* Reset errorCode */
3008:E:/LiteOS/LiteOS_Lab/drivers/third_party/ST/STM32L4xx_HAL_Driver/Src\stm32l4xx_hal_spi.c ****     hspi->ErrorCode = HAL_SPI_ERROR_NONE;
ARM GAS  C:\Users\user\AppData\Local\Temp\ccvQ1M9B.s 			page 160


 6122              		.loc 1 3008 0
 6123 00a0 7B69     		ldr	r3, [r7, #20]
 6124 00a2 0022     		movs	r2, #0
 6125 00a4 1A66     		str	r2, [r3, #96]
 6126              	.L310:
 6127              	.LBB14:
3009:E:/LiteOS/LiteOS_Lab/drivers/third_party/ST/STM32L4xx_HAL_Driver/Src\stm32l4xx_hal_spi.c ****   }
3010:E:/LiteOS/LiteOS_Lab/drivers/third_party/ST/STM32L4xx_HAL_Driver/Src\stm32l4xx_hal_spi.c **** 
3011:E:/LiteOS/LiteOS_Lab/drivers/third_party/ST/STM32L4xx_HAL_Driver/Src\stm32l4xx_hal_spi.c ****   /* Clear the Error flags in the SR register */
3012:E:/LiteOS/LiteOS_Lab/drivers/third_party/ST/STM32L4xx_HAL_Driver/Src\stm32l4xx_hal_spi.c ****   __HAL_SPI_CLEAR_OVRFLAG(hspi);
 6128              		.loc 1 3012 0
 6129 00a6 0023     		movs	r3, #0
 6130 00a8 3B61     		str	r3, [r7, #16]
 6131 00aa 7B69     		ldr	r3, [r7, #20]
 6132 00ac 1B68     		ldr	r3, [r3]
 6133 00ae DB68     		ldr	r3, [r3, #12]
 6134 00b0 3B61     		str	r3, [r7, #16]
 6135 00b2 7B69     		ldr	r3, [r7, #20]
 6136 00b4 1B68     		ldr	r3, [r3]
 6137 00b6 9B68     		ldr	r3, [r3, #8]
 6138 00b8 3B61     		str	r3, [r7, #16]
 6139 00ba 3B69     		ldr	r3, [r7, #16]
 6140              	.LBE14:
 6141              	.LBB15:
3013:E:/LiteOS/LiteOS_Lab/drivers/third_party/ST/STM32L4xx_HAL_Driver/Src\stm32l4xx_hal_spi.c ****   __HAL_SPI_CLEAR_FREFLAG(hspi);
 6142              		.loc 1 3013 0
 6143 00bc 0023     		movs	r3, #0
 6144 00be FB60     		str	r3, [r7, #12]
 6145 00c0 7B69     		ldr	r3, [r7, #20]
 6146 00c2 1B68     		ldr	r3, [r3]
 6147 00c4 9B68     		ldr	r3, [r3, #8]
 6148 00c6 FB60     		str	r3, [r7, #12]
 6149 00c8 FB68     		ldr	r3, [r7, #12]
 6150              	.LBE15:
3014:E:/LiteOS/LiteOS_Lab/drivers/third_party/ST/STM32L4xx_HAL_Driver/Src\stm32l4xx_hal_spi.c **** 
3015:E:/LiteOS/LiteOS_Lab/drivers/third_party/ST/STM32L4xx_HAL_Driver/Src\stm32l4xx_hal_spi.c ****   /* Restore hspi->State to Ready */
3016:E:/LiteOS/LiteOS_Lab/drivers/third_party/ST/STM32L4xx_HAL_Driver/Src\stm32l4xx_hal_spi.c ****   hspi->State  = HAL_SPI_STATE_READY;
 6151              		.loc 1 3016 0
 6152 00ca 7B69     		ldr	r3, [r7, #20]
 6153 00cc 0122     		movs	r2, #1
 6154 00ce 83F85D20 		strb	r2, [r3, #93]
3017:E:/LiteOS/LiteOS_Lab/drivers/third_party/ST/STM32L4xx_HAL_Driver/Src\stm32l4xx_hal_spi.c **** 
3018:E:/LiteOS/LiteOS_Lab/drivers/third_party/ST/STM32L4xx_HAL_Driver/Src\stm32l4xx_hal_spi.c ****   /* Call user Abort complete callback */
3019:E:/LiteOS/LiteOS_Lab/drivers/third_party/ST/STM32L4xx_HAL_Driver/Src\stm32l4xx_hal_spi.c ****   HAL_SPI_AbortCpltCallback(hspi);
 6155              		.loc 1 3019 0
 6156 00d2 7869     		ldr	r0, [r7, #20]
 6157 00d4 FFF7FEFF 		bl	HAL_SPI_AbortCpltCallback
 6158 00d8 00E0     		b	.L305
 6159              	.L311:
2996:E:/LiteOS/LiteOS_Lab/drivers/third_party/ST/STM32L4xx_HAL_Driver/Src\stm32l4xx_hal_spi.c ****     }
 6160              		.loc 1 2996 0
 6161 00da 00BF     		nop
 6162              	.L305:
3020:E:/LiteOS/LiteOS_Lab/drivers/third_party/ST/STM32L4xx_HAL_Driver/Src\stm32l4xx_hal_spi.c **** }
 6163              		.loc 1 3020 0
 6164 00dc 1837     		adds	r7, r7, #24
 6165              	.LCFI209:
ARM GAS  C:\Users\user\AppData\Local\Temp\ccvQ1M9B.s 			page 161


 6166              		.cfi_def_cfa_offset 8
 6167 00de BD46     		mov	sp, r7
 6168              	.LCFI210:
 6169              		.cfi_def_cfa_register 13
 6170              		@ sp needed
 6171 00e0 80BD     		pop	{r7, pc}
 6172              		.cfi_endproc
 6173              	.LFE171:
 6175              		.section	.text.SPI_2linesRxISR_8BIT,"ax",%progbits
 6176              		.align	1
 6177              		.syntax unified
 6178              		.thumb
 6179              		.thumb_func
 6180              		.fpu fpv4-sp-d16
 6182              	SPI_2linesRxISR_8BIT:
 6183              	.LFB172:
3021:E:/LiteOS/LiteOS_Lab/drivers/third_party/ST/STM32L4xx_HAL_Driver/Src\stm32l4xx_hal_spi.c **** 
3022:E:/LiteOS/LiteOS_Lab/drivers/third_party/ST/STM32L4xx_HAL_Driver/Src\stm32l4xx_hal_spi.c **** /**
3023:E:/LiteOS/LiteOS_Lab/drivers/third_party/ST/STM32L4xx_HAL_Driver/Src\stm32l4xx_hal_spi.c ****   * @brief  Rx 8-bit handler for Transmit and Receive in Interrupt mode.
3024:E:/LiteOS/LiteOS_Lab/drivers/third_party/ST/STM32L4xx_HAL_Driver/Src\stm32l4xx_hal_spi.c ****   * @param  hspi pointer to a SPI_HandleTypeDef structure that contains
3025:E:/LiteOS/LiteOS_Lab/drivers/third_party/ST/STM32L4xx_HAL_Driver/Src\stm32l4xx_hal_spi.c ****   *               the configuration information for SPI module.
3026:E:/LiteOS/LiteOS_Lab/drivers/third_party/ST/STM32L4xx_HAL_Driver/Src\stm32l4xx_hal_spi.c ****   * @retval None
3027:E:/LiteOS/LiteOS_Lab/drivers/third_party/ST/STM32L4xx_HAL_Driver/Src\stm32l4xx_hal_spi.c ****   */
3028:E:/LiteOS/LiteOS_Lab/drivers/third_party/ST/STM32L4xx_HAL_Driver/Src\stm32l4xx_hal_spi.c **** static void SPI_2linesRxISR_8BIT(struct __SPI_HandleTypeDef *hspi)
3029:E:/LiteOS/LiteOS_Lab/drivers/third_party/ST/STM32L4xx_HAL_Driver/Src\stm32l4xx_hal_spi.c **** {
 6184              		.loc 1 3029 0
 6185              		.cfi_startproc
 6186              		@ args = 0, pretend = 0, frame = 8
 6187              		@ frame_needed = 1, uses_anonymous_args = 0
 6188 0000 80B5     		push	{r7, lr}
 6189              	.LCFI211:
 6190              		.cfi_def_cfa_offset 8
 6191              		.cfi_offset 7, -8
 6192              		.cfi_offset 14, -4
 6193 0002 82B0     		sub	sp, sp, #8
 6194              	.LCFI212:
 6195              		.cfi_def_cfa_offset 16
 6196 0004 00AF     		add	r7, sp, #0
 6197              	.LCFI213:
 6198              		.cfi_def_cfa_register 7
 6199 0006 7860     		str	r0, [r7, #4]
3030:E:/LiteOS/LiteOS_Lab/drivers/third_party/ST/STM32L4xx_HAL_Driver/Src\stm32l4xx_hal_spi.c ****   /* Receive data in packing mode */
3031:E:/LiteOS/LiteOS_Lab/drivers/third_party/ST/STM32L4xx_HAL_Driver/Src\stm32l4xx_hal_spi.c ****   if (hspi->RxXferCount > 1U)
 6200              		.loc 1 3031 0
 6201 0008 7B68     		ldr	r3, [r7, #4]
 6202 000a B3F84630 		ldrh	r3, [r3, #70]	@ movhi
 6203 000e 9BB2     		uxth	r3, r3
 6204 0010 012B     		cmp	r3, #1
 6205 0012 23D9     		bls	.L313
3032:E:/LiteOS/LiteOS_Lab/drivers/third_party/ST/STM32L4xx_HAL_Driver/Src\stm32l4xx_hal_spi.c ****   {
3033:E:/LiteOS/LiteOS_Lab/drivers/third_party/ST/STM32L4xx_HAL_Driver/Src\stm32l4xx_hal_spi.c ****     *((uint16_t *)hspi->pRxBuffPtr) = hspi->Instance->DR;
 6206              		.loc 1 3033 0
 6207 0014 7B68     		ldr	r3, [r7, #4]
 6208 0016 1B68     		ldr	r3, [r3]
 6209 0018 DA68     		ldr	r2, [r3, #12]
 6210 001a 7B68     		ldr	r3, [r7, #4]
 6211 001c 1B6C     		ldr	r3, [r3, #64]
ARM GAS  C:\Users\user\AppData\Local\Temp\ccvQ1M9B.s 			page 162


 6212 001e 92B2     		uxth	r2, r2
 6213 0020 1A80     		strh	r2, [r3]	@ movhi
3034:E:/LiteOS/LiteOS_Lab/drivers/third_party/ST/STM32L4xx_HAL_Driver/Src\stm32l4xx_hal_spi.c ****     hspi->pRxBuffPtr += sizeof(uint16_t);
 6214              		.loc 1 3034 0
 6215 0022 7B68     		ldr	r3, [r7, #4]
 6216 0024 1B6C     		ldr	r3, [r3, #64]
 6217 0026 9A1C     		adds	r2, r3, #2
 6218 0028 7B68     		ldr	r3, [r7, #4]
 6219 002a 1A64     		str	r2, [r3, #64]
3035:E:/LiteOS/LiteOS_Lab/drivers/third_party/ST/STM32L4xx_HAL_Driver/Src\stm32l4xx_hal_spi.c ****     hspi->RxXferCount -= 2U;
 6220              		.loc 1 3035 0
 6221 002c 7B68     		ldr	r3, [r7, #4]
 6222 002e B3F84630 		ldrh	r3, [r3, #70]	@ movhi
 6223 0032 9BB2     		uxth	r3, r3
 6224 0034 023B     		subs	r3, r3, #2
 6225 0036 9AB2     		uxth	r2, r3
 6226 0038 7B68     		ldr	r3, [r7, #4]
 6227 003a A3F84620 		strh	r2, [r3, #70]	@ movhi
3036:E:/LiteOS/LiteOS_Lab/drivers/third_party/ST/STM32L4xx_HAL_Driver/Src\stm32l4xx_hal_spi.c ****     if (hspi->RxXferCount == 1U)
 6228              		.loc 1 3036 0
 6229 003e 7B68     		ldr	r3, [r7, #4]
 6230 0040 B3F84630 		ldrh	r3, [r3, #70]	@ movhi
 6231 0044 9BB2     		uxth	r3, r3
 6232 0046 012B     		cmp	r3, #1
 6233 0048 1DD1     		bne	.L315
3037:E:/LiteOS/LiteOS_Lab/drivers/third_party/ST/STM32L4xx_HAL_Driver/Src\stm32l4xx_hal_spi.c ****     {
3038:E:/LiteOS/LiteOS_Lab/drivers/third_party/ST/STM32L4xx_HAL_Driver/Src\stm32l4xx_hal_spi.c ****       /* Set RX Fifo threshold according the reception data length: 8bit */
3039:E:/LiteOS/LiteOS_Lab/drivers/third_party/ST/STM32L4xx_HAL_Driver/Src\stm32l4xx_hal_spi.c ****       SET_BIT(hspi->Instance->CR2, SPI_RXFIFO_THRESHOLD);
 6234              		.loc 1 3039 0
 6235 004a 7B68     		ldr	r3, [r7, #4]
 6236 004c 1B68     		ldr	r3, [r3]
 6237 004e 5A68     		ldr	r2, [r3, #4]
 6238 0050 7B68     		ldr	r3, [r7, #4]
 6239 0052 1B68     		ldr	r3, [r3]
 6240 0054 42F48052 		orr	r2, r2, #4096
 6241 0058 5A60     		str	r2, [r3, #4]
 6242 005a 14E0     		b	.L315
 6243              	.L313:
3040:E:/LiteOS/LiteOS_Lab/drivers/third_party/ST/STM32L4xx_HAL_Driver/Src\stm32l4xx_hal_spi.c ****     }
3041:E:/LiteOS/LiteOS_Lab/drivers/third_party/ST/STM32L4xx_HAL_Driver/Src\stm32l4xx_hal_spi.c ****   }
3042:E:/LiteOS/LiteOS_Lab/drivers/third_party/ST/STM32L4xx_HAL_Driver/Src\stm32l4xx_hal_spi.c ****   /* Receive data in 8 Bit mode */
3043:E:/LiteOS/LiteOS_Lab/drivers/third_party/ST/STM32L4xx_HAL_Driver/Src\stm32l4xx_hal_spi.c ****   else
3044:E:/LiteOS/LiteOS_Lab/drivers/third_party/ST/STM32L4xx_HAL_Driver/Src\stm32l4xx_hal_spi.c ****   {
3045:E:/LiteOS/LiteOS_Lab/drivers/third_party/ST/STM32L4xx_HAL_Driver/Src\stm32l4xx_hal_spi.c ****     *hspi->pRxBuffPtr++ = *((__IO uint8_t *)&hspi->Instance->DR);
 6244              		.loc 1 3045 0
 6245 005c 7B68     		ldr	r3, [r7, #4]
 6246 005e 1B68     		ldr	r3, [r3]
 6247 0060 03F10C02 		add	r2, r3, #12
 6248 0064 7B68     		ldr	r3, [r7, #4]
 6249 0066 1B6C     		ldr	r3, [r3, #64]
 6250 0068 581C     		adds	r0, r3, #1
 6251 006a 7968     		ldr	r1, [r7, #4]
 6252 006c 0864     		str	r0, [r1, #64]
 6253 006e 1278     		ldrb	r2, [r2]
 6254 0070 D2B2     		uxtb	r2, r2
 6255 0072 1A70     		strb	r2, [r3]
3046:E:/LiteOS/LiteOS_Lab/drivers/third_party/ST/STM32L4xx_HAL_Driver/Src\stm32l4xx_hal_spi.c ****     hspi->RxXferCount--;
ARM GAS  C:\Users\user\AppData\Local\Temp\ccvQ1M9B.s 			page 163


 6256              		.loc 1 3046 0
 6257 0074 7B68     		ldr	r3, [r7, #4]
 6258 0076 B3F84630 		ldrh	r3, [r3, #70]	@ movhi
 6259 007a 9BB2     		uxth	r3, r3
 6260 007c 013B     		subs	r3, r3, #1
 6261 007e 9AB2     		uxth	r2, r3
 6262 0080 7B68     		ldr	r3, [r7, #4]
 6263 0082 A3F84620 		strh	r2, [r3, #70]	@ movhi
 6264              	.L315:
3047:E:/LiteOS/LiteOS_Lab/drivers/third_party/ST/STM32L4xx_HAL_Driver/Src\stm32l4xx_hal_spi.c ****   }
3048:E:/LiteOS/LiteOS_Lab/drivers/third_party/ST/STM32L4xx_HAL_Driver/Src\stm32l4xx_hal_spi.c **** 
3049:E:/LiteOS/LiteOS_Lab/drivers/third_party/ST/STM32L4xx_HAL_Driver/Src\stm32l4xx_hal_spi.c ****   /* Check end of the reception */
3050:E:/LiteOS/LiteOS_Lab/drivers/third_party/ST/STM32L4xx_HAL_Driver/Src\stm32l4xx_hal_spi.c ****   if (hspi->RxXferCount == 0U)
 6265              		.loc 1 3050 0
 6266 0086 7B68     		ldr	r3, [r7, #4]
 6267 0088 B3F84630 		ldrh	r3, [r3, #70]	@ movhi
 6268 008c 9BB2     		uxth	r3, r3
 6269 008e 002B     		cmp	r3, #0
 6270 0090 0FD1     		bne	.L317
3051:E:/LiteOS/LiteOS_Lab/drivers/third_party/ST/STM32L4xx_HAL_Driver/Src\stm32l4xx_hal_spi.c ****   {
3052:E:/LiteOS/LiteOS_Lab/drivers/third_party/ST/STM32L4xx_HAL_Driver/Src\stm32l4xx_hal_spi.c **** #if (USE_SPI_CRC != 0U)
3053:E:/LiteOS/LiteOS_Lab/drivers/third_party/ST/STM32L4xx_HAL_Driver/Src\stm32l4xx_hal_spi.c ****     if (hspi->Init.CRCCalculation == SPI_CRCCALCULATION_ENABLE)
3054:E:/LiteOS/LiteOS_Lab/drivers/third_party/ST/STM32L4xx_HAL_Driver/Src\stm32l4xx_hal_spi.c ****     {
3055:E:/LiteOS/LiteOS_Lab/drivers/third_party/ST/STM32L4xx_HAL_Driver/Src\stm32l4xx_hal_spi.c ****       SET_BIT(hspi->Instance->CR2, SPI_RXFIFO_THRESHOLD);
3056:E:/LiteOS/LiteOS_Lab/drivers/third_party/ST/STM32L4xx_HAL_Driver/Src\stm32l4xx_hal_spi.c ****       hspi->RxISR =  SPI_2linesRxISR_8BITCRC;
3057:E:/LiteOS/LiteOS_Lab/drivers/third_party/ST/STM32L4xx_HAL_Driver/Src\stm32l4xx_hal_spi.c ****       return;
3058:E:/LiteOS/LiteOS_Lab/drivers/third_party/ST/STM32L4xx_HAL_Driver/Src\stm32l4xx_hal_spi.c ****     }
3059:E:/LiteOS/LiteOS_Lab/drivers/third_party/ST/STM32L4xx_HAL_Driver/Src\stm32l4xx_hal_spi.c **** #endif /* USE_SPI_CRC */
3060:E:/LiteOS/LiteOS_Lab/drivers/third_party/ST/STM32L4xx_HAL_Driver/Src\stm32l4xx_hal_spi.c **** 
3061:E:/LiteOS/LiteOS_Lab/drivers/third_party/ST/STM32L4xx_HAL_Driver/Src\stm32l4xx_hal_spi.c ****     /* Disable RXNE  and ERR interrupt */
3062:E:/LiteOS/LiteOS_Lab/drivers/third_party/ST/STM32L4xx_HAL_Driver/Src\stm32l4xx_hal_spi.c ****     __HAL_SPI_DISABLE_IT(hspi, (SPI_IT_RXNE | SPI_IT_ERR));
 6271              		.loc 1 3062 0
 6272 0092 7B68     		ldr	r3, [r7, #4]
 6273 0094 1B68     		ldr	r3, [r3]
 6274 0096 5A68     		ldr	r2, [r3, #4]
 6275 0098 7B68     		ldr	r3, [r7, #4]
 6276 009a 1B68     		ldr	r3, [r3]
 6277 009c 22F06002 		bic	r2, r2, #96
 6278 00a0 5A60     		str	r2, [r3, #4]
3063:E:/LiteOS/LiteOS_Lab/drivers/third_party/ST/STM32L4xx_HAL_Driver/Src\stm32l4xx_hal_spi.c **** 
3064:E:/LiteOS/LiteOS_Lab/drivers/third_party/ST/STM32L4xx_HAL_Driver/Src\stm32l4xx_hal_spi.c ****     if (hspi->TxXferCount == 0U)
 6279              		.loc 1 3064 0
 6280 00a2 7B68     		ldr	r3, [r7, #4]
 6281 00a4 DB8F     		ldrh	r3, [r3, #62]	@ movhi
 6282 00a6 9BB2     		uxth	r3, r3
 6283 00a8 002B     		cmp	r3, #0
 6284 00aa 02D1     		bne	.L317
3065:E:/LiteOS/LiteOS_Lab/drivers/third_party/ST/STM32L4xx_HAL_Driver/Src\stm32l4xx_hal_spi.c ****     {
3066:E:/LiteOS/LiteOS_Lab/drivers/third_party/ST/STM32L4xx_HAL_Driver/Src\stm32l4xx_hal_spi.c ****       SPI_CloseRxTx_ISR(hspi);
 6285              		.loc 1 3066 0
 6286 00ac 7868     		ldr	r0, [r7, #4]
 6287 00ae FFF7FEFF 		bl	SPI_CloseRxTx_ISR
 6288              	.L317:
3067:E:/LiteOS/LiteOS_Lab/drivers/third_party/ST/STM32L4xx_HAL_Driver/Src\stm32l4xx_hal_spi.c ****     }
3068:E:/LiteOS/LiteOS_Lab/drivers/third_party/ST/STM32L4xx_HAL_Driver/Src\stm32l4xx_hal_spi.c ****   }
3069:E:/LiteOS/LiteOS_Lab/drivers/third_party/ST/STM32L4xx_HAL_Driver/Src\stm32l4xx_hal_spi.c **** }
 6289              		.loc 1 3069 0
ARM GAS  C:\Users\user\AppData\Local\Temp\ccvQ1M9B.s 			page 164


 6290 00b2 00BF     		nop
 6291 00b4 0837     		adds	r7, r7, #8
 6292              	.LCFI214:
 6293              		.cfi_def_cfa_offset 8
 6294 00b6 BD46     		mov	sp, r7
 6295              	.LCFI215:
 6296              		.cfi_def_cfa_register 13
 6297              		@ sp needed
 6298 00b8 80BD     		pop	{r7, pc}
 6299              		.cfi_endproc
 6300              	.LFE172:
 6302              		.section	.text.SPI_2linesTxISR_8BIT,"ax",%progbits
 6303              		.align	1
 6304              		.syntax unified
 6305              		.thumb
 6306              		.thumb_func
 6307              		.fpu fpv4-sp-d16
 6309              	SPI_2linesTxISR_8BIT:
 6310              	.LFB173:
3070:E:/LiteOS/LiteOS_Lab/drivers/third_party/ST/STM32L4xx_HAL_Driver/Src\stm32l4xx_hal_spi.c **** 
3071:E:/LiteOS/LiteOS_Lab/drivers/third_party/ST/STM32L4xx_HAL_Driver/Src\stm32l4xx_hal_spi.c **** #if (USE_SPI_CRC != 0U)
3072:E:/LiteOS/LiteOS_Lab/drivers/third_party/ST/STM32L4xx_HAL_Driver/Src\stm32l4xx_hal_spi.c **** /**
3073:E:/LiteOS/LiteOS_Lab/drivers/third_party/ST/STM32L4xx_HAL_Driver/Src\stm32l4xx_hal_spi.c ****   * @brief  Rx 8-bit handler for Transmit and Receive in Interrupt mode.
3074:E:/LiteOS/LiteOS_Lab/drivers/third_party/ST/STM32L4xx_HAL_Driver/Src\stm32l4xx_hal_spi.c ****   * @param  hspi pointer to a SPI_HandleTypeDef structure that contains
3075:E:/LiteOS/LiteOS_Lab/drivers/third_party/ST/STM32L4xx_HAL_Driver/Src\stm32l4xx_hal_spi.c ****   *               the configuration information for SPI module.
3076:E:/LiteOS/LiteOS_Lab/drivers/third_party/ST/STM32L4xx_HAL_Driver/Src\stm32l4xx_hal_spi.c ****   * @retval None
3077:E:/LiteOS/LiteOS_Lab/drivers/third_party/ST/STM32L4xx_HAL_Driver/Src\stm32l4xx_hal_spi.c ****   */
3078:E:/LiteOS/LiteOS_Lab/drivers/third_party/ST/STM32L4xx_HAL_Driver/Src\stm32l4xx_hal_spi.c **** static void SPI_2linesRxISR_8BITCRC(struct __SPI_HandleTypeDef *hspi)
3079:E:/LiteOS/LiteOS_Lab/drivers/third_party/ST/STM32L4xx_HAL_Driver/Src\stm32l4xx_hal_spi.c **** {
3080:E:/LiteOS/LiteOS_Lab/drivers/third_party/ST/STM32L4xx_HAL_Driver/Src\stm32l4xx_hal_spi.c ****   __IO uint8_t tmpreg = 0U;
3081:E:/LiteOS/LiteOS_Lab/drivers/third_party/ST/STM32L4xx_HAL_Driver/Src\stm32l4xx_hal_spi.c **** 
3082:E:/LiteOS/LiteOS_Lab/drivers/third_party/ST/STM32L4xx_HAL_Driver/Src\stm32l4xx_hal_spi.c ****   /* Read data register to flush CRC */
3083:E:/LiteOS/LiteOS_Lab/drivers/third_party/ST/STM32L4xx_HAL_Driver/Src\stm32l4xx_hal_spi.c ****   tmpreg = *((__IO uint8_t *)&hspi->Instance->DR);
3084:E:/LiteOS/LiteOS_Lab/drivers/third_party/ST/STM32L4xx_HAL_Driver/Src\stm32l4xx_hal_spi.c **** 
3085:E:/LiteOS/LiteOS_Lab/drivers/third_party/ST/STM32L4xx_HAL_Driver/Src\stm32l4xx_hal_spi.c ****   /* To avoid GCC warning */
3086:E:/LiteOS/LiteOS_Lab/drivers/third_party/ST/STM32L4xx_HAL_Driver/Src\stm32l4xx_hal_spi.c ****   UNUSED(tmpreg);
3087:E:/LiteOS/LiteOS_Lab/drivers/third_party/ST/STM32L4xx_HAL_Driver/Src\stm32l4xx_hal_spi.c **** 
3088:E:/LiteOS/LiteOS_Lab/drivers/third_party/ST/STM32L4xx_HAL_Driver/Src\stm32l4xx_hal_spi.c ****   hspi->CRCSize--;
3089:E:/LiteOS/LiteOS_Lab/drivers/third_party/ST/STM32L4xx_HAL_Driver/Src\stm32l4xx_hal_spi.c **** 
3090:E:/LiteOS/LiteOS_Lab/drivers/third_party/ST/STM32L4xx_HAL_Driver/Src\stm32l4xx_hal_spi.c ****   /* Check end of the reception */
3091:E:/LiteOS/LiteOS_Lab/drivers/third_party/ST/STM32L4xx_HAL_Driver/Src\stm32l4xx_hal_spi.c ****   if (hspi->CRCSize == 0U)
3092:E:/LiteOS/LiteOS_Lab/drivers/third_party/ST/STM32L4xx_HAL_Driver/Src\stm32l4xx_hal_spi.c ****   {
3093:E:/LiteOS/LiteOS_Lab/drivers/third_party/ST/STM32L4xx_HAL_Driver/Src\stm32l4xx_hal_spi.c ****     /* Disable RXNE and ERR interrupt */
3094:E:/LiteOS/LiteOS_Lab/drivers/third_party/ST/STM32L4xx_HAL_Driver/Src\stm32l4xx_hal_spi.c ****     __HAL_SPI_DISABLE_IT(hspi, (SPI_IT_RXNE | SPI_IT_ERR));
3095:E:/LiteOS/LiteOS_Lab/drivers/third_party/ST/STM32L4xx_HAL_Driver/Src\stm32l4xx_hal_spi.c **** 
3096:E:/LiteOS/LiteOS_Lab/drivers/third_party/ST/STM32L4xx_HAL_Driver/Src\stm32l4xx_hal_spi.c ****     if (hspi->TxXferCount == 0U)
3097:E:/LiteOS/LiteOS_Lab/drivers/third_party/ST/STM32L4xx_HAL_Driver/Src\stm32l4xx_hal_spi.c ****     {
3098:E:/LiteOS/LiteOS_Lab/drivers/third_party/ST/STM32L4xx_HAL_Driver/Src\stm32l4xx_hal_spi.c ****       SPI_CloseRxTx_ISR(hspi);
3099:E:/LiteOS/LiteOS_Lab/drivers/third_party/ST/STM32L4xx_HAL_Driver/Src\stm32l4xx_hal_spi.c ****     }
3100:E:/LiteOS/LiteOS_Lab/drivers/third_party/ST/STM32L4xx_HAL_Driver/Src\stm32l4xx_hal_spi.c ****   }
3101:E:/LiteOS/LiteOS_Lab/drivers/third_party/ST/STM32L4xx_HAL_Driver/Src\stm32l4xx_hal_spi.c **** }
3102:E:/LiteOS/LiteOS_Lab/drivers/third_party/ST/STM32L4xx_HAL_Driver/Src\stm32l4xx_hal_spi.c **** #endif /* USE_SPI_CRC */
3103:E:/LiteOS/LiteOS_Lab/drivers/third_party/ST/STM32L4xx_HAL_Driver/Src\stm32l4xx_hal_spi.c **** 
3104:E:/LiteOS/LiteOS_Lab/drivers/third_party/ST/STM32L4xx_HAL_Driver/Src\stm32l4xx_hal_spi.c **** /**
3105:E:/LiteOS/LiteOS_Lab/drivers/third_party/ST/STM32L4xx_HAL_Driver/Src\stm32l4xx_hal_spi.c ****   * @brief  Tx 8-bit handler for Transmit and Receive in Interrupt mode.
3106:E:/LiteOS/LiteOS_Lab/drivers/third_party/ST/STM32L4xx_HAL_Driver/Src\stm32l4xx_hal_spi.c ****   * @param  hspi pointer to a SPI_HandleTypeDef structure that contains
3107:E:/LiteOS/LiteOS_Lab/drivers/third_party/ST/STM32L4xx_HAL_Driver/Src\stm32l4xx_hal_spi.c ****   *               the configuration information for SPI module.
ARM GAS  C:\Users\user\AppData\Local\Temp\ccvQ1M9B.s 			page 165


3108:E:/LiteOS/LiteOS_Lab/drivers/third_party/ST/STM32L4xx_HAL_Driver/Src\stm32l4xx_hal_spi.c ****   * @retval None
3109:E:/LiteOS/LiteOS_Lab/drivers/third_party/ST/STM32L4xx_HAL_Driver/Src\stm32l4xx_hal_spi.c ****   */
3110:E:/LiteOS/LiteOS_Lab/drivers/third_party/ST/STM32L4xx_HAL_Driver/Src\stm32l4xx_hal_spi.c **** static void SPI_2linesTxISR_8BIT(struct __SPI_HandleTypeDef *hspi)
3111:E:/LiteOS/LiteOS_Lab/drivers/third_party/ST/STM32L4xx_HAL_Driver/Src\stm32l4xx_hal_spi.c **** {
 6311              		.loc 1 3111 0
 6312              		.cfi_startproc
 6313              		@ args = 0, pretend = 0, frame = 8
 6314              		@ frame_needed = 1, uses_anonymous_args = 0
 6315 0000 80B5     		push	{r7, lr}
 6316              	.LCFI216:
 6317              		.cfi_def_cfa_offset 8
 6318              		.cfi_offset 7, -8
 6319              		.cfi_offset 14, -4
 6320 0002 82B0     		sub	sp, sp, #8
 6321              	.LCFI217:
 6322              		.cfi_def_cfa_offset 16
 6323 0004 00AF     		add	r7, sp, #0
 6324              	.LCFI218:
 6325              		.cfi_def_cfa_register 7
 6326 0006 7860     		str	r0, [r7, #4]
3112:E:/LiteOS/LiteOS_Lab/drivers/third_party/ST/STM32L4xx_HAL_Driver/Src\stm32l4xx_hal_spi.c ****   /* Transmit data in packing Bit mode */
3113:E:/LiteOS/LiteOS_Lab/drivers/third_party/ST/STM32L4xx_HAL_Driver/Src\stm32l4xx_hal_spi.c ****   if (hspi->TxXferCount >= 2U)
 6327              		.loc 1 3113 0
 6328 0008 7B68     		ldr	r3, [r7, #4]
 6329 000a DB8F     		ldrh	r3, [r3, #62]	@ movhi
 6330 000c 9BB2     		uxth	r3, r3
 6331 000e 012B     		cmp	r3, #1
 6332 0010 12D9     		bls	.L319
3114:E:/LiteOS/LiteOS_Lab/drivers/third_party/ST/STM32L4xx_HAL_Driver/Src\stm32l4xx_hal_spi.c ****   {
3115:E:/LiteOS/LiteOS_Lab/drivers/third_party/ST/STM32L4xx_HAL_Driver/Src\stm32l4xx_hal_spi.c ****     hspi->Instance->DR = *((uint16_t *)hspi->pTxBuffPtr);
 6333              		.loc 1 3115 0
 6334 0012 7B68     		ldr	r3, [r7, #4]
 6335 0014 9B6B     		ldr	r3, [r3, #56]
 6336 0016 1A88     		ldrh	r2, [r3]
 6337 0018 7B68     		ldr	r3, [r7, #4]
 6338 001a 1B68     		ldr	r3, [r3]
 6339 001c DA60     		str	r2, [r3, #12]
3116:E:/LiteOS/LiteOS_Lab/drivers/third_party/ST/STM32L4xx_HAL_Driver/Src\stm32l4xx_hal_spi.c ****     hspi->pTxBuffPtr += sizeof(uint16_t);
 6340              		.loc 1 3116 0
 6341 001e 7B68     		ldr	r3, [r7, #4]
 6342 0020 9B6B     		ldr	r3, [r3, #56]
 6343 0022 9A1C     		adds	r2, r3, #2
 6344 0024 7B68     		ldr	r3, [r7, #4]
 6345 0026 9A63     		str	r2, [r3, #56]
3117:E:/LiteOS/LiteOS_Lab/drivers/third_party/ST/STM32L4xx_HAL_Driver/Src\stm32l4xx_hal_spi.c ****     hspi->TxXferCount -= 2U;
 6346              		.loc 1 3117 0
 6347 0028 7B68     		ldr	r3, [r7, #4]
 6348 002a DB8F     		ldrh	r3, [r3, #62]	@ movhi
 6349 002c 9BB2     		uxth	r3, r3
 6350 002e 023B     		subs	r3, r3, #2
 6351 0030 9AB2     		uxth	r2, r3
 6352 0032 7B68     		ldr	r3, [r7, #4]
 6353 0034 DA87     		strh	r2, [r3, #62]	@ movhi
 6354 0036 10E0     		b	.L320
 6355              	.L319:
3118:E:/LiteOS/LiteOS_Lab/drivers/third_party/ST/STM32L4xx_HAL_Driver/Src\stm32l4xx_hal_spi.c ****   }
3119:E:/LiteOS/LiteOS_Lab/drivers/third_party/ST/STM32L4xx_HAL_Driver/Src\stm32l4xx_hal_spi.c ****   /* Transmit data in 8 Bit mode */
ARM GAS  C:\Users\user\AppData\Local\Temp\ccvQ1M9B.s 			page 166


3120:E:/LiteOS/LiteOS_Lab/drivers/third_party/ST/STM32L4xx_HAL_Driver/Src\stm32l4xx_hal_spi.c ****   else
3121:E:/LiteOS/LiteOS_Lab/drivers/third_party/ST/STM32L4xx_HAL_Driver/Src\stm32l4xx_hal_spi.c ****   {
3122:E:/LiteOS/LiteOS_Lab/drivers/third_party/ST/STM32L4xx_HAL_Driver/Src\stm32l4xx_hal_spi.c ****     *(__IO uint8_t *)&hspi->Instance->DR = (*hspi->pTxBuffPtr++);
 6356              		.loc 1 3122 0
 6357 0038 7B68     		ldr	r3, [r7, #4]
 6358 003a 9B6B     		ldr	r3, [r3, #56]
 6359 003c 591C     		adds	r1, r3, #1
 6360 003e 7A68     		ldr	r2, [r7, #4]
 6361 0040 9163     		str	r1, [r2, #56]
 6362 0042 7A68     		ldr	r2, [r7, #4]
 6363 0044 1268     		ldr	r2, [r2]
 6364 0046 0C32     		adds	r2, r2, #12
 6365 0048 1B78     		ldrb	r3, [r3]	@ zero_extendqisi2
 6366 004a 1370     		strb	r3, [r2]
3123:E:/LiteOS/LiteOS_Lab/drivers/third_party/ST/STM32L4xx_HAL_Driver/Src\stm32l4xx_hal_spi.c ****     hspi->TxXferCount--;
 6367              		.loc 1 3123 0
 6368 004c 7B68     		ldr	r3, [r7, #4]
 6369 004e DB8F     		ldrh	r3, [r3, #62]	@ movhi
 6370 0050 9BB2     		uxth	r3, r3
 6371 0052 013B     		subs	r3, r3, #1
 6372 0054 9AB2     		uxth	r2, r3
 6373 0056 7B68     		ldr	r3, [r7, #4]
 6374 0058 DA87     		strh	r2, [r3, #62]	@ movhi
 6375              	.L320:
3124:E:/LiteOS/LiteOS_Lab/drivers/third_party/ST/STM32L4xx_HAL_Driver/Src\stm32l4xx_hal_spi.c ****   }
3125:E:/LiteOS/LiteOS_Lab/drivers/third_party/ST/STM32L4xx_HAL_Driver/Src\stm32l4xx_hal_spi.c **** 
3126:E:/LiteOS/LiteOS_Lab/drivers/third_party/ST/STM32L4xx_HAL_Driver/Src\stm32l4xx_hal_spi.c ****   /* Check the end of the transmission */
3127:E:/LiteOS/LiteOS_Lab/drivers/third_party/ST/STM32L4xx_HAL_Driver/Src\stm32l4xx_hal_spi.c ****   if (hspi->TxXferCount == 0U)
 6376              		.loc 1 3127 0
 6377 005a 7B68     		ldr	r3, [r7, #4]
 6378 005c DB8F     		ldrh	r3, [r3, #62]	@ movhi
 6379 005e 9BB2     		uxth	r3, r3
 6380 0060 002B     		cmp	r3, #0
 6381 0062 10D1     		bne	.L322
3128:E:/LiteOS/LiteOS_Lab/drivers/third_party/ST/STM32L4xx_HAL_Driver/Src\stm32l4xx_hal_spi.c ****   {
3129:E:/LiteOS/LiteOS_Lab/drivers/third_party/ST/STM32L4xx_HAL_Driver/Src\stm32l4xx_hal_spi.c **** #if (USE_SPI_CRC != 0U)
3130:E:/LiteOS/LiteOS_Lab/drivers/third_party/ST/STM32L4xx_HAL_Driver/Src\stm32l4xx_hal_spi.c ****     if (hspi->Init.CRCCalculation == SPI_CRCCALCULATION_ENABLE)
3131:E:/LiteOS/LiteOS_Lab/drivers/third_party/ST/STM32L4xx_HAL_Driver/Src\stm32l4xx_hal_spi.c ****     {
3132:E:/LiteOS/LiteOS_Lab/drivers/third_party/ST/STM32L4xx_HAL_Driver/Src\stm32l4xx_hal_spi.c ****       /* Set CRC Next Bit to send CRC */
3133:E:/LiteOS/LiteOS_Lab/drivers/third_party/ST/STM32L4xx_HAL_Driver/Src\stm32l4xx_hal_spi.c ****       SET_BIT(hspi->Instance->CR1, SPI_CR1_CRCNEXT);
3134:E:/LiteOS/LiteOS_Lab/drivers/third_party/ST/STM32L4xx_HAL_Driver/Src\stm32l4xx_hal_spi.c ****       /* Disable TXE interrupt */
3135:E:/LiteOS/LiteOS_Lab/drivers/third_party/ST/STM32L4xx_HAL_Driver/Src\stm32l4xx_hal_spi.c ****       __HAL_SPI_DISABLE_IT(hspi, SPI_IT_TXE);
3136:E:/LiteOS/LiteOS_Lab/drivers/third_party/ST/STM32L4xx_HAL_Driver/Src\stm32l4xx_hal_spi.c ****       return;
3137:E:/LiteOS/LiteOS_Lab/drivers/third_party/ST/STM32L4xx_HAL_Driver/Src\stm32l4xx_hal_spi.c ****     }
3138:E:/LiteOS/LiteOS_Lab/drivers/third_party/ST/STM32L4xx_HAL_Driver/Src\stm32l4xx_hal_spi.c **** #endif /* USE_SPI_CRC */
3139:E:/LiteOS/LiteOS_Lab/drivers/third_party/ST/STM32L4xx_HAL_Driver/Src\stm32l4xx_hal_spi.c **** 
3140:E:/LiteOS/LiteOS_Lab/drivers/third_party/ST/STM32L4xx_HAL_Driver/Src\stm32l4xx_hal_spi.c ****     /* Disable TXE interrupt */
3141:E:/LiteOS/LiteOS_Lab/drivers/third_party/ST/STM32L4xx_HAL_Driver/Src\stm32l4xx_hal_spi.c ****     __HAL_SPI_DISABLE_IT(hspi, SPI_IT_TXE);
 6382              		.loc 1 3141 0
 6383 0064 7B68     		ldr	r3, [r7, #4]
 6384 0066 1B68     		ldr	r3, [r3]
 6385 0068 5A68     		ldr	r2, [r3, #4]
 6386 006a 7B68     		ldr	r3, [r7, #4]
 6387 006c 1B68     		ldr	r3, [r3]
 6388 006e 22F08002 		bic	r2, r2, #128
 6389 0072 5A60     		str	r2, [r3, #4]
3142:E:/LiteOS/LiteOS_Lab/drivers/third_party/ST/STM32L4xx_HAL_Driver/Src\stm32l4xx_hal_spi.c **** 
ARM GAS  C:\Users\user\AppData\Local\Temp\ccvQ1M9B.s 			page 167


3143:E:/LiteOS/LiteOS_Lab/drivers/third_party/ST/STM32L4xx_HAL_Driver/Src\stm32l4xx_hal_spi.c ****     if (hspi->RxXferCount == 0U)
 6390              		.loc 1 3143 0
 6391 0074 7B68     		ldr	r3, [r7, #4]
 6392 0076 B3F84630 		ldrh	r3, [r3, #70]	@ movhi
 6393 007a 9BB2     		uxth	r3, r3
 6394 007c 002B     		cmp	r3, #0
 6395 007e 02D1     		bne	.L322
3144:E:/LiteOS/LiteOS_Lab/drivers/third_party/ST/STM32L4xx_HAL_Driver/Src\stm32l4xx_hal_spi.c ****     {
3145:E:/LiteOS/LiteOS_Lab/drivers/third_party/ST/STM32L4xx_HAL_Driver/Src\stm32l4xx_hal_spi.c ****       SPI_CloseRxTx_ISR(hspi);
 6396              		.loc 1 3145 0
 6397 0080 7868     		ldr	r0, [r7, #4]
 6398 0082 FFF7FEFF 		bl	SPI_CloseRxTx_ISR
 6399              	.L322:
3146:E:/LiteOS/LiteOS_Lab/drivers/third_party/ST/STM32L4xx_HAL_Driver/Src\stm32l4xx_hal_spi.c ****     }
3147:E:/LiteOS/LiteOS_Lab/drivers/third_party/ST/STM32L4xx_HAL_Driver/Src\stm32l4xx_hal_spi.c ****   }
3148:E:/LiteOS/LiteOS_Lab/drivers/third_party/ST/STM32L4xx_HAL_Driver/Src\stm32l4xx_hal_spi.c **** }
 6400              		.loc 1 3148 0
 6401 0086 00BF     		nop
 6402 0088 0837     		adds	r7, r7, #8
 6403              	.LCFI219:
 6404              		.cfi_def_cfa_offset 8
 6405 008a BD46     		mov	sp, r7
 6406              	.LCFI220:
 6407              		.cfi_def_cfa_register 13
 6408              		@ sp needed
 6409 008c 80BD     		pop	{r7, pc}
 6410              		.cfi_endproc
 6411              	.LFE173:
 6413              		.section	.text.SPI_2linesRxISR_16BIT,"ax",%progbits
 6414              		.align	1
 6415              		.syntax unified
 6416              		.thumb
 6417              		.thumb_func
 6418              		.fpu fpv4-sp-d16
 6420              	SPI_2linesRxISR_16BIT:
 6421              	.LFB174:
3149:E:/LiteOS/LiteOS_Lab/drivers/third_party/ST/STM32L4xx_HAL_Driver/Src\stm32l4xx_hal_spi.c **** 
3150:E:/LiteOS/LiteOS_Lab/drivers/third_party/ST/STM32L4xx_HAL_Driver/Src\stm32l4xx_hal_spi.c **** /**
3151:E:/LiteOS/LiteOS_Lab/drivers/third_party/ST/STM32L4xx_HAL_Driver/Src\stm32l4xx_hal_spi.c ****   * @brief  Rx 16-bit handler for Transmit and Receive in Interrupt mode.
3152:E:/LiteOS/LiteOS_Lab/drivers/third_party/ST/STM32L4xx_HAL_Driver/Src\stm32l4xx_hal_spi.c ****   * @param  hspi pointer to a SPI_HandleTypeDef structure that contains
3153:E:/LiteOS/LiteOS_Lab/drivers/third_party/ST/STM32L4xx_HAL_Driver/Src\stm32l4xx_hal_spi.c ****   *               the configuration information for SPI module.
3154:E:/LiteOS/LiteOS_Lab/drivers/third_party/ST/STM32L4xx_HAL_Driver/Src\stm32l4xx_hal_spi.c ****   * @retval None
3155:E:/LiteOS/LiteOS_Lab/drivers/third_party/ST/STM32L4xx_HAL_Driver/Src\stm32l4xx_hal_spi.c ****   */
3156:E:/LiteOS/LiteOS_Lab/drivers/third_party/ST/STM32L4xx_HAL_Driver/Src\stm32l4xx_hal_spi.c **** static void SPI_2linesRxISR_16BIT(struct __SPI_HandleTypeDef *hspi)
3157:E:/LiteOS/LiteOS_Lab/drivers/third_party/ST/STM32L4xx_HAL_Driver/Src\stm32l4xx_hal_spi.c **** {
 6422              		.loc 1 3157 0
 6423              		.cfi_startproc
 6424              		@ args = 0, pretend = 0, frame = 8
 6425              		@ frame_needed = 1, uses_anonymous_args = 0
 6426 0000 80B5     		push	{r7, lr}
 6427              	.LCFI221:
 6428              		.cfi_def_cfa_offset 8
 6429              		.cfi_offset 7, -8
 6430              		.cfi_offset 14, -4
 6431 0002 82B0     		sub	sp, sp, #8
 6432              	.LCFI222:
 6433              		.cfi_def_cfa_offset 16
ARM GAS  C:\Users\user\AppData\Local\Temp\ccvQ1M9B.s 			page 168


 6434 0004 00AF     		add	r7, sp, #0
 6435              	.LCFI223:
 6436              		.cfi_def_cfa_register 7
 6437 0006 7860     		str	r0, [r7, #4]
3158:E:/LiteOS/LiteOS_Lab/drivers/third_party/ST/STM32L4xx_HAL_Driver/Src\stm32l4xx_hal_spi.c ****   /* Receive data in 16 Bit mode */
3159:E:/LiteOS/LiteOS_Lab/drivers/third_party/ST/STM32L4xx_HAL_Driver/Src\stm32l4xx_hal_spi.c ****   *((uint16_t *)hspi->pRxBuffPtr) = hspi->Instance->DR;
 6438              		.loc 1 3159 0
 6439 0008 7B68     		ldr	r3, [r7, #4]
 6440 000a 1B68     		ldr	r3, [r3]
 6441 000c DA68     		ldr	r2, [r3, #12]
 6442 000e 7B68     		ldr	r3, [r7, #4]
 6443 0010 1B6C     		ldr	r3, [r3, #64]
 6444 0012 92B2     		uxth	r2, r2
 6445 0014 1A80     		strh	r2, [r3]	@ movhi
3160:E:/LiteOS/LiteOS_Lab/drivers/third_party/ST/STM32L4xx_HAL_Driver/Src\stm32l4xx_hal_spi.c ****   hspi->pRxBuffPtr += sizeof(uint16_t);
 6446              		.loc 1 3160 0
 6447 0016 7B68     		ldr	r3, [r7, #4]
 6448 0018 1B6C     		ldr	r3, [r3, #64]
 6449 001a 9A1C     		adds	r2, r3, #2
 6450 001c 7B68     		ldr	r3, [r7, #4]
 6451 001e 1A64     		str	r2, [r3, #64]
3161:E:/LiteOS/LiteOS_Lab/drivers/third_party/ST/STM32L4xx_HAL_Driver/Src\stm32l4xx_hal_spi.c ****   hspi->RxXferCount--;
 6452              		.loc 1 3161 0
 6453 0020 7B68     		ldr	r3, [r7, #4]
 6454 0022 B3F84630 		ldrh	r3, [r3, #70]	@ movhi
 6455 0026 9BB2     		uxth	r3, r3
 6456 0028 013B     		subs	r3, r3, #1
 6457 002a 9AB2     		uxth	r2, r3
 6458 002c 7B68     		ldr	r3, [r7, #4]
 6459 002e A3F84620 		strh	r2, [r3, #70]	@ movhi
3162:E:/LiteOS/LiteOS_Lab/drivers/third_party/ST/STM32L4xx_HAL_Driver/Src\stm32l4xx_hal_spi.c **** 
3163:E:/LiteOS/LiteOS_Lab/drivers/third_party/ST/STM32L4xx_HAL_Driver/Src\stm32l4xx_hal_spi.c ****   if (hspi->RxXferCount == 0U)
 6460              		.loc 1 3163 0
 6461 0032 7B68     		ldr	r3, [r7, #4]
 6462 0034 B3F84630 		ldrh	r3, [r3, #70]	@ movhi
 6463 0038 9BB2     		uxth	r3, r3
 6464 003a 002B     		cmp	r3, #0
 6465 003c 0FD1     		bne	.L325
3164:E:/LiteOS/LiteOS_Lab/drivers/third_party/ST/STM32L4xx_HAL_Driver/Src\stm32l4xx_hal_spi.c ****   {
3165:E:/LiteOS/LiteOS_Lab/drivers/third_party/ST/STM32L4xx_HAL_Driver/Src\stm32l4xx_hal_spi.c **** #if (USE_SPI_CRC != 0U)
3166:E:/LiteOS/LiteOS_Lab/drivers/third_party/ST/STM32L4xx_HAL_Driver/Src\stm32l4xx_hal_spi.c ****     if (hspi->Init.CRCCalculation == SPI_CRCCALCULATION_ENABLE)
3167:E:/LiteOS/LiteOS_Lab/drivers/third_party/ST/STM32L4xx_HAL_Driver/Src\stm32l4xx_hal_spi.c ****     {
3168:E:/LiteOS/LiteOS_Lab/drivers/third_party/ST/STM32L4xx_HAL_Driver/Src\stm32l4xx_hal_spi.c ****       hspi->RxISR =  SPI_2linesRxISR_16BITCRC;
3169:E:/LiteOS/LiteOS_Lab/drivers/third_party/ST/STM32L4xx_HAL_Driver/Src\stm32l4xx_hal_spi.c ****       return;
3170:E:/LiteOS/LiteOS_Lab/drivers/third_party/ST/STM32L4xx_HAL_Driver/Src\stm32l4xx_hal_spi.c ****     }
3171:E:/LiteOS/LiteOS_Lab/drivers/third_party/ST/STM32L4xx_HAL_Driver/Src\stm32l4xx_hal_spi.c **** #endif /* USE_SPI_CRC */
3172:E:/LiteOS/LiteOS_Lab/drivers/third_party/ST/STM32L4xx_HAL_Driver/Src\stm32l4xx_hal_spi.c **** 
3173:E:/LiteOS/LiteOS_Lab/drivers/third_party/ST/STM32L4xx_HAL_Driver/Src\stm32l4xx_hal_spi.c ****     /* Disable RXNE interrupt */
3174:E:/LiteOS/LiteOS_Lab/drivers/third_party/ST/STM32L4xx_HAL_Driver/Src\stm32l4xx_hal_spi.c ****     __HAL_SPI_DISABLE_IT(hspi, SPI_IT_RXNE);
 6466              		.loc 1 3174 0
 6467 003e 7B68     		ldr	r3, [r7, #4]
 6468 0040 1B68     		ldr	r3, [r3]
 6469 0042 5A68     		ldr	r2, [r3, #4]
 6470 0044 7B68     		ldr	r3, [r7, #4]
 6471 0046 1B68     		ldr	r3, [r3]
 6472 0048 22F04002 		bic	r2, r2, #64
 6473 004c 5A60     		str	r2, [r3, #4]
ARM GAS  C:\Users\user\AppData\Local\Temp\ccvQ1M9B.s 			page 169


3175:E:/LiteOS/LiteOS_Lab/drivers/third_party/ST/STM32L4xx_HAL_Driver/Src\stm32l4xx_hal_spi.c **** 
3176:E:/LiteOS/LiteOS_Lab/drivers/third_party/ST/STM32L4xx_HAL_Driver/Src\stm32l4xx_hal_spi.c ****     if (hspi->TxXferCount == 0U)
 6474              		.loc 1 3176 0
 6475 004e 7B68     		ldr	r3, [r7, #4]
 6476 0050 DB8F     		ldrh	r3, [r3, #62]	@ movhi
 6477 0052 9BB2     		uxth	r3, r3
 6478 0054 002B     		cmp	r3, #0
 6479 0056 02D1     		bne	.L325
3177:E:/LiteOS/LiteOS_Lab/drivers/third_party/ST/STM32L4xx_HAL_Driver/Src\stm32l4xx_hal_spi.c ****     {
3178:E:/LiteOS/LiteOS_Lab/drivers/third_party/ST/STM32L4xx_HAL_Driver/Src\stm32l4xx_hal_spi.c ****       SPI_CloseRxTx_ISR(hspi);
 6480              		.loc 1 3178 0
 6481 0058 7868     		ldr	r0, [r7, #4]
 6482 005a FFF7FEFF 		bl	SPI_CloseRxTx_ISR
 6483              	.L325:
3179:E:/LiteOS/LiteOS_Lab/drivers/third_party/ST/STM32L4xx_HAL_Driver/Src\stm32l4xx_hal_spi.c ****     }
3180:E:/LiteOS/LiteOS_Lab/drivers/third_party/ST/STM32L4xx_HAL_Driver/Src\stm32l4xx_hal_spi.c ****   }
3181:E:/LiteOS/LiteOS_Lab/drivers/third_party/ST/STM32L4xx_HAL_Driver/Src\stm32l4xx_hal_spi.c **** }
 6484              		.loc 1 3181 0
 6485 005e 00BF     		nop
 6486 0060 0837     		adds	r7, r7, #8
 6487              	.LCFI224:
 6488              		.cfi_def_cfa_offset 8
 6489 0062 BD46     		mov	sp, r7
 6490              	.LCFI225:
 6491              		.cfi_def_cfa_register 13
 6492              		@ sp needed
 6493 0064 80BD     		pop	{r7, pc}
 6494              		.cfi_endproc
 6495              	.LFE174:
 6497              		.section	.text.SPI_2linesTxISR_16BIT,"ax",%progbits
 6498              		.align	1
 6499              		.syntax unified
 6500              		.thumb
 6501              		.thumb_func
 6502              		.fpu fpv4-sp-d16
 6504              	SPI_2linesTxISR_16BIT:
 6505              	.LFB175:
3182:E:/LiteOS/LiteOS_Lab/drivers/third_party/ST/STM32L4xx_HAL_Driver/Src\stm32l4xx_hal_spi.c **** 
3183:E:/LiteOS/LiteOS_Lab/drivers/third_party/ST/STM32L4xx_HAL_Driver/Src\stm32l4xx_hal_spi.c **** #if (USE_SPI_CRC != 0U)
3184:E:/LiteOS/LiteOS_Lab/drivers/third_party/ST/STM32L4xx_HAL_Driver/Src\stm32l4xx_hal_spi.c **** /**
3185:E:/LiteOS/LiteOS_Lab/drivers/third_party/ST/STM32L4xx_HAL_Driver/Src\stm32l4xx_hal_spi.c ****   * @brief  Manage the CRC 16-bit receive for Transmit and Receive in Interrupt mode.
3186:E:/LiteOS/LiteOS_Lab/drivers/third_party/ST/STM32L4xx_HAL_Driver/Src\stm32l4xx_hal_spi.c ****   * @param  hspi pointer to a SPI_HandleTypeDef structure that contains
3187:E:/LiteOS/LiteOS_Lab/drivers/third_party/ST/STM32L4xx_HAL_Driver/Src\stm32l4xx_hal_spi.c ****   *               the configuration information for SPI module.
3188:E:/LiteOS/LiteOS_Lab/drivers/third_party/ST/STM32L4xx_HAL_Driver/Src\stm32l4xx_hal_spi.c ****   * @retval None
3189:E:/LiteOS/LiteOS_Lab/drivers/third_party/ST/STM32L4xx_HAL_Driver/Src\stm32l4xx_hal_spi.c ****   */
3190:E:/LiteOS/LiteOS_Lab/drivers/third_party/ST/STM32L4xx_HAL_Driver/Src\stm32l4xx_hal_spi.c **** static void SPI_2linesRxISR_16BITCRC(struct __SPI_HandleTypeDef *hspi)
3191:E:/LiteOS/LiteOS_Lab/drivers/third_party/ST/STM32L4xx_HAL_Driver/Src\stm32l4xx_hal_spi.c **** {
3192:E:/LiteOS/LiteOS_Lab/drivers/third_party/ST/STM32L4xx_HAL_Driver/Src\stm32l4xx_hal_spi.c ****   /* Receive data in 16 Bit mode */
3193:E:/LiteOS/LiteOS_Lab/drivers/third_party/ST/STM32L4xx_HAL_Driver/Src\stm32l4xx_hal_spi.c ****   __IO uint16_t tmpreg = 0U;
3194:E:/LiteOS/LiteOS_Lab/drivers/third_party/ST/STM32L4xx_HAL_Driver/Src\stm32l4xx_hal_spi.c **** 
3195:E:/LiteOS/LiteOS_Lab/drivers/third_party/ST/STM32L4xx_HAL_Driver/Src\stm32l4xx_hal_spi.c ****   /* Read data register to flush CRC */
3196:E:/LiteOS/LiteOS_Lab/drivers/third_party/ST/STM32L4xx_HAL_Driver/Src\stm32l4xx_hal_spi.c ****   tmpreg = hspi->Instance->DR;
3197:E:/LiteOS/LiteOS_Lab/drivers/third_party/ST/STM32L4xx_HAL_Driver/Src\stm32l4xx_hal_spi.c **** 
3198:E:/LiteOS/LiteOS_Lab/drivers/third_party/ST/STM32L4xx_HAL_Driver/Src\stm32l4xx_hal_spi.c ****   /* To avoid GCC warning */
3199:E:/LiteOS/LiteOS_Lab/drivers/third_party/ST/STM32L4xx_HAL_Driver/Src\stm32l4xx_hal_spi.c ****   UNUSED(tmpreg);
3200:E:/LiteOS/LiteOS_Lab/drivers/third_party/ST/STM32L4xx_HAL_Driver/Src\stm32l4xx_hal_spi.c **** 
3201:E:/LiteOS/LiteOS_Lab/drivers/third_party/ST/STM32L4xx_HAL_Driver/Src\stm32l4xx_hal_spi.c ****   /* Disable RXNE interrupt */
ARM GAS  C:\Users\user\AppData\Local\Temp\ccvQ1M9B.s 			page 170


3202:E:/LiteOS/LiteOS_Lab/drivers/third_party/ST/STM32L4xx_HAL_Driver/Src\stm32l4xx_hal_spi.c ****   __HAL_SPI_DISABLE_IT(hspi, SPI_IT_RXNE);
3203:E:/LiteOS/LiteOS_Lab/drivers/third_party/ST/STM32L4xx_HAL_Driver/Src\stm32l4xx_hal_spi.c **** 
3204:E:/LiteOS/LiteOS_Lab/drivers/third_party/ST/STM32L4xx_HAL_Driver/Src\stm32l4xx_hal_spi.c ****   SPI_CloseRxTx_ISR(hspi);
3205:E:/LiteOS/LiteOS_Lab/drivers/third_party/ST/STM32L4xx_HAL_Driver/Src\stm32l4xx_hal_spi.c **** }
3206:E:/LiteOS/LiteOS_Lab/drivers/third_party/ST/STM32L4xx_HAL_Driver/Src\stm32l4xx_hal_spi.c **** #endif /* USE_SPI_CRC */
3207:E:/LiteOS/LiteOS_Lab/drivers/third_party/ST/STM32L4xx_HAL_Driver/Src\stm32l4xx_hal_spi.c **** 
3208:E:/LiteOS/LiteOS_Lab/drivers/third_party/ST/STM32L4xx_HAL_Driver/Src\stm32l4xx_hal_spi.c **** /**
3209:E:/LiteOS/LiteOS_Lab/drivers/third_party/ST/STM32L4xx_HAL_Driver/Src\stm32l4xx_hal_spi.c ****   * @brief  Tx 16-bit handler for Transmit and Receive in Interrupt mode.
3210:E:/LiteOS/LiteOS_Lab/drivers/third_party/ST/STM32L4xx_HAL_Driver/Src\stm32l4xx_hal_spi.c ****   * @param  hspi pointer to a SPI_HandleTypeDef structure that contains
3211:E:/LiteOS/LiteOS_Lab/drivers/third_party/ST/STM32L4xx_HAL_Driver/Src\stm32l4xx_hal_spi.c ****   *               the configuration information for SPI module.
3212:E:/LiteOS/LiteOS_Lab/drivers/third_party/ST/STM32L4xx_HAL_Driver/Src\stm32l4xx_hal_spi.c ****   * @retval None
3213:E:/LiteOS/LiteOS_Lab/drivers/third_party/ST/STM32L4xx_HAL_Driver/Src\stm32l4xx_hal_spi.c ****   */
3214:E:/LiteOS/LiteOS_Lab/drivers/third_party/ST/STM32L4xx_HAL_Driver/Src\stm32l4xx_hal_spi.c **** static void SPI_2linesTxISR_16BIT(struct __SPI_HandleTypeDef *hspi)
3215:E:/LiteOS/LiteOS_Lab/drivers/third_party/ST/STM32L4xx_HAL_Driver/Src\stm32l4xx_hal_spi.c **** {
 6506              		.loc 1 3215 0
 6507              		.cfi_startproc
 6508              		@ args = 0, pretend = 0, frame = 8
 6509              		@ frame_needed = 1, uses_anonymous_args = 0
 6510 0000 80B5     		push	{r7, lr}
 6511              	.LCFI226:
 6512              		.cfi_def_cfa_offset 8
 6513              		.cfi_offset 7, -8
 6514              		.cfi_offset 14, -4
 6515 0002 82B0     		sub	sp, sp, #8
 6516              	.LCFI227:
 6517              		.cfi_def_cfa_offset 16
 6518 0004 00AF     		add	r7, sp, #0
 6519              	.LCFI228:
 6520              		.cfi_def_cfa_register 7
 6521 0006 7860     		str	r0, [r7, #4]
3216:E:/LiteOS/LiteOS_Lab/drivers/third_party/ST/STM32L4xx_HAL_Driver/Src\stm32l4xx_hal_spi.c ****   /* Transmit data in 16 Bit mode */
3217:E:/LiteOS/LiteOS_Lab/drivers/third_party/ST/STM32L4xx_HAL_Driver/Src\stm32l4xx_hal_spi.c ****   hspi->Instance->DR = *((uint16_t *)hspi->pTxBuffPtr);
 6522              		.loc 1 3217 0
 6523 0008 7B68     		ldr	r3, [r7, #4]
 6524 000a 9B6B     		ldr	r3, [r3, #56]
 6525 000c 1A88     		ldrh	r2, [r3]
 6526 000e 7B68     		ldr	r3, [r7, #4]
 6527 0010 1B68     		ldr	r3, [r3]
 6528 0012 DA60     		str	r2, [r3, #12]
3218:E:/LiteOS/LiteOS_Lab/drivers/third_party/ST/STM32L4xx_HAL_Driver/Src\stm32l4xx_hal_spi.c ****   hspi->pTxBuffPtr += sizeof(uint16_t);
 6529              		.loc 1 3218 0
 6530 0014 7B68     		ldr	r3, [r7, #4]
 6531 0016 9B6B     		ldr	r3, [r3, #56]
 6532 0018 9A1C     		adds	r2, r3, #2
 6533 001a 7B68     		ldr	r3, [r7, #4]
 6534 001c 9A63     		str	r2, [r3, #56]
3219:E:/LiteOS/LiteOS_Lab/drivers/third_party/ST/STM32L4xx_HAL_Driver/Src\stm32l4xx_hal_spi.c ****   hspi->TxXferCount--;
 6535              		.loc 1 3219 0
 6536 001e 7B68     		ldr	r3, [r7, #4]
 6537 0020 DB8F     		ldrh	r3, [r3, #62]	@ movhi
 6538 0022 9BB2     		uxth	r3, r3
 6539 0024 013B     		subs	r3, r3, #1
 6540 0026 9AB2     		uxth	r2, r3
 6541 0028 7B68     		ldr	r3, [r7, #4]
 6542 002a DA87     		strh	r2, [r3, #62]	@ movhi
3220:E:/LiteOS/LiteOS_Lab/drivers/third_party/ST/STM32L4xx_HAL_Driver/Src\stm32l4xx_hal_spi.c **** 
3221:E:/LiteOS/LiteOS_Lab/drivers/third_party/ST/STM32L4xx_HAL_Driver/Src\stm32l4xx_hal_spi.c ****   /* Enable CRC Transmission */
ARM GAS  C:\Users\user\AppData\Local\Temp\ccvQ1M9B.s 			page 171


3222:E:/LiteOS/LiteOS_Lab/drivers/third_party/ST/STM32L4xx_HAL_Driver/Src\stm32l4xx_hal_spi.c ****   if (hspi->TxXferCount == 0U)
 6543              		.loc 1 3222 0
 6544 002c 7B68     		ldr	r3, [r7, #4]
 6545 002e DB8F     		ldrh	r3, [r3, #62]	@ movhi
 6546 0030 9BB2     		uxth	r3, r3
 6547 0032 002B     		cmp	r3, #0
 6548 0034 10D1     		bne	.L328
3223:E:/LiteOS/LiteOS_Lab/drivers/third_party/ST/STM32L4xx_HAL_Driver/Src\stm32l4xx_hal_spi.c ****   {
3224:E:/LiteOS/LiteOS_Lab/drivers/third_party/ST/STM32L4xx_HAL_Driver/Src\stm32l4xx_hal_spi.c **** #if (USE_SPI_CRC != 0U)
3225:E:/LiteOS/LiteOS_Lab/drivers/third_party/ST/STM32L4xx_HAL_Driver/Src\stm32l4xx_hal_spi.c ****     if (hspi->Init.CRCCalculation == SPI_CRCCALCULATION_ENABLE)
3226:E:/LiteOS/LiteOS_Lab/drivers/third_party/ST/STM32L4xx_HAL_Driver/Src\stm32l4xx_hal_spi.c ****     {
3227:E:/LiteOS/LiteOS_Lab/drivers/third_party/ST/STM32L4xx_HAL_Driver/Src\stm32l4xx_hal_spi.c ****       /* Set CRC Next Bit to send CRC */
3228:E:/LiteOS/LiteOS_Lab/drivers/third_party/ST/STM32L4xx_HAL_Driver/Src\stm32l4xx_hal_spi.c ****       SET_BIT(hspi->Instance->CR1, SPI_CR1_CRCNEXT);
3229:E:/LiteOS/LiteOS_Lab/drivers/third_party/ST/STM32L4xx_HAL_Driver/Src\stm32l4xx_hal_spi.c ****       /* Disable TXE interrupt */
3230:E:/LiteOS/LiteOS_Lab/drivers/third_party/ST/STM32L4xx_HAL_Driver/Src\stm32l4xx_hal_spi.c ****       __HAL_SPI_DISABLE_IT(hspi, SPI_IT_TXE);
3231:E:/LiteOS/LiteOS_Lab/drivers/third_party/ST/STM32L4xx_HAL_Driver/Src\stm32l4xx_hal_spi.c ****       return;
3232:E:/LiteOS/LiteOS_Lab/drivers/third_party/ST/STM32L4xx_HAL_Driver/Src\stm32l4xx_hal_spi.c ****     }
3233:E:/LiteOS/LiteOS_Lab/drivers/third_party/ST/STM32L4xx_HAL_Driver/Src\stm32l4xx_hal_spi.c **** #endif /* USE_SPI_CRC */
3234:E:/LiteOS/LiteOS_Lab/drivers/third_party/ST/STM32L4xx_HAL_Driver/Src\stm32l4xx_hal_spi.c **** 
3235:E:/LiteOS/LiteOS_Lab/drivers/third_party/ST/STM32L4xx_HAL_Driver/Src\stm32l4xx_hal_spi.c ****     /* Disable TXE interrupt */
3236:E:/LiteOS/LiteOS_Lab/drivers/third_party/ST/STM32L4xx_HAL_Driver/Src\stm32l4xx_hal_spi.c ****     __HAL_SPI_DISABLE_IT(hspi, SPI_IT_TXE);
 6549              		.loc 1 3236 0
 6550 0036 7B68     		ldr	r3, [r7, #4]
 6551 0038 1B68     		ldr	r3, [r3]
 6552 003a 5A68     		ldr	r2, [r3, #4]
 6553 003c 7B68     		ldr	r3, [r7, #4]
 6554 003e 1B68     		ldr	r3, [r3]
 6555 0040 22F08002 		bic	r2, r2, #128
 6556 0044 5A60     		str	r2, [r3, #4]
3237:E:/LiteOS/LiteOS_Lab/drivers/third_party/ST/STM32L4xx_HAL_Driver/Src\stm32l4xx_hal_spi.c **** 
3238:E:/LiteOS/LiteOS_Lab/drivers/third_party/ST/STM32L4xx_HAL_Driver/Src\stm32l4xx_hal_spi.c ****     if (hspi->RxXferCount == 0U)
 6557              		.loc 1 3238 0
 6558 0046 7B68     		ldr	r3, [r7, #4]
 6559 0048 B3F84630 		ldrh	r3, [r3, #70]	@ movhi
 6560 004c 9BB2     		uxth	r3, r3
 6561 004e 002B     		cmp	r3, #0
 6562 0050 02D1     		bne	.L328
3239:E:/LiteOS/LiteOS_Lab/drivers/third_party/ST/STM32L4xx_HAL_Driver/Src\stm32l4xx_hal_spi.c ****     {
3240:E:/LiteOS/LiteOS_Lab/drivers/third_party/ST/STM32L4xx_HAL_Driver/Src\stm32l4xx_hal_spi.c ****       SPI_CloseRxTx_ISR(hspi);
 6563              		.loc 1 3240 0
 6564 0052 7868     		ldr	r0, [r7, #4]
 6565 0054 FFF7FEFF 		bl	SPI_CloseRxTx_ISR
 6566              	.L328:
3241:E:/LiteOS/LiteOS_Lab/drivers/third_party/ST/STM32L4xx_HAL_Driver/Src\stm32l4xx_hal_spi.c ****     }
3242:E:/LiteOS/LiteOS_Lab/drivers/third_party/ST/STM32L4xx_HAL_Driver/Src\stm32l4xx_hal_spi.c ****   }
3243:E:/LiteOS/LiteOS_Lab/drivers/third_party/ST/STM32L4xx_HAL_Driver/Src\stm32l4xx_hal_spi.c **** }
 6567              		.loc 1 3243 0
 6568 0058 00BF     		nop
 6569 005a 0837     		adds	r7, r7, #8
 6570              	.LCFI229:
 6571              		.cfi_def_cfa_offset 8
 6572 005c BD46     		mov	sp, r7
 6573              	.LCFI230:
 6574              		.cfi_def_cfa_register 13
 6575              		@ sp needed
 6576 005e 80BD     		pop	{r7, pc}
 6577              		.cfi_endproc
ARM GAS  C:\Users\user\AppData\Local\Temp\ccvQ1M9B.s 			page 172


 6578              	.LFE175:
 6580              		.section	.text.SPI_RxISR_8BIT,"ax",%progbits
 6581              		.align	1
 6582              		.syntax unified
 6583              		.thumb
 6584              		.thumb_func
 6585              		.fpu fpv4-sp-d16
 6587              	SPI_RxISR_8BIT:
 6588              	.LFB176:
3244:E:/LiteOS/LiteOS_Lab/drivers/third_party/ST/STM32L4xx_HAL_Driver/Src\stm32l4xx_hal_spi.c **** 
3245:E:/LiteOS/LiteOS_Lab/drivers/third_party/ST/STM32L4xx_HAL_Driver/Src\stm32l4xx_hal_spi.c **** #if (USE_SPI_CRC != 0U)
3246:E:/LiteOS/LiteOS_Lab/drivers/third_party/ST/STM32L4xx_HAL_Driver/Src\stm32l4xx_hal_spi.c **** /**
3247:E:/LiteOS/LiteOS_Lab/drivers/third_party/ST/STM32L4xx_HAL_Driver/Src\stm32l4xx_hal_spi.c ****   * @brief  Manage the CRC 8-bit receive in Interrupt context.
3248:E:/LiteOS/LiteOS_Lab/drivers/third_party/ST/STM32L4xx_HAL_Driver/Src\stm32l4xx_hal_spi.c ****   * @param  hspi pointer to a SPI_HandleTypeDef structure that contains
3249:E:/LiteOS/LiteOS_Lab/drivers/third_party/ST/STM32L4xx_HAL_Driver/Src\stm32l4xx_hal_spi.c ****   *               the configuration information for SPI module.
3250:E:/LiteOS/LiteOS_Lab/drivers/third_party/ST/STM32L4xx_HAL_Driver/Src\stm32l4xx_hal_spi.c ****   * @retval None
3251:E:/LiteOS/LiteOS_Lab/drivers/third_party/ST/STM32L4xx_HAL_Driver/Src\stm32l4xx_hal_spi.c ****   */
3252:E:/LiteOS/LiteOS_Lab/drivers/third_party/ST/STM32L4xx_HAL_Driver/Src\stm32l4xx_hal_spi.c **** static void SPI_RxISR_8BITCRC(struct __SPI_HandleTypeDef *hspi)
3253:E:/LiteOS/LiteOS_Lab/drivers/third_party/ST/STM32L4xx_HAL_Driver/Src\stm32l4xx_hal_spi.c **** {
3254:E:/LiteOS/LiteOS_Lab/drivers/third_party/ST/STM32L4xx_HAL_Driver/Src\stm32l4xx_hal_spi.c ****   __IO uint8_t tmpreg = 0U;
3255:E:/LiteOS/LiteOS_Lab/drivers/third_party/ST/STM32L4xx_HAL_Driver/Src\stm32l4xx_hal_spi.c **** 
3256:E:/LiteOS/LiteOS_Lab/drivers/third_party/ST/STM32L4xx_HAL_Driver/Src\stm32l4xx_hal_spi.c ****   /* Read data register to flush CRC */
3257:E:/LiteOS/LiteOS_Lab/drivers/third_party/ST/STM32L4xx_HAL_Driver/Src\stm32l4xx_hal_spi.c ****   tmpreg = *((__IO uint8_t *)&hspi->Instance->DR);
3258:E:/LiteOS/LiteOS_Lab/drivers/third_party/ST/STM32L4xx_HAL_Driver/Src\stm32l4xx_hal_spi.c **** 
3259:E:/LiteOS/LiteOS_Lab/drivers/third_party/ST/STM32L4xx_HAL_Driver/Src\stm32l4xx_hal_spi.c ****   /* To avoid GCC warning */
3260:E:/LiteOS/LiteOS_Lab/drivers/third_party/ST/STM32L4xx_HAL_Driver/Src\stm32l4xx_hal_spi.c ****   UNUSED(tmpreg);
3261:E:/LiteOS/LiteOS_Lab/drivers/third_party/ST/STM32L4xx_HAL_Driver/Src\stm32l4xx_hal_spi.c **** 
3262:E:/LiteOS/LiteOS_Lab/drivers/third_party/ST/STM32L4xx_HAL_Driver/Src\stm32l4xx_hal_spi.c ****   hspi->CRCSize--;
3263:E:/LiteOS/LiteOS_Lab/drivers/third_party/ST/STM32L4xx_HAL_Driver/Src\stm32l4xx_hal_spi.c **** 
3264:E:/LiteOS/LiteOS_Lab/drivers/third_party/ST/STM32L4xx_HAL_Driver/Src\stm32l4xx_hal_spi.c ****   if (hspi->CRCSize == 0U)
3265:E:/LiteOS/LiteOS_Lab/drivers/third_party/ST/STM32L4xx_HAL_Driver/Src\stm32l4xx_hal_spi.c ****   {
3266:E:/LiteOS/LiteOS_Lab/drivers/third_party/ST/STM32L4xx_HAL_Driver/Src\stm32l4xx_hal_spi.c ****     SPI_CloseRx_ISR(hspi);
3267:E:/LiteOS/LiteOS_Lab/drivers/third_party/ST/STM32L4xx_HAL_Driver/Src\stm32l4xx_hal_spi.c ****   }
3268:E:/LiteOS/LiteOS_Lab/drivers/third_party/ST/STM32L4xx_HAL_Driver/Src\stm32l4xx_hal_spi.c **** }
3269:E:/LiteOS/LiteOS_Lab/drivers/third_party/ST/STM32L4xx_HAL_Driver/Src\stm32l4xx_hal_spi.c **** #endif /* USE_SPI_CRC */
3270:E:/LiteOS/LiteOS_Lab/drivers/third_party/ST/STM32L4xx_HAL_Driver/Src\stm32l4xx_hal_spi.c **** 
3271:E:/LiteOS/LiteOS_Lab/drivers/third_party/ST/STM32L4xx_HAL_Driver/Src\stm32l4xx_hal_spi.c **** /**
3272:E:/LiteOS/LiteOS_Lab/drivers/third_party/ST/STM32L4xx_HAL_Driver/Src\stm32l4xx_hal_spi.c ****   * @brief  Manage the receive 8-bit in Interrupt context.
3273:E:/LiteOS/LiteOS_Lab/drivers/third_party/ST/STM32L4xx_HAL_Driver/Src\stm32l4xx_hal_spi.c ****   * @param  hspi pointer to a SPI_HandleTypeDef structure that contains
3274:E:/LiteOS/LiteOS_Lab/drivers/third_party/ST/STM32L4xx_HAL_Driver/Src\stm32l4xx_hal_spi.c ****   *               the configuration information for SPI module.
3275:E:/LiteOS/LiteOS_Lab/drivers/third_party/ST/STM32L4xx_HAL_Driver/Src\stm32l4xx_hal_spi.c ****   * @retval None
3276:E:/LiteOS/LiteOS_Lab/drivers/third_party/ST/STM32L4xx_HAL_Driver/Src\stm32l4xx_hal_spi.c ****   */
3277:E:/LiteOS/LiteOS_Lab/drivers/third_party/ST/STM32L4xx_HAL_Driver/Src\stm32l4xx_hal_spi.c **** static void SPI_RxISR_8BIT(struct __SPI_HandleTypeDef *hspi)
3278:E:/LiteOS/LiteOS_Lab/drivers/third_party/ST/STM32L4xx_HAL_Driver/Src\stm32l4xx_hal_spi.c **** {
 6589              		.loc 1 3278 0
 6590              		.cfi_startproc
 6591              		@ args = 0, pretend = 0, frame = 8
 6592              		@ frame_needed = 1, uses_anonymous_args = 0
 6593 0000 80B5     		push	{r7, lr}
 6594              	.LCFI231:
 6595              		.cfi_def_cfa_offset 8
 6596              		.cfi_offset 7, -8
 6597              		.cfi_offset 14, -4
 6598 0002 82B0     		sub	sp, sp, #8
 6599              	.LCFI232:
 6600              		.cfi_def_cfa_offset 16
 6601 0004 00AF     		add	r7, sp, #0
ARM GAS  C:\Users\user\AppData\Local\Temp\ccvQ1M9B.s 			page 173


 6602              	.LCFI233:
 6603              		.cfi_def_cfa_register 7
 6604 0006 7860     		str	r0, [r7, #4]
3279:E:/LiteOS/LiteOS_Lab/drivers/third_party/ST/STM32L4xx_HAL_Driver/Src\stm32l4xx_hal_spi.c ****   *hspi->pRxBuffPtr++ = (*(__IO uint8_t *)&hspi->Instance->DR);
 6605              		.loc 1 3279 0
 6606 0008 7B68     		ldr	r3, [r7, #4]
 6607 000a 1B68     		ldr	r3, [r3]
 6608 000c 03F10C02 		add	r2, r3, #12
 6609 0010 7B68     		ldr	r3, [r7, #4]
 6610 0012 1B6C     		ldr	r3, [r3, #64]
 6611 0014 581C     		adds	r0, r3, #1
 6612 0016 7968     		ldr	r1, [r7, #4]
 6613 0018 0864     		str	r0, [r1, #64]
 6614 001a 1278     		ldrb	r2, [r2]
 6615 001c D2B2     		uxtb	r2, r2
 6616 001e 1A70     		strb	r2, [r3]
3280:E:/LiteOS/LiteOS_Lab/drivers/third_party/ST/STM32L4xx_HAL_Driver/Src\stm32l4xx_hal_spi.c ****   hspi->RxXferCount--;
 6617              		.loc 1 3280 0
 6618 0020 7B68     		ldr	r3, [r7, #4]
 6619 0022 B3F84630 		ldrh	r3, [r3, #70]	@ movhi
 6620 0026 9BB2     		uxth	r3, r3
 6621 0028 013B     		subs	r3, r3, #1
 6622 002a 9AB2     		uxth	r2, r3
 6623 002c 7B68     		ldr	r3, [r7, #4]
 6624 002e A3F84620 		strh	r2, [r3, #70]	@ movhi
3281:E:/LiteOS/LiteOS_Lab/drivers/third_party/ST/STM32L4xx_HAL_Driver/Src\stm32l4xx_hal_spi.c **** 
3282:E:/LiteOS/LiteOS_Lab/drivers/third_party/ST/STM32L4xx_HAL_Driver/Src\stm32l4xx_hal_spi.c **** #if (USE_SPI_CRC != 0U)
3283:E:/LiteOS/LiteOS_Lab/drivers/third_party/ST/STM32L4xx_HAL_Driver/Src\stm32l4xx_hal_spi.c ****   /* Enable CRC Transmission */
3284:E:/LiteOS/LiteOS_Lab/drivers/third_party/ST/STM32L4xx_HAL_Driver/Src\stm32l4xx_hal_spi.c ****   if ((hspi->RxXferCount == 1U) && (hspi->Init.CRCCalculation == SPI_CRCCALCULATION_ENABLE))
3285:E:/LiteOS/LiteOS_Lab/drivers/third_party/ST/STM32L4xx_HAL_Driver/Src\stm32l4xx_hal_spi.c ****   {
3286:E:/LiteOS/LiteOS_Lab/drivers/third_party/ST/STM32L4xx_HAL_Driver/Src\stm32l4xx_hal_spi.c ****     SET_BIT(hspi->Instance->CR1, SPI_CR1_CRCNEXT);
3287:E:/LiteOS/LiteOS_Lab/drivers/third_party/ST/STM32L4xx_HAL_Driver/Src\stm32l4xx_hal_spi.c ****   }
3288:E:/LiteOS/LiteOS_Lab/drivers/third_party/ST/STM32L4xx_HAL_Driver/Src\stm32l4xx_hal_spi.c **** #endif /* USE_SPI_CRC */
3289:E:/LiteOS/LiteOS_Lab/drivers/third_party/ST/STM32L4xx_HAL_Driver/Src\stm32l4xx_hal_spi.c **** 
3290:E:/LiteOS/LiteOS_Lab/drivers/third_party/ST/STM32L4xx_HAL_Driver/Src\stm32l4xx_hal_spi.c ****   if (hspi->RxXferCount == 0U)
 6625              		.loc 1 3290 0
 6626 0032 7B68     		ldr	r3, [r7, #4]
 6627 0034 B3F84630 		ldrh	r3, [r3, #70]	@ movhi
 6628 0038 9BB2     		uxth	r3, r3
 6629 003a 002B     		cmp	r3, #0
 6630 003c 02D1     		bne	.L331
3291:E:/LiteOS/LiteOS_Lab/drivers/third_party/ST/STM32L4xx_HAL_Driver/Src\stm32l4xx_hal_spi.c ****   {
3292:E:/LiteOS/LiteOS_Lab/drivers/third_party/ST/STM32L4xx_HAL_Driver/Src\stm32l4xx_hal_spi.c **** #if (USE_SPI_CRC != 0U)
3293:E:/LiteOS/LiteOS_Lab/drivers/third_party/ST/STM32L4xx_HAL_Driver/Src\stm32l4xx_hal_spi.c ****     if (hspi->Init.CRCCalculation == SPI_CRCCALCULATION_ENABLE)
3294:E:/LiteOS/LiteOS_Lab/drivers/third_party/ST/STM32L4xx_HAL_Driver/Src\stm32l4xx_hal_spi.c ****     {
3295:E:/LiteOS/LiteOS_Lab/drivers/third_party/ST/STM32L4xx_HAL_Driver/Src\stm32l4xx_hal_spi.c ****       hspi->RxISR =  SPI_RxISR_8BITCRC;
3296:E:/LiteOS/LiteOS_Lab/drivers/third_party/ST/STM32L4xx_HAL_Driver/Src\stm32l4xx_hal_spi.c ****       return;
3297:E:/LiteOS/LiteOS_Lab/drivers/third_party/ST/STM32L4xx_HAL_Driver/Src\stm32l4xx_hal_spi.c ****     }
3298:E:/LiteOS/LiteOS_Lab/drivers/third_party/ST/STM32L4xx_HAL_Driver/Src\stm32l4xx_hal_spi.c **** #endif /* USE_SPI_CRC */
3299:E:/LiteOS/LiteOS_Lab/drivers/third_party/ST/STM32L4xx_HAL_Driver/Src\stm32l4xx_hal_spi.c ****     SPI_CloseRx_ISR(hspi);
 6631              		.loc 1 3299 0
 6632 003e 7868     		ldr	r0, [r7, #4]
 6633 0040 FFF7FEFF 		bl	SPI_CloseRx_ISR
 6634              	.L331:
3300:E:/LiteOS/LiteOS_Lab/drivers/third_party/ST/STM32L4xx_HAL_Driver/Src\stm32l4xx_hal_spi.c ****   }
3301:E:/LiteOS/LiteOS_Lab/drivers/third_party/ST/STM32L4xx_HAL_Driver/Src\stm32l4xx_hal_spi.c **** }
 6635              		.loc 1 3301 0
ARM GAS  C:\Users\user\AppData\Local\Temp\ccvQ1M9B.s 			page 174


 6636 0044 00BF     		nop
 6637 0046 0837     		adds	r7, r7, #8
 6638              	.LCFI234:
 6639              		.cfi_def_cfa_offset 8
 6640 0048 BD46     		mov	sp, r7
 6641              	.LCFI235:
 6642              		.cfi_def_cfa_register 13
 6643              		@ sp needed
 6644 004a 80BD     		pop	{r7, pc}
 6645              		.cfi_endproc
 6646              	.LFE176:
 6648              		.section	.text.SPI_RxISR_16BIT,"ax",%progbits
 6649              		.align	1
 6650              		.syntax unified
 6651              		.thumb
 6652              		.thumb_func
 6653              		.fpu fpv4-sp-d16
 6655              	SPI_RxISR_16BIT:
 6656              	.LFB177:
3302:E:/LiteOS/LiteOS_Lab/drivers/third_party/ST/STM32L4xx_HAL_Driver/Src\stm32l4xx_hal_spi.c **** 
3303:E:/LiteOS/LiteOS_Lab/drivers/third_party/ST/STM32L4xx_HAL_Driver/Src\stm32l4xx_hal_spi.c **** #if (USE_SPI_CRC != 0U)
3304:E:/LiteOS/LiteOS_Lab/drivers/third_party/ST/STM32L4xx_HAL_Driver/Src\stm32l4xx_hal_spi.c **** /**
3305:E:/LiteOS/LiteOS_Lab/drivers/third_party/ST/STM32L4xx_HAL_Driver/Src\stm32l4xx_hal_spi.c ****   * @brief  Manage the CRC 16-bit receive in Interrupt context.
3306:E:/LiteOS/LiteOS_Lab/drivers/third_party/ST/STM32L4xx_HAL_Driver/Src\stm32l4xx_hal_spi.c ****   * @param  hspi pointer to a SPI_HandleTypeDef structure that contains
3307:E:/LiteOS/LiteOS_Lab/drivers/third_party/ST/STM32L4xx_HAL_Driver/Src\stm32l4xx_hal_spi.c ****   *               the configuration information for SPI module.
3308:E:/LiteOS/LiteOS_Lab/drivers/third_party/ST/STM32L4xx_HAL_Driver/Src\stm32l4xx_hal_spi.c ****   * @retval None
3309:E:/LiteOS/LiteOS_Lab/drivers/third_party/ST/STM32L4xx_HAL_Driver/Src\stm32l4xx_hal_spi.c ****   */
3310:E:/LiteOS/LiteOS_Lab/drivers/third_party/ST/STM32L4xx_HAL_Driver/Src\stm32l4xx_hal_spi.c **** static void SPI_RxISR_16BITCRC(struct __SPI_HandleTypeDef *hspi)
3311:E:/LiteOS/LiteOS_Lab/drivers/third_party/ST/STM32L4xx_HAL_Driver/Src\stm32l4xx_hal_spi.c **** {
3312:E:/LiteOS/LiteOS_Lab/drivers/third_party/ST/STM32L4xx_HAL_Driver/Src\stm32l4xx_hal_spi.c ****   __IO uint16_t tmpreg = 0U;
3313:E:/LiteOS/LiteOS_Lab/drivers/third_party/ST/STM32L4xx_HAL_Driver/Src\stm32l4xx_hal_spi.c **** 
3314:E:/LiteOS/LiteOS_Lab/drivers/third_party/ST/STM32L4xx_HAL_Driver/Src\stm32l4xx_hal_spi.c ****   /* Read data register to flush CRC */
3315:E:/LiteOS/LiteOS_Lab/drivers/third_party/ST/STM32L4xx_HAL_Driver/Src\stm32l4xx_hal_spi.c ****   tmpreg = hspi->Instance->DR;
3316:E:/LiteOS/LiteOS_Lab/drivers/third_party/ST/STM32L4xx_HAL_Driver/Src\stm32l4xx_hal_spi.c **** 
3317:E:/LiteOS/LiteOS_Lab/drivers/third_party/ST/STM32L4xx_HAL_Driver/Src\stm32l4xx_hal_spi.c ****   /* To avoid GCC warning */
3318:E:/LiteOS/LiteOS_Lab/drivers/third_party/ST/STM32L4xx_HAL_Driver/Src\stm32l4xx_hal_spi.c ****   UNUSED(tmpreg);
3319:E:/LiteOS/LiteOS_Lab/drivers/third_party/ST/STM32L4xx_HAL_Driver/Src\stm32l4xx_hal_spi.c **** 
3320:E:/LiteOS/LiteOS_Lab/drivers/third_party/ST/STM32L4xx_HAL_Driver/Src\stm32l4xx_hal_spi.c ****   /* Disable RXNE and ERR interrupt */
3321:E:/LiteOS/LiteOS_Lab/drivers/third_party/ST/STM32L4xx_HAL_Driver/Src\stm32l4xx_hal_spi.c ****   __HAL_SPI_DISABLE_IT(hspi, (SPI_IT_RXNE | SPI_IT_ERR));
3322:E:/LiteOS/LiteOS_Lab/drivers/third_party/ST/STM32L4xx_HAL_Driver/Src\stm32l4xx_hal_spi.c **** 
3323:E:/LiteOS/LiteOS_Lab/drivers/third_party/ST/STM32L4xx_HAL_Driver/Src\stm32l4xx_hal_spi.c ****   SPI_CloseRx_ISR(hspi);
3324:E:/LiteOS/LiteOS_Lab/drivers/third_party/ST/STM32L4xx_HAL_Driver/Src\stm32l4xx_hal_spi.c **** }
3325:E:/LiteOS/LiteOS_Lab/drivers/third_party/ST/STM32L4xx_HAL_Driver/Src\stm32l4xx_hal_spi.c **** #endif /* USE_SPI_CRC */
3326:E:/LiteOS/LiteOS_Lab/drivers/third_party/ST/STM32L4xx_HAL_Driver/Src\stm32l4xx_hal_spi.c **** 
3327:E:/LiteOS/LiteOS_Lab/drivers/third_party/ST/STM32L4xx_HAL_Driver/Src\stm32l4xx_hal_spi.c **** /**
3328:E:/LiteOS/LiteOS_Lab/drivers/third_party/ST/STM32L4xx_HAL_Driver/Src\stm32l4xx_hal_spi.c ****   * @brief  Manage the 16-bit receive in Interrupt context.
3329:E:/LiteOS/LiteOS_Lab/drivers/third_party/ST/STM32L4xx_HAL_Driver/Src\stm32l4xx_hal_spi.c ****   * @param  hspi pointer to a SPI_HandleTypeDef structure that contains
3330:E:/LiteOS/LiteOS_Lab/drivers/third_party/ST/STM32L4xx_HAL_Driver/Src\stm32l4xx_hal_spi.c ****   *               the configuration information for SPI module.
3331:E:/LiteOS/LiteOS_Lab/drivers/third_party/ST/STM32L4xx_HAL_Driver/Src\stm32l4xx_hal_spi.c ****   * @retval None
3332:E:/LiteOS/LiteOS_Lab/drivers/third_party/ST/STM32L4xx_HAL_Driver/Src\stm32l4xx_hal_spi.c ****   */
3333:E:/LiteOS/LiteOS_Lab/drivers/third_party/ST/STM32L4xx_HAL_Driver/Src\stm32l4xx_hal_spi.c **** static void SPI_RxISR_16BIT(struct __SPI_HandleTypeDef *hspi)
3334:E:/LiteOS/LiteOS_Lab/drivers/third_party/ST/STM32L4xx_HAL_Driver/Src\stm32l4xx_hal_spi.c **** {
 6657              		.loc 1 3334 0
 6658              		.cfi_startproc
 6659              		@ args = 0, pretend = 0, frame = 8
 6660              		@ frame_needed = 1, uses_anonymous_args = 0
 6661 0000 80B5     		push	{r7, lr}
ARM GAS  C:\Users\user\AppData\Local\Temp\ccvQ1M9B.s 			page 175


 6662              	.LCFI236:
 6663              		.cfi_def_cfa_offset 8
 6664              		.cfi_offset 7, -8
 6665              		.cfi_offset 14, -4
 6666 0002 82B0     		sub	sp, sp, #8
 6667              	.LCFI237:
 6668              		.cfi_def_cfa_offset 16
 6669 0004 00AF     		add	r7, sp, #0
 6670              	.LCFI238:
 6671              		.cfi_def_cfa_register 7
 6672 0006 7860     		str	r0, [r7, #4]
3335:E:/LiteOS/LiteOS_Lab/drivers/third_party/ST/STM32L4xx_HAL_Driver/Src\stm32l4xx_hal_spi.c ****   *((uint16_t *)hspi->pRxBuffPtr) = hspi->Instance->DR;
 6673              		.loc 1 3335 0
 6674 0008 7B68     		ldr	r3, [r7, #4]
 6675 000a 1B68     		ldr	r3, [r3]
 6676 000c DA68     		ldr	r2, [r3, #12]
 6677 000e 7B68     		ldr	r3, [r7, #4]
 6678 0010 1B6C     		ldr	r3, [r3, #64]
 6679 0012 92B2     		uxth	r2, r2
 6680 0014 1A80     		strh	r2, [r3]	@ movhi
3336:E:/LiteOS/LiteOS_Lab/drivers/third_party/ST/STM32L4xx_HAL_Driver/Src\stm32l4xx_hal_spi.c ****   hspi->pRxBuffPtr += sizeof(uint16_t);
 6681              		.loc 1 3336 0
 6682 0016 7B68     		ldr	r3, [r7, #4]
 6683 0018 1B6C     		ldr	r3, [r3, #64]
 6684 001a 9A1C     		adds	r2, r3, #2
 6685 001c 7B68     		ldr	r3, [r7, #4]
 6686 001e 1A64     		str	r2, [r3, #64]
3337:E:/LiteOS/LiteOS_Lab/drivers/third_party/ST/STM32L4xx_HAL_Driver/Src\stm32l4xx_hal_spi.c ****   hspi->RxXferCount--;
 6687              		.loc 1 3337 0
 6688 0020 7B68     		ldr	r3, [r7, #4]
 6689 0022 B3F84630 		ldrh	r3, [r3, #70]	@ movhi
 6690 0026 9BB2     		uxth	r3, r3
 6691 0028 013B     		subs	r3, r3, #1
 6692 002a 9AB2     		uxth	r2, r3
 6693 002c 7B68     		ldr	r3, [r7, #4]
 6694 002e A3F84620 		strh	r2, [r3, #70]	@ movhi
3338:E:/LiteOS/LiteOS_Lab/drivers/third_party/ST/STM32L4xx_HAL_Driver/Src\stm32l4xx_hal_spi.c **** 
3339:E:/LiteOS/LiteOS_Lab/drivers/third_party/ST/STM32L4xx_HAL_Driver/Src\stm32l4xx_hal_spi.c **** #if (USE_SPI_CRC != 0U)
3340:E:/LiteOS/LiteOS_Lab/drivers/third_party/ST/STM32L4xx_HAL_Driver/Src\stm32l4xx_hal_spi.c ****   /* Enable CRC Transmission */
3341:E:/LiteOS/LiteOS_Lab/drivers/third_party/ST/STM32L4xx_HAL_Driver/Src\stm32l4xx_hal_spi.c ****   if ((hspi->RxXferCount == 1U) && (hspi->Init.CRCCalculation == SPI_CRCCALCULATION_ENABLE))
3342:E:/LiteOS/LiteOS_Lab/drivers/third_party/ST/STM32L4xx_HAL_Driver/Src\stm32l4xx_hal_spi.c ****   {
3343:E:/LiteOS/LiteOS_Lab/drivers/third_party/ST/STM32L4xx_HAL_Driver/Src\stm32l4xx_hal_spi.c ****     SET_BIT(hspi->Instance->CR1, SPI_CR1_CRCNEXT);
3344:E:/LiteOS/LiteOS_Lab/drivers/third_party/ST/STM32L4xx_HAL_Driver/Src\stm32l4xx_hal_spi.c ****   }
3345:E:/LiteOS/LiteOS_Lab/drivers/third_party/ST/STM32L4xx_HAL_Driver/Src\stm32l4xx_hal_spi.c **** #endif /* USE_SPI_CRC */
3346:E:/LiteOS/LiteOS_Lab/drivers/third_party/ST/STM32L4xx_HAL_Driver/Src\stm32l4xx_hal_spi.c **** 
3347:E:/LiteOS/LiteOS_Lab/drivers/third_party/ST/STM32L4xx_HAL_Driver/Src\stm32l4xx_hal_spi.c ****   if (hspi->RxXferCount == 0U)
 6695              		.loc 1 3347 0
 6696 0032 7B68     		ldr	r3, [r7, #4]
 6697 0034 B3F84630 		ldrh	r3, [r3, #70]	@ movhi
 6698 0038 9BB2     		uxth	r3, r3
 6699 003a 002B     		cmp	r3, #0
 6700 003c 02D1     		bne	.L334
3348:E:/LiteOS/LiteOS_Lab/drivers/third_party/ST/STM32L4xx_HAL_Driver/Src\stm32l4xx_hal_spi.c ****   {
3349:E:/LiteOS/LiteOS_Lab/drivers/third_party/ST/STM32L4xx_HAL_Driver/Src\stm32l4xx_hal_spi.c **** #if (USE_SPI_CRC != 0U)
3350:E:/LiteOS/LiteOS_Lab/drivers/third_party/ST/STM32L4xx_HAL_Driver/Src\stm32l4xx_hal_spi.c ****     if (hspi->Init.CRCCalculation == SPI_CRCCALCULATION_ENABLE)
3351:E:/LiteOS/LiteOS_Lab/drivers/third_party/ST/STM32L4xx_HAL_Driver/Src\stm32l4xx_hal_spi.c ****     {
3352:E:/LiteOS/LiteOS_Lab/drivers/third_party/ST/STM32L4xx_HAL_Driver/Src\stm32l4xx_hal_spi.c ****       hspi->RxISR = SPI_RxISR_16BITCRC;
ARM GAS  C:\Users\user\AppData\Local\Temp\ccvQ1M9B.s 			page 176


3353:E:/LiteOS/LiteOS_Lab/drivers/third_party/ST/STM32L4xx_HAL_Driver/Src\stm32l4xx_hal_spi.c ****       return;
3354:E:/LiteOS/LiteOS_Lab/drivers/third_party/ST/STM32L4xx_HAL_Driver/Src\stm32l4xx_hal_spi.c ****     }
3355:E:/LiteOS/LiteOS_Lab/drivers/third_party/ST/STM32L4xx_HAL_Driver/Src\stm32l4xx_hal_spi.c **** #endif /* USE_SPI_CRC */
3356:E:/LiteOS/LiteOS_Lab/drivers/third_party/ST/STM32L4xx_HAL_Driver/Src\stm32l4xx_hal_spi.c ****     SPI_CloseRx_ISR(hspi);
 6701              		.loc 1 3356 0
 6702 003e 7868     		ldr	r0, [r7, #4]
 6703 0040 FFF7FEFF 		bl	SPI_CloseRx_ISR
 6704              	.L334:
3357:E:/LiteOS/LiteOS_Lab/drivers/third_party/ST/STM32L4xx_HAL_Driver/Src\stm32l4xx_hal_spi.c ****   }
3358:E:/LiteOS/LiteOS_Lab/drivers/third_party/ST/STM32L4xx_HAL_Driver/Src\stm32l4xx_hal_spi.c **** }
 6705              		.loc 1 3358 0
 6706 0044 00BF     		nop
 6707 0046 0837     		adds	r7, r7, #8
 6708              	.LCFI239:
 6709              		.cfi_def_cfa_offset 8
 6710 0048 BD46     		mov	sp, r7
 6711              	.LCFI240:
 6712              		.cfi_def_cfa_register 13
 6713              		@ sp needed
 6714 004a 80BD     		pop	{r7, pc}
 6715              		.cfi_endproc
 6716              	.LFE177:
 6718              		.section	.text.SPI_TxISR_8BIT,"ax",%progbits
 6719              		.align	1
 6720              		.syntax unified
 6721              		.thumb
 6722              		.thumb_func
 6723              		.fpu fpv4-sp-d16
 6725              	SPI_TxISR_8BIT:
 6726              	.LFB178:
3359:E:/LiteOS/LiteOS_Lab/drivers/third_party/ST/STM32L4xx_HAL_Driver/Src\stm32l4xx_hal_spi.c **** 
3360:E:/LiteOS/LiteOS_Lab/drivers/third_party/ST/STM32L4xx_HAL_Driver/Src\stm32l4xx_hal_spi.c **** /**
3361:E:/LiteOS/LiteOS_Lab/drivers/third_party/ST/STM32L4xx_HAL_Driver/Src\stm32l4xx_hal_spi.c ****   * @brief  Handle the data 8-bit transmit in Interrupt mode.
3362:E:/LiteOS/LiteOS_Lab/drivers/third_party/ST/STM32L4xx_HAL_Driver/Src\stm32l4xx_hal_spi.c ****   * @param  hspi pointer to a SPI_HandleTypeDef structure that contains
3363:E:/LiteOS/LiteOS_Lab/drivers/third_party/ST/STM32L4xx_HAL_Driver/Src\stm32l4xx_hal_spi.c ****   *               the configuration information for SPI module.
3364:E:/LiteOS/LiteOS_Lab/drivers/third_party/ST/STM32L4xx_HAL_Driver/Src\stm32l4xx_hal_spi.c ****   * @retval None
3365:E:/LiteOS/LiteOS_Lab/drivers/third_party/ST/STM32L4xx_HAL_Driver/Src\stm32l4xx_hal_spi.c ****   */
3366:E:/LiteOS/LiteOS_Lab/drivers/third_party/ST/STM32L4xx_HAL_Driver/Src\stm32l4xx_hal_spi.c **** static void SPI_TxISR_8BIT(struct __SPI_HandleTypeDef *hspi)
3367:E:/LiteOS/LiteOS_Lab/drivers/third_party/ST/STM32L4xx_HAL_Driver/Src\stm32l4xx_hal_spi.c **** {
 6727              		.loc 1 3367 0
 6728              		.cfi_startproc
 6729              		@ args = 0, pretend = 0, frame = 8
 6730              		@ frame_needed = 1, uses_anonymous_args = 0
 6731 0000 80B5     		push	{r7, lr}
 6732              	.LCFI241:
 6733              		.cfi_def_cfa_offset 8
 6734              		.cfi_offset 7, -8
 6735              		.cfi_offset 14, -4
 6736 0002 82B0     		sub	sp, sp, #8
 6737              	.LCFI242:
 6738              		.cfi_def_cfa_offset 16
 6739 0004 00AF     		add	r7, sp, #0
 6740              	.LCFI243:
 6741              		.cfi_def_cfa_register 7
 6742 0006 7860     		str	r0, [r7, #4]
3368:E:/LiteOS/LiteOS_Lab/drivers/third_party/ST/STM32L4xx_HAL_Driver/Src\stm32l4xx_hal_spi.c ****   *(__IO uint8_t *)&hspi->Instance->DR = (*hspi->pTxBuffPtr++);
 6743              		.loc 1 3368 0
ARM GAS  C:\Users\user\AppData\Local\Temp\ccvQ1M9B.s 			page 177


 6744 0008 7B68     		ldr	r3, [r7, #4]
 6745 000a 9B6B     		ldr	r3, [r3, #56]
 6746 000c 591C     		adds	r1, r3, #1
 6747 000e 7A68     		ldr	r2, [r7, #4]
 6748 0010 9163     		str	r1, [r2, #56]
 6749 0012 7A68     		ldr	r2, [r7, #4]
 6750 0014 1268     		ldr	r2, [r2]
 6751 0016 0C32     		adds	r2, r2, #12
 6752 0018 1B78     		ldrb	r3, [r3]	@ zero_extendqisi2
 6753 001a 1370     		strb	r3, [r2]
3369:E:/LiteOS/LiteOS_Lab/drivers/third_party/ST/STM32L4xx_HAL_Driver/Src\stm32l4xx_hal_spi.c ****   hspi->TxXferCount--;
 6754              		.loc 1 3369 0
 6755 001c 7B68     		ldr	r3, [r7, #4]
 6756 001e DB8F     		ldrh	r3, [r3, #62]	@ movhi
 6757 0020 9BB2     		uxth	r3, r3
 6758 0022 013B     		subs	r3, r3, #1
 6759 0024 9AB2     		uxth	r2, r3
 6760 0026 7B68     		ldr	r3, [r7, #4]
 6761 0028 DA87     		strh	r2, [r3, #62]	@ movhi
3370:E:/LiteOS/LiteOS_Lab/drivers/third_party/ST/STM32L4xx_HAL_Driver/Src\stm32l4xx_hal_spi.c **** 
3371:E:/LiteOS/LiteOS_Lab/drivers/third_party/ST/STM32L4xx_HAL_Driver/Src\stm32l4xx_hal_spi.c ****   if (hspi->TxXferCount == 0U)
 6762              		.loc 1 3371 0
 6763 002a 7B68     		ldr	r3, [r7, #4]
 6764 002c DB8F     		ldrh	r3, [r3, #62]	@ movhi
 6765 002e 9BB2     		uxth	r3, r3
 6766 0030 002B     		cmp	r3, #0
 6767 0032 02D1     		bne	.L337
3372:E:/LiteOS/LiteOS_Lab/drivers/third_party/ST/STM32L4xx_HAL_Driver/Src\stm32l4xx_hal_spi.c ****   {
3373:E:/LiteOS/LiteOS_Lab/drivers/third_party/ST/STM32L4xx_HAL_Driver/Src\stm32l4xx_hal_spi.c **** #if (USE_SPI_CRC != 0U)
3374:E:/LiteOS/LiteOS_Lab/drivers/third_party/ST/STM32L4xx_HAL_Driver/Src\stm32l4xx_hal_spi.c ****     if (hspi->Init.CRCCalculation == SPI_CRCCALCULATION_ENABLE)
3375:E:/LiteOS/LiteOS_Lab/drivers/third_party/ST/STM32L4xx_HAL_Driver/Src\stm32l4xx_hal_spi.c ****     {
3376:E:/LiteOS/LiteOS_Lab/drivers/third_party/ST/STM32L4xx_HAL_Driver/Src\stm32l4xx_hal_spi.c ****       /* Enable CRC Transmission */
3377:E:/LiteOS/LiteOS_Lab/drivers/third_party/ST/STM32L4xx_HAL_Driver/Src\stm32l4xx_hal_spi.c ****       SET_BIT(hspi->Instance->CR1, SPI_CR1_CRCNEXT);
3378:E:/LiteOS/LiteOS_Lab/drivers/third_party/ST/STM32L4xx_HAL_Driver/Src\stm32l4xx_hal_spi.c ****     }
3379:E:/LiteOS/LiteOS_Lab/drivers/third_party/ST/STM32L4xx_HAL_Driver/Src\stm32l4xx_hal_spi.c **** #endif /* USE_SPI_CRC */
3380:E:/LiteOS/LiteOS_Lab/drivers/third_party/ST/STM32L4xx_HAL_Driver/Src\stm32l4xx_hal_spi.c ****     SPI_CloseTx_ISR(hspi);
 6768              		.loc 1 3380 0
 6769 0034 7868     		ldr	r0, [r7, #4]
 6770 0036 FFF7FEFF 		bl	SPI_CloseTx_ISR
 6771              	.L337:
3381:E:/LiteOS/LiteOS_Lab/drivers/third_party/ST/STM32L4xx_HAL_Driver/Src\stm32l4xx_hal_spi.c ****   }
3382:E:/LiteOS/LiteOS_Lab/drivers/third_party/ST/STM32L4xx_HAL_Driver/Src\stm32l4xx_hal_spi.c **** }
 6772              		.loc 1 3382 0
 6773 003a 00BF     		nop
 6774 003c 0837     		adds	r7, r7, #8
 6775              	.LCFI244:
 6776              		.cfi_def_cfa_offset 8
 6777 003e BD46     		mov	sp, r7
 6778              	.LCFI245:
 6779              		.cfi_def_cfa_register 13
 6780              		@ sp needed
 6781 0040 80BD     		pop	{r7, pc}
 6782              		.cfi_endproc
 6783              	.LFE178:
 6785              		.section	.text.SPI_TxISR_16BIT,"ax",%progbits
 6786              		.align	1
 6787              		.syntax unified
ARM GAS  C:\Users\user\AppData\Local\Temp\ccvQ1M9B.s 			page 178


 6788              		.thumb
 6789              		.thumb_func
 6790              		.fpu fpv4-sp-d16
 6792              	SPI_TxISR_16BIT:
 6793              	.LFB179:
3383:E:/LiteOS/LiteOS_Lab/drivers/third_party/ST/STM32L4xx_HAL_Driver/Src\stm32l4xx_hal_spi.c **** 
3384:E:/LiteOS/LiteOS_Lab/drivers/third_party/ST/STM32L4xx_HAL_Driver/Src\stm32l4xx_hal_spi.c **** /**
3385:E:/LiteOS/LiteOS_Lab/drivers/third_party/ST/STM32L4xx_HAL_Driver/Src\stm32l4xx_hal_spi.c ****   * @brief  Handle the data 16-bit transmit in Interrupt mode.
3386:E:/LiteOS/LiteOS_Lab/drivers/third_party/ST/STM32L4xx_HAL_Driver/Src\stm32l4xx_hal_spi.c ****   * @param  hspi pointer to a SPI_HandleTypeDef structure that contains
3387:E:/LiteOS/LiteOS_Lab/drivers/third_party/ST/STM32L4xx_HAL_Driver/Src\stm32l4xx_hal_spi.c ****   *               the configuration information for SPI module.
3388:E:/LiteOS/LiteOS_Lab/drivers/third_party/ST/STM32L4xx_HAL_Driver/Src\stm32l4xx_hal_spi.c ****   * @retval None
3389:E:/LiteOS/LiteOS_Lab/drivers/third_party/ST/STM32L4xx_HAL_Driver/Src\stm32l4xx_hal_spi.c ****   */
3390:E:/LiteOS/LiteOS_Lab/drivers/third_party/ST/STM32L4xx_HAL_Driver/Src\stm32l4xx_hal_spi.c **** static void SPI_TxISR_16BIT(struct __SPI_HandleTypeDef *hspi)
3391:E:/LiteOS/LiteOS_Lab/drivers/third_party/ST/STM32L4xx_HAL_Driver/Src\stm32l4xx_hal_spi.c **** {
 6794              		.loc 1 3391 0
 6795              		.cfi_startproc
 6796              		@ args = 0, pretend = 0, frame = 8
 6797              		@ frame_needed = 1, uses_anonymous_args = 0
 6798 0000 80B5     		push	{r7, lr}
 6799              	.LCFI246:
 6800              		.cfi_def_cfa_offset 8
 6801              		.cfi_offset 7, -8
 6802              		.cfi_offset 14, -4
 6803 0002 82B0     		sub	sp, sp, #8
 6804              	.LCFI247:
 6805              		.cfi_def_cfa_offset 16
 6806 0004 00AF     		add	r7, sp, #0
 6807              	.LCFI248:
 6808              		.cfi_def_cfa_register 7
 6809 0006 7860     		str	r0, [r7, #4]
3392:E:/LiteOS/LiteOS_Lab/drivers/third_party/ST/STM32L4xx_HAL_Driver/Src\stm32l4xx_hal_spi.c ****   /* Transmit data in 16 Bit mode */
3393:E:/LiteOS/LiteOS_Lab/drivers/third_party/ST/STM32L4xx_HAL_Driver/Src\stm32l4xx_hal_spi.c ****   hspi->Instance->DR = *((uint16_t *)hspi->pTxBuffPtr);
 6810              		.loc 1 3393 0
 6811 0008 7B68     		ldr	r3, [r7, #4]
 6812 000a 9B6B     		ldr	r3, [r3, #56]
 6813 000c 1A88     		ldrh	r2, [r3]
 6814 000e 7B68     		ldr	r3, [r7, #4]
 6815 0010 1B68     		ldr	r3, [r3]
 6816 0012 DA60     		str	r2, [r3, #12]
3394:E:/LiteOS/LiteOS_Lab/drivers/third_party/ST/STM32L4xx_HAL_Driver/Src\stm32l4xx_hal_spi.c ****   hspi->pTxBuffPtr += sizeof(uint16_t);
 6817              		.loc 1 3394 0
 6818 0014 7B68     		ldr	r3, [r7, #4]
 6819 0016 9B6B     		ldr	r3, [r3, #56]
 6820 0018 9A1C     		adds	r2, r3, #2
 6821 001a 7B68     		ldr	r3, [r7, #4]
 6822 001c 9A63     		str	r2, [r3, #56]
3395:E:/LiteOS/LiteOS_Lab/drivers/third_party/ST/STM32L4xx_HAL_Driver/Src\stm32l4xx_hal_spi.c ****   hspi->TxXferCount--;
 6823              		.loc 1 3395 0
 6824 001e 7B68     		ldr	r3, [r7, #4]
 6825 0020 DB8F     		ldrh	r3, [r3, #62]	@ movhi
 6826 0022 9BB2     		uxth	r3, r3
 6827 0024 013B     		subs	r3, r3, #1
 6828 0026 9AB2     		uxth	r2, r3
 6829 0028 7B68     		ldr	r3, [r7, #4]
 6830 002a DA87     		strh	r2, [r3, #62]	@ movhi
3396:E:/LiteOS/LiteOS_Lab/drivers/third_party/ST/STM32L4xx_HAL_Driver/Src\stm32l4xx_hal_spi.c **** 
3397:E:/LiteOS/LiteOS_Lab/drivers/third_party/ST/STM32L4xx_HAL_Driver/Src\stm32l4xx_hal_spi.c ****   if (hspi->TxXferCount == 0U)
ARM GAS  C:\Users\user\AppData\Local\Temp\ccvQ1M9B.s 			page 179


 6831              		.loc 1 3397 0
 6832 002c 7B68     		ldr	r3, [r7, #4]
 6833 002e DB8F     		ldrh	r3, [r3, #62]	@ movhi
 6834 0030 9BB2     		uxth	r3, r3
 6835 0032 002B     		cmp	r3, #0
 6836 0034 02D1     		bne	.L340
3398:E:/LiteOS/LiteOS_Lab/drivers/third_party/ST/STM32L4xx_HAL_Driver/Src\stm32l4xx_hal_spi.c ****   {
3399:E:/LiteOS/LiteOS_Lab/drivers/third_party/ST/STM32L4xx_HAL_Driver/Src\stm32l4xx_hal_spi.c **** #if (USE_SPI_CRC != 0U)
3400:E:/LiteOS/LiteOS_Lab/drivers/third_party/ST/STM32L4xx_HAL_Driver/Src\stm32l4xx_hal_spi.c ****     if (hspi->Init.CRCCalculation == SPI_CRCCALCULATION_ENABLE)
3401:E:/LiteOS/LiteOS_Lab/drivers/third_party/ST/STM32L4xx_HAL_Driver/Src\stm32l4xx_hal_spi.c ****     {
3402:E:/LiteOS/LiteOS_Lab/drivers/third_party/ST/STM32L4xx_HAL_Driver/Src\stm32l4xx_hal_spi.c ****       /* Enable CRC Transmission */
3403:E:/LiteOS/LiteOS_Lab/drivers/third_party/ST/STM32L4xx_HAL_Driver/Src\stm32l4xx_hal_spi.c ****       SET_BIT(hspi->Instance->CR1, SPI_CR1_CRCNEXT);
3404:E:/LiteOS/LiteOS_Lab/drivers/third_party/ST/STM32L4xx_HAL_Driver/Src\stm32l4xx_hal_spi.c ****     }
3405:E:/LiteOS/LiteOS_Lab/drivers/third_party/ST/STM32L4xx_HAL_Driver/Src\stm32l4xx_hal_spi.c **** #endif /* USE_SPI_CRC */
3406:E:/LiteOS/LiteOS_Lab/drivers/third_party/ST/STM32L4xx_HAL_Driver/Src\stm32l4xx_hal_spi.c ****     SPI_CloseTx_ISR(hspi);
 6837              		.loc 1 3406 0
 6838 0036 7868     		ldr	r0, [r7, #4]
 6839 0038 FFF7FEFF 		bl	SPI_CloseTx_ISR
 6840              	.L340:
3407:E:/LiteOS/LiteOS_Lab/drivers/third_party/ST/STM32L4xx_HAL_Driver/Src\stm32l4xx_hal_spi.c ****   }
3408:E:/LiteOS/LiteOS_Lab/drivers/third_party/ST/STM32L4xx_HAL_Driver/Src\stm32l4xx_hal_spi.c **** }
 6841              		.loc 1 3408 0
 6842 003c 00BF     		nop
 6843 003e 0837     		adds	r7, r7, #8
 6844              	.LCFI249:
 6845              		.cfi_def_cfa_offset 8
 6846 0040 BD46     		mov	sp, r7
 6847              	.LCFI250:
 6848              		.cfi_def_cfa_register 13
 6849              		@ sp needed
 6850 0042 80BD     		pop	{r7, pc}
 6851              		.cfi_endproc
 6852              	.LFE179:
 6854              		.section	.text.SPI_WaitFlagStateUntilTimeout,"ax",%progbits
 6855              		.align	1
 6856              		.syntax unified
 6857              		.thumb
 6858              		.thumb_func
 6859              		.fpu fpv4-sp-d16
 6861              	SPI_WaitFlagStateUntilTimeout:
 6862              	.LFB180:
3409:E:/LiteOS/LiteOS_Lab/drivers/third_party/ST/STM32L4xx_HAL_Driver/Src\stm32l4xx_hal_spi.c **** 
3410:E:/LiteOS/LiteOS_Lab/drivers/third_party/ST/STM32L4xx_HAL_Driver/Src\stm32l4xx_hal_spi.c **** /**
3411:E:/LiteOS/LiteOS_Lab/drivers/third_party/ST/STM32L4xx_HAL_Driver/Src\stm32l4xx_hal_spi.c ****   * @brief  Handle SPI Communication Timeout.
3412:E:/LiteOS/LiteOS_Lab/drivers/third_party/ST/STM32L4xx_HAL_Driver/Src\stm32l4xx_hal_spi.c ****   * @param  hspi pointer to a SPI_HandleTypeDef structure that contains
3413:E:/LiteOS/LiteOS_Lab/drivers/third_party/ST/STM32L4xx_HAL_Driver/Src\stm32l4xx_hal_spi.c ****   *              the configuration information for SPI module.
3414:E:/LiteOS/LiteOS_Lab/drivers/third_party/ST/STM32L4xx_HAL_Driver/Src\stm32l4xx_hal_spi.c ****   * @param  Flag SPI flag to check
3415:E:/LiteOS/LiteOS_Lab/drivers/third_party/ST/STM32L4xx_HAL_Driver/Src\stm32l4xx_hal_spi.c ****   * @param  State flag state to check
3416:E:/LiteOS/LiteOS_Lab/drivers/third_party/ST/STM32L4xx_HAL_Driver/Src\stm32l4xx_hal_spi.c ****   * @param  Timeout Timeout duration
3417:E:/LiteOS/LiteOS_Lab/drivers/third_party/ST/STM32L4xx_HAL_Driver/Src\stm32l4xx_hal_spi.c ****   * @param  Tickstart tick start value
3418:E:/LiteOS/LiteOS_Lab/drivers/third_party/ST/STM32L4xx_HAL_Driver/Src\stm32l4xx_hal_spi.c ****   * @retval HAL status
3419:E:/LiteOS/LiteOS_Lab/drivers/third_party/ST/STM32L4xx_HAL_Driver/Src\stm32l4xx_hal_spi.c ****   */
3420:E:/LiteOS/LiteOS_Lab/drivers/third_party/ST/STM32L4xx_HAL_Driver/Src\stm32l4xx_hal_spi.c **** static HAL_StatusTypeDef SPI_WaitFlagStateUntilTimeout(SPI_HandleTypeDef *hspi, uint32_t Flag, uint
3421:E:/LiteOS/LiteOS_Lab/drivers/third_party/ST/STM32L4xx_HAL_Driver/Src\stm32l4xx_hal_spi.c ****                                                        uint32_t Timeout, uint32_t Tickstart)
3422:E:/LiteOS/LiteOS_Lab/drivers/third_party/ST/STM32L4xx_HAL_Driver/Src\stm32l4xx_hal_spi.c **** {
 6863              		.loc 1 3422 0
 6864              		.cfi_startproc
ARM GAS  C:\Users\user\AppData\Local\Temp\ccvQ1M9B.s 			page 180


 6865              		@ args = 4, pretend = 0, frame = 16
 6866              		@ frame_needed = 1, uses_anonymous_args = 0
 6867 0000 80B5     		push	{r7, lr}
 6868              	.LCFI251:
 6869              		.cfi_def_cfa_offset 8
 6870              		.cfi_offset 7, -8
 6871              		.cfi_offset 14, -4
 6872 0002 84B0     		sub	sp, sp, #16
 6873              	.LCFI252:
 6874              		.cfi_def_cfa_offset 24
 6875 0004 00AF     		add	r7, sp, #0
 6876              	.LCFI253:
 6877              		.cfi_def_cfa_register 7
 6878 0006 F860     		str	r0, [r7, #12]
 6879 0008 B960     		str	r1, [r7, #8]
 6880 000a 7A60     		str	r2, [r7, #4]
 6881 000c 3B60     		str	r3, [r7]
3423:E:/LiteOS/LiteOS_Lab/drivers/third_party/ST/STM32L4xx_HAL_Driver/Src\stm32l4xx_hal_spi.c ****   while ((__HAL_SPI_GET_FLAG(hspi, Flag) ? SET : RESET) != State)
 6882              		.loc 1 3423 0
 6883 000e 4CE0     		b	.L342
 6884              	.L350:
3424:E:/LiteOS/LiteOS_Lab/drivers/third_party/ST/STM32L4xx_HAL_Driver/Src\stm32l4xx_hal_spi.c ****   {
3425:E:/LiteOS/LiteOS_Lab/drivers/third_party/ST/STM32L4xx_HAL_Driver/Src\stm32l4xx_hal_spi.c ****     if (Timeout != HAL_MAX_DELAY)
 6885              		.loc 1 3425 0
 6886 0010 3B68     		ldr	r3, [r7]
 6887 0012 B3F1FF3F 		cmp	r3, #-1
 6888 0016 48D0     		beq	.L342
3426:E:/LiteOS/LiteOS_Lab/drivers/third_party/ST/STM32L4xx_HAL_Driver/Src\stm32l4xx_hal_spi.c ****     {
3427:E:/LiteOS/LiteOS_Lab/drivers/third_party/ST/STM32L4xx_HAL_Driver/Src\stm32l4xx_hal_spi.c ****       if ((Timeout == 0U) || ((HAL_GetTick() - Tickstart) >= Timeout))
 6889              		.loc 1 3427 0
 6890 0018 3B68     		ldr	r3, [r7]
 6891 001a 002B     		cmp	r3, #0
 6892 001c 07D0     		beq	.L343
 6893              		.loc 1 3427 0 is_stmt 0 discriminator 1
 6894 001e FFF7FEFF 		bl	HAL_GetTick
 6895 0022 0246     		mov	r2, r0
 6896 0024 BB69     		ldr	r3, [r7, #24]
 6897 0026 D31A     		subs	r3, r2, r3
 6898 0028 3A68     		ldr	r2, [r7]
 6899 002a 9A42     		cmp	r2, r3
 6900 002c 3DD8     		bhi	.L342
 6901              	.L343:
3428:E:/LiteOS/LiteOS_Lab/drivers/third_party/ST/STM32L4xx_HAL_Driver/Src\stm32l4xx_hal_spi.c ****       {
3429:E:/LiteOS/LiteOS_Lab/drivers/third_party/ST/STM32L4xx_HAL_Driver/Src\stm32l4xx_hal_spi.c ****         /* Disable the SPI and reset the CRC: the CRC value should be cleared
3430:E:/LiteOS/LiteOS_Lab/drivers/third_party/ST/STM32L4xx_HAL_Driver/Src\stm32l4xx_hal_spi.c ****         on both master and slave sides in order to resynchronize the master
3431:E:/LiteOS/LiteOS_Lab/drivers/third_party/ST/STM32L4xx_HAL_Driver/Src\stm32l4xx_hal_spi.c ****         and slave for their respective CRC calculation */
3432:E:/LiteOS/LiteOS_Lab/drivers/third_party/ST/STM32L4xx_HAL_Driver/Src\stm32l4xx_hal_spi.c **** 
3433:E:/LiteOS/LiteOS_Lab/drivers/third_party/ST/STM32L4xx_HAL_Driver/Src\stm32l4xx_hal_spi.c ****         /* Disable TXE, RXNE and ERR interrupts for the interrupt process */
3434:E:/LiteOS/LiteOS_Lab/drivers/third_party/ST/STM32L4xx_HAL_Driver/Src\stm32l4xx_hal_spi.c ****         __HAL_SPI_DISABLE_IT(hspi, (SPI_IT_TXE | SPI_IT_RXNE | SPI_IT_ERR));
 6902              		.loc 1 3434 0 is_stmt 1
 6903 002e FB68     		ldr	r3, [r7, #12]
 6904 0030 1B68     		ldr	r3, [r3]
 6905 0032 5A68     		ldr	r2, [r3, #4]
 6906 0034 FB68     		ldr	r3, [r7, #12]
 6907 0036 1B68     		ldr	r3, [r3]
 6908 0038 22F0E002 		bic	r2, r2, #224
 6909 003c 5A60     		str	r2, [r3, #4]
ARM GAS  C:\Users\user\AppData\Local\Temp\ccvQ1M9B.s 			page 181


3435:E:/LiteOS/LiteOS_Lab/drivers/third_party/ST/STM32L4xx_HAL_Driver/Src\stm32l4xx_hal_spi.c **** 
3436:E:/LiteOS/LiteOS_Lab/drivers/third_party/ST/STM32L4xx_HAL_Driver/Src\stm32l4xx_hal_spi.c ****         if ((hspi->Init.Mode == SPI_MODE_MASTER) && ((hspi->Init.Direction == SPI_DIRECTION_1LINE)
 6910              		.loc 1 3436 0
 6911 003e FB68     		ldr	r3, [r7, #12]
 6912 0040 5B68     		ldr	r3, [r3, #4]
 6913 0042 B3F5827F 		cmp	r3, #260
 6914 0046 11D1     		bne	.L344
 6915              		.loc 1 3436 0 is_stmt 0 discriminator 1
 6916 0048 FB68     		ldr	r3, [r7, #12]
 6917 004a 9B68     		ldr	r3, [r3, #8]
 6918 004c B3F5004F 		cmp	r3, #32768
 6919 0050 04D0     		beq	.L345
3437:E:/LiteOS/LiteOS_Lab/drivers/third_party/ST/STM32L4xx_HAL_Driver/Src\stm32l4xx_hal_spi.c ****                                                      || (hspi->Init.Direction == SPI_DIRECTION_2LIN
 6920              		.loc 1 3437 0 is_stmt 1
 6921 0052 FB68     		ldr	r3, [r7, #12]
 6922 0054 9B68     		ldr	r3, [r3, #8]
 6923 0056 B3F5806F 		cmp	r3, #1024
 6924 005a 07D1     		bne	.L344
 6925              	.L345:
3438:E:/LiteOS/LiteOS_Lab/drivers/third_party/ST/STM32L4xx_HAL_Driver/Src\stm32l4xx_hal_spi.c ****         {
3439:E:/LiteOS/LiteOS_Lab/drivers/third_party/ST/STM32L4xx_HAL_Driver/Src\stm32l4xx_hal_spi.c ****           /* Disable SPI peripheral */
3440:E:/LiteOS/LiteOS_Lab/drivers/third_party/ST/STM32L4xx_HAL_Driver/Src\stm32l4xx_hal_spi.c ****           __HAL_SPI_DISABLE(hspi);
 6926              		.loc 1 3440 0
 6927 005c FB68     		ldr	r3, [r7, #12]
 6928 005e 1B68     		ldr	r3, [r3]
 6929 0060 1A68     		ldr	r2, [r3]
 6930 0062 FB68     		ldr	r3, [r7, #12]
 6931 0064 1B68     		ldr	r3, [r3]
 6932 0066 22F04002 		bic	r2, r2, #64
 6933 006a 1A60     		str	r2, [r3]
 6934              	.L344:
3441:E:/LiteOS/LiteOS_Lab/drivers/third_party/ST/STM32L4xx_HAL_Driver/Src\stm32l4xx_hal_spi.c ****         }
3442:E:/LiteOS/LiteOS_Lab/drivers/third_party/ST/STM32L4xx_HAL_Driver/Src\stm32l4xx_hal_spi.c **** 
3443:E:/LiteOS/LiteOS_Lab/drivers/third_party/ST/STM32L4xx_HAL_Driver/Src\stm32l4xx_hal_spi.c ****         /* Reset CRC Calculation */
3444:E:/LiteOS/LiteOS_Lab/drivers/third_party/ST/STM32L4xx_HAL_Driver/Src\stm32l4xx_hal_spi.c ****         if (hspi->Init.CRCCalculation == SPI_CRCCALCULATION_ENABLE)
 6935              		.loc 1 3444 0
 6936 006c FB68     		ldr	r3, [r7, #12]
 6937 006e 9B6A     		ldr	r3, [r3, #40]
 6938 0070 B3F5005F 		cmp	r3, #8192
 6939 0074 0FD1     		bne	.L346
3445:E:/LiteOS/LiteOS_Lab/drivers/third_party/ST/STM32L4xx_HAL_Driver/Src\stm32l4xx_hal_spi.c ****         {
3446:E:/LiteOS/LiteOS_Lab/drivers/third_party/ST/STM32L4xx_HAL_Driver/Src\stm32l4xx_hal_spi.c ****           SPI_RESET_CRC(hspi);
 6940              		.loc 1 3446 0
 6941 0076 FB68     		ldr	r3, [r7, #12]
 6942 0078 1B68     		ldr	r3, [r3]
 6943 007a 1A68     		ldr	r2, [r3]
 6944 007c FB68     		ldr	r3, [r7, #12]
 6945 007e 1B68     		ldr	r3, [r3]
 6946 0080 22F40052 		bic	r2, r2, #8192
 6947 0084 1A60     		str	r2, [r3]
 6948 0086 FB68     		ldr	r3, [r7, #12]
 6949 0088 1B68     		ldr	r3, [r3]
 6950 008a 1A68     		ldr	r2, [r3]
 6951 008c FB68     		ldr	r3, [r7, #12]
 6952 008e 1B68     		ldr	r3, [r3]
 6953 0090 42F40052 		orr	r2, r2, #8192
 6954 0094 1A60     		str	r2, [r3]
ARM GAS  C:\Users\user\AppData\Local\Temp\ccvQ1M9B.s 			page 182


 6955              	.L346:
3447:E:/LiteOS/LiteOS_Lab/drivers/third_party/ST/STM32L4xx_HAL_Driver/Src\stm32l4xx_hal_spi.c ****         }
3448:E:/LiteOS/LiteOS_Lab/drivers/third_party/ST/STM32L4xx_HAL_Driver/Src\stm32l4xx_hal_spi.c **** 
3449:E:/LiteOS/LiteOS_Lab/drivers/third_party/ST/STM32L4xx_HAL_Driver/Src\stm32l4xx_hal_spi.c ****         hspi->State = HAL_SPI_STATE_READY;
 6956              		.loc 1 3449 0
 6957 0096 FB68     		ldr	r3, [r7, #12]
 6958 0098 0122     		movs	r2, #1
 6959 009a 83F85D20 		strb	r2, [r3, #93]
3450:E:/LiteOS/LiteOS_Lab/drivers/third_party/ST/STM32L4xx_HAL_Driver/Src\stm32l4xx_hal_spi.c **** 
3451:E:/LiteOS/LiteOS_Lab/drivers/third_party/ST/STM32L4xx_HAL_Driver/Src\stm32l4xx_hal_spi.c ****         /* Process Unlocked */
3452:E:/LiteOS/LiteOS_Lab/drivers/third_party/ST/STM32L4xx_HAL_Driver/Src\stm32l4xx_hal_spi.c ****         __HAL_UNLOCK(hspi);
 6960              		.loc 1 3452 0
 6961 009e FB68     		ldr	r3, [r7, #12]
 6962 00a0 0022     		movs	r2, #0
 6963 00a2 83F85C20 		strb	r2, [r3, #92]
3453:E:/LiteOS/LiteOS_Lab/drivers/third_party/ST/STM32L4xx_HAL_Driver/Src\stm32l4xx_hal_spi.c **** 
3454:E:/LiteOS/LiteOS_Lab/drivers/third_party/ST/STM32L4xx_HAL_Driver/Src\stm32l4xx_hal_spi.c ****         return HAL_TIMEOUT;
 6964              		.loc 1 3454 0
 6965 00a6 0323     		movs	r3, #3
 6966 00a8 0EE0     		b	.L347
 6967              	.L342:
3423:E:/LiteOS/LiteOS_Lab/drivers/third_party/ST/STM32L4xx_HAL_Driver/Src\stm32l4xx_hal_spi.c ****   {
 6968              		.loc 1 3423 0
 6969 00aa FB68     		ldr	r3, [r7, #12]
 6970 00ac 1B68     		ldr	r3, [r3]
 6971 00ae 9A68     		ldr	r2, [r3, #8]
 6972 00b0 BB68     		ldr	r3, [r7, #8]
 6973 00b2 1340     		ands	r3, r3, r2
 6974 00b4 BA68     		ldr	r2, [r7, #8]
 6975 00b6 9A42     		cmp	r2, r3
 6976 00b8 01D1     		bne	.L348
3423:E:/LiteOS/LiteOS_Lab/drivers/third_party/ST/STM32L4xx_HAL_Driver/Src\stm32l4xx_hal_spi.c ****   {
 6977              		.loc 1 3423 0 is_stmt 0 discriminator 1
 6978 00ba 0122     		movs	r2, #1
 6979 00bc 00E0     		b	.L349
 6980              	.L348:
3423:E:/LiteOS/LiteOS_Lab/drivers/third_party/ST/STM32L4xx_HAL_Driver/Src\stm32l4xx_hal_spi.c ****   {
 6981              		.loc 1 3423 0 discriminator 2
 6982 00be 0022     		movs	r2, #0
 6983              	.L349:
3423:E:/LiteOS/LiteOS_Lab/drivers/third_party/ST/STM32L4xx_HAL_Driver/Src\stm32l4xx_hal_spi.c ****   {
 6984              		.loc 1 3423 0 discriminator 4
 6985 00c0 7B68     		ldr	r3, [r7, #4]
 6986 00c2 9A42     		cmp	r2, r3
 6987 00c4 A4D1     		bne	.L350
3455:E:/LiteOS/LiteOS_Lab/drivers/third_party/ST/STM32L4xx_HAL_Driver/Src\stm32l4xx_hal_spi.c ****       }
3456:E:/LiteOS/LiteOS_Lab/drivers/third_party/ST/STM32L4xx_HAL_Driver/Src\stm32l4xx_hal_spi.c ****     }
3457:E:/LiteOS/LiteOS_Lab/drivers/third_party/ST/STM32L4xx_HAL_Driver/Src\stm32l4xx_hal_spi.c ****   }
3458:E:/LiteOS/LiteOS_Lab/drivers/third_party/ST/STM32L4xx_HAL_Driver/Src\stm32l4xx_hal_spi.c **** 
3459:E:/LiteOS/LiteOS_Lab/drivers/third_party/ST/STM32L4xx_HAL_Driver/Src\stm32l4xx_hal_spi.c ****   return HAL_OK;
 6988              		.loc 1 3459 0 is_stmt 1
 6989 00c6 0023     		movs	r3, #0
 6990              	.L347:
3460:E:/LiteOS/LiteOS_Lab/drivers/third_party/ST/STM32L4xx_HAL_Driver/Src\stm32l4xx_hal_spi.c **** }
 6991              		.loc 1 3460 0
 6992 00c8 1846     		mov	r0, r3
 6993 00ca 1037     		adds	r7, r7, #16
ARM GAS  C:\Users\user\AppData\Local\Temp\ccvQ1M9B.s 			page 183


 6994              	.LCFI254:
 6995              		.cfi_def_cfa_offset 8
 6996 00cc BD46     		mov	sp, r7
 6997              	.LCFI255:
 6998              		.cfi_def_cfa_register 13
 6999              		@ sp needed
 7000 00ce 80BD     		pop	{r7, pc}
 7001              		.cfi_endproc
 7002              	.LFE180:
 7004              		.section	.text.SPI_WaitFifoStateUntilTimeout,"ax",%progbits
 7005              		.align	1
 7006              		.syntax unified
 7007              		.thumb
 7008              		.thumb_func
 7009              		.fpu fpv4-sp-d16
 7011              	SPI_WaitFifoStateUntilTimeout:
 7012              	.LFB181:
3461:E:/LiteOS/LiteOS_Lab/drivers/third_party/ST/STM32L4xx_HAL_Driver/Src\stm32l4xx_hal_spi.c **** 
3462:E:/LiteOS/LiteOS_Lab/drivers/third_party/ST/STM32L4xx_HAL_Driver/Src\stm32l4xx_hal_spi.c **** /**
3463:E:/LiteOS/LiteOS_Lab/drivers/third_party/ST/STM32L4xx_HAL_Driver/Src\stm32l4xx_hal_spi.c ****   * @brief  Handle SPI FIFO Communication Timeout.
3464:E:/LiteOS/LiteOS_Lab/drivers/third_party/ST/STM32L4xx_HAL_Driver/Src\stm32l4xx_hal_spi.c ****   * @param  hspi pointer to a SPI_HandleTypeDef structure that contains
3465:E:/LiteOS/LiteOS_Lab/drivers/third_party/ST/STM32L4xx_HAL_Driver/Src\stm32l4xx_hal_spi.c ****   *              the configuration information for SPI module.
3466:E:/LiteOS/LiteOS_Lab/drivers/third_party/ST/STM32L4xx_HAL_Driver/Src\stm32l4xx_hal_spi.c ****   * @param  Fifo Fifo to check
3467:E:/LiteOS/LiteOS_Lab/drivers/third_party/ST/STM32L4xx_HAL_Driver/Src\stm32l4xx_hal_spi.c ****   * @param  State Fifo state to check
3468:E:/LiteOS/LiteOS_Lab/drivers/third_party/ST/STM32L4xx_HAL_Driver/Src\stm32l4xx_hal_spi.c ****   * @param  Timeout Timeout duration
3469:E:/LiteOS/LiteOS_Lab/drivers/third_party/ST/STM32L4xx_HAL_Driver/Src\stm32l4xx_hal_spi.c ****   * @param  Tickstart tick start value
3470:E:/LiteOS/LiteOS_Lab/drivers/third_party/ST/STM32L4xx_HAL_Driver/Src\stm32l4xx_hal_spi.c ****   * @retval HAL status
3471:E:/LiteOS/LiteOS_Lab/drivers/third_party/ST/STM32L4xx_HAL_Driver/Src\stm32l4xx_hal_spi.c ****   */
3472:E:/LiteOS/LiteOS_Lab/drivers/third_party/ST/STM32L4xx_HAL_Driver/Src\stm32l4xx_hal_spi.c **** static HAL_StatusTypeDef SPI_WaitFifoStateUntilTimeout(SPI_HandleTypeDef *hspi, uint32_t Fifo, uint
3473:E:/LiteOS/LiteOS_Lab/drivers/third_party/ST/STM32L4xx_HAL_Driver/Src\stm32l4xx_hal_spi.c ****                                                        uint32_t Timeout, uint32_t Tickstart)
3474:E:/LiteOS/LiteOS_Lab/drivers/third_party/ST/STM32L4xx_HAL_Driver/Src\stm32l4xx_hal_spi.c **** {
 7013              		.loc 1 3474 0
 7014              		.cfi_startproc
 7015              		@ args = 4, pretend = 0, frame = 24
 7016              		@ frame_needed = 1, uses_anonymous_args = 0
 7017 0000 80B5     		push	{r7, lr}
 7018              	.LCFI256:
 7019              		.cfi_def_cfa_offset 8
 7020              		.cfi_offset 7, -8
 7021              		.cfi_offset 14, -4
 7022 0002 86B0     		sub	sp, sp, #24
 7023              	.LCFI257:
 7024              		.cfi_def_cfa_offset 32
 7025 0004 00AF     		add	r7, sp, #0
 7026              	.LCFI258:
 7027              		.cfi_def_cfa_register 7
 7028 0006 F860     		str	r0, [r7, #12]
 7029 0008 B960     		str	r1, [r7, #8]
 7030 000a 7A60     		str	r2, [r7, #4]
 7031 000c 3B60     		str	r3, [r7]
3475:E:/LiteOS/LiteOS_Lab/drivers/third_party/ST/STM32L4xx_HAL_Driver/Src\stm32l4xx_hal_spi.c ****   __IO uint8_t tmpreg;
3476:E:/LiteOS/LiteOS_Lab/drivers/third_party/ST/STM32L4xx_HAL_Driver/Src\stm32l4xx_hal_spi.c **** 
3477:E:/LiteOS/LiteOS_Lab/drivers/third_party/ST/STM32L4xx_HAL_Driver/Src\stm32l4xx_hal_spi.c ****   while ((hspi->Instance->SR & Fifo) != State)
 7032              		.loc 1 3477 0
 7033 000e 5AE0     		b	.L352
 7034              	.L359:
3478:E:/LiteOS/LiteOS_Lab/drivers/third_party/ST/STM32L4xx_HAL_Driver/Src\stm32l4xx_hal_spi.c ****   {
ARM GAS  C:\Users\user\AppData\Local\Temp\ccvQ1M9B.s 			page 184


3479:E:/LiteOS/LiteOS_Lab/drivers/third_party/ST/STM32L4xx_HAL_Driver/Src\stm32l4xx_hal_spi.c ****     if ((Fifo == SPI_SR_FRLVL) && (State == SPI_FRLVL_EMPTY))
 7035              		.loc 1 3479 0
 7036 0010 BB68     		ldr	r3, [r7, #8]
 7037 0012 B3F5C06F 		cmp	r3, #1536
 7038 0016 09D1     		bne	.L353
 7039              		.loc 1 3479 0 is_stmt 0 discriminator 1
 7040 0018 7B68     		ldr	r3, [r7, #4]
 7041 001a 002B     		cmp	r3, #0
 7042 001c 06D1     		bne	.L353
3480:E:/LiteOS/LiteOS_Lab/drivers/third_party/ST/STM32L4xx_HAL_Driver/Src\stm32l4xx_hal_spi.c ****     {
3481:E:/LiteOS/LiteOS_Lab/drivers/third_party/ST/STM32L4xx_HAL_Driver/Src\stm32l4xx_hal_spi.c ****       tmpreg = *((__IO uint8_t *)&hspi->Instance->DR);
 7043              		.loc 1 3481 0 is_stmt 1
 7044 001e FB68     		ldr	r3, [r7, #12]
 7045 0020 1B68     		ldr	r3, [r3]
 7046 0022 0C33     		adds	r3, r3, #12
 7047 0024 1B78     		ldrb	r3, [r3]
 7048 0026 DBB2     		uxtb	r3, r3
 7049 0028 FB75     		strb	r3, [r7, #23]
3482:E:/LiteOS/LiteOS_Lab/drivers/third_party/ST/STM32L4xx_HAL_Driver/Src\stm32l4xx_hal_spi.c ****       /* To avoid GCC warning */
3483:E:/LiteOS/LiteOS_Lab/drivers/third_party/ST/STM32L4xx_HAL_Driver/Src\stm32l4xx_hal_spi.c ****       UNUSED(tmpreg);
 7050              		.loc 1 3483 0
 7051 002a FB7D     		ldrb	r3, [r7, #23]
 7052              	.L353:
3484:E:/LiteOS/LiteOS_Lab/drivers/third_party/ST/STM32L4xx_HAL_Driver/Src\stm32l4xx_hal_spi.c ****     }
3485:E:/LiteOS/LiteOS_Lab/drivers/third_party/ST/STM32L4xx_HAL_Driver/Src\stm32l4xx_hal_spi.c **** 
3486:E:/LiteOS/LiteOS_Lab/drivers/third_party/ST/STM32L4xx_HAL_Driver/Src\stm32l4xx_hal_spi.c ****     if (Timeout != HAL_MAX_DELAY)
 7053              		.loc 1 3486 0
 7054 002c 3B68     		ldr	r3, [r7]
 7055 002e B3F1FF3F 		cmp	r3, #-1
 7056 0032 48D0     		beq	.L352
3487:E:/LiteOS/LiteOS_Lab/drivers/third_party/ST/STM32L4xx_HAL_Driver/Src\stm32l4xx_hal_spi.c ****     {
3488:E:/LiteOS/LiteOS_Lab/drivers/third_party/ST/STM32L4xx_HAL_Driver/Src\stm32l4xx_hal_spi.c ****       if ((Timeout == 0U) || ((HAL_GetTick() - Tickstart) >= Timeout))
 7057              		.loc 1 3488 0
 7058 0034 3B68     		ldr	r3, [r7]
 7059 0036 002B     		cmp	r3, #0
 7060 0038 07D0     		beq	.L354
 7061              		.loc 1 3488 0 is_stmt 0 discriminator 1
 7062 003a FFF7FEFF 		bl	HAL_GetTick
 7063 003e 0246     		mov	r2, r0
 7064 0040 3B6A     		ldr	r3, [r7, #32]
 7065 0042 D31A     		subs	r3, r2, r3
 7066 0044 3A68     		ldr	r2, [r7]
 7067 0046 9A42     		cmp	r2, r3
 7068 0048 3DD8     		bhi	.L352
 7069              	.L354:
3489:E:/LiteOS/LiteOS_Lab/drivers/third_party/ST/STM32L4xx_HAL_Driver/Src\stm32l4xx_hal_spi.c ****       {
3490:E:/LiteOS/LiteOS_Lab/drivers/third_party/ST/STM32L4xx_HAL_Driver/Src\stm32l4xx_hal_spi.c ****         /* Disable the SPI and reset the CRC: the CRC value should be cleared
3491:E:/LiteOS/LiteOS_Lab/drivers/third_party/ST/STM32L4xx_HAL_Driver/Src\stm32l4xx_hal_spi.c ****            on both master and slave sides in order to resynchronize the master
3492:E:/LiteOS/LiteOS_Lab/drivers/third_party/ST/STM32L4xx_HAL_Driver/Src\stm32l4xx_hal_spi.c ****            and slave for their respective CRC calculation */
3493:E:/LiteOS/LiteOS_Lab/drivers/third_party/ST/STM32L4xx_HAL_Driver/Src\stm32l4xx_hal_spi.c **** 
3494:E:/LiteOS/LiteOS_Lab/drivers/third_party/ST/STM32L4xx_HAL_Driver/Src\stm32l4xx_hal_spi.c ****         /* Disable TXE, RXNE and ERR interrupts for the interrupt process */
3495:E:/LiteOS/LiteOS_Lab/drivers/third_party/ST/STM32L4xx_HAL_Driver/Src\stm32l4xx_hal_spi.c ****         __HAL_SPI_DISABLE_IT(hspi, (SPI_IT_TXE | SPI_IT_RXNE | SPI_IT_ERR));
 7070              		.loc 1 3495 0 is_stmt 1
 7071 004a FB68     		ldr	r3, [r7, #12]
 7072 004c 1B68     		ldr	r3, [r3]
 7073 004e 5A68     		ldr	r2, [r3, #4]
 7074 0050 FB68     		ldr	r3, [r7, #12]
ARM GAS  C:\Users\user\AppData\Local\Temp\ccvQ1M9B.s 			page 185


 7075 0052 1B68     		ldr	r3, [r3]
 7076 0054 22F0E002 		bic	r2, r2, #224
 7077 0058 5A60     		str	r2, [r3, #4]
3496:E:/LiteOS/LiteOS_Lab/drivers/third_party/ST/STM32L4xx_HAL_Driver/Src\stm32l4xx_hal_spi.c **** 
3497:E:/LiteOS/LiteOS_Lab/drivers/third_party/ST/STM32L4xx_HAL_Driver/Src\stm32l4xx_hal_spi.c ****         if ((hspi->Init.Mode == SPI_MODE_MASTER) && ((hspi->Init.Direction == SPI_DIRECTION_1LINE)
 7078              		.loc 1 3497 0
 7079 005a FB68     		ldr	r3, [r7, #12]
 7080 005c 5B68     		ldr	r3, [r3, #4]
 7081 005e B3F5827F 		cmp	r3, #260
 7082 0062 11D1     		bne	.L355
 7083              		.loc 1 3497 0 is_stmt 0 discriminator 1
 7084 0064 FB68     		ldr	r3, [r7, #12]
 7085 0066 9B68     		ldr	r3, [r3, #8]
 7086 0068 B3F5004F 		cmp	r3, #32768
 7087 006c 04D0     		beq	.L356
3498:E:/LiteOS/LiteOS_Lab/drivers/third_party/ST/STM32L4xx_HAL_Driver/Src\stm32l4xx_hal_spi.c ****                                                      || (hspi->Init.Direction == SPI_DIRECTION_2LIN
 7088              		.loc 1 3498 0 is_stmt 1
 7089 006e FB68     		ldr	r3, [r7, #12]
 7090 0070 9B68     		ldr	r3, [r3, #8]
 7091 0072 B3F5806F 		cmp	r3, #1024
 7092 0076 07D1     		bne	.L355
 7093              	.L356:
3499:E:/LiteOS/LiteOS_Lab/drivers/third_party/ST/STM32L4xx_HAL_Driver/Src\stm32l4xx_hal_spi.c ****         {
3500:E:/LiteOS/LiteOS_Lab/drivers/third_party/ST/STM32L4xx_HAL_Driver/Src\stm32l4xx_hal_spi.c ****           /* Disable SPI peripheral */
3501:E:/LiteOS/LiteOS_Lab/drivers/third_party/ST/STM32L4xx_HAL_Driver/Src\stm32l4xx_hal_spi.c ****           __HAL_SPI_DISABLE(hspi);
 7094              		.loc 1 3501 0
 7095 0078 FB68     		ldr	r3, [r7, #12]
 7096 007a 1B68     		ldr	r3, [r3]
 7097 007c 1A68     		ldr	r2, [r3]
 7098 007e FB68     		ldr	r3, [r7, #12]
 7099 0080 1B68     		ldr	r3, [r3]
 7100 0082 22F04002 		bic	r2, r2, #64
 7101 0086 1A60     		str	r2, [r3]
 7102              	.L355:
3502:E:/LiteOS/LiteOS_Lab/drivers/third_party/ST/STM32L4xx_HAL_Driver/Src\stm32l4xx_hal_spi.c ****         }
3503:E:/LiteOS/LiteOS_Lab/drivers/third_party/ST/STM32L4xx_HAL_Driver/Src\stm32l4xx_hal_spi.c **** 
3504:E:/LiteOS/LiteOS_Lab/drivers/third_party/ST/STM32L4xx_HAL_Driver/Src\stm32l4xx_hal_spi.c ****         /* Reset CRC Calculation */
3505:E:/LiteOS/LiteOS_Lab/drivers/third_party/ST/STM32L4xx_HAL_Driver/Src\stm32l4xx_hal_spi.c ****         if (hspi->Init.CRCCalculation == SPI_CRCCALCULATION_ENABLE)
 7103              		.loc 1 3505 0
 7104 0088 FB68     		ldr	r3, [r7, #12]
 7105 008a 9B6A     		ldr	r3, [r3, #40]
 7106 008c B3F5005F 		cmp	r3, #8192
 7107 0090 0FD1     		bne	.L357
3506:E:/LiteOS/LiteOS_Lab/drivers/third_party/ST/STM32L4xx_HAL_Driver/Src\stm32l4xx_hal_spi.c ****         {
3507:E:/LiteOS/LiteOS_Lab/drivers/third_party/ST/STM32L4xx_HAL_Driver/Src\stm32l4xx_hal_spi.c ****           SPI_RESET_CRC(hspi);
 7108              		.loc 1 3507 0
 7109 0092 FB68     		ldr	r3, [r7, #12]
 7110 0094 1B68     		ldr	r3, [r3]
 7111 0096 1A68     		ldr	r2, [r3]
 7112 0098 FB68     		ldr	r3, [r7, #12]
 7113 009a 1B68     		ldr	r3, [r3]
 7114 009c 22F40052 		bic	r2, r2, #8192
 7115 00a0 1A60     		str	r2, [r3]
 7116 00a2 FB68     		ldr	r3, [r7, #12]
 7117 00a4 1B68     		ldr	r3, [r3]
 7118 00a6 1A68     		ldr	r2, [r3]
 7119 00a8 FB68     		ldr	r3, [r7, #12]
ARM GAS  C:\Users\user\AppData\Local\Temp\ccvQ1M9B.s 			page 186


 7120 00aa 1B68     		ldr	r3, [r3]
 7121 00ac 42F40052 		orr	r2, r2, #8192
 7122 00b0 1A60     		str	r2, [r3]
 7123              	.L357:
3508:E:/LiteOS/LiteOS_Lab/drivers/third_party/ST/STM32L4xx_HAL_Driver/Src\stm32l4xx_hal_spi.c ****         }
3509:E:/LiteOS/LiteOS_Lab/drivers/third_party/ST/STM32L4xx_HAL_Driver/Src\stm32l4xx_hal_spi.c **** 
3510:E:/LiteOS/LiteOS_Lab/drivers/third_party/ST/STM32L4xx_HAL_Driver/Src\stm32l4xx_hal_spi.c ****         hspi->State = HAL_SPI_STATE_READY;
 7124              		.loc 1 3510 0
 7125 00b2 FB68     		ldr	r3, [r7, #12]
 7126 00b4 0122     		movs	r2, #1
 7127 00b6 83F85D20 		strb	r2, [r3, #93]
3511:E:/LiteOS/LiteOS_Lab/drivers/third_party/ST/STM32L4xx_HAL_Driver/Src\stm32l4xx_hal_spi.c **** 
3512:E:/LiteOS/LiteOS_Lab/drivers/third_party/ST/STM32L4xx_HAL_Driver/Src\stm32l4xx_hal_spi.c ****         /* Process Unlocked */
3513:E:/LiteOS/LiteOS_Lab/drivers/third_party/ST/STM32L4xx_HAL_Driver/Src\stm32l4xx_hal_spi.c ****         __HAL_UNLOCK(hspi);
 7128              		.loc 1 3513 0
 7129 00ba FB68     		ldr	r3, [r7, #12]
 7130 00bc 0022     		movs	r2, #0
 7131 00be 83F85C20 		strb	r2, [r3, #92]
3514:E:/LiteOS/LiteOS_Lab/drivers/third_party/ST/STM32L4xx_HAL_Driver/Src\stm32l4xx_hal_spi.c **** 
3515:E:/LiteOS/LiteOS_Lab/drivers/third_party/ST/STM32L4xx_HAL_Driver/Src\stm32l4xx_hal_spi.c ****         return HAL_TIMEOUT;
 7132              		.loc 1 3515 0
 7133 00c2 0323     		movs	r3, #3
 7134 00c4 08E0     		b	.L358
 7135              	.L352:
3477:E:/LiteOS/LiteOS_Lab/drivers/third_party/ST/STM32L4xx_HAL_Driver/Src\stm32l4xx_hal_spi.c ****   {
 7136              		.loc 1 3477 0
 7137 00c6 FB68     		ldr	r3, [r7, #12]
 7138 00c8 1B68     		ldr	r3, [r3]
 7139 00ca 9A68     		ldr	r2, [r3, #8]
 7140 00cc BB68     		ldr	r3, [r7, #8]
 7141 00ce 1340     		ands	r3, r3, r2
 7142 00d0 7A68     		ldr	r2, [r7, #4]
 7143 00d2 9A42     		cmp	r2, r3
 7144 00d4 9CD1     		bne	.L359
3516:E:/LiteOS/LiteOS_Lab/drivers/third_party/ST/STM32L4xx_HAL_Driver/Src\stm32l4xx_hal_spi.c ****       }
3517:E:/LiteOS/LiteOS_Lab/drivers/third_party/ST/STM32L4xx_HAL_Driver/Src\stm32l4xx_hal_spi.c ****     }
3518:E:/LiteOS/LiteOS_Lab/drivers/third_party/ST/STM32L4xx_HAL_Driver/Src\stm32l4xx_hal_spi.c ****   }
3519:E:/LiteOS/LiteOS_Lab/drivers/third_party/ST/STM32L4xx_HAL_Driver/Src\stm32l4xx_hal_spi.c **** 
3520:E:/LiteOS/LiteOS_Lab/drivers/third_party/ST/STM32L4xx_HAL_Driver/Src\stm32l4xx_hal_spi.c ****   return HAL_OK;
 7145              		.loc 1 3520 0
 7146 00d6 0023     		movs	r3, #0
 7147              	.L358:
3521:E:/LiteOS/LiteOS_Lab/drivers/third_party/ST/STM32L4xx_HAL_Driver/Src\stm32l4xx_hal_spi.c **** }
 7148              		.loc 1 3521 0
 7149 00d8 1846     		mov	r0, r3
 7150 00da 1837     		adds	r7, r7, #24
 7151              	.LCFI259:
 7152              		.cfi_def_cfa_offset 8
 7153 00dc BD46     		mov	sp, r7
 7154              	.LCFI260:
 7155              		.cfi_def_cfa_register 13
 7156              		@ sp needed
 7157 00de 80BD     		pop	{r7, pc}
 7158              		.cfi_endproc
 7159              	.LFE181:
 7161              		.section	.text.SPI_EndRxTransaction,"ax",%progbits
 7162              		.align	1
ARM GAS  C:\Users\user\AppData\Local\Temp\ccvQ1M9B.s 			page 187


 7163              		.syntax unified
 7164              		.thumb
 7165              		.thumb_func
 7166              		.fpu fpv4-sp-d16
 7168              	SPI_EndRxTransaction:
 7169              	.LFB182:
3522:E:/LiteOS/LiteOS_Lab/drivers/third_party/ST/STM32L4xx_HAL_Driver/Src\stm32l4xx_hal_spi.c **** 
3523:E:/LiteOS/LiteOS_Lab/drivers/third_party/ST/STM32L4xx_HAL_Driver/Src\stm32l4xx_hal_spi.c **** /**
3524:E:/LiteOS/LiteOS_Lab/drivers/third_party/ST/STM32L4xx_HAL_Driver/Src\stm32l4xx_hal_spi.c ****   * @brief  Handle the check of the RX transaction complete.
3525:E:/LiteOS/LiteOS_Lab/drivers/third_party/ST/STM32L4xx_HAL_Driver/Src\stm32l4xx_hal_spi.c ****   * @param  hspi pointer to a SPI_HandleTypeDef structure that contains
3526:E:/LiteOS/LiteOS_Lab/drivers/third_party/ST/STM32L4xx_HAL_Driver/Src\stm32l4xx_hal_spi.c ****   *               the configuration information for SPI module.
3527:E:/LiteOS/LiteOS_Lab/drivers/third_party/ST/STM32L4xx_HAL_Driver/Src\stm32l4xx_hal_spi.c ****   * @param  Timeout Timeout duration
3528:E:/LiteOS/LiteOS_Lab/drivers/third_party/ST/STM32L4xx_HAL_Driver/Src\stm32l4xx_hal_spi.c ****   * @param  Tickstart tick start value
3529:E:/LiteOS/LiteOS_Lab/drivers/third_party/ST/STM32L4xx_HAL_Driver/Src\stm32l4xx_hal_spi.c ****   * @retval HAL status
3530:E:/LiteOS/LiteOS_Lab/drivers/third_party/ST/STM32L4xx_HAL_Driver/Src\stm32l4xx_hal_spi.c ****   */
3531:E:/LiteOS/LiteOS_Lab/drivers/third_party/ST/STM32L4xx_HAL_Driver/Src\stm32l4xx_hal_spi.c **** static HAL_StatusTypeDef SPI_EndRxTransaction(SPI_HandleTypeDef *hspi,  uint32_t Timeout, uint32_t 
3532:E:/LiteOS/LiteOS_Lab/drivers/third_party/ST/STM32L4xx_HAL_Driver/Src\stm32l4xx_hal_spi.c **** {
 7170              		.loc 1 3532 0
 7171              		.cfi_startproc
 7172              		@ args = 0, pretend = 0, frame = 16
 7173              		@ frame_needed = 1, uses_anonymous_args = 0
 7174 0000 80B5     		push	{r7, lr}
 7175              	.LCFI261:
 7176              		.cfi_def_cfa_offset 8
 7177              		.cfi_offset 7, -8
 7178              		.cfi_offset 14, -4
 7179 0002 86B0     		sub	sp, sp, #24
 7180              	.LCFI262:
 7181              		.cfi_def_cfa_offset 32
 7182 0004 02AF     		add	r7, sp, #8
 7183              	.LCFI263:
 7184              		.cfi_def_cfa 7, 24
 7185 0006 F860     		str	r0, [r7, #12]
 7186 0008 B960     		str	r1, [r7, #8]
 7187 000a 7A60     		str	r2, [r7, #4]
3533:E:/LiteOS/LiteOS_Lab/drivers/third_party/ST/STM32L4xx_HAL_Driver/Src\stm32l4xx_hal_spi.c ****   if ((hspi->Init.Mode == SPI_MODE_MASTER) && ((hspi->Init.Direction == SPI_DIRECTION_1LINE)
 7188              		.loc 1 3533 0
 7189 000c FB68     		ldr	r3, [r7, #12]
 7190 000e 5B68     		ldr	r3, [r3, #4]
 7191 0010 B3F5827F 		cmp	r3, #260
 7192 0014 11D1     		bne	.L361
 7193              		.loc 1 3533 0 is_stmt 0 discriminator 1
 7194 0016 FB68     		ldr	r3, [r7, #12]
 7195 0018 9B68     		ldr	r3, [r3, #8]
 7196 001a B3F5004F 		cmp	r3, #32768
 7197 001e 04D0     		beq	.L362
3534:E:/LiteOS/LiteOS_Lab/drivers/third_party/ST/STM32L4xx_HAL_Driver/Src\stm32l4xx_hal_spi.c ****                                                || (hspi->Init.Direction == SPI_DIRECTION_2LINES_RXO
 7198              		.loc 1 3534 0 is_stmt 1
 7199 0020 FB68     		ldr	r3, [r7, #12]
 7200 0022 9B68     		ldr	r3, [r3, #8]
 7201 0024 B3F5806F 		cmp	r3, #1024
 7202 0028 07D1     		bne	.L361
 7203              	.L362:
3535:E:/LiteOS/LiteOS_Lab/drivers/third_party/ST/STM32L4xx_HAL_Driver/Src\stm32l4xx_hal_spi.c ****   {
3536:E:/LiteOS/LiteOS_Lab/drivers/third_party/ST/STM32L4xx_HAL_Driver/Src\stm32l4xx_hal_spi.c ****     /* Disable SPI peripheral */
3537:E:/LiteOS/LiteOS_Lab/drivers/third_party/ST/STM32L4xx_HAL_Driver/Src\stm32l4xx_hal_spi.c ****     __HAL_SPI_DISABLE(hspi);
 7204              		.loc 1 3537 0
ARM GAS  C:\Users\user\AppData\Local\Temp\ccvQ1M9B.s 			page 188


 7205 002a FB68     		ldr	r3, [r7, #12]
 7206 002c 1B68     		ldr	r3, [r3]
 7207 002e 1A68     		ldr	r2, [r3]
 7208 0030 FB68     		ldr	r3, [r7, #12]
 7209 0032 1B68     		ldr	r3, [r3]
 7210 0034 22F04002 		bic	r2, r2, #64
 7211 0038 1A60     		str	r2, [r3]
 7212              	.L361:
3538:E:/LiteOS/LiteOS_Lab/drivers/third_party/ST/STM32L4xx_HAL_Driver/Src\stm32l4xx_hal_spi.c ****   }
3539:E:/LiteOS/LiteOS_Lab/drivers/third_party/ST/STM32L4xx_HAL_Driver/Src\stm32l4xx_hal_spi.c **** 
3540:E:/LiteOS/LiteOS_Lab/drivers/third_party/ST/STM32L4xx_HAL_Driver/Src\stm32l4xx_hal_spi.c ****   /* Control the BSY flag */
3541:E:/LiteOS/LiteOS_Lab/drivers/third_party/ST/STM32L4xx_HAL_Driver/Src\stm32l4xx_hal_spi.c ****   if (SPI_WaitFlagStateUntilTimeout(hspi, SPI_FLAG_BSY, RESET, Timeout, Tickstart) != HAL_OK)
 7213              		.loc 1 3541 0
 7214 003a 7B68     		ldr	r3, [r7, #4]
 7215 003c 0093     		str	r3, [sp]
 7216 003e BB68     		ldr	r3, [r7, #8]
 7217 0040 0022     		movs	r2, #0
 7218 0042 8021     		movs	r1, #128
 7219 0044 F868     		ldr	r0, [r7, #12]
 7220 0046 FFF7FEFF 		bl	SPI_WaitFlagStateUntilTimeout
 7221 004a 0346     		mov	r3, r0
 7222 004c 002B     		cmp	r3, #0
 7223 004e 07D0     		beq	.L363
3542:E:/LiteOS/LiteOS_Lab/drivers/third_party/ST/STM32L4xx_HAL_Driver/Src\stm32l4xx_hal_spi.c ****   {
3543:E:/LiteOS/LiteOS_Lab/drivers/third_party/ST/STM32L4xx_HAL_Driver/Src\stm32l4xx_hal_spi.c ****     SET_BIT(hspi->ErrorCode, HAL_SPI_ERROR_FLAG);
 7224              		.loc 1 3543 0
 7225 0050 FB68     		ldr	r3, [r7, #12]
 7226 0052 1B6E     		ldr	r3, [r3, #96]
 7227 0054 43F02002 		orr	r2, r3, #32
 7228 0058 FB68     		ldr	r3, [r7, #12]
 7229 005a 1A66     		str	r2, [r3, #96]
3544:E:/LiteOS/LiteOS_Lab/drivers/third_party/ST/STM32L4xx_HAL_Driver/Src\stm32l4xx_hal_spi.c ****     return HAL_TIMEOUT;
 7230              		.loc 1 3544 0
 7231 005c 0323     		movs	r3, #3
 7232 005e 23E0     		b	.L364
 7233              	.L363:
3545:E:/LiteOS/LiteOS_Lab/drivers/third_party/ST/STM32L4xx_HAL_Driver/Src\stm32l4xx_hal_spi.c ****   }
3546:E:/LiteOS/LiteOS_Lab/drivers/third_party/ST/STM32L4xx_HAL_Driver/Src\stm32l4xx_hal_spi.c **** 
3547:E:/LiteOS/LiteOS_Lab/drivers/third_party/ST/STM32L4xx_HAL_Driver/Src\stm32l4xx_hal_spi.c ****   if ((hspi->Init.Mode == SPI_MODE_MASTER) && ((hspi->Init.Direction == SPI_DIRECTION_1LINE)
 7234              		.loc 1 3547 0
 7235 0060 FB68     		ldr	r3, [r7, #12]
 7236 0062 5B68     		ldr	r3, [r3, #4]
 7237 0064 B3F5827F 		cmp	r3, #260
 7238 0068 1DD1     		bne	.L365
 7239              		.loc 1 3547 0 is_stmt 0 discriminator 1
 7240 006a FB68     		ldr	r3, [r7, #12]
 7241 006c 9B68     		ldr	r3, [r3, #8]
 7242 006e B3F5004F 		cmp	r3, #32768
 7243 0072 04D0     		beq	.L366
3548:E:/LiteOS/LiteOS_Lab/drivers/third_party/ST/STM32L4xx_HAL_Driver/Src\stm32l4xx_hal_spi.c ****                                                || (hspi->Init.Direction == SPI_DIRECTION_2LINES_RXO
 7244              		.loc 1 3548 0 is_stmt 1
 7245 0074 FB68     		ldr	r3, [r7, #12]
 7246 0076 9B68     		ldr	r3, [r3, #8]
 7247 0078 B3F5806F 		cmp	r3, #1024
 7248 007c 13D1     		bne	.L365
 7249              	.L366:
3549:E:/LiteOS/LiteOS_Lab/drivers/third_party/ST/STM32L4xx_HAL_Driver/Src\stm32l4xx_hal_spi.c ****   {
ARM GAS  C:\Users\user\AppData\Local\Temp\ccvQ1M9B.s 			page 189


3550:E:/LiteOS/LiteOS_Lab/drivers/third_party/ST/STM32L4xx_HAL_Driver/Src\stm32l4xx_hal_spi.c ****     /* Empty the FRLVL fifo */
3551:E:/LiteOS/LiteOS_Lab/drivers/third_party/ST/STM32L4xx_HAL_Driver/Src\stm32l4xx_hal_spi.c ****     if (SPI_WaitFifoStateUntilTimeout(hspi, SPI_FLAG_FRLVL, SPI_FRLVL_EMPTY, Timeout, Tickstart) !=
 7250              		.loc 1 3551 0
 7251 007e 7B68     		ldr	r3, [r7, #4]
 7252 0080 0093     		str	r3, [sp]
 7253 0082 BB68     		ldr	r3, [r7, #8]
 7254 0084 0022     		movs	r2, #0
 7255 0086 4FF4C061 		mov	r1, #1536
 7256 008a F868     		ldr	r0, [r7, #12]
 7257 008c FFF7FEFF 		bl	SPI_WaitFifoStateUntilTimeout
 7258 0090 0346     		mov	r3, r0
 7259 0092 002B     		cmp	r3, #0
 7260 0094 07D0     		beq	.L365
3552:E:/LiteOS/LiteOS_Lab/drivers/third_party/ST/STM32L4xx_HAL_Driver/Src\stm32l4xx_hal_spi.c ****     {
3553:E:/LiteOS/LiteOS_Lab/drivers/third_party/ST/STM32L4xx_HAL_Driver/Src\stm32l4xx_hal_spi.c ****       SET_BIT(hspi->ErrorCode, HAL_SPI_ERROR_FLAG);
 7261              		.loc 1 3553 0
 7262 0096 FB68     		ldr	r3, [r7, #12]
 7263 0098 1B6E     		ldr	r3, [r3, #96]
 7264 009a 43F02002 		orr	r2, r3, #32
 7265 009e FB68     		ldr	r3, [r7, #12]
 7266 00a0 1A66     		str	r2, [r3, #96]
3554:E:/LiteOS/LiteOS_Lab/drivers/third_party/ST/STM32L4xx_HAL_Driver/Src\stm32l4xx_hal_spi.c ****       return HAL_TIMEOUT;
 7267              		.loc 1 3554 0
 7268 00a2 0323     		movs	r3, #3
 7269 00a4 00E0     		b	.L364
 7270              	.L365:
3555:E:/LiteOS/LiteOS_Lab/drivers/third_party/ST/STM32L4xx_HAL_Driver/Src\stm32l4xx_hal_spi.c ****     }
3556:E:/LiteOS/LiteOS_Lab/drivers/third_party/ST/STM32L4xx_HAL_Driver/Src\stm32l4xx_hal_spi.c ****   }
3557:E:/LiteOS/LiteOS_Lab/drivers/third_party/ST/STM32L4xx_HAL_Driver/Src\stm32l4xx_hal_spi.c ****   return HAL_OK;
 7271              		.loc 1 3557 0
 7272 00a6 0023     		movs	r3, #0
 7273              	.L364:
3558:E:/LiteOS/LiteOS_Lab/drivers/third_party/ST/STM32L4xx_HAL_Driver/Src\stm32l4xx_hal_spi.c **** }
 7274              		.loc 1 3558 0
 7275 00a8 1846     		mov	r0, r3
 7276 00aa 1037     		adds	r7, r7, #16
 7277              	.LCFI264:
 7278              		.cfi_def_cfa_offset 8
 7279 00ac BD46     		mov	sp, r7
 7280              	.LCFI265:
 7281              		.cfi_def_cfa_register 13
 7282              		@ sp needed
 7283 00ae 80BD     		pop	{r7, pc}
 7284              		.cfi_endproc
 7285              	.LFE182:
 7287              		.section	.text.SPI_EndRxTxTransaction,"ax",%progbits
 7288              		.align	1
 7289              		.syntax unified
 7290              		.thumb
 7291              		.thumb_func
 7292              		.fpu fpv4-sp-d16
 7294              	SPI_EndRxTxTransaction:
 7295              	.LFB183:
3559:E:/LiteOS/LiteOS_Lab/drivers/third_party/ST/STM32L4xx_HAL_Driver/Src\stm32l4xx_hal_spi.c **** 
3560:E:/LiteOS/LiteOS_Lab/drivers/third_party/ST/STM32L4xx_HAL_Driver/Src\stm32l4xx_hal_spi.c **** /**
3561:E:/LiteOS/LiteOS_Lab/drivers/third_party/ST/STM32L4xx_HAL_Driver/Src\stm32l4xx_hal_spi.c ****   * @brief  Handle the check of the RXTX or TX transaction complete.
3562:E:/LiteOS/LiteOS_Lab/drivers/third_party/ST/STM32L4xx_HAL_Driver/Src\stm32l4xx_hal_spi.c ****   * @param  hspi SPI handle
ARM GAS  C:\Users\user\AppData\Local\Temp\ccvQ1M9B.s 			page 190


3563:E:/LiteOS/LiteOS_Lab/drivers/third_party/ST/STM32L4xx_HAL_Driver/Src\stm32l4xx_hal_spi.c ****   * @param  Timeout Timeout duration
3564:E:/LiteOS/LiteOS_Lab/drivers/third_party/ST/STM32L4xx_HAL_Driver/Src\stm32l4xx_hal_spi.c ****   * @param  Tickstart tick start value
3565:E:/LiteOS/LiteOS_Lab/drivers/third_party/ST/STM32L4xx_HAL_Driver/Src\stm32l4xx_hal_spi.c ****   * @retval HAL status
3566:E:/LiteOS/LiteOS_Lab/drivers/third_party/ST/STM32L4xx_HAL_Driver/Src\stm32l4xx_hal_spi.c ****   */
3567:E:/LiteOS/LiteOS_Lab/drivers/third_party/ST/STM32L4xx_HAL_Driver/Src\stm32l4xx_hal_spi.c **** static HAL_StatusTypeDef SPI_EndRxTxTransaction(SPI_HandleTypeDef *hspi, uint32_t Timeout, uint32_t
3568:E:/LiteOS/LiteOS_Lab/drivers/third_party/ST/STM32L4xx_HAL_Driver/Src\stm32l4xx_hal_spi.c **** {
 7296              		.loc 1 3568 0
 7297              		.cfi_startproc
 7298              		@ args = 0, pretend = 0, frame = 16
 7299              		@ frame_needed = 1, uses_anonymous_args = 0
 7300 0000 80B5     		push	{r7, lr}
 7301              	.LCFI266:
 7302              		.cfi_def_cfa_offset 8
 7303              		.cfi_offset 7, -8
 7304              		.cfi_offset 14, -4
 7305 0002 86B0     		sub	sp, sp, #24
 7306              	.LCFI267:
 7307              		.cfi_def_cfa_offset 32
 7308 0004 02AF     		add	r7, sp, #8
 7309              	.LCFI268:
 7310              		.cfi_def_cfa 7, 24
 7311 0006 F860     		str	r0, [r7, #12]
 7312 0008 B960     		str	r1, [r7, #8]
 7313 000a 7A60     		str	r2, [r7, #4]
3569:E:/LiteOS/LiteOS_Lab/drivers/third_party/ST/STM32L4xx_HAL_Driver/Src\stm32l4xx_hal_spi.c ****   /* Control if the TX fifo is empty */
3570:E:/LiteOS/LiteOS_Lab/drivers/third_party/ST/STM32L4xx_HAL_Driver/Src\stm32l4xx_hal_spi.c ****   if (SPI_WaitFifoStateUntilTimeout(hspi, SPI_FLAG_FTLVL, SPI_FTLVL_EMPTY, Timeout, Tickstart) != H
 7314              		.loc 1 3570 0
 7315 000c 7B68     		ldr	r3, [r7, #4]
 7316 000e 0093     		str	r3, [sp]
 7317 0010 BB68     		ldr	r3, [r7, #8]
 7318 0012 0022     		movs	r2, #0
 7319 0014 4FF4C051 		mov	r1, #6144
 7320 0018 F868     		ldr	r0, [r7, #12]
 7321 001a FFF7FEFF 		bl	SPI_WaitFifoStateUntilTimeout
 7322 001e 0346     		mov	r3, r0
 7323 0020 002B     		cmp	r3, #0
 7324 0022 07D0     		beq	.L368
3571:E:/LiteOS/LiteOS_Lab/drivers/third_party/ST/STM32L4xx_HAL_Driver/Src\stm32l4xx_hal_spi.c ****   {
3572:E:/LiteOS/LiteOS_Lab/drivers/third_party/ST/STM32L4xx_HAL_Driver/Src\stm32l4xx_hal_spi.c ****     SET_BIT(hspi->ErrorCode, HAL_SPI_ERROR_FLAG);
 7325              		.loc 1 3572 0
 7326 0024 FB68     		ldr	r3, [r7, #12]
 7327 0026 1B6E     		ldr	r3, [r3, #96]
 7328 0028 43F02002 		orr	r2, r3, #32
 7329 002c FB68     		ldr	r3, [r7, #12]
 7330 002e 1A66     		str	r2, [r3, #96]
3573:E:/LiteOS/LiteOS_Lab/drivers/third_party/ST/STM32L4xx_HAL_Driver/Src\stm32l4xx_hal_spi.c ****     return HAL_TIMEOUT;
 7331              		.loc 1 3573 0
 7332 0030 0323     		movs	r3, #3
 7333 0032 27E0     		b	.L369
 7334              	.L368:
3574:E:/LiteOS/LiteOS_Lab/drivers/third_party/ST/STM32L4xx_HAL_Driver/Src\stm32l4xx_hal_spi.c ****   }
3575:E:/LiteOS/LiteOS_Lab/drivers/third_party/ST/STM32L4xx_HAL_Driver/Src\stm32l4xx_hal_spi.c **** 
3576:E:/LiteOS/LiteOS_Lab/drivers/third_party/ST/STM32L4xx_HAL_Driver/Src\stm32l4xx_hal_spi.c ****   /* Control the BSY flag */
3577:E:/LiteOS/LiteOS_Lab/drivers/third_party/ST/STM32L4xx_HAL_Driver/Src\stm32l4xx_hal_spi.c ****   if (SPI_WaitFlagStateUntilTimeout(hspi, SPI_FLAG_BSY, RESET, Timeout, Tickstart) != HAL_OK)
 7335              		.loc 1 3577 0
 7336 0034 7B68     		ldr	r3, [r7, #4]
 7337 0036 0093     		str	r3, [sp]
ARM GAS  C:\Users\user\AppData\Local\Temp\ccvQ1M9B.s 			page 191


 7338 0038 BB68     		ldr	r3, [r7, #8]
 7339 003a 0022     		movs	r2, #0
 7340 003c 8021     		movs	r1, #128
 7341 003e F868     		ldr	r0, [r7, #12]
 7342 0040 FFF7FEFF 		bl	SPI_WaitFlagStateUntilTimeout
 7343 0044 0346     		mov	r3, r0
 7344 0046 002B     		cmp	r3, #0
 7345 0048 07D0     		beq	.L370
3578:E:/LiteOS/LiteOS_Lab/drivers/third_party/ST/STM32L4xx_HAL_Driver/Src\stm32l4xx_hal_spi.c ****   {
3579:E:/LiteOS/LiteOS_Lab/drivers/third_party/ST/STM32L4xx_HAL_Driver/Src\stm32l4xx_hal_spi.c ****     SET_BIT(hspi->ErrorCode, HAL_SPI_ERROR_FLAG);
 7346              		.loc 1 3579 0
 7347 004a FB68     		ldr	r3, [r7, #12]
 7348 004c 1B6E     		ldr	r3, [r3, #96]
 7349 004e 43F02002 		orr	r2, r3, #32
 7350 0052 FB68     		ldr	r3, [r7, #12]
 7351 0054 1A66     		str	r2, [r3, #96]
3580:E:/LiteOS/LiteOS_Lab/drivers/third_party/ST/STM32L4xx_HAL_Driver/Src\stm32l4xx_hal_spi.c ****     return HAL_TIMEOUT;
 7352              		.loc 1 3580 0
 7353 0056 0323     		movs	r3, #3
 7354 0058 14E0     		b	.L369
 7355              	.L370:
3581:E:/LiteOS/LiteOS_Lab/drivers/third_party/ST/STM32L4xx_HAL_Driver/Src\stm32l4xx_hal_spi.c ****   }
3582:E:/LiteOS/LiteOS_Lab/drivers/third_party/ST/STM32L4xx_HAL_Driver/Src\stm32l4xx_hal_spi.c **** 
3583:E:/LiteOS/LiteOS_Lab/drivers/third_party/ST/STM32L4xx_HAL_Driver/Src\stm32l4xx_hal_spi.c ****   /* Control if the RX fifo is empty */
3584:E:/LiteOS/LiteOS_Lab/drivers/third_party/ST/STM32L4xx_HAL_Driver/Src\stm32l4xx_hal_spi.c ****   if (SPI_WaitFifoStateUntilTimeout(hspi, SPI_FLAG_FRLVL, SPI_FRLVL_EMPTY, Timeout, Tickstart) != H
 7356              		.loc 1 3584 0
 7357 005a 7B68     		ldr	r3, [r7, #4]
 7358 005c 0093     		str	r3, [sp]
 7359 005e BB68     		ldr	r3, [r7, #8]
 7360 0060 0022     		movs	r2, #0
 7361 0062 4FF4C061 		mov	r1, #1536
 7362 0066 F868     		ldr	r0, [r7, #12]
 7363 0068 FFF7FEFF 		bl	SPI_WaitFifoStateUntilTimeout
 7364 006c 0346     		mov	r3, r0
 7365 006e 002B     		cmp	r3, #0
 7366 0070 07D0     		beq	.L371
3585:E:/LiteOS/LiteOS_Lab/drivers/third_party/ST/STM32L4xx_HAL_Driver/Src\stm32l4xx_hal_spi.c ****   {
3586:E:/LiteOS/LiteOS_Lab/drivers/third_party/ST/STM32L4xx_HAL_Driver/Src\stm32l4xx_hal_spi.c ****     SET_BIT(hspi->ErrorCode, HAL_SPI_ERROR_FLAG);
 7367              		.loc 1 3586 0
 7368 0072 FB68     		ldr	r3, [r7, #12]
 7369 0074 1B6E     		ldr	r3, [r3, #96]
 7370 0076 43F02002 		orr	r2, r3, #32
 7371 007a FB68     		ldr	r3, [r7, #12]
 7372 007c 1A66     		str	r2, [r3, #96]
3587:E:/LiteOS/LiteOS_Lab/drivers/third_party/ST/STM32L4xx_HAL_Driver/Src\stm32l4xx_hal_spi.c ****     return HAL_TIMEOUT;
 7373              		.loc 1 3587 0
 7374 007e 0323     		movs	r3, #3
 7375 0080 00E0     		b	.L369
 7376              	.L371:
3588:E:/LiteOS/LiteOS_Lab/drivers/third_party/ST/STM32L4xx_HAL_Driver/Src\stm32l4xx_hal_spi.c ****   }
3589:E:/LiteOS/LiteOS_Lab/drivers/third_party/ST/STM32L4xx_HAL_Driver/Src\stm32l4xx_hal_spi.c **** 
3590:E:/LiteOS/LiteOS_Lab/drivers/third_party/ST/STM32L4xx_HAL_Driver/Src\stm32l4xx_hal_spi.c ****   return HAL_OK;
 7377              		.loc 1 3590 0
 7378 0082 0023     		movs	r3, #0
 7379              	.L369:
3591:E:/LiteOS/LiteOS_Lab/drivers/third_party/ST/STM32L4xx_HAL_Driver/Src\stm32l4xx_hal_spi.c **** }
 7380              		.loc 1 3591 0
ARM GAS  C:\Users\user\AppData\Local\Temp\ccvQ1M9B.s 			page 192


 7381 0084 1846     		mov	r0, r3
 7382 0086 1037     		adds	r7, r7, #16
 7383              	.LCFI269:
 7384              		.cfi_def_cfa_offset 8
 7385 0088 BD46     		mov	sp, r7
 7386              	.LCFI270:
 7387              		.cfi_def_cfa_register 13
 7388              		@ sp needed
 7389 008a 80BD     		pop	{r7, pc}
 7390              		.cfi_endproc
 7391              	.LFE183:
 7393              		.section	.text.SPI_CloseRxTx_ISR,"ax",%progbits
 7394              		.align	1
 7395              		.syntax unified
 7396              		.thumb
 7397              		.thumb_func
 7398              		.fpu fpv4-sp-d16
 7400              	SPI_CloseRxTx_ISR:
 7401              	.LFB184:
3592:E:/LiteOS/LiteOS_Lab/drivers/third_party/ST/STM32L4xx_HAL_Driver/Src\stm32l4xx_hal_spi.c **** 
3593:E:/LiteOS/LiteOS_Lab/drivers/third_party/ST/STM32L4xx_HAL_Driver/Src\stm32l4xx_hal_spi.c **** /**
3594:E:/LiteOS/LiteOS_Lab/drivers/third_party/ST/STM32L4xx_HAL_Driver/Src\stm32l4xx_hal_spi.c ****   * @brief  Handle the end of the RXTX transaction.
3595:E:/LiteOS/LiteOS_Lab/drivers/third_party/ST/STM32L4xx_HAL_Driver/Src\stm32l4xx_hal_spi.c ****   * @param  hspi pointer to a SPI_HandleTypeDef structure that contains
3596:E:/LiteOS/LiteOS_Lab/drivers/third_party/ST/STM32L4xx_HAL_Driver/Src\stm32l4xx_hal_spi.c ****   *               the configuration information for SPI module.
3597:E:/LiteOS/LiteOS_Lab/drivers/third_party/ST/STM32L4xx_HAL_Driver/Src\stm32l4xx_hal_spi.c ****   * @retval None
3598:E:/LiteOS/LiteOS_Lab/drivers/third_party/ST/STM32L4xx_HAL_Driver/Src\stm32l4xx_hal_spi.c ****   */
3599:E:/LiteOS/LiteOS_Lab/drivers/third_party/ST/STM32L4xx_HAL_Driver/Src\stm32l4xx_hal_spi.c **** static void SPI_CloseRxTx_ISR(SPI_HandleTypeDef *hspi)
3600:E:/LiteOS/LiteOS_Lab/drivers/third_party/ST/STM32L4xx_HAL_Driver/Src\stm32l4xx_hal_spi.c **** {
 7402              		.loc 1 3600 0
 7403              		.cfi_startproc
 7404              		@ args = 0, pretend = 0, frame = 16
 7405              		@ frame_needed = 1, uses_anonymous_args = 0
 7406 0000 80B5     		push	{r7, lr}
 7407              	.LCFI271:
 7408              		.cfi_def_cfa_offset 8
 7409              		.cfi_offset 7, -8
 7410              		.cfi_offset 14, -4
 7411 0002 84B0     		sub	sp, sp, #16
 7412              	.LCFI272:
 7413              		.cfi_def_cfa_offset 24
 7414 0004 00AF     		add	r7, sp, #0
 7415              	.LCFI273:
 7416              		.cfi_def_cfa_register 7
 7417 0006 7860     		str	r0, [r7, #4]
3601:E:/LiteOS/LiteOS_Lab/drivers/third_party/ST/STM32L4xx_HAL_Driver/Src\stm32l4xx_hal_spi.c ****   uint32_t tickstart = 0U;
 7418              		.loc 1 3601 0
 7419 0008 0023     		movs	r3, #0
 7420 000a FB60     		str	r3, [r7, #12]
3602:E:/LiteOS/LiteOS_Lab/drivers/third_party/ST/STM32L4xx_HAL_Driver/Src\stm32l4xx_hal_spi.c **** 
3603:E:/LiteOS/LiteOS_Lab/drivers/third_party/ST/STM32L4xx_HAL_Driver/Src\stm32l4xx_hal_spi.c ****   /* Init tickstart for timeout managment*/
3604:E:/LiteOS/LiteOS_Lab/drivers/third_party/ST/STM32L4xx_HAL_Driver/Src\stm32l4xx_hal_spi.c ****   tickstart = HAL_GetTick();
 7421              		.loc 1 3604 0
 7422 000c FFF7FEFF 		bl	HAL_GetTick
 7423 0010 F860     		str	r0, [r7, #12]
3605:E:/LiteOS/LiteOS_Lab/drivers/third_party/ST/STM32L4xx_HAL_Driver/Src\stm32l4xx_hal_spi.c **** 
3606:E:/LiteOS/LiteOS_Lab/drivers/third_party/ST/STM32L4xx_HAL_Driver/Src\stm32l4xx_hal_spi.c ****   /* Disable ERR interrupt */
3607:E:/LiteOS/LiteOS_Lab/drivers/third_party/ST/STM32L4xx_HAL_Driver/Src\stm32l4xx_hal_spi.c ****   __HAL_SPI_DISABLE_IT(hspi, SPI_IT_ERR);
ARM GAS  C:\Users\user\AppData\Local\Temp\ccvQ1M9B.s 			page 193


 7424              		.loc 1 3607 0
 7425 0012 7B68     		ldr	r3, [r7, #4]
 7426 0014 1B68     		ldr	r3, [r3]
 7427 0016 5A68     		ldr	r2, [r3, #4]
 7428 0018 7B68     		ldr	r3, [r7, #4]
 7429 001a 1B68     		ldr	r3, [r3]
 7430 001c 22F02002 		bic	r2, r2, #32
 7431 0020 5A60     		str	r2, [r3, #4]
3608:E:/LiteOS/LiteOS_Lab/drivers/third_party/ST/STM32L4xx_HAL_Driver/Src\stm32l4xx_hal_spi.c **** 
3609:E:/LiteOS/LiteOS_Lab/drivers/third_party/ST/STM32L4xx_HAL_Driver/Src\stm32l4xx_hal_spi.c ****   /* Check the end of the transaction */
3610:E:/LiteOS/LiteOS_Lab/drivers/third_party/ST/STM32L4xx_HAL_Driver/Src\stm32l4xx_hal_spi.c ****   if (SPI_EndRxTxTransaction(hspi, SPI_DEFAULT_TIMEOUT, tickstart) != HAL_OK)
 7432              		.loc 1 3610 0
 7433 0022 FA68     		ldr	r2, [r7, #12]
 7434 0024 6421     		movs	r1, #100
 7435 0026 7868     		ldr	r0, [r7, #4]
 7436 0028 FFF7FEFF 		bl	SPI_EndRxTxTransaction
 7437 002c 0346     		mov	r3, r0
 7438 002e 002B     		cmp	r3, #0
 7439 0030 05D0     		beq	.L373
3611:E:/LiteOS/LiteOS_Lab/drivers/third_party/ST/STM32L4xx_HAL_Driver/Src\stm32l4xx_hal_spi.c ****   {
3612:E:/LiteOS/LiteOS_Lab/drivers/third_party/ST/STM32L4xx_HAL_Driver/Src\stm32l4xx_hal_spi.c ****     SET_BIT(hspi->ErrorCode, HAL_SPI_ERROR_FLAG);
 7440              		.loc 1 3612 0
 7441 0032 7B68     		ldr	r3, [r7, #4]
 7442 0034 1B6E     		ldr	r3, [r3, #96]
 7443 0036 43F02002 		orr	r2, r3, #32
 7444 003a 7B68     		ldr	r3, [r7, #4]
 7445 003c 1A66     		str	r2, [r3, #96]
 7446              	.L373:
3613:E:/LiteOS/LiteOS_Lab/drivers/third_party/ST/STM32L4xx_HAL_Driver/Src\stm32l4xx_hal_spi.c ****   }
3614:E:/LiteOS/LiteOS_Lab/drivers/third_party/ST/STM32L4xx_HAL_Driver/Src\stm32l4xx_hal_spi.c **** 
3615:E:/LiteOS/LiteOS_Lab/drivers/third_party/ST/STM32L4xx_HAL_Driver/Src\stm32l4xx_hal_spi.c **** #if (USE_SPI_CRC != 0U)
3616:E:/LiteOS/LiteOS_Lab/drivers/third_party/ST/STM32L4xx_HAL_Driver/Src\stm32l4xx_hal_spi.c ****   /* Check if CRC error occurred */
3617:E:/LiteOS/LiteOS_Lab/drivers/third_party/ST/STM32L4xx_HAL_Driver/Src\stm32l4xx_hal_spi.c ****   if (__HAL_SPI_GET_FLAG(hspi, SPI_FLAG_CRCERR) != RESET)
3618:E:/LiteOS/LiteOS_Lab/drivers/third_party/ST/STM32L4xx_HAL_Driver/Src\stm32l4xx_hal_spi.c ****   {
3619:E:/LiteOS/LiteOS_Lab/drivers/third_party/ST/STM32L4xx_HAL_Driver/Src\stm32l4xx_hal_spi.c ****     hspi->State = HAL_SPI_STATE_READY;
3620:E:/LiteOS/LiteOS_Lab/drivers/third_party/ST/STM32L4xx_HAL_Driver/Src\stm32l4xx_hal_spi.c ****     SET_BIT(hspi->ErrorCode, HAL_SPI_ERROR_CRC);
3621:E:/LiteOS/LiteOS_Lab/drivers/third_party/ST/STM32L4xx_HAL_Driver/Src\stm32l4xx_hal_spi.c ****     __HAL_SPI_CLEAR_CRCERRFLAG(hspi);
3622:E:/LiteOS/LiteOS_Lab/drivers/third_party/ST/STM32L4xx_HAL_Driver/Src\stm32l4xx_hal_spi.c ****     HAL_SPI_ErrorCallback(hspi);
3623:E:/LiteOS/LiteOS_Lab/drivers/third_party/ST/STM32L4xx_HAL_Driver/Src\stm32l4xx_hal_spi.c ****   }
3624:E:/LiteOS/LiteOS_Lab/drivers/third_party/ST/STM32L4xx_HAL_Driver/Src\stm32l4xx_hal_spi.c ****   else
3625:E:/LiteOS/LiteOS_Lab/drivers/third_party/ST/STM32L4xx_HAL_Driver/Src\stm32l4xx_hal_spi.c ****   {
3626:E:/LiteOS/LiteOS_Lab/drivers/third_party/ST/STM32L4xx_HAL_Driver/Src\stm32l4xx_hal_spi.c **** #endif /* USE_SPI_CRC */
3627:E:/LiteOS/LiteOS_Lab/drivers/third_party/ST/STM32L4xx_HAL_Driver/Src\stm32l4xx_hal_spi.c ****     if (hspi->ErrorCode == HAL_SPI_ERROR_NONE)
 7447              		.loc 1 3627 0
 7448 003e 7B68     		ldr	r3, [r7, #4]
 7449 0040 1B6E     		ldr	r3, [r3, #96]
 7450 0042 002B     		cmp	r3, #0
 7451 0044 15D1     		bne	.L374
3628:E:/LiteOS/LiteOS_Lab/drivers/third_party/ST/STM32L4xx_HAL_Driver/Src\stm32l4xx_hal_spi.c ****     {
3629:E:/LiteOS/LiteOS_Lab/drivers/third_party/ST/STM32L4xx_HAL_Driver/Src\stm32l4xx_hal_spi.c ****       if (hspi->State == HAL_SPI_STATE_BUSY_RX)
 7452              		.loc 1 3629 0
 7453 0046 7B68     		ldr	r3, [r7, #4]
 7454 0048 93F85D30 		ldrb	r3, [r3, #93]
 7455 004c DBB2     		uxtb	r3, r3
 7456 004e 042B     		cmp	r3, #4
 7457 0050 07D1     		bne	.L375
3630:E:/LiteOS/LiteOS_Lab/drivers/third_party/ST/STM32L4xx_HAL_Driver/Src\stm32l4xx_hal_spi.c ****       {
ARM GAS  C:\Users\user\AppData\Local\Temp\ccvQ1M9B.s 			page 194


3631:E:/LiteOS/LiteOS_Lab/drivers/third_party/ST/STM32L4xx_HAL_Driver/Src\stm32l4xx_hal_spi.c ****         hspi->State = HAL_SPI_STATE_READY;
 7458              		.loc 1 3631 0
 7459 0052 7B68     		ldr	r3, [r7, #4]
 7460 0054 0122     		movs	r2, #1
 7461 0056 83F85D20 		strb	r2, [r3, #93]
3632:E:/LiteOS/LiteOS_Lab/drivers/third_party/ST/STM32L4xx_HAL_Driver/Src\stm32l4xx_hal_spi.c ****         HAL_SPI_RxCpltCallback(hspi);
 7462              		.loc 1 3632 0
 7463 005a 7868     		ldr	r0, [r7, #4]
 7464 005c FFF7FEFF 		bl	HAL_SPI_RxCpltCallback
3633:E:/LiteOS/LiteOS_Lab/drivers/third_party/ST/STM32L4xx_HAL_Driver/Src\stm32l4xx_hal_spi.c ****       }
3634:E:/LiteOS/LiteOS_Lab/drivers/third_party/ST/STM32L4xx_HAL_Driver/Src\stm32l4xx_hal_spi.c ****       else
3635:E:/LiteOS/LiteOS_Lab/drivers/third_party/ST/STM32L4xx_HAL_Driver/Src\stm32l4xx_hal_spi.c ****       {
3636:E:/LiteOS/LiteOS_Lab/drivers/third_party/ST/STM32L4xx_HAL_Driver/Src\stm32l4xx_hal_spi.c ****         hspi->State = HAL_SPI_STATE_READY;
3637:E:/LiteOS/LiteOS_Lab/drivers/third_party/ST/STM32L4xx_HAL_Driver/Src\stm32l4xx_hal_spi.c ****         HAL_SPI_TxRxCpltCallback(hspi);
3638:E:/LiteOS/LiteOS_Lab/drivers/third_party/ST/STM32L4xx_HAL_Driver/Src\stm32l4xx_hal_spi.c ****       }
3639:E:/LiteOS/LiteOS_Lab/drivers/third_party/ST/STM32L4xx_HAL_Driver/Src\stm32l4xx_hal_spi.c ****     }
3640:E:/LiteOS/LiteOS_Lab/drivers/third_party/ST/STM32L4xx_HAL_Driver/Src\stm32l4xx_hal_spi.c ****     else
3641:E:/LiteOS/LiteOS_Lab/drivers/third_party/ST/STM32L4xx_HAL_Driver/Src\stm32l4xx_hal_spi.c ****     {
3642:E:/LiteOS/LiteOS_Lab/drivers/third_party/ST/STM32L4xx_HAL_Driver/Src\stm32l4xx_hal_spi.c ****       hspi->State = HAL_SPI_STATE_READY;
3643:E:/LiteOS/LiteOS_Lab/drivers/third_party/ST/STM32L4xx_HAL_Driver/Src\stm32l4xx_hal_spi.c ****       HAL_SPI_ErrorCallback(hspi);
3644:E:/LiteOS/LiteOS_Lab/drivers/third_party/ST/STM32L4xx_HAL_Driver/Src\stm32l4xx_hal_spi.c ****     }
3645:E:/LiteOS/LiteOS_Lab/drivers/third_party/ST/STM32L4xx_HAL_Driver/Src\stm32l4xx_hal_spi.c **** #if (USE_SPI_CRC != 0U)
3646:E:/LiteOS/LiteOS_Lab/drivers/third_party/ST/STM32L4xx_HAL_Driver/Src\stm32l4xx_hal_spi.c ****   }
3647:E:/LiteOS/LiteOS_Lab/drivers/third_party/ST/STM32L4xx_HAL_Driver/Src\stm32l4xx_hal_spi.c **** #endif /* USE_SPI_CRC */
3648:E:/LiteOS/LiteOS_Lab/drivers/third_party/ST/STM32L4xx_HAL_Driver/Src\stm32l4xx_hal_spi.c **** }
 7465              		.loc 1 3648 0
 7466 0060 0EE0     		b	.L378
 7467              	.L375:
3636:E:/LiteOS/LiteOS_Lab/drivers/third_party/ST/STM32L4xx_HAL_Driver/Src\stm32l4xx_hal_spi.c ****         HAL_SPI_TxRxCpltCallback(hspi);
 7468              		.loc 1 3636 0
 7469 0062 7B68     		ldr	r3, [r7, #4]
 7470 0064 0122     		movs	r2, #1
 7471 0066 83F85D20 		strb	r2, [r3, #93]
3637:E:/LiteOS/LiteOS_Lab/drivers/third_party/ST/STM32L4xx_HAL_Driver/Src\stm32l4xx_hal_spi.c ****       }
 7472              		.loc 1 3637 0
 7473 006a 7868     		ldr	r0, [r7, #4]
 7474 006c FFF7FEFF 		bl	HAL_SPI_TxRxCpltCallback
 7475              		.loc 1 3648 0
 7476 0070 06E0     		b	.L378
 7477              	.L374:
3642:E:/LiteOS/LiteOS_Lab/drivers/third_party/ST/STM32L4xx_HAL_Driver/Src\stm32l4xx_hal_spi.c ****       HAL_SPI_ErrorCallback(hspi);
 7478              		.loc 1 3642 0
 7479 0072 7B68     		ldr	r3, [r7, #4]
 7480 0074 0122     		movs	r2, #1
 7481 0076 83F85D20 		strb	r2, [r3, #93]
3643:E:/LiteOS/LiteOS_Lab/drivers/third_party/ST/STM32L4xx_HAL_Driver/Src\stm32l4xx_hal_spi.c ****     }
 7482              		.loc 1 3643 0
 7483 007a 7868     		ldr	r0, [r7, #4]
 7484 007c FFF7FEFF 		bl	HAL_SPI_ErrorCallback
 7485              	.L378:
 7486              		.loc 1 3648 0
 7487 0080 00BF     		nop
 7488 0082 1037     		adds	r7, r7, #16
 7489              	.LCFI274:
 7490              		.cfi_def_cfa_offset 8
 7491 0084 BD46     		mov	sp, r7
 7492              	.LCFI275:
ARM GAS  C:\Users\user\AppData\Local\Temp\ccvQ1M9B.s 			page 195


 7493              		.cfi_def_cfa_register 13
 7494              		@ sp needed
 7495 0086 80BD     		pop	{r7, pc}
 7496              		.cfi_endproc
 7497              	.LFE184:
 7499              		.section	.text.SPI_CloseRx_ISR,"ax",%progbits
 7500              		.align	1
 7501              		.syntax unified
 7502              		.thumb
 7503              		.thumb_func
 7504              		.fpu fpv4-sp-d16
 7506              	SPI_CloseRx_ISR:
 7507              	.LFB185:
3649:E:/LiteOS/LiteOS_Lab/drivers/third_party/ST/STM32L4xx_HAL_Driver/Src\stm32l4xx_hal_spi.c **** 
3650:E:/LiteOS/LiteOS_Lab/drivers/third_party/ST/STM32L4xx_HAL_Driver/Src\stm32l4xx_hal_spi.c **** /**
3651:E:/LiteOS/LiteOS_Lab/drivers/third_party/ST/STM32L4xx_HAL_Driver/Src\stm32l4xx_hal_spi.c ****   * @brief  Handle the end of the RX transaction.
3652:E:/LiteOS/LiteOS_Lab/drivers/third_party/ST/STM32L4xx_HAL_Driver/Src\stm32l4xx_hal_spi.c ****   * @param  hspi pointer to a SPI_HandleTypeDef structure that contains
3653:E:/LiteOS/LiteOS_Lab/drivers/third_party/ST/STM32L4xx_HAL_Driver/Src\stm32l4xx_hal_spi.c ****   *               the configuration information for SPI module.
3654:E:/LiteOS/LiteOS_Lab/drivers/third_party/ST/STM32L4xx_HAL_Driver/Src\stm32l4xx_hal_spi.c ****   * @retval None
3655:E:/LiteOS/LiteOS_Lab/drivers/third_party/ST/STM32L4xx_HAL_Driver/Src\stm32l4xx_hal_spi.c ****   */
3656:E:/LiteOS/LiteOS_Lab/drivers/third_party/ST/STM32L4xx_HAL_Driver/Src\stm32l4xx_hal_spi.c **** static void SPI_CloseRx_ISR(SPI_HandleTypeDef *hspi)
3657:E:/LiteOS/LiteOS_Lab/drivers/third_party/ST/STM32L4xx_HAL_Driver/Src\stm32l4xx_hal_spi.c **** {
 7508              		.loc 1 3657 0
 7509              		.cfi_startproc
 7510              		@ args = 0, pretend = 0, frame = 8
 7511              		@ frame_needed = 1, uses_anonymous_args = 0
 7512 0000 80B5     		push	{r7, lr}
 7513              	.LCFI276:
 7514              		.cfi_def_cfa_offset 8
 7515              		.cfi_offset 7, -8
 7516              		.cfi_offset 14, -4
 7517 0002 82B0     		sub	sp, sp, #8
 7518              	.LCFI277:
 7519              		.cfi_def_cfa_offset 16
 7520 0004 00AF     		add	r7, sp, #0
 7521              	.LCFI278:
 7522              		.cfi_def_cfa_register 7
 7523 0006 7860     		str	r0, [r7, #4]
3658:E:/LiteOS/LiteOS_Lab/drivers/third_party/ST/STM32L4xx_HAL_Driver/Src\stm32l4xx_hal_spi.c ****   /* Disable RXNE and ERR interrupt */
3659:E:/LiteOS/LiteOS_Lab/drivers/third_party/ST/STM32L4xx_HAL_Driver/Src\stm32l4xx_hal_spi.c ****   __HAL_SPI_DISABLE_IT(hspi, (SPI_IT_RXNE | SPI_IT_ERR));
 7524              		.loc 1 3659 0
 7525 0008 7B68     		ldr	r3, [r7, #4]
 7526 000a 1B68     		ldr	r3, [r3]
 7527 000c 5A68     		ldr	r2, [r3, #4]
 7528 000e 7B68     		ldr	r3, [r7, #4]
 7529 0010 1B68     		ldr	r3, [r3]
 7530 0012 22F06002 		bic	r2, r2, #96
 7531 0016 5A60     		str	r2, [r3, #4]
3660:E:/LiteOS/LiteOS_Lab/drivers/third_party/ST/STM32L4xx_HAL_Driver/Src\stm32l4xx_hal_spi.c **** 
3661:E:/LiteOS/LiteOS_Lab/drivers/third_party/ST/STM32L4xx_HAL_Driver/Src\stm32l4xx_hal_spi.c ****   /* Check the end of the transaction */
3662:E:/LiteOS/LiteOS_Lab/drivers/third_party/ST/STM32L4xx_HAL_Driver/Src\stm32l4xx_hal_spi.c ****   if (SPI_EndRxTransaction(hspi, SPI_DEFAULT_TIMEOUT, HAL_GetTick()) != HAL_OK)
 7532              		.loc 1 3662 0
 7533 0018 FFF7FEFF 		bl	HAL_GetTick
 7534 001c 0346     		mov	r3, r0
 7535 001e 1A46     		mov	r2, r3
 7536 0020 6421     		movs	r1, #100
 7537 0022 7868     		ldr	r0, [r7, #4]
ARM GAS  C:\Users\user\AppData\Local\Temp\ccvQ1M9B.s 			page 196


 7538 0024 FFF7FEFF 		bl	SPI_EndRxTransaction
 7539 0028 0346     		mov	r3, r0
 7540 002a 002B     		cmp	r3, #0
 7541 002c 05D0     		beq	.L380
3663:E:/LiteOS/LiteOS_Lab/drivers/third_party/ST/STM32L4xx_HAL_Driver/Src\stm32l4xx_hal_spi.c ****   {
3664:E:/LiteOS/LiteOS_Lab/drivers/third_party/ST/STM32L4xx_HAL_Driver/Src\stm32l4xx_hal_spi.c ****     SET_BIT(hspi->ErrorCode, HAL_SPI_ERROR_FLAG);
 7542              		.loc 1 3664 0
 7543 002e 7B68     		ldr	r3, [r7, #4]
 7544 0030 1B6E     		ldr	r3, [r3, #96]
 7545 0032 43F02002 		orr	r2, r3, #32
 7546 0036 7B68     		ldr	r3, [r7, #4]
 7547 0038 1A66     		str	r2, [r3, #96]
 7548              	.L380:
3665:E:/LiteOS/LiteOS_Lab/drivers/third_party/ST/STM32L4xx_HAL_Driver/Src\stm32l4xx_hal_spi.c ****   }
3666:E:/LiteOS/LiteOS_Lab/drivers/third_party/ST/STM32L4xx_HAL_Driver/Src\stm32l4xx_hal_spi.c ****   hspi->State = HAL_SPI_STATE_READY;
 7549              		.loc 1 3666 0
 7550 003a 7B68     		ldr	r3, [r7, #4]
 7551 003c 0122     		movs	r2, #1
 7552 003e 83F85D20 		strb	r2, [r3, #93]
3667:E:/LiteOS/LiteOS_Lab/drivers/third_party/ST/STM32L4xx_HAL_Driver/Src\stm32l4xx_hal_spi.c **** 
3668:E:/LiteOS/LiteOS_Lab/drivers/third_party/ST/STM32L4xx_HAL_Driver/Src\stm32l4xx_hal_spi.c **** #if (USE_SPI_CRC != 0U)
3669:E:/LiteOS/LiteOS_Lab/drivers/third_party/ST/STM32L4xx_HAL_Driver/Src\stm32l4xx_hal_spi.c ****   /* Check if CRC error occurred */
3670:E:/LiteOS/LiteOS_Lab/drivers/third_party/ST/STM32L4xx_HAL_Driver/Src\stm32l4xx_hal_spi.c ****   if (__HAL_SPI_GET_FLAG(hspi, SPI_FLAG_CRCERR) != RESET)
3671:E:/LiteOS/LiteOS_Lab/drivers/third_party/ST/STM32L4xx_HAL_Driver/Src\stm32l4xx_hal_spi.c ****   {
3672:E:/LiteOS/LiteOS_Lab/drivers/third_party/ST/STM32L4xx_HAL_Driver/Src\stm32l4xx_hal_spi.c ****     SET_BIT(hspi->ErrorCode, HAL_SPI_ERROR_CRC);
3673:E:/LiteOS/LiteOS_Lab/drivers/third_party/ST/STM32L4xx_HAL_Driver/Src\stm32l4xx_hal_spi.c ****     __HAL_SPI_CLEAR_CRCERRFLAG(hspi);
3674:E:/LiteOS/LiteOS_Lab/drivers/third_party/ST/STM32L4xx_HAL_Driver/Src\stm32l4xx_hal_spi.c ****     HAL_SPI_ErrorCallback(hspi);
3675:E:/LiteOS/LiteOS_Lab/drivers/third_party/ST/STM32L4xx_HAL_Driver/Src\stm32l4xx_hal_spi.c ****   }
3676:E:/LiteOS/LiteOS_Lab/drivers/third_party/ST/STM32L4xx_HAL_Driver/Src\stm32l4xx_hal_spi.c ****   else
3677:E:/LiteOS/LiteOS_Lab/drivers/third_party/ST/STM32L4xx_HAL_Driver/Src\stm32l4xx_hal_spi.c ****   {
3678:E:/LiteOS/LiteOS_Lab/drivers/third_party/ST/STM32L4xx_HAL_Driver/Src\stm32l4xx_hal_spi.c **** #endif /* USE_SPI_CRC */
3679:E:/LiteOS/LiteOS_Lab/drivers/third_party/ST/STM32L4xx_HAL_Driver/Src\stm32l4xx_hal_spi.c ****     if (hspi->ErrorCode == HAL_SPI_ERROR_NONE)
 7553              		.loc 1 3679 0
 7554 0042 7B68     		ldr	r3, [r7, #4]
 7555 0044 1B6E     		ldr	r3, [r3, #96]
 7556 0046 002B     		cmp	r3, #0
 7557 0048 03D1     		bne	.L381
3680:E:/LiteOS/LiteOS_Lab/drivers/third_party/ST/STM32L4xx_HAL_Driver/Src\stm32l4xx_hal_spi.c ****     {
3681:E:/LiteOS/LiteOS_Lab/drivers/third_party/ST/STM32L4xx_HAL_Driver/Src\stm32l4xx_hal_spi.c ****       HAL_SPI_RxCpltCallback(hspi);
 7558              		.loc 1 3681 0
 7559 004a 7868     		ldr	r0, [r7, #4]
 7560 004c FFF7FEFF 		bl	HAL_SPI_RxCpltCallback
3682:E:/LiteOS/LiteOS_Lab/drivers/third_party/ST/STM32L4xx_HAL_Driver/Src\stm32l4xx_hal_spi.c ****     }
3683:E:/LiteOS/LiteOS_Lab/drivers/third_party/ST/STM32L4xx_HAL_Driver/Src\stm32l4xx_hal_spi.c ****     else
3684:E:/LiteOS/LiteOS_Lab/drivers/third_party/ST/STM32L4xx_HAL_Driver/Src\stm32l4xx_hal_spi.c ****     {
3685:E:/LiteOS/LiteOS_Lab/drivers/third_party/ST/STM32L4xx_HAL_Driver/Src\stm32l4xx_hal_spi.c ****       HAL_SPI_ErrorCallback(hspi);
3686:E:/LiteOS/LiteOS_Lab/drivers/third_party/ST/STM32L4xx_HAL_Driver/Src\stm32l4xx_hal_spi.c ****     }
3687:E:/LiteOS/LiteOS_Lab/drivers/third_party/ST/STM32L4xx_HAL_Driver/Src\stm32l4xx_hal_spi.c **** #if (USE_SPI_CRC != 0U)
3688:E:/LiteOS/LiteOS_Lab/drivers/third_party/ST/STM32L4xx_HAL_Driver/Src\stm32l4xx_hal_spi.c ****   }
3689:E:/LiteOS/LiteOS_Lab/drivers/third_party/ST/STM32L4xx_HAL_Driver/Src\stm32l4xx_hal_spi.c **** #endif /* USE_SPI_CRC */
3690:E:/LiteOS/LiteOS_Lab/drivers/third_party/ST/STM32L4xx_HAL_Driver/Src\stm32l4xx_hal_spi.c **** }
 7561              		.loc 1 3690 0
 7562 0050 02E0     		b	.L383
 7563              	.L381:
3685:E:/LiteOS/LiteOS_Lab/drivers/third_party/ST/STM32L4xx_HAL_Driver/Src\stm32l4xx_hal_spi.c ****     }
 7564              		.loc 1 3685 0
 7565 0052 7868     		ldr	r0, [r7, #4]
ARM GAS  C:\Users\user\AppData\Local\Temp\ccvQ1M9B.s 			page 197


 7566 0054 FFF7FEFF 		bl	HAL_SPI_ErrorCallback
 7567              	.L383:
 7568              		.loc 1 3690 0
 7569 0058 00BF     		nop
 7570 005a 0837     		adds	r7, r7, #8
 7571              	.LCFI279:
 7572              		.cfi_def_cfa_offset 8
 7573 005c BD46     		mov	sp, r7
 7574              	.LCFI280:
 7575              		.cfi_def_cfa_register 13
 7576              		@ sp needed
 7577 005e 80BD     		pop	{r7, pc}
 7578              		.cfi_endproc
 7579              	.LFE185:
 7581              		.section	.text.SPI_CloseTx_ISR,"ax",%progbits
 7582              		.align	1
 7583              		.syntax unified
 7584              		.thumb
 7585              		.thumb_func
 7586              		.fpu fpv4-sp-d16
 7588              	SPI_CloseTx_ISR:
 7589              	.LFB186:
3691:E:/LiteOS/LiteOS_Lab/drivers/third_party/ST/STM32L4xx_HAL_Driver/Src\stm32l4xx_hal_spi.c **** 
3692:E:/LiteOS/LiteOS_Lab/drivers/third_party/ST/STM32L4xx_HAL_Driver/Src\stm32l4xx_hal_spi.c **** /**
3693:E:/LiteOS/LiteOS_Lab/drivers/third_party/ST/STM32L4xx_HAL_Driver/Src\stm32l4xx_hal_spi.c ****   * @brief  Handle the end of the TX transaction.
3694:E:/LiteOS/LiteOS_Lab/drivers/third_party/ST/STM32L4xx_HAL_Driver/Src\stm32l4xx_hal_spi.c ****   * @param  hspi pointer to a SPI_HandleTypeDef structure that contains
3695:E:/LiteOS/LiteOS_Lab/drivers/third_party/ST/STM32L4xx_HAL_Driver/Src\stm32l4xx_hal_spi.c ****   *               the configuration information for SPI module.
3696:E:/LiteOS/LiteOS_Lab/drivers/third_party/ST/STM32L4xx_HAL_Driver/Src\stm32l4xx_hal_spi.c ****   * @retval None
3697:E:/LiteOS/LiteOS_Lab/drivers/third_party/ST/STM32L4xx_HAL_Driver/Src\stm32l4xx_hal_spi.c ****   */
3698:E:/LiteOS/LiteOS_Lab/drivers/third_party/ST/STM32L4xx_HAL_Driver/Src\stm32l4xx_hal_spi.c **** static void SPI_CloseTx_ISR(SPI_HandleTypeDef *hspi)
3699:E:/LiteOS/LiteOS_Lab/drivers/third_party/ST/STM32L4xx_HAL_Driver/Src\stm32l4xx_hal_spi.c **** {
 7590              		.loc 1 3699 0
 7591              		.cfi_startproc
 7592              		@ args = 0, pretend = 0, frame = 16
 7593              		@ frame_needed = 1, uses_anonymous_args = 0
 7594 0000 80B5     		push	{r7, lr}
 7595              	.LCFI281:
 7596              		.cfi_def_cfa_offset 8
 7597              		.cfi_offset 7, -8
 7598              		.cfi_offset 14, -4
 7599 0002 84B0     		sub	sp, sp, #16
 7600              	.LCFI282:
 7601              		.cfi_def_cfa_offset 24
 7602 0004 00AF     		add	r7, sp, #0
 7603              	.LCFI283:
 7604              		.cfi_def_cfa_register 7
 7605 0006 7860     		str	r0, [r7, #4]
3700:E:/LiteOS/LiteOS_Lab/drivers/third_party/ST/STM32L4xx_HAL_Driver/Src\stm32l4xx_hal_spi.c ****   uint32_t tickstart = 0U;
 7606              		.loc 1 3700 0
 7607 0008 0023     		movs	r3, #0
 7608 000a FB60     		str	r3, [r7, #12]
3701:E:/LiteOS/LiteOS_Lab/drivers/third_party/ST/STM32L4xx_HAL_Driver/Src\stm32l4xx_hal_spi.c **** 
3702:E:/LiteOS/LiteOS_Lab/drivers/third_party/ST/STM32L4xx_HAL_Driver/Src\stm32l4xx_hal_spi.c ****   /* Init tickstart for timeout management*/
3703:E:/LiteOS/LiteOS_Lab/drivers/third_party/ST/STM32L4xx_HAL_Driver/Src\stm32l4xx_hal_spi.c ****   tickstart = HAL_GetTick();
 7609              		.loc 1 3703 0
 7610 000c FFF7FEFF 		bl	HAL_GetTick
 7611 0010 F860     		str	r0, [r7, #12]
ARM GAS  C:\Users\user\AppData\Local\Temp\ccvQ1M9B.s 			page 198


3704:E:/LiteOS/LiteOS_Lab/drivers/third_party/ST/STM32L4xx_HAL_Driver/Src\stm32l4xx_hal_spi.c **** 
3705:E:/LiteOS/LiteOS_Lab/drivers/third_party/ST/STM32L4xx_HAL_Driver/Src\stm32l4xx_hal_spi.c ****   /* Disable TXE and ERR interrupt */
3706:E:/LiteOS/LiteOS_Lab/drivers/third_party/ST/STM32L4xx_HAL_Driver/Src\stm32l4xx_hal_spi.c ****   __HAL_SPI_DISABLE_IT(hspi, (SPI_IT_TXE | SPI_IT_ERR));
 7612              		.loc 1 3706 0
 7613 0012 7B68     		ldr	r3, [r7, #4]
 7614 0014 1B68     		ldr	r3, [r3]
 7615 0016 5A68     		ldr	r2, [r3, #4]
 7616 0018 7B68     		ldr	r3, [r7, #4]
 7617 001a 1B68     		ldr	r3, [r3]
 7618 001c 22F0A002 		bic	r2, r2, #160
 7619 0020 5A60     		str	r2, [r3, #4]
3707:E:/LiteOS/LiteOS_Lab/drivers/third_party/ST/STM32L4xx_HAL_Driver/Src\stm32l4xx_hal_spi.c **** 
3708:E:/LiteOS/LiteOS_Lab/drivers/third_party/ST/STM32L4xx_HAL_Driver/Src\stm32l4xx_hal_spi.c ****   /* Check the end of the transaction */
3709:E:/LiteOS/LiteOS_Lab/drivers/third_party/ST/STM32L4xx_HAL_Driver/Src\stm32l4xx_hal_spi.c ****   if (SPI_EndRxTxTransaction(hspi, SPI_DEFAULT_TIMEOUT, tickstart) != HAL_OK)
 7620              		.loc 1 3709 0
 7621 0022 FA68     		ldr	r2, [r7, #12]
 7622 0024 6421     		movs	r1, #100
 7623 0026 7868     		ldr	r0, [r7, #4]
 7624 0028 FFF7FEFF 		bl	SPI_EndRxTxTransaction
 7625 002c 0346     		mov	r3, r0
 7626 002e 002B     		cmp	r3, #0
 7627 0030 05D0     		beq	.L385
3710:E:/LiteOS/LiteOS_Lab/drivers/third_party/ST/STM32L4xx_HAL_Driver/Src\stm32l4xx_hal_spi.c ****   {
3711:E:/LiteOS/LiteOS_Lab/drivers/third_party/ST/STM32L4xx_HAL_Driver/Src\stm32l4xx_hal_spi.c ****     SET_BIT(hspi->ErrorCode, HAL_SPI_ERROR_FLAG);
 7628              		.loc 1 3711 0
 7629 0032 7B68     		ldr	r3, [r7, #4]
 7630 0034 1B6E     		ldr	r3, [r3, #96]
 7631 0036 43F02002 		orr	r2, r3, #32
 7632 003a 7B68     		ldr	r3, [r7, #4]
 7633 003c 1A66     		str	r2, [r3, #96]
 7634              	.L385:
3712:E:/LiteOS/LiteOS_Lab/drivers/third_party/ST/STM32L4xx_HAL_Driver/Src\stm32l4xx_hal_spi.c ****   }
3713:E:/LiteOS/LiteOS_Lab/drivers/third_party/ST/STM32L4xx_HAL_Driver/Src\stm32l4xx_hal_spi.c **** 
3714:E:/LiteOS/LiteOS_Lab/drivers/third_party/ST/STM32L4xx_HAL_Driver/Src\stm32l4xx_hal_spi.c ****   /* Clear overrun flag in 2 Lines communication mode because received is not read */
3715:E:/LiteOS/LiteOS_Lab/drivers/third_party/ST/STM32L4xx_HAL_Driver/Src\stm32l4xx_hal_spi.c ****   if (hspi->Init.Direction == SPI_DIRECTION_2LINES)
 7635              		.loc 1 3715 0
 7636 003e 7B68     		ldr	r3, [r7, #4]
 7637 0040 9B68     		ldr	r3, [r3, #8]
 7638 0042 002B     		cmp	r3, #0
 7639 0044 0AD1     		bne	.L386
 7640              	.LBB16:
3716:E:/LiteOS/LiteOS_Lab/drivers/third_party/ST/STM32L4xx_HAL_Driver/Src\stm32l4xx_hal_spi.c ****   {
3717:E:/LiteOS/LiteOS_Lab/drivers/third_party/ST/STM32L4xx_HAL_Driver/Src\stm32l4xx_hal_spi.c ****     __HAL_SPI_CLEAR_OVRFLAG(hspi);
 7641              		.loc 1 3717 0
 7642 0046 0023     		movs	r3, #0
 7643 0048 BB60     		str	r3, [r7, #8]
 7644 004a 7B68     		ldr	r3, [r7, #4]
 7645 004c 1B68     		ldr	r3, [r3]
 7646 004e DB68     		ldr	r3, [r3, #12]
 7647 0050 BB60     		str	r3, [r7, #8]
 7648 0052 7B68     		ldr	r3, [r7, #4]
 7649 0054 1B68     		ldr	r3, [r3]
 7650 0056 9B68     		ldr	r3, [r3, #8]
 7651 0058 BB60     		str	r3, [r7, #8]
 7652 005a BB68     		ldr	r3, [r7, #8]
 7653              	.L386:
 7654              	.LBE16:
ARM GAS  C:\Users\user\AppData\Local\Temp\ccvQ1M9B.s 			page 199


3718:E:/LiteOS/LiteOS_Lab/drivers/third_party/ST/STM32L4xx_HAL_Driver/Src\stm32l4xx_hal_spi.c ****   }
3719:E:/LiteOS/LiteOS_Lab/drivers/third_party/ST/STM32L4xx_HAL_Driver/Src\stm32l4xx_hal_spi.c **** 
3720:E:/LiteOS/LiteOS_Lab/drivers/third_party/ST/STM32L4xx_HAL_Driver/Src\stm32l4xx_hal_spi.c ****   hspi->State = HAL_SPI_STATE_READY;
 7655              		.loc 1 3720 0
 7656 005c 7B68     		ldr	r3, [r7, #4]
 7657 005e 0122     		movs	r2, #1
 7658 0060 83F85D20 		strb	r2, [r3, #93]
3721:E:/LiteOS/LiteOS_Lab/drivers/third_party/ST/STM32L4xx_HAL_Driver/Src\stm32l4xx_hal_spi.c ****   if (hspi->ErrorCode != HAL_SPI_ERROR_NONE)
 7659              		.loc 1 3721 0
 7660 0064 7B68     		ldr	r3, [r7, #4]
 7661 0066 1B6E     		ldr	r3, [r3, #96]
 7662 0068 002B     		cmp	r3, #0
 7663 006a 03D0     		beq	.L387
3722:E:/LiteOS/LiteOS_Lab/drivers/third_party/ST/STM32L4xx_HAL_Driver/Src\stm32l4xx_hal_spi.c ****   {
3723:E:/LiteOS/LiteOS_Lab/drivers/third_party/ST/STM32L4xx_HAL_Driver/Src\stm32l4xx_hal_spi.c ****     HAL_SPI_ErrorCallback(hspi);
 7664              		.loc 1 3723 0
 7665 006c 7868     		ldr	r0, [r7, #4]
 7666 006e FFF7FEFF 		bl	HAL_SPI_ErrorCallback
3724:E:/LiteOS/LiteOS_Lab/drivers/third_party/ST/STM32L4xx_HAL_Driver/Src\stm32l4xx_hal_spi.c ****   }
3725:E:/LiteOS/LiteOS_Lab/drivers/third_party/ST/STM32L4xx_HAL_Driver/Src\stm32l4xx_hal_spi.c ****   else
3726:E:/LiteOS/LiteOS_Lab/drivers/third_party/ST/STM32L4xx_HAL_Driver/Src\stm32l4xx_hal_spi.c ****   {
3727:E:/LiteOS/LiteOS_Lab/drivers/third_party/ST/STM32L4xx_HAL_Driver/Src\stm32l4xx_hal_spi.c ****     HAL_SPI_TxCpltCallback(hspi);
3728:E:/LiteOS/LiteOS_Lab/drivers/third_party/ST/STM32L4xx_HAL_Driver/Src\stm32l4xx_hal_spi.c ****   }
3729:E:/LiteOS/LiteOS_Lab/drivers/third_party/ST/STM32L4xx_HAL_Driver/Src\stm32l4xx_hal_spi.c **** }
 7667              		.loc 1 3729 0
 7668 0072 02E0     		b	.L389
 7669              	.L387:
3727:E:/LiteOS/LiteOS_Lab/drivers/third_party/ST/STM32L4xx_HAL_Driver/Src\stm32l4xx_hal_spi.c ****   }
 7670              		.loc 1 3727 0
 7671 0074 7868     		ldr	r0, [r7, #4]
 7672 0076 FFF7FEFF 		bl	HAL_SPI_TxCpltCallback
 7673              	.L389:
 7674              		.loc 1 3729 0
 7675 007a 00BF     		nop
 7676 007c 1037     		adds	r7, r7, #16
 7677              	.LCFI284:
 7678              		.cfi_def_cfa_offset 8
 7679 007e BD46     		mov	sp, r7
 7680              	.LCFI285:
 7681              		.cfi_def_cfa_register 13
 7682              		@ sp needed
 7683 0080 80BD     		pop	{r7, pc}
 7684              		.cfi_endproc
 7685              	.LFE186:
 7687              		.section	.text.SPI_AbortRx_ISR,"ax",%progbits
 7688              		.align	1
 7689              		.syntax unified
 7690              		.thumb
 7691              		.thumb_func
 7692              		.fpu fpv4-sp-d16
 7694              	SPI_AbortRx_ISR:
 7695              	.LFB187:
3730:E:/LiteOS/LiteOS_Lab/drivers/third_party/ST/STM32L4xx_HAL_Driver/Src\stm32l4xx_hal_spi.c **** 
3731:E:/LiteOS/LiteOS_Lab/drivers/third_party/ST/STM32L4xx_HAL_Driver/Src\stm32l4xx_hal_spi.c **** /**
3732:E:/LiteOS/LiteOS_Lab/drivers/third_party/ST/STM32L4xx_HAL_Driver/Src\stm32l4xx_hal_spi.c ****   * @brief  Handle abort a Rx transaction.
3733:E:/LiteOS/LiteOS_Lab/drivers/third_party/ST/STM32L4xx_HAL_Driver/Src\stm32l4xx_hal_spi.c ****   * @param  hspi pointer to a SPI_HandleTypeDef structure that contains
3734:E:/LiteOS/LiteOS_Lab/drivers/third_party/ST/STM32L4xx_HAL_Driver/Src\stm32l4xx_hal_spi.c ****   *               the configuration information for SPI module.
ARM GAS  C:\Users\user\AppData\Local\Temp\ccvQ1M9B.s 			page 200


3735:E:/LiteOS/LiteOS_Lab/drivers/third_party/ST/STM32L4xx_HAL_Driver/Src\stm32l4xx_hal_spi.c ****   * @retval None
3736:E:/LiteOS/LiteOS_Lab/drivers/third_party/ST/STM32L4xx_HAL_Driver/Src\stm32l4xx_hal_spi.c ****   */
3737:E:/LiteOS/LiteOS_Lab/drivers/third_party/ST/STM32L4xx_HAL_Driver/Src\stm32l4xx_hal_spi.c **** static void SPI_AbortRx_ISR(SPI_HandleTypeDef *hspi)
3738:E:/LiteOS/LiteOS_Lab/drivers/third_party/ST/STM32L4xx_HAL_Driver/Src\stm32l4xx_hal_spi.c **** {
 7696              		.loc 1 3738 0
 7697              		.cfi_startproc
 7698              		@ args = 0, pretend = 0, frame = 16
 7699              		@ frame_needed = 1, uses_anonymous_args = 0
 7700 0000 80B5     		push	{r7, lr}
 7701              	.LCFI286:
 7702              		.cfi_def_cfa_offset 8
 7703              		.cfi_offset 7, -8
 7704              		.cfi_offset 14, -4
 7705 0002 86B0     		sub	sp, sp, #24
 7706              	.LCFI287:
 7707              		.cfi_def_cfa_offset 32
 7708 0004 02AF     		add	r7, sp, #8
 7709              	.LCFI288:
 7710              		.cfi_def_cfa 7, 24
 7711 0006 7860     		str	r0, [r7, #4]
3739:E:/LiteOS/LiteOS_Lab/drivers/third_party/ST/STM32L4xx_HAL_Driver/Src\stm32l4xx_hal_spi.c ****   __IO uint32_t count;
3740:E:/LiteOS/LiteOS_Lab/drivers/third_party/ST/STM32L4xx_HAL_Driver/Src\stm32l4xx_hal_spi.c **** 
3741:E:/LiteOS/LiteOS_Lab/drivers/third_party/ST/STM32L4xx_HAL_Driver/Src\stm32l4xx_hal_spi.c ****   /* Disable SPI Peripheral */
3742:E:/LiteOS/LiteOS_Lab/drivers/third_party/ST/STM32L4xx_HAL_Driver/Src\stm32l4xx_hal_spi.c ****   __HAL_SPI_DISABLE(hspi);
 7712              		.loc 1 3742 0
 7713 0008 7B68     		ldr	r3, [r7, #4]
 7714 000a 1B68     		ldr	r3, [r3]
 7715 000c 1A68     		ldr	r2, [r3]
 7716 000e 7B68     		ldr	r3, [r7, #4]
 7717 0010 1B68     		ldr	r3, [r3]
 7718 0012 22F04002 		bic	r2, r2, #64
 7719 0016 1A60     		str	r2, [r3]
3743:E:/LiteOS/LiteOS_Lab/drivers/third_party/ST/STM32L4xx_HAL_Driver/Src\stm32l4xx_hal_spi.c **** 
3744:E:/LiteOS/LiteOS_Lab/drivers/third_party/ST/STM32L4xx_HAL_Driver/Src\stm32l4xx_hal_spi.c ****   count = SPI_DEFAULT_TIMEOUT * (SystemCoreClock / 24U / 1000U);
 7720              		.loc 1 3744 0
 7721 0018 264B     		ldr	r3, .L396
 7722 001a 1B68     		ldr	r3, [r3]
 7723 001c 264A     		ldr	r2, .L396+4
 7724 001e A2FB0323 		umull	r2, r3, r2, r3
 7725 0022 5B0A     		lsrs	r3, r3, #9
 7726 0024 6422     		movs	r2, #100
 7727 0026 02FB03F3 		mul	r3, r2, r3
 7728 002a FB60     		str	r3, [r7, #12]
3745:E:/LiteOS/LiteOS_Lab/drivers/third_party/ST/STM32L4xx_HAL_Driver/Src\stm32l4xx_hal_spi.c **** 
3746:E:/LiteOS/LiteOS_Lab/drivers/third_party/ST/STM32L4xx_HAL_Driver/Src\stm32l4xx_hal_spi.c ****   /* Disable TXEIE, RXNEIE and ERRIE(mode fault event, overrun error, TI frame error) interrupts */
3747:E:/LiteOS/LiteOS_Lab/drivers/third_party/ST/STM32L4xx_HAL_Driver/Src\stm32l4xx_hal_spi.c ****   CLEAR_BIT(hspi->Instance->CR2, (SPI_CR2_TXEIE | SPI_CR2_RXNEIE | SPI_CR2_ERRIE));
 7729              		.loc 1 3747 0
 7730 002c 7B68     		ldr	r3, [r7, #4]
 7731 002e 1B68     		ldr	r3, [r3]
 7732 0030 5A68     		ldr	r2, [r3, #4]
 7733 0032 7B68     		ldr	r3, [r7, #4]
 7734 0034 1B68     		ldr	r3, [r3]
 7735 0036 22F0E002 		bic	r2, r2, #224
 7736 003a 5A60     		str	r2, [r3, #4]
 7737              	.L393:
3748:E:/LiteOS/LiteOS_Lab/drivers/third_party/ST/STM32L4xx_HAL_Driver/Src\stm32l4xx_hal_spi.c **** 
3749:E:/LiteOS/LiteOS_Lab/drivers/third_party/ST/STM32L4xx_HAL_Driver/Src\stm32l4xx_hal_spi.c ****   /* Check RXNEIE is disabled */
ARM GAS  C:\Users\user\AppData\Local\Temp\ccvQ1M9B.s 			page 201


3750:E:/LiteOS/LiteOS_Lab/drivers/third_party/ST/STM32L4xx_HAL_Driver/Src\stm32l4xx_hal_spi.c ****   do
3751:E:/LiteOS/LiteOS_Lab/drivers/third_party/ST/STM32L4xx_HAL_Driver/Src\stm32l4xx_hal_spi.c ****   {
3752:E:/LiteOS/LiteOS_Lab/drivers/third_party/ST/STM32L4xx_HAL_Driver/Src\stm32l4xx_hal_spi.c ****     if (count-- == 0U)
 7738              		.loc 1 3752 0
 7739 003c FB68     		ldr	r3, [r7, #12]
 7740 003e 5A1E     		subs	r2, r3, #1
 7741 0040 FA60     		str	r2, [r7, #12]
 7742 0042 002B     		cmp	r3, #0
 7743 0044 06D1     		bne	.L391
3753:E:/LiteOS/LiteOS_Lab/drivers/third_party/ST/STM32L4xx_HAL_Driver/Src\stm32l4xx_hal_spi.c ****     {
3754:E:/LiteOS/LiteOS_Lab/drivers/third_party/ST/STM32L4xx_HAL_Driver/Src\stm32l4xx_hal_spi.c ****       SET_BIT(hspi->ErrorCode, HAL_SPI_ERROR_ABORT);
 7744              		.loc 1 3754 0
 7745 0046 7B68     		ldr	r3, [r7, #4]
 7746 0048 1B6E     		ldr	r3, [r3, #96]
 7747 004a 43F04002 		orr	r2, r3, #64
 7748 004e 7B68     		ldr	r3, [r7, #4]
 7749 0050 1A66     		str	r2, [r3, #96]
3755:E:/LiteOS/LiteOS_Lab/drivers/third_party/ST/STM32L4xx_HAL_Driver/Src\stm32l4xx_hal_spi.c ****       break;
 7750              		.loc 1 3755 0
 7751 0052 06E0     		b	.L392
 7752              	.L391:
3756:E:/LiteOS/LiteOS_Lab/drivers/third_party/ST/STM32L4xx_HAL_Driver/Src\stm32l4xx_hal_spi.c ****     }
3757:E:/LiteOS/LiteOS_Lab/drivers/third_party/ST/STM32L4xx_HAL_Driver/Src\stm32l4xx_hal_spi.c ****   }
3758:E:/LiteOS/LiteOS_Lab/drivers/third_party/ST/STM32L4xx_HAL_Driver/Src\stm32l4xx_hal_spi.c ****   while (HAL_IS_BIT_SET(hspi->Instance->CR2, SPI_CR2_RXNEIE));
 7753              		.loc 1 3758 0
 7754 0054 7B68     		ldr	r3, [r7, #4]
 7755 0056 1B68     		ldr	r3, [r3]
 7756 0058 5B68     		ldr	r3, [r3, #4]
 7757 005a 03F04003 		and	r3, r3, #64
 7758 005e 402B     		cmp	r3, #64
 7759 0060 ECD0     		beq	.L393
 7760              	.L392:
3759:E:/LiteOS/LiteOS_Lab/drivers/third_party/ST/STM32L4xx_HAL_Driver/Src\stm32l4xx_hal_spi.c **** 
3760:E:/LiteOS/LiteOS_Lab/drivers/third_party/ST/STM32L4xx_HAL_Driver/Src\stm32l4xx_hal_spi.c ****   /* Control the BSY flag */
3761:E:/LiteOS/LiteOS_Lab/drivers/third_party/ST/STM32L4xx_HAL_Driver/Src\stm32l4xx_hal_spi.c ****   if (SPI_WaitFlagStateUntilTimeout(hspi, SPI_FLAG_BSY, RESET, SPI_DEFAULT_TIMEOUT, HAL_GetTick()) 
 7761              		.loc 1 3761 0
 7762 0062 FFF7FEFF 		bl	HAL_GetTick
 7763 0066 0346     		mov	r3, r0
 7764 0068 0093     		str	r3, [sp]
 7765 006a 6423     		movs	r3, #100
 7766 006c 0022     		movs	r2, #0
 7767 006e 8021     		movs	r1, #128
 7768 0070 7868     		ldr	r0, [r7, #4]
 7769 0072 FFF7FEFF 		bl	SPI_WaitFlagStateUntilTimeout
 7770 0076 0346     		mov	r3, r0
 7771 0078 002B     		cmp	r3, #0
 7772 007a 02D0     		beq	.L394
3762:E:/LiteOS/LiteOS_Lab/drivers/third_party/ST/STM32L4xx_HAL_Driver/Src\stm32l4xx_hal_spi.c ****   {
3763:E:/LiteOS/LiteOS_Lab/drivers/third_party/ST/STM32L4xx_HAL_Driver/Src\stm32l4xx_hal_spi.c ****     hspi->ErrorCode = HAL_SPI_ERROR_ABORT;
 7773              		.loc 1 3763 0
 7774 007c 7B68     		ldr	r3, [r7, #4]
 7775 007e 4022     		movs	r2, #64
 7776 0080 1A66     		str	r2, [r3, #96]
 7777              	.L394:
3764:E:/LiteOS/LiteOS_Lab/drivers/third_party/ST/STM32L4xx_HAL_Driver/Src\stm32l4xx_hal_spi.c ****   }
3765:E:/LiteOS/LiteOS_Lab/drivers/third_party/ST/STM32L4xx_HAL_Driver/Src\stm32l4xx_hal_spi.c **** 
3766:E:/LiteOS/LiteOS_Lab/drivers/third_party/ST/STM32L4xx_HAL_Driver/Src\stm32l4xx_hal_spi.c ****   /* Empty the FRLVL fifo */
ARM GAS  C:\Users\user\AppData\Local\Temp\ccvQ1M9B.s 			page 202


3767:E:/LiteOS/LiteOS_Lab/drivers/third_party/ST/STM32L4xx_HAL_Driver/Src\stm32l4xx_hal_spi.c ****   if (SPI_WaitFifoStateUntilTimeout(hspi, SPI_FLAG_FRLVL, SPI_FRLVL_EMPTY, SPI_DEFAULT_TIMEOUT, HAL
 7778              		.loc 1 3767 0
 7779 0082 FFF7FEFF 		bl	HAL_GetTick
 7780 0086 0346     		mov	r3, r0
 7781 0088 0093     		str	r3, [sp]
 7782 008a 6423     		movs	r3, #100
 7783 008c 0022     		movs	r2, #0
 7784 008e 4FF4C061 		mov	r1, #1536
 7785 0092 7868     		ldr	r0, [r7, #4]
 7786 0094 FFF7FEFF 		bl	SPI_WaitFifoStateUntilTimeout
 7787 0098 0346     		mov	r3, r0
 7788 009a 002B     		cmp	r3, #0
 7789 009c 02D0     		beq	.L395
3768:E:/LiteOS/LiteOS_Lab/drivers/third_party/ST/STM32L4xx_HAL_Driver/Src\stm32l4xx_hal_spi.c ****   {
3769:E:/LiteOS/LiteOS_Lab/drivers/third_party/ST/STM32L4xx_HAL_Driver/Src\stm32l4xx_hal_spi.c ****     hspi->ErrorCode = HAL_SPI_ERROR_ABORT;
 7790              		.loc 1 3769 0
 7791 009e 7B68     		ldr	r3, [r7, #4]
 7792 00a0 4022     		movs	r2, #64
 7793 00a2 1A66     		str	r2, [r3, #96]
 7794              	.L395:
3770:E:/LiteOS/LiteOS_Lab/drivers/third_party/ST/STM32L4xx_HAL_Driver/Src\stm32l4xx_hal_spi.c ****   }
3771:E:/LiteOS/LiteOS_Lab/drivers/third_party/ST/STM32L4xx_HAL_Driver/Src\stm32l4xx_hal_spi.c **** 
3772:E:/LiteOS/LiteOS_Lab/drivers/third_party/ST/STM32L4xx_HAL_Driver/Src\stm32l4xx_hal_spi.c ****   hspi->State = HAL_SPI_STATE_ABORT;
 7795              		.loc 1 3772 0
 7796 00a4 7B68     		ldr	r3, [r7, #4]
 7797 00a6 0722     		movs	r2, #7
 7798 00a8 83F85D20 		strb	r2, [r3, #93]
3773:E:/LiteOS/LiteOS_Lab/drivers/third_party/ST/STM32L4xx_HAL_Driver/Src\stm32l4xx_hal_spi.c **** }
 7799              		.loc 1 3773 0
 7800 00ac 00BF     		nop
 7801 00ae 1037     		adds	r7, r7, #16
 7802              	.LCFI289:
 7803              		.cfi_def_cfa_offset 8
 7804 00b0 BD46     		mov	sp, r7
 7805              	.LCFI290:
 7806              		.cfi_def_cfa_register 13
 7807              		@ sp needed
 7808 00b2 80BD     		pop	{r7, pc}
 7809              	.L397:
 7810              		.align	2
 7811              	.L396:
 7812 00b4 00000000 		.word	SystemCoreClock
 7813 00b8 F1197605 		.word	91625969
 7814              		.cfi_endproc
 7815              	.LFE187:
 7817              		.section	.text.SPI_AbortTx_ISR,"ax",%progbits
 7818              		.align	1
 7819              		.syntax unified
 7820              		.thumb
 7821              		.thumb_func
 7822              		.fpu fpv4-sp-d16
 7824              	SPI_AbortTx_ISR:
 7825              	.LFB188:
3774:E:/LiteOS/LiteOS_Lab/drivers/third_party/ST/STM32L4xx_HAL_Driver/Src\stm32l4xx_hal_spi.c **** 
3775:E:/LiteOS/LiteOS_Lab/drivers/third_party/ST/STM32L4xx_HAL_Driver/Src\stm32l4xx_hal_spi.c **** /**
3776:E:/LiteOS/LiteOS_Lab/drivers/third_party/ST/STM32L4xx_HAL_Driver/Src\stm32l4xx_hal_spi.c ****   * @brief  Handle abort a Tx or Rx/Tx transaction.
3777:E:/LiteOS/LiteOS_Lab/drivers/third_party/ST/STM32L4xx_HAL_Driver/Src\stm32l4xx_hal_spi.c ****   * @param  hspi pointer to a SPI_HandleTypeDef structure that contains
ARM GAS  C:\Users\user\AppData\Local\Temp\ccvQ1M9B.s 			page 203


3778:E:/LiteOS/LiteOS_Lab/drivers/third_party/ST/STM32L4xx_HAL_Driver/Src\stm32l4xx_hal_spi.c ****   *               the configuration information for SPI module.
3779:E:/LiteOS/LiteOS_Lab/drivers/third_party/ST/STM32L4xx_HAL_Driver/Src\stm32l4xx_hal_spi.c ****   * @retval None
3780:E:/LiteOS/LiteOS_Lab/drivers/third_party/ST/STM32L4xx_HAL_Driver/Src\stm32l4xx_hal_spi.c ****   */
3781:E:/LiteOS/LiteOS_Lab/drivers/third_party/ST/STM32L4xx_HAL_Driver/Src\stm32l4xx_hal_spi.c **** static void SPI_AbortTx_ISR(SPI_HandleTypeDef *hspi)
3782:E:/LiteOS/LiteOS_Lab/drivers/third_party/ST/STM32L4xx_HAL_Driver/Src\stm32l4xx_hal_spi.c **** {
 7826              		.loc 1 3782 0
 7827              		.cfi_startproc
 7828              		@ args = 0, pretend = 0, frame = 16
 7829              		@ frame_needed = 1, uses_anonymous_args = 0
 7830 0000 80B5     		push	{r7, lr}
 7831              	.LCFI291:
 7832              		.cfi_def_cfa_offset 8
 7833              		.cfi_offset 7, -8
 7834              		.cfi_offset 14, -4
 7835 0002 86B0     		sub	sp, sp, #24
 7836              	.LCFI292:
 7837              		.cfi_def_cfa_offset 32
 7838 0004 02AF     		add	r7, sp, #8
 7839              	.LCFI293:
 7840              		.cfi_def_cfa 7, 24
 7841 0006 7860     		str	r0, [r7, #4]
3783:E:/LiteOS/LiteOS_Lab/drivers/third_party/ST/STM32L4xx_HAL_Driver/Src\stm32l4xx_hal_spi.c ****   __IO uint32_t count;
3784:E:/LiteOS/LiteOS_Lab/drivers/third_party/ST/STM32L4xx_HAL_Driver/Src\stm32l4xx_hal_spi.c **** 
3785:E:/LiteOS/LiteOS_Lab/drivers/third_party/ST/STM32L4xx_HAL_Driver/Src\stm32l4xx_hal_spi.c ****   count = SPI_DEFAULT_TIMEOUT * (SystemCoreClock / 24U / 1000U);
 7842              		.loc 1 3785 0
 7843 0008 294B     		ldr	r3, .L404
 7844 000a 1B68     		ldr	r3, [r3]
 7845 000c 294A     		ldr	r2, .L404+4
 7846 000e A2FB0323 		umull	r2, r3, r2, r3
 7847 0012 5B0A     		lsrs	r3, r3, #9
 7848 0014 6422     		movs	r2, #100
 7849 0016 02FB03F3 		mul	r3, r2, r3
 7850 001a FB60     		str	r3, [r7, #12]
3786:E:/LiteOS/LiteOS_Lab/drivers/third_party/ST/STM32L4xx_HAL_Driver/Src\stm32l4xx_hal_spi.c **** 
3787:E:/LiteOS/LiteOS_Lab/drivers/third_party/ST/STM32L4xx_HAL_Driver/Src\stm32l4xx_hal_spi.c ****   /* Disable TXEIE, RXNEIE and ERRIE(mode fault event, overrun error, TI frame error) interrupts */
3788:E:/LiteOS/LiteOS_Lab/drivers/third_party/ST/STM32L4xx_HAL_Driver/Src\stm32l4xx_hal_spi.c ****   CLEAR_BIT(hspi->Instance->CR2, (SPI_CR2_TXEIE | SPI_CR2_RXNEIE | SPI_CR2_ERRIE));
 7851              		.loc 1 3788 0
 7852 001c 7B68     		ldr	r3, [r7, #4]
 7853 001e 1B68     		ldr	r3, [r3]
 7854 0020 5A68     		ldr	r2, [r3, #4]
 7855 0022 7B68     		ldr	r3, [r7, #4]
 7856 0024 1B68     		ldr	r3, [r3]
 7857 0026 22F0E002 		bic	r2, r2, #224
 7858 002a 5A60     		str	r2, [r3, #4]
 7859              	.L401:
3789:E:/LiteOS/LiteOS_Lab/drivers/third_party/ST/STM32L4xx_HAL_Driver/Src\stm32l4xx_hal_spi.c **** 
3790:E:/LiteOS/LiteOS_Lab/drivers/third_party/ST/STM32L4xx_HAL_Driver/Src\stm32l4xx_hal_spi.c ****   /* Check TXEIE is disabled */
3791:E:/LiteOS/LiteOS_Lab/drivers/third_party/ST/STM32L4xx_HAL_Driver/Src\stm32l4xx_hal_spi.c ****   do
3792:E:/LiteOS/LiteOS_Lab/drivers/third_party/ST/STM32L4xx_HAL_Driver/Src\stm32l4xx_hal_spi.c ****   {
3793:E:/LiteOS/LiteOS_Lab/drivers/third_party/ST/STM32L4xx_HAL_Driver/Src\stm32l4xx_hal_spi.c ****     if (count-- == 0U)
 7860              		.loc 1 3793 0
 7861 002c FB68     		ldr	r3, [r7, #12]
 7862 002e 5A1E     		subs	r2, r3, #1
 7863 0030 FA60     		str	r2, [r7, #12]
 7864 0032 002B     		cmp	r3, #0
 7865 0034 06D1     		bne	.L399
3794:E:/LiteOS/LiteOS_Lab/drivers/third_party/ST/STM32L4xx_HAL_Driver/Src\stm32l4xx_hal_spi.c ****     {
ARM GAS  C:\Users\user\AppData\Local\Temp\ccvQ1M9B.s 			page 204


3795:E:/LiteOS/LiteOS_Lab/drivers/third_party/ST/STM32L4xx_HAL_Driver/Src\stm32l4xx_hal_spi.c ****       SET_BIT(hspi->ErrorCode, HAL_SPI_ERROR_ABORT);
 7866              		.loc 1 3795 0
 7867 0036 7B68     		ldr	r3, [r7, #4]
 7868 0038 1B6E     		ldr	r3, [r3, #96]
 7869 003a 43F04002 		orr	r2, r3, #64
 7870 003e 7B68     		ldr	r3, [r7, #4]
 7871 0040 1A66     		str	r2, [r3, #96]
3796:E:/LiteOS/LiteOS_Lab/drivers/third_party/ST/STM32L4xx_HAL_Driver/Src\stm32l4xx_hal_spi.c ****       break;
 7872              		.loc 1 3796 0
 7873 0042 06E0     		b	.L400
 7874              	.L399:
3797:E:/LiteOS/LiteOS_Lab/drivers/third_party/ST/STM32L4xx_HAL_Driver/Src\stm32l4xx_hal_spi.c ****     }
3798:E:/LiteOS/LiteOS_Lab/drivers/third_party/ST/STM32L4xx_HAL_Driver/Src\stm32l4xx_hal_spi.c ****   }
3799:E:/LiteOS/LiteOS_Lab/drivers/third_party/ST/STM32L4xx_HAL_Driver/Src\stm32l4xx_hal_spi.c ****   while (HAL_IS_BIT_SET(hspi->Instance->CR2, SPI_CR2_TXEIE));
 7875              		.loc 1 3799 0
 7876 0044 7B68     		ldr	r3, [r7, #4]
 7877 0046 1B68     		ldr	r3, [r3]
 7878 0048 5B68     		ldr	r3, [r3, #4]
 7879 004a 03F08003 		and	r3, r3, #128
 7880 004e 802B     		cmp	r3, #128
 7881 0050 ECD0     		beq	.L401
 7882              	.L400:
3800:E:/LiteOS/LiteOS_Lab/drivers/third_party/ST/STM32L4xx_HAL_Driver/Src\stm32l4xx_hal_spi.c **** 
3801:E:/LiteOS/LiteOS_Lab/drivers/third_party/ST/STM32L4xx_HAL_Driver/Src\stm32l4xx_hal_spi.c ****   if (SPI_EndRxTxTransaction(hspi, SPI_DEFAULT_TIMEOUT, HAL_GetTick()) != HAL_OK)
 7883              		.loc 1 3801 0
 7884 0052 FFF7FEFF 		bl	HAL_GetTick
 7885 0056 0346     		mov	r3, r0
 7886 0058 1A46     		mov	r2, r3
 7887 005a 6421     		movs	r1, #100
 7888 005c 7868     		ldr	r0, [r7, #4]
 7889 005e FFF7FEFF 		bl	SPI_EndRxTxTransaction
 7890 0062 0346     		mov	r3, r0
 7891 0064 002B     		cmp	r3, #0
 7892 0066 02D0     		beq	.L402
3802:E:/LiteOS/LiteOS_Lab/drivers/third_party/ST/STM32L4xx_HAL_Driver/Src\stm32l4xx_hal_spi.c ****   {
3803:E:/LiteOS/LiteOS_Lab/drivers/third_party/ST/STM32L4xx_HAL_Driver/Src\stm32l4xx_hal_spi.c ****     hspi->ErrorCode = HAL_SPI_ERROR_ABORT;
 7893              		.loc 1 3803 0
 7894 0068 7B68     		ldr	r3, [r7, #4]
 7895 006a 4022     		movs	r2, #64
 7896 006c 1A66     		str	r2, [r3, #96]
 7897              	.L402:
3804:E:/LiteOS/LiteOS_Lab/drivers/third_party/ST/STM32L4xx_HAL_Driver/Src\stm32l4xx_hal_spi.c ****   }
3805:E:/LiteOS/LiteOS_Lab/drivers/third_party/ST/STM32L4xx_HAL_Driver/Src\stm32l4xx_hal_spi.c **** 
3806:E:/LiteOS/LiteOS_Lab/drivers/third_party/ST/STM32L4xx_HAL_Driver/Src\stm32l4xx_hal_spi.c ****   /* Disable SPI Peripheral */
3807:E:/LiteOS/LiteOS_Lab/drivers/third_party/ST/STM32L4xx_HAL_Driver/Src\stm32l4xx_hal_spi.c ****   __HAL_SPI_DISABLE(hspi);
 7898              		.loc 1 3807 0
 7899 006e 7B68     		ldr	r3, [r7, #4]
 7900 0070 1B68     		ldr	r3, [r3]
 7901 0072 1A68     		ldr	r2, [r3]
 7902 0074 7B68     		ldr	r3, [r7, #4]
 7903 0076 1B68     		ldr	r3, [r3]
 7904 0078 22F04002 		bic	r2, r2, #64
 7905 007c 1A60     		str	r2, [r3]
3808:E:/LiteOS/LiteOS_Lab/drivers/third_party/ST/STM32L4xx_HAL_Driver/Src\stm32l4xx_hal_spi.c **** 
3809:E:/LiteOS/LiteOS_Lab/drivers/third_party/ST/STM32L4xx_HAL_Driver/Src\stm32l4xx_hal_spi.c ****   /* Empty the FRLVL fifo */
3810:E:/LiteOS/LiteOS_Lab/drivers/third_party/ST/STM32L4xx_HAL_Driver/Src\stm32l4xx_hal_spi.c ****   if (SPI_WaitFifoStateUntilTimeout(hspi, SPI_FLAG_FRLVL, SPI_FRLVL_EMPTY, SPI_DEFAULT_TIMEOUT, HAL
 7906              		.loc 1 3810 0
ARM GAS  C:\Users\user\AppData\Local\Temp\ccvQ1M9B.s 			page 205


 7907 007e FFF7FEFF 		bl	HAL_GetTick
 7908 0082 0346     		mov	r3, r0
 7909 0084 0093     		str	r3, [sp]
 7910 0086 6423     		movs	r3, #100
 7911 0088 0022     		movs	r2, #0
 7912 008a 4FF4C061 		mov	r1, #1536
 7913 008e 7868     		ldr	r0, [r7, #4]
 7914 0090 FFF7FEFF 		bl	SPI_WaitFifoStateUntilTimeout
 7915 0094 0346     		mov	r3, r0
 7916 0096 002B     		cmp	r3, #0
 7917 0098 02D0     		beq	.L403
3811:E:/LiteOS/LiteOS_Lab/drivers/third_party/ST/STM32L4xx_HAL_Driver/Src\stm32l4xx_hal_spi.c ****   {
3812:E:/LiteOS/LiteOS_Lab/drivers/third_party/ST/STM32L4xx_HAL_Driver/Src\stm32l4xx_hal_spi.c ****     hspi->ErrorCode = HAL_SPI_ERROR_ABORT;
 7918              		.loc 1 3812 0
 7919 009a 7B68     		ldr	r3, [r7, #4]
 7920 009c 4022     		movs	r2, #64
 7921 009e 1A66     		str	r2, [r3, #96]
 7922              	.L403:
3813:E:/LiteOS/LiteOS_Lab/drivers/third_party/ST/STM32L4xx_HAL_Driver/Src\stm32l4xx_hal_spi.c ****   }
3814:E:/LiteOS/LiteOS_Lab/drivers/third_party/ST/STM32L4xx_HAL_Driver/Src\stm32l4xx_hal_spi.c **** 
3815:E:/LiteOS/LiteOS_Lab/drivers/third_party/ST/STM32L4xx_HAL_Driver/Src\stm32l4xx_hal_spi.c ****   hspi->State = HAL_SPI_STATE_ABORT;
 7923              		.loc 1 3815 0
 7924 00a0 7B68     		ldr	r3, [r7, #4]
 7925 00a2 0722     		movs	r2, #7
 7926 00a4 83F85D20 		strb	r2, [r3, #93]
3816:E:/LiteOS/LiteOS_Lab/drivers/third_party/ST/STM32L4xx_HAL_Driver/Src\stm32l4xx_hal_spi.c **** }
 7927              		.loc 1 3816 0
 7928 00a8 00BF     		nop
 7929 00aa 1037     		adds	r7, r7, #16
 7930              	.LCFI294:
 7931              		.cfi_def_cfa_offset 8
 7932 00ac BD46     		mov	sp, r7
 7933              	.LCFI295:
 7934              		.cfi_def_cfa_register 13
 7935              		@ sp needed
 7936 00ae 80BD     		pop	{r7, pc}
 7937              	.L405:
 7938              		.align	2
 7939              	.L404:
 7940 00b0 00000000 		.word	SystemCoreClock
 7941 00b4 F1197605 		.word	91625969
 7942              		.cfi_endproc
 7943              	.LFE188:
 7945              		.text
 7946              	.Letext0:
 7947              		.file 2 "e:\\ac6\\systemworkbench\\plugins\\fr.ac6.mcu.externaltools.arm-none.win32_1.16.0.2018071
 7948              		.file 3 "e:\\ac6\\systemworkbench\\plugins\\fr.ac6.mcu.externaltools.arm-none.win32_1.16.0.2018071
 7949              		.file 4 "e:\\ac6\\systemworkbench\\plugins\\fr.ac6.mcu.externaltools.arm-none.win32_1.16.0.2018071
 7950              		.file 5 "e:\\ac6\\systemworkbench\\plugins\\fr.ac6.mcu.externaltools.arm-none.win32_1.16.0.2018071
 7951              		.file 6 "e:\\ac6\\systemworkbench\\plugins\\fr.ac6.mcu.externaltools.arm-none.win32_1.16.0.2018071
 7952              		.file 7 "E:/LiteOS/LiteOS_Lab/iot_link/os/os_imp/liteos/include/los_typedef.h"
 7953              		.file 8 "e:\\ac6\\systemworkbench\\plugins\\fr.ac6.mcu.externaltools.arm-none.win32_1.16.0.2018071
 7954              		.file 9 "E:/LiteOS/LiteOS_Lab/iot_link/os/os_imp/liteos/arch/arm/common/cmsis/core_cm4.h"
 7955              		.file 10 "E:/LiteOS/LiteOS_Lab/targets/STM32L431_BearPi/Inc/system_stm32l4xx.h"
 7956              		.file 11 "E:/LiteOS/LiteOS_Lab/targets/STM32L431_BearPi/Inc/stm32l431xx.h"
 7957              		.file 12 "E:/LiteOS/LiteOS_Lab/iot_link/os/os_imp/liteos/include/los_config.h"
 7958              		.file 13 "E:/LiteOS/LiteOS_Lab/iot_link/os/os_imp/liteos/include/los_list.h"
ARM GAS  C:\Users\user\AppData\Local\Temp\ccvQ1M9B.s 			page 206


 7959              		.file 14 "E:/LiteOS/LiteOS_Lab/iot_link/os/os_imp/liteos/include/los_err.h"
 7960              		.file 15 "E:/LiteOS/LiteOS_Lab/iot_link/os/os_imp/liteos/arch/arm/arm-m/include/los_hwi.h"
 7961              		.file 16 "E:/LiteOS/LiteOS_Lab/iot_link/os/os_imp/liteos/include/los_tick.h"
 7962              		.file 17 "E:/LiteOS/LiteOS_Lab/iot_link/os/os_imp/liteos/include/los_event.h"
 7963              		.file 18 "E:/LiteOS/LiteOS_Lab/iot_link/os/os_imp/liteos/include/los_task.h"
 7964              		.file 19 "E:/LiteOS/LiteOS_Lab/iot_link/os/os_imp/liteos/base/include/los_task.ph"
 7965              		.file 20 "E:/LiteOS/LiteOS_Lab/targets/STM32L431_BearPi/Inc/main.h"
 7966              		.file 21 "E:/LiteOS/LiteOS_Lab/targets/STM32L431_BearPi/Inc/stm32l4xx.h"
 7967              		.file 22 "E:/LiteOS/LiteOS_Lab/drivers/third_party/ST/STM32L4xx_HAL_Driver/Inc/stm32l4xx_hal_def.h
 7968              		.file 23 "E:/LiteOS/LiteOS_Lab/drivers/third_party/ST/STM32L4xx_HAL_Driver/Inc/stm32l4xx_hal_dma.h
 7969              		.file 24 "E:/LiteOS/LiteOS_Lab/drivers/third_party/ST/STM32L4xx_HAL_Driver/Inc/stm32l4xx_hal_spi.h
ARM GAS  C:\Users\user\AppData\Local\Temp\ccvQ1M9B.s 			page 207


DEFINED SYMBOLS
                            *ABS*:00000000 stm32l4xx_hal_spi.c
C:\Users\user\AppData\Local\Temp\ccvQ1M9B.s:18     .text.HAL_SPI_Init:00000000 $t
C:\Users\user\AppData\Local\Temp\ccvQ1M9B.s:25     .text.HAL_SPI_Init:00000000 HAL_SPI_Init
C:\Users\user\AppData\Local\Temp\ccvQ1M9B.s:288    .text.HAL_SPI_MspInit:00000000 HAL_SPI_MspInit
C:\Users\user\AppData\Local\Temp\ccvQ1M9B.s:204    .text.HAL_SPI_DeInit:00000000 $t
C:\Users\user\AppData\Local\Temp\ccvQ1M9B.s:211    .text.HAL_SPI_DeInit:00000000 HAL_SPI_DeInit
C:\Users\user\AppData\Local\Temp\ccvQ1M9B.s:331    .text.HAL_SPI_MspDeInit:00000000 HAL_SPI_MspDeInit
C:\Users\user\AppData\Local\Temp\ccvQ1M9B.s:281    .text.HAL_SPI_MspInit:00000000 $t
C:\Users\user\AppData\Local\Temp\ccvQ1M9B.s:324    .text.HAL_SPI_MspDeInit:00000000 $t
C:\Users\user\AppData\Local\Temp\ccvQ1M9B.s:367    .text.HAL_SPI_Transmit:00000000 $t
C:\Users\user\AppData\Local\Temp\ccvQ1M9B.s:374    .text.HAL_SPI_Transmit:00000000 HAL_SPI_Transmit
C:\Users\user\AppData\Local\Temp\ccvQ1M9B.s:7294   .text.SPI_EndRxTxTransaction:00000000 SPI_EndRxTxTransaction
C:\Users\user\AppData\Local\Temp\ccvQ1M9B.s:822    .text.HAL_SPI_Receive:00000000 $t
C:\Users\user\AppData\Local\Temp\ccvQ1M9B.s:829    .text.HAL_SPI_Receive:00000000 HAL_SPI_Receive
C:\Users\user\AppData\Local\Temp\ccvQ1M9B.s:1204   .text.HAL_SPI_TransmitReceive:00000000 HAL_SPI_TransmitReceive
C:\Users\user\AppData\Local\Temp\ccvQ1M9B.s:7168   .text.SPI_EndRxTransaction:00000000 SPI_EndRxTransaction
C:\Users\user\AppData\Local\Temp\ccvQ1M9B.s:1197   .text.HAL_SPI_TransmitReceive:00000000 $t
C:\Users\user\AppData\Local\Temp\ccvQ1M9B.s:1822   .text.HAL_SPI_Transmit_IT:00000000 $t
C:\Users\user\AppData\Local\Temp\ccvQ1M9B.s:1829   .text.HAL_SPI_Transmit_IT:00000000 HAL_SPI_Transmit_IT
C:\Users\user\AppData\Local\Temp\ccvQ1M9B.s:2011   .text.HAL_SPI_Transmit_IT:00000104 $d
C:\Users\user\AppData\Local\Temp\ccvQ1M9B.s:6792   .text.SPI_TxISR_16BIT:00000000 SPI_TxISR_16BIT
C:\Users\user\AppData\Local\Temp\ccvQ1M9B.s:6725   .text.SPI_TxISR_8BIT:00000000 SPI_TxISR_8BIT
C:\Users\user\AppData\Local\Temp\ccvQ1M9B.s:2017   .text.HAL_SPI_Receive_IT:00000000 $t
C:\Users\user\AppData\Local\Temp\ccvQ1M9B.s:2024   .text.HAL_SPI_Receive_IT:00000000 HAL_SPI_Receive_IT
C:\Users\user\AppData\Local\Temp\ccvQ1M9B.s:2254   .text.HAL_SPI_TransmitReceive_IT:00000000 HAL_SPI_TransmitReceive_IT
C:\Users\user\AppData\Local\Temp\ccvQ1M9B.s:2241   .text.HAL_SPI_Receive_IT:00000148 $d
C:\Users\user\AppData\Local\Temp\ccvQ1M9B.s:6655   .text.SPI_RxISR_16BIT:00000000 SPI_RxISR_16BIT
C:\Users\user\AppData\Local\Temp\ccvQ1M9B.s:6587   .text.SPI_RxISR_8BIT:00000000 SPI_RxISR_8BIT
C:\Users\user\AppData\Local\Temp\ccvQ1M9B.s:2247   .text.HAL_SPI_TransmitReceive_IT:00000000 $t
C:\Users\user\AppData\Local\Temp\ccvQ1M9B.s:2494   .text.HAL_SPI_TransmitReceive_IT:00000160 $d
C:\Users\user\AppData\Local\Temp\ccvQ1M9B.s:6420   .text.SPI_2linesRxISR_16BIT:00000000 SPI_2linesRxISR_16BIT
C:\Users\user\AppData\Local\Temp\ccvQ1M9B.s:6504   .text.SPI_2linesTxISR_16BIT:00000000 SPI_2linesTxISR_16BIT
C:\Users\user\AppData\Local\Temp\ccvQ1M9B.s:6182   .text.SPI_2linesRxISR_8BIT:00000000 SPI_2linesRxISR_8BIT
C:\Users\user\AppData\Local\Temp\ccvQ1M9B.s:6309   .text.SPI_2linesTxISR_8BIT:00000000 SPI_2linesTxISR_8BIT
C:\Users\user\AppData\Local\Temp\ccvQ1M9B.s:2502   .text.HAL_SPI_Transmit_DMA:00000000 $t
C:\Users\user\AppData\Local\Temp\ccvQ1M9B.s:2509   .text.HAL_SPI_Transmit_DMA:00000000 HAL_SPI_Transmit_DMA
C:\Users\user\AppData\Local\Temp\ccvQ1M9B.s:2777   .text.HAL_SPI_Transmit_DMA:000001ac $d
C:\Users\user\AppData\Local\Temp\ccvQ1M9B.s:5609   .text.SPI_DMAHalfTransmitCplt:00000000 SPI_DMAHalfTransmitCplt
C:\Users\user\AppData\Local\Temp\ccvQ1M9B.s:5263   .text.SPI_DMATransmitCplt:00000000 SPI_DMATransmitCplt
C:\Users\user\AppData\Local\Temp\ccvQ1M9B.s:5744   .text.SPI_DMAError:00000000 SPI_DMAError
C:\Users\user\AppData\Local\Temp\ccvQ1M9B.s:2784   .text.HAL_SPI_Receive_DMA:00000000 $t
C:\Users\user\AppData\Local\Temp\ccvQ1M9B.s:2791   .text.HAL_SPI_Receive_DMA:00000000 HAL_SPI_Receive_DMA
C:\Users\user\AppData\Local\Temp\ccvQ1M9B.s:3118   .text.HAL_SPI_TransmitReceive_DMA:00000000 HAL_SPI_TransmitReceive_DMA
C:\Users\user\AppData\Local\Temp\ccvQ1M9B.s:3104   .text.HAL_SPI_Receive_DMA:0000020c $d
C:\Users\user\AppData\Local\Temp\ccvQ1M9B.s:5654   .text.SPI_DMAHalfReceiveCplt:00000000 SPI_DMAHalfReceiveCplt
C:\Users\user\AppData\Local\Temp\ccvQ1M9B.s:5391   .text.SPI_DMAReceiveCplt:00000000 SPI_DMAReceiveCplt
C:\Users\user\AppData\Local\Temp\ccvQ1M9B.s:3111   .text.HAL_SPI_TransmitReceive_DMA:00000000 $t
C:\Users\user\AppData\Local\Temp\ccvQ1M9B.s:3545   .text.HAL_SPI_TransmitReceive_DMA:000002cc $d
C:\Users\user\AppData\Local\Temp\ccvQ1M9B.s:5699   .text.SPI_DMAHalfTransmitReceiveCplt:00000000 SPI_DMAHalfTransmitReceiveCplt
C:\Users\user\AppData\Local\Temp\ccvQ1M9B.s:5497   .text.SPI_DMATransmitReceiveCplt:00000000 SPI_DMATransmitReceiveCplt
C:\Users\user\AppData\Local\Temp\ccvQ1M9B.s:3554   .text.HAL_SPI_Abort:00000000 $t
C:\Users\user\AppData\Local\Temp\ccvQ1M9B.s:3561   .text.HAL_SPI_Abort:00000000 HAL_SPI_Abort
C:\Users\user\AppData\Local\Temp\ccvQ1M9B.s:7011   .text.SPI_WaitFifoStateUntilTimeout:00000000 SPI_WaitFifoStateUntilTimeout
C:\Users\user\AppData\Local\Temp\ccvQ1M9B.s:6861   .text.SPI_WaitFlagStateUntilTimeout:00000000 SPI_WaitFlagStateUntilTimeout
C:\Users\user\AppData\Local\Temp\ccvQ1M9B.s:3904   .text.HAL_SPI_Abort:00000230 $d
C:\Users\user\AppData\Local\Temp\ccvQ1M9B.s:7824   .text.SPI_AbortTx_ISR:00000000 SPI_AbortTx_ISR
ARM GAS  C:\Users\user\AppData\Local\Temp\ccvQ1M9B.s 			page 208


C:\Users\user\AppData\Local\Temp\ccvQ1M9B.s:7694   .text.SPI_AbortRx_ISR:00000000 SPI_AbortRx_ISR
C:\Users\user\AppData\Local\Temp\ccvQ1M9B.s:3912   .text.HAL_SPI_Abort_IT:00000000 $t
C:\Users\user\AppData\Local\Temp\ccvQ1M9B.s:3919   .text.HAL_SPI_Abort_IT:00000000 HAL_SPI_Abort_IT
C:\Users\user\AppData\Local\Temp\ccvQ1M9B.s:5128   .text.HAL_SPI_AbortCpltCallback:00000000 HAL_SPI_AbortCpltCallback
C:\Users\user\AppData\Local\Temp\ccvQ1M9B.s:4306   .text.HAL_SPI_Abort_IT:00000250 $d
C:\Users\user\AppData\Local\Temp\ccvQ1M9B.s:5860   .text.SPI_DMATxAbortCallback:00000000 SPI_DMATxAbortCallback
C:\Users\user\AppData\Local\Temp\ccvQ1M9B.s:6020   .text.SPI_DMARxAbortCallback:00000000 SPI_DMARxAbortCallback
C:\Users\user\AppData\Local\Temp\ccvQ1M9B.s:4316   .text.HAL_SPI_DMAPause:00000000 $t
C:\Users\user\AppData\Local\Temp\ccvQ1M9B.s:4323   .text.HAL_SPI_DMAPause:00000000 HAL_SPI_DMAPause
C:\Users\user\AppData\Local\Temp\ccvQ1M9B.s:4387   .text.HAL_SPI_DMAResume:00000000 $t
C:\Users\user\AppData\Local\Temp\ccvQ1M9B.s:4394   .text.HAL_SPI_DMAResume:00000000 HAL_SPI_DMAResume
C:\Users\user\AppData\Local\Temp\ccvQ1M9B.s:4458   .text.HAL_SPI_DMAStop:00000000 $t
C:\Users\user\AppData\Local\Temp\ccvQ1M9B.s:4465   .text.HAL_SPI_DMAStop:00000000 HAL_SPI_DMAStop
C:\Users\user\AppData\Local\Temp\ccvQ1M9B.s:4533   .text.HAL_SPI_IRQHandler:00000000 $t
C:\Users\user\AppData\Local\Temp\ccvQ1M9B.s:4540   .text.HAL_SPI_IRQHandler:00000000 HAL_SPI_IRQHandler
C:\Users\user\AppData\Local\Temp\ccvQ1M9B.s:5085   .text.HAL_SPI_ErrorCallback:00000000 HAL_SPI_ErrorCallback
C:\Users\user\AppData\Local\Temp\ccvQ1M9B.s:4815   .text.HAL_SPI_IRQHandler:000001ac $d
C:\Users\user\AppData\Local\Temp\ccvQ1M9B.s:5807   .text.SPI_DMAAbortOnError:00000000 SPI_DMAAbortOnError
C:\Users\user\AppData\Local\Temp\ccvQ1M9B.s:4820   .text.HAL_SPI_TxCpltCallback:00000000 $t
C:\Users\user\AppData\Local\Temp\ccvQ1M9B.s:4827   .text.HAL_SPI_TxCpltCallback:00000000 HAL_SPI_TxCpltCallback
C:\Users\user\AppData\Local\Temp\ccvQ1M9B.s:4863   .text.HAL_SPI_RxCpltCallback:00000000 $t
C:\Users\user\AppData\Local\Temp\ccvQ1M9B.s:4870   .text.HAL_SPI_RxCpltCallback:00000000 HAL_SPI_RxCpltCallback
C:\Users\user\AppData\Local\Temp\ccvQ1M9B.s:4906   .text.HAL_SPI_TxRxCpltCallback:00000000 $t
C:\Users\user\AppData\Local\Temp\ccvQ1M9B.s:4913   .text.HAL_SPI_TxRxCpltCallback:00000000 HAL_SPI_TxRxCpltCallback
C:\Users\user\AppData\Local\Temp\ccvQ1M9B.s:4949   .text.HAL_SPI_TxHalfCpltCallback:00000000 $t
C:\Users\user\AppData\Local\Temp\ccvQ1M9B.s:4956   .text.HAL_SPI_TxHalfCpltCallback:00000000 HAL_SPI_TxHalfCpltCallback
C:\Users\user\AppData\Local\Temp\ccvQ1M9B.s:4992   .text.HAL_SPI_RxHalfCpltCallback:00000000 $t
C:\Users\user\AppData\Local\Temp\ccvQ1M9B.s:4999   .text.HAL_SPI_RxHalfCpltCallback:00000000 HAL_SPI_RxHalfCpltCallback
C:\Users\user\AppData\Local\Temp\ccvQ1M9B.s:5035   .text.HAL_SPI_TxRxHalfCpltCallback:00000000 $t
C:\Users\user\AppData\Local\Temp\ccvQ1M9B.s:5042   .text.HAL_SPI_TxRxHalfCpltCallback:00000000 HAL_SPI_TxRxHalfCpltCallback
C:\Users\user\AppData\Local\Temp\ccvQ1M9B.s:5078   .text.HAL_SPI_ErrorCallback:00000000 $t
C:\Users\user\AppData\Local\Temp\ccvQ1M9B.s:5121   .text.HAL_SPI_AbortCpltCallback:00000000 $t
C:\Users\user\AppData\Local\Temp\ccvQ1M9B.s:5164   .text.HAL_SPI_GetState:00000000 $t
C:\Users\user\AppData\Local\Temp\ccvQ1M9B.s:5171   .text.HAL_SPI_GetState:00000000 HAL_SPI_GetState
C:\Users\user\AppData\Local\Temp\ccvQ1M9B.s:5211   .text.HAL_SPI_GetError:00000000 $t
C:\Users\user\AppData\Local\Temp\ccvQ1M9B.s:5218   .text.HAL_SPI_GetError:00000000 HAL_SPI_GetError
C:\Users\user\AppData\Local\Temp\ccvQ1M9B.s:5257   .text.SPI_DMATransmitCplt:00000000 $t
C:\Users\user\AppData\Local\Temp\ccvQ1M9B.s:5385   .text.SPI_DMAReceiveCplt:00000000 $t
C:\Users\user\AppData\Local\Temp\ccvQ1M9B.s:5491   .text.SPI_DMATransmitReceiveCplt:00000000 $t
C:\Users\user\AppData\Local\Temp\ccvQ1M9B.s:5603   .text.SPI_DMAHalfTransmitCplt:00000000 $t
C:\Users\user\AppData\Local\Temp\ccvQ1M9B.s:5648   .text.SPI_DMAHalfReceiveCplt:00000000 $t
C:\Users\user\AppData\Local\Temp\ccvQ1M9B.s:5693   .text.SPI_DMAHalfTransmitReceiveCplt:00000000 $t
C:\Users\user\AppData\Local\Temp\ccvQ1M9B.s:5738   .text.SPI_DMAError:00000000 $t
C:\Users\user\AppData\Local\Temp\ccvQ1M9B.s:5801   .text.SPI_DMAAbortOnError:00000000 $t
C:\Users\user\AppData\Local\Temp\ccvQ1M9B.s:5854   .text.SPI_DMATxAbortCallback:00000000 $t
C:\Users\user\AppData\Local\Temp\ccvQ1M9B.s:6014   .text.SPI_DMARxAbortCallback:00000000 $t
C:\Users\user\AppData\Local\Temp\ccvQ1M9B.s:6176   .text.SPI_2linesRxISR_8BIT:00000000 $t
C:\Users\user\AppData\Local\Temp\ccvQ1M9B.s:7400   .text.SPI_CloseRxTx_ISR:00000000 SPI_CloseRxTx_ISR
C:\Users\user\AppData\Local\Temp\ccvQ1M9B.s:6303   .text.SPI_2linesTxISR_8BIT:00000000 $t
C:\Users\user\AppData\Local\Temp\ccvQ1M9B.s:6414   .text.SPI_2linesRxISR_16BIT:00000000 $t
C:\Users\user\AppData\Local\Temp\ccvQ1M9B.s:6498   .text.SPI_2linesTxISR_16BIT:00000000 $t
C:\Users\user\AppData\Local\Temp\ccvQ1M9B.s:6581   .text.SPI_RxISR_8BIT:00000000 $t
C:\Users\user\AppData\Local\Temp\ccvQ1M9B.s:7506   .text.SPI_CloseRx_ISR:00000000 SPI_CloseRx_ISR
C:\Users\user\AppData\Local\Temp\ccvQ1M9B.s:6649   .text.SPI_RxISR_16BIT:00000000 $t
C:\Users\user\AppData\Local\Temp\ccvQ1M9B.s:6719   .text.SPI_TxISR_8BIT:00000000 $t
C:\Users\user\AppData\Local\Temp\ccvQ1M9B.s:7588   .text.SPI_CloseTx_ISR:00000000 SPI_CloseTx_ISR
C:\Users\user\AppData\Local\Temp\ccvQ1M9B.s:6786   .text.SPI_TxISR_16BIT:00000000 $t
ARM GAS  C:\Users\user\AppData\Local\Temp\ccvQ1M9B.s 			page 209


C:\Users\user\AppData\Local\Temp\ccvQ1M9B.s:6855   .text.SPI_WaitFlagStateUntilTimeout:00000000 $t
C:\Users\user\AppData\Local\Temp\ccvQ1M9B.s:7005   .text.SPI_WaitFifoStateUntilTimeout:00000000 $t
C:\Users\user\AppData\Local\Temp\ccvQ1M9B.s:7162   .text.SPI_EndRxTransaction:00000000 $t
C:\Users\user\AppData\Local\Temp\ccvQ1M9B.s:7288   .text.SPI_EndRxTxTransaction:00000000 $t
C:\Users\user\AppData\Local\Temp\ccvQ1M9B.s:7394   .text.SPI_CloseRxTx_ISR:00000000 $t
C:\Users\user\AppData\Local\Temp\ccvQ1M9B.s:7500   .text.SPI_CloseRx_ISR:00000000 $t
C:\Users\user\AppData\Local\Temp\ccvQ1M9B.s:7582   .text.SPI_CloseTx_ISR:00000000 $t
C:\Users\user\AppData\Local\Temp\ccvQ1M9B.s:7688   .text.SPI_AbortRx_ISR:00000000 $t
C:\Users\user\AppData\Local\Temp\ccvQ1M9B.s:7812   .text.SPI_AbortRx_ISR:000000b4 $d
C:\Users\user\AppData\Local\Temp\ccvQ1M9B.s:7818   .text.SPI_AbortTx_ISR:00000000 $t
C:\Users\user\AppData\Local\Temp\ccvQ1M9B.s:7940   .text.SPI_AbortTx_ISR:000000b0 $d

UNDEFINED SYMBOLS
HAL_GetTick
HAL_DMA_Start_IT
HAL_DMA_Abort
SystemCoreClock
HAL_DMA_Abort_IT
