ARM GAS  C:\Users\user\AppData\Local\Temp\ccsJwa9Q.s 			page 1


   1              		.cpu cortex-m4
   2              		.eabi_attribute 27, 1
   3              		.eabi_attribute 28, 1
   4              		.eabi_attribute 20, 1
   5              		.eabi_attribute 21, 1
   6              		.eabi_attribute 23, 3
   7              		.eabi_attribute 24, 1
   8              		.eabi_attribute 25, 1
   9              		.eabi_attribute 26, 1
  10              		.eabi_attribute 30, 6
  11              		.eabi_attribute 34, 1
  12              		.eabi_attribute 18, 4
  13              		.file	"stm32l4xx_hal_rcc_ex.c"
  14              		.text
  15              	.Ltext0:
  16              		.cfi_sections	.debug_frame
  17              		.section	.text.HAL_RCCEx_PeriphCLKConfig,"ax",%progbits
  18              		.align	1
  19              		.global	HAL_RCCEx_PeriphCLKConfig
  20              		.syntax unified
  21              		.thumb
  22              		.thumb_func
  23              		.fpu fpv4-sp-d16
  25              	HAL_RCCEx_PeriphCLKConfig:
  26              	.LFB133:
  27              		.file 1 "E:/LiteOS/LiteOS_Lab/drivers/third_party/ST/STM32L4xx_HAL_Driver/Src/stm32l4xx_hal_rcc_ex
   1:E:/LiteOS/LiteOS_Lab/drivers/third_party/ST/STM32L4xx_HAL_Driver/Src\stm32l4xx_hal_rcc_ex.c **** /**
   2:E:/LiteOS/LiteOS_Lab/drivers/third_party/ST/STM32L4xx_HAL_Driver/Src\stm32l4xx_hal_rcc_ex.c ****   ******************************************************************************
   3:E:/LiteOS/LiteOS_Lab/drivers/third_party/ST/STM32L4xx_HAL_Driver/Src\stm32l4xx_hal_rcc_ex.c ****   * @file    stm32l4xx_hal_rcc_ex.c
   4:E:/LiteOS/LiteOS_Lab/drivers/third_party/ST/STM32L4xx_HAL_Driver/Src\stm32l4xx_hal_rcc_ex.c ****   * @author  MCD Application Team
   5:E:/LiteOS/LiteOS_Lab/drivers/third_party/ST/STM32L4xx_HAL_Driver/Src\stm32l4xx_hal_rcc_ex.c ****   * @brief   Extended RCC HAL module driver.
   6:E:/LiteOS/LiteOS_Lab/drivers/third_party/ST/STM32L4xx_HAL_Driver/Src\stm32l4xx_hal_rcc_ex.c ****   *          This file provides firmware functions to manage the following
   7:E:/LiteOS/LiteOS_Lab/drivers/third_party/ST/STM32L4xx_HAL_Driver/Src\stm32l4xx_hal_rcc_ex.c ****   *          functionalities RCC extended peripheral:
   8:E:/LiteOS/LiteOS_Lab/drivers/third_party/ST/STM32L4xx_HAL_Driver/Src\stm32l4xx_hal_rcc_ex.c ****   *           + Extended Peripheral Control functions
   9:E:/LiteOS/LiteOS_Lab/drivers/third_party/ST/STM32L4xx_HAL_Driver/Src\stm32l4xx_hal_rcc_ex.c ****   *           + Extended Clock management functions
  10:E:/LiteOS/LiteOS_Lab/drivers/third_party/ST/STM32L4xx_HAL_Driver/Src\stm32l4xx_hal_rcc_ex.c ****   *           + Extended Clock Recovery System Control functions
  11:E:/LiteOS/LiteOS_Lab/drivers/third_party/ST/STM32L4xx_HAL_Driver/Src\stm32l4xx_hal_rcc_ex.c ****   *
  12:E:/LiteOS/LiteOS_Lab/drivers/third_party/ST/STM32L4xx_HAL_Driver/Src\stm32l4xx_hal_rcc_ex.c ****   ******************************************************************************
  13:E:/LiteOS/LiteOS_Lab/drivers/third_party/ST/STM32L4xx_HAL_Driver/Src\stm32l4xx_hal_rcc_ex.c ****   * @attention
  14:E:/LiteOS/LiteOS_Lab/drivers/third_party/ST/STM32L4xx_HAL_Driver/Src\stm32l4xx_hal_rcc_ex.c ****   *
  15:E:/LiteOS/LiteOS_Lab/drivers/third_party/ST/STM32L4xx_HAL_Driver/Src\stm32l4xx_hal_rcc_ex.c ****   * <h2><center>&copy; COPYRIGHT(c) 2017 STMicroelectronics</center></h2>
  16:E:/LiteOS/LiteOS_Lab/drivers/third_party/ST/STM32L4xx_HAL_Driver/Src\stm32l4xx_hal_rcc_ex.c ****   *
  17:E:/LiteOS/LiteOS_Lab/drivers/third_party/ST/STM32L4xx_HAL_Driver/Src\stm32l4xx_hal_rcc_ex.c ****   * Redistribution and use in source and binary forms, with or without modification,
  18:E:/LiteOS/LiteOS_Lab/drivers/third_party/ST/STM32L4xx_HAL_Driver/Src\stm32l4xx_hal_rcc_ex.c ****   * are permitted provided that the following conditions are met:
  19:E:/LiteOS/LiteOS_Lab/drivers/third_party/ST/STM32L4xx_HAL_Driver/Src\stm32l4xx_hal_rcc_ex.c ****   *   1. Redistributions of source code must retain the above copyright notice,
  20:E:/LiteOS/LiteOS_Lab/drivers/third_party/ST/STM32L4xx_HAL_Driver/Src\stm32l4xx_hal_rcc_ex.c ****   *      this list of conditions and the following disclaimer.
  21:E:/LiteOS/LiteOS_Lab/drivers/third_party/ST/STM32L4xx_HAL_Driver/Src\stm32l4xx_hal_rcc_ex.c ****   *   2. Redistributions in binary form must reproduce the above copyright notice,
  22:E:/LiteOS/LiteOS_Lab/drivers/third_party/ST/STM32L4xx_HAL_Driver/Src\stm32l4xx_hal_rcc_ex.c ****   *      this list of conditions and the following disclaimer in the documentation
  23:E:/LiteOS/LiteOS_Lab/drivers/third_party/ST/STM32L4xx_HAL_Driver/Src\stm32l4xx_hal_rcc_ex.c ****   *      and/or other materials provided with the distribution.
  24:E:/LiteOS/LiteOS_Lab/drivers/third_party/ST/STM32L4xx_HAL_Driver/Src\stm32l4xx_hal_rcc_ex.c ****   *   3. Neither the name of STMicroelectronics nor the names of its contributors
  25:E:/LiteOS/LiteOS_Lab/drivers/third_party/ST/STM32L4xx_HAL_Driver/Src\stm32l4xx_hal_rcc_ex.c ****   *      may be used to endorse or promote products derived from this software
  26:E:/LiteOS/LiteOS_Lab/drivers/third_party/ST/STM32L4xx_HAL_Driver/Src\stm32l4xx_hal_rcc_ex.c ****   *      without specific prior written permission.
  27:E:/LiteOS/LiteOS_Lab/drivers/third_party/ST/STM32L4xx_HAL_Driver/Src\stm32l4xx_hal_rcc_ex.c ****   *
  28:E:/LiteOS/LiteOS_Lab/drivers/third_party/ST/STM32L4xx_HAL_Driver/Src\stm32l4xx_hal_rcc_ex.c ****   * THIS SOFTWARE IS PROVIDED BY THE COPYRIGHT HOLDERS AND CONTRIBUTORS "AS IS"
  29:E:/LiteOS/LiteOS_Lab/drivers/third_party/ST/STM32L4xx_HAL_Driver/Src\stm32l4xx_hal_rcc_ex.c ****   * AND ANY EXPRESS OR IMPLIED WARRANTIES, INCLUDING, BUT NOT LIMITED TO, THE
  30:E:/LiteOS/LiteOS_Lab/drivers/third_party/ST/STM32L4xx_HAL_Driver/Src\stm32l4xx_hal_rcc_ex.c ****   * IMPLIED WARRANTIES OF MERCHANTABILITY AND FITNESS FOR A PARTICULAR PURPOSE ARE
  31:E:/LiteOS/LiteOS_Lab/drivers/third_party/ST/STM32L4xx_HAL_Driver/Src\stm32l4xx_hal_rcc_ex.c ****   * DISCLAIMED. IN NO EVENT SHALL THE COPYRIGHT HOLDER OR CONTRIBUTORS BE LIABLE
ARM GAS  C:\Users\user\AppData\Local\Temp\ccsJwa9Q.s 			page 2


  32:E:/LiteOS/LiteOS_Lab/drivers/third_party/ST/STM32L4xx_HAL_Driver/Src\stm32l4xx_hal_rcc_ex.c ****   * FOR ANY DIRECT, INDIRECT, INCIDENTAL, SPECIAL, EXEMPLARY, OR CONSEQUENTIAL
  33:E:/LiteOS/LiteOS_Lab/drivers/third_party/ST/STM32L4xx_HAL_Driver/Src\stm32l4xx_hal_rcc_ex.c ****   * DAMAGES (INCLUDING, BUT NOT LIMITED TO, PROCUREMENT OF SUBSTITUTE GOODS OR
  34:E:/LiteOS/LiteOS_Lab/drivers/third_party/ST/STM32L4xx_HAL_Driver/Src\stm32l4xx_hal_rcc_ex.c ****   * SERVICES; LOSS OF USE, DATA, OR PROFITS; OR BUSINESS INTERRUPTION) HOWEVER
  35:E:/LiteOS/LiteOS_Lab/drivers/third_party/ST/STM32L4xx_HAL_Driver/Src\stm32l4xx_hal_rcc_ex.c ****   * CAUSED AND ON ANY THEORY OF LIABILITY, WHETHER IN CONTRACT, STRICT LIABILITY,
  36:E:/LiteOS/LiteOS_Lab/drivers/third_party/ST/STM32L4xx_HAL_Driver/Src\stm32l4xx_hal_rcc_ex.c ****   * OR TORT (INCLUDING NEGLIGENCE OR OTHERWISE) ARISING IN ANY WAY OUT OF THE USE
  37:E:/LiteOS/LiteOS_Lab/drivers/third_party/ST/STM32L4xx_HAL_Driver/Src\stm32l4xx_hal_rcc_ex.c ****   * OF THIS SOFTWARE, EVEN IF ADVISED OF THE POSSIBILITY OF SUCH DAMAGE.
  38:E:/LiteOS/LiteOS_Lab/drivers/third_party/ST/STM32L4xx_HAL_Driver/Src\stm32l4xx_hal_rcc_ex.c ****   *
  39:E:/LiteOS/LiteOS_Lab/drivers/third_party/ST/STM32L4xx_HAL_Driver/Src\stm32l4xx_hal_rcc_ex.c ****   ******************************************************************************
  40:E:/LiteOS/LiteOS_Lab/drivers/third_party/ST/STM32L4xx_HAL_Driver/Src\stm32l4xx_hal_rcc_ex.c ****   */
  41:E:/LiteOS/LiteOS_Lab/drivers/third_party/ST/STM32L4xx_HAL_Driver/Src\stm32l4xx_hal_rcc_ex.c **** 
  42:E:/LiteOS/LiteOS_Lab/drivers/third_party/ST/STM32L4xx_HAL_Driver/Src\stm32l4xx_hal_rcc_ex.c **** /* Includes ------------------------------------------------------------------*/
  43:E:/LiteOS/LiteOS_Lab/drivers/third_party/ST/STM32L4xx_HAL_Driver/Src\stm32l4xx_hal_rcc_ex.c **** #include "stm32l4xx_hal.h"
  44:E:/LiteOS/LiteOS_Lab/drivers/third_party/ST/STM32L4xx_HAL_Driver/Src\stm32l4xx_hal_rcc_ex.c **** 
  45:E:/LiteOS/LiteOS_Lab/drivers/third_party/ST/STM32L4xx_HAL_Driver/Src\stm32l4xx_hal_rcc_ex.c **** /** @addtogroup STM32L4xx_HAL_Driver
  46:E:/LiteOS/LiteOS_Lab/drivers/third_party/ST/STM32L4xx_HAL_Driver/Src\stm32l4xx_hal_rcc_ex.c ****   * @{
  47:E:/LiteOS/LiteOS_Lab/drivers/third_party/ST/STM32L4xx_HAL_Driver/Src\stm32l4xx_hal_rcc_ex.c ****   */
  48:E:/LiteOS/LiteOS_Lab/drivers/third_party/ST/STM32L4xx_HAL_Driver/Src\stm32l4xx_hal_rcc_ex.c **** 
  49:E:/LiteOS/LiteOS_Lab/drivers/third_party/ST/STM32L4xx_HAL_Driver/Src\stm32l4xx_hal_rcc_ex.c **** /** @defgroup RCCEx RCCEx
  50:E:/LiteOS/LiteOS_Lab/drivers/third_party/ST/STM32L4xx_HAL_Driver/Src\stm32l4xx_hal_rcc_ex.c ****   * @brief RCC Extended HAL module driver
  51:E:/LiteOS/LiteOS_Lab/drivers/third_party/ST/STM32L4xx_HAL_Driver/Src\stm32l4xx_hal_rcc_ex.c ****   * @{
  52:E:/LiteOS/LiteOS_Lab/drivers/third_party/ST/STM32L4xx_HAL_Driver/Src\stm32l4xx_hal_rcc_ex.c ****   */
  53:E:/LiteOS/LiteOS_Lab/drivers/third_party/ST/STM32L4xx_HAL_Driver/Src\stm32l4xx_hal_rcc_ex.c **** 
  54:E:/LiteOS/LiteOS_Lab/drivers/third_party/ST/STM32L4xx_HAL_Driver/Src\stm32l4xx_hal_rcc_ex.c **** #ifdef HAL_RCC_MODULE_ENABLED
  55:E:/LiteOS/LiteOS_Lab/drivers/third_party/ST/STM32L4xx_HAL_Driver/Src\stm32l4xx_hal_rcc_ex.c **** 
  56:E:/LiteOS/LiteOS_Lab/drivers/third_party/ST/STM32L4xx_HAL_Driver/Src\stm32l4xx_hal_rcc_ex.c **** /* Private typedef -----------------------------------------------------------*/
  57:E:/LiteOS/LiteOS_Lab/drivers/third_party/ST/STM32L4xx_HAL_Driver/Src\stm32l4xx_hal_rcc_ex.c **** /* Private defines -----------------------------------------------------------*/
  58:E:/LiteOS/LiteOS_Lab/drivers/third_party/ST/STM32L4xx_HAL_Driver/Src\stm32l4xx_hal_rcc_ex.c **** /** @defgroup RCCEx_Private_Constants RCCEx Private Constants
  59:E:/LiteOS/LiteOS_Lab/drivers/third_party/ST/STM32L4xx_HAL_Driver/Src\stm32l4xx_hal_rcc_ex.c ****  * @{
  60:E:/LiteOS/LiteOS_Lab/drivers/third_party/ST/STM32L4xx_HAL_Driver/Src\stm32l4xx_hal_rcc_ex.c ****  */
  61:E:/LiteOS/LiteOS_Lab/drivers/third_party/ST/STM32L4xx_HAL_Driver/Src\stm32l4xx_hal_rcc_ex.c **** #define PLLSAI1_TIMEOUT_VALUE     2U    /* 2 ms (minimum Tick + 1) */
  62:E:/LiteOS/LiteOS_Lab/drivers/third_party/ST/STM32L4xx_HAL_Driver/Src\stm32l4xx_hal_rcc_ex.c **** #define PLLSAI2_TIMEOUT_VALUE     2U    /* 2 ms (minimum Tick + 1) */
  63:E:/LiteOS/LiteOS_Lab/drivers/third_party/ST/STM32L4xx_HAL_Driver/Src\stm32l4xx_hal_rcc_ex.c **** #define PLL_TIMEOUT_VALUE         2U    /* 2 ms (minimum Tick + 1) */
  64:E:/LiteOS/LiteOS_Lab/drivers/third_party/ST/STM32L4xx_HAL_Driver/Src\stm32l4xx_hal_rcc_ex.c **** 
  65:E:/LiteOS/LiteOS_Lab/drivers/third_party/ST/STM32L4xx_HAL_Driver/Src\stm32l4xx_hal_rcc_ex.c **** #define DIVIDER_P_UPDATE          0U
  66:E:/LiteOS/LiteOS_Lab/drivers/third_party/ST/STM32L4xx_HAL_Driver/Src\stm32l4xx_hal_rcc_ex.c **** #define DIVIDER_Q_UPDATE          1U
  67:E:/LiteOS/LiteOS_Lab/drivers/third_party/ST/STM32L4xx_HAL_Driver/Src\stm32l4xx_hal_rcc_ex.c **** #define DIVIDER_R_UPDATE          2U
  68:E:/LiteOS/LiteOS_Lab/drivers/third_party/ST/STM32L4xx_HAL_Driver/Src\stm32l4xx_hal_rcc_ex.c **** 
  69:E:/LiteOS/LiteOS_Lab/drivers/third_party/ST/STM32L4xx_HAL_Driver/Src\stm32l4xx_hal_rcc_ex.c **** #define __LSCO_CLK_ENABLE()       __HAL_RCC_GPIOA_CLK_ENABLE()
  70:E:/LiteOS/LiteOS_Lab/drivers/third_party/ST/STM32L4xx_HAL_Driver/Src\stm32l4xx_hal_rcc_ex.c **** #define LSCO_GPIO_PORT            GPIOA
  71:E:/LiteOS/LiteOS_Lab/drivers/third_party/ST/STM32L4xx_HAL_Driver/Src\stm32l4xx_hal_rcc_ex.c **** #define LSCO_PIN                  GPIO_PIN_2
  72:E:/LiteOS/LiteOS_Lab/drivers/third_party/ST/STM32L4xx_HAL_Driver/Src\stm32l4xx_hal_rcc_ex.c **** /**
  73:E:/LiteOS/LiteOS_Lab/drivers/third_party/ST/STM32L4xx_HAL_Driver/Src\stm32l4xx_hal_rcc_ex.c ****   * @}
  74:E:/LiteOS/LiteOS_Lab/drivers/third_party/ST/STM32L4xx_HAL_Driver/Src\stm32l4xx_hal_rcc_ex.c ****   */
  75:E:/LiteOS/LiteOS_Lab/drivers/third_party/ST/STM32L4xx_HAL_Driver/Src\stm32l4xx_hal_rcc_ex.c **** 
  76:E:/LiteOS/LiteOS_Lab/drivers/third_party/ST/STM32L4xx_HAL_Driver/Src\stm32l4xx_hal_rcc_ex.c **** /* Private macros ------------------------------------------------------------*/
  77:E:/LiteOS/LiteOS_Lab/drivers/third_party/ST/STM32L4xx_HAL_Driver/Src\stm32l4xx_hal_rcc_ex.c **** /* Private variables ---------------------------------------------------------*/
  78:E:/LiteOS/LiteOS_Lab/drivers/third_party/ST/STM32L4xx_HAL_Driver/Src\stm32l4xx_hal_rcc_ex.c **** /* Private function prototypes -----------------------------------------------*/
  79:E:/LiteOS/LiteOS_Lab/drivers/third_party/ST/STM32L4xx_HAL_Driver/Src\stm32l4xx_hal_rcc_ex.c **** /** @defgroup RCCEx_Private_Functions RCCEx Private Functions
  80:E:/LiteOS/LiteOS_Lab/drivers/third_party/ST/STM32L4xx_HAL_Driver/Src\stm32l4xx_hal_rcc_ex.c ****  * @{
  81:E:/LiteOS/LiteOS_Lab/drivers/third_party/ST/STM32L4xx_HAL_Driver/Src\stm32l4xx_hal_rcc_ex.c ****  */
  82:E:/LiteOS/LiteOS_Lab/drivers/third_party/ST/STM32L4xx_HAL_Driver/Src\stm32l4xx_hal_rcc_ex.c **** static HAL_StatusTypeDef RCCEx_PLLSAI1_Config(RCC_PLLSAI1InitTypeDef *PllSai1, uint32_t Divider);
  83:E:/LiteOS/LiteOS_Lab/drivers/third_party/ST/STM32L4xx_HAL_Driver/Src\stm32l4xx_hal_rcc_ex.c **** 
  84:E:/LiteOS/LiteOS_Lab/drivers/third_party/ST/STM32L4xx_HAL_Driver/Src\stm32l4xx_hal_rcc_ex.c **** #if defined(RCC_PLLSAI2_SUPPORT)
  85:E:/LiteOS/LiteOS_Lab/drivers/third_party/ST/STM32L4xx_HAL_Driver/Src\stm32l4xx_hal_rcc_ex.c **** 
  86:E:/LiteOS/LiteOS_Lab/drivers/third_party/ST/STM32L4xx_HAL_Driver/Src\stm32l4xx_hal_rcc_ex.c **** static HAL_StatusTypeDef RCCEx_PLLSAI2_Config(RCC_PLLSAI2InitTypeDef *PllSai2, uint32_t Divider);
  87:E:/LiteOS/LiteOS_Lab/drivers/third_party/ST/STM32L4xx_HAL_Driver/Src\stm32l4xx_hal_rcc_ex.c **** 
  88:E:/LiteOS/LiteOS_Lab/drivers/third_party/ST/STM32L4xx_HAL_Driver/Src\stm32l4xx_hal_rcc_ex.c **** #endif /* RCC_PLLSAI2_SUPPORT */
ARM GAS  C:\Users\user\AppData\Local\Temp\ccsJwa9Q.s 			page 3


  89:E:/LiteOS/LiteOS_Lab/drivers/third_party/ST/STM32L4xx_HAL_Driver/Src\stm32l4xx_hal_rcc_ex.c **** 
  90:E:/LiteOS/LiteOS_Lab/drivers/third_party/ST/STM32L4xx_HAL_Driver/Src\stm32l4xx_hal_rcc_ex.c **** /**
  91:E:/LiteOS/LiteOS_Lab/drivers/third_party/ST/STM32L4xx_HAL_Driver/Src\stm32l4xx_hal_rcc_ex.c ****   * @}
  92:E:/LiteOS/LiteOS_Lab/drivers/third_party/ST/STM32L4xx_HAL_Driver/Src\stm32l4xx_hal_rcc_ex.c ****   */
  93:E:/LiteOS/LiteOS_Lab/drivers/third_party/ST/STM32L4xx_HAL_Driver/Src\stm32l4xx_hal_rcc_ex.c **** 
  94:E:/LiteOS/LiteOS_Lab/drivers/third_party/ST/STM32L4xx_HAL_Driver/Src\stm32l4xx_hal_rcc_ex.c **** /* Exported functions --------------------------------------------------------*/
  95:E:/LiteOS/LiteOS_Lab/drivers/third_party/ST/STM32L4xx_HAL_Driver/Src\stm32l4xx_hal_rcc_ex.c **** 
  96:E:/LiteOS/LiteOS_Lab/drivers/third_party/ST/STM32L4xx_HAL_Driver/Src\stm32l4xx_hal_rcc_ex.c **** /** @defgroup RCCEx_Exported_Functions RCCEx Exported Functions
  97:E:/LiteOS/LiteOS_Lab/drivers/third_party/ST/STM32L4xx_HAL_Driver/Src\stm32l4xx_hal_rcc_ex.c ****   * @{
  98:E:/LiteOS/LiteOS_Lab/drivers/third_party/ST/STM32L4xx_HAL_Driver/Src\stm32l4xx_hal_rcc_ex.c ****   */
  99:E:/LiteOS/LiteOS_Lab/drivers/third_party/ST/STM32L4xx_HAL_Driver/Src\stm32l4xx_hal_rcc_ex.c **** 
 100:E:/LiteOS/LiteOS_Lab/drivers/third_party/ST/STM32L4xx_HAL_Driver/Src\stm32l4xx_hal_rcc_ex.c **** /** @defgroup RCCEx_Exported_Functions_Group1 Extended Peripheral Control functions
 101:E:/LiteOS/LiteOS_Lab/drivers/third_party/ST/STM32L4xx_HAL_Driver/Src\stm32l4xx_hal_rcc_ex.c ****  *  @brief  Extended Peripheral Control functions
 102:E:/LiteOS/LiteOS_Lab/drivers/third_party/ST/STM32L4xx_HAL_Driver/Src\stm32l4xx_hal_rcc_ex.c ****  *
 103:E:/LiteOS/LiteOS_Lab/drivers/third_party/ST/STM32L4xx_HAL_Driver/Src\stm32l4xx_hal_rcc_ex.c **** @verbatim
 104:E:/LiteOS/LiteOS_Lab/drivers/third_party/ST/STM32L4xx_HAL_Driver/Src\stm32l4xx_hal_rcc_ex.c ****  ===============================================================================
 105:E:/LiteOS/LiteOS_Lab/drivers/third_party/ST/STM32L4xx_HAL_Driver/Src\stm32l4xx_hal_rcc_ex.c ****                 ##### Extended Peripheral Control functions  #####
 106:E:/LiteOS/LiteOS_Lab/drivers/third_party/ST/STM32L4xx_HAL_Driver/Src\stm32l4xx_hal_rcc_ex.c ****  ===============================================================================
 107:E:/LiteOS/LiteOS_Lab/drivers/third_party/ST/STM32L4xx_HAL_Driver/Src\stm32l4xx_hal_rcc_ex.c ****     [..]
 108:E:/LiteOS/LiteOS_Lab/drivers/third_party/ST/STM32L4xx_HAL_Driver/Src\stm32l4xx_hal_rcc_ex.c ****     This subsection provides a set of functions allowing to control the RCC Clocks
 109:E:/LiteOS/LiteOS_Lab/drivers/third_party/ST/STM32L4xx_HAL_Driver/Src\stm32l4xx_hal_rcc_ex.c ****     frequencies.
 110:E:/LiteOS/LiteOS_Lab/drivers/third_party/ST/STM32L4xx_HAL_Driver/Src\stm32l4xx_hal_rcc_ex.c ****     [..]
 111:E:/LiteOS/LiteOS_Lab/drivers/third_party/ST/STM32L4xx_HAL_Driver/Src\stm32l4xx_hal_rcc_ex.c ****     (@) Important note: Care must be taken when HAL_RCCEx_PeriphCLKConfig() is used to
 112:E:/LiteOS/LiteOS_Lab/drivers/third_party/ST/STM32L4xx_HAL_Driver/Src\stm32l4xx_hal_rcc_ex.c ****         select the RTC clock source; in this case the Backup domain will be reset in
 113:E:/LiteOS/LiteOS_Lab/drivers/third_party/ST/STM32L4xx_HAL_Driver/Src\stm32l4xx_hal_rcc_ex.c ****         order to modify the RTC Clock source, as consequence RTC registers (including
 114:E:/LiteOS/LiteOS_Lab/drivers/third_party/ST/STM32L4xx_HAL_Driver/Src\stm32l4xx_hal_rcc_ex.c ****         the backup registers) are set to their reset values.
 115:E:/LiteOS/LiteOS_Lab/drivers/third_party/ST/STM32L4xx_HAL_Driver/Src\stm32l4xx_hal_rcc_ex.c **** 
 116:E:/LiteOS/LiteOS_Lab/drivers/third_party/ST/STM32L4xx_HAL_Driver/Src\stm32l4xx_hal_rcc_ex.c **** @endverbatim
 117:E:/LiteOS/LiteOS_Lab/drivers/third_party/ST/STM32L4xx_HAL_Driver/Src\stm32l4xx_hal_rcc_ex.c ****   * @{
 118:E:/LiteOS/LiteOS_Lab/drivers/third_party/ST/STM32L4xx_HAL_Driver/Src\stm32l4xx_hal_rcc_ex.c ****   */
 119:E:/LiteOS/LiteOS_Lab/drivers/third_party/ST/STM32L4xx_HAL_Driver/Src\stm32l4xx_hal_rcc_ex.c **** /**
 120:E:/LiteOS/LiteOS_Lab/drivers/third_party/ST/STM32L4xx_HAL_Driver/Src\stm32l4xx_hal_rcc_ex.c ****   * @brief  Initialize the RCC extended peripherals clocks according to the specified
 121:E:/LiteOS/LiteOS_Lab/drivers/third_party/ST/STM32L4xx_HAL_Driver/Src\stm32l4xx_hal_rcc_ex.c ****   *         parameters in the RCC_PeriphCLKInitTypeDef.
 122:E:/LiteOS/LiteOS_Lab/drivers/third_party/ST/STM32L4xx_HAL_Driver/Src\stm32l4xx_hal_rcc_ex.c ****   * @param  PeriphClkInit  pointer to an RCC_PeriphCLKInitTypeDef structure that
 123:E:/LiteOS/LiteOS_Lab/drivers/third_party/ST/STM32L4xx_HAL_Driver/Src\stm32l4xx_hal_rcc_ex.c ****   *         contains a field PeriphClockSelection which can be a combination of the following value
 124:E:/LiteOS/LiteOS_Lab/drivers/third_party/ST/STM32L4xx_HAL_Driver/Src\stm32l4xx_hal_rcc_ex.c ****   *            @arg @ref RCC_PERIPHCLK_RTC  RTC peripheral clock
 125:E:/LiteOS/LiteOS_Lab/drivers/third_party/ST/STM32L4xx_HAL_Driver/Src\stm32l4xx_hal_rcc_ex.c ****   *            @arg @ref RCC_PERIPHCLK_ADC  ADC peripheral clock
 126:E:/LiteOS/LiteOS_Lab/drivers/third_party/ST/STM32L4xx_HAL_Driver/Src\stm32l4xx_hal_rcc_ex.c ****   @if STM32L462xx
 127:E:/LiteOS/LiteOS_Lab/drivers/third_party/ST/STM32L4xx_HAL_Driver/Src\stm32l4xx_hal_rcc_ex.c ****   *            @arg @ref RCC_PERIPHCLK_DFSDM1  DFSDM1 peripheral clock (only for devices with DFSDM
 128:E:/LiteOS/LiteOS_Lab/drivers/third_party/ST/STM32L4xx_HAL_Driver/Src\stm32l4xx_hal_rcc_ex.c ****   @endif
 129:E:/LiteOS/LiteOS_Lab/drivers/third_party/ST/STM32L4xx_HAL_Driver/Src\stm32l4xx_hal_rcc_ex.c ****   @if STM32L486xx
 130:E:/LiteOS/LiteOS_Lab/drivers/third_party/ST/STM32L4xx_HAL_Driver/Src\stm32l4xx_hal_rcc_ex.c ****   *            @arg @ref RCC_PERIPHCLK_DFSDM1  DFSDM1 peripheral clock (only for devices with DFSDM
 131:E:/LiteOS/LiteOS_Lab/drivers/third_party/ST/STM32L4xx_HAL_Driver/Src\stm32l4xx_hal_rcc_ex.c ****   @endif
 132:E:/LiteOS/LiteOS_Lab/drivers/third_party/ST/STM32L4xx_HAL_Driver/Src\stm32l4xx_hal_rcc_ex.c ****   @if STM32L4A6xx
 133:E:/LiteOS/LiteOS_Lab/drivers/third_party/ST/STM32L4xx_HAL_Driver/Src\stm32l4xx_hal_rcc_ex.c ****   *            @arg @ref RCC_PERIPHCLK_DFSDM1  DFSDM1 peripheral clock (only for devices with DFSDM
 134:E:/LiteOS/LiteOS_Lab/drivers/third_party/ST/STM32L4xx_HAL_Driver/Src\stm32l4xx_hal_rcc_ex.c ****   @endif
 135:E:/LiteOS/LiteOS_Lab/drivers/third_party/ST/STM32L4xx_HAL_Driver/Src\stm32l4xx_hal_rcc_ex.c ****   *            @arg @ref RCC_PERIPHCLK_I2C1  I2C1 peripheral clock
 136:E:/LiteOS/LiteOS_Lab/drivers/third_party/ST/STM32L4xx_HAL_Driver/Src\stm32l4xx_hal_rcc_ex.c ****   *            @arg @ref RCC_PERIPHCLK_I2C2  I2C2 peripheral clock
 137:E:/LiteOS/LiteOS_Lab/drivers/third_party/ST/STM32L4xx_HAL_Driver/Src\stm32l4xx_hal_rcc_ex.c ****   *            @arg @ref RCC_PERIPHCLK_I2C3  I2C3 peripheral clock
 138:E:/LiteOS/LiteOS_Lab/drivers/third_party/ST/STM32L4xx_HAL_Driver/Src\stm32l4xx_hal_rcc_ex.c ****   @if STM32L462xx
 139:E:/LiteOS/LiteOS_Lab/drivers/third_party/ST/STM32L4xx_HAL_Driver/Src\stm32l4xx_hal_rcc_ex.c ****   *            @arg @ref RCC_PERIPHCLK_I2C4  I2C4 peripheral clock (only for devices with I2C4)
 140:E:/LiteOS/LiteOS_Lab/drivers/third_party/ST/STM32L4xx_HAL_Driver/Src\stm32l4xx_hal_rcc_ex.c ****   @endif
 141:E:/LiteOS/LiteOS_Lab/drivers/third_party/ST/STM32L4xx_HAL_Driver/Src\stm32l4xx_hal_rcc_ex.c ****   @if STM32L4A6xx
 142:E:/LiteOS/LiteOS_Lab/drivers/third_party/ST/STM32L4xx_HAL_Driver/Src\stm32l4xx_hal_rcc_ex.c ****   *            @arg @ref RCC_PERIPHCLK_I2C4  I2C4 peripheral clock (only for devices with I2C4)
 143:E:/LiteOS/LiteOS_Lab/drivers/third_party/ST/STM32L4xx_HAL_Driver/Src\stm32l4xx_hal_rcc_ex.c ****   @endif
 144:E:/LiteOS/LiteOS_Lab/drivers/third_party/ST/STM32L4xx_HAL_Driver/Src\stm32l4xx_hal_rcc_ex.c ****   @if STM32L4S9xx
 145:E:/LiteOS/LiteOS_Lab/drivers/third_party/ST/STM32L4xx_HAL_Driver/Src\stm32l4xx_hal_rcc_ex.c ****   *            @arg @ref RCC_PERIPHCLK_I2C4  I2C4 peripheral clock (only for devices with I2C4)
ARM GAS  C:\Users\user\AppData\Local\Temp\ccsJwa9Q.s 			page 4


 146:E:/LiteOS/LiteOS_Lab/drivers/third_party/ST/STM32L4xx_HAL_Driver/Src\stm32l4xx_hal_rcc_ex.c ****   @endif
 147:E:/LiteOS/LiteOS_Lab/drivers/third_party/ST/STM32L4xx_HAL_Driver/Src\stm32l4xx_hal_rcc_ex.c ****   *            @arg @ref RCC_PERIPHCLK_LPTIM1  LPTIM1 peripheral clock
 148:E:/LiteOS/LiteOS_Lab/drivers/third_party/ST/STM32L4xx_HAL_Driver/Src\stm32l4xx_hal_rcc_ex.c ****   *            @arg @ref RCC_PERIPHCLK_LPTIM2  LPTIM2 peripheral clock
 149:E:/LiteOS/LiteOS_Lab/drivers/third_party/ST/STM32L4xx_HAL_Driver/Src\stm32l4xx_hal_rcc_ex.c ****   *            @arg @ref RCC_PERIPHCLK_LPUART1  LPUART1 peripheral clock
 150:E:/LiteOS/LiteOS_Lab/drivers/third_party/ST/STM32L4xx_HAL_Driver/Src\stm32l4xx_hal_rcc_ex.c ****   *            @arg @ref RCC_PERIPHCLK_RNG  RNG peripheral clock
 151:E:/LiteOS/LiteOS_Lab/drivers/third_party/ST/STM32L4xx_HAL_Driver/Src\stm32l4xx_hal_rcc_ex.c ****   *            @arg @ref RCC_PERIPHCLK_SAI1  SAI1 peripheral clock
 152:E:/LiteOS/LiteOS_Lab/drivers/third_party/ST/STM32L4xx_HAL_Driver/Src\stm32l4xx_hal_rcc_ex.c ****   @if STM32L486xx
 153:E:/LiteOS/LiteOS_Lab/drivers/third_party/ST/STM32L4xx_HAL_Driver/Src\stm32l4xx_hal_rcc_ex.c ****   *            @arg @ref RCC_PERIPHCLK_SAI2  SAI2 peripheral clock (only for devices with SAI2)
 154:E:/LiteOS/LiteOS_Lab/drivers/third_party/ST/STM32L4xx_HAL_Driver/Src\stm32l4xx_hal_rcc_ex.c ****   @endif
 155:E:/LiteOS/LiteOS_Lab/drivers/third_party/ST/STM32L4xx_HAL_Driver/Src\stm32l4xx_hal_rcc_ex.c ****   @if STM32L4A6xx
 156:E:/LiteOS/LiteOS_Lab/drivers/third_party/ST/STM32L4xx_HAL_Driver/Src\stm32l4xx_hal_rcc_ex.c ****   *            @arg @ref RCC_PERIPHCLK_SAI2  SAI2 peripheral clock (only for devices with SAI2)
 157:E:/LiteOS/LiteOS_Lab/drivers/third_party/ST/STM32L4xx_HAL_Driver/Src\stm32l4xx_hal_rcc_ex.c ****   @endif
 158:E:/LiteOS/LiteOS_Lab/drivers/third_party/ST/STM32L4xx_HAL_Driver/Src\stm32l4xx_hal_rcc_ex.c ****   @if STM32L4S9xx
 159:E:/LiteOS/LiteOS_Lab/drivers/third_party/ST/STM32L4xx_HAL_Driver/Src\stm32l4xx_hal_rcc_ex.c ****   *            @arg @ref RCC_PERIPHCLK_SAI2  SAI2 peripheral clock (only for devices with SAI2)
 160:E:/LiteOS/LiteOS_Lab/drivers/third_party/ST/STM32L4xx_HAL_Driver/Src\stm32l4xx_hal_rcc_ex.c ****   @endif
 161:E:/LiteOS/LiteOS_Lab/drivers/third_party/ST/STM32L4xx_HAL_Driver/Src\stm32l4xx_hal_rcc_ex.c ****   *            @arg @ref RCC_PERIPHCLK_SDMMC1  SDMMC1 peripheral clock
 162:E:/LiteOS/LiteOS_Lab/drivers/third_party/ST/STM32L4xx_HAL_Driver/Src\stm32l4xx_hal_rcc_ex.c ****   @if STM32L443xx
 163:E:/LiteOS/LiteOS_Lab/drivers/third_party/ST/STM32L4xx_HAL_Driver/Src\stm32l4xx_hal_rcc_ex.c ****   *            @arg @ref RCC_PERIPHCLK_SWPMI1  SWPMI1 peripheral clock (only for devices with SWPMI
 164:E:/LiteOS/LiteOS_Lab/drivers/third_party/ST/STM32L4xx_HAL_Driver/Src\stm32l4xx_hal_rcc_ex.c ****   @endif
 165:E:/LiteOS/LiteOS_Lab/drivers/third_party/ST/STM32L4xx_HAL_Driver/Src\stm32l4xx_hal_rcc_ex.c ****   @if STM32L486xx
 166:E:/LiteOS/LiteOS_Lab/drivers/third_party/ST/STM32L4xx_HAL_Driver/Src\stm32l4xx_hal_rcc_ex.c ****   *            @arg @ref RCC_PERIPHCLK_SWPMI1  SWPMI1 peripheral clock (only for devices with SWPMI
 167:E:/LiteOS/LiteOS_Lab/drivers/third_party/ST/STM32L4xx_HAL_Driver/Src\stm32l4xx_hal_rcc_ex.c ****   @endif
 168:E:/LiteOS/LiteOS_Lab/drivers/third_party/ST/STM32L4xx_HAL_Driver/Src\stm32l4xx_hal_rcc_ex.c ****   @if STM32L4A6xx
 169:E:/LiteOS/LiteOS_Lab/drivers/third_party/ST/STM32L4xx_HAL_Driver/Src\stm32l4xx_hal_rcc_ex.c ****   *            @arg @ref RCC_PERIPHCLK_SWPMI1  SWPMI1 peripheral clock (only for devices with SWPMI
 170:E:/LiteOS/LiteOS_Lab/drivers/third_party/ST/STM32L4xx_HAL_Driver/Src\stm32l4xx_hal_rcc_ex.c ****   @endif
 171:E:/LiteOS/LiteOS_Lab/drivers/third_party/ST/STM32L4xx_HAL_Driver/Src\stm32l4xx_hal_rcc_ex.c ****   *            @arg @ref RCC_PERIPHCLK_USART1  USART1 peripheral clock
 172:E:/LiteOS/LiteOS_Lab/drivers/third_party/ST/STM32L4xx_HAL_Driver/Src\stm32l4xx_hal_rcc_ex.c ****   *            @arg @ref RCC_PERIPHCLK_USART2  USART1 peripheral clock
 173:E:/LiteOS/LiteOS_Lab/drivers/third_party/ST/STM32L4xx_HAL_Driver/Src\stm32l4xx_hal_rcc_ex.c ****   *            @arg @ref RCC_PERIPHCLK_USART3  USART1 peripheral clock
 174:E:/LiteOS/LiteOS_Lab/drivers/third_party/ST/STM32L4xx_HAL_Driver/Src\stm32l4xx_hal_rcc_ex.c ****   @if STM32L462xx
 175:E:/LiteOS/LiteOS_Lab/drivers/third_party/ST/STM32L4xx_HAL_Driver/Src\stm32l4xx_hal_rcc_ex.c ****   *            @arg @ref RCC_PERIPHCLK_UART4  USART1 peripheral clock (only for devices with UART4)
 176:E:/LiteOS/LiteOS_Lab/drivers/third_party/ST/STM32L4xx_HAL_Driver/Src\stm32l4xx_hal_rcc_ex.c ****   @endif
 177:E:/LiteOS/LiteOS_Lab/drivers/third_party/ST/STM32L4xx_HAL_Driver/Src\stm32l4xx_hal_rcc_ex.c ****   @if STM32L486xx
 178:E:/LiteOS/LiteOS_Lab/drivers/third_party/ST/STM32L4xx_HAL_Driver/Src\stm32l4xx_hal_rcc_ex.c ****   *            @arg @ref RCC_PERIPHCLK_UART4  USART1 peripheral clock (only for devices with UART4)
 179:E:/LiteOS/LiteOS_Lab/drivers/third_party/ST/STM32L4xx_HAL_Driver/Src\stm32l4xx_hal_rcc_ex.c ****   *            @arg @ref RCC_PERIPHCLK_UART5  USART1 peripheral clock (only for devices with UART5)
 180:E:/LiteOS/LiteOS_Lab/drivers/third_party/ST/STM32L4xx_HAL_Driver/Src\stm32l4xx_hal_rcc_ex.c ****   *            @arg @ref RCC_PERIPHCLK_USB  USB peripheral clock (only for devices with USB)
 181:E:/LiteOS/LiteOS_Lab/drivers/third_party/ST/STM32L4xx_HAL_Driver/Src\stm32l4xx_hal_rcc_ex.c ****   @endif
 182:E:/LiteOS/LiteOS_Lab/drivers/third_party/ST/STM32L4xx_HAL_Driver/Src\stm32l4xx_hal_rcc_ex.c ****   @if STM32L4A6xx
 183:E:/LiteOS/LiteOS_Lab/drivers/third_party/ST/STM32L4xx_HAL_Driver/Src\stm32l4xx_hal_rcc_ex.c ****   *            @arg @ref RCC_PERIPHCLK_UART4  USART1 peripheral clock (only for devices with UART4)
 184:E:/LiteOS/LiteOS_Lab/drivers/third_party/ST/STM32L4xx_HAL_Driver/Src\stm32l4xx_hal_rcc_ex.c ****   *            @arg @ref RCC_PERIPHCLK_UART5  USART1 peripheral clock (only for devices with UART5)
 185:E:/LiteOS/LiteOS_Lab/drivers/third_party/ST/STM32L4xx_HAL_Driver/Src\stm32l4xx_hal_rcc_ex.c ****   *            @arg @ref RCC_PERIPHCLK_USB  USB peripheral clock (only for devices with USB)
 186:E:/LiteOS/LiteOS_Lab/drivers/third_party/ST/STM32L4xx_HAL_Driver/Src\stm32l4xx_hal_rcc_ex.c ****   @endif
 187:E:/LiteOS/LiteOS_Lab/drivers/third_party/ST/STM32L4xx_HAL_Driver/Src\stm32l4xx_hal_rcc_ex.c ****   @if STM32L4S9xx
 188:E:/LiteOS/LiteOS_Lab/drivers/third_party/ST/STM32L4xx_HAL_Driver/Src\stm32l4xx_hal_rcc_ex.c ****   *            @arg @ref RCC_PERIPHCLK_UART4  USART1 peripheral clock (only for devices with UART4)
 189:E:/LiteOS/LiteOS_Lab/drivers/third_party/ST/STM32L4xx_HAL_Driver/Src\stm32l4xx_hal_rcc_ex.c ****   *            @arg @ref RCC_PERIPHCLK_UART5  USART1 peripheral clock (only for devices with UART5)
 190:E:/LiteOS/LiteOS_Lab/drivers/third_party/ST/STM32L4xx_HAL_Driver/Src\stm32l4xx_hal_rcc_ex.c ****   *            @arg @ref RCC_PERIPHCLK_USB  USB peripheral clock (only for devices with USB)
 191:E:/LiteOS/LiteOS_Lab/drivers/third_party/ST/STM32L4xx_HAL_Driver/Src\stm32l4xx_hal_rcc_ex.c ****   *            @arg @ref RCC_PERIPHCLK_DFSDM1  DFSDM1 peripheral kernel clock (only for devices wit
 192:E:/LiteOS/LiteOS_Lab/drivers/third_party/ST/STM32L4xx_HAL_Driver/Src\stm32l4xx_hal_rcc_ex.c ****   *            @arg @ref RCC_PERIPHCLK_DFSDM1AUDIO  DFSDM1 peripheral audio clock (only for devices
 193:E:/LiteOS/LiteOS_Lab/drivers/third_party/ST/STM32L4xx_HAL_Driver/Src\stm32l4xx_hal_rcc_ex.c ****   *            @arg @ref RCC_PERIPHCLK_LTDC  LTDC peripheral clock (only for devices with LTDC)
 194:E:/LiteOS/LiteOS_Lab/drivers/third_party/ST/STM32L4xx_HAL_Driver/Src\stm32l4xx_hal_rcc_ex.c ****   *            @arg @ref RCC_PERIPHCLK_DSI  DSI peripheral clock (only for devices with DSI)
 195:E:/LiteOS/LiteOS_Lab/drivers/third_party/ST/STM32L4xx_HAL_Driver/Src\stm32l4xx_hal_rcc_ex.c ****   *            @arg @ref RCC_PERIPHCLK_OSPI  OctoSPI peripheral clock (only for devices with OctoSP
 196:E:/LiteOS/LiteOS_Lab/drivers/third_party/ST/STM32L4xx_HAL_Driver/Src\stm32l4xx_hal_rcc_ex.c ****   @endif
 197:E:/LiteOS/LiteOS_Lab/drivers/third_party/ST/STM32L4xx_HAL_Driver/Src\stm32l4xx_hal_rcc_ex.c ****   *
 198:E:/LiteOS/LiteOS_Lab/drivers/third_party/ST/STM32L4xx_HAL_Driver/Src\stm32l4xx_hal_rcc_ex.c ****   * @note   Care must be taken when HAL_RCCEx_PeriphCLKConfig() is used to select
 199:E:/LiteOS/LiteOS_Lab/drivers/third_party/ST/STM32L4xx_HAL_Driver/Src\stm32l4xx_hal_rcc_ex.c ****   *         the RTC clock source: in this case the access to Backup domain is enabled.
 200:E:/LiteOS/LiteOS_Lab/drivers/third_party/ST/STM32L4xx_HAL_Driver/Src\stm32l4xx_hal_rcc_ex.c ****   *
 201:E:/LiteOS/LiteOS_Lab/drivers/third_party/ST/STM32L4xx_HAL_Driver/Src\stm32l4xx_hal_rcc_ex.c ****   * @retval HAL status
 202:E:/LiteOS/LiteOS_Lab/drivers/third_party/ST/STM32L4xx_HAL_Driver/Src\stm32l4xx_hal_rcc_ex.c ****   */
ARM GAS  C:\Users\user\AppData\Local\Temp\ccsJwa9Q.s 			page 5


 203:E:/LiteOS/LiteOS_Lab/drivers/third_party/ST/STM32L4xx_HAL_Driver/Src\stm32l4xx_hal_rcc_ex.c **** HAL_StatusTypeDef HAL_RCCEx_PeriphCLKConfig(RCC_PeriphCLKInitTypeDef  *PeriphClkInit)
 204:E:/LiteOS/LiteOS_Lab/drivers/third_party/ST/STM32L4xx_HAL_Driver/Src\stm32l4xx_hal_rcc_ex.c **** {
  28              		.loc 1 204 0
  29              		.cfi_startproc
  30              		@ args = 0, pretend = 0, frame = 24
  31              		@ frame_needed = 1, uses_anonymous_args = 0
  32 0000 80B5     		push	{r7, lr}
  33              	.LCFI0:
  34              		.cfi_def_cfa_offset 8
  35              		.cfi_offset 7, -8
  36              		.cfi_offset 14, -4
  37 0002 86B0     		sub	sp, sp, #24
  38              	.LCFI1:
  39              		.cfi_def_cfa_offset 32
  40 0004 00AF     		add	r7, sp, #0
  41              	.LCFI2:
  42              		.cfi_def_cfa_register 7
  43 0006 7860     		str	r0, [r7, #4]
 205:E:/LiteOS/LiteOS_Lab/drivers/third_party/ST/STM32L4xx_HAL_Driver/Src\stm32l4xx_hal_rcc_ex.c ****   uint32_t tmpregister = 0;
  44              		.loc 1 205 0
  45 0008 0023     		movs	r3, #0
  46 000a 7B61     		str	r3, [r7, #20]
 206:E:/LiteOS/LiteOS_Lab/drivers/third_party/ST/STM32L4xx_HAL_Driver/Src\stm32l4xx_hal_rcc_ex.c ****   uint32_t tickstart = 0U;
  47              		.loc 1 206 0
  48 000c 0023     		movs	r3, #0
  49 000e FB60     		str	r3, [r7, #12]
 207:E:/LiteOS/LiteOS_Lab/drivers/third_party/ST/STM32L4xx_HAL_Driver/Src\stm32l4xx_hal_rcc_ex.c ****   HAL_StatusTypeDef ret = HAL_OK;      /* Intermediate status */
  50              		.loc 1 207 0
  51 0010 0023     		movs	r3, #0
  52 0012 FB74     		strb	r3, [r7, #19]
 208:E:/LiteOS/LiteOS_Lab/drivers/third_party/ST/STM32L4xx_HAL_Driver/Src\stm32l4xx_hal_rcc_ex.c ****   HAL_StatusTypeDef status = HAL_OK;   /* Final status */
  53              		.loc 1 208 0
  54 0014 0023     		movs	r3, #0
  55 0016 BB74     		strb	r3, [r7, #18]
 209:E:/LiteOS/LiteOS_Lab/drivers/third_party/ST/STM32L4xx_HAL_Driver/Src\stm32l4xx_hal_rcc_ex.c **** 
 210:E:/LiteOS/LiteOS_Lab/drivers/third_party/ST/STM32L4xx_HAL_Driver/Src\stm32l4xx_hal_rcc_ex.c ****   /* Check the parameters */
 211:E:/LiteOS/LiteOS_Lab/drivers/third_party/ST/STM32L4xx_HAL_Driver/Src\stm32l4xx_hal_rcc_ex.c ****   assert_param(IS_RCC_PERIPHCLOCK(PeriphClkInit->PeriphClockSelection));
 212:E:/LiteOS/LiteOS_Lab/drivers/third_party/ST/STM32L4xx_HAL_Driver/Src\stm32l4xx_hal_rcc_ex.c **** 
 213:E:/LiteOS/LiteOS_Lab/drivers/third_party/ST/STM32L4xx_HAL_Driver/Src\stm32l4xx_hal_rcc_ex.c ****   /*-------------------------- SAI1 clock source configuration ---------------------*/
 214:E:/LiteOS/LiteOS_Lab/drivers/third_party/ST/STM32L4xx_HAL_Driver/Src\stm32l4xx_hal_rcc_ex.c ****   if((((PeriphClkInit->PeriphClockSelection) & RCC_PERIPHCLK_SAI1) == RCC_PERIPHCLK_SAI1))
  56              		.loc 1 214 0
  57 0018 7B68     		ldr	r3, [r7, #4]
  58 001a 1B68     		ldr	r3, [r3]
  59 001c 03F40063 		and	r3, r3, #2048
  60 0020 002B     		cmp	r3, #0
  61 0022 2FD0     		beq	.L2
 215:E:/LiteOS/LiteOS_Lab/drivers/third_party/ST/STM32L4xx_HAL_Driver/Src\stm32l4xx_hal_rcc_ex.c ****   {
 216:E:/LiteOS/LiteOS_Lab/drivers/third_party/ST/STM32L4xx_HAL_Driver/Src\stm32l4xx_hal_rcc_ex.c ****     /* Check the parameters */
 217:E:/LiteOS/LiteOS_Lab/drivers/third_party/ST/STM32L4xx_HAL_Driver/Src\stm32l4xx_hal_rcc_ex.c ****     assert_param(IS_RCC_SAI1CLK(PeriphClkInit->Sai1ClockSelection));
 218:E:/LiteOS/LiteOS_Lab/drivers/third_party/ST/STM32L4xx_HAL_Driver/Src\stm32l4xx_hal_rcc_ex.c **** 
 219:E:/LiteOS/LiteOS_Lab/drivers/third_party/ST/STM32L4xx_HAL_Driver/Src\stm32l4xx_hal_rcc_ex.c ****     switch(PeriphClkInit->Sai1ClockSelection)
  62              		.loc 1 219 0
  63 0024 7B68     		ldr	r3, [r7, #4]
  64 0026 5B6C     		ldr	r3, [r3, #68]
  65 0028 B3F5000F 		cmp	r3, #8388608
  66 002c 05D0     		beq	.L4
  67 002e B3F5400F 		cmp	r3, #12582912
ARM GAS  C:\Users\user\AppData\Local\Temp\ccsJwa9Q.s 			page 6


  68 0032 15D0     		beq	.L39
  69 0034 002B     		cmp	r3, #0
  70 0036 07D0     		beq	.L6
  71 0038 0FE0     		b	.L38
  72              	.L4:
 220:E:/LiteOS/LiteOS_Lab/drivers/third_party/ST/STM32L4xx_HAL_Driver/Src\stm32l4xx_hal_rcc_ex.c ****     {
 221:E:/LiteOS/LiteOS_Lab/drivers/third_party/ST/STM32L4xx_HAL_Driver/Src\stm32l4xx_hal_rcc_ex.c ****     case RCC_SAI1CLKSOURCE_PLL:      /* PLL is used as clock source for SAI1*/
 222:E:/LiteOS/LiteOS_Lab/drivers/third_party/ST/STM32L4xx_HAL_Driver/Src\stm32l4xx_hal_rcc_ex.c ****       /* Enable SAI Clock output generated form System PLL . */
 223:E:/LiteOS/LiteOS_Lab/drivers/third_party/ST/STM32L4xx_HAL_Driver/Src\stm32l4xx_hal_rcc_ex.c **** #if defined(RCC_PLLSAI2_SUPPORT)
 224:E:/LiteOS/LiteOS_Lab/drivers/third_party/ST/STM32L4xx_HAL_Driver/Src\stm32l4xx_hal_rcc_ex.c ****       __HAL_RCC_PLLCLKOUT_ENABLE(RCC_PLL_SAI3CLK);
 225:E:/LiteOS/LiteOS_Lab/drivers/third_party/ST/STM32L4xx_HAL_Driver/Src\stm32l4xx_hal_rcc_ex.c **** #else
 226:E:/LiteOS/LiteOS_Lab/drivers/third_party/ST/STM32L4xx_HAL_Driver/Src\stm32l4xx_hal_rcc_ex.c ****       __HAL_RCC_PLLCLKOUT_ENABLE(RCC_PLL_SAI2CLK);
  73              		.loc 1 226 0
  74 003a 5A4B     		ldr	r3, .L40
  75 003c DB68     		ldr	r3, [r3, #12]
  76 003e 594A     		ldr	r2, .L40
  77 0040 43F48033 		orr	r3, r3, #65536
  78 0044 D360     		str	r3, [r2, #12]
 227:E:/LiteOS/LiteOS_Lab/drivers/third_party/ST/STM32L4xx_HAL_Driver/Src\stm32l4xx_hal_rcc_ex.c **** #endif /* RCC_PLLSAI2_SUPPORT */
 228:E:/LiteOS/LiteOS_Lab/drivers/third_party/ST/STM32L4xx_HAL_Driver/Src\stm32l4xx_hal_rcc_ex.c ****       /* SAI1 clock source config set later after clock selection check */
 229:E:/LiteOS/LiteOS_Lab/drivers/third_party/ST/STM32L4xx_HAL_Driver/Src\stm32l4xx_hal_rcc_ex.c ****       break;
  79              		.loc 1 229 0
  80 0046 0CE0     		b	.L7
  81              	.L6:
 230:E:/LiteOS/LiteOS_Lab/drivers/third_party/ST/STM32L4xx_HAL_Driver/Src\stm32l4xx_hal_rcc_ex.c **** 
 231:E:/LiteOS/LiteOS_Lab/drivers/third_party/ST/STM32L4xx_HAL_Driver/Src\stm32l4xx_hal_rcc_ex.c ****     case RCC_SAI1CLKSOURCE_PLLSAI1:  /* PLLSAI1 is used as clock source for SAI1*/
 232:E:/LiteOS/LiteOS_Lab/drivers/third_party/ST/STM32L4xx_HAL_Driver/Src\stm32l4xx_hal_rcc_ex.c ****       /* PLLSAI1 input clock, parameters M, N & P configuration and clock output (PLLSAI1ClockOut) 
 233:E:/LiteOS/LiteOS_Lab/drivers/third_party/ST/STM32L4xx_HAL_Driver/Src\stm32l4xx_hal_rcc_ex.c ****       ret = RCCEx_PLLSAI1_Config(&(PeriphClkInit->PLLSAI1), DIVIDER_P_UPDATE);
  82              		.loc 1 233 0
  83 0048 7B68     		ldr	r3, [r7, #4]
  84 004a 0433     		adds	r3, r3, #4
  85 004c 0021     		movs	r1, #0
  86 004e 1846     		mov	r0, r3
  87 0050 FFF7FEFF 		bl	RCCEx_PLLSAI1_Config
  88 0054 0346     		mov	r3, r0
  89 0056 FB74     		strb	r3, [r7, #19]
 234:E:/LiteOS/LiteOS_Lab/drivers/third_party/ST/STM32L4xx_HAL_Driver/Src\stm32l4xx_hal_rcc_ex.c ****       /* SAI1 clock source config set later after clock selection check */
 235:E:/LiteOS/LiteOS_Lab/drivers/third_party/ST/STM32L4xx_HAL_Driver/Src\stm32l4xx_hal_rcc_ex.c ****       break;
  90              		.loc 1 235 0
  91 0058 03E0     		b	.L7
  92              	.L38:
 236:E:/LiteOS/LiteOS_Lab/drivers/third_party/ST/STM32L4xx_HAL_Driver/Src\stm32l4xx_hal_rcc_ex.c **** 
 237:E:/LiteOS/LiteOS_Lab/drivers/third_party/ST/STM32L4xx_HAL_Driver/Src\stm32l4xx_hal_rcc_ex.c **** #if defined(RCC_PLLSAI2_SUPPORT)
 238:E:/LiteOS/LiteOS_Lab/drivers/third_party/ST/STM32L4xx_HAL_Driver/Src\stm32l4xx_hal_rcc_ex.c **** 
 239:E:/LiteOS/LiteOS_Lab/drivers/third_party/ST/STM32L4xx_HAL_Driver/Src\stm32l4xx_hal_rcc_ex.c ****     case RCC_SAI1CLKSOURCE_PLLSAI2:  /* PLLSAI2 is used as clock source for SAI1*/
 240:E:/LiteOS/LiteOS_Lab/drivers/third_party/ST/STM32L4xx_HAL_Driver/Src\stm32l4xx_hal_rcc_ex.c ****       /* PLLSAI2 input clock, parameters M, N & P configuration clock output (PLLSAI2ClockOut) */
 241:E:/LiteOS/LiteOS_Lab/drivers/third_party/ST/STM32L4xx_HAL_Driver/Src\stm32l4xx_hal_rcc_ex.c ****       ret = RCCEx_PLLSAI2_Config(&(PeriphClkInit->PLLSAI2), DIVIDER_P_UPDATE);
 242:E:/LiteOS/LiteOS_Lab/drivers/third_party/ST/STM32L4xx_HAL_Driver/Src\stm32l4xx_hal_rcc_ex.c ****       /* SAI1 clock source config set later after clock selection check */
 243:E:/LiteOS/LiteOS_Lab/drivers/third_party/ST/STM32L4xx_HAL_Driver/Src\stm32l4xx_hal_rcc_ex.c ****       break;
 244:E:/LiteOS/LiteOS_Lab/drivers/third_party/ST/STM32L4xx_HAL_Driver/Src\stm32l4xx_hal_rcc_ex.c **** 
 245:E:/LiteOS/LiteOS_Lab/drivers/third_party/ST/STM32L4xx_HAL_Driver/Src\stm32l4xx_hal_rcc_ex.c **** #endif /* RCC_PLLSAI2_SUPPORT */
 246:E:/LiteOS/LiteOS_Lab/drivers/third_party/ST/STM32L4xx_HAL_Driver/Src\stm32l4xx_hal_rcc_ex.c **** 
 247:E:/LiteOS/LiteOS_Lab/drivers/third_party/ST/STM32L4xx_HAL_Driver/Src\stm32l4xx_hal_rcc_ex.c ****     case RCC_SAI1CLKSOURCE_PIN:      /* External clock is used as source of SAI1 clock*/
 248:E:/LiteOS/LiteOS_Lab/drivers/third_party/ST/STM32L4xx_HAL_Driver/Src\stm32l4xx_hal_rcc_ex.c **** #if defined(STM32L4R5xx) || defined(STM32L4R7xx) || defined(STM32L4R9xx) || defined(STM32L4S5xx) ||
 249:E:/LiteOS/LiteOS_Lab/drivers/third_party/ST/STM32L4xx_HAL_Driver/Src\stm32l4xx_hal_rcc_ex.c ****     case RCC_SAI1CLKSOURCE_HSI:      /* HSI is used as source of SAI1 clock*/
 250:E:/LiteOS/LiteOS_Lab/drivers/third_party/ST/STM32L4xx_HAL_Driver/Src\stm32l4xx_hal_rcc_ex.c **** #endif /* STM32L4R5xx || STM32L4R7xx || STM32L4R9xx || STM32L4S5xx || STM32L4S7xx || STM32L4S9xx */
 251:E:/LiteOS/LiteOS_Lab/drivers/third_party/ST/STM32L4xx_HAL_Driver/Src\stm32l4xx_hal_rcc_ex.c ****       /* SAI1 clock source config set later after clock selection check */
ARM GAS  C:\Users\user\AppData\Local\Temp\ccsJwa9Q.s 			page 7


 252:E:/LiteOS/LiteOS_Lab/drivers/third_party/ST/STM32L4xx_HAL_Driver/Src\stm32l4xx_hal_rcc_ex.c ****       break;
 253:E:/LiteOS/LiteOS_Lab/drivers/third_party/ST/STM32L4xx_HAL_Driver/Src\stm32l4xx_hal_rcc_ex.c **** 
 254:E:/LiteOS/LiteOS_Lab/drivers/third_party/ST/STM32L4xx_HAL_Driver/Src\stm32l4xx_hal_rcc_ex.c ****     default:
 255:E:/LiteOS/LiteOS_Lab/drivers/third_party/ST/STM32L4xx_HAL_Driver/Src\stm32l4xx_hal_rcc_ex.c ****       ret = HAL_ERROR;
  93              		.loc 1 255 0
  94 005a 0123     		movs	r3, #1
  95 005c FB74     		strb	r3, [r7, #19]
 256:E:/LiteOS/LiteOS_Lab/drivers/third_party/ST/STM32L4xx_HAL_Driver/Src\stm32l4xx_hal_rcc_ex.c ****       break;
  96              		.loc 1 256 0
  97 005e 00E0     		b	.L7
  98              	.L39:
 252:E:/LiteOS/LiteOS_Lab/drivers/third_party/ST/STM32L4xx_HAL_Driver/Src\stm32l4xx_hal_rcc_ex.c **** 
  99              		.loc 1 252 0
 100 0060 00BF     		nop
 101              	.L7:
 257:E:/LiteOS/LiteOS_Lab/drivers/third_party/ST/STM32L4xx_HAL_Driver/Src\stm32l4xx_hal_rcc_ex.c ****     }
 258:E:/LiteOS/LiteOS_Lab/drivers/third_party/ST/STM32L4xx_HAL_Driver/Src\stm32l4xx_hal_rcc_ex.c **** 
 259:E:/LiteOS/LiteOS_Lab/drivers/third_party/ST/STM32L4xx_HAL_Driver/Src\stm32l4xx_hal_rcc_ex.c ****     if(ret == HAL_OK)
 102              		.loc 1 259 0
 103 0062 FB7C     		ldrb	r3, [r7, #19]	@ zero_extendqisi2
 104 0064 002B     		cmp	r3, #0
 105 0066 0BD1     		bne	.L8
 260:E:/LiteOS/LiteOS_Lab/drivers/third_party/ST/STM32L4xx_HAL_Driver/Src\stm32l4xx_hal_rcc_ex.c ****     {
 261:E:/LiteOS/LiteOS_Lab/drivers/third_party/ST/STM32L4xx_HAL_Driver/Src\stm32l4xx_hal_rcc_ex.c ****       /* Set the source of SAI1 clock*/
 262:E:/LiteOS/LiteOS_Lab/drivers/third_party/ST/STM32L4xx_HAL_Driver/Src\stm32l4xx_hal_rcc_ex.c ****       __HAL_RCC_SAI1_CONFIG(PeriphClkInit->Sai1ClockSelection);
 106              		.loc 1 262 0
 107 0068 4E4B     		ldr	r3, .L40
 108 006a D3F88830 		ldr	r3, [r3, #136]
 109 006e 23F44002 		bic	r2, r3, #12582912
 110 0072 7B68     		ldr	r3, [r7, #4]
 111 0074 5B6C     		ldr	r3, [r3, #68]
 112 0076 4B49     		ldr	r1, .L40
 113 0078 1343     		orrs	r3, r3, r2
 114 007a C1F88830 		str	r3, [r1, #136]
 115 007e 01E0     		b	.L2
 116              	.L8:
 263:E:/LiteOS/LiteOS_Lab/drivers/third_party/ST/STM32L4xx_HAL_Driver/Src\stm32l4xx_hal_rcc_ex.c ****     }
 264:E:/LiteOS/LiteOS_Lab/drivers/third_party/ST/STM32L4xx_HAL_Driver/Src\stm32l4xx_hal_rcc_ex.c ****     else
 265:E:/LiteOS/LiteOS_Lab/drivers/third_party/ST/STM32L4xx_HAL_Driver/Src\stm32l4xx_hal_rcc_ex.c ****     {
 266:E:/LiteOS/LiteOS_Lab/drivers/third_party/ST/STM32L4xx_HAL_Driver/Src\stm32l4xx_hal_rcc_ex.c ****       /* set overall return value */
 267:E:/LiteOS/LiteOS_Lab/drivers/third_party/ST/STM32L4xx_HAL_Driver/Src\stm32l4xx_hal_rcc_ex.c ****       status = ret;
 117              		.loc 1 267 0
 118 0080 FB7C     		ldrb	r3, [r7, #19]
 119 0082 BB74     		strb	r3, [r7, #18]
 120              	.L2:
 268:E:/LiteOS/LiteOS_Lab/drivers/third_party/ST/STM32L4xx_HAL_Driver/Src\stm32l4xx_hal_rcc_ex.c ****     }
 269:E:/LiteOS/LiteOS_Lab/drivers/third_party/ST/STM32L4xx_HAL_Driver/Src\stm32l4xx_hal_rcc_ex.c ****   }
 270:E:/LiteOS/LiteOS_Lab/drivers/third_party/ST/STM32L4xx_HAL_Driver/Src\stm32l4xx_hal_rcc_ex.c **** 
 271:E:/LiteOS/LiteOS_Lab/drivers/third_party/ST/STM32L4xx_HAL_Driver/Src\stm32l4xx_hal_rcc_ex.c **** #if defined(SAI2)
 272:E:/LiteOS/LiteOS_Lab/drivers/third_party/ST/STM32L4xx_HAL_Driver/Src\stm32l4xx_hal_rcc_ex.c **** 
 273:E:/LiteOS/LiteOS_Lab/drivers/third_party/ST/STM32L4xx_HAL_Driver/Src\stm32l4xx_hal_rcc_ex.c ****   /*-------------------------- SAI2 clock source configuration ---------------------*/
 274:E:/LiteOS/LiteOS_Lab/drivers/third_party/ST/STM32L4xx_HAL_Driver/Src\stm32l4xx_hal_rcc_ex.c ****   if((((PeriphClkInit->PeriphClockSelection) & RCC_PERIPHCLK_SAI2) == RCC_PERIPHCLK_SAI2))
 275:E:/LiteOS/LiteOS_Lab/drivers/third_party/ST/STM32L4xx_HAL_Driver/Src\stm32l4xx_hal_rcc_ex.c ****   {
 276:E:/LiteOS/LiteOS_Lab/drivers/third_party/ST/STM32L4xx_HAL_Driver/Src\stm32l4xx_hal_rcc_ex.c ****     /* Check the parameters */
 277:E:/LiteOS/LiteOS_Lab/drivers/third_party/ST/STM32L4xx_HAL_Driver/Src\stm32l4xx_hal_rcc_ex.c ****     assert_param(IS_RCC_SAI2CLK(PeriphClkInit->Sai2ClockSelection));
 278:E:/LiteOS/LiteOS_Lab/drivers/third_party/ST/STM32L4xx_HAL_Driver/Src\stm32l4xx_hal_rcc_ex.c **** 
 279:E:/LiteOS/LiteOS_Lab/drivers/third_party/ST/STM32L4xx_HAL_Driver/Src\stm32l4xx_hal_rcc_ex.c ****     switch(PeriphClkInit->Sai2ClockSelection)
ARM GAS  C:\Users\user\AppData\Local\Temp\ccsJwa9Q.s 			page 8


 280:E:/LiteOS/LiteOS_Lab/drivers/third_party/ST/STM32L4xx_HAL_Driver/Src\stm32l4xx_hal_rcc_ex.c ****     {
 281:E:/LiteOS/LiteOS_Lab/drivers/third_party/ST/STM32L4xx_HAL_Driver/Src\stm32l4xx_hal_rcc_ex.c ****     case RCC_SAI2CLKSOURCE_PLL:      /* PLL is used as clock source for SAI2*/
 282:E:/LiteOS/LiteOS_Lab/drivers/third_party/ST/STM32L4xx_HAL_Driver/Src\stm32l4xx_hal_rcc_ex.c ****       /* Enable SAI Clock output generated form System PLL . */
 283:E:/LiteOS/LiteOS_Lab/drivers/third_party/ST/STM32L4xx_HAL_Driver/Src\stm32l4xx_hal_rcc_ex.c ****       __HAL_RCC_PLLCLKOUT_ENABLE(RCC_PLL_SAI3CLK);
 284:E:/LiteOS/LiteOS_Lab/drivers/third_party/ST/STM32L4xx_HAL_Driver/Src\stm32l4xx_hal_rcc_ex.c ****       /* SAI2 clock source config set later after clock selection check */
 285:E:/LiteOS/LiteOS_Lab/drivers/third_party/ST/STM32L4xx_HAL_Driver/Src\stm32l4xx_hal_rcc_ex.c ****       break;
 286:E:/LiteOS/LiteOS_Lab/drivers/third_party/ST/STM32L4xx_HAL_Driver/Src\stm32l4xx_hal_rcc_ex.c **** 
 287:E:/LiteOS/LiteOS_Lab/drivers/third_party/ST/STM32L4xx_HAL_Driver/Src\stm32l4xx_hal_rcc_ex.c ****     case RCC_SAI2CLKSOURCE_PLLSAI1: /* PLLSAI1 is used as clock source for SAI2*/
 288:E:/LiteOS/LiteOS_Lab/drivers/third_party/ST/STM32L4xx_HAL_Driver/Src\stm32l4xx_hal_rcc_ex.c ****       /* PLLSAI1 input clock, parameters M, N & P configuration and clock output (PLLSAI1ClockOut) 
 289:E:/LiteOS/LiteOS_Lab/drivers/third_party/ST/STM32L4xx_HAL_Driver/Src\stm32l4xx_hal_rcc_ex.c ****       ret = RCCEx_PLLSAI1_Config(&(PeriphClkInit->PLLSAI1), DIVIDER_P_UPDATE);
 290:E:/LiteOS/LiteOS_Lab/drivers/third_party/ST/STM32L4xx_HAL_Driver/Src\stm32l4xx_hal_rcc_ex.c ****       /* SAI2 clock source config set later after clock selection check */
 291:E:/LiteOS/LiteOS_Lab/drivers/third_party/ST/STM32L4xx_HAL_Driver/Src\stm32l4xx_hal_rcc_ex.c ****       break;
 292:E:/LiteOS/LiteOS_Lab/drivers/third_party/ST/STM32L4xx_HAL_Driver/Src\stm32l4xx_hal_rcc_ex.c **** 
 293:E:/LiteOS/LiteOS_Lab/drivers/third_party/ST/STM32L4xx_HAL_Driver/Src\stm32l4xx_hal_rcc_ex.c ****     case RCC_SAI2CLKSOURCE_PLLSAI2:  /* PLLSAI2 is used as clock source for SAI2*/
 294:E:/LiteOS/LiteOS_Lab/drivers/third_party/ST/STM32L4xx_HAL_Driver/Src\stm32l4xx_hal_rcc_ex.c ****       /* PLLSAI2 input clock, parameters M, N & P configuration and clock output (PLLSAI2ClockOut) 
 295:E:/LiteOS/LiteOS_Lab/drivers/third_party/ST/STM32L4xx_HAL_Driver/Src\stm32l4xx_hal_rcc_ex.c ****       ret = RCCEx_PLLSAI2_Config(&(PeriphClkInit->PLLSAI2), DIVIDER_P_UPDATE);
 296:E:/LiteOS/LiteOS_Lab/drivers/third_party/ST/STM32L4xx_HAL_Driver/Src\stm32l4xx_hal_rcc_ex.c ****       /* SAI2 clock source config set later after clock selection check */
 297:E:/LiteOS/LiteOS_Lab/drivers/third_party/ST/STM32L4xx_HAL_Driver/Src\stm32l4xx_hal_rcc_ex.c ****       break;
 298:E:/LiteOS/LiteOS_Lab/drivers/third_party/ST/STM32L4xx_HAL_Driver/Src\stm32l4xx_hal_rcc_ex.c **** 
 299:E:/LiteOS/LiteOS_Lab/drivers/third_party/ST/STM32L4xx_HAL_Driver/Src\stm32l4xx_hal_rcc_ex.c ****     case RCC_SAI2CLKSOURCE_PIN:      /* External clock is used as source of SAI2 clock*/
 300:E:/LiteOS/LiteOS_Lab/drivers/third_party/ST/STM32L4xx_HAL_Driver/Src\stm32l4xx_hal_rcc_ex.c **** #if defined(STM32L4R5xx) || defined(STM32L4R7xx) || defined(STM32L4R9xx) || defined(STM32L4S5xx) ||
 301:E:/LiteOS/LiteOS_Lab/drivers/third_party/ST/STM32L4xx_HAL_Driver/Src\stm32l4xx_hal_rcc_ex.c ****     case RCC_SAI2CLKSOURCE_HSI:      /* HSI is used as source of SAI2 clock*/
 302:E:/LiteOS/LiteOS_Lab/drivers/third_party/ST/STM32L4xx_HAL_Driver/Src\stm32l4xx_hal_rcc_ex.c **** #endif /* STM32L4R5xx || STM32L4R7xx || STM32L4R9xx || STM32L4S5xx || STM32L4S7xx || STM32L4S9xx */
 303:E:/LiteOS/LiteOS_Lab/drivers/third_party/ST/STM32L4xx_HAL_Driver/Src\stm32l4xx_hal_rcc_ex.c ****       /* SAI2 clock source config set later after clock selection check */
 304:E:/LiteOS/LiteOS_Lab/drivers/third_party/ST/STM32L4xx_HAL_Driver/Src\stm32l4xx_hal_rcc_ex.c ****       break;
 305:E:/LiteOS/LiteOS_Lab/drivers/third_party/ST/STM32L4xx_HAL_Driver/Src\stm32l4xx_hal_rcc_ex.c **** 
 306:E:/LiteOS/LiteOS_Lab/drivers/third_party/ST/STM32L4xx_HAL_Driver/Src\stm32l4xx_hal_rcc_ex.c ****     default:
 307:E:/LiteOS/LiteOS_Lab/drivers/third_party/ST/STM32L4xx_HAL_Driver/Src\stm32l4xx_hal_rcc_ex.c ****       ret = HAL_ERROR;
 308:E:/LiteOS/LiteOS_Lab/drivers/third_party/ST/STM32L4xx_HAL_Driver/Src\stm32l4xx_hal_rcc_ex.c ****       break;
 309:E:/LiteOS/LiteOS_Lab/drivers/third_party/ST/STM32L4xx_HAL_Driver/Src\stm32l4xx_hal_rcc_ex.c ****     }
 310:E:/LiteOS/LiteOS_Lab/drivers/third_party/ST/STM32L4xx_HAL_Driver/Src\stm32l4xx_hal_rcc_ex.c **** 
 311:E:/LiteOS/LiteOS_Lab/drivers/third_party/ST/STM32L4xx_HAL_Driver/Src\stm32l4xx_hal_rcc_ex.c ****     if(ret == HAL_OK)
 312:E:/LiteOS/LiteOS_Lab/drivers/third_party/ST/STM32L4xx_HAL_Driver/Src\stm32l4xx_hal_rcc_ex.c ****     {
 313:E:/LiteOS/LiteOS_Lab/drivers/third_party/ST/STM32L4xx_HAL_Driver/Src\stm32l4xx_hal_rcc_ex.c ****       /* Set the source of SAI2 clock*/
 314:E:/LiteOS/LiteOS_Lab/drivers/third_party/ST/STM32L4xx_HAL_Driver/Src\stm32l4xx_hal_rcc_ex.c ****       __HAL_RCC_SAI2_CONFIG(PeriphClkInit->Sai2ClockSelection);
 315:E:/LiteOS/LiteOS_Lab/drivers/third_party/ST/STM32L4xx_HAL_Driver/Src\stm32l4xx_hal_rcc_ex.c ****     }
 316:E:/LiteOS/LiteOS_Lab/drivers/third_party/ST/STM32L4xx_HAL_Driver/Src\stm32l4xx_hal_rcc_ex.c ****     else
 317:E:/LiteOS/LiteOS_Lab/drivers/third_party/ST/STM32L4xx_HAL_Driver/Src\stm32l4xx_hal_rcc_ex.c ****     {
 318:E:/LiteOS/LiteOS_Lab/drivers/third_party/ST/STM32L4xx_HAL_Driver/Src\stm32l4xx_hal_rcc_ex.c ****       /* set overall return value */
 319:E:/LiteOS/LiteOS_Lab/drivers/third_party/ST/STM32L4xx_HAL_Driver/Src\stm32l4xx_hal_rcc_ex.c ****       status = ret;
 320:E:/LiteOS/LiteOS_Lab/drivers/third_party/ST/STM32L4xx_HAL_Driver/Src\stm32l4xx_hal_rcc_ex.c ****     }
 321:E:/LiteOS/LiteOS_Lab/drivers/third_party/ST/STM32L4xx_HAL_Driver/Src\stm32l4xx_hal_rcc_ex.c ****   }
 322:E:/LiteOS/LiteOS_Lab/drivers/third_party/ST/STM32L4xx_HAL_Driver/Src\stm32l4xx_hal_rcc_ex.c **** #endif /* SAI2 */
 323:E:/LiteOS/LiteOS_Lab/drivers/third_party/ST/STM32L4xx_HAL_Driver/Src\stm32l4xx_hal_rcc_ex.c **** 
 324:E:/LiteOS/LiteOS_Lab/drivers/third_party/ST/STM32L4xx_HAL_Driver/Src\stm32l4xx_hal_rcc_ex.c ****   /*-------------------------- RTC clock source configuration ----------------------*/
 325:E:/LiteOS/LiteOS_Lab/drivers/third_party/ST/STM32L4xx_HAL_Driver/Src\stm32l4xx_hal_rcc_ex.c ****   if((PeriphClkInit->PeriphClockSelection & RCC_PERIPHCLK_RTC) == RCC_PERIPHCLK_RTC)
 121              		.loc 1 325 0
 122 0084 7B68     		ldr	r3, [r7, #4]
 123 0086 1B68     		ldr	r3, [r3]
 124 0088 03F40033 		and	r3, r3, #131072
 125 008c 002B     		cmp	r3, #0
 126 008e 00F09880 		beq	.L9
 127              	.LBB2:
 326:E:/LiteOS/LiteOS_Lab/drivers/third_party/ST/STM32L4xx_HAL_Driver/Src\stm32l4xx_hal_rcc_ex.c ****   {
 327:E:/LiteOS/LiteOS_Lab/drivers/third_party/ST/STM32L4xx_HAL_Driver/Src\stm32l4xx_hal_rcc_ex.c ****     FlagStatus       pwrclkchanged = RESET;
 128              		.loc 1 327 0
 129 0092 0023     		movs	r3, #0
ARM GAS  C:\Users\user\AppData\Local\Temp\ccsJwa9Q.s 			page 9


 130 0094 7B74     		strb	r3, [r7, #17]
 328:E:/LiteOS/LiteOS_Lab/drivers/third_party/ST/STM32L4xx_HAL_Driver/Src\stm32l4xx_hal_rcc_ex.c **** 
 329:E:/LiteOS/LiteOS_Lab/drivers/third_party/ST/STM32L4xx_HAL_Driver/Src\stm32l4xx_hal_rcc_ex.c ****     /* Check for RTC Parameters used to output RTCCLK */
 330:E:/LiteOS/LiteOS_Lab/drivers/third_party/ST/STM32L4xx_HAL_Driver/Src\stm32l4xx_hal_rcc_ex.c ****     assert_param(IS_RCC_RTCCLKSOURCE(PeriphClkInit->RTCClockSelection));
 331:E:/LiteOS/LiteOS_Lab/drivers/third_party/ST/STM32L4xx_HAL_Driver/Src\stm32l4xx_hal_rcc_ex.c **** 
 332:E:/LiteOS/LiteOS_Lab/drivers/third_party/ST/STM32L4xx_HAL_Driver/Src\stm32l4xx_hal_rcc_ex.c ****     /* Enable Power Clock */
 333:E:/LiteOS/LiteOS_Lab/drivers/third_party/ST/STM32L4xx_HAL_Driver/Src\stm32l4xx_hal_rcc_ex.c ****     if(__HAL_RCC_PWR_IS_CLK_DISABLED())
 131              		.loc 1 333 0
 132 0096 434B     		ldr	r3, .L40
 133 0098 9B6D     		ldr	r3, [r3, #88]
 134 009a 03F08053 		and	r3, r3, #268435456
 135 009e 002B     		cmp	r3, #0
 136 00a0 0DD1     		bne	.L10
 137              	.LBB3:
 334:E:/LiteOS/LiteOS_Lab/drivers/third_party/ST/STM32L4xx_HAL_Driver/Src\stm32l4xx_hal_rcc_ex.c ****     {
 335:E:/LiteOS/LiteOS_Lab/drivers/third_party/ST/STM32L4xx_HAL_Driver/Src\stm32l4xx_hal_rcc_ex.c ****       __HAL_RCC_PWR_CLK_ENABLE();
 138              		.loc 1 335 0
 139 00a2 404B     		ldr	r3, .L40
 140 00a4 9B6D     		ldr	r3, [r3, #88]
 141 00a6 3F4A     		ldr	r2, .L40
 142 00a8 43F08053 		orr	r3, r3, #268435456
 143 00ac 9365     		str	r3, [r2, #88]
 144 00ae 3D4B     		ldr	r3, .L40
 145 00b0 9B6D     		ldr	r3, [r3, #88]
 146 00b2 03F08053 		and	r3, r3, #268435456
 147 00b6 BB60     		str	r3, [r7, #8]
 148 00b8 BB68     		ldr	r3, [r7, #8]
 149              	.LBE3:
 336:E:/LiteOS/LiteOS_Lab/drivers/third_party/ST/STM32L4xx_HAL_Driver/Src\stm32l4xx_hal_rcc_ex.c ****       pwrclkchanged = SET;
 150              		.loc 1 336 0
 151 00ba 0123     		movs	r3, #1
 152 00bc 7B74     		strb	r3, [r7, #17]
 153              	.L10:
 337:E:/LiteOS/LiteOS_Lab/drivers/third_party/ST/STM32L4xx_HAL_Driver/Src\stm32l4xx_hal_rcc_ex.c ****     }
 338:E:/LiteOS/LiteOS_Lab/drivers/third_party/ST/STM32L4xx_HAL_Driver/Src\stm32l4xx_hal_rcc_ex.c **** 
 339:E:/LiteOS/LiteOS_Lab/drivers/third_party/ST/STM32L4xx_HAL_Driver/Src\stm32l4xx_hal_rcc_ex.c ****     /* Enable write access to Backup domain */
 340:E:/LiteOS/LiteOS_Lab/drivers/third_party/ST/STM32L4xx_HAL_Driver/Src\stm32l4xx_hal_rcc_ex.c ****     SET_BIT(PWR->CR1, PWR_CR1_DBP);
 154              		.loc 1 340 0
 155 00be 3A4B     		ldr	r3, .L40+4
 156 00c0 1B68     		ldr	r3, [r3]
 157 00c2 394A     		ldr	r2, .L40+4
 158 00c4 43F48073 		orr	r3, r3, #256
 159 00c8 1360     		str	r3, [r2]
 341:E:/LiteOS/LiteOS_Lab/drivers/third_party/ST/STM32L4xx_HAL_Driver/Src\stm32l4xx_hal_rcc_ex.c **** 
 342:E:/LiteOS/LiteOS_Lab/drivers/third_party/ST/STM32L4xx_HAL_Driver/Src\stm32l4xx_hal_rcc_ex.c ****     /* Wait for Backup domain Write protection disable */
 343:E:/LiteOS/LiteOS_Lab/drivers/third_party/ST/STM32L4xx_HAL_Driver/Src\stm32l4xx_hal_rcc_ex.c ****     tickstart = HAL_GetTick();
 160              		.loc 1 343 0
 161 00ca FFF7FEFF 		bl	HAL_GetTick
 162 00ce F860     		str	r0, [r7, #12]
 344:E:/LiteOS/LiteOS_Lab/drivers/third_party/ST/STM32L4xx_HAL_Driver/Src\stm32l4xx_hal_rcc_ex.c **** 
 345:E:/LiteOS/LiteOS_Lab/drivers/third_party/ST/STM32L4xx_HAL_Driver/Src\stm32l4xx_hal_rcc_ex.c ****     while(READ_BIT(PWR->CR1, PWR_CR1_DBP) == RESET)
 163              		.loc 1 345 0
 164 00d0 09E0     		b	.L11
 165              	.L13:
 346:E:/LiteOS/LiteOS_Lab/drivers/third_party/ST/STM32L4xx_HAL_Driver/Src\stm32l4xx_hal_rcc_ex.c ****     {
 347:E:/LiteOS/LiteOS_Lab/drivers/third_party/ST/STM32L4xx_HAL_Driver/Src\stm32l4xx_hal_rcc_ex.c ****       if((HAL_GetTick() - tickstart) > RCC_DBP_TIMEOUT_VALUE)
 166              		.loc 1 347 0
ARM GAS  C:\Users\user\AppData\Local\Temp\ccsJwa9Q.s 			page 10


 167 00d2 FFF7FEFF 		bl	HAL_GetTick
 168 00d6 0246     		mov	r2, r0
 169 00d8 FB68     		ldr	r3, [r7, #12]
 170 00da D31A     		subs	r3, r2, r3
 171 00dc 022B     		cmp	r3, #2
 172 00de 02D9     		bls	.L11
 348:E:/LiteOS/LiteOS_Lab/drivers/third_party/ST/STM32L4xx_HAL_Driver/Src\stm32l4xx_hal_rcc_ex.c ****       {
 349:E:/LiteOS/LiteOS_Lab/drivers/third_party/ST/STM32L4xx_HAL_Driver/Src\stm32l4xx_hal_rcc_ex.c ****         ret = HAL_TIMEOUT;
 173              		.loc 1 349 0
 174 00e0 0323     		movs	r3, #3
 175 00e2 FB74     		strb	r3, [r7, #19]
 350:E:/LiteOS/LiteOS_Lab/drivers/third_party/ST/STM32L4xx_HAL_Driver/Src\stm32l4xx_hal_rcc_ex.c ****         break;
 176              		.loc 1 350 0
 177 00e4 05E0     		b	.L12
 178              	.L11:
 345:E:/LiteOS/LiteOS_Lab/drivers/third_party/ST/STM32L4xx_HAL_Driver/Src\stm32l4xx_hal_rcc_ex.c ****     {
 179              		.loc 1 345 0
 180 00e6 304B     		ldr	r3, .L40+4
 181 00e8 1B68     		ldr	r3, [r3]
 182 00ea 03F48073 		and	r3, r3, #256
 183 00ee 002B     		cmp	r3, #0
 184 00f0 EFD0     		beq	.L13
 185              	.L12:
 351:E:/LiteOS/LiteOS_Lab/drivers/third_party/ST/STM32L4xx_HAL_Driver/Src\stm32l4xx_hal_rcc_ex.c ****       }
 352:E:/LiteOS/LiteOS_Lab/drivers/third_party/ST/STM32L4xx_HAL_Driver/Src\stm32l4xx_hal_rcc_ex.c ****     }
 353:E:/LiteOS/LiteOS_Lab/drivers/third_party/ST/STM32L4xx_HAL_Driver/Src\stm32l4xx_hal_rcc_ex.c **** 
 354:E:/LiteOS/LiteOS_Lab/drivers/third_party/ST/STM32L4xx_HAL_Driver/Src\stm32l4xx_hal_rcc_ex.c ****     if(ret == HAL_OK)
 186              		.loc 1 354 0
 187 00f2 FB7C     		ldrb	r3, [r7, #19]	@ zero_extendqisi2
 188 00f4 002B     		cmp	r3, #0
 189 00f6 59D1     		bne	.L14
 355:E:/LiteOS/LiteOS_Lab/drivers/third_party/ST/STM32L4xx_HAL_Driver/Src\stm32l4xx_hal_rcc_ex.c ****     {
 356:E:/LiteOS/LiteOS_Lab/drivers/third_party/ST/STM32L4xx_HAL_Driver/Src\stm32l4xx_hal_rcc_ex.c ****       /* Reset the Backup domain only if the RTC Clock source selection is modified from default */
 357:E:/LiteOS/LiteOS_Lab/drivers/third_party/ST/STM32L4xx_HAL_Driver/Src\stm32l4xx_hal_rcc_ex.c ****       tmpregister = READ_BIT(RCC->BDCR, RCC_BDCR_RTCSEL);
 190              		.loc 1 357 0
 191 00f8 2A4B     		ldr	r3, .L40
 192 00fa D3F89030 		ldr	r3, [r3, #144]
 193 00fe 03F44073 		and	r3, r3, #768
 194 0102 7B61     		str	r3, [r7, #20]
 358:E:/LiteOS/LiteOS_Lab/drivers/third_party/ST/STM32L4xx_HAL_Driver/Src\stm32l4xx_hal_rcc_ex.c **** 
 359:E:/LiteOS/LiteOS_Lab/drivers/third_party/ST/STM32L4xx_HAL_Driver/Src\stm32l4xx_hal_rcc_ex.c ****       if((tmpregister != RCC_RTCCLKSOURCE_NONE) && (tmpregister != PeriphClkInit->RTCClockSelection
 195              		.loc 1 359 0
 196 0104 7B69     		ldr	r3, [r7, #20]
 197 0106 002B     		cmp	r3, #0
 198 0108 1ED0     		beq	.L15
 199              		.loc 1 359 0 is_stmt 0 discriminator 1
 200 010a 7B68     		ldr	r3, [r7, #4]
 201 010c 9B6D     		ldr	r3, [r3, #88]
 202 010e 7A69     		ldr	r2, [r7, #20]
 203 0110 9A42     		cmp	r2, r3
 204 0112 19D0     		beq	.L15
 360:E:/LiteOS/LiteOS_Lab/drivers/third_party/ST/STM32L4xx_HAL_Driver/Src\stm32l4xx_hal_rcc_ex.c ****       {
 361:E:/LiteOS/LiteOS_Lab/drivers/third_party/ST/STM32L4xx_HAL_Driver/Src\stm32l4xx_hal_rcc_ex.c ****         /* Store the content of BDCR register before the reset of Backup Domain */
 362:E:/LiteOS/LiteOS_Lab/drivers/third_party/ST/STM32L4xx_HAL_Driver/Src\stm32l4xx_hal_rcc_ex.c ****         tmpregister = READ_BIT(RCC->BDCR, ~(RCC_BDCR_RTCSEL));
 205              		.loc 1 362 0 is_stmt 1
 206 0114 234B     		ldr	r3, .L40
 207 0116 D3F89030 		ldr	r3, [r3, #144]
ARM GAS  C:\Users\user\AppData\Local\Temp\ccsJwa9Q.s 			page 11


 208 011a 23F44073 		bic	r3, r3, #768
 209 011e 7B61     		str	r3, [r7, #20]
 363:E:/LiteOS/LiteOS_Lab/drivers/third_party/ST/STM32L4xx_HAL_Driver/Src\stm32l4xx_hal_rcc_ex.c ****         /* RTC Clock selection can be changed only if the Backup Domain is reset */
 364:E:/LiteOS/LiteOS_Lab/drivers/third_party/ST/STM32L4xx_HAL_Driver/Src\stm32l4xx_hal_rcc_ex.c ****         __HAL_RCC_BACKUPRESET_FORCE();
 210              		.loc 1 364 0
 211 0120 204B     		ldr	r3, .L40
 212 0122 D3F89030 		ldr	r3, [r3, #144]
 213 0126 1F4A     		ldr	r2, .L40
 214 0128 43F48033 		orr	r3, r3, #65536
 215 012c C2F89030 		str	r3, [r2, #144]
 365:E:/LiteOS/LiteOS_Lab/drivers/third_party/ST/STM32L4xx_HAL_Driver/Src\stm32l4xx_hal_rcc_ex.c ****         __HAL_RCC_BACKUPRESET_RELEASE();
 216              		.loc 1 365 0
 217 0130 1C4B     		ldr	r3, .L40
 218 0132 D3F89030 		ldr	r3, [r3, #144]
 219 0136 1B4A     		ldr	r2, .L40
 220 0138 23F48033 		bic	r3, r3, #65536
 221 013c C2F89030 		str	r3, [r2, #144]
 366:E:/LiteOS/LiteOS_Lab/drivers/third_party/ST/STM32L4xx_HAL_Driver/Src\stm32l4xx_hal_rcc_ex.c ****         /* Restore the Content of BDCR register */
 367:E:/LiteOS/LiteOS_Lab/drivers/third_party/ST/STM32L4xx_HAL_Driver/Src\stm32l4xx_hal_rcc_ex.c ****         RCC->BDCR = tmpregister;
 222              		.loc 1 367 0
 223 0140 184A     		ldr	r2, .L40
 224 0142 7B69     		ldr	r3, [r7, #20]
 225 0144 C2F89030 		str	r3, [r2, #144]
 226              	.L15:
 368:E:/LiteOS/LiteOS_Lab/drivers/third_party/ST/STM32L4xx_HAL_Driver/Src\stm32l4xx_hal_rcc_ex.c ****       }
 369:E:/LiteOS/LiteOS_Lab/drivers/third_party/ST/STM32L4xx_HAL_Driver/Src\stm32l4xx_hal_rcc_ex.c **** 
 370:E:/LiteOS/LiteOS_Lab/drivers/third_party/ST/STM32L4xx_HAL_Driver/Src\stm32l4xx_hal_rcc_ex.c ****       /* Wait for LSE reactivation if LSE was enable prior to Backup Domain reset */
 371:E:/LiteOS/LiteOS_Lab/drivers/third_party/ST/STM32L4xx_HAL_Driver/Src\stm32l4xx_hal_rcc_ex.c ****       if (HAL_IS_BIT_SET(tmpregister, RCC_BDCR_LSEON))
 227              		.loc 1 371 0
 228 0148 7B69     		ldr	r3, [r7, #20]
 229 014a 03F00103 		and	r3, r3, #1
 230 014e 002B     		cmp	r3, #0
 231 0150 16D0     		beq	.L16
 372:E:/LiteOS/LiteOS_Lab/drivers/third_party/ST/STM32L4xx_HAL_Driver/Src\stm32l4xx_hal_rcc_ex.c ****       {
 373:E:/LiteOS/LiteOS_Lab/drivers/third_party/ST/STM32L4xx_HAL_Driver/Src\stm32l4xx_hal_rcc_ex.c ****         /* Get Start Tick*/
 374:E:/LiteOS/LiteOS_Lab/drivers/third_party/ST/STM32L4xx_HAL_Driver/Src\stm32l4xx_hal_rcc_ex.c ****         tickstart = HAL_GetTick();
 232              		.loc 1 374 0
 233 0152 FFF7FEFF 		bl	HAL_GetTick
 234 0156 F860     		str	r0, [r7, #12]
 375:E:/LiteOS/LiteOS_Lab/drivers/third_party/ST/STM32L4xx_HAL_Driver/Src\stm32l4xx_hal_rcc_ex.c **** 
 376:E:/LiteOS/LiteOS_Lab/drivers/third_party/ST/STM32L4xx_HAL_Driver/Src\stm32l4xx_hal_rcc_ex.c ****         /* Wait till LSE is ready */
 377:E:/LiteOS/LiteOS_Lab/drivers/third_party/ST/STM32L4xx_HAL_Driver/Src\stm32l4xx_hal_rcc_ex.c ****         while(READ_BIT(RCC->BDCR, RCC_BDCR_LSERDY) == RESET)
 235              		.loc 1 377 0
 236 0158 0BE0     		b	.L17
 237              	.L18:
 378:E:/LiteOS/LiteOS_Lab/drivers/third_party/ST/STM32L4xx_HAL_Driver/Src\stm32l4xx_hal_rcc_ex.c ****         {
 379:E:/LiteOS/LiteOS_Lab/drivers/third_party/ST/STM32L4xx_HAL_Driver/Src\stm32l4xx_hal_rcc_ex.c ****           if((HAL_GetTick() - tickstart) > RCC_LSE_TIMEOUT_VALUE)
 238              		.loc 1 379 0
 239 015a FFF7FEFF 		bl	HAL_GetTick
 240 015e 0246     		mov	r2, r0
 241 0160 FB68     		ldr	r3, [r7, #12]
 242 0162 D31A     		subs	r3, r2, r3
 243 0164 41F28832 		movw	r2, #5000
 244 0168 9342     		cmp	r3, r2
 245 016a 02D9     		bls	.L17
 380:E:/LiteOS/LiteOS_Lab/drivers/third_party/ST/STM32L4xx_HAL_Driver/Src\stm32l4xx_hal_rcc_ex.c ****           {
 381:E:/LiteOS/LiteOS_Lab/drivers/third_party/ST/STM32L4xx_HAL_Driver/Src\stm32l4xx_hal_rcc_ex.c ****             ret = HAL_TIMEOUT;
ARM GAS  C:\Users\user\AppData\Local\Temp\ccsJwa9Q.s 			page 12


 246              		.loc 1 381 0
 247 016c 0323     		movs	r3, #3
 248 016e FB74     		strb	r3, [r7, #19]
 382:E:/LiteOS/LiteOS_Lab/drivers/third_party/ST/STM32L4xx_HAL_Driver/Src\stm32l4xx_hal_rcc_ex.c ****             break;
 249              		.loc 1 382 0
 250 0170 06E0     		b	.L16
 251              	.L17:
 377:E:/LiteOS/LiteOS_Lab/drivers/third_party/ST/STM32L4xx_HAL_Driver/Src\stm32l4xx_hal_rcc_ex.c ****         {
 252              		.loc 1 377 0
 253 0172 0C4B     		ldr	r3, .L40
 254 0174 D3F89030 		ldr	r3, [r3, #144]
 255 0178 03F00203 		and	r3, r3, #2
 256 017c 002B     		cmp	r3, #0
 257 017e ECD0     		beq	.L18
 258              	.L16:
 383:E:/LiteOS/LiteOS_Lab/drivers/third_party/ST/STM32L4xx_HAL_Driver/Src\stm32l4xx_hal_rcc_ex.c ****           }
 384:E:/LiteOS/LiteOS_Lab/drivers/third_party/ST/STM32L4xx_HAL_Driver/Src\stm32l4xx_hal_rcc_ex.c ****         }
 385:E:/LiteOS/LiteOS_Lab/drivers/third_party/ST/STM32L4xx_HAL_Driver/Src\stm32l4xx_hal_rcc_ex.c ****       }
 386:E:/LiteOS/LiteOS_Lab/drivers/third_party/ST/STM32L4xx_HAL_Driver/Src\stm32l4xx_hal_rcc_ex.c **** 
 387:E:/LiteOS/LiteOS_Lab/drivers/third_party/ST/STM32L4xx_HAL_Driver/Src\stm32l4xx_hal_rcc_ex.c ****       if(ret == HAL_OK)
 259              		.loc 1 387 0
 260 0180 FB7C     		ldrb	r3, [r7, #19]	@ zero_extendqisi2
 261 0182 002B     		cmp	r3, #0
 262 0184 0BD1     		bne	.L19
 388:E:/LiteOS/LiteOS_Lab/drivers/third_party/ST/STM32L4xx_HAL_Driver/Src\stm32l4xx_hal_rcc_ex.c ****       {
 389:E:/LiteOS/LiteOS_Lab/drivers/third_party/ST/STM32L4xx_HAL_Driver/Src\stm32l4xx_hal_rcc_ex.c ****         /* Apply new RTC clock source selection */
 390:E:/LiteOS/LiteOS_Lab/drivers/third_party/ST/STM32L4xx_HAL_Driver/Src\stm32l4xx_hal_rcc_ex.c ****         __HAL_RCC_RTC_CONFIG(PeriphClkInit->RTCClockSelection);
 263              		.loc 1 390 0
 264 0186 074B     		ldr	r3, .L40
 265 0188 D3F89030 		ldr	r3, [r3, #144]
 266 018c 23F44072 		bic	r2, r3, #768
 267 0190 7B68     		ldr	r3, [r7, #4]
 268 0192 9B6D     		ldr	r3, [r3, #88]
 269 0194 0349     		ldr	r1, .L40
 270 0196 1343     		orrs	r3, r3, r2
 271 0198 C1F89030 		str	r3, [r1, #144]
 272 019c 08E0     		b	.L21
 273              	.L19:
 391:E:/LiteOS/LiteOS_Lab/drivers/third_party/ST/STM32L4xx_HAL_Driver/Src\stm32l4xx_hal_rcc_ex.c ****       }
 392:E:/LiteOS/LiteOS_Lab/drivers/third_party/ST/STM32L4xx_HAL_Driver/Src\stm32l4xx_hal_rcc_ex.c ****       else
 393:E:/LiteOS/LiteOS_Lab/drivers/third_party/ST/STM32L4xx_HAL_Driver/Src\stm32l4xx_hal_rcc_ex.c ****       {
 394:E:/LiteOS/LiteOS_Lab/drivers/third_party/ST/STM32L4xx_HAL_Driver/Src\stm32l4xx_hal_rcc_ex.c ****         /* set overall return value */
 395:E:/LiteOS/LiteOS_Lab/drivers/third_party/ST/STM32L4xx_HAL_Driver/Src\stm32l4xx_hal_rcc_ex.c ****         status = ret;
 274              		.loc 1 395 0
 275 019e FB7C     		ldrb	r3, [r7, #19]
 276 01a0 BB74     		strb	r3, [r7, #18]
 277 01a2 05E0     		b	.L21
 278              	.L41:
 279              		.align	2
 280              	.L40:
 281 01a4 00100240 		.word	1073876992
 282 01a8 00700040 		.word	1073770496
 283              	.L14:
 396:E:/LiteOS/LiteOS_Lab/drivers/third_party/ST/STM32L4xx_HAL_Driver/Src\stm32l4xx_hal_rcc_ex.c ****       }
 397:E:/LiteOS/LiteOS_Lab/drivers/third_party/ST/STM32L4xx_HAL_Driver/Src\stm32l4xx_hal_rcc_ex.c ****     }
 398:E:/LiteOS/LiteOS_Lab/drivers/third_party/ST/STM32L4xx_HAL_Driver/Src\stm32l4xx_hal_rcc_ex.c ****     else
 399:E:/LiteOS/LiteOS_Lab/drivers/third_party/ST/STM32L4xx_HAL_Driver/Src\stm32l4xx_hal_rcc_ex.c ****     {
ARM GAS  C:\Users\user\AppData\Local\Temp\ccsJwa9Q.s 			page 13


 400:E:/LiteOS/LiteOS_Lab/drivers/third_party/ST/STM32L4xx_HAL_Driver/Src\stm32l4xx_hal_rcc_ex.c ****       /* set overall return value */
 401:E:/LiteOS/LiteOS_Lab/drivers/third_party/ST/STM32L4xx_HAL_Driver/Src\stm32l4xx_hal_rcc_ex.c ****       status = ret;
 284              		.loc 1 401 0
 285 01ac FB7C     		ldrb	r3, [r7, #19]
 286 01ae BB74     		strb	r3, [r7, #18]
 287              	.L21:
 402:E:/LiteOS/LiteOS_Lab/drivers/third_party/ST/STM32L4xx_HAL_Driver/Src\stm32l4xx_hal_rcc_ex.c ****     }
 403:E:/LiteOS/LiteOS_Lab/drivers/third_party/ST/STM32L4xx_HAL_Driver/Src\stm32l4xx_hal_rcc_ex.c **** 
 404:E:/LiteOS/LiteOS_Lab/drivers/third_party/ST/STM32L4xx_HAL_Driver/Src\stm32l4xx_hal_rcc_ex.c ****     /* Restore clock configuration if changed */
 405:E:/LiteOS/LiteOS_Lab/drivers/third_party/ST/STM32L4xx_HAL_Driver/Src\stm32l4xx_hal_rcc_ex.c ****     if(pwrclkchanged == SET)
 288              		.loc 1 405 0
 289 01b0 7B7C     		ldrb	r3, [r7, #17]	@ zero_extendqisi2
 290 01b2 012B     		cmp	r3, #1
 291 01b4 05D1     		bne	.L9
 406:E:/LiteOS/LiteOS_Lab/drivers/third_party/ST/STM32L4xx_HAL_Driver/Src\stm32l4xx_hal_rcc_ex.c ****     {
 407:E:/LiteOS/LiteOS_Lab/drivers/third_party/ST/STM32L4xx_HAL_Driver/Src\stm32l4xx_hal_rcc_ex.c ****       __HAL_RCC_PWR_CLK_DISABLE();
 292              		.loc 1 407 0
 293 01b6 9B4B     		ldr	r3, .L42
 294 01b8 9B6D     		ldr	r3, [r3, #88]
 295 01ba 9A4A     		ldr	r2, .L42
 296 01bc 23F08053 		bic	r3, r3, #268435456
 297 01c0 9365     		str	r3, [r2, #88]
 298              	.L9:
 299              	.LBE2:
 408:E:/LiteOS/LiteOS_Lab/drivers/third_party/ST/STM32L4xx_HAL_Driver/Src\stm32l4xx_hal_rcc_ex.c ****     }
 409:E:/LiteOS/LiteOS_Lab/drivers/third_party/ST/STM32L4xx_HAL_Driver/Src\stm32l4xx_hal_rcc_ex.c ****   }
 410:E:/LiteOS/LiteOS_Lab/drivers/third_party/ST/STM32L4xx_HAL_Driver/Src\stm32l4xx_hal_rcc_ex.c **** 
 411:E:/LiteOS/LiteOS_Lab/drivers/third_party/ST/STM32L4xx_HAL_Driver/Src\stm32l4xx_hal_rcc_ex.c ****   /*-------------------------- USART1 clock source configuration -------------------*/
 412:E:/LiteOS/LiteOS_Lab/drivers/third_party/ST/STM32L4xx_HAL_Driver/Src\stm32l4xx_hal_rcc_ex.c ****   if(((PeriphClkInit->PeriphClockSelection) & RCC_PERIPHCLK_USART1) == RCC_PERIPHCLK_USART1)
 300              		.loc 1 412 0
 301 01c2 7B68     		ldr	r3, [r7, #4]
 302 01c4 1B68     		ldr	r3, [r3]
 303 01c6 03F00103 		and	r3, r3, #1
 304 01ca 002B     		cmp	r3, #0
 305 01cc 0AD0     		beq	.L22
 413:E:/LiteOS/LiteOS_Lab/drivers/third_party/ST/STM32L4xx_HAL_Driver/Src\stm32l4xx_hal_rcc_ex.c ****   {
 414:E:/LiteOS/LiteOS_Lab/drivers/third_party/ST/STM32L4xx_HAL_Driver/Src\stm32l4xx_hal_rcc_ex.c ****     /* Check the parameters */
 415:E:/LiteOS/LiteOS_Lab/drivers/third_party/ST/STM32L4xx_HAL_Driver/Src\stm32l4xx_hal_rcc_ex.c ****     assert_param(IS_RCC_USART1CLKSOURCE(PeriphClkInit->Usart1ClockSelection));
 416:E:/LiteOS/LiteOS_Lab/drivers/third_party/ST/STM32L4xx_HAL_Driver/Src\stm32l4xx_hal_rcc_ex.c **** 
 417:E:/LiteOS/LiteOS_Lab/drivers/third_party/ST/STM32L4xx_HAL_Driver/Src\stm32l4xx_hal_rcc_ex.c ****     /* Configure the USART1 clock source */
 418:E:/LiteOS/LiteOS_Lab/drivers/third_party/ST/STM32L4xx_HAL_Driver/Src\stm32l4xx_hal_rcc_ex.c ****     __HAL_RCC_USART1_CONFIG(PeriphClkInit->Usart1ClockSelection);
 306              		.loc 1 418 0
 307 01ce 954B     		ldr	r3, .L42
 308 01d0 D3F88830 		ldr	r3, [r3, #136]
 309 01d4 23F00302 		bic	r2, r3, #3
 310 01d8 7B68     		ldr	r3, [r7, #4]
 311 01da 1B6A     		ldr	r3, [r3, #32]
 312 01dc 9149     		ldr	r1, .L42
 313 01de 1343     		orrs	r3, r3, r2
 314 01e0 C1F88830 		str	r3, [r1, #136]
 315              	.L22:
 419:E:/LiteOS/LiteOS_Lab/drivers/third_party/ST/STM32L4xx_HAL_Driver/Src\stm32l4xx_hal_rcc_ex.c ****   }
 420:E:/LiteOS/LiteOS_Lab/drivers/third_party/ST/STM32L4xx_HAL_Driver/Src\stm32l4xx_hal_rcc_ex.c **** 
 421:E:/LiteOS/LiteOS_Lab/drivers/third_party/ST/STM32L4xx_HAL_Driver/Src\stm32l4xx_hal_rcc_ex.c ****   /*-------------------------- USART2 clock source configuration -------------------*/
 422:E:/LiteOS/LiteOS_Lab/drivers/third_party/ST/STM32L4xx_HAL_Driver/Src\stm32l4xx_hal_rcc_ex.c ****   if(((PeriphClkInit->PeriphClockSelection) & RCC_PERIPHCLK_USART2) == RCC_PERIPHCLK_USART2)
 316              		.loc 1 422 0
 317 01e4 7B68     		ldr	r3, [r7, #4]
ARM GAS  C:\Users\user\AppData\Local\Temp\ccsJwa9Q.s 			page 14


 318 01e6 1B68     		ldr	r3, [r3]
 319 01e8 03F00203 		and	r3, r3, #2
 320 01ec 002B     		cmp	r3, #0
 321 01ee 0AD0     		beq	.L23
 423:E:/LiteOS/LiteOS_Lab/drivers/third_party/ST/STM32L4xx_HAL_Driver/Src\stm32l4xx_hal_rcc_ex.c ****   {
 424:E:/LiteOS/LiteOS_Lab/drivers/third_party/ST/STM32L4xx_HAL_Driver/Src\stm32l4xx_hal_rcc_ex.c ****     /* Check the parameters */
 425:E:/LiteOS/LiteOS_Lab/drivers/third_party/ST/STM32L4xx_HAL_Driver/Src\stm32l4xx_hal_rcc_ex.c ****     assert_param(IS_RCC_USART2CLKSOURCE(PeriphClkInit->Usart2ClockSelection));
 426:E:/LiteOS/LiteOS_Lab/drivers/third_party/ST/STM32L4xx_HAL_Driver/Src\stm32l4xx_hal_rcc_ex.c **** 
 427:E:/LiteOS/LiteOS_Lab/drivers/third_party/ST/STM32L4xx_HAL_Driver/Src\stm32l4xx_hal_rcc_ex.c ****     /* Configure the USART2 clock source */
 428:E:/LiteOS/LiteOS_Lab/drivers/third_party/ST/STM32L4xx_HAL_Driver/Src\stm32l4xx_hal_rcc_ex.c ****     __HAL_RCC_USART2_CONFIG(PeriphClkInit->Usart2ClockSelection);
 322              		.loc 1 428 0
 323 01f0 8C4B     		ldr	r3, .L42
 324 01f2 D3F88830 		ldr	r3, [r3, #136]
 325 01f6 23F00C02 		bic	r2, r3, #12
 326 01fa 7B68     		ldr	r3, [r7, #4]
 327 01fc 5B6A     		ldr	r3, [r3, #36]
 328 01fe 8949     		ldr	r1, .L42
 329 0200 1343     		orrs	r3, r3, r2
 330 0202 C1F88830 		str	r3, [r1, #136]
 331              	.L23:
 429:E:/LiteOS/LiteOS_Lab/drivers/third_party/ST/STM32L4xx_HAL_Driver/Src\stm32l4xx_hal_rcc_ex.c ****   }
 430:E:/LiteOS/LiteOS_Lab/drivers/third_party/ST/STM32L4xx_HAL_Driver/Src\stm32l4xx_hal_rcc_ex.c **** 
 431:E:/LiteOS/LiteOS_Lab/drivers/third_party/ST/STM32L4xx_HAL_Driver/Src\stm32l4xx_hal_rcc_ex.c **** #if defined(USART3)
 432:E:/LiteOS/LiteOS_Lab/drivers/third_party/ST/STM32L4xx_HAL_Driver/Src\stm32l4xx_hal_rcc_ex.c **** 
 433:E:/LiteOS/LiteOS_Lab/drivers/third_party/ST/STM32L4xx_HAL_Driver/Src\stm32l4xx_hal_rcc_ex.c ****   /*-------------------------- USART3 clock source configuration -------------------*/
 434:E:/LiteOS/LiteOS_Lab/drivers/third_party/ST/STM32L4xx_HAL_Driver/Src\stm32l4xx_hal_rcc_ex.c ****   if(((PeriphClkInit->PeriphClockSelection) & RCC_PERIPHCLK_USART3) == RCC_PERIPHCLK_USART3)
 332              		.loc 1 434 0
 333 0206 7B68     		ldr	r3, [r7, #4]
 334 0208 1B68     		ldr	r3, [r3]
 335 020a 03F00403 		and	r3, r3, #4
 336 020e 002B     		cmp	r3, #0
 337 0210 0AD0     		beq	.L24
 435:E:/LiteOS/LiteOS_Lab/drivers/third_party/ST/STM32L4xx_HAL_Driver/Src\stm32l4xx_hal_rcc_ex.c ****   {
 436:E:/LiteOS/LiteOS_Lab/drivers/third_party/ST/STM32L4xx_HAL_Driver/Src\stm32l4xx_hal_rcc_ex.c ****     /* Check the parameters */
 437:E:/LiteOS/LiteOS_Lab/drivers/third_party/ST/STM32L4xx_HAL_Driver/Src\stm32l4xx_hal_rcc_ex.c ****     assert_param(IS_RCC_USART3CLKSOURCE(PeriphClkInit->Usart3ClockSelection));
 438:E:/LiteOS/LiteOS_Lab/drivers/third_party/ST/STM32L4xx_HAL_Driver/Src\stm32l4xx_hal_rcc_ex.c **** 
 439:E:/LiteOS/LiteOS_Lab/drivers/third_party/ST/STM32L4xx_HAL_Driver/Src\stm32l4xx_hal_rcc_ex.c ****     /* Configure the USART3 clock source */
 440:E:/LiteOS/LiteOS_Lab/drivers/third_party/ST/STM32L4xx_HAL_Driver/Src\stm32l4xx_hal_rcc_ex.c ****     __HAL_RCC_USART3_CONFIG(PeriphClkInit->Usart3ClockSelection);
 338              		.loc 1 440 0
 339 0212 844B     		ldr	r3, .L42
 340 0214 D3F88830 		ldr	r3, [r3, #136]
 341 0218 23F03002 		bic	r2, r3, #48
 342 021c 7B68     		ldr	r3, [r7, #4]
 343 021e 9B6A     		ldr	r3, [r3, #40]
 344 0220 8049     		ldr	r1, .L42
 345 0222 1343     		orrs	r3, r3, r2
 346 0224 C1F88830 		str	r3, [r1, #136]
 347              	.L24:
 441:E:/LiteOS/LiteOS_Lab/drivers/third_party/ST/STM32L4xx_HAL_Driver/Src\stm32l4xx_hal_rcc_ex.c ****   }
 442:E:/LiteOS/LiteOS_Lab/drivers/third_party/ST/STM32L4xx_HAL_Driver/Src\stm32l4xx_hal_rcc_ex.c **** 
 443:E:/LiteOS/LiteOS_Lab/drivers/third_party/ST/STM32L4xx_HAL_Driver/Src\stm32l4xx_hal_rcc_ex.c **** #endif /* USART3 */
 444:E:/LiteOS/LiteOS_Lab/drivers/third_party/ST/STM32L4xx_HAL_Driver/Src\stm32l4xx_hal_rcc_ex.c **** 
 445:E:/LiteOS/LiteOS_Lab/drivers/third_party/ST/STM32L4xx_HAL_Driver/Src\stm32l4xx_hal_rcc_ex.c **** #if defined(UART4)
 446:E:/LiteOS/LiteOS_Lab/drivers/third_party/ST/STM32L4xx_HAL_Driver/Src\stm32l4xx_hal_rcc_ex.c **** 
 447:E:/LiteOS/LiteOS_Lab/drivers/third_party/ST/STM32L4xx_HAL_Driver/Src\stm32l4xx_hal_rcc_ex.c ****   /*-------------------------- UART4 clock source configuration --------------------*/
 448:E:/LiteOS/LiteOS_Lab/drivers/third_party/ST/STM32L4xx_HAL_Driver/Src\stm32l4xx_hal_rcc_ex.c ****   if(((PeriphClkInit->PeriphClockSelection) & RCC_PERIPHCLK_UART4) == RCC_PERIPHCLK_UART4)
 449:E:/LiteOS/LiteOS_Lab/drivers/third_party/ST/STM32L4xx_HAL_Driver/Src\stm32l4xx_hal_rcc_ex.c ****   {
ARM GAS  C:\Users\user\AppData\Local\Temp\ccsJwa9Q.s 			page 15


 450:E:/LiteOS/LiteOS_Lab/drivers/third_party/ST/STM32L4xx_HAL_Driver/Src\stm32l4xx_hal_rcc_ex.c ****     /* Check the parameters */
 451:E:/LiteOS/LiteOS_Lab/drivers/third_party/ST/STM32L4xx_HAL_Driver/Src\stm32l4xx_hal_rcc_ex.c ****     assert_param(IS_RCC_UART4CLKSOURCE(PeriphClkInit->Uart4ClockSelection));
 452:E:/LiteOS/LiteOS_Lab/drivers/third_party/ST/STM32L4xx_HAL_Driver/Src\stm32l4xx_hal_rcc_ex.c **** 
 453:E:/LiteOS/LiteOS_Lab/drivers/third_party/ST/STM32L4xx_HAL_Driver/Src\stm32l4xx_hal_rcc_ex.c ****     /* Configure the UART4 clock source */
 454:E:/LiteOS/LiteOS_Lab/drivers/third_party/ST/STM32L4xx_HAL_Driver/Src\stm32l4xx_hal_rcc_ex.c ****     __HAL_RCC_UART4_CONFIG(PeriphClkInit->Uart4ClockSelection);
 455:E:/LiteOS/LiteOS_Lab/drivers/third_party/ST/STM32L4xx_HAL_Driver/Src\stm32l4xx_hal_rcc_ex.c ****   }
 456:E:/LiteOS/LiteOS_Lab/drivers/third_party/ST/STM32L4xx_HAL_Driver/Src\stm32l4xx_hal_rcc_ex.c **** 
 457:E:/LiteOS/LiteOS_Lab/drivers/third_party/ST/STM32L4xx_HAL_Driver/Src\stm32l4xx_hal_rcc_ex.c **** #endif /* UART4 */
 458:E:/LiteOS/LiteOS_Lab/drivers/third_party/ST/STM32L4xx_HAL_Driver/Src\stm32l4xx_hal_rcc_ex.c **** 
 459:E:/LiteOS/LiteOS_Lab/drivers/third_party/ST/STM32L4xx_HAL_Driver/Src\stm32l4xx_hal_rcc_ex.c **** #if defined(UART5)
 460:E:/LiteOS/LiteOS_Lab/drivers/third_party/ST/STM32L4xx_HAL_Driver/Src\stm32l4xx_hal_rcc_ex.c **** 
 461:E:/LiteOS/LiteOS_Lab/drivers/third_party/ST/STM32L4xx_HAL_Driver/Src\stm32l4xx_hal_rcc_ex.c ****   /*-------------------------- UART5 clock source configuration --------------------*/
 462:E:/LiteOS/LiteOS_Lab/drivers/third_party/ST/STM32L4xx_HAL_Driver/Src\stm32l4xx_hal_rcc_ex.c ****   if(((PeriphClkInit->PeriphClockSelection) & RCC_PERIPHCLK_UART5) == RCC_PERIPHCLK_UART5)
 463:E:/LiteOS/LiteOS_Lab/drivers/third_party/ST/STM32L4xx_HAL_Driver/Src\stm32l4xx_hal_rcc_ex.c ****   {
 464:E:/LiteOS/LiteOS_Lab/drivers/third_party/ST/STM32L4xx_HAL_Driver/Src\stm32l4xx_hal_rcc_ex.c ****     /* Check the parameters */
 465:E:/LiteOS/LiteOS_Lab/drivers/third_party/ST/STM32L4xx_HAL_Driver/Src\stm32l4xx_hal_rcc_ex.c ****     assert_param(IS_RCC_UART5CLKSOURCE(PeriphClkInit->Uart5ClockSelection));
 466:E:/LiteOS/LiteOS_Lab/drivers/third_party/ST/STM32L4xx_HAL_Driver/Src\stm32l4xx_hal_rcc_ex.c **** 
 467:E:/LiteOS/LiteOS_Lab/drivers/third_party/ST/STM32L4xx_HAL_Driver/Src\stm32l4xx_hal_rcc_ex.c ****     /* Configure the UART5 clock source */
 468:E:/LiteOS/LiteOS_Lab/drivers/third_party/ST/STM32L4xx_HAL_Driver/Src\stm32l4xx_hal_rcc_ex.c ****     __HAL_RCC_UART5_CONFIG(PeriphClkInit->Uart5ClockSelection);
 469:E:/LiteOS/LiteOS_Lab/drivers/third_party/ST/STM32L4xx_HAL_Driver/Src\stm32l4xx_hal_rcc_ex.c ****   }
 470:E:/LiteOS/LiteOS_Lab/drivers/third_party/ST/STM32L4xx_HAL_Driver/Src\stm32l4xx_hal_rcc_ex.c **** 
 471:E:/LiteOS/LiteOS_Lab/drivers/third_party/ST/STM32L4xx_HAL_Driver/Src\stm32l4xx_hal_rcc_ex.c **** #endif /* UART5 */
 472:E:/LiteOS/LiteOS_Lab/drivers/third_party/ST/STM32L4xx_HAL_Driver/Src\stm32l4xx_hal_rcc_ex.c **** 
 473:E:/LiteOS/LiteOS_Lab/drivers/third_party/ST/STM32L4xx_HAL_Driver/Src\stm32l4xx_hal_rcc_ex.c ****   /*-------------------------- LPUART1 clock source configuration ------------------*/
 474:E:/LiteOS/LiteOS_Lab/drivers/third_party/ST/STM32L4xx_HAL_Driver/Src\stm32l4xx_hal_rcc_ex.c ****   if(((PeriphClkInit->PeriphClockSelection) & RCC_PERIPHCLK_LPUART1) == RCC_PERIPHCLK_LPUART1)
 348              		.loc 1 474 0
 349 0228 7B68     		ldr	r3, [r7, #4]
 350 022a 1B68     		ldr	r3, [r3]
 351 022c 03F02003 		and	r3, r3, #32
 352 0230 002B     		cmp	r3, #0
 353 0232 0AD0     		beq	.L25
 475:E:/LiteOS/LiteOS_Lab/drivers/third_party/ST/STM32L4xx_HAL_Driver/Src\stm32l4xx_hal_rcc_ex.c ****   {
 476:E:/LiteOS/LiteOS_Lab/drivers/third_party/ST/STM32L4xx_HAL_Driver/Src\stm32l4xx_hal_rcc_ex.c ****     /* Check the parameters */
 477:E:/LiteOS/LiteOS_Lab/drivers/third_party/ST/STM32L4xx_HAL_Driver/Src\stm32l4xx_hal_rcc_ex.c ****     assert_param(IS_RCC_LPUART1CLKSOURCE(PeriphClkInit->Lpuart1ClockSelection));
 478:E:/LiteOS/LiteOS_Lab/drivers/third_party/ST/STM32L4xx_HAL_Driver/Src\stm32l4xx_hal_rcc_ex.c **** 
 479:E:/LiteOS/LiteOS_Lab/drivers/third_party/ST/STM32L4xx_HAL_Driver/Src\stm32l4xx_hal_rcc_ex.c ****     /* Configure the LPUAR1 clock source */
 480:E:/LiteOS/LiteOS_Lab/drivers/third_party/ST/STM32L4xx_HAL_Driver/Src\stm32l4xx_hal_rcc_ex.c ****     __HAL_RCC_LPUART1_CONFIG(PeriphClkInit->Lpuart1ClockSelection);
 354              		.loc 1 480 0
 355 0234 7B4B     		ldr	r3, .L42
 356 0236 D3F88830 		ldr	r3, [r3, #136]
 357 023a 23F44062 		bic	r2, r3, #3072
 358 023e 7B68     		ldr	r3, [r7, #4]
 359 0240 DB6A     		ldr	r3, [r3, #44]
 360 0242 7849     		ldr	r1, .L42
 361 0244 1343     		orrs	r3, r3, r2
 362 0246 C1F88830 		str	r3, [r1, #136]
 363              	.L25:
 481:E:/LiteOS/LiteOS_Lab/drivers/third_party/ST/STM32L4xx_HAL_Driver/Src\stm32l4xx_hal_rcc_ex.c ****   }
 482:E:/LiteOS/LiteOS_Lab/drivers/third_party/ST/STM32L4xx_HAL_Driver/Src\stm32l4xx_hal_rcc_ex.c **** 
 483:E:/LiteOS/LiteOS_Lab/drivers/third_party/ST/STM32L4xx_HAL_Driver/Src\stm32l4xx_hal_rcc_ex.c ****   /*-------------------------- LPTIM1 clock source configuration -------------------*/
 484:E:/LiteOS/LiteOS_Lab/drivers/third_party/ST/STM32L4xx_HAL_Driver/Src\stm32l4xx_hal_rcc_ex.c ****   if(((PeriphClkInit->PeriphClockSelection) & RCC_PERIPHCLK_LPTIM1) == (RCC_PERIPHCLK_LPTIM1))
 364              		.loc 1 484 0
 365 024a 7B68     		ldr	r3, [r7, #4]
 366 024c 1B68     		ldr	r3, [r3]
 367 024e 03F40073 		and	r3, r3, #512
 368 0252 002B     		cmp	r3, #0
 369 0254 0AD0     		beq	.L26
ARM GAS  C:\Users\user\AppData\Local\Temp\ccsJwa9Q.s 			page 16


 485:E:/LiteOS/LiteOS_Lab/drivers/third_party/ST/STM32L4xx_HAL_Driver/Src\stm32l4xx_hal_rcc_ex.c ****   {
 486:E:/LiteOS/LiteOS_Lab/drivers/third_party/ST/STM32L4xx_HAL_Driver/Src\stm32l4xx_hal_rcc_ex.c ****     assert_param(IS_RCC_LPTIM1CLK(PeriphClkInit->Lptim1ClockSelection));
 487:E:/LiteOS/LiteOS_Lab/drivers/third_party/ST/STM32L4xx_HAL_Driver/Src\stm32l4xx_hal_rcc_ex.c ****     __HAL_RCC_LPTIM1_CONFIG(PeriphClkInit->Lptim1ClockSelection);
 370              		.loc 1 487 0
 371 0256 734B     		ldr	r3, .L42
 372 0258 D3F88830 		ldr	r3, [r3, #136]
 373 025c 23F44022 		bic	r2, r3, #786432
 374 0260 7B68     		ldr	r3, [r7, #4]
 375 0262 DB6B     		ldr	r3, [r3, #60]
 376 0264 6F49     		ldr	r1, .L42
 377 0266 1343     		orrs	r3, r3, r2
 378 0268 C1F88830 		str	r3, [r1, #136]
 379              	.L26:
 488:E:/LiteOS/LiteOS_Lab/drivers/third_party/ST/STM32L4xx_HAL_Driver/Src\stm32l4xx_hal_rcc_ex.c ****   }
 489:E:/LiteOS/LiteOS_Lab/drivers/third_party/ST/STM32L4xx_HAL_Driver/Src\stm32l4xx_hal_rcc_ex.c **** 
 490:E:/LiteOS/LiteOS_Lab/drivers/third_party/ST/STM32L4xx_HAL_Driver/Src\stm32l4xx_hal_rcc_ex.c ****   /*-------------------------- LPTIM2 clock source configuration -------------------*/
 491:E:/LiteOS/LiteOS_Lab/drivers/third_party/ST/STM32L4xx_HAL_Driver/Src\stm32l4xx_hal_rcc_ex.c ****   if(((PeriphClkInit->PeriphClockSelection) & RCC_PERIPHCLK_LPTIM2) == (RCC_PERIPHCLK_LPTIM2))
 380              		.loc 1 491 0
 381 026c 7B68     		ldr	r3, [r7, #4]
 382 026e 1B68     		ldr	r3, [r3]
 383 0270 03F48063 		and	r3, r3, #1024
 384 0274 002B     		cmp	r3, #0
 385 0276 0AD0     		beq	.L27
 492:E:/LiteOS/LiteOS_Lab/drivers/third_party/ST/STM32L4xx_HAL_Driver/Src\stm32l4xx_hal_rcc_ex.c ****   {
 493:E:/LiteOS/LiteOS_Lab/drivers/third_party/ST/STM32L4xx_HAL_Driver/Src\stm32l4xx_hal_rcc_ex.c ****     assert_param(IS_RCC_LPTIM2CLK(PeriphClkInit->Lptim2ClockSelection));
 494:E:/LiteOS/LiteOS_Lab/drivers/third_party/ST/STM32L4xx_HAL_Driver/Src\stm32l4xx_hal_rcc_ex.c ****     __HAL_RCC_LPTIM2_CONFIG(PeriphClkInit->Lptim2ClockSelection);
 386              		.loc 1 494 0
 387 0278 6A4B     		ldr	r3, .L42
 388 027a D3F88830 		ldr	r3, [r3, #136]
 389 027e 23F44012 		bic	r2, r3, #3145728
 390 0282 7B68     		ldr	r3, [r7, #4]
 391 0284 1B6C     		ldr	r3, [r3, #64]
 392 0286 6749     		ldr	r1, .L42
 393 0288 1343     		orrs	r3, r3, r2
 394 028a C1F88830 		str	r3, [r1, #136]
 395              	.L27:
 495:E:/LiteOS/LiteOS_Lab/drivers/third_party/ST/STM32L4xx_HAL_Driver/Src\stm32l4xx_hal_rcc_ex.c ****   }
 496:E:/LiteOS/LiteOS_Lab/drivers/third_party/ST/STM32L4xx_HAL_Driver/Src\stm32l4xx_hal_rcc_ex.c **** 
 497:E:/LiteOS/LiteOS_Lab/drivers/third_party/ST/STM32L4xx_HAL_Driver/Src\stm32l4xx_hal_rcc_ex.c ****   /*-------------------------- I2C1 clock source configuration ---------------------*/
 498:E:/LiteOS/LiteOS_Lab/drivers/third_party/ST/STM32L4xx_HAL_Driver/Src\stm32l4xx_hal_rcc_ex.c ****   if(((PeriphClkInit->PeriphClockSelection) & RCC_PERIPHCLK_I2C1) == RCC_PERIPHCLK_I2C1)
 396              		.loc 1 498 0
 397 028e 7B68     		ldr	r3, [r7, #4]
 398 0290 1B68     		ldr	r3, [r3]
 399 0292 03F04003 		and	r3, r3, #64
 400 0296 002B     		cmp	r3, #0
 401 0298 0AD0     		beq	.L28
 499:E:/LiteOS/LiteOS_Lab/drivers/third_party/ST/STM32L4xx_HAL_Driver/Src\stm32l4xx_hal_rcc_ex.c ****   {
 500:E:/LiteOS/LiteOS_Lab/drivers/third_party/ST/STM32L4xx_HAL_Driver/Src\stm32l4xx_hal_rcc_ex.c ****     /* Check the parameters */
 501:E:/LiteOS/LiteOS_Lab/drivers/third_party/ST/STM32L4xx_HAL_Driver/Src\stm32l4xx_hal_rcc_ex.c ****     assert_param(IS_RCC_I2C1CLKSOURCE(PeriphClkInit->I2c1ClockSelection));
 502:E:/LiteOS/LiteOS_Lab/drivers/third_party/ST/STM32L4xx_HAL_Driver/Src\stm32l4xx_hal_rcc_ex.c **** 
 503:E:/LiteOS/LiteOS_Lab/drivers/third_party/ST/STM32L4xx_HAL_Driver/Src\stm32l4xx_hal_rcc_ex.c ****     /* Configure the I2C1 clock source */
 504:E:/LiteOS/LiteOS_Lab/drivers/third_party/ST/STM32L4xx_HAL_Driver/Src\stm32l4xx_hal_rcc_ex.c ****     __HAL_RCC_I2C1_CONFIG(PeriphClkInit->I2c1ClockSelection);
 402              		.loc 1 504 0
 403 029a 624B     		ldr	r3, .L42
 404 029c D3F88830 		ldr	r3, [r3, #136]
 405 02a0 23F44052 		bic	r2, r3, #12288
 406 02a4 7B68     		ldr	r3, [r7, #4]
ARM GAS  C:\Users\user\AppData\Local\Temp\ccsJwa9Q.s 			page 17


 407 02a6 1B6B     		ldr	r3, [r3, #48]
 408 02a8 5E49     		ldr	r1, .L42
 409 02aa 1343     		orrs	r3, r3, r2
 410 02ac C1F88830 		str	r3, [r1, #136]
 411              	.L28:
 505:E:/LiteOS/LiteOS_Lab/drivers/third_party/ST/STM32L4xx_HAL_Driver/Src\stm32l4xx_hal_rcc_ex.c ****   }
 506:E:/LiteOS/LiteOS_Lab/drivers/third_party/ST/STM32L4xx_HAL_Driver/Src\stm32l4xx_hal_rcc_ex.c **** 
 507:E:/LiteOS/LiteOS_Lab/drivers/third_party/ST/STM32L4xx_HAL_Driver/Src\stm32l4xx_hal_rcc_ex.c **** #if defined(I2C2)
 508:E:/LiteOS/LiteOS_Lab/drivers/third_party/ST/STM32L4xx_HAL_Driver/Src\stm32l4xx_hal_rcc_ex.c **** 
 509:E:/LiteOS/LiteOS_Lab/drivers/third_party/ST/STM32L4xx_HAL_Driver/Src\stm32l4xx_hal_rcc_ex.c ****   /*-------------------------- I2C2 clock source configuration ---------------------*/
 510:E:/LiteOS/LiteOS_Lab/drivers/third_party/ST/STM32L4xx_HAL_Driver/Src\stm32l4xx_hal_rcc_ex.c ****   if(((PeriphClkInit->PeriphClockSelection) & RCC_PERIPHCLK_I2C2) == RCC_PERIPHCLK_I2C2)
 412              		.loc 1 510 0
 413 02b0 7B68     		ldr	r3, [r7, #4]
 414 02b2 1B68     		ldr	r3, [r3]
 415 02b4 03F08003 		and	r3, r3, #128
 416 02b8 002B     		cmp	r3, #0
 417 02ba 0AD0     		beq	.L29
 511:E:/LiteOS/LiteOS_Lab/drivers/third_party/ST/STM32L4xx_HAL_Driver/Src\stm32l4xx_hal_rcc_ex.c ****   {
 512:E:/LiteOS/LiteOS_Lab/drivers/third_party/ST/STM32L4xx_HAL_Driver/Src\stm32l4xx_hal_rcc_ex.c ****     /* Check the parameters */
 513:E:/LiteOS/LiteOS_Lab/drivers/third_party/ST/STM32L4xx_HAL_Driver/Src\stm32l4xx_hal_rcc_ex.c ****     assert_param(IS_RCC_I2C2CLKSOURCE(PeriphClkInit->I2c2ClockSelection));
 514:E:/LiteOS/LiteOS_Lab/drivers/third_party/ST/STM32L4xx_HAL_Driver/Src\stm32l4xx_hal_rcc_ex.c **** 
 515:E:/LiteOS/LiteOS_Lab/drivers/third_party/ST/STM32L4xx_HAL_Driver/Src\stm32l4xx_hal_rcc_ex.c ****     /* Configure the I2C2 clock source */
 516:E:/LiteOS/LiteOS_Lab/drivers/third_party/ST/STM32L4xx_HAL_Driver/Src\stm32l4xx_hal_rcc_ex.c ****     __HAL_RCC_I2C2_CONFIG(PeriphClkInit->I2c2ClockSelection);
 418              		.loc 1 516 0
 419 02bc 594B     		ldr	r3, .L42
 420 02be D3F88830 		ldr	r3, [r3, #136]
 421 02c2 23F44042 		bic	r2, r3, #49152
 422 02c6 7B68     		ldr	r3, [r7, #4]
 423 02c8 5B6B     		ldr	r3, [r3, #52]
 424 02ca 5649     		ldr	r1, .L42
 425 02cc 1343     		orrs	r3, r3, r2
 426 02ce C1F88830 		str	r3, [r1, #136]
 427              	.L29:
 517:E:/LiteOS/LiteOS_Lab/drivers/third_party/ST/STM32L4xx_HAL_Driver/Src\stm32l4xx_hal_rcc_ex.c ****   }
 518:E:/LiteOS/LiteOS_Lab/drivers/third_party/ST/STM32L4xx_HAL_Driver/Src\stm32l4xx_hal_rcc_ex.c **** 
 519:E:/LiteOS/LiteOS_Lab/drivers/third_party/ST/STM32L4xx_HAL_Driver/Src\stm32l4xx_hal_rcc_ex.c **** #endif /* I2C2 */
 520:E:/LiteOS/LiteOS_Lab/drivers/third_party/ST/STM32L4xx_HAL_Driver/Src\stm32l4xx_hal_rcc_ex.c **** 
 521:E:/LiteOS/LiteOS_Lab/drivers/third_party/ST/STM32L4xx_HAL_Driver/Src\stm32l4xx_hal_rcc_ex.c ****   /*-------------------------- I2C3 clock source configuration ---------------------*/
 522:E:/LiteOS/LiteOS_Lab/drivers/third_party/ST/STM32L4xx_HAL_Driver/Src\stm32l4xx_hal_rcc_ex.c ****   if(((PeriphClkInit->PeriphClockSelection) & RCC_PERIPHCLK_I2C3) == RCC_PERIPHCLK_I2C3)
 428              		.loc 1 522 0
 429 02d2 7B68     		ldr	r3, [r7, #4]
 430 02d4 1B68     		ldr	r3, [r3]
 431 02d6 03F48073 		and	r3, r3, #256
 432 02da 002B     		cmp	r3, #0
 433 02dc 0AD0     		beq	.L30
 523:E:/LiteOS/LiteOS_Lab/drivers/third_party/ST/STM32L4xx_HAL_Driver/Src\stm32l4xx_hal_rcc_ex.c ****   {
 524:E:/LiteOS/LiteOS_Lab/drivers/third_party/ST/STM32L4xx_HAL_Driver/Src\stm32l4xx_hal_rcc_ex.c ****     /* Check the parameters */
 525:E:/LiteOS/LiteOS_Lab/drivers/third_party/ST/STM32L4xx_HAL_Driver/Src\stm32l4xx_hal_rcc_ex.c ****     assert_param(IS_RCC_I2C3CLKSOURCE(PeriphClkInit->I2c3ClockSelection));
 526:E:/LiteOS/LiteOS_Lab/drivers/third_party/ST/STM32L4xx_HAL_Driver/Src\stm32l4xx_hal_rcc_ex.c **** 
 527:E:/LiteOS/LiteOS_Lab/drivers/third_party/ST/STM32L4xx_HAL_Driver/Src\stm32l4xx_hal_rcc_ex.c ****     /* Configure the I2C3 clock source */
 528:E:/LiteOS/LiteOS_Lab/drivers/third_party/ST/STM32L4xx_HAL_Driver/Src\stm32l4xx_hal_rcc_ex.c ****     __HAL_RCC_I2C3_CONFIG(PeriphClkInit->I2c3ClockSelection);
 434              		.loc 1 528 0
 435 02de 514B     		ldr	r3, .L42
 436 02e0 D3F88830 		ldr	r3, [r3, #136]
 437 02e4 23F44032 		bic	r2, r3, #196608
 438 02e8 7B68     		ldr	r3, [r7, #4]
 439 02ea 9B6B     		ldr	r3, [r3, #56]
ARM GAS  C:\Users\user\AppData\Local\Temp\ccsJwa9Q.s 			page 18


 440 02ec 4D49     		ldr	r1, .L42
 441 02ee 1343     		orrs	r3, r3, r2
 442 02f0 C1F88830 		str	r3, [r1, #136]
 443              	.L30:
 529:E:/LiteOS/LiteOS_Lab/drivers/third_party/ST/STM32L4xx_HAL_Driver/Src\stm32l4xx_hal_rcc_ex.c ****   }
 530:E:/LiteOS/LiteOS_Lab/drivers/third_party/ST/STM32L4xx_HAL_Driver/Src\stm32l4xx_hal_rcc_ex.c **** 
 531:E:/LiteOS/LiteOS_Lab/drivers/third_party/ST/STM32L4xx_HAL_Driver/Src\stm32l4xx_hal_rcc_ex.c **** #if defined(I2C4)
 532:E:/LiteOS/LiteOS_Lab/drivers/third_party/ST/STM32L4xx_HAL_Driver/Src\stm32l4xx_hal_rcc_ex.c **** 
 533:E:/LiteOS/LiteOS_Lab/drivers/third_party/ST/STM32L4xx_HAL_Driver/Src\stm32l4xx_hal_rcc_ex.c ****   /*-------------------------- I2C4 clock source configuration ---------------------*/
 534:E:/LiteOS/LiteOS_Lab/drivers/third_party/ST/STM32L4xx_HAL_Driver/Src\stm32l4xx_hal_rcc_ex.c ****   if(((PeriphClkInit->PeriphClockSelection) & RCC_PERIPHCLK_I2C4) == RCC_PERIPHCLK_I2C4)
 535:E:/LiteOS/LiteOS_Lab/drivers/third_party/ST/STM32L4xx_HAL_Driver/Src\stm32l4xx_hal_rcc_ex.c ****   {
 536:E:/LiteOS/LiteOS_Lab/drivers/third_party/ST/STM32L4xx_HAL_Driver/Src\stm32l4xx_hal_rcc_ex.c ****     /* Check the parameters */
 537:E:/LiteOS/LiteOS_Lab/drivers/third_party/ST/STM32L4xx_HAL_Driver/Src\stm32l4xx_hal_rcc_ex.c ****     assert_param(IS_RCC_I2C4CLKSOURCE(PeriphClkInit->I2c4ClockSelection));
 538:E:/LiteOS/LiteOS_Lab/drivers/third_party/ST/STM32L4xx_HAL_Driver/Src\stm32l4xx_hal_rcc_ex.c **** 
 539:E:/LiteOS/LiteOS_Lab/drivers/third_party/ST/STM32L4xx_HAL_Driver/Src\stm32l4xx_hal_rcc_ex.c ****     /* Configure the I2C4 clock source */
 540:E:/LiteOS/LiteOS_Lab/drivers/third_party/ST/STM32L4xx_HAL_Driver/Src\stm32l4xx_hal_rcc_ex.c ****     __HAL_RCC_I2C4_CONFIG(PeriphClkInit->I2c4ClockSelection);
 541:E:/LiteOS/LiteOS_Lab/drivers/third_party/ST/STM32L4xx_HAL_Driver/Src\stm32l4xx_hal_rcc_ex.c ****   }
 542:E:/LiteOS/LiteOS_Lab/drivers/third_party/ST/STM32L4xx_HAL_Driver/Src\stm32l4xx_hal_rcc_ex.c **** 
 543:E:/LiteOS/LiteOS_Lab/drivers/third_party/ST/STM32L4xx_HAL_Driver/Src\stm32l4xx_hal_rcc_ex.c **** #endif /* I2C4 */
 544:E:/LiteOS/LiteOS_Lab/drivers/third_party/ST/STM32L4xx_HAL_Driver/Src\stm32l4xx_hal_rcc_ex.c **** 
 545:E:/LiteOS/LiteOS_Lab/drivers/third_party/ST/STM32L4xx_HAL_Driver/Src\stm32l4xx_hal_rcc_ex.c **** #if defined(USB_OTG_FS) || defined(USB)
 546:E:/LiteOS/LiteOS_Lab/drivers/third_party/ST/STM32L4xx_HAL_Driver/Src\stm32l4xx_hal_rcc_ex.c **** 
 547:E:/LiteOS/LiteOS_Lab/drivers/third_party/ST/STM32L4xx_HAL_Driver/Src\stm32l4xx_hal_rcc_ex.c ****   /*-------------------------- USB clock source configuration ----------------------*/
 548:E:/LiteOS/LiteOS_Lab/drivers/third_party/ST/STM32L4xx_HAL_Driver/Src\stm32l4xx_hal_rcc_ex.c ****   if(((PeriphClkInit->PeriphClockSelection) & RCC_PERIPHCLK_USB) == (RCC_PERIPHCLK_USB))
 549:E:/LiteOS/LiteOS_Lab/drivers/third_party/ST/STM32L4xx_HAL_Driver/Src\stm32l4xx_hal_rcc_ex.c ****   {
 550:E:/LiteOS/LiteOS_Lab/drivers/third_party/ST/STM32L4xx_HAL_Driver/Src\stm32l4xx_hal_rcc_ex.c ****     assert_param(IS_RCC_USBCLKSOURCE(PeriphClkInit->UsbClockSelection));
 551:E:/LiteOS/LiteOS_Lab/drivers/third_party/ST/STM32L4xx_HAL_Driver/Src\stm32l4xx_hal_rcc_ex.c ****     __HAL_RCC_USB_CONFIG(PeriphClkInit->UsbClockSelection);
 552:E:/LiteOS/LiteOS_Lab/drivers/third_party/ST/STM32L4xx_HAL_Driver/Src\stm32l4xx_hal_rcc_ex.c **** 
 553:E:/LiteOS/LiteOS_Lab/drivers/third_party/ST/STM32L4xx_HAL_Driver/Src\stm32l4xx_hal_rcc_ex.c ****     if(PeriphClkInit->UsbClockSelection == RCC_USBCLKSOURCE_PLL)
 554:E:/LiteOS/LiteOS_Lab/drivers/third_party/ST/STM32L4xx_HAL_Driver/Src\stm32l4xx_hal_rcc_ex.c ****     {
 555:E:/LiteOS/LiteOS_Lab/drivers/third_party/ST/STM32L4xx_HAL_Driver/Src\stm32l4xx_hal_rcc_ex.c ****       /* Enable PLL48M1CLK output */
 556:E:/LiteOS/LiteOS_Lab/drivers/third_party/ST/STM32L4xx_HAL_Driver/Src\stm32l4xx_hal_rcc_ex.c ****       __HAL_RCC_PLLCLKOUT_ENABLE(RCC_PLL_48M1CLK);
 557:E:/LiteOS/LiteOS_Lab/drivers/third_party/ST/STM32L4xx_HAL_Driver/Src\stm32l4xx_hal_rcc_ex.c ****     }
 558:E:/LiteOS/LiteOS_Lab/drivers/third_party/ST/STM32L4xx_HAL_Driver/Src\stm32l4xx_hal_rcc_ex.c ****     else
 559:E:/LiteOS/LiteOS_Lab/drivers/third_party/ST/STM32L4xx_HAL_Driver/Src\stm32l4xx_hal_rcc_ex.c ****     {
 560:E:/LiteOS/LiteOS_Lab/drivers/third_party/ST/STM32L4xx_HAL_Driver/Src\stm32l4xx_hal_rcc_ex.c ****       if(PeriphClkInit->UsbClockSelection == RCC_USBCLKSOURCE_PLLSAI1)
 561:E:/LiteOS/LiteOS_Lab/drivers/third_party/ST/STM32L4xx_HAL_Driver/Src\stm32l4xx_hal_rcc_ex.c ****       {
 562:E:/LiteOS/LiteOS_Lab/drivers/third_party/ST/STM32L4xx_HAL_Driver/Src\stm32l4xx_hal_rcc_ex.c ****         /* PLLSAI1 input clock, parameters M, N & Q configuration and clock output (PLLSAI1ClockOut
 563:E:/LiteOS/LiteOS_Lab/drivers/third_party/ST/STM32L4xx_HAL_Driver/Src\stm32l4xx_hal_rcc_ex.c ****         ret = RCCEx_PLLSAI1_Config(&(PeriphClkInit->PLLSAI1), DIVIDER_Q_UPDATE);
 564:E:/LiteOS/LiteOS_Lab/drivers/third_party/ST/STM32L4xx_HAL_Driver/Src\stm32l4xx_hal_rcc_ex.c **** 
 565:E:/LiteOS/LiteOS_Lab/drivers/third_party/ST/STM32L4xx_HAL_Driver/Src\stm32l4xx_hal_rcc_ex.c ****         if(ret != HAL_OK)
 566:E:/LiteOS/LiteOS_Lab/drivers/third_party/ST/STM32L4xx_HAL_Driver/Src\stm32l4xx_hal_rcc_ex.c ****         {
 567:E:/LiteOS/LiteOS_Lab/drivers/third_party/ST/STM32L4xx_HAL_Driver/Src\stm32l4xx_hal_rcc_ex.c ****           /* set overall return value */
 568:E:/LiteOS/LiteOS_Lab/drivers/third_party/ST/STM32L4xx_HAL_Driver/Src\stm32l4xx_hal_rcc_ex.c ****           status = ret;
 569:E:/LiteOS/LiteOS_Lab/drivers/third_party/ST/STM32L4xx_HAL_Driver/Src\stm32l4xx_hal_rcc_ex.c ****         }
 570:E:/LiteOS/LiteOS_Lab/drivers/third_party/ST/STM32L4xx_HAL_Driver/Src\stm32l4xx_hal_rcc_ex.c ****       }
 571:E:/LiteOS/LiteOS_Lab/drivers/third_party/ST/STM32L4xx_HAL_Driver/Src\stm32l4xx_hal_rcc_ex.c ****     }
 572:E:/LiteOS/LiteOS_Lab/drivers/third_party/ST/STM32L4xx_HAL_Driver/Src\stm32l4xx_hal_rcc_ex.c ****   }
 573:E:/LiteOS/LiteOS_Lab/drivers/third_party/ST/STM32L4xx_HAL_Driver/Src\stm32l4xx_hal_rcc_ex.c **** 
 574:E:/LiteOS/LiteOS_Lab/drivers/third_party/ST/STM32L4xx_HAL_Driver/Src\stm32l4xx_hal_rcc_ex.c **** #endif /* USB_OTG_FS || USB */
 575:E:/LiteOS/LiteOS_Lab/drivers/third_party/ST/STM32L4xx_HAL_Driver/Src\stm32l4xx_hal_rcc_ex.c **** 
 576:E:/LiteOS/LiteOS_Lab/drivers/third_party/ST/STM32L4xx_HAL_Driver/Src\stm32l4xx_hal_rcc_ex.c **** #if defined(SDMMC1)
 577:E:/LiteOS/LiteOS_Lab/drivers/third_party/ST/STM32L4xx_HAL_Driver/Src\stm32l4xx_hal_rcc_ex.c **** 
 578:E:/LiteOS/LiteOS_Lab/drivers/third_party/ST/STM32L4xx_HAL_Driver/Src\stm32l4xx_hal_rcc_ex.c ****   /*-------------------------- SDMMC1 clock source configuration -------------------*/
 579:E:/LiteOS/LiteOS_Lab/drivers/third_party/ST/STM32L4xx_HAL_Driver/Src\stm32l4xx_hal_rcc_ex.c ****   if(((PeriphClkInit->PeriphClockSelection) & RCC_PERIPHCLK_SDMMC1) == (RCC_PERIPHCLK_SDMMC1))
 444              		.loc 1 579 0
 445 02f4 7B68     		ldr	r3, [r7, #4]
ARM GAS  C:\Users\user\AppData\Local\Temp\ccsJwa9Q.s 			page 19


 446 02f6 1B68     		ldr	r3, [r3]
 447 02f8 03F40023 		and	r3, r3, #524288
 448 02fc 002B     		cmp	r3, #0
 449 02fe 28D0     		beq	.L31
 580:E:/LiteOS/LiteOS_Lab/drivers/third_party/ST/STM32L4xx_HAL_Driver/Src\stm32l4xx_hal_rcc_ex.c ****   {
 581:E:/LiteOS/LiteOS_Lab/drivers/third_party/ST/STM32L4xx_HAL_Driver/Src\stm32l4xx_hal_rcc_ex.c ****     assert_param(IS_RCC_SDMMC1CLKSOURCE(PeriphClkInit->Sdmmc1ClockSelection));
 582:E:/LiteOS/LiteOS_Lab/drivers/third_party/ST/STM32L4xx_HAL_Driver/Src\stm32l4xx_hal_rcc_ex.c ****     __HAL_RCC_SDMMC1_CONFIG(PeriphClkInit->Sdmmc1ClockSelection);
 450              		.loc 1 582 0
 451 0300 484B     		ldr	r3, .L42
 452 0302 D3F88830 		ldr	r3, [r3, #136]
 453 0306 23F04062 		bic	r2, r3, #201326592
 454 030a 7B68     		ldr	r3, [r7, #4]
 455 030c 9B6C     		ldr	r3, [r3, #72]
 456 030e 4549     		ldr	r1, .L42
 457 0310 1343     		orrs	r3, r3, r2
 458 0312 C1F88830 		str	r3, [r1, #136]
 583:E:/LiteOS/LiteOS_Lab/drivers/third_party/ST/STM32L4xx_HAL_Driver/Src\stm32l4xx_hal_rcc_ex.c **** 
 584:E:/LiteOS/LiteOS_Lab/drivers/third_party/ST/STM32L4xx_HAL_Driver/Src\stm32l4xx_hal_rcc_ex.c ****     if(PeriphClkInit->Sdmmc1ClockSelection == RCC_SDMMC1CLKSOURCE_PLL)   /* PLL "Q" ? */
 459              		.loc 1 584 0
 460 0316 7B68     		ldr	r3, [r7, #4]
 461 0318 9B6C     		ldr	r3, [r3, #72]
 462 031a B3F1006F 		cmp	r3, #134217728
 463 031e 06D1     		bne	.L32
 585:E:/LiteOS/LiteOS_Lab/drivers/third_party/ST/STM32L4xx_HAL_Driver/Src\stm32l4xx_hal_rcc_ex.c ****     {
 586:E:/LiteOS/LiteOS_Lab/drivers/third_party/ST/STM32L4xx_HAL_Driver/Src\stm32l4xx_hal_rcc_ex.c ****       /* Enable PLL48M1CLK output */
 587:E:/LiteOS/LiteOS_Lab/drivers/third_party/ST/STM32L4xx_HAL_Driver/Src\stm32l4xx_hal_rcc_ex.c ****       __HAL_RCC_PLLCLKOUT_ENABLE(RCC_PLL_48M1CLK);
 464              		.loc 1 587 0
 465 0320 404B     		ldr	r3, .L42
 466 0322 DB68     		ldr	r3, [r3, #12]
 467 0324 3F4A     		ldr	r2, .L42
 468 0326 43F48013 		orr	r3, r3, #1048576
 469 032a D360     		str	r3, [r2, #12]
 470 032c 11E0     		b	.L31
 471              	.L32:
 588:E:/LiteOS/LiteOS_Lab/drivers/third_party/ST/STM32L4xx_HAL_Driver/Src\stm32l4xx_hal_rcc_ex.c ****     }
 589:E:/LiteOS/LiteOS_Lab/drivers/third_party/ST/STM32L4xx_HAL_Driver/Src\stm32l4xx_hal_rcc_ex.c **** #if defined(RCC_CCIPR2_SDMMCSEL)
 590:E:/LiteOS/LiteOS_Lab/drivers/third_party/ST/STM32L4xx_HAL_Driver/Src\stm32l4xx_hal_rcc_ex.c ****     else if(PeriphClkInit->Sdmmc1ClockSelection == RCC_SDMMC1CLKSOURCE_PLLP) /* PLL "P" ? */
 591:E:/LiteOS/LiteOS_Lab/drivers/third_party/ST/STM32L4xx_HAL_Driver/Src\stm32l4xx_hal_rcc_ex.c ****     {
 592:E:/LiteOS/LiteOS_Lab/drivers/third_party/ST/STM32L4xx_HAL_Driver/Src\stm32l4xx_hal_rcc_ex.c ****       /* Enable PLLSAI3CLK output */
 593:E:/LiteOS/LiteOS_Lab/drivers/third_party/ST/STM32L4xx_HAL_Driver/Src\stm32l4xx_hal_rcc_ex.c ****       __HAL_RCC_PLLCLKOUT_ENABLE(RCC_PLL_SAI3CLK);
 594:E:/LiteOS/LiteOS_Lab/drivers/third_party/ST/STM32L4xx_HAL_Driver/Src\stm32l4xx_hal_rcc_ex.c ****     }
 595:E:/LiteOS/LiteOS_Lab/drivers/third_party/ST/STM32L4xx_HAL_Driver/Src\stm32l4xx_hal_rcc_ex.c **** #endif
 596:E:/LiteOS/LiteOS_Lab/drivers/third_party/ST/STM32L4xx_HAL_Driver/Src\stm32l4xx_hal_rcc_ex.c ****     else if(PeriphClkInit->Sdmmc1ClockSelection == RCC_SDMMC1CLKSOURCE_PLLSAI1)
 472              		.loc 1 596 0
 473 032e 7B68     		ldr	r3, [r7, #4]
 474 0330 9B6C     		ldr	r3, [r3, #72]
 475 0332 B3F1806F 		cmp	r3, #67108864
 476 0336 0CD1     		bne	.L31
 597:E:/LiteOS/LiteOS_Lab/drivers/third_party/ST/STM32L4xx_HAL_Driver/Src\stm32l4xx_hal_rcc_ex.c ****     {
 598:E:/LiteOS/LiteOS_Lab/drivers/third_party/ST/STM32L4xx_HAL_Driver/Src\stm32l4xx_hal_rcc_ex.c ****       /* PLLSAI1 input clock, parameters M, N & Q configuration and clock output (PLLSAI1ClockOut) 
 599:E:/LiteOS/LiteOS_Lab/drivers/third_party/ST/STM32L4xx_HAL_Driver/Src\stm32l4xx_hal_rcc_ex.c ****       ret = RCCEx_PLLSAI1_Config(&(PeriphClkInit->PLLSAI1), DIVIDER_Q_UPDATE);
 477              		.loc 1 599 0
 478 0338 7B68     		ldr	r3, [r7, #4]
 479 033a 0433     		adds	r3, r3, #4
 480 033c 0121     		movs	r1, #1
 481 033e 1846     		mov	r0, r3
 482 0340 FFF7FEFF 		bl	RCCEx_PLLSAI1_Config
ARM GAS  C:\Users\user\AppData\Local\Temp\ccsJwa9Q.s 			page 20


 483 0344 0346     		mov	r3, r0
 484 0346 FB74     		strb	r3, [r7, #19]
 600:E:/LiteOS/LiteOS_Lab/drivers/third_party/ST/STM32L4xx_HAL_Driver/Src\stm32l4xx_hal_rcc_ex.c **** 
 601:E:/LiteOS/LiteOS_Lab/drivers/third_party/ST/STM32L4xx_HAL_Driver/Src\stm32l4xx_hal_rcc_ex.c ****       if(ret != HAL_OK)
 485              		.loc 1 601 0
 486 0348 FB7C     		ldrb	r3, [r7, #19]	@ zero_extendqisi2
 487 034a 002B     		cmp	r3, #0
 488 034c 01D0     		beq	.L31
 602:E:/LiteOS/LiteOS_Lab/drivers/third_party/ST/STM32L4xx_HAL_Driver/Src\stm32l4xx_hal_rcc_ex.c ****       {
 603:E:/LiteOS/LiteOS_Lab/drivers/third_party/ST/STM32L4xx_HAL_Driver/Src\stm32l4xx_hal_rcc_ex.c ****         /* set overall return value */
 604:E:/LiteOS/LiteOS_Lab/drivers/third_party/ST/STM32L4xx_HAL_Driver/Src\stm32l4xx_hal_rcc_ex.c ****         status = ret;
 489              		.loc 1 604 0
 490 034e FB7C     		ldrb	r3, [r7, #19]
 491 0350 BB74     		strb	r3, [r7, #18]
 492              	.L31:
 605:E:/LiteOS/LiteOS_Lab/drivers/third_party/ST/STM32L4xx_HAL_Driver/Src\stm32l4xx_hal_rcc_ex.c ****       }
 606:E:/LiteOS/LiteOS_Lab/drivers/third_party/ST/STM32L4xx_HAL_Driver/Src\stm32l4xx_hal_rcc_ex.c ****     }
 607:E:/LiteOS/LiteOS_Lab/drivers/third_party/ST/STM32L4xx_HAL_Driver/Src\stm32l4xx_hal_rcc_ex.c ****   }
 608:E:/LiteOS/LiteOS_Lab/drivers/third_party/ST/STM32L4xx_HAL_Driver/Src\stm32l4xx_hal_rcc_ex.c **** 
 609:E:/LiteOS/LiteOS_Lab/drivers/third_party/ST/STM32L4xx_HAL_Driver/Src\stm32l4xx_hal_rcc_ex.c **** #endif /* SDMMC1 */
 610:E:/LiteOS/LiteOS_Lab/drivers/third_party/ST/STM32L4xx_HAL_Driver/Src\stm32l4xx_hal_rcc_ex.c **** 
 611:E:/LiteOS/LiteOS_Lab/drivers/third_party/ST/STM32L4xx_HAL_Driver/Src\stm32l4xx_hal_rcc_ex.c ****   /*-------------------------- RNG clock source configuration ----------------------*/
 612:E:/LiteOS/LiteOS_Lab/drivers/third_party/ST/STM32L4xx_HAL_Driver/Src\stm32l4xx_hal_rcc_ex.c ****   if(((PeriphClkInit->PeriphClockSelection) & RCC_PERIPHCLK_RNG) == (RCC_PERIPHCLK_RNG))
 493              		.loc 1 612 0
 494 0352 7B68     		ldr	r3, [r7, #4]
 495 0354 1B68     		ldr	r3, [r3]
 496 0356 03F48023 		and	r3, r3, #262144
 497 035a 002B     		cmp	r3, #0
 498 035c 28D0     		beq	.L33
 613:E:/LiteOS/LiteOS_Lab/drivers/third_party/ST/STM32L4xx_HAL_Driver/Src\stm32l4xx_hal_rcc_ex.c ****   {
 614:E:/LiteOS/LiteOS_Lab/drivers/third_party/ST/STM32L4xx_HAL_Driver/Src\stm32l4xx_hal_rcc_ex.c ****     assert_param(IS_RCC_RNGCLKSOURCE(PeriphClkInit->RngClockSelection));
 615:E:/LiteOS/LiteOS_Lab/drivers/third_party/ST/STM32L4xx_HAL_Driver/Src\stm32l4xx_hal_rcc_ex.c ****     __HAL_RCC_RNG_CONFIG(PeriphClkInit->RngClockSelection);
 499              		.loc 1 615 0
 500 035e 314B     		ldr	r3, .L42
 501 0360 D3F88830 		ldr	r3, [r3, #136]
 502 0364 23F04062 		bic	r2, r3, #201326592
 503 0368 7B68     		ldr	r3, [r7, #4]
 504 036a DB6C     		ldr	r3, [r3, #76]
 505 036c 2D49     		ldr	r1, .L42
 506 036e 1343     		orrs	r3, r3, r2
 507 0370 C1F88830 		str	r3, [r1, #136]
 616:E:/LiteOS/LiteOS_Lab/drivers/third_party/ST/STM32L4xx_HAL_Driver/Src\stm32l4xx_hal_rcc_ex.c **** 
 617:E:/LiteOS/LiteOS_Lab/drivers/third_party/ST/STM32L4xx_HAL_Driver/Src\stm32l4xx_hal_rcc_ex.c ****     if(PeriphClkInit->RngClockSelection == RCC_RNGCLKSOURCE_PLL)
 508              		.loc 1 617 0
 509 0374 7B68     		ldr	r3, [r7, #4]
 510 0376 DB6C     		ldr	r3, [r3, #76]
 511 0378 B3F1006F 		cmp	r3, #134217728
 512 037c 06D1     		bne	.L34
 618:E:/LiteOS/LiteOS_Lab/drivers/third_party/ST/STM32L4xx_HAL_Driver/Src\stm32l4xx_hal_rcc_ex.c ****     {
 619:E:/LiteOS/LiteOS_Lab/drivers/third_party/ST/STM32L4xx_HAL_Driver/Src\stm32l4xx_hal_rcc_ex.c ****       /* Enable PLL48M1CLK output */
 620:E:/LiteOS/LiteOS_Lab/drivers/third_party/ST/STM32L4xx_HAL_Driver/Src\stm32l4xx_hal_rcc_ex.c ****       __HAL_RCC_PLLCLKOUT_ENABLE(RCC_PLL_48M1CLK);
 513              		.loc 1 620 0
 514 037e 294B     		ldr	r3, .L42
 515 0380 DB68     		ldr	r3, [r3, #12]
 516 0382 284A     		ldr	r2, .L42
 517 0384 43F48013 		orr	r3, r3, #1048576
 518 0388 D360     		str	r3, [r2, #12]
ARM GAS  C:\Users\user\AppData\Local\Temp\ccsJwa9Q.s 			page 21


 519 038a 11E0     		b	.L33
 520              	.L34:
 621:E:/LiteOS/LiteOS_Lab/drivers/third_party/ST/STM32L4xx_HAL_Driver/Src\stm32l4xx_hal_rcc_ex.c ****     }
 622:E:/LiteOS/LiteOS_Lab/drivers/third_party/ST/STM32L4xx_HAL_Driver/Src\stm32l4xx_hal_rcc_ex.c ****     else if(PeriphClkInit->RngClockSelection == RCC_RNGCLKSOURCE_PLLSAI1)
 521              		.loc 1 622 0
 522 038c 7B68     		ldr	r3, [r7, #4]
 523 038e DB6C     		ldr	r3, [r3, #76]
 524 0390 B3F1806F 		cmp	r3, #67108864
 525 0394 0CD1     		bne	.L33
 623:E:/LiteOS/LiteOS_Lab/drivers/third_party/ST/STM32L4xx_HAL_Driver/Src\stm32l4xx_hal_rcc_ex.c ****     {
 624:E:/LiteOS/LiteOS_Lab/drivers/third_party/ST/STM32L4xx_HAL_Driver/Src\stm32l4xx_hal_rcc_ex.c ****       /* PLLSAI1 input clock, parameters M, N & Q configuration and clock output (PLLSAI1ClockOut) 
 625:E:/LiteOS/LiteOS_Lab/drivers/third_party/ST/STM32L4xx_HAL_Driver/Src\stm32l4xx_hal_rcc_ex.c ****       ret = RCCEx_PLLSAI1_Config(&(PeriphClkInit->PLLSAI1), DIVIDER_Q_UPDATE);
 526              		.loc 1 625 0
 527 0396 7B68     		ldr	r3, [r7, #4]
 528 0398 0433     		adds	r3, r3, #4
 529 039a 0121     		movs	r1, #1
 530 039c 1846     		mov	r0, r3
 531 039e FFF7FEFF 		bl	RCCEx_PLLSAI1_Config
 532 03a2 0346     		mov	r3, r0
 533 03a4 FB74     		strb	r3, [r7, #19]
 626:E:/LiteOS/LiteOS_Lab/drivers/third_party/ST/STM32L4xx_HAL_Driver/Src\stm32l4xx_hal_rcc_ex.c **** 
 627:E:/LiteOS/LiteOS_Lab/drivers/third_party/ST/STM32L4xx_HAL_Driver/Src\stm32l4xx_hal_rcc_ex.c ****       if(ret != HAL_OK)
 534              		.loc 1 627 0
 535 03a6 FB7C     		ldrb	r3, [r7, #19]	@ zero_extendqisi2
 536 03a8 002B     		cmp	r3, #0
 537 03aa 01D0     		beq	.L33
 628:E:/LiteOS/LiteOS_Lab/drivers/third_party/ST/STM32L4xx_HAL_Driver/Src\stm32l4xx_hal_rcc_ex.c ****       {
 629:E:/LiteOS/LiteOS_Lab/drivers/third_party/ST/STM32L4xx_HAL_Driver/Src\stm32l4xx_hal_rcc_ex.c ****         /* set overall return value */
 630:E:/LiteOS/LiteOS_Lab/drivers/third_party/ST/STM32L4xx_HAL_Driver/Src\stm32l4xx_hal_rcc_ex.c ****         status = ret;
 538              		.loc 1 630 0
 539 03ac FB7C     		ldrb	r3, [r7, #19]
 540 03ae BB74     		strb	r3, [r7, #18]
 541              	.L33:
 631:E:/LiteOS/LiteOS_Lab/drivers/third_party/ST/STM32L4xx_HAL_Driver/Src\stm32l4xx_hal_rcc_ex.c ****       }
 632:E:/LiteOS/LiteOS_Lab/drivers/third_party/ST/STM32L4xx_HAL_Driver/Src\stm32l4xx_hal_rcc_ex.c ****     }
 633:E:/LiteOS/LiteOS_Lab/drivers/third_party/ST/STM32L4xx_HAL_Driver/Src\stm32l4xx_hal_rcc_ex.c ****   }
 634:E:/LiteOS/LiteOS_Lab/drivers/third_party/ST/STM32L4xx_HAL_Driver/Src\stm32l4xx_hal_rcc_ex.c **** 
 635:E:/LiteOS/LiteOS_Lab/drivers/third_party/ST/STM32L4xx_HAL_Driver/Src\stm32l4xx_hal_rcc_ex.c ****   /*-------------------------- ADC clock source configuration ----------------------*/
 636:E:/LiteOS/LiteOS_Lab/drivers/third_party/ST/STM32L4xx_HAL_Driver/Src\stm32l4xx_hal_rcc_ex.c ****   if(((PeriphClkInit->PeriphClockSelection) & RCC_PERIPHCLK_ADC) == RCC_PERIPHCLK_ADC)
 542              		.loc 1 636 0
 543 03b0 7B68     		ldr	r3, [r7, #4]
 544 03b2 1B68     		ldr	r3, [r3]
 545 03b4 03F48043 		and	r3, r3, #16384
 546 03b8 002B     		cmp	r3, #0
 547 03ba 1CD0     		beq	.L35
 637:E:/LiteOS/LiteOS_Lab/drivers/third_party/ST/STM32L4xx_HAL_Driver/Src\stm32l4xx_hal_rcc_ex.c ****   {
 638:E:/LiteOS/LiteOS_Lab/drivers/third_party/ST/STM32L4xx_HAL_Driver/Src\stm32l4xx_hal_rcc_ex.c ****     /* Check the parameters */
 639:E:/LiteOS/LiteOS_Lab/drivers/third_party/ST/STM32L4xx_HAL_Driver/Src\stm32l4xx_hal_rcc_ex.c ****     assert_param(IS_RCC_ADCCLKSOURCE(PeriphClkInit->AdcClockSelection));
 640:E:/LiteOS/LiteOS_Lab/drivers/third_party/ST/STM32L4xx_HAL_Driver/Src\stm32l4xx_hal_rcc_ex.c **** 
 641:E:/LiteOS/LiteOS_Lab/drivers/third_party/ST/STM32L4xx_HAL_Driver/Src\stm32l4xx_hal_rcc_ex.c ****     /* Configure the ADC interface clock source */
 642:E:/LiteOS/LiteOS_Lab/drivers/third_party/ST/STM32L4xx_HAL_Driver/Src\stm32l4xx_hal_rcc_ex.c ****     __HAL_RCC_ADC_CONFIG(PeriphClkInit->AdcClockSelection);
 548              		.loc 1 642 0
 549 03bc 194B     		ldr	r3, .L42
 550 03be D3F88830 		ldr	r3, [r3, #136]
 551 03c2 23F04052 		bic	r2, r3, #805306368
 552 03c6 7B68     		ldr	r3, [r7, #4]
 553 03c8 1B6D     		ldr	r3, [r3, #80]
ARM GAS  C:\Users\user\AppData\Local\Temp\ccsJwa9Q.s 			page 22


 554 03ca 1649     		ldr	r1, .L42
 555 03cc 1343     		orrs	r3, r3, r2
 556 03ce C1F88830 		str	r3, [r1, #136]
 643:E:/LiteOS/LiteOS_Lab/drivers/third_party/ST/STM32L4xx_HAL_Driver/Src\stm32l4xx_hal_rcc_ex.c **** 
 644:E:/LiteOS/LiteOS_Lab/drivers/third_party/ST/STM32L4xx_HAL_Driver/Src\stm32l4xx_hal_rcc_ex.c ****     if(PeriphClkInit->AdcClockSelection == RCC_ADCCLKSOURCE_PLLSAI1)
 557              		.loc 1 644 0
 558 03d2 7B68     		ldr	r3, [r7, #4]
 559 03d4 1B6D     		ldr	r3, [r3, #80]
 560 03d6 B3F1805F 		cmp	r3, #268435456
 561 03da 0CD1     		bne	.L35
 645:E:/LiteOS/LiteOS_Lab/drivers/third_party/ST/STM32L4xx_HAL_Driver/Src\stm32l4xx_hal_rcc_ex.c ****     {
 646:E:/LiteOS/LiteOS_Lab/drivers/third_party/ST/STM32L4xx_HAL_Driver/Src\stm32l4xx_hal_rcc_ex.c ****       /* PLLSAI1 input clock, parameters M, N & R configuration and clock output (PLLSAI1ClockOut) 
 647:E:/LiteOS/LiteOS_Lab/drivers/third_party/ST/STM32L4xx_HAL_Driver/Src\stm32l4xx_hal_rcc_ex.c ****       ret = RCCEx_PLLSAI1_Config(&(PeriphClkInit->PLLSAI1), DIVIDER_R_UPDATE);
 562              		.loc 1 647 0
 563 03dc 7B68     		ldr	r3, [r7, #4]
 564 03de 0433     		adds	r3, r3, #4
 565 03e0 0221     		movs	r1, #2
 566 03e2 1846     		mov	r0, r3
 567 03e4 FFF7FEFF 		bl	RCCEx_PLLSAI1_Config
 568 03e8 0346     		mov	r3, r0
 569 03ea FB74     		strb	r3, [r7, #19]
 648:E:/LiteOS/LiteOS_Lab/drivers/third_party/ST/STM32L4xx_HAL_Driver/Src\stm32l4xx_hal_rcc_ex.c **** 
 649:E:/LiteOS/LiteOS_Lab/drivers/third_party/ST/STM32L4xx_HAL_Driver/Src\stm32l4xx_hal_rcc_ex.c ****       if(ret != HAL_OK)
 570              		.loc 1 649 0
 571 03ec FB7C     		ldrb	r3, [r7, #19]	@ zero_extendqisi2
 572 03ee 002B     		cmp	r3, #0
 573 03f0 01D0     		beq	.L35
 650:E:/LiteOS/LiteOS_Lab/drivers/third_party/ST/STM32L4xx_HAL_Driver/Src\stm32l4xx_hal_rcc_ex.c ****       {
 651:E:/LiteOS/LiteOS_Lab/drivers/third_party/ST/STM32L4xx_HAL_Driver/Src\stm32l4xx_hal_rcc_ex.c ****         /* set overall return value */
 652:E:/LiteOS/LiteOS_Lab/drivers/third_party/ST/STM32L4xx_HAL_Driver/Src\stm32l4xx_hal_rcc_ex.c ****         status = ret;
 574              		.loc 1 652 0
 575 03f2 FB7C     		ldrb	r3, [r7, #19]
 576 03f4 BB74     		strb	r3, [r7, #18]
 577              	.L35:
 653:E:/LiteOS/LiteOS_Lab/drivers/third_party/ST/STM32L4xx_HAL_Driver/Src\stm32l4xx_hal_rcc_ex.c ****       }
 654:E:/LiteOS/LiteOS_Lab/drivers/third_party/ST/STM32L4xx_HAL_Driver/Src\stm32l4xx_hal_rcc_ex.c ****     }
 655:E:/LiteOS/LiteOS_Lab/drivers/third_party/ST/STM32L4xx_HAL_Driver/Src\stm32l4xx_hal_rcc_ex.c **** 
 656:E:/LiteOS/LiteOS_Lab/drivers/third_party/ST/STM32L4xx_HAL_Driver/Src\stm32l4xx_hal_rcc_ex.c **** #if defined(STM32L471xx) || defined(STM32L475xx) || defined(STM32L476xx) || defined(STM32L485xx) ||
 657:E:/LiteOS/LiteOS_Lab/drivers/third_party/ST/STM32L4xx_HAL_Driver/Src\stm32l4xx_hal_rcc_ex.c **** 
 658:E:/LiteOS/LiteOS_Lab/drivers/third_party/ST/STM32L4xx_HAL_Driver/Src\stm32l4xx_hal_rcc_ex.c ****     else if(PeriphClkInit->AdcClockSelection == RCC_ADCCLKSOURCE_PLLSAI2)
 659:E:/LiteOS/LiteOS_Lab/drivers/third_party/ST/STM32L4xx_HAL_Driver/Src\stm32l4xx_hal_rcc_ex.c ****     {
 660:E:/LiteOS/LiteOS_Lab/drivers/third_party/ST/STM32L4xx_HAL_Driver/Src\stm32l4xx_hal_rcc_ex.c ****       /* PLLSAI2 input clock, parameters M, N & R configuration and clock output (PLLSAI2ClockOut) 
 661:E:/LiteOS/LiteOS_Lab/drivers/third_party/ST/STM32L4xx_HAL_Driver/Src\stm32l4xx_hal_rcc_ex.c ****       ret = RCCEx_PLLSAI2_Config(&(PeriphClkInit->PLLSAI2), DIVIDER_R_UPDATE);
 662:E:/LiteOS/LiteOS_Lab/drivers/third_party/ST/STM32L4xx_HAL_Driver/Src\stm32l4xx_hal_rcc_ex.c **** 
 663:E:/LiteOS/LiteOS_Lab/drivers/third_party/ST/STM32L4xx_HAL_Driver/Src\stm32l4xx_hal_rcc_ex.c ****       if(ret != HAL_OK)
 664:E:/LiteOS/LiteOS_Lab/drivers/third_party/ST/STM32L4xx_HAL_Driver/Src\stm32l4xx_hal_rcc_ex.c ****       {
 665:E:/LiteOS/LiteOS_Lab/drivers/third_party/ST/STM32L4xx_HAL_Driver/Src\stm32l4xx_hal_rcc_ex.c ****         /* set overall return value */
 666:E:/LiteOS/LiteOS_Lab/drivers/third_party/ST/STM32L4xx_HAL_Driver/Src\stm32l4xx_hal_rcc_ex.c ****         status = ret;
 667:E:/LiteOS/LiteOS_Lab/drivers/third_party/ST/STM32L4xx_HAL_Driver/Src\stm32l4xx_hal_rcc_ex.c ****       }
 668:E:/LiteOS/LiteOS_Lab/drivers/third_party/ST/STM32L4xx_HAL_Driver/Src\stm32l4xx_hal_rcc_ex.c ****     }
 669:E:/LiteOS/LiteOS_Lab/drivers/third_party/ST/STM32L4xx_HAL_Driver/Src\stm32l4xx_hal_rcc_ex.c **** 
 670:E:/LiteOS/LiteOS_Lab/drivers/third_party/ST/STM32L4xx_HAL_Driver/Src\stm32l4xx_hal_rcc_ex.c **** #endif /* STM32L471xx || STM32L475xx || STM32L476xx || STM32L485xx || STM32L486xx || STM32L496xx ||
 671:E:/LiteOS/LiteOS_Lab/drivers/third_party/ST/STM32L4xx_HAL_Driver/Src\stm32l4xx_hal_rcc_ex.c **** 
 672:E:/LiteOS/LiteOS_Lab/drivers/third_party/ST/STM32L4xx_HAL_Driver/Src\stm32l4xx_hal_rcc_ex.c ****   }
 673:E:/LiteOS/LiteOS_Lab/drivers/third_party/ST/STM32L4xx_HAL_Driver/Src\stm32l4xx_hal_rcc_ex.c **** 
 674:E:/LiteOS/LiteOS_Lab/drivers/third_party/ST/STM32L4xx_HAL_Driver/Src\stm32l4xx_hal_rcc_ex.c **** #if defined(SWPMI1)
 675:E:/LiteOS/LiteOS_Lab/drivers/third_party/ST/STM32L4xx_HAL_Driver/Src\stm32l4xx_hal_rcc_ex.c **** 
ARM GAS  C:\Users\user\AppData\Local\Temp\ccsJwa9Q.s 			page 23


 676:E:/LiteOS/LiteOS_Lab/drivers/third_party/ST/STM32L4xx_HAL_Driver/Src\stm32l4xx_hal_rcc_ex.c ****   /*-------------------------- SWPMI1 clock source configuration -------------------*/
 677:E:/LiteOS/LiteOS_Lab/drivers/third_party/ST/STM32L4xx_HAL_Driver/Src\stm32l4xx_hal_rcc_ex.c ****   if(((PeriphClkInit->PeriphClockSelection) & RCC_PERIPHCLK_SWPMI1) == RCC_PERIPHCLK_SWPMI1)
 578              		.loc 1 677 0
 579 03f6 7B68     		ldr	r3, [r7, #4]
 580 03f8 1B68     		ldr	r3, [r3]
 581 03fa 03F40043 		and	r3, r3, #32768
 582 03fe 002B     		cmp	r3, #0
 583 0400 0AD0     		beq	.L36
 678:E:/LiteOS/LiteOS_Lab/drivers/third_party/ST/STM32L4xx_HAL_Driver/Src\stm32l4xx_hal_rcc_ex.c ****   {
 679:E:/LiteOS/LiteOS_Lab/drivers/third_party/ST/STM32L4xx_HAL_Driver/Src\stm32l4xx_hal_rcc_ex.c ****     /* Check the parameters */
 680:E:/LiteOS/LiteOS_Lab/drivers/third_party/ST/STM32L4xx_HAL_Driver/Src\stm32l4xx_hal_rcc_ex.c ****     assert_param(IS_RCC_SWPMI1CLKSOURCE(PeriphClkInit->Swpmi1ClockSelection));
 681:E:/LiteOS/LiteOS_Lab/drivers/third_party/ST/STM32L4xx_HAL_Driver/Src\stm32l4xx_hal_rcc_ex.c **** 
 682:E:/LiteOS/LiteOS_Lab/drivers/third_party/ST/STM32L4xx_HAL_Driver/Src\stm32l4xx_hal_rcc_ex.c ****     /* Configure the SWPMI1 clock source */
 683:E:/LiteOS/LiteOS_Lab/drivers/third_party/ST/STM32L4xx_HAL_Driver/Src\stm32l4xx_hal_rcc_ex.c ****     __HAL_RCC_SWPMI1_CONFIG(PeriphClkInit->Swpmi1ClockSelection);
 584              		.loc 1 683 0
 585 0402 084B     		ldr	r3, .L42
 586 0404 D3F88830 		ldr	r3, [r3, #136]
 587 0408 23F08042 		bic	r2, r3, #1073741824
 588 040c 7B68     		ldr	r3, [r7, #4]
 589 040e 5B6D     		ldr	r3, [r3, #84]
 590 0410 0449     		ldr	r1, .L42
 591 0412 1343     		orrs	r3, r3, r2
 592 0414 C1F88830 		str	r3, [r1, #136]
 593              	.L36:
 684:E:/LiteOS/LiteOS_Lab/drivers/third_party/ST/STM32L4xx_HAL_Driver/Src\stm32l4xx_hal_rcc_ex.c ****   }
 685:E:/LiteOS/LiteOS_Lab/drivers/third_party/ST/STM32L4xx_HAL_Driver/Src\stm32l4xx_hal_rcc_ex.c **** 
 686:E:/LiteOS/LiteOS_Lab/drivers/third_party/ST/STM32L4xx_HAL_Driver/Src\stm32l4xx_hal_rcc_ex.c **** #endif /* SWPMI1 */
 687:E:/LiteOS/LiteOS_Lab/drivers/third_party/ST/STM32L4xx_HAL_Driver/Src\stm32l4xx_hal_rcc_ex.c **** 
 688:E:/LiteOS/LiteOS_Lab/drivers/third_party/ST/STM32L4xx_HAL_Driver/Src\stm32l4xx_hal_rcc_ex.c **** #if defined(DFSDM1_Filter0)
 689:E:/LiteOS/LiteOS_Lab/drivers/third_party/ST/STM32L4xx_HAL_Driver/Src\stm32l4xx_hal_rcc_ex.c **** 
 690:E:/LiteOS/LiteOS_Lab/drivers/third_party/ST/STM32L4xx_HAL_Driver/Src\stm32l4xx_hal_rcc_ex.c ****   /*-------------------------- DFSDM1 clock source configuration -------------------*/
 691:E:/LiteOS/LiteOS_Lab/drivers/third_party/ST/STM32L4xx_HAL_Driver/Src\stm32l4xx_hal_rcc_ex.c ****   if(((PeriphClkInit->PeriphClockSelection) & RCC_PERIPHCLK_DFSDM1) == RCC_PERIPHCLK_DFSDM1)
 692:E:/LiteOS/LiteOS_Lab/drivers/third_party/ST/STM32L4xx_HAL_Driver/Src\stm32l4xx_hal_rcc_ex.c ****   {
 693:E:/LiteOS/LiteOS_Lab/drivers/third_party/ST/STM32L4xx_HAL_Driver/Src\stm32l4xx_hal_rcc_ex.c ****     /* Check the parameters */
 694:E:/LiteOS/LiteOS_Lab/drivers/third_party/ST/STM32L4xx_HAL_Driver/Src\stm32l4xx_hal_rcc_ex.c ****     assert_param(IS_RCC_DFSDM1CLKSOURCE(PeriphClkInit->Dfsdm1ClockSelection));
 695:E:/LiteOS/LiteOS_Lab/drivers/third_party/ST/STM32L4xx_HAL_Driver/Src\stm32l4xx_hal_rcc_ex.c **** 
 696:E:/LiteOS/LiteOS_Lab/drivers/third_party/ST/STM32L4xx_HAL_Driver/Src\stm32l4xx_hal_rcc_ex.c ****     /* Configure the DFSDM1 interface clock source */
 697:E:/LiteOS/LiteOS_Lab/drivers/third_party/ST/STM32L4xx_HAL_Driver/Src\stm32l4xx_hal_rcc_ex.c ****     __HAL_RCC_DFSDM1_CONFIG(PeriphClkInit->Dfsdm1ClockSelection);
 698:E:/LiteOS/LiteOS_Lab/drivers/third_party/ST/STM32L4xx_HAL_Driver/Src\stm32l4xx_hal_rcc_ex.c ****   }
 699:E:/LiteOS/LiteOS_Lab/drivers/third_party/ST/STM32L4xx_HAL_Driver/Src\stm32l4xx_hal_rcc_ex.c **** 
 700:E:/LiteOS/LiteOS_Lab/drivers/third_party/ST/STM32L4xx_HAL_Driver/Src\stm32l4xx_hal_rcc_ex.c **** #if defined(STM32L4R5xx) || defined(STM32L4R7xx) || defined(STM32L4R9xx) || defined(STM32L4S5xx) ||
 701:E:/LiteOS/LiteOS_Lab/drivers/third_party/ST/STM32L4xx_HAL_Driver/Src\stm32l4xx_hal_rcc_ex.c ****   /*-------------------------- DFSDM1 audio clock source configuration -------------*/
 702:E:/LiteOS/LiteOS_Lab/drivers/third_party/ST/STM32L4xx_HAL_Driver/Src\stm32l4xx_hal_rcc_ex.c ****   if(((PeriphClkInit->PeriphClockSelection) & RCC_PERIPHCLK_DFSDM1AUDIO) == RCC_PERIPHCLK_DFSDM1AUD
 703:E:/LiteOS/LiteOS_Lab/drivers/third_party/ST/STM32L4xx_HAL_Driver/Src\stm32l4xx_hal_rcc_ex.c ****   {
 704:E:/LiteOS/LiteOS_Lab/drivers/third_party/ST/STM32L4xx_HAL_Driver/Src\stm32l4xx_hal_rcc_ex.c ****     /* Check the parameters */
 705:E:/LiteOS/LiteOS_Lab/drivers/third_party/ST/STM32L4xx_HAL_Driver/Src\stm32l4xx_hal_rcc_ex.c ****     assert_param(IS_RCC_DFSDM1AUDIOCLKSOURCE(PeriphClkInit->Dfsdm1AudioClockSelection));
 706:E:/LiteOS/LiteOS_Lab/drivers/third_party/ST/STM32L4xx_HAL_Driver/Src\stm32l4xx_hal_rcc_ex.c **** 
 707:E:/LiteOS/LiteOS_Lab/drivers/third_party/ST/STM32L4xx_HAL_Driver/Src\stm32l4xx_hal_rcc_ex.c ****     /* Configure the DFSDM1 interface audio clock source */
 708:E:/LiteOS/LiteOS_Lab/drivers/third_party/ST/STM32L4xx_HAL_Driver/Src\stm32l4xx_hal_rcc_ex.c ****     __HAL_RCC_DFSDM1AUDIO_CONFIG(PeriphClkInit->Dfsdm1AudioClockSelection);
 709:E:/LiteOS/LiteOS_Lab/drivers/third_party/ST/STM32L4xx_HAL_Driver/Src\stm32l4xx_hal_rcc_ex.c ****   }
 710:E:/LiteOS/LiteOS_Lab/drivers/third_party/ST/STM32L4xx_HAL_Driver/Src\stm32l4xx_hal_rcc_ex.c **** 
 711:E:/LiteOS/LiteOS_Lab/drivers/third_party/ST/STM32L4xx_HAL_Driver/Src\stm32l4xx_hal_rcc_ex.c **** #endif /* STM32L4R5xx || STM32L4R7xx || STM32L4R9xx || STM32L4S5xx || STM32L4S7xx || STM32L4S9xx */
 712:E:/LiteOS/LiteOS_Lab/drivers/third_party/ST/STM32L4xx_HAL_Driver/Src\stm32l4xx_hal_rcc_ex.c **** 
 713:E:/LiteOS/LiteOS_Lab/drivers/third_party/ST/STM32L4xx_HAL_Driver/Src\stm32l4xx_hal_rcc_ex.c **** #endif /* DFSDM1_Filter0 */
 714:E:/LiteOS/LiteOS_Lab/drivers/third_party/ST/STM32L4xx_HAL_Driver/Src\stm32l4xx_hal_rcc_ex.c **** 
 715:E:/LiteOS/LiteOS_Lab/drivers/third_party/ST/STM32L4xx_HAL_Driver/Src\stm32l4xx_hal_rcc_ex.c **** #if defined(LTDC)
 716:E:/LiteOS/LiteOS_Lab/drivers/third_party/ST/STM32L4xx_HAL_Driver/Src\stm32l4xx_hal_rcc_ex.c **** 
ARM GAS  C:\Users\user\AppData\Local\Temp\ccsJwa9Q.s 			page 24


 717:E:/LiteOS/LiteOS_Lab/drivers/third_party/ST/STM32L4xx_HAL_Driver/Src\stm32l4xx_hal_rcc_ex.c ****   /*-------------------------- LTDC clock source configuration --------------------*/
 718:E:/LiteOS/LiteOS_Lab/drivers/third_party/ST/STM32L4xx_HAL_Driver/Src\stm32l4xx_hal_rcc_ex.c ****   if(((PeriphClkInit->PeriphClockSelection) & RCC_PERIPHCLK_LTDC) == RCC_PERIPHCLK_LTDC)
 719:E:/LiteOS/LiteOS_Lab/drivers/third_party/ST/STM32L4xx_HAL_Driver/Src\stm32l4xx_hal_rcc_ex.c ****   {
 720:E:/LiteOS/LiteOS_Lab/drivers/third_party/ST/STM32L4xx_HAL_Driver/Src\stm32l4xx_hal_rcc_ex.c ****     /* Check the parameters */
 721:E:/LiteOS/LiteOS_Lab/drivers/third_party/ST/STM32L4xx_HAL_Driver/Src\stm32l4xx_hal_rcc_ex.c ****     assert_param(IS_RCC_LTDCCLKSOURCE(PeriphClkInit->LtdcClockSelection));
 722:E:/LiteOS/LiteOS_Lab/drivers/third_party/ST/STM32L4xx_HAL_Driver/Src\stm32l4xx_hal_rcc_ex.c **** 
 723:E:/LiteOS/LiteOS_Lab/drivers/third_party/ST/STM32L4xx_HAL_Driver/Src\stm32l4xx_hal_rcc_ex.c ****     /* Disable the PLLSAI2 */
 724:E:/LiteOS/LiteOS_Lab/drivers/third_party/ST/STM32L4xx_HAL_Driver/Src\stm32l4xx_hal_rcc_ex.c ****     __HAL_RCC_PLLSAI2_DISABLE();
 725:E:/LiteOS/LiteOS_Lab/drivers/third_party/ST/STM32L4xx_HAL_Driver/Src\stm32l4xx_hal_rcc_ex.c **** 
 726:E:/LiteOS/LiteOS_Lab/drivers/third_party/ST/STM32L4xx_HAL_Driver/Src\stm32l4xx_hal_rcc_ex.c ****     /* Get Start Tick*/
 727:E:/LiteOS/LiteOS_Lab/drivers/third_party/ST/STM32L4xx_HAL_Driver/Src\stm32l4xx_hal_rcc_ex.c ****     tickstart = HAL_GetTick();
 728:E:/LiteOS/LiteOS_Lab/drivers/third_party/ST/STM32L4xx_HAL_Driver/Src\stm32l4xx_hal_rcc_ex.c **** 
 729:E:/LiteOS/LiteOS_Lab/drivers/third_party/ST/STM32L4xx_HAL_Driver/Src\stm32l4xx_hal_rcc_ex.c ****     /* Wait till PLLSAI2 is ready */
 730:E:/LiteOS/LiteOS_Lab/drivers/third_party/ST/STM32L4xx_HAL_Driver/Src\stm32l4xx_hal_rcc_ex.c ****     while(READ_BIT(RCC->CR, RCC_CR_PLLSAI2RDY) != RESET)
 731:E:/LiteOS/LiteOS_Lab/drivers/third_party/ST/STM32L4xx_HAL_Driver/Src\stm32l4xx_hal_rcc_ex.c ****     {
 732:E:/LiteOS/LiteOS_Lab/drivers/third_party/ST/STM32L4xx_HAL_Driver/Src\stm32l4xx_hal_rcc_ex.c ****       if((HAL_GetTick() - tickstart) > PLLSAI2_TIMEOUT_VALUE)
 733:E:/LiteOS/LiteOS_Lab/drivers/third_party/ST/STM32L4xx_HAL_Driver/Src\stm32l4xx_hal_rcc_ex.c ****       {
 734:E:/LiteOS/LiteOS_Lab/drivers/third_party/ST/STM32L4xx_HAL_Driver/Src\stm32l4xx_hal_rcc_ex.c ****         ret = HAL_TIMEOUT;
 735:E:/LiteOS/LiteOS_Lab/drivers/third_party/ST/STM32L4xx_HAL_Driver/Src\stm32l4xx_hal_rcc_ex.c ****         break;
 736:E:/LiteOS/LiteOS_Lab/drivers/third_party/ST/STM32L4xx_HAL_Driver/Src\stm32l4xx_hal_rcc_ex.c ****       }
 737:E:/LiteOS/LiteOS_Lab/drivers/third_party/ST/STM32L4xx_HAL_Driver/Src\stm32l4xx_hal_rcc_ex.c ****     }
 738:E:/LiteOS/LiteOS_Lab/drivers/third_party/ST/STM32L4xx_HAL_Driver/Src\stm32l4xx_hal_rcc_ex.c **** 
 739:E:/LiteOS/LiteOS_Lab/drivers/third_party/ST/STM32L4xx_HAL_Driver/Src\stm32l4xx_hal_rcc_ex.c ****     if(ret == HAL_OK)
 740:E:/LiteOS/LiteOS_Lab/drivers/third_party/ST/STM32L4xx_HAL_Driver/Src\stm32l4xx_hal_rcc_ex.c ****     {
 741:E:/LiteOS/LiteOS_Lab/drivers/third_party/ST/STM32L4xx_HAL_Driver/Src\stm32l4xx_hal_rcc_ex.c ****       /* Configure the LTDC clock source */
 742:E:/LiteOS/LiteOS_Lab/drivers/third_party/ST/STM32L4xx_HAL_Driver/Src\stm32l4xx_hal_rcc_ex.c ****       __HAL_RCC_LTDC_CONFIG(PeriphClkInit->LtdcClockSelection);
 743:E:/LiteOS/LiteOS_Lab/drivers/third_party/ST/STM32L4xx_HAL_Driver/Src\stm32l4xx_hal_rcc_ex.c **** 
 744:E:/LiteOS/LiteOS_Lab/drivers/third_party/ST/STM32L4xx_HAL_Driver/Src\stm32l4xx_hal_rcc_ex.c ****       /* PLLSAI2 input clock, parameters M, N & R configuration and clock output (PLLSAI2ClockOut) 
 745:E:/LiteOS/LiteOS_Lab/drivers/third_party/ST/STM32L4xx_HAL_Driver/Src\stm32l4xx_hal_rcc_ex.c ****       ret = RCCEx_PLLSAI2_Config(&(PeriphClkInit->PLLSAI2), DIVIDER_R_UPDATE);
 746:E:/LiteOS/LiteOS_Lab/drivers/third_party/ST/STM32L4xx_HAL_Driver/Src\stm32l4xx_hal_rcc_ex.c ****     }
 747:E:/LiteOS/LiteOS_Lab/drivers/third_party/ST/STM32L4xx_HAL_Driver/Src\stm32l4xx_hal_rcc_ex.c **** 
 748:E:/LiteOS/LiteOS_Lab/drivers/third_party/ST/STM32L4xx_HAL_Driver/Src\stm32l4xx_hal_rcc_ex.c ****     if(ret != HAL_OK)
 749:E:/LiteOS/LiteOS_Lab/drivers/third_party/ST/STM32L4xx_HAL_Driver/Src\stm32l4xx_hal_rcc_ex.c ****     {
 750:E:/LiteOS/LiteOS_Lab/drivers/third_party/ST/STM32L4xx_HAL_Driver/Src\stm32l4xx_hal_rcc_ex.c ****       /* set overall return value */
 751:E:/LiteOS/LiteOS_Lab/drivers/third_party/ST/STM32L4xx_HAL_Driver/Src\stm32l4xx_hal_rcc_ex.c ****       status = ret;
 752:E:/LiteOS/LiteOS_Lab/drivers/third_party/ST/STM32L4xx_HAL_Driver/Src\stm32l4xx_hal_rcc_ex.c ****     }
 753:E:/LiteOS/LiteOS_Lab/drivers/third_party/ST/STM32L4xx_HAL_Driver/Src\stm32l4xx_hal_rcc_ex.c ****   }
 754:E:/LiteOS/LiteOS_Lab/drivers/third_party/ST/STM32L4xx_HAL_Driver/Src\stm32l4xx_hal_rcc_ex.c **** 
 755:E:/LiteOS/LiteOS_Lab/drivers/third_party/ST/STM32L4xx_HAL_Driver/Src\stm32l4xx_hal_rcc_ex.c **** #endif /* LTDC */
 756:E:/LiteOS/LiteOS_Lab/drivers/third_party/ST/STM32L4xx_HAL_Driver/Src\stm32l4xx_hal_rcc_ex.c **** 
 757:E:/LiteOS/LiteOS_Lab/drivers/third_party/ST/STM32L4xx_HAL_Driver/Src\stm32l4xx_hal_rcc_ex.c **** #if defined(DSI)
 758:E:/LiteOS/LiteOS_Lab/drivers/third_party/ST/STM32L4xx_HAL_Driver/Src\stm32l4xx_hal_rcc_ex.c **** 
 759:E:/LiteOS/LiteOS_Lab/drivers/third_party/ST/STM32L4xx_HAL_Driver/Src\stm32l4xx_hal_rcc_ex.c ****   /*-------------------------- DSI clock source configuration ---------------------*/
 760:E:/LiteOS/LiteOS_Lab/drivers/third_party/ST/STM32L4xx_HAL_Driver/Src\stm32l4xx_hal_rcc_ex.c ****   if(((PeriphClkInit->PeriphClockSelection) & RCC_PERIPHCLK_DSI) == RCC_PERIPHCLK_DSI)
 761:E:/LiteOS/LiteOS_Lab/drivers/third_party/ST/STM32L4xx_HAL_Driver/Src\stm32l4xx_hal_rcc_ex.c ****   {
 762:E:/LiteOS/LiteOS_Lab/drivers/third_party/ST/STM32L4xx_HAL_Driver/Src\stm32l4xx_hal_rcc_ex.c ****     /* Check the parameters */
 763:E:/LiteOS/LiteOS_Lab/drivers/third_party/ST/STM32L4xx_HAL_Driver/Src\stm32l4xx_hal_rcc_ex.c ****     assert_param(IS_RCC_DSICLKSOURCE(PeriphClkInit->DsiClockSelection));
 764:E:/LiteOS/LiteOS_Lab/drivers/third_party/ST/STM32L4xx_HAL_Driver/Src\stm32l4xx_hal_rcc_ex.c **** 
 765:E:/LiteOS/LiteOS_Lab/drivers/third_party/ST/STM32L4xx_HAL_Driver/Src\stm32l4xx_hal_rcc_ex.c ****     /* Configure the DSI clock source */
 766:E:/LiteOS/LiteOS_Lab/drivers/third_party/ST/STM32L4xx_HAL_Driver/Src\stm32l4xx_hal_rcc_ex.c ****     __HAL_RCC_DSI_CONFIG(PeriphClkInit->DsiClockSelection);
 767:E:/LiteOS/LiteOS_Lab/drivers/third_party/ST/STM32L4xx_HAL_Driver/Src\stm32l4xx_hal_rcc_ex.c **** 
 768:E:/LiteOS/LiteOS_Lab/drivers/third_party/ST/STM32L4xx_HAL_Driver/Src\stm32l4xx_hal_rcc_ex.c ****     if(PeriphClkInit->DsiClockSelection == RCC_DSICLKSOURCE_PLLSAI2)
 769:E:/LiteOS/LiteOS_Lab/drivers/third_party/ST/STM32L4xx_HAL_Driver/Src\stm32l4xx_hal_rcc_ex.c ****     {
 770:E:/LiteOS/LiteOS_Lab/drivers/third_party/ST/STM32L4xx_HAL_Driver/Src\stm32l4xx_hal_rcc_ex.c ****       /* PLLSAI2 input clock, parameters M, N & Q configuration and clock output (PLLSAI2ClockOut) 
 771:E:/LiteOS/LiteOS_Lab/drivers/third_party/ST/STM32L4xx_HAL_Driver/Src\stm32l4xx_hal_rcc_ex.c ****       ret = RCCEx_PLLSAI2_Config(&(PeriphClkInit->PLLSAI2), DIVIDER_Q_UPDATE);
 772:E:/LiteOS/LiteOS_Lab/drivers/third_party/ST/STM32L4xx_HAL_Driver/Src\stm32l4xx_hal_rcc_ex.c **** 
 773:E:/LiteOS/LiteOS_Lab/drivers/third_party/ST/STM32L4xx_HAL_Driver/Src\stm32l4xx_hal_rcc_ex.c ****       if(ret != HAL_OK)
ARM GAS  C:\Users\user\AppData\Local\Temp\ccsJwa9Q.s 			page 25


 774:E:/LiteOS/LiteOS_Lab/drivers/third_party/ST/STM32L4xx_HAL_Driver/Src\stm32l4xx_hal_rcc_ex.c ****       {
 775:E:/LiteOS/LiteOS_Lab/drivers/third_party/ST/STM32L4xx_HAL_Driver/Src\stm32l4xx_hal_rcc_ex.c ****         /* set overall return value */
 776:E:/LiteOS/LiteOS_Lab/drivers/third_party/ST/STM32L4xx_HAL_Driver/Src\stm32l4xx_hal_rcc_ex.c ****         status = ret;
 777:E:/LiteOS/LiteOS_Lab/drivers/third_party/ST/STM32L4xx_HAL_Driver/Src\stm32l4xx_hal_rcc_ex.c ****       }
 778:E:/LiteOS/LiteOS_Lab/drivers/third_party/ST/STM32L4xx_HAL_Driver/Src\stm32l4xx_hal_rcc_ex.c ****     }
 779:E:/LiteOS/LiteOS_Lab/drivers/third_party/ST/STM32L4xx_HAL_Driver/Src\stm32l4xx_hal_rcc_ex.c ****   }
 780:E:/LiteOS/LiteOS_Lab/drivers/third_party/ST/STM32L4xx_HAL_Driver/Src\stm32l4xx_hal_rcc_ex.c **** 
 781:E:/LiteOS/LiteOS_Lab/drivers/third_party/ST/STM32L4xx_HAL_Driver/Src\stm32l4xx_hal_rcc_ex.c **** #endif /* DSI */
 782:E:/LiteOS/LiteOS_Lab/drivers/third_party/ST/STM32L4xx_HAL_Driver/Src\stm32l4xx_hal_rcc_ex.c **** 
 783:E:/LiteOS/LiteOS_Lab/drivers/third_party/ST/STM32L4xx_HAL_Driver/Src\stm32l4xx_hal_rcc_ex.c **** #if defined(OCTOSPI1) || defined(OCTOSPI2)
 784:E:/LiteOS/LiteOS_Lab/drivers/third_party/ST/STM32L4xx_HAL_Driver/Src\stm32l4xx_hal_rcc_ex.c **** 
 785:E:/LiteOS/LiteOS_Lab/drivers/third_party/ST/STM32L4xx_HAL_Driver/Src\stm32l4xx_hal_rcc_ex.c ****   /*-------------------------- OctoSPIx clock source configuration ----------------*/
 786:E:/LiteOS/LiteOS_Lab/drivers/third_party/ST/STM32L4xx_HAL_Driver/Src\stm32l4xx_hal_rcc_ex.c ****   if(((PeriphClkInit->PeriphClockSelection) & RCC_PERIPHCLK_OSPI) == RCC_PERIPHCLK_OSPI)
 787:E:/LiteOS/LiteOS_Lab/drivers/third_party/ST/STM32L4xx_HAL_Driver/Src\stm32l4xx_hal_rcc_ex.c ****   {
 788:E:/LiteOS/LiteOS_Lab/drivers/third_party/ST/STM32L4xx_HAL_Driver/Src\stm32l4xx_hal_rcc_ex.c ****     /* Check the parameters */
 789:E:/LiteOS/LiteOS_Lab/drivers/third_party/ST/STM32L4xx_HAL_Driver/Src\stm32l4xx_hal_rcc_ex.c ****     assert_param(IS_RCC_OSPICLKSOURCE(PeriphClkInit->OspiClockSelection));
 790:E:/LiteOS/LiteOS_Lab/drivers/third_party/ST/STM32L4xx_HAL_Driver/Src\stm32l4xx_hal_rcc_ex.c **** 
 791:E:/LiteOS/LiteOS_Lab/drivers/third_party/ST/STM32L4xx_HAL_Driver/Src\stm32l4xx_hal_rcc_ex.c ****     /* Configure the OctoSPI clock source */
 792:E:/LiteOS/LiteOS_Lab/drivers/third_party/ST/STM32L4xx_HAL_Driver/Src\stm32l4xx_hal_rcc_ex.c ****     __HAL_RCC_OSPI_CONFIG(PeriphClkInit->OspiClockSelection);
 793:E:/LiteOS/LiteOS_Lab/drivers/third_party/ST/STM32L4xx_HAL_Driver/Src\stm32l4xx_hal_rcc_ex.c **** 
 794:E:/LiteOS/LiteOS_Lab/drivers/third_party/ST/STM32L4xx_HAL_Driver/Src\stm32l4xx_hal_rcc_ex.c ****     if(PeriphClkInit->OspiClockSelection == RCC_OSPICLKSOURCE_PLL)
 795:E:/LiteOS/LiteOS_Lab/drivers/third_party/ST/STM32L4xx_HAL_Driver/Src\stm32l4xx_hal_rcc_ex.c ****     {
 796:E:/LiteOS/LiteOS_Lab/drivers/third_party/ST/STM32L4xx_HAL_Driver/Src\stm32l4xx_hal_rcc_ex.c ****       /* Enable PLL48M1CLK output */
 797:E:/LiteOS/LiteOS_Lab/drivers/third_party/ST/STM32L4xx_HAL_Driver/Src\stm32l4xx_hal_rcc_ex.c ****       __HAL_RCC_PLLCLKOUT_ENABLE(RCC_PLL_48M1CLK);
 798:E:/LiteOS/LiteOS_Lab/drivers/third_party/ST/STM32L4xx_HAL_Driver/Src\stm32l4xx_hal_rcc_ex.c ****     }
 799:E:/LiteOS/LiteOS_Lab/drivers/third_party/ST/STM32L4xx_HAL_Driver/Src\stm32l4xx_hal_rcc_ex.c ****   }
 800:E:/LiteOS/LiteOS_Lab/drivers/third_party/ST/STM32L4xx_HAL_Driver/Src\stm32l4xx_hal_rcc_ex.c **** 
 801:E:/LiteOS/LiteOS_Lab/drivers/third_party/ST/STM32L4xx_HAL_Driver/Src\stm32l4xx_hal_rcc_ex.c **** #endif /* OCTOSPI1 || OCTOSPI2 */
 802:E:/LiteOS/LiteOS_Lab/drivers/third_party/ST/STM32L4xx_HAL_Driver/Src\stm32l4xx_hal_rcc_ex.c **** 
 803:E:/LiteOS/LiteOS_Lab/drivers/third_party/ST/STM32L4xx_HAL_Driver/Src\stm32l4xx_hal_rcc_ex.c ****   return status;
 594              		.loc 1 803 0
 595 0418 BB7C     		ldrb	r3, [r7, #18]	@ zero_extendqisi2
 804:E:/LiteOS/LiteOS_Lab/drivers/third_party/ST/STM32L4xx_HAL_Driver/Src\stm32l4xx_hal_rcc_ex.c **** }
 596              		.loc 1 804 0
 597 041a 1846     		mov	r0, r3
 598 041c 1837     		adds	r7, r7, #24
 599              	.LCFI3:
 600              		.cfi_def_cfa_offset 8
 601 041e BD46     		mov	sp, r7
 602              	.LCFI4:
 603              		.cfi_def_cfa_register 13
 604              		@ sp needed
 605 0420 80BD     		pop	{r7, pc}
 606              	.L43:
 607 0422 00BF     		.align	2
 608              	.L42:
 609 0424 00100240 		.word	1073876992
 610              		.cfi_endproc
 611              	.LFE133:
 613              		.section	.text.HAL_RCCEx_GetPeriphCLKConfig,"ax",%progbits
 614              		.align	1
 615              		.global	HAL_RCCEx_GetPeriphCLKConfig
 616              		.syntax unified
 617              		.thumb
 618              		.thumb_func
 619              		.fpu fpv4-sp-d16
 621              	HAL_RCCEx_GetPeriphCLKConfig:
ARM GAS  C:\Users\user\AppData\Local\Temp\ccsJwa9Q.s 			page 26


 622              	.LFB134:
 805:E:/LiteOS/LiteOS_Lab/drivers/third_party/ST/STM32L4xx_HAL_Driver/Src\stm32l4xx_hal_rcc_ex.c **** 
 806:E:/LiteOS/LiteOS_Lab/drivers/third_party/ST/STM32L4xx_HAL_Driver/Src\stm32l4xx_hal_rcc_ex.c **** /**
 807:E:/LiteOS/LiteOS_Lab/drivers/third_party/ST/STM32L4xx_HAL_Driver/Src\stm32l4xx_hal_rcc_ex.c ****   * @brief  Get the RCC_ClkInitStruct according to the internal RCC configuration registers.
 808:E:/LiteOS/LiteOS_Lab/drivers/third_party/ST/STM32L4xx_HAL_Driver/Src\stm32l4xx_hal_rcc_ex.c ****   * @param  PeriphClkInit  pointer to an RCC_PeriphCLKInitTypeDef structure that
 809:E:/LiteOS/LiteOS_Lab/drivers/third_party/ST/STM32L4xx_HAL_Driver/Src\stm32l4xx_hal_rcc_ex.c ****   *         returns the configuration information for the Extended Peripherals
 810:E:/LiteOS/LiteOS_Lab/drivers/third_party/ST/STM32L4xx_HAL_Driver/Src\stm32l4xx_hal_rcc_ex.c ****   *         clocks(SAI1, SAI2, LPTIM1, LPTIM2, I2C1, I2C2, I2C3, I2C4, LPUART,
 811:E:/LiteOS/LiteOS_Lab/drivers/third_party/ST/STM32L4xx_HAL_Driver/Src\stm32l4xx_hal_rcc_ex.c ****   *         USART1, USART2, USART3, UART4, UART5, RTC, ADCx, DFSDMx, SWPMI1, USB, SDMMC1 and RNG).
 812:E:/LiteOS/LiteOS_Lab/drivers/third_party/ST/STM32L4xx_HAL_Driver/Src\stm32l4xx_hal_rcc_ex.c ****   * @retval None
 813:E:/LiteOS/LiteOS_Lab/drivers/third_party/ST/STM32L4xx_HAL_Driver/Src\stm32l4xx_hal_rcc_ex.c ****   */
 814:E:/LiteOS/LiteOS_Lab/drivers/third_party/ST/STM32L4xx_HAL_Driver/Src\stm32l4xx_hal_rcc_ex.c **** void HAL_RCCEx_GetPeriphCLKConfig(RCC_PeriphCLKInitTypeDef  *PeriphClkInit)
 815:E:/LiteOS/LiteOS_Lab/drivers/third_party/ST/STM32L4xx_HAL_Driver/Src\stm32l4xx_hal_rcc_ex.c **** {
 623              		.loc 1 815 0
 624              		.cfi_startproc
 625              		@ args = 0, pretend = 0, frame = 8
 626              		@ frame_needed = 1, uses_anonymous_args = 0
 627              		@ link register save eliminated.
 628 0000 80B4     		push	{r7}
 629              	.LCFI5:
 630              		.cfi_def_cfa_offset 4
 631              		.cfi_offset 7, -4
 632 0002 83B0     		sub	sp, sp, #12
 633              	.LCFI6:
 634              		.cfi_def_cfa_offset 16
 635 0004 00AF     		add	r7, sp, #0
 636              	.LCFI7:
 637              		.cfi_def_cfa_register 7
 638 0006 7860     		str	r0, [r7, #4]
 816:E:/LiteOS/LiteOS_Lab/drivers/third_party/ST/STM32L4xx_HAL_Driver/Src\stm32l4xx_hal_rcc_ex.c ****   /* Set all possible values for the extended clock type parameter------------*/
 817:E:/LiteOS/LiteOS_Lab/drivers/third_party/ST/STM32L4xx_HAL_Driver/Src\stm32l4xx_hal_rcc_ex.c **** 
 818:E:/LiteOS/LiteOS_Lab/drivers/third_party/ST/STM32L4xx_HAL_Driver/Src\stm32l4xx_hal_rcc_ex.c **** #if defined(STM32L431xx)
 819:E:/LiteOS/LiteOS_Lab/drivers/third_party/ST/STM32L4xx_HAL_Driver/Src\stm32l4xx_hal_rcc_ex.c **** 
 820:E:/LiteOS/LiteOS_Lab/drivers/third_party/ST/STM32L4xx_HAL_Driver/Src\stm32l4xx_hal_rcc_ex.c ****   PeriphClkInit->PeriphClockSelection = RCC_PERIPHCLK_USART1  | RCC_PERIPHCLK_USART2 | RCC_PERIPHCL
 639              		.loc 1 820 0
 640 0008 7B68     		ldr	r3, [r7, #4]
 641 000a 504A     		ldr	r2, .L45
 642 000c 1A60     		str	r2, [r3]
 821:E:/LiteOS/LiteOS_Lab/drivers/third_party/ST/STM32L4xx_HAL_Driver/Src\stm32l4xx_hal_rcc_ex.c ****                                         RCC_PERIPHCLK_LPUART1 | RCC_PERIPHCLK_I2C1   | RCC_PERIPHCL
 822:E:/LiteOS/LiteOS_Lab/drivers/third_party/ST/STM32L4xx_HAL_Driver/Src\stm32l4xx_hal_rcc_ex.c ****                                         RCC_PERIPHCLK_LPTIM1  | RCC_PERIPHCLK_LPTIM2 | RCC_PERIPHCL
 823:E:/LiteOS/LiteOS_Lab/drivers/third_party/ST/STM32L4xx_HAL_Driver/Src\stm32l4xx_hal_rcc_ex.c ****                                         RCC_PERIPHCLK_SDMMC1  | RCC_PERIPHCLK_RNG    | RCC_PERIPHCL
 824:E:/LiteOS/LiteOS_Lab/drivers/third_party/ST/STM32L4xx_HAL_Driver/Src\stm32l4xx_hal_rcc_ex.c ****                                         RCC_PERIPHCLK_RTC ;
 825:E:/LiteOS/LiteOS_Lab/drivers/third_party/ST/STM32L4xx_HAL_Driver/Src\stm32l4xx_hal_rcc_ex.c **** 
 826:E:/LiteOS/LiteOS_Lab/drivers/third_party/ST/STM32L4xx_HAL_Driver/Src\stm32l4xx_hal_rcc_ex.c **** #elif defined(STM32L432xx) || defined(STM32L442xx)
 827:E:/LiteOS/LiteOS_Lab/drivers/third_party/ST/STM32L4xx_HAL_Driver/Src\stm32l4xx_hal_rcc_ex.c **** 
 828:E:/LiteOS/LiteOS_Lab/drivers/third_party/ST/STM32L4xx_HAL_Driver/Src\stm32l4xx_hal_rcc_ex.c ****   PeriphClkInit->PeriphClockSelection = RCC_PERIPHCLK_USART1  | RCC_PERIPHCLK_USART2 |             
 829:E:/LiteOS/LiteOS_Lab/drivers/third_party/ST/STM32L4xx_HAL_Driver/Src\stm32l4xx_hal_rcc_ex.c ****                                         RCC_PERIPHCLK_LPUART1 | RCC_PERIPHCLK_I2C1   |             
 830:E:/LiteOS/LiteOS_Lab/drivers/third_party/ST/STM32L4xx_HAL_Driver/Src\stm32l4xx_hal_rcc_ex.c ****                                         RCC_PERIPHCLK_LPTIM1  | RCC_PERIPHCLK_LPTIM2 | RCC_PERIPHCL
 831:E:/LiteOS/LiteOS_Lab/drivers/third_party/ST/STM32L4xx_HAL_Driver/Src\stm32l4xx_hal_rcc_ex.c ****                                                                 RCC_PERIPHCLK_RNG    | RCC_PERIPHCL
 832:E:/LiteOS/LiteOS_Lab/drivers/third_party/ST/STM32L4xx_HAL_Driver/Src\stm32l4xx_hal_rcc_ex.c ****                                         RCC_PERIPHCLK_RTC ;
 833:E:/LiteOS/LiteOS_Lab/drivers/third_party/ST/STM32L4xx_HAL_Driver/Src\stm32l4xx_hal_rcc_ex.c **** 
 834:E:/LiteOS/LiteOS_Lab/drivers/third_party/ST/STM32L4xx_HAL_Driver/Src\stm32l4xx_hal_rcc_ex.c **** #elif defined(STM32L433xx) || defined(STM32L443xx)
 835:E:/LiteOS/LiteOS_Lab/drivers/third_party/ST/STM32L4xx_HAL_Driver/Src\stm32l4xx_hal_rcc_ex.c **** 
 836:E:/LiteOS/LiteOS_Lab/drivers/third_party/ST/STM32L4xx_HAL_Driver/Src\stm32l4xx_hal_rcc_ex.c ****   PeriphClkInit->PeriphClockSelection = RCC_PERIPHCLK_USART1  | RCC_PERIPHCLK_USART2 | RCC_PERIPHCL
 837:E:/LiteOS/LiteOS_Lab/drivers/third_party/ST/STM32L4xx_HAL_Driver/Src\stm32l4xx_hal_rcc_ex.c ****                                         RCC_PERIPHCLK_LPUART1 | RCC_PERIPHCLK_I2C1   | RCC_PERIPHCL
 838:E:/LiteOS/LiteOS_Lab/drivers/third_party/ST/STM32L4xx_HAL_Driver/Src\stm32l4xx_hal_rcc_ex.c ****                                         RCC_PERIPHCLK_LPTIM1  | RCC_PERIPHCLK_LPTIM2 | RCC_PERIPHCL
 839:E:/LiteOS/LiteOS_Lab/drivers/third_party/ST/STM32L4xx_HAL_Driver/Src\stm32l4xx_hal_rcc_ex.c ****                                         RCC_PERIPHCLK_SDMMC1  | RCC_PERIPHCLK_RNG    | RCC_PERIPHCL
 840:E:/LiteOS/LiteOS_Lab/drivers/third_party/ST/STM32L4xx_HAL_Driver/Src\stm32l4xx_hal_rcc_ex.c ****                                         RCC_PERIPHCLK_RTC ;
ARM GAS  C:\Users\user\AppData\Local\Temp\ccsJwa9Q.s 			page 27


 841:E:/LiteOS/LiteOS_Lab/drivers/third_party/ST/STM32L4xx_HAL_Driver/Src\stm32l4xx_hal_rcc_ex.c **** 
 842:E:/LiteOS/LiteOS_Lab/drivers/third_party/ST/STM32L4xx_HAL_Driver/Src\stm32l4xx_hal_rcc_ex.c **** #elif defined(STM32L451xx)
 843:E:/LiteOS/LiteOS_Lab/drivers/third_party/ST/STM32L4xx_HAL_Driver/Src\stm32l4xx_hal_rcc_ex.c **** 
 844:E:/LiteOS/LiteOS_Lab/drivers/third_party/ST/STM32L4xx_HAL_Driver/Src\stm32l4xx_hal_rcc_ex.c ****   PeriphClkInit->PeriphClockSelection = RCC_PERIPHCLK_USART1  | RCC_PERIPHCLK_USART2 | RCC_PERIPHCL
 845:E:/LiteOS/LiteOS_Lab/drivers/third_party/ST/STM32L4xx_HAL_Driver/Src\stm32l4xx_hal_rcc_ex.c ****                                         RCC_PERIPHCLK_LPUART1 | RCC_PERIPHCLK_I2C1   | RCC_PERIPHCL
 846:E:/LiteOS/LiteOS_Lab/drivers/third_party/ST/STM32L4xx_HAL_Driver/Src\stm32l4xx_hal_rcc_ex.c ****                                         RCC_PERIPHCLK_LPTIM1  | RCC_PERIPHCLK_LPTIM2 | RCC_PERIPHCL
 847:E:/LiteOS/LiteOS_Lab/drivers/third_party/ST/STM32L4xx_HAL_Driver/Src\stm32l4xx_hal_rcc_ex.c ****                                         RCC_PERIPHCLK_SDMMC1  | RCC_PERIPHCLK_RNG    | RCC_PERIPHCL
 848:E:/LiteOS/LiteOS_Lab/drivers/third_party/ST/STM32L4xx_HAL_Driver/Src\stm32l4xx_hal_rcc_ex.c ****                                         RCC_PERIPHCLK_RTC ;
 849:E:/LiteOS/LiteOS_Lab/drivers/third_party/ST/STM32L4xx_HAL_Driver/Src\stm32l4xx_hal_rcc_ex.c **** 
 850:E:/LiteOS/LiteOS_Lab/drivers/third_party/ST/STM32L4xx_HAL_Driver/Src\stm32l4xx_hal_rcc_ex.c **** #elif defined(STM32L452xx) || defined(STM32L462xx)
 851:E:/LiteOS/LiteOS_Lab/drivers/third_party/ST/STM32L4xx_HAL_Driver/Src\stm32l4xx_hal_rcc_ex.c **** 
 852:E:/LiteOS/LiteOS_Lab/drivers/third_party/ST/STM32L4xx_HAL_Driver/Src\stm32l4xx_hal_rcc_ex.c ****   PeriphClkInit->PeriphClockSelection = RCC_PERIPHCLK_USART1  | RCC_PERIPHCLK_USART2 | RCC_PERIPHCL
 853:E:/LiteOS/LiteOS_Lab/drivers/third_party/ST/STM32L4xx_HAL_Driver/Src\stm32l4xx_hal_rcc_ex.c ****                                         RCC_PERIPHCLK_LPUART1 | RCC_PERIPHCLK_I2C1   | RCC_PERIPHCL
 854:E:/LiteOS/LiteOS_Lab/drivers/third_party/ST/STM32L4xx_HAL_Driver/Src\stm32l4xx_hal_rcc_ex.c ****                                         RCC_PERIPHCLK_LPTIM1  | RCC_PERIPHCLK_LPTIM2 | RCC_PERIPHCL
 855:E:/LiteOS/LiteOS_Lab/drivers/third_party/ST/STM32L4xx_HAL_Driver/Src\stm32l4xx_hal_rcc_ex.c ****                                         RCC_PERIPHCLK_SDMMC1  | RCC_PERIPHCLK_RNG    | RCC_PERIPHCL
 856:E:/LiteOS/LiteOS_Lab/drivers/third_party/ST/STM32L4xx_HAL_Driver/Src\stm32l4xx_hal_rcc_ex.c ****                                         RCC_PERIPHCLK_RTC ;
 857:E:/LiteOS/LiteOS_Lab/drivers/third_party/ST/STM32L4xx_HAL_Driver/Src\stm32l4xx_hal_rcc_ex.c **** 
 858:E:/LiteOS/LiteOS_Lab/drivers/third_party/ST/STM32L4xx_HAL_Driver/Src\stm32l4xx_hal_rcc_ex.c **** #elif defined(STM32L471xx)
 859:E:/LiteOS/LiteOS_Lab/drivers/third_party/ST/STM32L4xx_HAL_Driver/Src\stm32l4xx_hal_rcc_ex.c **** 
 860:E:/LiteOS/LiteOS_Lab/drivers/third_party/ST/STM32L4xx_HAL_Driver/Src\stm32l4xx_hal_rcc_ex.c ****   PeriphClkInit->PeriphClockSelection = RCC_PERIPHCLK_USART1  | RCC_PERIPHCLK_USART2 | RCC_PERIPHCL
 861:E:/LiteOS/LiteOS_Lab/drivers/third_party/ST/STM32L4xx_HAL_Driver/Src\stm32l4xx_hal_rcc_ex.c ****                                         RCC_PERIPHCLK_LPUART1 | RCC_PERIPHCLK_I2C1   | RCC_PERIPHCL
 862:E:/LiteOS/LiteOS_Lab/drivers/third_party/ST/STM32L4xx_HAL_Driver/Src\stm32l4xx_hal_rcc_ex.c ****                                         RCC_PERIPHCLK_LPTIM1  | RCC_PERIPHCLK_LPTIM2 | RCC_PERIPHCL
 863:E:/LiteOS/LiteOS_Lab/drivers/third_party/ST/STM32L4xx_HAL_Driver/Src\stm32l4xx_hal_rcc_ex.c ****                                         RCC_PERIPHCLK_SDMMC1  | RCC_PERIPHCLK_RNG    | RCC_PERIPHCL
 864:E:/LiteOS/LiteOS_Lab/drivers/third_party/ST/STM32L4xx_HAL_Driver/Src\stm32l4xx_hal_rcc_ex.c ****                                         RCC_PERIPHCLK_RTC ;
 865:E:/LiteOS/LiteOS_Lab/drivers/third_party/ST/STM32L4xx_HAL_Driver/Src\stm32l4xx_hal_rcc_ex.c **** 
 866:E:/LiteOS/LiteOS_Lab/drivers/third_party/ST/STM32L4xx_HAL_Driver/Src\stm32l4xx_hal_rcc_ex.c **** #elif defined(STM32L475xx) || defined(STM32L476xx) || defined(STM32L485xx) || defined(STM32L486xx)
 867:E:/LiteOS/LiteOS_Lab/drivers/third_party/ST/STM32L4xx_HAL_Driver/Src\stm32l4xx_hal_rcc_ex.c **** 
 868:E:/LiteOS/LiteOS_Lab/drivers/third_party/ST/STM32L4xx_HAL_Driver/Src\stm32l4xx_hal_rcc_ex.c ****   PeriphClkInit->PeriphClockSelection = RCC_PERIPHCLK_USART1  | RCC_PERIPHCLK_USART2 | RCC_PERIPHCL
 869:E:/LiteOS/LiteOS_Lab/drivers/third_party/ST/STM32L4xx_HAL_Driver/Src\stm32l4xx_hal_rcc_ex.c ****                                         RCC_PERIPHCLK_LPUART1 | RCC_PERIPHCLK_I2C1   | RCC_PERIPHCL
 870:E:/LiteOS/LiteOS_Lab/drivers/third_party/ST/STM32L4xx_HAL_Driver/Src\stm32l4xx_hal_rcc_ex.c ****                                         RCC_PERIPHCLK_LPTIM1  | RCC_PERIPHCLK_LPTIM2 | RCC_PERIPHCL
 871:E:/LiteOS/LiteOS_Lab/drivers/third_party/ST/STM32L4xx_HAL_Driver/Src\stm32l4xx_hal_rcc_ex.c ****                                         RCC_PERIPHCLK_SDMMC1  | RCC_PERIPHCLK_RNG    | RCC_PERIPHCL
 872:E:/LiteOS/LiteOS_Lab/drivers/third_party/ST/STM32L4xx_HAL_Driver/Src\stm32l4xx_hal_rcc_ex.c ****                                         RCC_PERIPHCLK_RTC ;
 873:E:/LiteOS/LiteOS_Lab/drivers/third_party/ST/STM32L4xx_HAL_Driver/Src\stm32l4xx_hal_rcc_ex.c **** 
 874:E:/LiteOS/LiteOS_Lab/drivers/third_party/ST/STM32L4xx_HAL_Driver/Src\stm32l4xx_hal_rcc_ex.c **** #elif defined(STM32L496xx) || defined(STM32L4A6xx)
 875:E:/LiteOS/LiteOS_Lab/drivers/third_party/ST/STM32L4xx_HAL_Driver/Src\stm32l4xx_hal_rcc_ex.c **** 
 876:E:/LiteOS/LiteOS_Lab/drivers/third_party/ST/STM32L4xx_HAL_Driver/Src\stm32l4xx_hal_rcc_ex.c ****   PeriphClkInit->PeriphClockSelection = RCC_PERIPHCLK_USART1  | RCC_PERIPHCLK_USART2 | RCC_PERIPHCL
 877:E:/LiteOS/LiteOS_Lab/drivers/third_party/ST/STM32L4xx_HAL_Driver/Src\stm32l4xx_hal_rcc_ex.c ****                                         RCC_PERIPHCLK_LPUART1 | RCC_PERIPHCLK_I2C1   | RCC_PERIPHCL
 878:E:/LiteOS/LiteOS_Lab/drivers/third_party/ST/STM32L4xx_HAL_Driver/Src\stm32l4xx_hal_rcc_ex.c ****                                         RCC_PERIPHCLK_LPTIM1  | RCC_PERIPHCLK_LPTIM2 | RCC_PERIPHCL
 879:E:/LiteOS/LiteOS_Lab/drivers/third_party/ST/STM32L4xx_HAL_Driver/Src\stm32l4xx_hal_rcc_ex.c ****                                         RCC_PERIPHCLK_SDMMC1  | RCC_PERIPHCLK_RNG    | RCC_PERIPHCL
 880:E:/LiteOS/LiteOS_Lab/drivers/third_party/ST/STM32L4xx_HAL_Driver/Src\stm32l4xx_hal_rcc_ex.c ****                                         RCC_PERIPHCLK_RTC ;
 881:E:/LiteOS/LiteOS_Lab/drivers/third_party/ST/STM32L4xx_HAL_Driver/Src\stm32l4xx_hal_rcc_ex.c **** 
 882:E:/LiteOS/LiteOS_Lab/drivers/third_party/ST/STM32L4xx_HAL_Driver/Src\stm32l4xx_hal_rcc_ex.c **** #elif defined(STM32L4R5xx) || defined(STM32L4S5xx)
 883:E:/LiteOS/LiteOS_Lab/drivers/third_party/ST/STM32L4xx_HAL_Driver/Src\stm32l4xx_hal_rcc_ex.c **** 
 884:E:/LiteOS/LiteOS_Lab/drivers/third_party/ST/STM32L4xx_HAL_Driver/Src\stm32l4xx_hal_rcc_ex.c ****   PeriphClkInit->PeriphClockSelection = RCC_PERIPHCLK_USART1  | RCC_PERIPHCLK_USART2 | RCC_PERIPHCL
 885:E:/LiteOS/LiteOS_Lab/drivers/third_party/ST/STM32L4xx_HAL_Driver/Src\stm32l4xx_hal_rcc_ex.c ****                                         RCC_PERIPHCLK_LPUART1 | RCC_PERIPHCLK_I2C1   | RCC_PERIPHCL
 886:E:/LiteOS/LiteOS_Lab/drivers/third_party/ST/STM32L4xx_HAL_Driver/Src\stm32l4xx_hal_rcc_ex.c ****                                         RCC_PERIPHCLK_LPTIM1  | RCC_PERIPHCLK_LPTIM2 | RCC_PERIPHCL
 887:E:/LiteOS/LiteOS_Lab/drivers/third_party/ST/STM32L4xx_HAL_Driver/Src\stm32l4xx_hal_rcc_ex.c ****                                         RCC_PERIPHCLK_SDMMC1  | RCC_PERIPHCLK_RNG    | RCC_PERIPHCL
 888:E:/LiteOS/LiteOS_Lab/drivers/third_party/ST/STM32L4xx_HAL_Driver/Src\stm32l4xx_hal_rcc_ex.c ****                                         RCC_PERIPHCLK_DFSDM1AUDIO | RCC_PERIPHCLK_RTC | RCC_PERIPHC
 889:E:/LiteOS/LiteOS_Lab/drivers/third_party/ST/STM32L4xx_HAL_Driver/Src\stm32l4xx_hal_rcc_ex.c **** 
 890:E:/LiteOS/LiteOS_Lab/drivers/third_party/ST/STM32L4xx_HAL_Driver/Src\stm32l4xx_hal_rcc_ex.c **** #elif defined(STM32L4R7xx) || defined(STM32L4S7xx)
 891:E:/LiteOS/LiteOS_Lab/drivers/third_party/ST/STM32L4xx_HAL_Driver/Src\stm32l4xx_hal_rcc_ex.c **** 
 892:E:/LiteOS/LiteOS_Lab/drivers/third_party/ST/STM32L4xx_HAL_Driver/Src\stm32l4xx_hal_rcc_ex.c ****   PeriphClkInit->PeriphClockSelection = RCC_PERIPHCLK_USART1  | RCC_PERIPHCLK_USART2 | RCC_PERIPHCL
 893:E:/LiteOS/LiteOS_Lab/drivers/third_party/ST/STM32L4xx_HAL_Driver/Src\stm32l4xx_hal_rcc_ex.c ****                                         RCC_PERIPHCLK_LPUART1 | RCC_PERIPHCLK_I2C1   | RCC_PERIPHCL
 894:E:/LiteOS/LiteOS_Lab/drivers/third_party/ST/STM32L4xx_HAL_Driver/Src\stm32l4xx_hal_rcc_ex.c ****                                         RCC_PERIPHCLK_LPTIM1  | RCC_PERIPHCLK_LPTIM2 | RCC_PERIPHCL
 895:E:/LiteOS/LiteOS_Lab/drivers/third_party/ST/STM32L4xx_HAL_Driver/Src\stm32l4xx_hal_rcc_ex.c ****                                         RCC_PERIPHCLK_SDMMC1  | RCC_PERIPHCLK_RNG    | RCC_PERIPHCL
 896:E:/LiteOS/LiteOS_Lab/drivers/third_party/ST/STM32L4xx_HAL_Driver/Src\stm32l4xx_hal_rcc_ex.c ****                                         RCC_PERIPHCLK_DFSDM1AUDIO | RCC_PERIPHCLK_RTC | RCC_PERIPHC
 897:E:/LiteOS/LiteOS_Lab/drivers/third_party/ST/STM32L4xx_HAL_Driver/Src\stm32l4xx_hal_rcc_ex.c **** 
ARM GAS  C:\Users\user\AppData\Local\Temp\ccsJwa9Q.s 			page 28


 898:E:/LiteOS/LiteOS_Lab/drivers/third_party/ST/STM32L4xx_HAL_Driver/Src\stm32l4xx_hal_rcc_ex.c **** #elif defined(STM32L4R9xx) || defined(STM32L4S9xx)
 899:E:/LiteOS/LiteOS_Lab/drivers/third_party/ST/STM32L4xx_HAL_Driver/Src\stm32l4xx_hal_rcc_ex.c **** 
 900:E:/LiteOS/LiteOS_Lab/drivers/third_party/ST/STM32L4xx_HAL_Driver/Src\stm32l4xx_hal_rcc_ex.c ****   PeriphClkInit->PeriphClockSelection = RCC_PERIPHCLK_USART1  | RCC_PERIPHCLK_USART2 | RCC_PERIPHCL
 901:E:/LiteOS/LiteOS_Lab/drivers/third_party/ST/STM32L4xx_HAL_Driver/Src\stm32l4xx_hal_rcc_ex.c ****                                         RCC_PERIPHCLK_LPUART1 | RCC_PERIPHCLK_I2C1   | RCC_PERIPHCL
 902:E:/LiteOS/LiteOS_Lab/drivers/third_party/ST/STM32L4xx_HAL_Driver/Src\stm32l4xx_hal_rcc_ex.c ****                                         RCC_PERIPHCLK_LPTIM1  | RCC_PERIPHCLK_LPTIM2 | RCC_PERIPHCL
 903:E:/LiteOS/LiteOS_Lab/drivers/third_party/ST/STM32L4xx_HAL_Driver/Src\stm32l4xx_hal_rcc_ex.c ****                                         RCC_PERIPHCLK_SDMMC1  | RCC_PERIPHCLK_RNG    | RCC_PERIPHCL
 904:E:/LiteOS/LiteOS_Lab/drivers/third_party/ST/STM32L4xx_HAL_Driver/Src\stm32l4xx_hal_rcc_ex.c ****                                         RCC_PERIPHCLK_DFSDM1AUDIO | RCC_PERIPHCLK_RTC | RCC_PERIPHC
 905:E:/LiteOS/LiteOS_Lab/drivers/third_party/ST/STM32L4xx_HAL_Driver/Src\stm32l4xx_hal_rcc_ex.c **** 
 906:E:/LiteOS/LiteOS_Lab/drivers/third_party/ST/STM32L4xx_HAL_Driver/Src\stm32l4xx_hal_rcc_ex.c **** #endif /* STM32L431xx */
 907:E:/LiteOS/LiteOS_Lab/drivers/third_party/ST/STM32L4xx_HAL_Driver/Src\stm32l4xx_hal_rcc_ex.c **** 
 908:E:/LiteOS/LiteOS_Lab/drivers/third_party/ST/STM32L4xx_HAL_Driver/Src\stm32l4xx_hal_rcc_ex.c ****   /* Get the PLLSAI1 Clock configuration -----------------------------------------------*/
 909:E:/LiteOS/LiteOS_Lab/drivers/third_party/ST/STM32L4xx_HAL_Driver/Src\stm32l4xx_hal_rcc_ex.c **** 
 910:E:/LiteOS/LiteOS_Lab/drivers/third_party/ST/STM32L4xx_HAL_Driver/Src\stm32l4xx_hal_rcc_ex.c ****   PeriphClkInit->PLLSAI1.PLLSAI1Source = READ_BIT(RCC->PLLCFGR, RCC_PLLCFGR_PLLSRC) >> RCC_PLLCFGR_
 643              		.loc 1 910 0
 644 000e 504B     		ldr	r3, .L45+4
 645 0010 DB68     		ldr	r3, [r3, #12]
 646 0012 03F00302 		and	r2, r3, #3
 647 0016 7B68     		ldr	r3, [r7, #4]
 648 0018 5A60     		str	r2, [r3, #4]
 911:E:/LiteOS/LiteOS_Lab/drivers/third_party/ST/STM32L4xx_HAL_Driver/Src\stm32l4xx_hal_rcc_ex.c **** #if defined(RCC_PLLSAI1M_DIV_1_16_SUPPORT)
 912:E:/LiteOS/LiteOS_Lab/drivers/third_party/ST/STM32L4xx_HAL_Driver/Src\stm32l4xx_hal_rcc_ex.c ****   PeriphClkInit->PLLSAI1.PLLSAI1M = (READ_BIT(RCC->PLLSAI1CFGR, RCC_PLLSAI1CFGR_PLLSAI1M) >> RCC_PL
 913:E:/LiteOS/LiteOS_Lab/drivers/third_party/ST/STM32L4xx_HAL_Driver/Src\stm32l4xx_hal_rcc_ex.c **** #else
 914:E:/LiteOS/LiteOS_Lab/drivers/third_party/ST/STM32L4xx_HAL_Driver/Src\stm32l4xx_hal_rcc_ex.c ****   PeriphClkInit->PLLSAI1.PLLSAI1M = (READ_BIT(RCC->PLLCFGR, RCC_PLLCFGR_PLLM) >> RCC_PLLCFGR_PLLM_P
 649              		.loc 1 914 0
 650 001a 4D4B     		ldr	r3, .L45+4
 651 001c DB68     		ldr	r3, [r3, #12]
 652 001e 1B09     		lsrs	r3, r3, #4
 653 0020 03F00703 		and	r3, r3, #7
 654 0024 5A1C     		adds	r2, r3, #1
 655 0026 7B68     		ldr	r3, [r7, #4]
 656 0028 9A60     		str	r2, [r3, #8]
 915:E:/LiteOS/LiteOS_Lab/drivers/third_party/ST/STM32L4xx_HAL_Driver/Src\stm32l4xx_hal_rcc_ex.c **** #endif /* RCC_PLLSAI1M_DIV_1_16_SUPPORT */
 916:E:/LiteOS/LiteOS_Lab/drivers/third_party/ST/STM32L4xx_HAL_Driver/Src\stm32l4xx_hal_rcc_ex.c ****   PeriphClkInit->PLLSAI1.PLLSAI1N = READ_BIT(RCC->PLLSAI1CFGR, RCC_PLLSAI1CFGR_PLLSAI1N) >> RCC_PLL
 657              		.loc 1 916 0
 658 002a 494B     		ldr	r3, .L45+4
 659 002c 1B69     		ldr	r3, [r3, #16]
 660 002e 1B0A     		lsrs	r3, r3, #8
 661 0030 03F07F02 		and	r2, r3, #127
 662 0034 7B68     		ldr	r3, [r7, #4]
 663 0036 DA60     		str	r2, [r3, #12]
 917:E:/LiteOS/LiteOS_Lab/drivers/third_party/ST/STM32L4xx_HAL_Driver/Src\stm32l4xx_hal_rcc_ex.c ****   PeriphClkInit->PLLSAI1.PLLSAI1P = ((READ_BIT(RCC->PLLSAI1CFGR, RCC_PLLSAI1CFGR_PLLSAI1P) >> RCC_P
 664              		.loc 1 917 0
 665 0038 454B     		ldr	r3, .L45+4
 666 003a 1B69     		ldr	r3, [r3, #16]
 667 003c 5B0C     		lsrs	r3, r3, #17
 668 003e 1B01     		lsls	r3, r3, #4
 669 0040 03F01003 		and	r3, r3, #16
 670 0044 DA1D     		adds	r2, r3, #7
 671 0046 7B68     		ldr	r3, [r7, #4]
 672 0048 1A61     		str	r2, [r3, #16]
 918:E:/LiteOS/LiteOS_Lab/drivers/third_party/ST/STM32L4xx_HAL_Driver/Src\stm32l4xx_hal_rcc_ex.c ****   PeriphClkInit->PLLSAI1.PLLSAI1Q = ((READ_BIT(RCC->PLLSAI1CFGR, RCC_PLLSAI1CFGR_PLLSAI1Q) >> RCC_P
 673              		.loc 1 918 0
 674 004a 414B     		ldr	r3, .L45+4
 675 004c 1B69     		ldr	r3, [r3, #16]
 676 004e 5B0D     		lsrs	r3, r3, #21
 677 0050 03F00303 		and	r3, r3, #3
 678 0054 0133     		adds	r3, r3, #1
ARM GAS  C:\Users\user\AppData\Local\Temp\ccsJwa9Q.s 			page 29


 679 0056 5A00     		lsls	r2, r3, #1
 680 0058 7B68     		ldr	r3, [r7, #4]
 681 005a 5A61     		str	r2, [r3, #20]
 919:E:/LiteOS/LiteOS_Lab/drivers/third_party/ST/STM32L4xx_HAL_Driver/Src\stm32l4xx_hal_rcc_ex.c ****   PeriphClkInit->PLLSAI1.PLLSAI1R = ((READ_BIT(RCC->PLLSAI1CFGR, RCC_PLLSAI1CFGR_PLLSAI1R) >> RCC_P
 682              		.loc 1 919 0
 683 005c 3C4B     		ldr	r3, .L45+4
 684 005e 1B69     		ldr	r3, [r3, #16]
 685 0060 5B0E     		lsrs	r3, r3, #25
 686 0062 03F00303 		and	r3, r3, #3
 687 0066 0133     		adds	r3, r3, #1
 688 0068 5A00     		lsls	r2, r3, #1
 689 006a 7B68     		ldr	r3, [r7, #4]
 690 006c 9A61     		str	r2, [r3, #24]
 920:E:/LiteOS/LiteOS_Lab/drivers/third_party/ST/STM32L4xx_HAL_Driver/Src\stm32l4xx_hal_rcc_ex.c **** 
 921:E:/LiteOS/LiteOS_Lab/drivers/third_party/ST/STM32L4xx_HAL_Driver/Src\stm32l4xx_hal_rcc_ex.c **** #if defined(RCC_PLLSAI2_SUPPORT)
 922:E:/LiteOS/LiteOS_Lab/drivers/third_party/ST/STM32L4xx_HAL_Driver/Src\stm32l4xx_hal_rcc_ex.c **** 
 923:E:/LiteOS/LiteOS_Lab/drivers/third_party/ST/STM32L4xx_HAL_Driver/Src\stm32l4xx_hal_rcc_ex.c ****   /* Get the PLLSAI2 Clock configuration -----------------------------------------------*/
 924:E:/LiteOS/LiteOS_Lab/drivers/third_party/ST/STM32L4xx_HAL_Driver/Src\stm32l4xx_hal_rcc_ex.c **** 
 925:E:/LiteOS/LiteOS_Lab/drivers/third_party/ST/STM32L4xx_HAL_Driver/Src\stm32l4xx_hal_rcc_ex.c ****   PeriphClkInit->PLLSAI2.PLLSAI2Source = PeriphClkInit->PLLSAI1.PLLSAI1Source;
 926:E:/LiteOS/LiteOS_Lab/drivers/third_party/ST/STM32L4xx_HAL_Driver/Src\stm32l4xx_hal_rcc_ex.c **** #if defined(RCC_PLLSAI2M_DIV_1_16_SUPPORT)
 927:E:/LiteOS/LiteOS_Lab/drivers/third_party/ST/STM32L4xx_HAL_Driver/Src\stm32l4xx_hal_rcc_ex.c ****   PeriphClkInit->PLLSAI2.PLLSAI2M = (READ_BIT(RCC->PLLSAI2CFGR, RCC_PLLSAI2CFGR_PLLSAI2M) >> RCC_PL
 928:E:/LiteOS/LiteOS_Lab/drivers/third_party/ST/STM32L4xx_HAL_Driver/Src\stm32l4xx_hal_rcc_ex.c **** #else
 929:E:/LiteOS/LiteOS_Lab/drivers/third_party/ST/STM32L4xx_HAL_Driver/Src\stm32l4xx_hal_rcc_ex.c ****   PeriphClkInit->PLLSAI2.PLLSAI2M = PeriphClkInit->PLLSAI1.PLLSAI1M;
 930:E:/LiteOS/LiteOS_Lab/drivers/third_party/ST/STM32L4xx_HAL_Driver/Src\stm32l4xx_hal_rcc_ex.c **** #endif /* RCC_PLLSAI2M_DIV_1_16_SUPPORT */
 931:E:/LiteOS/LiteOS_Lab/drivers/third_party/ST/STM32L4xx_HAL_Driver/Src\stm32l4xx_hal_rcc_ex.c ****   PeriphClkInit->PLLSAI2.PLLSAI2N = READ_BIT(RCC->PLLSAI2CFGR, RCC_PLLSAI2CFGR_PLLSAI2N) >> RCC_PLL
 932:E:/LiteOS/LiteOS_Lab/drivers/third_party/ST/STM32L4xx_HAL_Driver/Src\stm32l4xx_hal_rcc_ex.c ****   PeriphClkInit->PLLSAI2.PLLSAI2P = ((READ_BIT(RCC->PLLSAI2CFGR, RCC_PLLSAI2CFGR_PLLSAI2P) >> RCC_P
 933:E:/LiteOS/LiteOS_Lab/drivers/third_party/ST/STM32L4xx_HAL_Driver/Src\stm32l4xx_hal_rcc_ex.c **** #if defined(RCC_PLLSAI2Q_DIV_SUPPORT)
 934:E:/LiteOS/LiteOS_Lab/drivers/third_party/ST/STM32L4xx_HAL_Driver/Src\stm32l4xx_hal_rcc_ex.c ****   PeriphClkInit->PLLSAI2.PLLSAI2Q = ((READ_BIT(RCC->PLLSAI2CFGR, RCC_PLLSAI2CFGR_PLLSAI2Q) >> RCC_P
 935:E:/LiteOS/LiteOS_Lab/drivers/third_party/ST/STM32L4xx_HAL_Driver/Src\stm32l4xx_hal_rcc_ex.c **** #endif /* RCC_PLLSAI2Q_DIV_SUPPORT */
 936:E:/LiteOS/LiteOS_Lab/drivers/third_party/ST/STM32L4xx_HAL_Driver/Src\stm32l4xx_hal_rcc_ex.c ****   PeriphClkInit->PLLSAI2.PLLSAI2R = ((READ_BIT(RCC->PLLSAI2CFGR, RCC_PLLSAI2CFGR_PLLSAI2R)>> RCC_PL
 937:E:/LiteOS/LiteOS_Lab/drivers/third_party/ST/STM32L4xx_HAL_Driver/Src\stm32l4xx_hal_rcc_ex.c **** 
 938:E:/LiteOS/LiteOS_Lab/drivers/third_party/ST/STM32L4xx_HAL_Driver/Src\stm32l4xx_hal_rcc_ex.c **** #endif /* RCC_PLLSAI2_SUPPORT */
 939:E:/LiteOS/LiteOS_Lab/drivers/third_party/ST/STM32L4xx_HAL_Driver/Src\stm32l4xx_hal_rcc_ex.c **** 
 940:E:/LiteOS/LiteOS_Lab/drivers/third_party/ST/STM32L4xx_HAL_Driver/Src\stm32l4xx_hal_rcc_ex.c ****   /* Get the USART1 clock source ---------------------------------------------*/
 941:E:/LiteOS/LiteOS_Lab/drivers/third_party/ST/STM32L4xx_HAL_Driver/Src\stm32l4xx_hal_rcc_ex.c ****   PeriphClkInit->Usart1ClockSelection  = __HAL_RCC_GET_USART1_SOURCE();
 691              		.loc 1 941 0
 692 006e 384B     		ldr	r3, .L45+4
 693 0070 D3F88830 		ldr	r3, [r3, #136]
 694 0074 03F00302 		and	r2, r3, #3
 695 0078 7B68     		ldr	r3, [r7, #4]
 696 007a 1A62     		str	r2, [r3, #32]
 942:E:/LiteOS/LiteOS_Lab/drivers/third_party/ST/STM32L4xx_HAL_Driver/Src\stm32l4xx_hal_rcc_ex.c ****   /* Get the USART2 clock source ---------------------------------------------*/
 943:E:/LiteOS/LiteOS_Lab/drivers/third_party/ST/STM32L4xx_HAL_Driver/Src\stm32l4xx_hal_rcc_ex.c ****   PeriphClkInit->Usart2ClockSelection  = __HAL_RCC_GET_USART2_SOURCE();
 697              		.loc 1 943 0
 698 007c 344B     		ldr	r3, .L45+4
 699 007e D3F88830 		ldr	r3, [r3, #136]
 700 0082 03F00C02 		and	r2, r3, #12
 701 0086 7B68     		ldr	r3, [r7, #4]
 702 0088 5A62     		str	r2, [r3, #36]
 944:E:/LiteOS/LiteOS_Lab/drivers/third_party/ST/STM32L4xx_HAL_Driver/Src\stm32l4xx_hal_rcc_ex.c **** 
 945:E:/LiteOS/LiteOS_Lab/drivers/third_party/ST/STM32L4xx_HAL_Driver/Src\stm32l4xx_hal_rcc_ex.c **** #if defined(USART3)
 946:E:/LiteOS/LiteOS_Lab/drivers/third_party/ST/STM32L4xx_HAL_Driver/Src\stm32l4xx_hal_rcc_ex.c ****   /* Get the USART3 clock source ---------------------------------------------*/
 947:E:/LiteOS/LiteOS_Lab/drivers/third_party/ST/STM32L4xx_HAL_Driver/Src\stm32l4xx_hal_rcc_ex.c ****   PeriphClkInit->Usart3ClockSelection  = __HAL_RCC_GET_USART3_SOURCE();
 703              		.loc 1 947 0
 704 008a 314B     		ldr	r3, .L45+4
 705 008c D3F88830 		ldr	r3, [r3, #136]
 706 0090 03F03002 		and	r2, r3, #48
ARM GAS  C:\Users\user\AppData\Local\Temp\ccsJwa9Q.s 			page 30


 707 0094 7B68     		ldr	r3, [r7, #4]
 708 0096 9A62     		str	r2, [r3, #40]
 948:E:/LiteOS/LiteOS_Lab/drivers/third_party/ST/STM32L4xx_HAL_Driver/Src\stm32l4xx_hal_rcc_ex.c **** #endif /* USART3 */
 949:E:/LiteOS/LiteOS_Lab/drivers/third_party/ST/STM32L4xx_HAL_Driver/Src\stm32l4xx_hal_rcc_ex.c **** 
 950:E:/LiteOS/LiteOS_Lab/drivers/third_party/ST/STM32L4xx_HAL_Driver/Src\stm32l4xx_hal_rcc_ex.c **** #if defined(UART4)
 951:E:/LiteOS/LiteOS_Lab/drivers/third_party/ST/STM32L4xx_HAL_Driver/Src\stm32l4xx_hal_rcc_ex.c ****   /* Get the UART4 clock source ----------------------------------------------*/
 952:E:/LiteOS/LiteOS_Lab/drivers/third_party/ST/STM32L4xx_HAL_Driver/Src\stm32l4xx_hal_rcc_ex.c ****   PeriphClkInit->Uart4ClockSelection   = __HAL_RCC_GET_UART4_SOURCE();
 953:E:/LiteOS/LiteOS_Lab/drivers/third_party/ST/STM32L4xx_HAL_Driver/Src\stm32l4xx_hal_rcc_ex.c **** #endif /* UART4 */
 954:E:/LiteOS/LiteOS_Lab/drivers/third_party/ST/STM32L4xx_HAL_Driver/Src\stm32l4xx_hal_rcc_ex.c **** 
 955:E:/LiteOS/LiteOS_Lab/drivers/third_party/ST/STM32L4xx_HAL_Driver/Src\stm32l4xx_hal_rcc_ex.c **** #if defined(UART5)
 956:E:/LiteOS/LiteOS_Lab/drivers/third_party/ST/STM32L4xx_HAL_Driver/Src\stm32l4xx_hal_rcc_ex.c ****   /* Get the UART5 clock source ----------------------------------------------*/
 957:E:/LiteOS/LiteOS_Lab/drivers/third_party/ST/STM32L4xx_HAL_Driver/Src\stm32l4xx_hal_rcc_ex.c ****   PeriphClkInit->Uart5ClockSelection   = __HAL_RCC_GET_UART5_SOURCE();
 958:E:/LiteOS/LiteOS_Lab/drivers/third_party/ST/STM32L4xx_HAL_Driver/Src\stm32l4xx_hal_rcc_ex.c **** #endif /* UART5 */
 959:E:/LiteOS/LiteOS_Lab/drivers/third_party/ST/STM32L4xx_HAL_Driver/Src\stm32l4xx_hal_rcc_ex.c **** 
 960:E:/LiteOS/LiteOS_Lab/drivers/third_party/ST/STM32L4xx_HAL_Driver/Src\stm32l4xx_hal_rcc_ex.c ****   /* Get the LPUART1 clock source --------------------------------------------*/
 961:E:/LiteOS/LiteOS_Lab/drivers/third_party/ST/STM32L4xx_HAL_Driver/Src\stm32l4xx_hal_rcc_ex.c ****   PeriphClkInit->Lpuart1ClockSelection = __HAL_RCC_GET_LPUART1_SOURCE();
 709              		.loc 1 961 0
 710 0098 2D4B     		ldr	r3, .L45+4
 711 009a D3F88830 		ldr	r3, [r3, #136]
 712 009e 03F44062 		and	r2, r3, #3072
 713 00a2 7B68     		ldr	r3, [r7, #4]
 714 00a4 DA62     		str	r2, [r3, #44]
 962:E:/LiteOS/LiteOS_Lab/drivers/third_party/ST/STM32L4xx_HAL_Driver/Src\stm32l4xx_hal_rcc_ex.c **** 
 963:E:/LiteOS/LiteOS_Lab/drivers/third_party/ST/STM32L4xx_HAL_Driver/Src\stm32l4xx_hal_rcc_ex.c ****   /* Get the I2C1 clock source -----------------------------------------------*/
 964:E:/LiteOS/LiteOS_Lab/drivers/third_party/ST/STM32L4xx_HAL_Driver/Src\stm32l4xx_hal_rcc_ex.c ****   PeriphClkInit->I2c1ClockSelection    = __HAL_RCC_GET_I2C1_SOURCE();
 715              		.loc 1 964 0
 716 00a6 2A4B     		ldr	r3, .L45+4
 717 00a8 D3F88830 		ldr	r3, [r3, #136]
 718 00ac 03F44052 		and	r2, r3, #12288
 719 00b0 7B68     		ldr	r3, [r7, #4]
 720 00b2 1A63     		str	r2, [r3, #48]
 965:E:/LiteOS/LiteOS_Lab/drivers/third_party/ST/STM32L4xx_HAL_Driver/Src\stm32l4xx_hal_rcc_ex.c **** 
 966:E:/LiteOS/LiteOS_Lab/drivers/third_party/ST/STM32L4xx_HAL_Driver/Src\stm32l4xx_hal_rcc_ex.c **** #if defined(I2C2)
 967:E:/LiteOS/LiteOS_Lab/drivers/third_party/ST/STM32L4xx_HAL_Driver/Src\stm32l4xx_hal_rcc_ex.c ****    /* Get the I2C2 clock source ----------------------------------------------*/
 968:E:/LiteOS/LiteOS_Lab/drivers/third_party/ST/STM32L4xx_HAL_Driver/Src\stm32l4xx_hal_rcc_ex.c ****   PeriphClkInit->I2c2ClockSelection    = __HAL_RCC_GET_I2C2_SOURCE();
 721              		.loc 1 968 0
 722 00b4 264B     		ldr	r3, .L45+4
 723 00b6 D3F88830 		ldr	r3, [r3, #136]
 724 00ba 03F44042 		and	r2, r3, #49152
 725 00be 7B68     		ldr	r3, [r7, #4]
 726 00c0 5A63     		str	r2, [r3, #52]
 969:E:/LiteOS/LiteOS_Lab/drivers/third_party/ST/STM32L4xx_HAL_Driver/Src\stm32l4xx_hal_rcc_ex.c **** #endif /* I2C2 */
 970:E:/LiteOS/LiteOS_Lab/drivers/third_party/ST/STM32L4xx_HAL_Driver/Src\stm32l4xx_hal_rcc_ex.c **** 
 971:E:/LiteOS/LiteOS_Lab/drivers/third_party/ST/STM32L4xx_HAL_Driver/Src\stm32l4xx_hal_rcc_ex.c ****   /* Get the I2C3 clock source -----------------------------------------------*/
 972:E:/LiteOS/LiteOS_Lab/drivers/third_party/ST/STM32L4xx_HAL_Driver/Src\stm32l4xx_hal_rcc_ex.c ****   PeriphClkInit->I2c3ClockSelection    = __HAL_RCC_GET_I2C3_SOURCE();
 727              		.loc 1 972 0
 728 00c2 234B     		ldr	r3, .L45+4
 729 00c4 D3F88830 		ldr	r3, [r3, #136]
 730 00c8 03F44032 		and	r2, r3, #196608
 731 00cc 7B68     		ldr	r3, [r7, #4]
 732 00ce 9A63     		str	r2, [r3, #56]
 973:E:/LiteOS/LiteOS_Lab/drivers/third_party/ST/STM32L4xx_HAL_Driver/Src\stm32l4xx_hal_rcc_ex.c **** 
 974:E:/LiteOS/LiteOS_Lab/drivers/third_party/ST/STM32L4xx_HAL_Driver/Src\stm32l4xx_hal_rcc_ex.c **** #if defined(I2C4)
 975:E:/LiteOS/LiteOS_Lab/drivers/third_party/ST/STM32L4xx_HAL_Driver/Src\stm32l4xx_hal_rcc_ex.c ****   /* Get the I2C4 clock source -----------------------------------------------*/
 976:E:/LiteOS/LiteOS_Lab/drivers/third_party/ST/STM32L4xx_HAL_Driver/Src\stm32l4xx_hal_rcc_ex.c ****   PeriphClkInit->I2c4ClockSelection    = __HAL_RCC_GET_I2C4_SOURCE();
 977:E:/LiteOS/LiteOS_Lab/drivers/third_party/ST/STM32L4xx_HAL_Driver/Src\stm32l4xx_hal_rcc_ex.c **** #endif /* I2C4 */
 978:E:/LiteOS/LiteOS_Lab/drivers/third_party/ST/STM32L4xx_HAL_Driver/Src\stm32l4xx_hal_rcc_ex.c **** 
ARM GAS  C:\Users\user\AppData\Local\Temp\ccsJwa9Q.s 			page 31


 979:E:/LiteOS/LiteOS_Lab/drivers/third_party/ST/STM32L4xx_HAL_Driver/Src\stm32l4xx_hal_rcc_ex.c ****   /* Get the LPTIM1 clock source ---------------------------------------------*/
 980:E:/LiteOS/LiteOS_Lab/drivers/third_party/ST/STM32L4xx_HAL_Driver/Src\stm32l4xx_hal_rcc_ex.c ****   PeriphClkInit->Lptim1ClockSelection  = __HAL_RCC_GET_LPTIM1_SOURCE();
 733              		.loc 1 980 0
 734 00d0 1F4B     		ldr	r3, .L45+4
 735 00d2 D3F88830 		ldr	r3, [r3, #136]
 736 00d6 03F44022 		and	r2, r3, #786432
 737 00da 7B68     		ldr	r3, [r7, #4]
 738 00dc DA63     		str	r2, [r3, #60]
 981:E:/LiteOS/LiteOS_Lab/drivers/third_party/ST/STM32L4xx_HAL_Driver/Src\stm32l4xx_hal_rcc_ex.c **** 
 982:E:/LiteOS/LiteOS_Lab/drivers/third_party/ST/STM32L4xx_HAL_Driver/Src\stm32l4xx_hal_rcc_ex.c ****   /* Get the LPTIM2 clock source ---------------------------------------------*/
 983:E:/LiteOS/LiteOS_Lab/drivers/third_party/ST/STM32L4xx_HAL_Driver/Src\stm32l4xx_hal_rcc_ex.c ****   PeriphClkInit->Lptim2ClockSelection  = __HAL_RCC_GET_LPTIM2_SOURCE();
 739              		.loc 1 983 0
 740 00de 1C4B     		ldr	r3, .L45+4
 741 00e0 D3F88830 		ldr	r3, [r3, #136]
 742 00e4 03F44012 		and	r2, r3, #3145728
 743 00e8 7B68     		ldr	r3, [r7, #4]
 744 00ea 1A64     		str	r2, [r3, #64]
 984:E:/LiteOS/LiteOS_Lab/drivers/third_party/ST/STM32L4xx_HAL_Driver/Src\stm32l4xx_hal_rcc_ex.c **** 
 985:E:/LiteOS/LiteOS_Lab/drivers/third_party/ST/STM32L4xx_HAL_Driver/Src\stm32l4xx_hal_rcc_ex.c ****   /* Get the SAI1 clock source -----------------------------------------------*/
 986:E:/LiteOS/LiteOS_Lab/drivers/third_party/ST/STM32L4xx_HAL_Driver/Src\stm32l4xx_hal_rcc_ex.c ****   PeriphClkInit->Sai1ClockSelection    = __HAL_RCC_GET_SAI1_SOURCE();
 745              		.loc 1 986 0
 746 00ec 184B     		ldr	r3, .L45+4
 747 00ee D3F88830 		ldr	r3, [r3, #136]
 748 00f2 03F44002 		and	r2, r3, #12582912
 749 00f6 7B68     		ldr	r3, [r7, #4]
 750 00f8 5A64     		str	r2, [r3, #68]
 987:E:/LiteOS/LiteOS_Lab/drivers/third_party/ST/STM32L4xx_HAL_Driver/Src\stm32l4xx_hal_rcc_ex.c **** 
 988:E:/LiteOS/LiteOS_Lab/drivers/third_party/ST/STM32L4xx_HAL_Driver/Src\stm32l4xx_hal_rcc_ex.c **** #if defined(SAI2)
 989:E:/LiteOS/LiteOS_Lab/drivers/third_party/ST/STM32L4xx_HAL_Driver/Src\stm32l4xx_hal_rcc_ex.c ****   /* Get the SAI2 clock source -----------------------------------------------*/
 990:E:/LiteOS/LiteOS_Lab/drivers/third_party/ST/STM32L4xx_HAL_Driver/Src\stm32l4xx_hal_rcc_ex.c ****   PeriphClkInit->Sai2ClockSelection    = __HAL_RCC_GET_SAI2_SOURCE();
 991:E:/LiteOS/LiteOS_Lab/drivers/third_party/ST/STM32L4xx_HAL_Driver/Src\stm32l4xx_hal_rcc_ex.c **** #endif /* SAI2 */
 992:E:/LiteOS/LiteOS_Lab/drivers/third_party/ST/STM32L4xx_HAL_Driver/Src\stm32l4xx_hal_rcc_ex.c **** 
 993:E:/LiteOS/LiteOS_Lab/drivers/third_party/ST/STM32L4xx_HAL_Driver/Src\stm32l4xx_hal_rcc_ex.c ****   /* Get the RTC clock source ------------------------------------------------*/
 994:E:/LiteOS/LiteOS_Lab/drivers/third_party/ST/STM32L4xx_HAL_Driver/Src\stm32l4xx_hal_rcc_ex.c ****   PeriphClkInit->RTCClockSelection     = __HAL_RCC_GET_RTC_SOURCE();
 751              		.loc 1 994 0
 752 00fa 154B     		ldr	r3, .L45+4
 753 00fc D3F89030 		ldr	r3, [r3, #144]
 754 0100 03F44072 		and	r2, r3, #768
 755 0104 7B68     		ldr	r3, [r7, #4]
 756 0106 9A65     		str	r2, [r3, #88]
 995:E:/LiteOS/LiteOS_Lab/drivers/third_party/ST/STM32L4xx_HAL_Driver/Src\stm32l4xx_hal_rcc_ex.c **** 
 996:E:/LiteOS/LiteOS_Lab/drivers/third_party/ST/STM32L4xx_HAL_Driver/Src\stm32l4xx_hal_rcc_ex.c **** #if defined(USB_OTG_FS) || defined(USB)
 997:E:/LiteOS/LiteOS_Lab/drivers/third_party/ST/STM32L4xx_HAL_Driver/Src\stm32l4xx_hal_rcc_ex.c ****   /* Get the USB clock source ------------------------------------------------*/
 998:E:/LiteOS/LiteOS_Lab/drivers/third_party/ST/STM32L4xx_HAL_Driver/Src\stm32l4xx_hal_rcc_ex.c ****   PeriphClkInit->UsbClockSelection   = __HAL_RCC_GET_USB_SOURCE();
 999:E:/LiteOS/LiteOS_Lab/drivers/third_party/ST/STM32L4xx_HAL_Driver/Src\stm32l4xx_hal_rcc_ex.c **** #endif /* USB_OTG_FS || USB */
1000:E:/LiteOS/LiteOS_Lab/drivers/third_party/ST/STM32L4xx_HAL_Driver/Src\stm32l4xx_hal_rcc_ex.c **** 
1001:E:/LiteOS/LiteOS_Lab/drivers/third_party/ST/STM32L4xx_HAL_Driver/Src\stm32l4xx_hal_rcc_ex.c **** #if defined(SDMMC1)
1002:E:/LiteOS/LiteOS_Lab/drivers/third_party/ST/STM32L4xx_HAL_Driver/Src\stm32l4xx_hal_rcc_ex.c ****   /* Get the SDMMC1 clock source ---------------------------------------------*/
1003:E:/LiteOS/LiteOS_Lab/drivers/third_party/ST/STM32L4xx_HAL_Driver/Src\stm32l4xx_hal_rcc_ex.c ****   PeriphClkInit->Sdmmc1ClockSelection   = __HAL_RCC_GET_SDMMC1_SOURCE();
 757              		.loc 1 1003 0
 758 0108 114B     		ldr	r3, .L45+4
 759 010a D3F88830 		ldr	r3, [r3, #136]
 760 010e 03F04062 		and	r2, r3, #201326592
 761 0112 7B68     		ldr	r3, [r7, #4]
 762 0114 9A64     		str	r2, [r3, #72]
1004:E:/LiteOS/LiteOS_Lab/drivers/third_party/ST/STM32L4xx_HAL_Driver/Src\stm32l4xx_hal_rcc_ex.c **** #endif /* SDMMC1 */
1005:E:/LiteOS/LiteOS_Lab/drivers/third_party/ST/STM32L4xx_HAL_Driver/Src\stm32l4xx_hal_rcc_ex.c **** 
ARM GAS  C:\Users\user\AppData\Local\Temp\ccsJwa9Q.s 			page 32


1006:E:/LiteOS/LiteOS_Lab/drivers/third_party/ST/STM32L4xx_HAL_Driver/Src\stm32l4xx_hal_rcc_ex.c ****   /* Get the RNG clock source ------------------------------------------------*/
1007:E:/LiteOS/LiteOS_Lab/drivers/third_party/ST/STM32L4xx_HAL_Driver/Src\stm32l4xx_hal_rcc_ex.c ****   PeriphClkInit->RngClockSelection   = __HAL_RCC_GET_RNG_SOURCE();
 763              		.loc 1 1007 0
 764 0116 0E4B     		ldr	r3, .L45+4
 765 0118 D3F88830 		ldr	r3, [r3, #136]
 766 011c 03F04062 		and	r2, r3, #201326592
 767 0120 7B68     		ldr	r3, [r7, #4]
 768 0122 DA64     		str	r2, [r3, #76]
1008:E:/LiteOS/LiteOS_Lab/drivers/third_party/ST/STM32L4xx_HAL_Driver/Src\stm32l4xx_hal_rcc_ex.c **** 
1009:E:/LiteOS/LiteOS_Lab/drivers/third_party/ST/STM32L4xx_HAL_Driver/Src\stm32l4xx_hal_rcc_ex.c ****   /* Get the ADC clock source ------------------------------------------------*/
1010:E:/LiteOS/LiteOS_Lab/drivers/third_party/ST/STM32L4xx_HAL_Driver/Src\stm32l4xx_hal_rcc_ex.c ****   PeriphClkInit->AdcClockSelection     = __HAL_RCC_GET_ADC_SOURCE();
 769              		.loc 1 1010 0
 770 0124 0A4B     		ldr	r3, .L45+4
 771 0126 D3F88830 		ldr	r3, [r3, #136]
 772 012a 03F04052 		and	r2, r3, #805306368
 773 012e 7B68     		ldr	r3, [r7, #4]
 774 0130 1A65     		str	r2, [r3, #80]
1011:E:/LiteOS/LiteOS_Lab/drivers/third_party/ST/STM32L4xx_HAL_Driver/Src\stm32l4xx_hal_rcc_ex.c **** 
1012:E:/LiteOS/LiteOS_Lab/drivers/third_party/ST/STM32L4xx_HAL_Driver/Src\stm32l4xx_hal_rcc_ex.c **** #if defined(SWPMI1)
1013:E:/LiteOS/LiteOS_Lab/drivers/third_party/ST/STM32L4xx_HAL_Driver/Src\stm32l4xx_hal_rcc_ex.c ****   /* Get the SWPMI1 clock source ---------------------------------------------*/
1014:E:/LiteOS/LiteOS_Lab/drivers/third_party/ST/STM32L4xx_HAL_Driver/Src\stm32l4xx_hal_rcc_ex.c ****   PeriphClkInit->Swpmi1ClockSelection  = __HAL_RCC_GET_SWPMI1_SOURCE();
 775              		.loc 1 1014 0
 776 0132 074B     		ldr	r3, .L45+4
 777 0134 D3F88830 		ldr	r3, [r3, #136]
 778 0138 03F08042 		and	r2, r3, #1073741824
 779 013c 7B68     		ldr	r3, [r7, #4]
 780 013e 5A65     		str	r2, [r3, #84]
1015:E:/LiteOS/LiteOS_Lab/drivers/third_party/ST/STM32L4xx_HAL_Driver/Src\stm32l4xx_hal_rcc_ex.c **** #endif /* SWPMI1 */
1016:E:/LiteOS/LiteOS_Lab/drivers/third_party/ST/STM32L4xx_HAL_Driver/Src\stm32l4xx_hal_rcc_ex.c **** 
1017:E:/LiteOS/LiteOS_Lab/drivers/third_party/ST/STM32L4xx_HAL_Driver/Src\stm32l4xx_hal_rcc_ex.c **** #if defined(DFSDM1_Filter0)
1018:E:/LiteOS/LiteOS_Lab/drivers/third_party/ST/STM32L4xx_HAL_Driver/Src\stm32l4xx_hal_rcc_ex.c ****   /* Get the DFSDM1 clock source ---------------------------------------------*/
1019:E:/LiteOS/LiteOS_Lab/drivers/third_party/ST/STM32L4xx_HAL_Driver/Src\stm32l4xx_hal_rcc_ex.c ****   PeriphClkInit->Dfsdm1ClockSelection  = __HAL_RCC_GET_DFSDM1_SOURCE();
1020:E:/LiteOS/LiteOS_Lab/drivers/third_party/ST/STM32L4xx_HAL_Driver/Src\stm32l4xx_hal_rcc_ex.c **** 
1021:E:/LiteOS/LiteOS_Lab/drivers/third_party/ST/STM32L4xx_HAL_Driver/Src\stm32l4xx_hal_rcc_ex.c **** #if defined(STM32L4R5xx) || defined(STM32L4R7xx) || defined(STM32L4R9xx) || defined(STM32L4S5xx) ||
1022:E:/LiteOS/LiteOS_Lab/drivers/third_party/ST/STM32L4xx_HAL_Driver/Src\stm32l4xx_hal_rcc_ex.c ****   /* Get the DFSDM1 audio clock source ---------------------------------------*/
1023:E:/LiteOS/LiteOS_Lab/drivers/third_party/ST/STM32L4xx_HAL_Driver/Src\stm32l4xx_hal_rcc_ex.c ****   PeriphClkInit->Dfsdm1AudioClockSelection  = __HAL_RCC_GET_DFSDM1AUDIO_SOURCE();
1024:E:/LiteOS/LiteOS_Lab/drivers/third_party/ST/STM32L4xx_HAL_Driver/Src\stm32l4xx_hal_rcc_ex.c **** #endif /* STM32L4R5xx || STM32L4R7xx || STM32L4R9xx || STM32L4S5xx || STM32L4S7xx || STM32L4S9xx */
1025:E:/LiteOS/LiteOS_Lab/drivers/third_party/ST/STM32L4xx_HAL_Driver/Src\stm32l4xx_hal_rcc_ex.c **** #endif /* DFSDM1_Filter0 */
1026:E:/LiteOS/LiteOS_Lab/drivers/third_party/ST/STM32L4xx_HAL_Driver/Src\stm32l4xx_hal_rcc_ex.c **** 
1027:E:/LiteOS/LiteOS_Lab/drivers/third_party/ST/STM32L4xx_HAL_Driver/Src\stm32l4xx_hal_rcc_ex.c **** #if defined(LTDC)
1028:E:/LiteOS/LiteOS_Lab/drivers/third_party/ST/STM32L4xx_HAL_Driver/Src\stm32l4xx_hal_rcc_ex.c ****   /* Get the LTDC clock source -----------------------------------------------*/
1029:E:/LiteOS/LiteOS_Lab/drivers/third_party/ST/STM32L4xx_HAL_Driver/Src\stm32l4xx_hal_rcc_ex.c ****   PeriphClkInit->LtdcClockSelection = __HAL_RCC_GET_LTDC_SOURCE();
1030:E:/LiteOS/LiteOS_Lab/drivers/third_party/ST/STM32L4xx_HAL_Driver/Src\stm32l4xx_hal_rcc_ex.c **** #endif /* LTDC */
1031:E:/LiteOS/LiteOS_Lab/drivers/third_party/ST/STM32L4xx_HAL_Driver/Src\stm32l4xx_hal_rcc_ex.c **** 
1032:E:/LiteOS/LiteOS_Lab/drivers/third_party/ST/STM32L4xx_HAL_Driver/Src\stm32l4xx_hal_rcc_ex.c **** #if defined(DSI)
1033:E:/LiteOS/LiteOS_Lab/drivers/third_party/ST/STM32L4xx_HAL_Driver/Src\stm32l4xx_hal_rcc_ex.c ****   /* Get the DSI clock source ------------------------------------------------*/
1034:E:/LiteOS/LiteOS_Lab/drivers/third_party/ST/STM32L4xx_HAL_Driver/Src\stm32l4xx_hal_rcc_ex.c ****   PeriphClkInit->DsiClockSelection = __HAL_RCC_GET_DSI_SOURCE();
1035:E:/LiteOS/LiteOS_Lab/drivers/third_party/ST/STM32L4xx_HAL_Driver/Src\stm32l4xx_hal_rcc_ex.c **** #endif /* DSI */
1036:E:/LiteOS/LiteOS_Lab/drivers/third_party/ST/STM32L4xx_HAL_Driver/Src\stm32l4xx_hal_rcc_ex.c **** 
1037:E:/LiteOS/LiteOS_Lab/drivers/third_party/ST/STM32L4xx_HAL_Driver/Src\stm32l4xx_hal_rcc_ex.c **** #if defined(OCTOSPI1) || defined(OCTOSPI2)
1038:E:/LiteOS/LiteOS_Lab/drivers/third_party/ST/STM32L4xx_HAL_Driver/Src\stm32l4xx_hal_rcc_ex.c ****   /* Get the OctoSPIclock source --------------------------------------------*/
1039:E:/LiteOS/LiteOS_Lab/drivers/third_party/ST/STM32L4xx_HAL_Driver/Src\stm32l4xx_hal_rcc_ex.c ****   PeriphClkInit->OspiClockSelection = __HAL_RCC_GET_OSPI_SOURCE();
1040:E:/LiteOS/LiteOS_Lab/drivers/third_party/ST/STM32L4xx_HAL_Driver/Src\stm32l4xx_hal_rcc_ex.c **** #endif /* OCTOSPI1 || OCTOSPI2 */
1041:E:/LiteOS/LiteOS_Lab/drivers/third_party/ST/STM32L4xx_HAL_Driver/Src\stm32l4xx_hal_rcc_ex.c **** }
 781              		.loc 1 1041 0
 782 0140 00BF     		nop
 783 0142 0C37     		adds	r7, r7, #12
ARM GAS  C:\Users\user\AppData\Local\Temp\ccsJwa9Q.s 			page 33


 784              	.LCFI8:
 785              		.cfi_def_cfa_offset 4
 786 0144 BD46     		mov	sp, r7
 787              	.LCFI9:
 788              		.cfi_def_cfa_register 13
 789              		@ sp needed
 790 0146 5DF8047B 		ldr	r7, [sp], #4
 791              	.LCFI10:
 792              		.cfi_restore 7
 793              		.cfi_def_cfa_offset 0
 794 014a 7047     		bx	lr
 795              	.L46:
 796              		.align	2
 797              	.L45:
 798 014c E7CF0E00 		.word	970727
 799 0150 00100240 		.word	1073876992
 800              		.cfi_endproc
 801              	.LFE134:
 803              		.section	.text.HAL_RCCEx_GetPeriphCLKFreq,"ax",%progbits
 804              		.align	1
 805              		.global	HAL_RCCEx_GetPeriphCLKFreq
 806              		.syntax unified
 807              		.thumb
 808              		.thumb_func
 809              		.fpu fpv4-sp-d16
 811              	HAL_RCCEx_GetPeriphCLKFreq:
 812              	.LFB135:
1042:E:/LiteOS/LiteOS_Lab/drivers/third_party/ST/STM32L4xx_HAL_Driver/Src\stm32l4xx_hal_rcc_ex.c **** 
1043:E:/LiteOS/LiteOS_Lab/drivers/third_party/ST/STM32L4xx_HAL_Driver/Src\stm32l4xx_hal_rcc_ex.c **** /**
1044:E:/LiteOS/LiteOS_Lab/drivers/third_party/ST/STM32L4xx_HAL_Driver/Src\stm32l4xx_hal_rcc_ex.c ****   * @brief  Return the peripheral clock frequency for peripherals with clock source from PLLSAIs
1045:E:/LiteOS/LiteOS_Lab/drivers/third_party/ST/STM32L4xx_HAL_Driver/Src\stm32l4xx_hal_rcc_ex.c ****   * @note   Return 0 if peripheral clock identifier not managed by this API
1046:E:/LiteOS/LiteOS_Lab/drivers/third_party/ST/STM32L4xx_HAL_Driver/Src\stm32l4xx_hal_rcc_ex.c ****   * @param  PeriphClk  Peripheral clock identifier
1047:E:/LiteOS/LiteOS_Lab/drivers/third_party/ST/STM32L4xx_HAL_Driver/Src\stm32l4xx_hal_rcc_ex.c ****   *         This parameter can be one of the following values:
1048:E:/LiteOS/LiteOS_Lab/drivers/third_party/ST/STM32L4xx_HAL_Driver/Src\stm32l4xx_hal_rcc_ex.c ****   *            @arg @ref RCC_PERIPHCLK_RTC  RTC peripheral clock
1049:E:/LiteOS/LiteOS_Lab/drivers/third_party/ST/STM32L4xx_HAL_Driver/Src\stm32l4xx_hal_rcc_ex.c ****   *            @arg @ref RCC_PERIPHCLK_ADC  ADC peripheral clock
1050:E:/LiteOS/LiteOS_Lab/drivers/third_party/ST/STM32L4xx_HAL_Driver/Src\stm32l4xx_hal_rcc_ex.c ****   @if STM32L462xx
1051:E:/LiteOS/LiteOS_Lab/drivers/third_party/ST/STM32L4xx_HAL_Driver/Src\stm32l4xx_hal_rcc_ex.c ****   *            @arg @ref RCC_PERIPHCLK_DFSDM1  DFSDM1 peripheral clock (only for devices with DFSDM
1052:E:/LiteOS/LiteOS_Lab/drivers/third_party/ST/STM32L4xx_HAL_Driver/Src\stm32l4xx_hal_rcc_ex.c ****   @endif
1053:E:/LiteOS/LiteOS_Lab/drivers/third_party/ST/STM32L4xx_HAL_Driver/Src\stm32l4xx_hal_rcc_ex.c ****   @if STM32L486xx
1054:E:/LiteOS/LiteOS_Lab/drivers/third_party/ST/STM32L4xx_HAL_Driver/Src\stm32l4xx_hal_rcc_ex.c ****   *            @arg @ref RCC_PERIPHCLK_DFSDM1  DFSDM1 peripheral clock (only for devices with DFSDM
1055:E:/LiteOS/LiteOS_Lab/drivers/third_party/ST/STM32L4xx_HAL_Driver/Src\stm32l4xx_hal_rcc_ex.c ****   @endif
1056:E:/LiteOS/LiteOS_Lab/drivers/third_party/ST/STM32L4xx_HAL_Driver/Src\stm32l4xx_hal_rcc_ex.c ****   @if STM32L4A6xx
1057:E:/LiteOS/LiteOS_Lab/drivers/third_party/ST/STM32L4xx_HAL_Driver/Src\stm32l4xx_hal_rcc_ex.c ****   *            @arg @ref RCC_PERIPHCLK_DFSDM1  DFSDM1 peripheral clock (only for devices with DFSDM
1058:E:/LiteOS/LiteOS_Lab/drivers/third_party/ST/STM32L4xx_HAL_Driver/Src\stm32l4xx_hal_rcc_ex.c ****   @endif
1059:E:/LiteOS/LiteOS_Lab/drivers/third_party/ST/STM32L4xx_HAL_Driver/Src\stm32l4xx_hal_rcc_ex.c ****   *            @arg @ref RCC_PERIPHCLK_I2C1  I2C1 peripheral clock
1060:E:/LiteOS/LiteOS_Lab/drivers/third_party/ST/STM32L4xx_HAL_Driver/Src\stm32l4xx_hal_rcc_ex.c ****   *            @arg @ref RCC_PERIPHCLK_I2C2  I2C2 peripheral clock
1061:E:/LiteOS/LiteOS_Lab/drivers/third_party/ST/STM32L4xx_HAL_Driver/Src\stm32l4xx_hal_rcc_ex.c ****   *            @arg @ref RCC_PERIPHCLK_I2C3  I2C3 peripheral clock
1062:E:/LiteOS/LiteOS_Lab/drivers/third_party/ST/STM32L4xx_HAL_Driver/Src\stm32l4xx_hal_rcc_ex.c ****   @if STM32L462xx
1063:E:/LiteOS/LiteOS_Lab/drivers/third_party/ST/STM32L4xx_HAL_Driver/Src\stm32l4xx_hal_rcc_ex.c ****   *            @arg @ref RCC_PERIPHCLK_I2C4  I2C4 peripheral clock (only for devices with I2C4)
1064:E:/LiteOS/LiteOS_Lab/drivers/third_party/ST/STM32L4xx_HAL_Driver/Src\stm32l4xx_hal_rcc_ex.c ****   @endif
1065:E:/LiteOS/LiteOS_Lab/drivers/third_party/ST/STM32L4xx_HAL_Driver/Src\stm32l4xx_hal_rcc_ex.c ****   @if STM32L4A6xx
1066:E:/LiteOS/LiteOS_Lab/drivers/third_party/ST/STM32L4xx_HAL_Driver/Src\stm32l4xx_hal_rcc_ex.c ****   *            @arg @ref RCC_PERIPHCLK_I2C4  I2C4 peripheral clock (only for devices with I2C4)
1067:E:/LiteOS/LiteOS_Lab/drivers/third_party/ST/STM32L4xx_HAL_Driver/Src\stm32l4xx_hal_rcc_ex.c ****   @endif
1068:E:/LiteOS/LiteOS_Lab/drivers/third_party/ST/STM32L4xx_HAL_Driver/Src\stm32l4xx_hal_rcc_ex.c ****   @if STM32L4S9xx
1069:E:/LiteOS/LiteOS_Lab/drivers/third_party/ST/STM32L4xx_HAL_Driver/Src\stm32l4xx_hal_rcc_ex.c ****   *            @arg @ref RCC_PERIPHCLK_I2C4  I2C4 peripheral clock (only for devices with I2C4)
1070:E:/LiteOS/LiteOS_Lab/drivers/third_party/ST/STM32L4xx_HAL_Driver/Src\stm32l4xx_hal_rcc_ex.c ****   @endif
1071:E:/LiteOS/LiteOS_Lab/drivers/third_party/ST/STM32L4xx_HAL_Driver/Src\stm32l4xx_hal_rcc_ex.c ****   *            @arg @ref RCC_PERIPHCLK_LPTIM1  LPTIM1 peripheral clock
ARM GAS  C:\Users\user\AppData\Local\Temp\ccsJwa9Q.s 			page 34


1072:E:/LiteOS/LiteOS_Lab/drivers/third_party/ST/STM32L4xx_HAL_Driver/Src\stm32l4xx_hal_rcc_ex.c ****   *            @arg @ref RCC_PERIPHCLK_LPTIM2  LPTIM2 peripheral clock
1073:E:/LiteOS/LiteOS_Lab/drivers/third_party/ST/STM32L4xx_HAL_Driver/Src\stm32l4xx_hal_rcc_ex.c ****   *            @arg @ref RCC_PERIPHCLK_LPUART1  LPUART1 peripheral clock
1074:E:/LiteOS/LiteOS_Lab/drivers/third_party/ST/STM32L4xx_HAL_Driver/Src\stm32l4xx_hal_rcc_ex.c ****   *            @arg @ref RCC_PERIPHCLK_RNG  RNG peripheral clock
1075:E:/LiteOS/LiteOS_Lab/drivers/third_party/ST/STM32L4xx_HAL_Driver/Src\stm32l4xx_hal_rcc_ex.c ****   *            @arg @ref RCC_PERIPHCLK_SAI1  SAI1 peripheral clock
1076:E:/LiteOS/LiteOS_Lab/drivers/third_party/ST/STM32L4xx_HAL_Driver/Src\stm32l4xx_hal_rcc_ex.c ****   @if STM32L486xx
1077:E:/LiteOS/LiteOS_Lab/drivers/third_party/ST/STM32L4xx_HAL_Driver/Src\stm32l4xx_hal_rcc_ex.c ****   *            @arg @ref RCC_PERIPHCLK_SAI2  SAI2 peripheral clock (only for devices with SAI2)
1078:E:/LiteOS/LiteOS_Lab/drivers/third_party/ST/STM32L4xx_HAL_Driver/Src\stm32l4xx_hal_rcc_ex.c ****   @endif
1079:E:/LiteOS/LiteOS_Lab/drivers/third_party/ST/STM32L4xx_HAL_Driver/Src\stm32l4xx_hal_rcc_ex.c ****   @if STM32L4A6xx
1080:E:/LiteOS/LiteOS_Lab/drivers/third_party/ST/STM32L4xx_HAL_Driver/Src\stm32l4xx_hal_rcc_ex.c ****   *            @arg @ref RCC_PERIPHCLK_SAI2  SAI2 peripheral clock (only for devices with SAI2)
1081:E:/LiteOS/LiteOS_Lab/drivers/third_party/ST/STM32L4xx_HAL_Driver/Src\stm32l4xx_hal_rcc_ex.c ****   @endif
1082:E:/LiteOS/LiteOS_Lab/drivers/third_party/ST/STM32L4xx_HAL_Driver/Src\stm32l4xx_hal_rcc_ex.c ****   @if STM32L4S9xx
1083:E:/LiteOS/LiteOS_Lab/drivers/third_party/ST/STM32L4xx_HAL_Driver/Src\stm32l4xx_hal_rcc_ex.c ****   *            @arg @ref RCC_PERIPHCLK_SAI2  SAI2 peripheral clock (only for devices with SAI2)
1084:E:/LiteOS/LiteOS_Lab/drivers/third_party/ST/STM32L4xx_HAL_Driver/Src\stm32l4xx_hal_rcc_ex.c ****   @endif
1085:E:/LiteOS/LiteOS_Lab/drivers/third_party/ST/STM32L4xx_HAL_Driver/Src\stm32l4xx_hal_rcc_ex.c ****   *            @arg @ref RCC_PERIPHCLK_SDMMC1  SDMMC1 peripheral clock
1086:E:/LiteOS/LiteOS_Lab/drivers/third_party/ST/STM32L4xx_HAL_Driver/Src\stm32l4xx_hal_rcc_ex.c ****   @if STM32L443xx
1087:E:/LiteOS/LiteOS_Lab/drivers/third_party/ST/STM32L4xx_HAL_Driver/Src\stm32l4xx_hal_rcc_ex.c ****   *            @arg @ref RCC_PERIPHCLK_SWPMI1  SWPMI1 peripheral clock (only for devices with SWPMI
1088:E:/LiteOS/LiteOS_Lab/drivers/third_party/ST/STM32L4xx_HAL_Driver/Src\stm32l4xx_hal_rcc_ex.c ****   @endif
1089:E:/LiteOS/LiteOS_Lab/drivers/third_party/ST/STM32L4xx_HAL_Driver/Src\stm32l4xx_hal_rcc_ex.c ****   @if STM32L486xx
1090:E:/LiteOS/LiteOS_Lab/drivers/third_party/ST/STM32L4xx_HAL_Driver/Src\stm32l4xx_hal_rcc_ex.c ****   *            @arg @ref RCC_PERIPHCLK_SWPMI1  SWPMI1 peripheral clock (only for devices with SWPMI
1091:E:/LiteOS/LiteOS_Lab/drivers/third_party/ST/STM32L4xx_HAL_Driver/Src\stm32l4xx_hal_rcc_ex.c ****   @endif
1092:E:/LiteOS/LiteOS_Lab/drivers/third_party/ST/STM32L4xx_HAL_Driver/Src\stm32l4xx_hal_rcc_ex.c ****   @if STM32L4A6xx
1093:E:/LiteOS/LiteOS_Lab/drivers/third_party/ST/STM32L4xx_HAL_Driver/Src\stm32l4xx_hal_rcc_ex.c ****   *            @arg @ref RCC_PERIPHCLK_SWPMI1  SWPMI1 peripheral clock (only for devices with SWPMI
1094:E:/LiteOS/LiteOS_Lab/drivers/third_party/ST/STM32L4xx_HAL_Driver/Src\stm32l4xx_hal_rcc_ex.c ****   @endif
1095:E:/LiteOS/LiteOS_Lab/drivers/third_party/ST/STM32L4xx_HAL_Driver/Src\stm32l4xx_hal_rcc_ex.c ****   *            @arg @ref RCC_PERIPHCLK_USART1  USART1 peripheral clock
1096:E:/LiteOS/LiteOS_Lab/drivers/third_party/ST/STM32L4xx_HAL_Driver/Src\stm32l4xx_hal_rcc_ex.c ****   *            @arg @ref RCC_PERIPHCLK_USART2  USART1 peripheral clock
1097:E:/LiteOS/LiteOS_Lab/drivers/third_party/ST/STM32L4xx_HAL_Driver/Src\stm32l4xx_hal_rcc_ex.c ****   *            @arg @ref RCC_PERIPHCLK_USART3  USART1 peripheral clock
1098:E:/LiteOS/LiteOS_Lab/drivers/third_party/ST/STM32L4xx_HAL_Driver/Src\stm32l4xx_hal_rcc_ex.c ****   @if STM32L462xx
1099:E:/LiteOS/LiteOS_Lab/drivers/third_party/ST/STM32L4xx_HAL_Driver/Src\stm32l4xx_hal_rcc_ex.c ****   *            @arg @ref RCC_PERIPHCLK_UART4  UART4 peripheral clock (only for devices with UART4)
1100:E:/LiteOS/LiteOS_Lab/drivers/third_party/ST/STM32L4xx_HAL_Driver/Src\stm32l4xx_hal_rcc_ex.c ****   *            @arg @ref RCC_PERIPHCLK_USB  USB peripheral clock (only for devices with USB)
1101:E:/LiteOS/LiteOS_Lab/drivers/third_party/ST/STM32L4xx_HAL_Driver/Src\stm32l4xx_hal_rcc_ex.c ****   @endif
1102:E:/LiteOS/LiteOS_Lab/drivers/third_party/ST/STM32L4xx_HAL_Driver/Src\stm32l4xx_hal_rcc_ex.c ****   @if STM32L486xx
1103:E:/LiteOS/LiteOS_Lab/drivers/third_party/ST/STM32L4xx_HAL_Driver/Src\stm32l4xx_hal_rcc_ex.c ****   *            @arg @ref RCC_PERIPHCLK_UART4  UART4 peripheral clock (only for devices with UART4)
1104:E:/LiteOS/LiteOS_Lab/drivers/third_party/ST/STM32L4xx_HAL_Driver/Src\stm32l4xx_hal_rcc_ex.c ****   *            @arg @ref RCC_PERIPHCLK_UART5  UART5 peripheral clock (only for devices with UART5)
1105:E:/LiteOS/LiteOS_Lab/drivers/third_party/ST/STM32L4xx_HAL_Driver/Src\stm32l4xx_hal_rcc_ex.c ****   *            @arg @ref RCC_PERIPHCLK_USB  USB peripheral clock (only for devices with USB)
1106:E:/LiteOS/LiteOS_Lab/drivers/third_party/ST/STM32L4xx_HAL_Driver/Src\stm32l4xx_hal_rcc_ex.c ****   @endif
1107:E:/LiteOS/LiteOS_Lab/drivers/third_party/ST/STM32L4xx_HAL_Driver/Src\stm32l4xx_hal_rcc_ex.c ****   @if STM32L4A6xx
1108:E:/LiteOS/LiteOS_Lab/drivers/third_party/ST/STM32L4xx_HAL_Driver/Src\stm32l4xx_hal_rcc_ex.c ****   *            @arg @ref RCC_PERIPHCLK_UART4  UART4 peripheral clock (only for devices with UART4)
1109:E:/LiteOS/LiteOS_Lab/drivers/third_party/ST/STM32L4xx_HAL_Driver/Src\stm32l4xx_hal_rcc_ex.c ****   *            @arg @ref RCC_PERIPHCLK_UART5  UART5 peripheral clock (only for devices with UART5)
1110:E:/LiteOS/LiteOS_Lab/drivers/third_party/ST/STM32L4xx_HAL_Driver/Src\stm32l4xx_hal_rcc_ex.c ****   *            @arg @ref RCC_PERIPHCLK_USB  USB peripheral clock (only for devices with USB)
1111:E:/LiteOS/LiteOS_Lab/drivers/third_party/ST/STM32L4xx_HAL_Driver/Src\stm32l4xx_hal_rcc_ex.c ****   @endif
1112:E:/LiteOS/LiteOS_Lab/drivers/third_party/ST/STM32L4xx_HAL_Driver/Src\stm32l4xx_hal_rcc_ex.c ****   @if STM32L4S9xx
1113:E:/LiteOS/LiteOS_Lab/drivers/third_party/ST/STM32L4xx_HAL_Driver/Src\stm32l4xx_hal_rcc_ex.c ****   *            @arg @ref RCC_PERIPHCLK_UART4  USART1 peripheral clock (only for devices with UART4)
1114:E:/LiteOS/LiteOS_Lab/drivers/third_party/ST/STM32L4xx_HAL_Driver/Src\stm32l4xx_hal_rcc_ex.c ****   *            @arg @ref RCC_PERIPHCLK_UART5  USART1 peripheral clock (only for devices with UART5)
1115:E:/LiteOS/LiteOS_Lab/drivers/third_party/ST/STM32L4xx_HAL_Driver/Src\stm32l4xx_hal_rcc_ex.c ****   *            @arg @ref RCC_PERIPHCLK_USB  USB peripheral clock (only for devices with USB)
1116:E:/LiteOS/LiteOS_Lab/drivers/third_party/ST/STM32L4xx_HAL_Driver/Src\stm32l4xx_hal_rcc_ex.c ****   *            @arg @ref RCC_PERIPHCLK_DFSDM1  DFSDM1 peripheral kernel clock (only for devices wit
1117:E:/LiteOS/LiteOS_Lab/drivers/third_party/ST/STM32L4xx_HAL_Driver/Src\stm32l4xx_hal_rcc_ex.c ****   *            @arg @ref RCC_PERIPHCLK_DFSDM1AUDIO  DFSDM1 peripheral audio clock (only for devices
1118:E:/LiteOS/LiteOS_Lab/drivers/third_party/ST/STM32L4xx_HAL_Driver/Src\stm32l4xx_hal_rcc_ex.c ****   *            @arg @ref RCC_PERIPHCLK_LTDC  LTDC peripheral clock (only for devices with LTDC)
1119:E:/LiteOS/LiteOS_Lab/drivers/third_party/ST/STM32L4xx_HAL_Driver/Src\stm32l4xx_hal_rcc_ex.c ****   *            @arg @ref RCC_PERIPHCLK_DSI  DSI peripheral clock (only for devices with DSI)
1120:E:/LiteOS/LiteOS_Lab/drivers/third_party/ST/STM32L4xx_HAL_Driver/Src\stm32l4xx_hal_rcc_ex.c ****   *            @arg @ref RCC_PERIPHCLK_OSPI  OctoSPI peripheral clock (only for devices with OctoSP
1121:E:/LiteOS/LiteOS_Lab/drivers/third_party/ST/STM32L4xx_HAL_Driver/Src\stm32l4xx_hal_rcc_ex.c ****   @endif
1122:E:/LiteOS/LiteOS_Lab/drivers/third_party/ST/STM32L4xx_HAL_Driver/Src\stm32l4xx_hal_rcc_ex.c ****   * @retval Frequency in Hz
1123:E:/LiteOS/LiteOS_Lab/drivers/third_party/ST/STM32L4xx_HAL_Driver/Src\stm32l4xx_hal_rcc_ex.c ****   */
1124:E:/LiteOS/LiteOS_Lab/drivers/third_party/ST/STM32L4xx_HAL_Driver/Src\stm32l4xx_hal_rcc_ex.c **** uint32_t HAL_RCCEx_GetPeriphCLKFreq(uint32_t PeriphClk)
1125:E:/LiteOS/LiteOS_Lab/drivers/third_party/ST/STM32L4xx_HAL_Driver/Src\stm32l4xx_hal_rcc_ex.c **** {
 813              		.loc 1 1125 0
 814              		.cfi_startproc
 815              		@ args = 0, pretend = 0, frame = 32
ARM GAS  C:\Users\user\AppData\Local\Temp\ccsJwa9Q.s 			page 35


 816              		@ frame_needed = 1, uses_anonymous_args = 0
 817 0000 80B5     		push	{r7, lr}
 818              	.LCFI11:
 819              		.cfi_def_cfa_offset 8
 820              		.cfi_offset 7, -8
 821              		.cfi_offset 14, -4
 822 0002 88B0     		sub	sp, sp, #32
 823              	.LCFI12:
 824              		.cfi_def_cfa_offset 40
 825 0004 00AF     		add	r7, sp, #0
 826              	.LCFI13:
 827              		.cfi_def_cfa_register 7
 828 0006 7860     		str	r0, [r7, #4]
1126:E:/LiteOS/LiteOS_Lab/drivers/third_party/ST/STM32L4xx_HAL_Driver/Src\stm32l4xx_hal_rcc_ex.c ****   uint32_t frequency = 0U;
 829              		.loc 1 1126 0
 830 0008 0023     		movs	r3, #0
 831 000a FB61     		str	r3, [r7, #28]
1127:E:/LiteOS/LiteOS_Lab/drivers/third_party/ST/STM32L4xx_HAL_Driver/Src\stm32l4xx_hal_rcc_ex.c ****   uint32_t srcclk = 0U;
 832              		.loc 1 1127 0
 833 000c 0023     		movs	r3, #0
 834 000e BB61     		str	r3, [r7, #24]
1128:E:/LiteOS/LiteOS_Lab/drivers/third_party/ST/STM32L4xx_HAL_Driver/Src\stm32l4xx_hal_rcc_ex.c ****   uint32_t pllvco = 0U, plln = 0U, pllp = 0U;
 835              		.loc 1 1128 0
 836 0010 0023     		movs	r3, #0
 837 0012 7B61     		str	r3, [r7, #20]
 838 0014 0023     		movs	r3, #0
 839 0016 FB60     		str	r3, [r7, #12]
 840 0018 0023     		movs	r3, #0
 841 001a 3B61     		str	r3, [r7, #16]
1129:E:/LiteOS/LiteOS_Lab/drivers/third_party/ST/STM32L4xx_HAL_Driver/Src\stm32l4xx_hal_rcc_ex.c **** 
1130:E:/LiteOS/LiteOS_Lab/drivers/third_party/ST/STM32L4xx_HAL_Driver/Src\stm32l4xx_hal_rcc_ex.c ****   /* Check the parameters */
1131:E:/LiteOS/LiteOS_Lab/drivers/third_party/ST/STM32L4xx_HAL_Driver/Src\stm32l4xx_hal_rcc_ex.c ****   assert_param(IS_RCC_PERIPHCLOCK(PeriphClk));
1132:E:/LiteOS/LiteOS_Lab/drivers/third_party/ST/STM32L4xx_HAL_Driver/Src\stm32l4xx_hal_rcc_ex.c **** 
1133:E:/LiteOS/LiteOS_Lab/drivers/third_party/ST/STM32L4xx_HAL_Driver/Src\stm32l4xx_hal_rcc_ex.c ****   if(PeriphClk == RCC_PERIPHCLK_RTC)
 842              		.loc 1 1133 0
 843 001c 7B68     		ldr	r3, [r7, #4]
 844 001e B3F5003F 		cmp	r3, #131072
 845 0022 34D1     		bne	.L48
1134:E:/LiteOS/LiteOS_Lab/drivers/third_party/ST/STM32L4xx_HAL_Driver/Src\stm32l4xx_hal_rcc_ex.c ****   {
1135:E:/LiteOS/LiteOS_Lab/drivers/third_party/ST/STM32L4xx_HAL_Driver/Src\stm32l4xx_hal_rcc_ex.c ****     /* Get the current RTC source */
1136:E:/LiteOS/LiteOS_Lab/drivers/third_party/ST/STM32L4xx_HAL_Driver/Src\stm32l4xx_hal_rcc_ex.c ****     srcclk = __HAL_RCC_GET_RTC_SOURCE();
 846              		.loc 1 1136 0
 847 0024 AA4B     		ldr	r3, .L162
 848 0026 D3F89030 		ldr	r3, [r3, #144]
 849 002a 03F44073 		and	r3, r3, #768
 850 002e BB61     		str	r3, [r7, #24]
1137:E:/LiteOS/LiteOS_Lab/drivers/third_party/ST/STM32L4xx_HAL_Driver/Src\stm32l4xx_hal_rcc_ex.c **** 
1138:E:/LiteOS/LiteOS_Lab/drivers/third_party/ST/STM32L4xx_HAL_Driver/Src\stm32l4xx_hal_rcc_ex.c ****     /* Check if LSE is ready and if RTC clock selection is LSE */
1139:E:/LiteOS/LiteOS_Lab/drivers/third_party/ST/STM32L4xx_HAL_Driver/Src\stm32l4xx_hal_rcc_ex.c ****     if ((srcclk == RCC_RTCCLKSOURCE_LSE) && (HAL_IS_BIT_SET(RCC->BDCR, RCC_BDCR_LSERDY)))
 851              		.loc 1 1139 0
 852 0030 BB69     		ldr	r3, [r7, #24]
 853 0032 B3F5807F 		cmp	r3, #256
 854 0036 0AD1     		bne	.L49
 855              		.loc 1 1139 0 is_stmt 0 discriminator 1
 856 0038 A54B     		ldr	r3, .L162
 857 003a D3F89030 		ldr	r3, [r3, #144]
 858 003e 03F00203 		and	r3, r3, #2
ARM GAS  C:\Users\user\AppData\Local\Temp\ccsJwa9Q.s 			page 36


 859 0042 022B     		cmp	r3, #2
 860 0044 03D1     		bne	.L49
1140:E:/LiteOS/LiteOS_Lab/drivers/third_party/ST/STM32L4xx_HAL_Driver/Src\stm32l4xx_hal_rcc_ex.c ****     {
1141:E:/LiteOS/LiteOS_Lab/drivers/third_party/ST/STM32L4xx_HAL_Driver/Src\stm32l4xx_hal_rcc_ex.c ****       frequency = LSE_VALUE;
 861              		.loc 1 1141 0 is_stmt 1
 862 0046 4FF40043 		mov	r3, #32768
 863 004a FB61     		str	r3, [r7, #28]
 864 004c F1E3     		b	.L53
 865              	.L49:
1142:E:/LiteOS/LiteOS_Lab/drivers/third_party/ST/STM32L4xx_HAL_Driver/Src\stm32l4xx_hal_rcc_ex.c ****     }
1143:E:/LiteOS/LiteOS_Lab/drivers/third_party/ST/STM32L4xx_HAL_Driver/Src\stm32l4xx_hal_rcc_ex.c ****     /* Check if LSI is ready and if RTC clock selection is LSI */
1144:E:/LiteOS/LiteOS_Lab/drivers/third_party/ST/STM32L4xx_HAL_Driver/Src\stm32l4xx_hal_rcc_ex.c ****     else if ((srcclk == RCC_RTCCLKSOURCE_LSI) && (HAL_IS_BIT_SET(RCC->CSR, RCC_CSR_LSIRDY)))
 866              		.loc 1 1144 0
 867 004e BB69     		ldr	r3, [r7, #24]
 868 0050 B3F5007F 		cmp	r3, #512
 869 0054 0AD1     		bne	.L51
 870              		.loc 1 1144 0 is_stmt 0 discriminator 1
 871 0056 9E4B     		ldr	r3, .L162
 872 0058 D3F89430 		ldr	r3, [r3, #148]
 873 005c 03F00203 		and	r3, r3, #2
 874 0060 022B     		cmp	r3, #2
 875 0062 03D1     		bne	.L51
1145:E:/LiteOS/LiteOS_Lab/drivers/third_party/ST/STM32L4xx_HAL_Driver/Src\stm32l4xx_hal_rcc_ex.c ****     {
1146:E:/LiteOS/LiteOS_Lab/drivers/third_party/ST/STM32L4xx_HAL_Driver/Src\stm32l4xx_hal_rcc_ex.c ****       frequency = LSI_VALUE;
 876              		.loc 1 1146 0 is_stmt 1
 877 0064 4FF4FA43 		mov	r3, #32000
 878 0068 FB61     		str	r3, [r7, #28]
 879 006a E2E3     		b	.L53
 880              	.L51:
1147:E:/LiteOS/LiteOS_Lab/drivers/third_party/ST/STM32L4xx_HAL_Driver/Src\stm32l4xx_hal_rcc_ex.c ****     }
1148:E:/LiteOS/LiteOS_Lab/drivers/third_party/ST/STM32L4xx_HAL_Driver/Src\stm32l4xx_hal_rcc_ex.c ****     /* Check if HSE is ready  and if RTC clock selection is HSI_DIV32*/
1149:E:/LiteOS/LiteOS_Lab/drivers/third_party/ST/STM32L4xx_HAL_Driver/Src\stm32l4xx_hal_rcc_ex.c ****     else if ((srcclk == RCC_RTCCLKSOURCE_HSE_DIV32) && (HAL_IS_BIT_SET(RCC->CR, RCC_CR_HSERDY)))
 881              		.loc 1 1149 0
 882 006c BB69     		ldr	r3, [r7, #24]
 883 006e B3F5407F 		cmp	r3, #768
 884 0072 09D1     		bne	.L52
 885              		.loc 1 1149 0 is_stmt 0 discriminator 1
 886 0074 964B     		ldr	r3, .L162
 887 0076 1B68     		ldr	r3, [r3]
 888 0078 03F40033 		and	r3, r3, #131072
 889 007c B3F5003F 		cmp	r3, #131072
 890 0080 02D1     		bne	.L52
1150:E:/LiteOS/LiteOS_Lab/drivers/third_party/ST/STM32L4xx_HAL_Driver/Src\stm32l4xx_hal_rcc_ex.c ****     {
1151:E:/LiteOS/LiteOS_Lab/drivers/third_party/ST/STM32L4xx_HAL_Driver/Src\stm32l4xx_hal_rcc_ex.c ****       frequency = HSE_VALUE / 32U;
 891              		.loc 1 1151 0 is_stmt 1
 892 0082 944B     		ldr	r3, .L162+4
 893 0084 FB61     		str	r3, [r7, #28]
 894 0086 D4E3     		b	.L53
 895              	.L52:
1152:E:/LiteOS/LiteOS_Lab/drivers/third_party/ST/STM32L4xx_HAL_Driver/Src\stm32l4xx_hal_rcc_ex.c ****     }
1153:E:/LiteOS/LiteOS_Lab/drivers/third_party/ST/STM32L4xx_HAL_Driver/Src\stm32l4xx_hal_rcc_ex.c ****     /* Clock not enabled for RTC*/
1154:E:/LiteOS/LiteOS_Lab/drivers/third_party/ST/STM32L4xx_HAL_Driver/Src\stm32l4xx_hal_rcc_ex.c ****     else
1155:E:/LiteOS/LiteOS_Lab/drivers/third_party/ST/STM32L4xx_HAL_Driver/Src\stm32l4xx_hal_rcc_ex.c ****     {
1156:E:/LiteOS/LiteOS_Lab/drivers/third_party/ST/STM32L4xx_HAL_Driver/Src\stm32l4xx_hal_rcc_ex.c ****       frequency = 0U;
 896              		.loc 1 1156 0
 897 0088 0023     		movs	r3, #0
 898 008a FB61     		str	r3, [r7, #28]
ARM GAS  C:\Users\user\AppData\Local\Temp\ccsJwa9Q.s 			page 37


 899 008c D1E3     		b	.L53
 900              	.L48:
1157:E:/LiteOS/LiteOS_Lab/drivers/third_party/ST/STM32L4xx_HAL_Driver/Src\stm32l4xx_hal_rcc_ex.c ****     }
1158:E:/LiteOS/LiteOS_Lab/drivers/third_party/ST/STM32L4xx_HAL_Driver/Src\stm32l4xx_hal_rcc_ex.c ****   }
1159:E:/LiteOS/LiteOS_Lab/drivers/third_party/ST/STM32L4xx_HAL_Driver/Src\stm32l4xx_hal_rcc_ex.c ****   else
1160:E:/LiteOS/LiteOS_Lab/drivers/third_party/ST/STM32L4xx_HAL_Driver/Src\stm32l4xx_hal_rcc_ex.c ****   {
1161:E:/LiteOS/LiteOS_Lab/drivers/third_party/ST/STM32L4xx_HAL_Driver/Src\stm32l4xx_hal_rcc_ex.c ****     /* Other external peripheral clock source than RTC */
1162:E:/LiteOS/LiteOS_Lab/drivers/third_party/ST/STM32L4xx_HAL_Driver/Src\stm32l4xx_hal_rcc_ex.c **** 
1163:E:/LiteOS/LiteOS_Lab/drivers/third_party/ST/STM32L4xx_HAL_Driver/Src\stm32l4xx_hal_rcc_ex.c ****     /* Compute PLL clock input */
1164:E:/LiteOS/LiteOS_Lab/drivers/third_party/ST/STM32L4xx_HAL_Driver/Src\stm32l4xx_hal_rcc_ex.c ****     if(__HAL_RCC_GET_PLL_OSCSOURCE() == RCC_PLLSOURCE_MSI)        /* MSI ? */
 901              		.loc 1 1164 0
 902 008e 904B     		ldr	r3, .L162
 903 0090 DB68     		ldr	r3, [r3, #12]
 904 0092 03F00303 		and	r3, r3, #3
 905 0096 012B     		cmp	r3, #1
 906 0098 1FD1     		bne	.L54
1165:E:/LiteOS/LiteOS_Lab/drivers/third_party/ST/STM32L4xx_HAL_Driver/Src\stm32l4xx_hal_rcc_ex.c ****     {
1166:E:/LiteOS/LiteOS_Lab/drivers/third_party/ST/STM32L4xx_HAL_Driver/Src\stm32l4xx_hal_rcc_ex.c ****       if(HAL_IS_BIT_SET(RCC->CR, RCC_CR_MSIRDY))
 907              		.loc 1 1166 0
 908 009a 8D4B     		ldr	r3, .L162
 909 009c 1B68     		ldr	r3, [r3]
 910 009e 03F00203 		and	r3, r3, #2
 911 00a2 022B     		cmp	r3, #2
 912 00a4 16D1     		bne	.L55
1167:E:/LiteOS/LiteOS_Lab/drivers/third_party/ST/STM32L4xx_HAL_Driver/Src\stm32l4xx_hal_rcc_ex.c ****       {
1168:E:/LiteOS/LiteOS_Lab/drivers/third_party/ST/STM32L4xx_HAL_Driver/Src\stm32l4xx_hal_rcc_ex.c ****         /*MSI frequency range in HZ*/
1169:E:/LiteOS/LiteOS_Lab/drivers/third_party/ST/STM32L4xx_HAL_Driver/Src\stm32l4xx_hal_rcc_ex.c ****         pllvco = MSIRangeTable[(__HAL_RCC_GET_MSI_RANGE() >> 4U)];
 913              		.loc 1 1169 0
 914 00a6 8A4B     		ldr	r3, .L162
 915 00a8 1B68     		ldr	r3, [r3]
 916 00aa 03F00803 		and	r3, r3, #8
 917 00ae 002B     		cmp	r3, #0
 918 00b0 05D0     		beq	.L56
 919              		.loc 1 1169 0 is_stmt 0 discriminator 1
 920 00b2 874B     		ldr	r3, .L162
 921 00b4 1B68     		ldr	r3, [r3]
 922 00b6 1B09     		lsrs	r3, r3, #4
 923 00b8 03F00F03 		and	r3, r3, #15
 924 00bc 05E0     		b	.L57
 925              	.L56:
 926              		.loc 1 1169 0 discriminator 2
 927 00be 844B     		ldr	r3, .L162
 928 00c0 D3F89430 		ldr	r3, [r3, #148]
 929 00c4 1B0A     		lsrs	r3, r3, #8
 930 00c6 03F00F03 		and	r3, r3, #15
 931              	.L57:
 932              		.loc 1 1169 0 discriminator 4
 933 00ca 834A     		ldr	r2, .L162+8
 934 00cc 52F82330 		ldr	r3, [r2, r3, lsl #2]
 935 00d0 7B61     		str	r3, [r7, #20]
 936 00d2 2AE0     		b	.L59
 937              	.L55:
1170:E:/LiteOS/LiteOS_Lab/drivers/third_party/ST/STM32L4xx_HAL_Driver/Src\stm32l4xx_hal_rcc_ex.c ****       }
1171:E:/LiteOS/LiteOS_Lab/drivers/third_party/ST/STM32L4xx_HAL_Driver/Src\stm32l4xx_hal_rcc_ex.c ****       else
1172:E:/LiteOS/LiteOS_Lab/drivers/third_party/ST/STM32L4xx_HAL_Driver/Src\stm32l4xx_hal_rcc_ex.c ****       {
1173:E:/LiteOS/LiteOS_Lab/drivers/third_party/ST/STM32L4xx_HAL_Driver/Src\stm32l4xx_hal_rcc_ex.c ****         pllvco = 0U;
 938              		.loc 1 1173 0 is_stmt 1
ARM GAS  C:\Users\user\AppData\Local\Temp\ccsJwa9Q.s 			page 38


 939 00d4 0023     		movs	r3, #0
 940 00d6 7B61     		str	r3, [r7, #20]
 941 00d8 27E0     		b	.L59
 942              	.L54:
1174:E:/LiteOS/LiteOS_Lab/drivers/third_party/ST/STM32L4xx_HAL_Driver/Src\stm32l4xx_hal_rcc_ex.c ****       }
1175:E:/LiteOS/LiteOS_Lab/drivers/third_party/ST/STM32L4xx_HAL_Driver/Src\stm32l4xx_hal_rcc_ex.c ****     }
1176:E:/LiteOS/LiteOS_Lab/drivers/third_party/ST/STM32L4xx_HAL_Driver/Src\stm32l4xx_hal_rcc_ex.c ****     else if(__HAL_RCC_GET_PLL_OSCSOURCE() == RCC_PLLSOURCE_HSI)   /* HSI ? */
 943              		.loc 1 1176 0
 944 00da 7D4B     		ldr	r3, .L162
 945 00dc DB68     		ldr	r3, [r3, #12]
 946 00de 03F00303 		and	r3, r3, #3
 947 00e2 022B     		cmp	r3, #2
 948 00e4 0CD1     		bne	.L60
1177:E:/LiteOS/LiteOS_Lab/drivers/third_party/ST/STM32L4xx_HAL_Driver/Src\stm32l4xx_hal_rcc_ex.c ****     {
1178:E:/LiteOS/LiteOS_Lab/drivers/third_party/ST/STM32L4xx_HAL_Driver/Src\stm32l4xx_hal_rcc_ex.c ****       if(HAL_IS_BIT_SET(RCC->CR, RCC_CR_HSIRDY))
 949              		.loc 1 1178 0
 950 00e6 7A4B     		ldr	r3, .L162
 951 00e8 1B68     		ldr	r3, [r3]
 952 00ea 03F48063 		and	r3, r3, #1024
 953 00ee B3F5806F 		cmp	r3, #1024
 954 00f2 02D1     		bne	.L61
1179:E:/LiteOS/LiteOS_Lab/drivers/third_party/ST/STM32L4xx_HAL_Driver/Src\stm32l4xx_hal_rcc_ex.c ****       {
1180:E:/LiteOS/LiteOS_Lab/drivers/third_party/ST/STM32L4xx_HAL_Driver/Src\stm32l4xx_hal_rcc_ex.c ****         pllvco = HSI_VALUE;
 955              		.loc 1 1180 0
 956 00f4 794B     		ldr	r3, .L162+12
 957 00f6 7B61     		str	r3, [r7, #20]
 958 00f8 17E0     		b	.L59
 959              	.L61:
1181:E:/LiteOS/LiteOS_Lab/drivers/third_party/ST/STM32L4xx_HAL_Driver/Src\stm32l4xx_hal_rcc_ex.c ****       }
1182:E:/LiteOS/LiteOS_Lab/drivers/third_party/ST/STM32L4xx_HAL_Driver/Src\stm32l4xx_hal_rcc_ex.c ****       else
1183:E:/LiteOS/LiteOS_Lab/drivers/third_party/ST/STM32L4xx_HAL_Driver/Src\stm32l4xx_hal_rcc_ex.c ****       {
1184:E:/LiteOS/LiteOS_Lab/drivers/third_party/ST/STM32L4xx_HAL_Driver/Src\stm32l4xx_hal_rcc_ex.c ****         pllvco = 0U;
 960              		.loc 1 1184 0
 961 00fa 0023     		movs	r3, #0
 962 00fc 7B61     		str	r3, [r7, #20]
 963 00fe 14E0     		b	.L59
 964              	.L60:
1185:E:/LiteOS/LiteOS_Lab/drivers/third_party/ST/STM32L4xx_HAL_Driver/Src\stm32l4xx_hal_rcc_ex.c ****       }
1186:E:/LiteOS/LiteOS_Lab/drivers/third_party/ST/STM32L4xx_HAL_Driver/Src\stm32l4xx_hal_rcc_ex.c ****     }
1187:E:/LiteOS/LiteOS_Lab/drivers/third_party/ST/STM32L4xx_HAL_Driver/Src\stm32l4xx_hal_rcc_ex.c ****     else if(__HAL_RCC_GET_PLL_OSCSOURCE() == RCC_PLLSOURCE_HSE)   /* HSE ? */
 965              		.loc 1 1187 0
 966 0100 734B     		ldr	r3, .L162
 967 0102 DB68     		ldr	r3, [r3, #12]
 968 0104 03F00303 		and	r3, r3, #3
 969 0108 032B     		cmp	r3, #3
 970 010a 0CD1     		bne	.L63
1188:E:/LiteOS/LiteOS_Lab/drivers/third_party/ST/STM32L4xx_HAL_Driver/Src\stm32l4xx_hal_rcc_ex.c ****     {
1189:E:/LiteOS/LiteOS_Lab/drivers/third_party/ST/STM32L4xx_HAL_Driver/Src\stm32l4xx_hal_rcc_ex.c ****       if(HAL_IS_BIT_SET(RCC->CR, RCC_CR_HSERDY))
 971              		.loc 1 1189 0
 972 010c 704B     		ldr	r3, .L162
 973 010e 1B68     		ldr	r3, [r3]
 974 0110 03F40033 		and	r3, r3, #131072
 975 0114 B3F5003F 		cmp	r3, #131072
 976 0118 02D1     		bne	.L64
1190:E:/LiteOS/LiteOS_Lab/drivers/third_party/ST/STM32L4xx_HAL_Driver/Src\stm32l4xx_hal_rcc_ex.c ****       {
1191:E:/LiteOS/LiteOS_Lab/drivers/third_party/ST/STM32L4xx_HAL_Driver/Src\stm32l4xx_hal_rcc_ex.c ****         pllvco = HSE_VALUE;
 977              		.loc 1 1191 0
ARM GAS  C:\Users\user\AppData\Local\Temp\ccsJwa9Q.s 			page 39


 978 011a 714B     		ldr	r3, .L162+16
 979 011c 7B61     		str	r3, [r7, #20]
 980 011e 04E0     		b	.L59
 981              	.L64:
1192:E:/LiteOS/LiteOS_Lab/drivers/third_party/ST/STM32L4xx_HAL_Driver/Src\stm32l4xx_hal_rcc_ex.c ****       }
1193:E:/LiteOS/LiteOS_Lab/drivers/third_party/ST/STM32L4xx_HAL_Driver/Src\stm32l4xx_hal_rcc_ex.c ****       else
1194:E:/LiteOS/LiteOS_Lab/drivers/third_party/ST/STM32L4xx_HAL_Driver/Src\stm32l4xx_hal_rcc_ex.c ****       {
1195:E:/LiteOS/LiteOS_Lab/drivers/third_party/ST/STM32L4xx_HAL_Driver/Src\stm32l4xx_hal_rcc_ex.c ****         pllvco = 0U;
 982              		.loc 1 1195 0
 983 0120 0023     		movs	r3, #0
 984 0122 7B61     		str	r3, [r7, #20]
 985 0124 01E0     		b	.L59
 986              	.L63:
1196:E:/LiteOS/LiteOS_Lab/drivers/third_party/ST/STM32L4xx_HAL_Driver/Src\stm32l4xx_hal_rcc_ex.c ****       }
1197:E:/LiteOS/LiteOS_Lab/drivers/third_party/ST/STM32L4xx_HAL_Driver/Src\stm32l4xx_hal_rcc_ex.c ****     }
1198:E:/LiteOS/LiteOS_Lab/drivers/third_party/ST/STM32L4xx_HAL_Driver/Src\stm32l4xx_hal_rcc_ex.c ****     else /* No source */
1199:E:/LiteOS/LiteOS_Lab/drivers/third_party/ST/STM32L4xx_HAL_Driver/Src\stm32l4xx_hal_rcc_ex.c ****     {
1200:E:/LiteOS/LiteOS_Lab/drivers/third_party/ST/STM32L4xx_HAL_Driver/Src\stm32l4xx_hal_rcc_ex.c ****       pllvco = 0U;
 987              		.loc 1 1200 0
 988 0126 0023     		movs	r3, #0
 989 0128 7B61     		str	r3, [r7, #20]
 990              	.L59:
1201:E:/LiteOS/LiteOS_Lab/drivers/third_party/ST/STM32L4xx_HAL_Driver/Src\stm32l4xx_hal_rcc_ex.c ****     }
1202:E:/LiteOS/LiteOS_Lab/drivers/third_party/ST/STM32L4xx_HAL_Driver/Src\stm32l4xx_hal_rcc_ex.c **** 
1203:E:/LiteOS/LiteOS_Lab/drivers/third_party/ST/STM32L4xx_HAL_Driver/Src\stm32l4xx_hal_rcc_ex.c **** #if !defined(RCC_PLLSAI1M_DIV_1_16_SUPPORT) && !defined(RCC_PLLSAI2M_DIV_1_16_SUPPORT)
1204:E:/LiteOS/LiteOS_Lab/drivers/third_party/ST/STM32L4xx_HAL_Driver/Src\stm32l4xx_hal_rcc_ex.c ****     /* f(PLL Source) / PLLM */
1205:E:/LiteOS/LiteOS_Lab/drivers/third_party/ST/STM32L4xx_HAL_Driver/Src\stm32l4xx_hal_rcc_ex.c ****     pllvco = (pllvco / ((READ_BIT(RCC->PLLCFGR, RCC_PLLCFGR_PLLM) >> RCC_PLLCFGR_PLLM_Pos) + 1U));
 991              		.loc 1 1205 0
 992 012a 694B     		ldr	r3, .L162
 993 012c DB68     		ldr	r3, [r3, #12]
 994 012e 1B09     		lsrs	r3, r3, #4
 995 0130 03F00703 		and	r3, r3, #7
 996 0134 0133     		adds	r3, r3, #1
 997 0136 7A69     		ldr	r2, [r7, #20]
 998 0138 B2FBF3F3 		udiv	r3, r2, r3
 999 013c 7B61     		str	r3, [r7, #20]
1206:E:/LiteOS/LiteOS_Lab/drivers/third_party/ST/STM32L4xx_HAL_Driver/Src\stm32l4xx_hal_rcc_ex.c **** #endif
1207:E:/LiteOS/LiteOS_Lab/drivers/third_party/ST/STM32L4xx_HAL_Driver/Src\stm32l4xx_hal_rcc_ex.c **** 
1208:E:/LiteOS/LiteOS_Lab/drivers/third_party/ST/STM32L4xx_HAL_Driver/Src\stm32l4xx_hal_rcc_ex.c ****     switch(PeriphClk)
 1000              		.loc 1 1208 0
 1001 013e 7B68     		ldr	r3, [r7, #4]
 1002 0140 B3F5807F 		cmp	r3, #256
 1003 0144 00F0B482 		beq	.L67
 1004 0148 B3F5807F 		cmp	r3, #256
 1005 014c 15D8     		bhi	.L68
 1006 014e 042B     		cmp	r3, #4
 1007 0150 00F0BF81 		beq	.L69
 1008 0154 042B     		cmp	r3, #4
 1009 0156 06D8     		bhi	.L70
 1010 0158 012B     		cmp	r3, #1
 1011 015a 00F05481 		beq	.L71
 1012 015e 022B     		cmp	r3, #2
 1013 0160 00F08481 		beq	.L72
1209:E:/LiteOS/LiteOS_Lab/drivers/third_party/ST/STM32L4xx_HAL_Driver/Src\stm32l4xx_hal_rcc_ex.c ****     {
1210:E:/LiteOS/LiteOS_Lab/drivers/third_party/ST/STM32L4xx_HAL_Driver/Src\stm32l4xx_hal_rcc_ex.c **** #if defined(SAI2)
1211:E:/LiteOS/LiteOS_Lab/drivers/third_party/ST/STM32L4xx_HAL_Driver/Src\stm32l4xx_hal_rcc_ex.c **** 
1212:E:/LiteOS/LiteOS_Lab/drivers/third_party/ST/STM32L4xx_HAL_Driver/Src\stm32l4xx_hal_rcc_ex.c ****     case RCC_PERIPHCLK_SAI1:
ARM GAS  C:\Users\user\AppData\Local\Temp\ccsJwa9Q.s 			page 40


1213:E:/LiteOS/LiteOS_Lab/drivers/third_party/ST/STM32L4xx_HAL_Driver/Src\stm32l4xx_hal_rcc_ex.c ****     case RCC_PERIPHCLK_SAI2:
1214:E:/LiteOS/LiteOS_Lab/drivers/third_party/ST/STM32L4xx_HAL_Driver/Src\stm32l4xx_hal_rcc_ex.c **** 
1215:E:/LiteOS/LiteOS_Lab/drivers/third_party/ST/STM32L4xx_HAL_Driver/Src\stm32l4xx_hal_rcc_ex.c ****       if(PeriphClk == RCC_PERIPHCLK_SAI1)
1216:E:/LiteOS/LiteOS_Lab/drivers/third_party/ST/STM32L4xx_HAL_Driver/Src\stm32l4xx_hal_rcc_ex.c ****       {
1217:E:/LiteOS/LiteOS_Lab/drivers/third_party/ST/STM32L4xx_HAL_Driver/Src\stm32l4xx_hal_rcc_ex.c ****         srcclk = __HAL_RCC_GET_SAI1_SOURCE();
1218:E:/LiteOS/LiteOS_Lab/drivers/third_party/ST/STM32L4xx_HAL_Driver/Src\stm32l4xx_hal_rcc_ex.c **** 
1219:E:/LiteOS/LiteOS_Lab/drivers/third_party/ST/STM32L4xx_HAL_Driver/Src\stm32l4xx_hal_rcc_ex.c ****         if(srcclk == RCC_SAI1CLKSOURCE_PIN)
1220:E:/LiteOS/LiteOS_Lab/drivers/third_party/ST/STM32L4xx_HAL_Driver/Src\stm32l4xx_hal_rcc_ex.c ****         {
1221:E:/LiteOS/LiteOS_Lab/drivers/third_party/ST/STM32L4xx_HAL_Driver/Src\stm32l4xx_hal_rcc_ex.c ****           frequency = EXTERNAL_SAI1_CLOCK_VALUE;
1222:E:/LiteOS/LiteOS_Lab/drivers/third_party/ST/STM32L4xx_HAL_Driver/Src\stm32l4xx_hal_rcc_ex.c ****         }
1223:E:/LiteOS/LiteOS_Lab/drivers/third_party/ST/STM32L4xx_HAL_Driver/Src\stm32l4xx_hal_rcc_ex.c ****         /* Else, PLL clock output to check below */
1224:E:/LiteOS/LiteOS_Lab/drivers/third_party/ST/STM32L4xx_HAL_Driver/Src\stm32l4xx_hal_rcc_ex.c ****       }
1225:E:/LiteOS/LiteOS_Lab/drivers/third_party/ST/STM32L4xx_HAL_Driver/Src\stm32l4xx_hal_rcc_ex.c ****       else /* RCC_PERIPHCLK_SAI2 */
1226:E:/LiteOS/LiteOS_Lab/drivers/third_party/ST/STM32L4xx_HAL_Driver/Src\stm32l4xx_hal_rcc_ex.c ****       {
1227:E:/LiteOS/LiteOS_Lab/drivers/third_party/ST/STM32L4xx_HAL_Driver/Src\stm32l4xx_hal_rcc_ex.c ****         srcclk = __HAL_RCC_GET_SAI2_SOURCE();
1228:E:/LiteOS/LiteOS_Lab/drivers/third_party/ST/STM32L4xx_HAL_Driver/Src\stm32l4xx_hal_rcc_ex.c **** 
1229:E:/LiteOS/LiteOS_Lab/drivers/third_party/ST/STM32L4xx_HAL_Driver/Src\stm32l4xx_hal_rcc_ex.c ****         if(srcclk == RCC_SAI2CLKSOURCE_PIN)
1230:E:/LiteOS/LiteOS_Lab/drivers/third_party/ST/STM32L4xx_HAL_Driver/Src\stm32l4xx_hal_rcc_ex.c ****         {
1231:E:/LiteOS/LiteOS_Lab/drivers/third_party/ST/STM32L4xx_HAL_Driver/Src\stm32l4xx_hal_rcc_ex.c ****           frequency = EXTERNAL_SAI2_CLOCK_VALUE;
1232:E:/LiteOS/LiteOS_Lab/drivers/third_party/ST/STM32L4xx_HAL_Driver/Src\stm32l4xx_hal_rcc_ex.c ****         }
1233:E:/LiteOS/LiteOS_Lab/drivers/third_party/ST/STM32L4xx_HAL_Driver/Src\stm32l4xx_hal_rcc_ex.c ****         /* Else, PLL clock output to check below */
1234:E:/LiteOS/LiteOS_Lab/drivers/third_party/ST/STM32L4xx_HAL_Driver/Src\stm32l4xx_hal_rcc_ex.c ****       }
1235:E:/LiteOS/LiteOS_Lab/drivers/third_party/ST/STM32L4xx_HAL_Driver/Src\stm32l4xx_hal_rcc_ex.c **** 
1236:E:/LiteOS/LiteOS_Lab/drivers/third_party/ST/STM32L4xx_HAL_Driver/Src\stm32l4xx_hal_rcc_ex.c **** #else
1237:E:/LiteOS/LiteOS_Lab/drivers/third_party/ST/STM32L4xx_HAL_Driver/Src\stm32l4xx_hal_rcc_ex.c **** 
1238:E:/LiteOS/LiteOS_Lab/drivers/third_party/ST/STM32L4xx_HAL_Driver/Src\stm32l4xx_hal_rcc_ex.c ****     case RCC_PERIPHCLK_SAI1:
1239:E:/LiteOS/LiteOS_Lab/drivers/third_party/ST/STM32L4xx_HAL_Driver/Src\stm32l4xx_hal_rcc_ex.c **** 
1240:E:/LiteOS/LiteOS_Lab/drivers/third_party/ST/STM32L4xx_HAL_Driver/Src\stm32l4xx_hal_rcc_ex.c ****       if(PeriphClk == RCC_PERIPHCLK_SAI1)
1241:E:/LiteOS/LiteOS_Lab/drivers/third_party/ST/STM32L4xx_HAL_Driver/Src\stm32l4xx_hal_rcc_ex.c ****       {
1242:E:/LiteOS/LiteOS_Lab/drivers/third_party/ST/STM32L4xx_HAL_Driver/Src\stm32l4xx_hal_rcc_ex.c ****         srcclk = READ_BIT(RCC->CCIPR, RCC_CCIPR_SAI1SEL);
1243:E:/LiteOS/LiteOS_Lab/drivers/third_party/ST/STM32L4xx_HAL_Driver/Src\stm32l4xx_hal_rcc_ex.c **** 
1244:E:/LiteOS/LiteOS_Lab/drivers/third_party/ST/STM32L4xx_HAL_Driver/Src\stm32l4xx_hal_rcc_ex.c ****         if(srcclk == RCC_SAI1CLKSOURCE_PIN)
1245:E:/LiteOS/LiteOS_Lab/drivers/third_party/ST/STM32L4xx_HAL_Driver/Src\stm32l4xx_hal_rcc_ex.c ****         {
1246:E:/LiteOS/LiteOS_Lab/drivers/third_party/ST/STM32L4xx_HAL_Driver/Src\stm32l4xx_hal_rcc_ex.c ****           frequency = EXTERNAL_SAI1_CLOCK_VALUE;
1247:E:/LiteOS/LiteOS_Lab/drivers/third_party/ST/STM32L4xx_HAL_Driver/Src\stm32l4xx_hal_rcc_ex.c ****         }
1248:E:/LiteOS/LiteOS_Lab/drivers/third_party/ST/STM32L4xx_HAL_Driver/Src\stm32l4xx_hal_rcc_ex.c ****         /* Else, PLL clock output to check below */
1249:E:/LiteOS/LiteOS_Lab/drivers/third_party/ST/STM32L4xx_HAL_Driver/Src\stm32l4xx_hal_rcc_ex.c ****       }
1250:E:/LiteOS/LiteOS_Lab/drivers/third_party/ST/STM32L4xx_HAL_Driver/Src\stm32l4xx_hal_rcc_ex.c **** 
1251:E:/LiteOS/LiteOS_Lab/drivers/third_party/ST/STM32L4xx_HAL_Driver/Src\stm32l4xx_hal_rcc_ex.c **** #endif /* SAI2 */
1252:E:/LiteOS/LiteOS_Lab/drivers/third_party/ST/STM32L4xx_HAL_Driver/Src\stm32l4xx_hal_rcc_ex.c **** 
1253:E:/LiteOS/LiteOS_Lab/drivers/third_party/ST/STM32L4xx_HAL_Driver/Src\stm32l4xx_hal_rcc_ex.c ****       if(frequency == 0U)
1254:E:/LiteOS/LiteOS_Lab/drivers/third_party/ST/STM32L4xx_HAL_Driver/Src\stm32l4xx_hal_rcc_ex.c ****       {
1255:E:/LiteOS/LiteOS_Lab/drivers/third_party/ST/STM32L4xx_HAL_Driver/Src\stm32l4xx_hal_rcc_ex.c **** #if defined(SAI2)
1256:E:/LiteOS/LiteOS_Lab/drivers/third_party/ST/STM32L4xx_HAL_Driver/Src\stm32l4xx_hal_rcc_ex.c ****         if((srcclk == RCC_SAI1CLKSOURCE_PLL) || (srcclk == RCC_SAI2CLKSOURCE_PLL))
1257:E:/LiteOS/LiteOS_Lab/drivers/third_party/ST/STM32L4xx_HAL_Driver/Src\stm32l4xx_hal_rcc_ex.c ****         {
1258:E:/LiteOS/LiteOS_Lab/drivers/third_party/ST/STM32L4xx_HAL_Driver/Src\stm32l4xx_hal_rcc_ex.c ****           if(__HAL_RCC_GET_PLLCLKOUT_CONFIG(RCC_PLL_SAI3CLK) != RESET)
1259:E:/LiteOS/LiteOS_Lab/drivers/third_party/ST/STM32L4xx_HAL_Driver/Src\stm32l4xx_hal_rcc_ex.c ****           {
1260:E:/LiteOS/LiteOS_Lab/drivers/third_party/ST/STM32L4xx_HAL_Driver/Src\stm32l4xx_hal_rcc_ex.c ****             /* f(PLLSAI3CLK) = f(VCO input) * PLLN / PLLP */
1261:E:/LiteOS/LiteOS_Lab/drivers/third_party/ST/STM32L4xx_HAL_Driver/Src\stm32l4xx_hal_rcc_ex.c ****             plln = READ_BIT(RCC->PLLCFGR, RCC_PLLCFGR_PLLN) >> RCC_PLLCFGR_PLLN_Pos;
1262:E:/LiteOS/LiteOS_Lab/drivers/third_party/ST/STM32L4xx_HAL_Driver/Src\stm32l4xx_hal_rcc_ex.c **** #if defined(RCC_PLLP_DIV_2_31_SUPPORT)
1263:E:/LiteOS/LiteOS_Lab/drivers/third_party/ST/STM32L4xx_HAL_Driver/Src\stm32l4xx_hal_rcc_ex.c ****             pllp = READ_BIT(RCC->PLLCFGR, RCC_PLLCFGR_PLLPDIV) >> RCC_PLLCFGR_PLLPDIV_Pos;
1264:E:/LiteOS/LiteOS_Lab/drivers/third_party/ST/STM32L4xx_HAL_Driver/Src\stm32l4xx_hal_rcc_ex.c **** #endif
1265:E:/LiteOS/LiteOS_Lab/drivers/third_party/ST/STM32L4xx_HAL_Driver/Src\stm32l4xx_hal_rcc_ex.c ****             if(pllp == 0U)
1266:E:/LiteOS/LiteOS_Lab/drivers/third_party/ST/STM32L4xx_HAL_Driver/Src\stm32l4xx_hal_rcc_ex.c ****             {
1267:E:/LiteOS/LiteOS_Lab/drivers/third_party/ST/STM32L4xx_HAL_Driver/Src\stm32l4xx_hal_rcc_ex.c ****               if(READ_BIT(RCC->PLLCFGR, RCC_PLLCFGR_PLLP) != RESET)
1268:E:/LiteOS/LiteOS_Lab/drivers/third_party/ST/STM32L4xx_HAL_Driver/Src\stm32l4xx_hal_rcc_ex.c ****               {
1269:E:/LiteOS/LiteOS_Lab/drivers/third_party/ST/STM32L4xx_HAL_Driver/Src\stm32l4xx_hal_rcc_ex.c ****                 pllp = 17U;
ARM GAS  C:\Users\user\AppData\Local\Temp\ccsJwa9Q.s 			page 41


1270:E:/LiteOS/LiteOS_Lab/drivers/third_party/ST/STM32L4xx_HAL_Driver/Src\stm32l4xx_hal_rcc_ex.c ****               }
1271:E:/LiteOS/LiteOS_Lab/drivers/third_party/ST/STM32L4xx_HAL_Driver/Src\stm32l4xx_hal_rcc_ex.c ****               else
1272:E:/LiteOS/LiteOS_Lab/drivers/third_party/ST/STM32L4xx_HAL_Driver/Src\stm32l4xx_hal_rcc_ex.c ****               {
1273:E:/LiteOS/LiteOS_Lab/drivers/third_party/ST/STM32L4xx_HAL_Driver/Src\stm32l4xx_hal_rcc_ex.c ****                 pllp = 7U;
1274:E:/LiteOS/LiteOS_Lab/drivers/third_party/ST/STM32L4xx_HAL_Driver/Src\stm32l4xx_hal_rcc_ex.c ****               }
1275:E:/LiteOS/LiteOS_Lab/drivers/third_party/ST/STM32L4xx_HAL_Driver/Src\stm32l4xx_hal_rcc_ex.c ****             }
1276:E:/LiteOS/LiteOS_Lab/drivers/third_party/ST/STM32L4xx_HAL_Driver/Src\stm32l4xx_hal_rcc_ex.c ****             frequency = (pllvco * plln) / pllp;
1277:E:/LiteOS/LiteOS_Lab/drivers/third_party/ST/STM32L4xx_HAL_Driver/Src\stm32l4xx_hal_rcc_ex.c ****           }
1278:E:/LiteOS/LiteOS_Lab/drivers/third_party/ST/STM32L4xx_HAL_Driver/Src\stm32l4xx_hal_rcc_ex.c ****         }
1279:E:/LiteOS/LiteOS_Lab/drivers/third_party/ST/STM32L4xx_HAL_Driver/Src\stm32l4xx_hal_rcc_ex.c ****         else if(srcclk == 0U)  /* RCC_SAI1CLKSOURCE_PLLSAI1 || RCC_SAI2CLKSOURCE_PLLSAI1 */
1280:E:/LiteOS/LiteOS_Lab/drivers/third_party/ST/STM32L4xx_HAL_Driver/Src\stm32l4xx_hal_rcc_ex.c ****         {
1281:E:/LiteOS/LiteOS_Lab/drivers/third_party/ST/STM32L4xx_HAL_Driver/Src\stm32l4xx_hal_rcc_ex.c ****           if(__HAL_RCC_GET_PLLSAI1CLKOUT_CONFIG(RCC_PLLSAI1_SAI1CLK) != RESET)
1282:E:/LiteOS/LiteOS_Lab/drivers/third_party/ST/STM32L4xx_HAL_Driver/Src\stm32l4xx_hal_rcc_ex.c ****           {
1283:E:/LiteOS/LiteOS_Lab/drivers/third_party/ST/STM32L4xx_HAL_Driver/Src\stm32l4xx_hal_rcc_ex.c **** #if defined(RCC_PLLSAI1M_DIV_1_16_SUPPORT)
1284:E:/LiteOS/LiteOS_Lab/drivers/third_party/ST/STM32L4xx_HAL_Driver/Src\stm32l4xx_hal_rcc_ex.c ****             /* f(PLLSAI1 Source) / PLLSAI1M */
1285:E:/LiteOS/LiteOS_Lab/drivers/third_party/ST/STM32L4xx_HAL_Driver/Src\stm32l4xx_hal_rcc_ex.c ****             pllvco = (pllvco / ((READ_BIT(RCC->PLLSAI1CFGR, RCC_PLLSAI1CFGR_PLLSAI1M) >> RCC_PLLSAI
1286:E:/LiteOS/LiteOS_Lab/drivers/third_party/ST/STM32L4xx_HAL_Driver/Src\stm32l4xx_hal_rcc_ex.c **** #endif
1287:E:/LiteOS/LiteOS_Lab/drivers/third_party/ST/STM32L4xx_HAL_Driver/Src\stm32l4xx_hal_rcc_ex.c ****             /* f(PLLSAI1CLK) = f(VCOSAI1 input) * PLLSAI1N / PLLSAI1P */
1288:E:/LiteOS/LiteOS_Lab/drivers/third_party/ST/STM32L4xx_HAL_Driver/Src\stm32l4xx_hal_rcc_ex.c ****             plln = READ_BIT(RCC->PLLSAI1CFGR, RCC_PLLSAI1CFGR_PLLSAI1N) >> RCC_PLLSAI1CFGR_PLLSAI1N
1289:E:/LiteOS/LiteOS_Lab/drivers/third_party/ST/STM32L4xx_HAL_Driver/Src\stm32l4xx_hal_rcc_ex.c **** #if defined(RCC_PLLSAI1P_DIV_2_31_SUPPORT)
1290:E:/LiteOS/LiteOS_Lab/drivers/third_party/ST/STM32L4xx_HAL_Driver/Src\stm32l4xx_hal_rcc_ex.c ****             pllp = READ_BIT(RCC->PLLSAI1CFGR, RCC_PLLSAI1CFGR_PLLSAI1PDIV) >> RCC_PLLSAI1CFGR_PLLSA
1291:E:/LiteOS/LiteOS_Lab/drivers/third_party/ST/STM32L4xx_HAL_Driver/Src\stm32l4xx_hal_rcc_ex.c **** #endif
1292:E:/LiteOS/LiteOS_Lab/drivers/third_party/ST/STM32L4xx_HAL_Driver/Src\stm32l4xx_hal_rcc_ex.c ****             if(pllp == 0U)
1293:E:/LiteOS/LiteOS_Lab/drivers/third_party/ST/STM32L4xx_HAL_Driver/Src\stm32l4xx_hal_rcc_ex.c ****             {
1294:E:/LiteOS/LiteOS_Lab/drivers/third_party/ST/STM32L4xx_HAL_Driver/Src\stm32l4xx_hal_rcc_ex.c ****               if(READ_BIT(RCC->PLLSAI1CFGR, RCC_PLLSAI1CFGR_PLLSAI1P) != RESET)
1295:E:/LiteOS/LiteOS_Lab/drivers/third_party/ST/STM32L4xx_HAL_Driver/Src\stm32l4xx_hal_rcc_ex.c ****               {
1296:E:/LiteOS/LiteOS_Lab/drivers/third_party/ST/STM32L4xx_HAL_Driver/Src\stm32l4xx_hal_rcc_ex.c ****                 pllp = 17U;
1297:E:/LiteOS/LiteOS_Lab/drivers/third_party/ST/STM32L4xx_HAL_Driver/Src\stm32l4xx_hal_rcc_ex.c ****               }
1298:E:/LiteOS/LiteOS_Lab/drivers/third_party/ST/STM32L4xx_HAL_Driver/Src\stm32l4xx_hal_rcc_ex.c ****               else
1299:E:/LiteOS/LiteOS_Lab/drivers/third_party/ST/STM32L4xx_HAL_Driver/Src\stm32l4xx_hal_rcc_ex.c ****               {
1300:E:/LiteOS/LiteOS_Lab/drivers/third_party/ST/STM32L4xx_HAL_Driver/Src\stm32l4xx_hal_rcc_ex.c ****                 pllp = 7U;
1301:E:/LiteOS/LiteOS_Lab/drivers/third_party/ST/STM32L4xx_HAL_Driver/Src\stm32l4xx_hal_rcc_ex.c ****               }
1302:E:/LiteOS/LiteOS_Lab/drivers/third_party/ST/STM32L4xx_HAL_Driver/Src\stm32l4xx_hal_rcc_ex.c ****             }
1303:E:/LiteOS/LiteOS_Lab/drivers/third_party/ST/STM32L4xx_HAL_Driver/Src\stm32l4xx_hal_rcc_ex.c ****             frequency = (pllvco * plln) / pllp;
1304:E:/LiteOS/LiteOS_Lab/drivers/third_party/ST/STM32L4xx_HAL_Driver/Src\stm32l4xx_hal_rcc_ex.c ****           }
1305:E:/LiteOS/LiteOS_Lab/drivers/third_party/ST/STM32L4xx_HAL_Driver/Src\stm32l4xx_hal_rcc_ex.c ****         }
1306:E:/LiteOS/LiteOS_Lab/drivers/third_party/ST/STM32L4xx_HAL_Driver/Src\stm32l4xx_hal_rcc_ex.c **** #if defined(STM32L4R5xx) || defined(STM32L4R7xx) || defined(STM32L4R9xx) || defined(STM32L4S5xx) ||
1307:E:/LiteOS/LiteOS_Lab/drivers/third_party/ST/STM32L4xx_HAL_Driver/Src\stm32l4xx_hal_rcc_ex.c ****         else if((srcclk == RCC_SAI1CLKSOURCE_HSI) || (srcclk == RCC_SAI2CLKSOURCE_HSI))
1308:E:/LiteOS/LiteOS_Lab/drivers/third_party/ST/STM32L4xx_HAL_Driver/Src\stm32l4xx_hal_rcc_ex.c ****         {
1309:E:/LiteOS/LiteOS_Lab/drivers/third_party/ST/STM32L4xx_HAL_Driver/Src\stm32l4xx_hal_rcc_ex.c ****           if(HAL_IS_BIT_SET(RCC->CR, RCC_CR_HSIRDY))
1310:E:/LiteOS/LiteOS_Lab/drivers/third_party/ST/STM32L4xx_HAL_Driver/Src\stm32l4xx_hal_rcc_ex.c ****           {
1311:E:/LiteOS/LiteOS_Lab/drivers/third_party/ST/STM32L4xx_HAL_Driver/Src\stm32l4xx_hal_rcc_ex.c ****             frequency = HSI_VALUE;
1312:E:/LiteOS/LiteOS_Lab/drivers/third_party/ST/STM32L4xx_HAL_Driver/Src\stm32l4xx_hal_rcc_ex.c ****           }
1313:E:/LiteOS/LiteOS_Lab/drivers/third_party/ST/STM32L4xx_HAL_Driver/Src\stm32l4xx_hal_rcc_ex.c ****         }
1314:E:/LiteOS/LiteOS_Lab/drivers/third_party/ST/STM32L4xx_HAL_Driver/Src\stm32l4xx_hal_rcc_ex.c **** #endif /* STM32L4R5xx || STM32L4R7xx || STM32L4R9xx || STM32L4S5xx || STM32L4S7xx || STM32L4S9xx */
1315:E:/LiteOS/LiteOS_Lab/drivers/third_party/ST/STM32L4xx_HAL_Driver/Src\stm32l4xx_hal_rcc_ex.c **** 
1316:E:/LiteOS/LiteOS_Lab/drivers/third_party/ST/STM32L4xx_HAL_Driver/Src\stm32l4xx_hal_rcc_ex.c **** #else
1317:E:/LiteOS/LiteOS_Lab/drivers/third_party/ST/STM32L4xx_HAL_Driver/Src\stm32l4xx_hal_rcc_ex.c ****         if(srcclk == RCC_SAI1CLKSOURCE_PLL)
1318:E:/LiteOS/LiteOS_Lab/drivers/third_party/ST/STM32L4xx_HAL_Driver/Src\stm32l4xx_hal_rcc_ex.c ****         {
1319:E:/LiteOS/LiteOS_Lab/drivers/third_party/ST/STM32L4xx_HAL_Driver/Src\stm32l4xx_hal_rcc_ex.c ****           if(__HAL_RCC_GET_PLLCLKOUT_CONFIG(RCC_PLL_SAI2CLK) != RESET)
1320:E:/LiteOS/LiteOS_Lab/drivers/third_party/ST/STM32L4xx_HAL_Driver/Src\stm32l4xx_hal_rcc_ex.c ****           {
1321:E:/LiteOS/LiteOS_Lab/drivers/third_party/ST/STM32L4xx_HAL_Driver/Src\stm32l4xx_hal_rcc_ex.c ****             /* f(PLLSAI2CLK) = f(VCO input) * PLLN / PLLP */
1322:E:/LiteOS/LiteOS_Lab/drivers/third_party/ST/STM32L4xx_HAL_Driver/Src\stm32l4xx_hal_rcc_ex.c ****             plln = READ_BIT(RCC->PLLCFGR, RCC_PLLCFGR_PLLN) >> RCC_PLLCFGR_PLLN_Pos;
1323:E:/LiteOS/LiteOS_Lab/drivers/third_party/ST/STM32L4xx_HAL_Driver/Src\stm32l4xx_hal_rcc_ex.c **** #if defined(RCC_PLLP_DIV_2_31_SUPPORT)
1324:E:/LiteOS/LiteOS_Lab/drivers/third_party/ST/STM32L4xx_HAL_Driver/Src\stm32l4xx_hal_rcc_ex.c ****             pllp = READ_BIT(RCC->PLLCFGR, RCC_PLLCFGR_PLLPDIV) >> RCC_PLLCFGR_PLLPDIV_Pos;
1325:E:/LiteOS/LiteOS_Lab/drivers/third_party/ST/STM32L4xx_HAL_Driver/Src\stm32l4xx_hal_rcc_ex.c **** #endif
1326:E:/LiteOS/LiteOS_Lab/drivers/third_party/ST/STM32L4xx_HAL_Driver/Src\stm32l4xx_hal_rcc_ex.c ****             if(pllp == 0U)
ARM GAS  C:\Users\user\AppData\Local\Temp\ccsJwa9Q.s 			page 42


1327:E:/LiteOS/LiteOS_Lab/drivers/third_party/ST/STM32L4xx_HAL_Driver/Src\stm32l4xx_hal_rcc_ex.c ****             {
1328:E:/LiteOS/LiteOS_Lab/drivers/third_party/ST/STM32L4xx_HAL_Driver/Src\stm32l4xx_hal_rcc_ex.c ****               if(READ_BIT(RCC->PLLCFGR, RCC_PLLCFGR_PLLP) != RESET)
1329:E:/LiteOS/LiteOS_Lab/drivers/third_party/ST/STM32L4xx_HAL_Driver/Src\stm32l4xx_hal_rcc_ex.c ****               {
1330:E:/LiteOS/LiteOS_Lab/drivers/third_party/ST/STM32L4xx_HAL_Driver/Src\stm32l4xx_hal_rcc_ex.c ****                 pllp = 17U;
1331:E:/LiteOS/LiteOS_Lab/drivers/third_party/ST/STM32L4xx_HAL_Driver/Src\stm32l4xx_hal_rcc_ex.c ****               }
1332:E:/LiteOS/LiteOS_Lab/drivers/third_party/ST/STM32L4xx_HAL_Driver/Src\stm32l4xx_hal_rcc_ex.c ****               else
1333:E:/LiteOS/LiteOS_Lab/drivers/third_party/ST/STM32L4xx_HAL_Driver/Src\stm32l4xx_hal_rcc_ex.c ****               {
1334:E:/LiteOS/LiteOS_Lab/drivers/third_party/ST/STM32L4xx_HAL_Driver/Src\stm32l4xx_hal_rcc_ex.c ****                 pllp = 7U;
1335:E:/LiteOS/LiteOS_Lab/drivers/third_party/ST/STM32L4xx_HAL_Driver/Src\stm32l4xx_hal_rcc_ex.c ****               }
1336:E:/LiteOS/LiteOS_Lab/drivers/third_party/ST/STM32L4xx_HAL_Driver/Src\stm32l4xx_hal_rcc_ex.c ****             }
1337:E:/LiteOS/LiteOS_Lab/drivers/third_party/ST/STM32L4xx_HAL_Driver/Src\stm32l4xx_hal_rcc_ex.c **** 
1338:E:/LiteOS/LiteOS_Lab/drivers/third_party/ST/STM32L4xx_HAL_Driver/Src\stm32l4xx_hal_rcc_ex.c ****             frequency = (pllvco * plln) / pllp;
1339:E:/LiteOS/LiteOS_Lab/drivers/third_party/ST/STM32L4xx_HAL_Driver/Src\stm32l4xx_hal_rcc_ex.c ****           }
1340:E:/LiteOS/LiteOS_Lab/drivers/third_party/ST/STM32L4xx_HAL_Driver/Src\stm32l4xx_hal_rcc_ex.c ****           else if(HAL_IS_BIT_SET(RCC->CR, RCC_CR_HSIRDY))
1341:E:/LiteOS/LiteOS_Lab/drivers/third_party/ST/STM32L4xx_HAL_Driver/Src\stm32l4xx_hal_rcc_ex.c ****           {
1342:E:/LiteOS/LiteOS_Lab/drivers/third_party/ST/STM32L4xx_HAL_Driver/Src\stm32l4xx_hal_rcc_ex.c ****             /* HSI automatically selected as clock source if PLLs not enabled */
1343:E:/LiteOS/LiteOS_Lab/drivers/third_party/ST/STM32L4xx_HAL_Driver/Src\stm32l4xx_hal_rcc_ex.c ****             frequency = HSI_VALUE;
1344:E:/LiteOS/LiteOS_Lab/drivers/third_party/ST/STM32L4xx_HAL_Driver/Src\stm32l4xx_hal_rcc_ex.c ****           }
1345:E:/LiteOS/LiteOS_Lab/drivers/third_party/ST/STM32L4xx_HAL_Driver/Src\stm32l4xx_hal_rcc_ex.c ****           else
1346:E:/LiteOS/LiteOS_Lab/drivers/third_party/ST/STM32L4xx_HAL_Driver/Src\stm32l4xx_hal_rcc_ex.c ****           {
1347:E:/LiteOS/LiteOS_Lab/drivers/third_party/ST/STM32L4xx_HAL_Driver/Src\stm32l4xx_hal_rcc_ex.c ****             /* No clock source */
1348:E:/LiteOS/LiteOS_Lab/drivers/third_party/ST/STM32L4xx_HAL_Driver/Src\stm32l4xx_hal_rcc_ex.c ****             frequency = 0U;
1349:E:/LiteOS/LiteOS_Lab/drivers/third_party/ST/STM32L4xx_HAL_Driver/Src\stm32l4xx_hal_rcc_ex.c ****           }
1350:E:/LiteOS/LiteOS_Lab/drivers/third_party/ST/STM32L4xx_HAL_Driver/Src\stm32l4xx_hal_rcc_ex.c ****         }
1351:E:/LiteOS/LiteOS_Lab/drivers/third_party/ST/STM32L4xx_HAL_Driver/Src\stm32l4xx_hal_rcc_ex.c ****         else if(srcclk == RCC_SAI1CLKSOURCE_PLLSAI1)
1352:E:/LiteOS/LiteOS_Lab/drivers/third_party/ST/STM32L4xx_HAL_Driver/Src\stm32l4xx_hal_rcc_ex.c ****         {
1353:E:/LiteOS/LiteOS_Lab/drivers/third_party/ST/STM32L4xx_HAL_Driver/Src\stm32l4xx_hal_rcc_ex.c ****           if(__HAL_RCC_GET_PLLSAI1CLKOUT_CONFIG(RCC_PLLSAI1_SAI1CLK) != RESET)
1354:E:/LiteOS/LiteOS_Lab/drivers/third_party/ST/STM32L4xx_HAL_Driver/Src\stm32l4xx_hal_rcc_ex.c ****           {
1355:E:/LiteOS/LiteOS_Lab/drivers/third_party/ST/STM32L4xx_HAL_Driver/Src\stm32l4xx_hal_rcc_ex.c **** #if defined(RCC_PLLSAI1M_DIV_1_16_SUPPORT)
1356:E:/LiteOS/LiteOS_Lab/drivers/third_party/ST/STM32L4xx_HAL_Driver/Src\stm32l4xx_hal_rcc_ex.c ****             /* f(PLLSAI1 Source) / PLLSAI1M */
1357:E:/LiteOS/LiteOS_Lab/drivers/third_party/ST/STM32L4xx_HAL_Driver/Src\stm32l4xx_hal_rcc_ex.c ****             pllvco = (pllvco / ((READ_BIT(RCC->PLLSAI1CFGR, RCC_PLLSAI1CFGR_PLLSAI1M) >> RCC_PLLSAI
1358:E:/LiteOS/LiteOS_Lab/drivers/third_party/ST/STM32L4xx_HAL_Driver/Src\stm32l4xx_hal_rcc_ex.c **** #endif
1359:E:/LiteOS/LiteOS_Lab/drivers/third_party/ST/STM32L4xx_HAL_Driver/Src\stm32l4xx_hal_rcc_ex.c ****             /* f(PLLSAI1CLK) = f(VCOSAI1 input) * PLLSAI1N / PLLSAI1P */
1360:E:/LiteOS/LiteOS_Lab/drivers/third_party/ST/STM32L4xx_HAL_Driver/Src\stm32l4xx_hal_rcc_ex.c ****             plln = READ_BIT(RCC->PLLSAI1CFGR, RCC_PLLSAI1CFGR_PLLSAI1N) >> RCC_PLLSAI1CFGR_PLLSAI1N
1361:E:/LiteOS/LiteOS_Lab/drivers/third_party/ST/STM32L4xx_HAL_Driver/Src\stm32l4xx_hal_rcc_ex.c **** #if defined(RCC_PLLSAI1P_DIV_2_31_SUPPORT)
1362:E:/LiteOS/LiteOS_Lab/drivers/third_party/ST/STM32L4xx_HAL_Driver/Src\stm32l4xx_hal_rcc_ex.c ****             pllp = READ_BIT(RCC->PLLSAI1CFGR, RCC_PLLSAI1CFGR_PLLSAI1PDIV) >> RCC_PLLSAI1CFGR_PLLSA
1363:E:/LiteOS/LiteOS_Lab/drivers/third_party/ST/STM32L4xx_HAL_Driver/Src\stm32l4xx_hal_rcc_ex.c **** #endif
1364:E:/LiteOS/LiteOS_Lab/drivers/third_party/ST/STM32L4xx_HAL_Driver/Src\stm32l4xx_hal_rcc_ex.c ****             if(pllp == 0U)
1365:E:/LiteOS/LiteOS_Lab/drivers/third_party/ST/STM32L4xx_HAL_Driver/Src\stm32l4xx_hal_rcc_ex.c ****             {
1366:E:/LiteOS/LiteOS_Lab/drivers/third_party/ST/STM32L4xx_HAL_Driver/Src\stm32l4xx_hal_rcc_ex.c ****               if(READ_BIT(RCC->PLLSAI1CFGR, RCC_PLLSAI1CFGR_PLLSAI1P) != RESET)
1367:E:/LiteOS/LiteOS_Lab/drivers/third_party/ST/STM32L4xx_HAL_Driver/Src\stm32l4xx_hal_rcc_ex.c ****               {
1368:E:/LiteOS/LiteOS_Lab/drivers/third_party/ST/STM32L4xx_HAL_Driver/Src\stm32l4xx_hal_rcc_ex.c ****                 pllp = 17U;
1369:E:/LiteOS/LiteOS_Lab/drivers/third_party/ST/STM32L4xx_HAL_Driver/Src\stm32l4xx_hal_rcc_ex.c ****               }
1370:E:/LiteOS/LiteOS_Lab/drivers/third_party/ST/STM32L4xx_HAL_Driver/Src\stm32l4xx_hal_rcc_ex.c ****               else
1371:E:/LiteOS/LiteOS_Lab/drivers/third_party/ST/STM32L4xx_HAL_Driver/Src\stm32l4xx_hal_rcc_ex.c ****               {
1372:E:/LiteOS/LiteOS_Lab/drivers/third_party/ST/STM32L4xx_HAL_Driver/Src\stm32l4xx_hal_rcc_ex.c ****                 pllp = 7U;
1373:E:/LiteOS/LiteOS_Lab/drivers/third_party/ST/STM32L4xx_HAL_Driver/Src\stm32l4xx_hal_rcc_ex.c ****               }
1374:E:/LiteOS/LiteOS_Lab/drivers/third_party/ST/STM32L4xx_HAL_Driver/Src\stm32l4xx_hal_rcc_ex.c ****             }
1375:E:/LiteOS/LiteOS_Lab/drivers/third_party/ST/STM32L4xx_HAL_Driver/Src\stm32l4xx_hal_rcc_ex.c **** 
1376:E:/LiteOS/LiteOS_Lab/drivers/third_party/ST/STM32L4xx_HAL_Driver/Src\stm32l4xx_hal_rcc_ex.c ****            frequency = (pllvco * plln) / pllp;
1377:E:/LiteOS/LiteOS_Lab/drivers/third_party/ST/STM32L4xx_HAL_Driver/Src\stm32l4xx_hal_rcc_ex.c ****           }
1378:E:/LiteOS/LiteOS_Lab/drivers/third_party/ST/STM32L4xx_HAL_Driver/Src\stm32l4xx_hal_rcc_ex.c ****           else if(HAL_IS_BIT_SET(RCC->CR, RCC_CR_HSIRDY))
1379:E:/LiteOS/LiteOS_Lab/drivers/third_party/ST/STM32L4xx_HAL_Driver/Src\stm32l4xx_hal_rcc_ex.c ****           {
1380:E:/LiteOS/LiteOS_Lab/drivers/third_party/ST/STM32L4xx_HAL_Driver/Src\stm32l4xx_hal_rcc_ex.c ****             /* HSI automatically selected as clock source if PLLs not enabled */
1381:E:/LiteOS/LiteOS_Lab/drivers/third_party/ST/STM32L4xx_HAL_Driver/Src\stm32l4xx_hal_rcc_ex.c ****             frequency = HSI_VALUE;
1382:E:/LiteOS/LiteOS_Lab/drivers/third_party/ST/STM32L4xx_HAL_Driver/Src\stm32l4xx_hal_rcc_ex.c ****           }
1383:E:/LiteOS/LiteOS_Lab/drivers/third_party/ST/STM32L4xx_HAL_Driver/Src\stm32l4xx_hal_rcc_ex.c ****           else
ARM GAS  C:\Users\user\AppData\Local\Temp\ccsJwa9Q.s 			page 43


1384:E:/LiteOS/LiteOS_Lab/drivers/third_party/ST/STM32L4xx_HAL_Driver/Src\stm32l4xx_hal_rcc_ex.c ****           {
1385:E:/LiteOS/LiteOS_Lab/drivers/third_party/ST/STM32L4xx_HAL_Driver/Src\stm32l4xx_hal_rcc_ex.c ****             /* No clock source */
1386:E:/LiteOS/LiteOS_Lab/drivers/third_party/ST/STM32L4xx_HAL_Driver/Src\stm32l4xx_hal_rcc_ex.c ****             frequency = 0U;
1387:E:/LiteOS/LiteOS_Lab/drivers/third_party/ST/STM32L4xx_HAL_Driver/Src\stm32l4xx_hal_rcc_ex.c ****           }
1388:E:/LiteOS/LiteOS_Lab/drivers/third_party/ST/STM32L4xx_HAL_Driver/Src\stm32l4xx_hal_rcc_ex.c ****         }
1389:E:/LiteOS/LiteOS_Lab/drivers/third_party/ST/STM32L4xx_HAL_Driver/Src\stm32l4xx_hal_rcc_ex.c **** #endif /* SAI2 */
1390:E:/LiteOS/LiteOS_Lab/drivers/third_party/ST/STM32L4xx_HAL_Driver/Src\stm32l4xx_hal_rcc_ex.c **** 
1391:E:/LiteOS/LiteOS_Lab/drivers/third_party/ST/STM32L4xx_HAL_Driver/Src\stm32l4xx_hal_rcc_ex.c **** #if defined(RCC_PLLSAI2_SUPPORT)
1392:E:/LiteOS/LiteOS_Lab/drivers/third_party/ST/STM32L4xx_HAL_Driver/Src\stm32l4xx_hal_rcc_ex.c **** 
1393:E:/LiteOS/LiteOS_Lab/drivers/third_party/ST/STM32L4xx_HAL_Driver/Src\stm32l4xx_hal_rcc_ex.c ****         else if((srcclk == RCC_SAI1CLKSOURCE_PLLSAI2) || (srcclk == RCC_SAI2CLKSOURCE_PLLSAI2))
1394:E:/LiteOS/LiteOS_Lab/drivers/third_party/ST/STM32L4xx_HAL_Driver/Src\stm32l4xx_hal_rcc_ex.c ****         {
1395:E:/LiteOS/LiteOS_Lab/drivers/third_party/ST/STM32L4xx_HAL_Driver/Src\stm32l4xx_hal_rcc_ex.c ****           if(__HAL_RCC_GET_PLLSAI2CLKOUT_CONFIG(RCC_PLLSAI2_SAI2CLK) != RESET)
1396:E:/LiteOS/LiteOS_Lab/drivers/third_party/ST/STM32L4xx_HAL_Driver/Src\stm32l4xx_hal_rcc_ex.c ****           {
1397:E:/LiteOS/LiteOS_Lab/drivers/third_party/ST/STM32L4xx_HAL_Driver/Src\stm32l4xx_hal_rcc_ex.c **** #if defined(RCC_PLLSAI2M_DIV_1_16_SUPPORT)
1398:E:/LiteOS/LiteOS_Lab/drivers/third_party/ST/STM32L4xx_HAL_Driver/Src\stm32l4xx_hal_rcc_ex.c ****             /* f(PLLSAI2 Source) / PLLSAI2M */
1399:E:/LiteOS/LiteOS_Lab/drivers/third_party/ST/STM32L4xx_HAL_Driver/Src\stm32l4xx_hal_rcc_ex.c ****             pllvco = (pllvco / ((READ_BIT(RCC->PLLSAI2CFGR, RCC_PLLSAI2CFGR_PLLSAI2M) >> RCC_PLLSAI
1400:E:/LiteOS/LiteOS_Lab/drivers/third_party/ST/STM32L4xx_HAL_Driver/Src\stm32l4xx_hal_rcc_ex.c **** #endif
1401:E:/LiteOS/LiteOS_Lab/drivers/third_party/ST/STM32L4xx_HAL_Driver/Src\stm32l4xx_hal_rcc_ex.c ****             /* f(PLLSAI2CLK) = f(VCOSAI2 input) * PLLSAI2N / PLLSAI2P */
1402:E:/LiteOS/LiteOS_Lab/drivers/third_party/ST/STM32L4xx_HAL_Driver/Src\stm32l4xx_hal_rcc_ex.c ****             plln = READ_BIT(RCC->PLLSAI2CFGR, RCC_PLLSAI2CFGR_PLLSAI2N) >> RCC_PLLSAI2CFGR_PLLSAI2N
1403:E:/LiteOS/LiteOS_Lab/drivers/third_party/ST/STM32L4xx_HAL_Driver/Src\stm32l4xx_hal_rcc_ex.c **** #if defined(RCC_PLLSAI2P_DIV_2_31_SUPPORT)
1404:E:/LiteOS/LiteOS_Lab/drivers/third_party/ST/STM32L4xx_HAL_Driver/Src\stm32l4xx_hal_rcc_ex.c ****             pllp = READ_BIT(RCC->PLLSAI2CFGR, RCC_PLLSAI2CFGR_PLLSAI2PDIV) >> RCC_PLLSAI2CFGR_PLLSA
1405:E:/LiteOS/LiteOS_Lab/drivers/third_party/ST/STM32L4xx_HAL_Driver/Src\stm32l4xx_hal_rcc_ex.c **** #endif
1406:E:/LiteOS/LiteOS_Lab/drivers/third_party/ST/STM32L4xx_HAL_Driver/Src\stm32l4xx_hal_rcc_ex.c ****             if(pllp == 0U)
1407:E:/LiteOS/LiteOS_Lab/drivers/third_party/ST/STM32L4xx_HAL_Driver/Src\stm32l4xx_hal_rcc_ex.c ****             {
1408:E:/LiteOS/LiteOS_Lab/drivers/third_party/ST/STM32L4xx_HAL_Driver/Src\stm32l4xx_hal_rcc_ex.c ****               if(READ_BIT(RCC->PLLSAI2CFGR, RCC_PLLSAI2CFGR_PLLSAI2P) != RESET)
1409:E:/LiteOS/LiteOS_Lab/drivers/third_party/ST/STM32L4xx_HAL_Driver/Src\stm32l4xx_hal_rcc_ex.c ****               {
1410:E:/LiteOS/LiteOS_Lab/drivers/third_party/ST/STM32L4xx_HAL_Driver/Src\stm32l4xx_hal_rcc_ex.c ****                 pllp = 17U;
1411:E:/LiteOS/LiteOS_Lab/drivers/third_party/ST/STM32L4xx_HAL_Driver/Src\stm32l4xx_hal_rcc_ex.c ****               }
1412:E:/LiteOS/LiteOS_Lab/drivers/third_party/ST/STM32L4xx_HAL_Driver/Src\stm32l4xx_hal_rcc_ex.c ****               else
1413:E:/LiteOS/LiteOS_Lab/drivers/third_party/ST/STM32L4xx_HAL_Driver/Src\stm32l4xx_hal_rcc_ex.c ****               {
1414:E:/LiteOS/LiteOS_Lab/drivers/third_party/ST/STM32L4xx_HAL_Driver/Src\stm32l4xx_hal_rcc_ex.c ****                 pllp = 7U;
1415:E:/LiteOS/LiteOS_Lab/drivers/third_party/ST/STM32L4xx_HAL_Driver/Src\stm32l4xx_hal_rcc_ex.c ****               }
1416:E:/LiteOS/LiteOS_Lab/drivers/third_party/ST/STM32L4xx_HAL_Driver/Src\stm32l4xx_hal_rcc_ex.c ****             }
1417:E:/LiteOS/LiteOS_Lab/drivers/third_party/ST/STM32L4xx_HAL_Driver/Src\stm32l4xx_hal_rcc_ex.c ****             frequency = (pllvco * plln) / pllp;
1418:E:/LiteOS/LiteOS_Lab/drivers/third_party/ST/STM32L4xx_HAL_Driver/Src\stm32l4xx_hal_rcc_ex.c ****           }
1419:E:/LiteOS/LiteOS_Lab/drivers/third_party/ST/STM32L4xx_HAL_Driver/Src\stm32l4xx_hal_rcc_ex.c ****         }
1420:E:/LiteOS/LiteOS_Lab/drivers/third_party/ST/STM32L4xx_HAL_Driver/Src\stm32l4xx_hal_rcc_ex.c **** 
1421:E:/LiteOS/LiteOS_Lab/drivers/third_party/ST/STM32L4xx_HAL_Driver/Src\stm32l4xx_hal_rcc_ex.c **** #endif /* RCC_PLLSAI2_SUPPORT */
1422:E:/LiteOS/LiteOS_Lab/drivers/third_party/ST/STM32L4xx_HAL_Driver/Src\stm32l4xx_hal_rcc_ex.c **** 
1423:E:/LiteOS/LiteOS_Lab/drivers/third_party/ST/STM32L4xx_HAL_Driver/Src\stm32l4xx_hal_rcc_ex.c ****         else
1424:E:/LiteOS/LiteOS_Lab/drivers/third_party/ST/STM32L4xx_HAL_Driver/Src\stm32l4xx_hal_rcc_ex.c ****         {
1425:E:/LiteOS/LiteOS_Lab/drivers/third_party/ST/STM32L4xx_HAL_Driver/Src\stm32l4xx_hal_rcc_ex.c ****           /* No clock source */
1426:E:/LiteOS/LiteOS_Lab/drivers/third_party/ST/STM32L4xx_HAL_Driver/Src\stm32l4xx_hal_rcc_ex.c ****           frequency = 0U;
1427:E:/LiteOS/LiteOS_Lab/drivers/third_party/ST/STM32L4xx_HAL_Driver/Src\stm32l4xx_hal_rcc_ex.c ****         }
1428:E:/LiteOS/LiteOS_Lab/drivers/third_party/ST/STM32L4xx_HAL_Driver/Src\stm32l4xx_hal_rcc_ex.c ****       }
1429:E:/LiteOS/LiteOS_Lab/drivers/third_party/ST/STM32L4xx_HAL_Driver/Src\stm32l4xx_hal_rcc_ex.c ****       break;
1430:E:/LiteOS/LiteOS_Lab/drivers/third_party/ST/STM32L4xx_HAL_Driver/Src\stm32l4xx_hal_rcc_ex.c **** 
1431:E:/LiteOS/LiteOS_Lab/drivers/third_party/ST/STM32L4xx_HAL_Driver/Src\stm32l4xx_hal_rcc_ex.c **** #if defined(USB_OTG_FS) || defined(USB)
1432:E:/LiteOS/LiteOS_Lab/drivers/third_party/ST/STM32L4xx_HAL_Driver/Src\stm32l4xx_hal_rcc_ex.c **** 
1433:E:/LiteOS/LiteOS_Lab/drivers/third_party/ST/STM32L4xx_HAL_Driver/Src\stm32l4xx_hal_rcc_ex.c ****     case RCC_PERIPHCLK_USB:
1434:E:/LiteOS/LiteOS_Lab/drivers/third_party/ST/STM32L4xx_HAL_Driver/Src\stm32l4xx_hal_rcc_ex.c **** 
1435:E:/LiteOS/LiteOS_Lab/drivers/third_party/ST/STM32L4xx_HAL_Driver/Src\stm32l4xx_hal_rcc_ex.c **** #endif /* USB_OTG_FS || USB */
1436:E:/LiteOS/LiteOS_Lab/drivers/third_party/ST/STM32L4xx_HAL_Driver/Src\stm32l4xx_hal_rcc_ex.c **** 
1437:E:/LiteOS/LiteOS_Lab/drivers/third_party/ST/STM32L4xx_HAL_Driver/Src\stm32l4xx_hal_rcc_ex.c ****     case RCC_PERIPHCLK_RNG:
1438:E:/LiteOS/LiteOS_Lab/drivers/third_party/ST/STM32L4xx_HAL_Driver/Src\stm32l4xx_hal_rcc_ex.c **** 
1439:E:/LiteOS/LiteOS_Lab/drivers/third_party/ST/STM32L4xx_HAL_Driver/Src\stm32l4xx_hal_rcc_ex.c **** #if defined(SDMMC1) && !defined(RCC_CCIPR2_SDMMCSEL)
1440:E:/LiteOS/LiteOS_Lab/drivers/third_party/ST/STM32L4xx_HAL_Driver/Src\stm32l4xx_hal_rcc_ex.c **** 
ARM GAS  C:\Users\user\AppData\Local\Temp\ccsJwa9Q.s 			page 44


1441:E:/LiteOS/LiteOS_Lab/drivers/third_party/ST/STM32L4xx_HAL_Driver/Src\stm32l4xx_hal_rcc_ex.c ****     case RCC_PERIPHCLK_SDMMC1:
1442:E:/LiteOS/LiteOS_Lab/drivers/third_party/ST/STM32L4xx_HAL_Driver/Src\stm32l4xx_hal_rcc_ex.c **** 
1443:E:/LiteOS/LiteOS_Lab/drivers/third_party/ST/STM32L4xx_HAL_Driver/Src\stm32l4xx_hal_rcc_ex.c **** #endif /* SDMMC1 && !RCC_CCIPR2_SDMMCSEL */
1444:E:/LiteOS/LiteOS_Lab/drivers/third_party/ST/STM32L4xx_HAL_Driver/Src\stm32l4xx_hal_rcc_ex.c **** 
1445:E:/LiteOS/LiteOS_Lab/drivers/third_party/ST/STM32L4xx_HAL_Driver/Src\stm32l4xx_hal_rcc_ex.c ****       srcclk = READ_BIT(RCC->CCIPR, RCC_CCIPR_CLK48SEL);
1446:E:/LiteOS/LiteOS_Lab/drivers/third_party/ST/STM32L4xx_HAL_Driver/Src\stm32l4xx_hal_rcc_ex.c **** 
1447:E:/LiteOS/LiteOS_Lab/drivers/third_party/ST/STM32L4xx_HAL_Driver/Src\stm32l4xx_hal_rcc_ex.c ****       if(srcclk == RCC_CCIPR_CLK48SEL)   /* MSI ? */
1448:E:/LiteOS/LiteOS_Lab/drivers/third_party/ST/STM32L4xx_HAL_Driver/Src\stm32l4xx_hal_rcc_ex.c ****       {
1449:E:/LiteOS/LiteOS_Lab/drivers/third_party/ST/STM32L4xx_HAL_Driver/Src\stm32l4xx_hal_rcc_ex.c ****         if(HAL_IS_BIT_SET(RCC->CR, RCC_CR_MSIRDY))
1450:E:/LiteOS/LiteOS_Lab/drivers/third_party/ST/STM32L4xx_HAL_Driver/Src\stm32l4xx_hal_rcc_ex.c ****         {
1451:E:/LiteOS/LiteOS_Lab/drivers/third_party/ST/STM32L4xx_HAL_Driver/Src\stm32l4xx_hal_rcc_ex.c ****           /*MSI frequency range in HZ*/
1452:E:/LiteOS/LiteOS_Lab/drivers/third_party/ST/STM32L4xx_HAL_Driver/Src\stm32l4xx_hal_rcc_ex.c ****           frequency = MSIRangeTable[(__HAL_RCC_GET_MSI_RANGE() >> 4U)];
1453:E:/LiteOS/LiteOS_Lab/drivers/third_party/ST/STM32L4xx_HAL_Driver/Src\stm32l4xx_hal_rcc_ex.c ****         }
1454:E:/LiteOS/LiteOS_Lab/drivers/third_party/ST/STM32L4xx_HAL_Driver/Src\stm32l4xx_hal_rcc_ex.c ****         else
1455:E:/LiteOS/LiteOS_Lab/drivers/third_party/ST/STM32L4xx_HAL_Driver/Src\stm32l4xx_hal_rcc_ex.c ****         {
1456:E:/LiteOS/LiteOS_Lab/drivers/third_party/ST/STM32L4xx_HAL_Driver/Src\stm32l4xx_hal_rcc_ex.c ****           frequency = 0U;
1457:E:/LiteOS/LiteOS_Lab/drivers/third_party/ST/STM32L4xx_HAL_Driver/Src\stm32l4xx_hal_rcc_ex.c ****         }
1458:E:/LiteOS/LiteOS_Lab/drivers/third_party/ST/STM32L4xx_HAL_Driver/Src\stm32l4xx_hal_rcc_ex.c ****       }
1459:E:/LiteOS/LiteOS_Lab/drivers/third_party/ST/STM32L4xx_HAL_Driver/Src\stm32l4xx_hal_rcc_ex.c ****       else if(srcclk == RCC_CCIPR_CLK48SEL_1)  /* PLL ? */
1460:E:/LiteOS/LiteOS_Lab/drivers/third_party/ST/STM32L4xx_HAL_Driver/Src\stm32l4xx_hal_rcc_ex.c ****       {
1461:E:/LiteOS/LiteOS_Lab/drivers/third_party/ST/STM32L4xx_HAL_Driver/Src\stm32l4xx_hal_rcc_ex.c ****         if(HAL_IS_BIT_SET(RCC->CR, RCC_CR_PLLRDY) && HAL_IS_BIT_SET(RCC->PLLCFGR, RCC_PLLCFGR_PLLQE
1462:E:/LiteOS/LiteOS_Lab/drivers/third_party/ST/STM32L4xx_HAL_Driver/Src\stm32l4xx_hal_rcc_ex.c ****         {
1463:E:/LiteOS/LiteOS_Lab/drivers/third_party/ST/STM32L4xx_HAL_Driver/Src\stm32l4xx_hal_rcc_ex.c **** #if defined(RCC_PLLSAI1M_DIV_1_16_SUPPORT) || defined(RCC_PLLSAI2M_DIV_1_16_SUPPORT)
1464:E:/LiteOS/LiteOS_Lab/drivers/third_party/ST/STM32L4xx_HAL_Driver/Src\stm32l4xx_hal_rcc_ex.c ****           /* f(PLL Source) / PLLM */
1465:E:/LiteOS/LiteOS_Lab/drivers/third_party/ST/STM32L4xx_HAL_Driver/Src\stm32l4xx_hal_rcc_ex.c ****           pllvco = (pllvco / ((READ_BIT(RCC->PLLCFGR, RCC_PLLCFGR_PLLM) >> RCC_PLLCFGR_PLLM_Pos) + 
1466:E:/LiteOS/LiteOS_Lab/drivers/third_party/ST/STM32L4xx_HAL_Driver/Src\stm32l4xx_hal_rcc_ex.c **** #endif
1467:E:/LiteOS/LiteOS_Lab/drivers/third_party/ST/STM32L4xx_HAL_Driver/Src\stm32l4xx_hal_rcc_ex.c ****           /* f(PLL48M1CLK) = f(VCO input) * PLLN / PLLQ */
1468:E:/LiteOS/LiteOS_Lab/drivers/third_party/ST/STM32L4xx_HAL_Driver/Src\stm32l4xx_hal_rcc_ex.c ****           plln = READ_BIT(RCC->PLLCFGR, RCC_PLLCFGR_PLLN) >> RCC_PLLCFGR_PLLN_Pos;
1469:E:/LiteOS/LiteOS_Lab/drivers/third_party/ST/STM32L4xx_HAL_Driver/Src\stm32l4xx_hal_rcc_ex.c ****           frequency = (pllvco * plln) / (((READ_BIT(RCC->PLLCFGR, RCC_PLLCFGR_PLLQ) >> RCC_PLLCFGR_
1470:E:/LiteOS/LiteOS_Lab/drivers/third_party/ST/STM32L4xx_HAL_Driver/Src\stm32l4xx_hal_rcc_ex.c ****         }
1471:E:/LiteOS/LiteOS_Lab/drivers/third_party/ST/STM32L4xx_HAL_Driver/Src\stm32l4xx_hal_rcc_ex.c ****         else
1472:E:/LiteOS/LiteOS_Lab/drivers/third_party/ST/STM32L4xx_HAL_Driver/Src\stm32l4xx_hal_rcc_ex.c ****         {
1473:E:/LiteOS/LiteOS_Lab/drivers/third_party/ST/STM32L4xx_HAL_Driver/Src\stm32l4xx_hal_rcc_ex.c ****           frequency = 0U;
1474:E:/LiteOS/LiteOS_Lab/drivers/third_party/ST/STM32L4xx_HAL_Driver/Src\stm32l4xx_hal_rcc_ex.c ****         }
1475:E:/LiteOS/LiteOS_Lab/drivers/third_party/ST/STM32L4xx_HAL_Driver/Src\stm32l4xx_hal_rcc_ex.c ****       }
1476:E:/LiteOS/LiteOS_Lab/drivers/third_party/ST/STM32L4xx_HAL_Driver/Src\stm32l4xx_hal_rcc_ex.c ****       else if(srcclk == RCC_CCIPR_CLK48SEL_0)  /* PLLSAI1 ? */
1477:E:/LiteOS/LiteOS_Lab/drivers/third_party/ST/STM32L4xx_HAL_Driver/Src\stm32l4xx_hal_rcc_ex.c ****       {
1478:E:/LiteOS/LiteOS_Lab/drivers/third_party/ST/STM32L4xx_HAL_Driver/Src\stm32l4xx_hal_rcc_ex.c ****         if(HAL_IS_BIT_SET(RCC->CR, RCC_CR_PLLSAI1RDY) && HAL_IS_BIT_SET(RCC->PLLSAI1CFGR, RCC_PLLSA
1479:E:/LiteOS/LiteOS_Lab/drivers/third_party/ST/STM32L4xx_HAL_Driver/Src\stm32l4xx_hal_rcc_ex.c ****         {
1480:E:/LiteOS/LiteOS_Lab/drivers/third_party/ST/STM32L4xx_HAL_Driver/Src\stm32l4xx_hal_rcc_ex.c **** #if defined(RCC_PLLSAI1M_DIV_1_16_SUPPORT)
1481:E:/LiteOS/LiteOS_Lab/drivers/third_party/ST/STM32L4xx_HAL_Driver/Src\stm32l4xx_hal_rcc_ex.c ****           /* f(PLLSAI1 Source) / PLLSAI1M */
1482:E:/LiteOS/LiteOS_Lab/drivers/third_party/ST/STM32L4xx_HAL_Driver/Src\stm32l4xx_hal_rcc_ex.c ****           pllvco = (pllvco / ((READ_BIT(RCC->PLLSAI1CFGR, RCC_PLLSAI1CFGR_PLLSAI1M) >> RCC_PLLSAI1C
1483:E:/LiteOS/LiteOS_Lab/drivers/third_party/ST/STM32L4xx_HAL_Driver/Src\stm32l4xx_hal_rcc_ex.c **** #endif
1484:E:/LiteOS/LiteOS_Lab/drivers/third_party/ST/STM32L4xx_HAL_Driver/Src\stm32l4xx_hal_rcc_ex.c ****           /* f(PLL48M2CLK) = f(VCOSAI1 input) * PLLSAI1N / PLLSAI1Q */
1485:E:/LiteOS/LiteOS_Lab/drivers/third_party/ST/STM32L4xx_HAL_Driver/Src\stm32l4xx_hal_rcc_ex.c ****           plln = READ_BIT(RCC->PLLSAI1CFGR, RCC_PLLSAI1CFGR_PLLSAI1N) >> RCC_PLLSAI1CFGR_PLLSAI1N_P
1486:E:/LiteOS/LiteOS_Lab/drivers/third_party/ST/STM32L4xx_HAL_Driver/Src\stm32l4xx_hal_rcc_ex.c ****           frequency = (pllvco * plln) / (((READ_BIT(RCC->PLLSAI1CFGR, RCC_PLLSAI1CFGR_PLLSAI1Q) >> 
1487:E:/LiteOS/LiteOS_Lab/drivers/third_party/ST/STM32L4xx_HAL_Driver/Src\stm32l4xx_hal_rcc_ex.c ****         }
1488:E:/LiteOS/LiteOS_Lab/drivers/third_party/ST/STM32L4xx_HAL_Driver/Src\stm32l4xx_hal_rcc_ex.c ****         else
1489:E:/LiteOS/LiteOS_Lab/drivers/third_party/ST/STM32L4xx_HAL_Driver/Src\stm32l4xx_hal_rcc_ex.c ****         {
1490:E:/LiteOS/LiteOS_Lab/drivers/third_party/ST/STM32L4xx_HAL_Driver/Src\stm32l4xx_hal_rcc_ex.c ****           frequency = 0U;
1491:E:/LiteOS/LiteOS_Lab/drivers/third_party/ST/STM32L4xx_HAL_Driver/Src\stm32l4xx_hal_rcc_ex.c ****         }
