ARM GAS  C:\Users\ADMINI~1\AppData\Local\Temp\ccvQoyy7.s 			page 1


   1              		.cpu cortex-m4
   2              		.eabi_attribute 27, 1
   3              		.eabi_attribute 28, 1
   4              		.eabi_attribute 20, 1
   5              		.eabi_attribute 21, 1
   6              		.eabi_attribute 23, 3
   7              		.eabi_attribute 24, 1
   8              		.eabi_attribute 25, 1
   9              		.eabi_attribute 26, 1
  10              		.eabi_attribute 30, 6
  11              		.eabi_attribute 34, 1
  12              		.eabi_attribute 18, 4
  13              		.file	"cmsis_liteos.c"
  14              		.text
  15              	.Ltext0:
  16              		.cfi_sections	.debug_frame
  17              		.section	.bss.KernelState,"aw",%nobits
  18              		.align	2
  21              	KernelState:
  22 0000 00000000 		.space	4
  23              		.global	g_stLosVersion
  24              		.section	.rodata.g_stLosVersion,"a"
  25              		.align	2
  28              	g_stLosVersion:
  29 0000 01000000 		.word	1
  30 0004 01000000 		.word	1
  31              		.section	.text.osKernelInitialize,"ax",%progbits
  32              		.align	1
  33              		.global	osKernelInitialize
  34              		.arch armv7e-m
  35              		.syntax unified
  36              		.thumb
  37              		.thumb_func
  38              		.fpu fpv4-sp-d16
  40              	osKernelInitialize:
  41              	.LFB289:
  42              		.file 1 "d:/LiteOS_Lab/iot_link/os/liteos/cmsis/2.0/cmsis_liteos2.c"
   1:d:/LiteOS_Lab/iot_link/os/liteos/cmsis/2.0\cmsis_liteos2.c **** /*----------------------------------------------------------------------------
   2:d:/LiteOS_Lab/iot_link/os/liteos/cmsis/2.0\cmsis_liteos2.c ****  * Copyright (c) <2013-2015>, <Huawei Technologies Co., Ltd>
   3:d:/LiteOS_Lab/iot_link/os/liteos/cmsis/2.0\cmsis_liteos2.c ****  * All rights reserved.
   4:d:/LiteOS_Lab/iot_link/os/liteos/cmsis/2.0\cmsis_liteos2.c ****  * Redistribution and use in source and binary forms, with or without modification,
   5:d:/LiteOS_Lab/iot_link/os/liteos/cmsis/2.0\cmsis_liteos2.c ****  * are permitted provided that the following conditions are met:
   6:d:/LiteOS_Lab/iot_link/os/liteos/cmsis/2.0\cmsis_liteos2.c ****  * 1. Redistributions of source code must retain the above copyright notice, this list of
   7:d:/LiteOS_Lab/iot_link/os/liteos/cmsis/2.0\cmsis_liteos2.c ****  * conditions and the following disclaimer.
   8:d:/LiteOS_Lab/iot_link/os/liteos/cmsis/2.0\cmsis_liteos2.c ****  * 2. Redistributions in binary form must reproduce the above copyright notice, this list
   9:d:/LiteOS_Lab/iot_link/os/liteos/cmsis/2.0\cmsis_liteos2.c ****  * of conditions and the following disclaimer in the documentation and/or other materials
  10:d:/LiteOS_Lab/iot_link/os/liteos/cmsis/2.0\cmsis_liteos2.c ****  * provided with the distribution.
  11:d:/LiteOS_Lab/iot_link/os/liteos/cmsis/2.0\cmsis_liteos2.c ****  * 3. Neither the name of the copyright holder nor the names of its contributors may be used
  12:d:/LiteOS_Lab/iot_link/os/liteos/cmsis/2.0\cmsis_liteos2.c ****  * to endorse or promote products derived from this software without specific prior written
  13:d:/LiteOS_Lab/iot_link/os/liteos/cmsis/2.0\cmsis_liteos2.c ****  * permission.
  14:d:/LiteOS_Lab/iot_link/os/liteos/cmsis/2.0\cmsis_liteos2.c ****  * THIS SOFTWARE IS PROVIDED BY THE COPYRIGHT HOLDERS AND CONTRIBUTORS
  15:d:/LiteOS_Lab/iot_link/os/liteos/cmsis/2.0\cmsis_liteos2.c ****  * "AS IS" AND ANY EXPRESS OR IMPLIED WARRANTIES, INCLUDING, BUT NOT LIMITED TO,
  16:d:/LiteOS_Lab/iot_link/os/liteos/cmsis/2.0\cmsis_liteos2.c ****  * THE IMPLIED WARRANTIES OF MERCHANTABILITY AND FITNESS FOR A PARTICULAR
  17:d:/LiteOS_Lab/iot_link/os/liteos/cmsis/2.0\cmsis_liteos2.c ****  * PURPOSE ARE DISCLAIMED. IN NO EVENT SHALL THE COPYRIGHT HOLDER OR
  18:d:/LiteOS_Lab/iot_link/os/liteos/cmsis/2.0\cmsis_liteos2.c ****  * CONTRIBUTORS BE LIABLE FOR ANY DIRECT, INDIRECT, INCIDENTAL, SPECIAL,
  19:d:/LiteOS_Lab/iot_link/os/liteos/cmsis/2.0\cmsis_liteos2.c ****  * EXEMPLARY, OR CONSEQUENTIAL DAMAGES (INCLUDING, BUT NOT LIMITED TO,
  20:d:/LiteOS_Lab/iot_link/os/liteos/cmsis/2.0\cmsis_liteos2.c ****  * PROCUREMENT OF SUBSTITUTE GOODS OR SERVICES; LOSS OF USE, DATA, OR PROFITS;
ARM GAS  C:\Users\ADMINI~1\AppData\Local\Temp\ccvQoyy7.s 			page 2


  21:d:/LiteOS_Lab/iot_link/os/liteos/cmsis/2.0\cmsis_liteos2.c ****  * OR BUSINESS INTERRUPTION) HOWEVER CAUSED AND ON ANY THEORY OF LIABILITY,
  22:d:/LiteOS_Lab/iot_link/os/liteos/cmsis/2.0\cmsis_liteos2.c ****  * WHETHER IN CONTRACT, STRICT LIABILITY, OR TORT (INCLUDING NEGLIGENCE OR
  23:d:/LiteOS_Lab/iot_link/os/liteos/cmsis/2.0\cmsis_liteos2.c ****  * OTHERWISE) ARISING IN ANY WAY OUT OF THE USE OF THIS SOFTWARE, EVEN IF
  24:d:/LiteOS_Lab/iot_link/os/liteos/cmsis/2.0\cmsis_liteos2.c ****  * ADVISED OF THE POSSIBILITY OF SUCH DAMAGE.
  25:d:/LiteOS_Lab/iot_link/os/liteos/cmsis/2.0\cmsis_liteos2.c ****  *---------------------------------------------------------------------------*/
  26:d:/LiteOS_Lab/iot_link/os/liteos/cmsis/2.0\cmsis_liteos2.c **** /*----------------------------------------------------------------------------
  27:d:/LiteOS_Lab/iot_link/os/liteos/cmsis/2.0\cmsis_liteos2.c ****  * Notice of Export Control Law
  28:d:/LiteOS_Lab/iot_link/os/liteos/cmsis/2.0\cmsis_liteos2.c ****  * ===============================================
  29:d:/LiteOS_Lab/iot_link/os/liteos/cmsis/2.0\cmsis_liteos2.c ****  * Huawei LiteOS may be subject to applicable export control laws and regulations, which might
  30:d:/LiteOS_Lab/iot_link/os/liteos/cmsis/2.0\cmsis_liteos2.c ****  * include those applicable to Huawei LiteOS of U.S. and the country in which you are located.
  31:d:/LiteOS_Lab/iot_link/os/liteos/cmsis/2.0\cmsis_liteos2.c ****  * Import, export and usage of Huawei LiteOS in any manner by you shall be in compliance with such
  32:d:/LiteOS_Lab/iot_link/os/liteos/cmsis/2.0\cmsis_liteos2.c ****  * applicable export control laws and regulations.
  33:d:/LiteOS_Lab/iot_link/os/liteos/cmsis/2.0\cmsis_liteos2.c ****  *---------------------------------------------------------------------------*/
  34:d:/LiteOS_Lab/iot_link/os/liteos/cmsis/2.0\cmsis_liteos2.c **** #include "cmsis_os.h"
  35:d:/LiteOS_Lab/iot_link/os/liteos/cmsis/2.0\cmsis_liteos2.c **** #include "los_typedef.h"
  36:d:/LiteOS_Lab/iot_link/os/liteos/cmsis/2.0\cmsis_liteos2.c **** #include "los_printf.h"
  37:d:/LiteOS_Lab/iot_link/os/liteos/cmsis/2.0\cmsis_liteos2.c **** 
  38:d:/LiteOS_Lab/iot_link/os/liteos/cmsis/2.0\cmsis_liteos2.c **** #include "los_event.h"
  39:d:/LiteOS_Lab/iot_link/os/liteos/cmsis/2.0\cmsis_liteos2.c **** #include "los_membox.h"
  40:d:/LiteOS_Lab/iot_link/os/liteos/cmsis/2.0\cmsis_liteos2.c **** #include "los_hwi.h"
  41:d:/LiteOS_Lab/iot_link/os/liteos/cmsis/2.0\cmsis_liteos2.c **** 
  42:d:/LiteOS_Lab/iot_link/os/liteos/cmsis/2.0\cmsis_liteos2.c **** #include "los_mux.ph"
  43:d:/LiteOS_Lab/iot_link/os/liteos/cmsis/2.0\cmsis_liteos2.c **** #include "los_queue.ph"
  44:d:/LiteOS_Lab/iot_link/os/liteos/cmsis/2.0\cmsis_liteos2.c **** #include "los_sem.ph"
  45:d:/LiteOS_Lab/iot_link/os/liteos/cmsis/2.0\cmsis_liteos2.c **** #include "los_memory.ph"
  46:d:/LiteOS_Lab/iot_link/os/liteos/cmsis/2.0\cmsis_liteos2.c **** #include "los_swtmr.ph"
  47:d:/LiteOS_Lab/iot_link/os/liteos/cmsis/2.0\cmsis_liteos2.c **** #include "los_sys.ph"
  48:d:/LiteOS_Lab/iot_link/os/liteos/cmsis/2.0\cmsis_liteos2.c **** #include "los_task.ph"
  49:d:/LiteOS_Lab/iot_link/os/liteos/cmsis/2.0\cmsis_liteos2.c **** #include "los_tick.ph"
  50:d:/LiteOS_Lab/iot_link/os/liteos/cmsis/2.0\cmsis_liteos2.c **** //#include "los_sleep.h"
  51:d:/LiteOS_Lab/iot_link/os/liteos/cmsis/2.0\cmsis_liteos2.c **** 
  52:d:/LiteOS_Lab/iot_link/os/liteos/cmsis/2.0\cmsis_liteos2.c **** //#include "hal_clocks.h"
  53:d:/LiteOS_Lab/iot_link/os/liteos/cmsis/2.0\cmsis_liteos2.c **** #include "string.h"
  54:d:/LiteOS_Lab/iot_link/os/liteos/cmsis/2.0\cmsis_liteos2.c **** 
  55:d:/LiteOS_Lab/iot_link/os/liteos/cmsis/2.0\cmsis_liteos2.c **** #ifdef __cplusplus
  56:d:/LiteOS_Lab/iot_link/os/liteos/cmsis/2.0\cmsis_liteos2.c **** #if __cplusplus
  57:d:/LiteOS_Lab/iot_link/os/liteos/cmsis/2.0\cmsis_liteos2.c **** extern "C" {
  58:d:/LiteOS_Lab/iot_link/os/liteos/cmsis/2.0\cmsis_liteos2.c **** #endif /* __cplusplus */
  59:d:/LiteOS_Lab/iot_link/os/liteos/cmsis/2.0\cmsis_liteos2.c **** #endif /* __cplusplus */
  60:d:/LiteOS_Lab/iot_link/os/liteos/cmsis/2.0\cmsis_liteos2.c **** #if (CMSIS_OS_VER == 2)
  61:d:/LiteOS_Lab/iot_link/os/liteos/cmsis/2.0\cmsis_liteos2.c **** 
  62:d:/LiteOS_Lab/iot_link/os/liteos/cmsis/2.0\cmsis_liteos2.c **** /* Kernel initialization state */
  63:d:/LiteOS_Lab/iot_link/os/liteos/cmsis/2.0\cmsis_liteos2.c **** static osKernelState_t KernelState;
  64:d:/LiteOS_Lab/iot_link/os/liteos/cmsis/2.0\cmsis_liteos2.c **** 
  65:d:/LiteOS_Lab/iot_link/os/liteos/cmsis/2.0\cmsis_liteos2.c **** extern BOOL g_bTaskScheduled;
  66:d:/LiteOS_Lab/iot_link/os/liteos/cmsis/2.0\cmsis_liteos2.c **** 
  67:d:/LiteOS_Lab/iot_link/os/liteos/cmsis/2.0\cmsis_liteos2.c **** #ifdef LOS_RUNSTOP
  68:d:/LiteOS_Lab/iot_link/os/liteos/cmsis/2.0\cmsis_liteos2.c **** cb_uart_is_need_awake_fn uart_is_need_awake_callback = NULL;
  69:d:/LiteOS_Lab/iot_link/os/liteos/cmsis/2.0\cmsis_liteos2.c **** #endif
  70:d:/LiteOS_Lab/iot_link/os/liteos/cmsis/2.0\cmsis_liteos2.c **** #define LOS_PRIORITY_WIN 8
  71:d:/LiteOS_Lab/iot_link/os/liteos/cmsis/2.0\cmsis_liteos2.c **** 
  72:d:/LiteOS_Lab/iot_link/os/liteos/cmsis/2.0\cmsis_liteos2.c **** const osVersion_t g_stLosVersion = {001, 001};
  73:d:/LiteOS_Lab/iot_link/os/liteos/cmsis/2.0\cmsis_liteos2.c **** 
  74:d:/LiteOS_Lab/iot_link/os/liteos/cmsis/2.0\cmsis_liteos2.c **** #define LITEOS_VERSION_MAJOR    1
  75:d:/LiteOS_Lab/iot_link/os/liteos/cmsis/2.0\cmsis_liteos2.c **** #define LITEOS_VERSION_MINOR    0
  76:d:/LiteOS_Lab/iot_link/os/liteos/cmsis/2.0\cmsis_liteos2.c **** #define LITEOS_VERSION_BUILD    0
  77:d:/LiteOS_Lab/iot_link/os/liteos/cmsis/2.0\cmsis_liteos2.c **** 
ARM GAS  C:\Users\ADMINI~1\AppData\Local\Temp\ccvQoyy7.s 			page 3


  78:d:/LiteOS_Lab/iot_link/os/liteos/cmsis/2.0\cmsis_liteos2.c **** /* Kernel version and identification string definition */
  79:d:/LiteOS_Lab/iot_link/os/liteos/cmsis/2.0\cmsis_liteos2.c **** #define KERNEL_VERSION            (((UINT32)LITEOS_VERSION_MAJOR * 10000000UL) | \
  80:d:/LiteOS_Lab/iot_link/os/liteos/cmsis/2.0\cmsis_liteos2.c ****                                    ((UINT32)LITEOS_VERSION_MINOR *    10000UL) | \
  81:d:/LiteOS_Lab/iot_link/os/liteos/cmsis/2.0\cmsis_liteos2.c ****                                    ((UINT32)LITEOS_VERSION_BUILD *        1UL))
  82:d:/LiteOS_Lab/iot_link/os/liteos/cmsis/2.0\cmsis_liteos2.c **** 
  83:d:/LiteOS_Lab/iot_link/os/liteos/cmsis/2.0\cmsis_liteos2.c **** #define KERNEL_ID   "HUAWEI-LiteOS"
  84:d:/LiteOS_Lab/iot_link/os/liteos/cmsis/2.0\cmsis_liteos2.c **** 
  85:d:/LiteOS_Lab/iot_link/os/liteos/cmsis/2.0\cmsis_liteos2.c **** #ifndef UNUSED
  86:d:/LiteOS_Lab/iot_link/os/liteos/cmsis/2.0\cmsis_liteos2.c **** #define UNUSED(var) do { (void)var; } while(0)
  87:d:/LiteOS_Lab/iot_link/os/liteos/cmsis/2.0\cmsis_liteos2.c **** #endif
  88:d:/LiteOS_Lab/iot_link/os/liteos/cmsis/2.0\cmsis_liteos2.c **** //  ==== Kernel Management Functions ====
  89:d:/LiteOS_Lab/iot_link/os/liteos/cmsis/2.0\cmsis_liteos2.c **** uint32_t osTaskStackWaterMarkGet(UINT32 uwTaskID);
  90:d:/LiteOS_Lab/iot_link/os/liteos/cmsis/2.0\cmsis_liteos2.c **** 
  91:d:/LiteOS_Lab/iot_link/os/liteos/cmsis/2.0\cmsis_liteos2.c **** extern VOID LOS_GetSystickCycle(UINT32 *puwCntHi, UINT32 *puwCntLo);
  92:d:/LiteOS_Lab/iot_link/os/liteos/cmsis/2.0\cmsis_liteos2.c **** 
  93:d:/LiteOS_Lab/iot_link/os/liteos/cmsis/2.0\cmsis_liteos2.c **** osStatus_t osKernelInitialize (void)
  94:d:/LiteOS_Lab/iot_link/os/liteos/cmsis/2.0\cmsis_liteos2.c **** {
  43              		.loc 1 94 1
  44              		.cfi_startproc
  45              		@ args = 0, pretend = 0, frame = 0
  46              		@ frame_needed = 1, uses_anonymous_args = 0
  47 0000 80B5     		push	{r7, lr}
  48              	.LCFI0:
  49              		.cfi_def_cfa_offset 8
  50              		.cfi_offset 7, -8
  51              		.cfi_offset 14, -4
  52 0002 00AF     		add	r7, sp, #0
  53              	.LCFI1:
  54              		.cfi_def_cfa_register 7
  95:d:/LiteOS_Lab/iot_link/os/liteos/cmsis/2.0\cmsis_liteos2.c ****     if (OS_INT_ACTIVE)
  55              		.loc 1 95 9
  56 0004 FFF7FEFF 		bl	osIntNumGet
  57 0008 0346     		mov	r3, r0
  58              		.loc 1 95 8
  59 000a 002B     		cmp	r3, #0
  60 000c 02D0     		beq	.L2
  96:d:/LiteOS_Lab/iot_link/os/liteos/cmsis/2.0\cmsis_liteos2.c ****     {
  97:d:/LiteOS_Lab/iot_link/os/liteos/cmsis/2.0\cmsis_liteos2.c ****         return osErrorISR;
  61              		.loc 1 97 16
  62 000e 6FF00503 		mvn	r3, #5
  63 0012 12E0     		b	.L3
  64              	.L2:
  98:d:/LiteOS_Lab/iot_link/os/liteos/cmsis/2.0\cmsis_liteos2.c ****     }
  99:d:/LiteOS_Lab/iot_link/os/liteos/cmsis/2.0\cmsis_liteos2.c **** 
 100:d:/LiteOS_Lab/iot_link/os/liteos/cmsis/2.0\cmsis_liteos2.c ****     if (KernelState != osKernelInactive)
  65              		.loc 1 100 21
  66 0014 0A4B     		ldr	r3, .L6
  67 0016 1B68     		ldr	r3, [r3]
  68              		.loc 1 100 8
  69 0018 002B     		cmp	r3, #0
  70 001a 02D0     		beq	.L4
 101:d:/LiteOS_Lab/iot_link/os/liteos/cmsis/2.0\cmsis_liteos2.c ****     {
 102:d:/LiteOS_Lab/iot_link/os/liteos/cmsis/2.0\cmsis_liteos2.c ****         return osError;
  71              		.loc 1 102 16
  72 001c 4FF0FF33 		mov	r3, #-1
  73 0020 0BE0     		b	.L3
  74              	.L4:
ARM GAS  C:\Users\ADMINI~1\AppData\Local\Temp\ccvQoyy7.s 			page 4


 103:d:/LiteOS_Lab/iot_link/os/liteos/cmsis/2.0\cmsis_liteos2.c ****     }
 104:d:/LiteOS_Lab/iot_link/os/liteos/cmsis/2.0\cmsis_liteos2.c **** 
 105:d:/LiteOS_Lab/iot_link/os/liteos/cmsis/2.0\cmsis_liteos2.c ****     if(LOS_OK == LOS_KernelInit())
  75              		.loc 1 105 18
  76 0022 FFF7FEFF 		bl	LOS_KernelInit
  77 0026 0346     		mov	r3, r0
  78              		.loc 1 105 7
  79 0028 002B     		cmp	r3, #0
  80 002a 04D1     		bne	.L5
 106:d:/LiteOS_Lab/iot_link/os/liteos/cmsis/2.0\cmsis_liteos2.c ****     {
 107:d:/LiteOS_Lab/iot_link/os/liteos/cmsis/2.0\cmsis_liteos2.c ****         KernelState = osKernelReady;
  81              		.loc 1 107 21
  82 002c 044B     		ldr	r3, .L6
  83 002e 0122     		movs	r2, #1
  84 0030 1A60     		str	r2, [r3]
 108:d:/LiteOS_Lab/iot_link/os/liteos/cmsis/2.0\cmsis_liteos2.c ****         return osOK;
  85              		.loc 1 108 16
  86 0032 0023     		movs	r3, #0
  87 0034 01E0     		b	.L3
  88              	.L5:
 109:d:/LiteOS_Lab/iot_link/os/liteos/cmsis/2.0\cmsis_liteos2.c ****     }
 110:d:/LiteOS_Lab/iot_link/os/liteos/cmsis/2.0\cmsis_liteos2.c ****     else
 111:d:/LiteOS_Lab/iot_link/os/liteos/cmsis/2.0\cmsis_liteos2.c ****     {
 112:d:/LiteOS_Lab/iot_link/os/liteos/cmsis/2.0\cmsis_liteos2.c ****         return osError;
  89              		.loc 1 112 16
  90 0036 4FF0FF33 		mov	r3, #-1
  91              	.L3:
 113:d:/LiteOS_Lab/iot_link/os/liteos/cmsis/2.0\cmsis_liteos2.c ****     }
 114:d:/LiteOS_Lab/iot_link/os/liteos/cmsis/2.0\cmsis_liteos2.c **** }
  92              		.loc 1 114 1
  93 003a 1846     		mov	r0, r3
  94 003c 80BD     		pop	{r7, pc}
  95              	.L7:
  96 003e 00BF     		.align	2
  97              	.L6:
  98 0040 00000000 		.word	KernelState
  99              		.cfi_endproc
 100              	.LFE289:
 102              		.section	.rodata
 103              		.align	2
 104              	.LC0:
 105 0000 48554157 		.ascii	"HUAWEI-LiteOS\000"
 105      45492D4C 
 105      6974654F 
 105      5300
 106              		.section	.text.osKernelGetInfo,"ax",%progbits
 107              		.align	1
 108              		.global	osKernelGetInfo
 109              		.syntax unified
 110              		.thumb
 111              		.thumb_func
 112              		.fpu fpv4-sp-d16
 114              	osKernelGetInfo:
 115              	.LFB290:
 115:d:/LiteOS_Lab/iot_link/os/liteos/cmsis/2.0\cmsis_liteos2.c **** 
 116:d:/LiteOS_Lab/iot_link/os/liteos/cmsis/2.0\cmsis_liteos2.c **** 
 117:d:/LiteOS_Lab/iot_link/os/liteos/cmsis/2.0\cmsis_liteos2.c **** osStatus_t osKernelGetInfo (osVersion_t *version, char *id_buf, uint32_t id_size)
ARM GAS  C:\Users\ADMINI~1\AppData\Local\Temp\ccvQoyy7.s 			page 5


 118:d:/LiteOS_Lab/iot_link/os/liteos/cmsis/2.0\cmsis_liteos2.c **** {
 116              		.loc 1 118 1
 117              		.cfi_startproc
 118              		@ args = 0, pretend = 0, frame = 16
 119              		@ frame_needed = 1, uses_anonymous_args = 0
 120 0000 80B5     		push	{r7, lr}
 121              	.LCFI2:
 122              		.cfi_def_cfa_offset 8
 123              		.cfi_offset 7, -8
 124              		.cfi_offset 14, -4
 125 0002 84B0     		sub	sp, sp, #16
 126              	.LCFI3:
 127              		.cfi_def_cfa_offset 24
 128 0004 00AF     		add	r7, sp, #0
 129              	.LCFI4:
 130              		.cfi_def_cfa_register 7
 131 0006 F860     		str	r0, [r7, #12]
 132 0008 B960     		str	r1, [r7, #8]
 133 000a 7A60     		str	r2, [r7, #4]
 119:d:/LiteOS_Lab/iot_link/os/liteos/cmsis/2.0\cmsis_liteos2.c ****     if (OS_INT_ACTIVE)
 134              		.loc 1 119 9
 135 000c FFF7FEFF 		bl	osIntNumGet
 136 0010 0346     		mov	r3, r0
 137              		.loc 1 119 8
 138 0012 002B     		cmp	r3, #0
 139 0014 02D0     		beq	.L9
 120:d:/LiteOS_Lab/iot_link/os/liteos/cmsis/2.0\cmsis_liteos2.c ****     {
 121:d:/LiteOS_Lab/iot_link/os/liteos/cmsis/2.0\cmsis_liteos2.c ****         return osErrorISR;
 140              		.loc 1 121 16
 141 0016 6FF00503 		mvn	r3, #5
 142 001a 19E0     		b	.L10
 143              	.L9:
 122:d:/LiteOS_Lab/iot_link/os/liteos/cmsis/2.0\cmsis_liteos2.c ****     }
 123:d:/LiteOS_Lab/iot_link/os/liteos/cmsis/2.0\cmsis_liteos2.c **** 
 124:d:/LiteOS_Lab/iot_link/os/liteos/cmsis/2.0\cmsis_liteos2.c ****     if (version != NULL)
 144              		.loc 1 124 8
 145 001c FB68     		ldr	r3, [r7, #12]
 146 001e 002B     		cmp	r3, #0
 147 0020 05D0     		beq	.L11
 125:d:/LiteOS_Lab/iot_link/os/liteos/cmsis/2.0\cmsis_liteos2.c ****     {
 126:d:/LiteOS_Lab/iot_link/os/liteos/cmsis/2.0\cmsis_liteos2.c ****         version->api = g_stLosVersion.api;
 148              		.loc 1 126 38
 149 0022 0122     		movs	r2, #1
 150              		.loc 1 126 22
 151 0024 FB68     		ldr	r3, [r7, #12]
 152 0026 1A60     		str	r2, [r3]
 127:d:/LiteOS_Lab/iot_link/os/liteos/cmsis/2.0\cmsis_liteos2.c ****         version->kernel = g_stLosVersion.kernel;
 153              		.loc 1 127 41
 154 0028 0122     		movs	r2, #1
 155              		.loc 1 127 25
 156 002a FB68     		ldr	r3, [r7, #12]
 157 002c 5A60     		str	r2, [r3, #4]
 158              	.L11:
 128:d:/LiteOS_Lab/iot_link/os/liteos/cmsis/2.0\cmsis_liteos2.c ****     }
 129:d:/LiteOS_Lab/iot_link/os/liteos/cmsis/2.0\cmsis_liteos2.c **** 
 130:d:/LiteOS_Lab/iot_link/os/liteos/cmsis/2.0\cmsis_liteos2.c ****     if ((id_buf != NULL) && (id_size != 0U))
 159              		.loc 1 130 8
ARM GAS  C:\Users\ADMINI~1\AppData\Local\Temp\ccvQoyy7.s 			page 6


 160 002e BB68     		ldr	r3, [r7, #8]
 161 0030 002B     		cmp	r3, #0
 162 0032 0CD0     		beq	.L12
 163              		.loc 1 130 26 discriminator 1
 164 0034 7B68     		ldr	r3, [r7, #4]
 165 0036 002B     		cmp	r3, #0
 166 0038 09D0     		beq	.L12
 131:d:/LiteOS_Lab/iot_link/os/liteos/cmsis/2.0\cmsis_liteos2.c ****     {
 132:d:/LiteOS_Lab/iot_link/os/liteos/cmsis/2.0\cmsis_liteos2.c ****         if (id_size > sizeof(KERNEL_ID))
 167              		.loc 1 132 12
 168 003a 7B68     		ldr	r3, [r7, #4]
 169 003c 0E2B     		cmp	r3, #14
 170 003e 01D9     		bls	.L13
 133:d:/LiteOS_Lab/iot_link/os/liteos/cmsis/2.0\cmsis_liteos2.c ****         {
 134:d:/LiteOS_Lab/iot_link/os/liteos/cmsis/2.0\cmsis_liteos2.c ****             id_size = sizeof(KERNEL_ID);
 171              		.loc 1 134 21
 172 0040 0E23     		movs	r3, #14
 173 0042 7B60     		str	r3, [r7, #4]
 174              	.L13:
 135:d:/LiteOS_Lab/iot_link/os/liteos/cmsis/2.0\cmsis_liteos2.c ****         }
 136:d:/LiteOS_Lab/iot_link/os/liteos/cmsis/2.0\cmsis_liteos2.c ****         memcpy(id_buf, KERNEL_ID, id_size);
 175              		.loc 1 136 9
 176 0044 7A68     		ldr	r2, [r7, #4]
 177 0046 0449     		ldr	r1, .L14
 178 0048 B868     		ldr	r0, [r7, #8]
 179 004a FFF7FEFF 		bl	memcpy
 180              	.L12:
 137:d:/LiteOS_Lab/iot_link/os/liteos/cmsis/2.0\cmsis_liteos2.c ****     }
 138:d:/LiteOS_Lab/iot_link/os/liteos/cmsis/2.0\cmsis_liteos2.c **** 
 139:d:/LiteOS_Lab/iot_link/os/liteos/cmsis/2.0\cmsis_liteos2.c ****     return osOK;
 181              		.loc 1 139 12
 182 004e 0023     		movs	r3, #0
 183              	.L10:
 140:d:/LiteOS_Lab/iot_link/os/liteos/cmsis/2.0\cmsis_liteos2.c **** }
 184              		.loc 1 140 1
 185 0050 1846     		mov	r0, r3
 186 0052 1037     		adds	r7, r7, #16
 187              	.LCFI5:
 188              		.cfi_def_cfa_offset 8
 189 0054 BD46     		mov	sp, r7
 190              	.LCFI6:
 191              		.cfi_def_cfa_register 13
 192              		@ sp needed
 193 0056 80BD     		pop	{r7, pc}
 194              	.L15:
 195              		.align	2
 196              	.L14:
 197 0058 00000000 		.word	.LC0
 198              		.cfi_endproc
 199              	.LFE290:
 201              		.section	.text.osKernelGetState,"ax",%progbits
 202              		.align	1
 203              		.global	osKernelGetState
 204              		.syntax unified
 205              		.thumb
 206              		.thumb_func
 207              		.fpu fpv4-sp-d16
ARM GAS  C:\Users\ADMINI~1\AppData\Local\Temp\ccvQoyy7.s 			page 7


 209              	osKernelGetState:
 210              	.LFB291:
 141:d:/LiteOS_Lab/iot_link/os/liteos/cmsis/2.0\cmsis_liteos2.c **** 
 142:d:/LiteOS_Lab/iot_link/os/liteos/cmsis/2.0\cmsis_liteos2.c **** 
 143:d:/LiteOS_Lab/iot_link/os/liteos/cmsis/2.0\cmsis_liteos2.c **** osKernelState_t osKernelGetState (void)
 144:d:/LiteOS_Lab/iot_link/os/liteos/cmsis/2.0\cmsis_liteos2.c **** {
 211              		.loc 1 144 1
 212              		.cfi_startproc
 213              		@ args = 0, pretend = 0, frame = 0
 214              		@ frame_needed = 1, uses_anonymous_args = 0
 215 0000 80B5     		push	{r7, lr}
 216              	.LCFI7:
 217              		.cfi_def_cfa_offset 8
 218              		.cfi_offset 7, -8
 219              		.cfi_offset 14, -4
 220 0002 00AF     		add	r7, sp, #0
 221              	.LCFI8:
 222              		.cfi_def_cfa_register 7
 145:d:/LiteOS_Lab/iot_link/os/liteos/cmsis/2.0\cmsis_liteos2.c ****     if (OS_INT_ACTIVE)
 223              		.loc 1 145 9
 224 0004 FFF7FEFF 		bl	osIntNumGet
 225 0008 0346     		mov	r3, r0
 226              		.loc 1 145 8
 227 000a 002B     		cmp	r3, #0
 228 000c 02D0     		beq	.L17
 146:d:/LiteOS_Lab/iot_link/os/liteos/cmsis/2.0\cmsis_liteos2.c ****     {
 147:d:/LiteOS_Lab/iot_link/os/liteos/cmsis/2.0\cmsis_liteos2.c ****         return osKernelError;
 229              		.loc 1 147 16
 230 000e 4FF0FF33 		mov	r3, #-1
 231 0012 12E0     		b	.L18
 232              	.L17:
 148:d:/LiteOS_Lab/iot_link/os/liteos/cmsis/2.0\cmsis_liteos2.c ****     }
 149:d:/LiteOS_Lab/iot_link/os/liteos/cmsis/2.0\cmsis_liteos2.c **** 
 150:d:/LiteOS_Lab/iot_link/os/liteos/cmsis/2.0\cmsis_liteos2.c ****     if(!g_bTaskScheduled)
 233              		.loc 1 150 8
 234 0014 0A4B     		ldr	r3, .L22
 235 0016 1B68     		ldr	r3, [r3]
 236              		.loc 1 150 7
 237 0018 002B     		cmp	r3, #0
 238 001a 07D1     		bne	.L19
 151:d:/LiteOS_Lab/iot_link/os/liteos/cmsis/2.0\cmsis_liteos2.c ****     {
 152:d:/LiteOS_Lab/iot_link/os/liteos/cmsis/2.0\cmsis_liteos2.c ****         if (KernelState == osKernelReady)
 239              		.loc 1 152 25
 240 001c 094B     		ldr	r3, .L22+4
 241 001e 1B68     		ldr	r3, [r3]
 242              		.loc 1 152 12
 243 0020 012B     		cmp	r3, #1
 244 0022 01D1     		bne	.L20
 153:d:/LiteOS_Lab/iot_link/os/liteos/cmsis/2.0\cmsis_liteos2.c ****         {
 154:d:/LiteOS_Lab/iot_link/os/liteos/cmsis/2.0\cmsis_liteos2.c ****             return osKernelReady;
 245              		.loc 1 154 20
 246 0024 0123     		movs	r3, #1
 247 0026 08E0     		b	.L18
 248              	.L20:
 155:d:/LiteOS_Lab/iot_link/os/liteos/cmsis/2.0\cmsis_liteos2.c ****         }
 156:d:/LiteOS_Lab/iot_link/os/liteos/cmsis/2.0\cmsis_liteos2.c ****         else
 157:d:/LiteOS_Lab/iot_link/os/liteos/cmsis/2.0\cmsis_liteos2.c ****         {
ARM GAS  C:\Users\ADMINI~1\AppData\Local\Temp\ccvQoyy7.s 			page 8


 158:d:/LiteOS_Lab/iot_link/os/liteos/cmsis/2.0\cmsis_liteos2.c ****             return osKernelInactive;
 249              		.loc 1 158 20
 250 0028 0023     		movs	r3, #0
 251 002a 06E0     		b	.L18
 252              	.L19:
 159:d:/LiteOS_Lab/iot_link/os/liteos/cmsis/2.0\cmsis_liteos2.c ****         }
 160:d:/LiteOS_Lab/iot_link/os/liteos/cmsis/2.0\cmsis_liteos2.c ****     }
 161:d:/LiteOS_Lab/iot_link/os/liteos/cmsis/2.0\cmsis_liteos2.c ****     else if(g_usLosTaskLock > 0)
 253              		.loc 1 161 29
 254 002c 064B     		ldr	r3, .L22+8
 255 002e 1B88     		ldrh	r3, [r3]
 256              		.loc 1 161 12
 257 0030 002B     		cmp	r3, #0
 258 0032 01D0     		beq	.L21
 162:d:/LiteOS_Lab/iot_link/os/liteos/cmsis/2.0\cmsis_liteos2.c ****     {
 163:d:/LiteOS_Lab/iot_link/os/liteos/cmsis/2.0\cmsis_liteos2.c ****         return osKernelLocked;
 259              		.loc 1 163 16
 260 0034 0323     		movs	r3, #3
 261 0036 00E0     		b	.L18
 262              	.L21:
 164:d:/LiteOS_Lab/iot_link/os/liteos/cmsis/2.0\cmsis_liteos2.c ****     }
 165:d:/LiteOS_Lab/iot_link/os/liteos/cmsis/2.0\cmsis_liteos2.c ****     else
 166:d:/LiteOS_Lab/iot_link/os/liteos/cmsis/2.0\cmsis_liteos2.c ****     {
 167:d:/LiteOS_Lab/iot_link/os/liteos/cmsis/2.0\cmsis_liteos2.c ****         return osKernelRunning;
 263              		.loc 1 167 16
 264 0038 0223     		movs	r3, #2
 265              	.L18:
 168:d:/LiteOS_Lab/iot_link/os/liteos/cmsis/2.0\cmsis_liteos2.c ****     }
 169:d:/LiteOS_Lab/iot_link/os/liteos/cmsis/2.0\cmsis_liteos2.c **** }
 266              		.loc 1 169 1
 267 003a 1846     		mov	r0, r3
 268 003c 80BD     		pop	{r7, pc}
 269              	.L23:
 270 003e 00BF     		.align	2
 271              	.L22:
 272 0040 00000000 		.word	g_bTaskScheduled
 273 0044 00000000 		.word	KernelState
 274 0048 00000000 		.word	g_usLosTaskLock
 275              		.cfi_endproc
 276              	.LFE291:
 278              		.section	.text.osKernelStart,"ax",%progbits
 279              		.align	1
 280              		.global	osKernelStart
 281              		.syntax unified
 282              		.thumb
 283              		.thumb_func
 284              		.fpu fpv4-sp-d16
 286              	osKernelStart:
 287              	.LFB292:
 170:d:/LiteOS_Lab/iot_link/os/liteos/cmsis/2.0\cmsis_liteos2.c **** 
 171:d:/LiteOS_Lab/iot_link/os/liteos/cmsis/2.0\cmsis_liteos2.c **** 
 172:d:/LiteOS_Lab/iot_link/os/liteos/cmsis/2.0\cmsis_liteos2.c **** osStatus_t osKernelStart (void)
 173:d:/LiteOS_Lab/iot_link/os/liteos/cmsis/2.0\cmsis_liteos2.c **** {
 288              		.loc 1 173 1
 289              		.cfi_startproc
 290              		@ args = 0, pretend = 0, frame = 0
 291              		@ frame_needed = 1, uses_anonymous_args = 0
ARM GAS  C:\Users\ADMINI~1\AppData\Local\Temp\ccvQoyy7.s 			page 9


 292 0000 80B5     		push	{r7, lr}
 293              	.LCFI9:
 294              		.cfi_def_cfa_offset 8
 295              		.cfi_offset 7, -8
 296              		.cfi_offset 14, -4
 297 0002 00AF     		add	r7, sp, #0
 298              	.LCFI10:
 299              		.cfi_def_cfa_register 7
 174:d:/LiteOS_Lab/iot_link/os/liteos/cmsis/2.0\cmsis_liteos2.c ****     if(OS_INT_ACTIVE)
 300              		.loc 1 174 8
 301 0004 FFF7FEFF 		bl	osIntNumGet
 302 0008 0346     		mov	r3, r0
 303              		.loc 1 174 7
 304 000a 002B     		cmp	r3, #0
 305 000c 02D0     		beq	.L25
 175:d:/LiteOS_Lab/iot_link/os/liteos/cmsis/2.0\cmsis_liteos2.c ****     {
 176:d:/LiteOS_Lab/iot_link/os/liteos/cmsis/2.0\cmsis_liteos2.c ****         return osErrorISR;
 306              		.loc 1 176 16
 307 000e 6FF00503 		mvn	r3, #5
 308 0012 12E0     		b	.L26
 309              	.L25:
 177:d:/LiteOS_Lab/iot_link/os/liteos/cmsis/2.0\cmsis_liteos2.c ****     }
 178:d:/LiteOS_Lab/iot_link/os/liteos/cmsis/2.0\cmsis_liteos2.c **** 
 179:d:/LiteOS_Lab/iot_link/os/liteos/cmsis/2.0\cmsis_liteos2.c ****     if(KernelState == osKernelReady)
 310              		.loc 1 179 20
 311 0014 0A4B     		ldr	r3, .L29
 312 0016 1B68     		ldr	r3, [r3]
 313              		.loc 1 179 7
 314 0018 012B     		cmp	r3, #1
 315 001a 0CD1     		bne	.L27
 180:d:/LiteOS_Lab/iot_link/os/liteos/cmsis/2.0\cmsis_liteos2.c ****     {
 181:d:/LiteOS_Lab/iot_link/os/liteos/cmsis/2.0\cmsis_liteos2.c ****         if(LOS_OK == LOS_Start())
 316              		.loc 1 181 22
 317 001c FFF7FEFF 		bl	LOS_Start
 318 0020 0346     		mov	r3, r0
 319              		.loc 1 181 11
 320 0022 002B     		cmp	r3, #0
 321 0024 04D1     		bne	.L28
 182:d:/LiteOS_Lab/iot_link/os/liteos/cmsis/2.0\cmsis_liteos2.c ****         {
 183:d:/LiteOS_Lab/iot_link/os/liteos/cmsis/2.0\cmsis_liteos2.c ****             KernelState = osKernelRunning;
 322              		.loc 1 183 25
 323 0026 064B     		ldr	r3, .L29
 324 0028 0222     		movs	r2, #2
 325 002a 1A60     		str	r2, [r3]
 184:d:/LiteOS_Lab/iot_link/os/liteos/cmsis/2.0\cmsis_liteos2.c ****             return osOK;
 326              		.loc 1 184 20
 327 002c 0023     		movs	r3, #0
 328 002e 04E0     		b	.L26
 329              	.L28:
 185:d:/LiteOS_Lab/iot_link/os/liteos/cmsis/2.0\cmsis_liteos2.c ****         }
 186:d:/LiteOS_Lab/iot_link/os/liteos/cmsis/2.0\cmsis_liteos2.c ****         else
 187:d:/LiteOS_Lab/iot_link/os/liteos/cmsis/2.0\cmsis_liteos2.c ****         {
 188:d:/LiteOS_Lab/iot_link/os/liteos/cmsis/2.0\cmsis_liteos2.c ****             return osError;
 330              		.loc 1 188 20
 331 0030 4FF0FF33 		mov	r3, #-1
 332 0034 01E0     		b	.L26
 333              	.L27:
ARM GAS  C:\Users\ADMINI~1\AppData\Local\Temp\ccvQoyy7.s 			page 10


 189:d:/LiteOS_Lab/iot_link/os/liteos/cmsis/2.0\cmsis_liteos2.c ****         }
 190:d:/LiteOS_Lab/iot_link/os/liteos/cmsis/2.0\cmsis_liteos2.c ****     }
 191:d:/LiteOS_Lab/iot_link/os/liteos/cmsis/2.0\cmsis_liteos2.c ****     else
 192:d:/LiteOS_Lab/iot_link/os/liteos/cmsis/2.0\cmsis_liteos2.c ****     {
 193:d:/LiteOS_Lab/iot_link/os/liteos/cmsis/2.0\cmsis_liteos2.c ****         return osError;
 334              		.loc 1 193 16
 335 0036 4FF0FF33 		mov	r3, #-1
 336              	.L26:
 194:d:/LiteOS_Lab/iot_link/os/liteos/cmsis/2.0\cmsis_liteos2.c ****     }
 195:d:/LiteOS_Lab/iot_link/os/liteos/cmsis/2.0\cmsis_liteos2.c **** }
 337              		.loc 1 195 1
 338 003a 1846     		mov	r0, r3
 339 003c 80BD     		pop	{r7, pc}
 340              	.L30:
 341 003e 00BF     		.align	2
 342              	.L29:
 343 0040 00000000 		.word	KernelState
 344              		.cfi_endproc
 345              	.LFE292:
 347              		.section	.text.osKernelLock,"ax",%progbits
 348              		.align	1
 349              		.global	osKernelLock
 350              		.syntax unified
 351              		.thumb
 352              		.thumb_func
 353              		.fpu fpv4-sp-d16
 355              	osKernelLock:
 356              	.LFB293:
 196:d:/LiteOS_Lab/iot_link/os/liteos/cmsis/2.0\cmsis_liteos2.c **** 
 197:d:/LiteOS_Lab/iot_link/os/liteos/cmsis/2.0\cmsis_liteos2.c **** 
 198:d:/LiteOS_Lab/iot_link/os/liteos/cmsis/2.0\cmsis_liteos2.c **** int32_t osKernelLock (void)
 199:d:/LiteOS_Lab/iot_link/os/liteos/cmsis/2.0\cmsis_liteos2.c **** {
 357              		.loc 1 199 1
 358              		.cfi_startproc
 359              		@ args = 0, pretend = 0, frame = 8
 360              		@ frame_needed = 1, uses_anonymous_args = 0
 361 0000 80B5     		push	{r7, lr}
 362              	.LCFI11:
 363              		.cfi_def_cfa_offset 8
 364              		.cfi_offset 7, -8
 365              		.cfi_offset 14, -4
 366 0002 82B0     		sub	sp, sp, #8
 367              	.LCFI12:
 368              		.cfi_def_cfa_offset 16
 369 0004 00AF     		add	r7, sp, #0
 370              	.LCFI13:
 371              		.cfi_def_cfa_register 7
 200:d:/LiteOS_Lab/iot_link/os/liteos/cmsis/2.0\cmsis_liteos2.c ****     int32_t lock;
 201:d:/LiteOS_Lab/iot_link/os/liteos/cmsis/2.0\cmsis_liteos2.c **** 
 202:d:/LiteOS_Lab/iot_link/os/liteos/cmsis/2.0\cmsis_liteos2.c ****     if(OS_INT_ACTIVE)
 372              		.loc 1 202 8
 373 0006 FFF7FEFF 		bl	osIntNumGet
 374 000a 0346     		mov	r3, r0
 375              		.loc 1 202 7
 376 000c 002B     		cmp	r3, #0
 377 000e 02D0     		beq	.L32
 203:d:/LiteOS_Lab/iot_link/os/liteos/cmsis/2.0\cmsis_liteos2.c ****     {
ARM GAS  C:\Users\ADMINI~1\AppData\Local\Temp\ccvQoyy7.s 			page 11


 204:d:/LiteOS_Lab/iot_link/os/liteos/cmsis/2.0\cmsis_liteos2.c ****         return (int32_t)osErrorISR;
 378              		.loc 1 204 16
 379 0010 6FF00503 		mvn	r3, #5
 380 0014 12E0     		b	.L33
 381              	.L32:
 205:d:/LiteOS_Lab/iot_link/os/liteos/cmsis/2.0\cmsis_liteos2.c ****     }
 206:d:/LiteOS_Lab/iot_link/os/liteos/cmsis/2.0\cmsis_liteos2.c **** 
 207:d:/LiteOS_Lab/iot_link/os/liteos/cmsis/2.0\cmsis_liteos2.c ****     if(!g_bTaskScheduled)
 382              		.loc 1 207 8
 383 0016 0B4B     		ldr	r3, .L37
 384 0018 1B68     		ldr	r3, [r3]
 385              		.loc 1 207 7
 386 001a 002B     		cmp	r3, #0
 387 001c 02D1     		bne	.L34
 208:d:/LiteOS_Lab/iot_link/os/liteos/cmsis/2.0\cmsis_liteos2.c ****     {
 209:d:/LiteOS_Lab/iot_link/os/liteos/cmsis/2.0\cmsis_liteos2.c ****         return (int32_t)osError;
 388              		.loc 1 209 16
 389 001e 4FF0FF33 		mov	r3, #-1
 390 0022 0BE0     		b	.L33
 391              	.L34:
 210:d:/LiteOS_Lab/iot_link/os/liteos/cmsis/2.0\cmsis_liteos2.c ****     }
 211:d:/LiteOS_Lab/iot_link/os/liteos/cmsis/2.0\cmsis_liteos2.c **** 
 212:d:/LiteOS_Lab/iot_link/os/liteos/cmsis/2.0\cmsis_liteos2.c ****     if(g_usLosTaskLock > 0)
 392              		.loc 1 212 24
 393 0024 084B     		ldr	r3, .L37+4
 394 0026 1B88     		ldrh	r3, [r3]
 395              		.loc 1 212 7
 396 0028 002B     		cmp	r3, #0
 397 002a 02D0     		beq	.L35
 213:d:/LiteOS_Lab/iot_link/os/liteos/cmsis/2.0\cmsis_liteos2.c ****     {
 214:d:/LiteOS_Lab/iot_link/os/liteos/cmsis/2.0\cmsis_liteos2.c ****         lock = 1;
 398              		.loc 1 214 14
 399 002c 0123     		movs	r3, #1
 400 002e 7B60     		str	r3, [r7, #4]
 401 0030 03E0     		b	.L36
 402              	.L35:
 215:d:/LiteOS_Lab/iot_link/os/liteos/cmsis/2.0\cmsis_liteos2.c ****     }
 216:d:/LiteOS_Lab/iot_link/os/liteos/cmsis/2.0\cmsis_liteos2.c ****     else
 217:d:/LiteOS_Lab/iot_link/os/liteos/cmsis/2.0\cmsis_liteos2.c ****     {
 218:d:/LiteOS_Lab/iot_link/os/liteos/cmsis/2.0\cmsis_liteos2.c ****         LOS_TaskLock();
 403              		.loc 1 218 9
 404 0032 FFF7FEFF 		bl	LOS_TaskLock
 219:d:/LiteOS_Lab/iot_link/os/liteos/cmsis/2.0\cmsis_liteos2.c ****         lock = 0;
 405              		.loc 1 219 14
 406 0036 0023     		movs	r3, #0
 407 0038 7B60     		str	r3, [r7, #4]
 408              	.L36:
 220:d:/LiteOS_Lab/iot_link/os/liteos/cmsis/2.0\cmsis_liteos2.c ****     }
 221:d:/LiteOS_Lab/iot_link/os/liteos/cmsis/2.0\cmsis_liteos2.c **** 
 222:d:/LiteOS_Lab/iot_link/os/liteos/cmsis/2.0\cmsis_liteos2.c ****     return lock;
 409              		.loc 1 222 12
 410 003a 7B68     		ldr	r3, [r7, #4]
 411              	.L33:
 223:d:/LiteOS_Lab/iot_link/os/liteos/cmsis/2.0\cmsis_liteos2.c **** }
 412              		.loc 1 223 1
 413 003c 1846     		mov	r0, r3
 414 003e 0837     		adds	r7, r7, #8
ARM GAS  C:\Users\ADMINI~1\AppData\Local\Temp\ccvQoyy7.s 			page 12


 415              	.LCFI14:
 416              		.cfi_def_cfa_offset 8
 417 0040 BD46     		mov	sp, r7
 418              	.LCFI15:
 419              		.cfi_def_cfa_register 13
 420              		@ sp needed
 421 0042 80BD     		pop	{r7, pc}
 422              	.L38:
 423              		.align	2
 424              	.L37:
 425 0044 00000000 		.word	g_bTaskScheduled
 426 0048 00000000 		.word	g_usLosTaskLock
 427              		.cfi_endproc
 428              	.LFE293:
 430              		.section	.text.osKernelUnlock,"ax",%progbits
 431              		.align	1
 432              		.global	osKernelUnlock
 433              		.syntax unified
 434              		.thumb
 435              		.thumb_func
 436              		.fpu fpv4-sp-d16
 438              	osKernelUnlock:
 439              	.LFB294:
 224:d:/LiteOS_Lab/iot_link/os/liteos/cmsis/2.0\cmsis_liteos2.c **** 
 225:d:/LiteOS_Lab/iot_link/os/liteos/cmsis/2.0\cmsis_liteos2.c **** 
 226:d:/LiteOS_Lab/iot_link/os/liteos/cmsis/2.0\cmsis_liteos2.c **** int32_t osKernelUnlock (void)
 227:d:/LiteOS_Lab/iot_link/os/liteos/cmsis/2.0\cmsis_liteos2.c **** {
 440              		.loc 1 227 1
 441              		.cfi_startproc
 442              		@ args = 0, pretend = 0, frame = 8
 443              		@ frame_needed = 1, uses_anonymous_args = 0
 444 0000 80B5     		push	{r7, lr}
 445              	.LCFI16:
 446              		.cfi_def_cfa_offset 8
 447              		.cfi_offset 7, -8
 448              		.cfi_offset 14, -4
 449 0002 82B0     		sub	sp, sp, #8
 450              	.LCFI17:
 451              		.cfi_def_cfa_offset 16
 452 0004 00AF     		add	r7, sp, #0
 453              	.LCFI18:
 454              		.cfi_def_cfa_register 7
 228:d:/LiteOS_Lab/iot_link/os/liteos/cmsis/2.0\cmsis_liteos2.c ****     int32_t lock;
 229:d:/LiteOS_Lab/iot_link/os/liteos/cmsis/2.0\cmsis_liteos2.c **** 
 230:d:/LiteOS_Lab/iot_link/os/liteos/cmsis/2.0\cmsis_liteos2.c ****     if(OS_INT_ACTIVE)
 455              		.loc 1 230 8
 456 0006 FFF7FEFF 		bl	osIntNumGet
 457 000a 0346     		mov	r3, r0
 458              		.loc 1 230 7
 459 000c 002B     		cmp	r3, #0
 460 000e 02D0     		beq	.L40
 231:d:/LiteOS_Lab/iot_link/os/liteos/cmsis/2.0\cmsis_liteos2.c ****     {
 232:d:/LiteOS_Lab/iot_link/os/liteos/cmsis/2.0\cmsis_liteos2.c ****         return (int32_t)osErrorISR;
 461              		.loc 1 232 16
 462 0010 6FF00503 		mvn	r3, #5
 463 0014 19E0     		b	.L41
 464              	.L40:
ARM GAS  C:\Users\ADMINI~1\AppData\Local\Temp\ccvQoyy7.s 			page 13


 233:d:/LiteOS_Lab/iot_link/os/liteos/cmsis/2.0\cmsis_liteos2.c ****     }
 234:d:/LiteOS_Lab/iot_link/os/liteos/cmsis/2.0\cmsis_liteos2.c **** 
 235:d:/LiteOS_Lab/iot_link/os/liteos/cmsis/2.0\cmsis_liteos2.c ****     if(!g_bTaskScheduled)
 465              		.loc 1 235 8
 466 0016 0F4B     		ldr	r3, .L46
 467 0018 1B68     		ldr	r3, [r3]
 468              		.loc 1 235 7
 469 001a 002B     		cmp	r3, #0
 470 001c 02D1     		bne	.L42
 236:d:/LiteOS_Lab/iot_link/os/liteos/cmsis/2.0\cmsis_liteos2.c ****     {
 237:d:/LiteOS_Lab/iot_link/os/liteos/cmsis/2.0\cmsis_liteos2.c ****         return (int32_t)osError;
 471              		.loc 1 237 16
 472 001e 4FF0FF33 		mov	r3, #-1
 473 0022 12E0     		b	.L41
 474              	.L42:
 238:d:/LiteOS_Lab/iot_link/os/liteos/cmsis/2.0\cmsis_liteos2.c ****     }
 239:d:/LiteOS_Lab/iot_link/os/liteos/cmsis/2.0\cmsis_liteos2.c **** 
 240:d:/LiteOS_Lab/iot_link/os/liteos/cmsis/2.0\cmsis_liteos2.c ****     if(g_usLosTaskLock > 0)
 475              		.loc 1 240 24
 476 0024 0C4B     		ldr	r3, .L46+4
 477 0026 1B88     		ldrh	r3, [r3]
 478              		.loc 1 240 7
 479 0028 002B     		cmp	r3, #0
 480 002a 0BD0     		beq	.L43
 241:d:/LiteOS_Lab/iot_link/os/liteos/cmsis/2.0\cmsis_liteos2.c ****     {
 242:d:/LiteOS_Lab/iot_link/os/liteos/cmsis/2.0\cmsis_liteos2.c ****         LOS_TaskUnlock();
 481              		.loc 1 242 9
 482 002c FFF7FEFF 		bl	LOS_TaskUnlock
 243:d:/LiteOS_Lab/iot_link/os/liteos/cmsis/2.0\cmsis_liteos2.c ****         if (g_usLosTaskLock != 0)
 483              		.loc 1 243 29
 484 0030 094B     		ldr	r3, .L46+4
 485 0032 1B88     		ldrh	r3, [r3]
 486              		.loc 1 243 12
 487 0034 002B     		cmp	r3, #0
 488 0036 02D0     		beq	.L44
 244:d:/LiteOS_Lab/iot_link/os/liteos/cmsis/2.0\cmsis_liteos2.c ****         {
 245:d:/LiteOS_Lab/iot_link/os/liteos/cmsis/2.0\cmsis_liteos2.c ****             return (int32_t)osError;
 489              		.loc 1 245 20
 490 0038 4FF0FF33 		mov	r3, #-1
 491 003c 05E0     		b	.L41
 492              	.L44:
 246:d:/LiteOS_Lab/iot_link/os/liteos/cmsis/2.0\cmsis_liteos2.c ****         }
 247:d:/LiteOS_Lab/iot_link/os/liteos/cmsis/2.0\cmsis_liteos2.c ****         lock = 1;
 493              		.loc 1 247 14
 494 003e 0123     		movs	r3, #1
 495 0040 7B60     		str	r3, [r7, #4]
 496 0042 01E0     		b	.L45
 497              	.L43:
 248:d:/LiteOS_Lab/iot_link/os/liteos/cmsis/2.0\cmsis_liteos2.c ****     }
 249:d:/LiteOS_Lab/iot_link/os/liteos/cmsis/2.0\cmsis_liteos2.c ****     else
 250:d:/LiteOS_Lab/iot_link/os/liteos/cmsis/2.0\cmsis_liteos2.c ****     {
 251:d:/LiteOS_Lab/iot_link/os/liteos/cmsis/2.0\cmsis_liteos2.c ****         lock = 0;
 498              		.loc 1 251 14
 499 0044 0023     		movs	r3, #0
 500 0046 7B60     		str	r3, [r7, #4]
 501              	.L45:
 252:d:/LiteOS_Lab/iot_link/os/liteos/cmsis/2.0\cmsis_liteos2.c ****     }
ARM GAS  C:\Users\ADMINI~1\AppData\Local\Temp\ccvQoyy7.s 			page 14


 253:d:/LiteOS_Lab/iot_link/os/liteos/cmsis/2.0\cmsis_liteos2.c **** 
 254:d:/LiteOS_Lab/iot_link/os/liteos/cmsis/2.0\cmsis_liteos2.c ****     return lock;
 502              		.loc 1 254 12
 503 0048 7B68     		ldr	r3, [r7, #4]
 504              	.L41:
 255:d:/LiteOS_Lab/iot_link/os/liteos/cmsis/2.0\cmsis_liteos2.c **** }
 505              		.loc 1 255 1
 506 004a 1846     		mov	r0, r3
 507 004c 0837     		adds	r7, r7, #8
 508              	.LCFI19:
 509              		.cfi_def_cfa_offset 8
 510 004e BD46     		mov	sp, r7
 511              	.LCFI20:
 512              		.cfi_def_cfa_register 13
 513              		@ sp needed
 514 0050 80BD     		pop	{r7, pc}
 515              	.L47:
 516 0052 00BF     		.align	2
 517              	.L46:
 518 0054 00000000 		.word	g_bTaskScheduled
 519 0058 00000000 		.word	g_usLosTaskLock
 520              		.cfi_endproc
 521              	.LFE294:
 523              		.section	.text.osKernelRestoreLock,"ax",%progbits
 524              		.align	1
 525              		.global	osKernelRestoreLock
 526              		.syntax unified
 527              		.thumb
 528              		.thumb_func
 529              		.fpu fpv4-sp-d16
 531              	osKernelRestoreLock:
 532              	.LFB295:
 256:d:/LiteOS_Lab/iot_link/os/liteos/cmsis/2.0\cmsis_liteos2.c **** 
 257:d:/LiteOS_Lab/iot_link/os/liteos/cmsis/2.0\cmsis_liteos2.c **** 
 258:d:/LiteOS_Lab/iot_link/os/liteos/cmsis/2.0\cmsis_liteos2.c **** int32_t osKernelRestoreLock (int32_t lock)
 259:d:/LiteOS_Lab/iot_link/os/liteos/cmsis/2.0\cmsis_liteos2.c **** {
 533              		.loc 1 259 1
 534              		.cfi_startproc
 535              		@ args = 0, pretend = 0, frame = 8
 536              		@ frame_needed = 1, uses_anonymous_args = 0
 537 0000 80B5     		push	{r7, lr}
 538              	.LCFI21:
 539              		.cfi_def_cfa_offset 8
 540              		.cfi_offset 7, -8
 541              		.cfi_offset 14, -4
 542 0002 82B0     		sub	sp, sp, #8
 543              	.LCFI22:
 544              		.cfi_def_cfa_offset 16
 545 0004 00AF     		add	r7, sp, #0
 546              	.LCFI23:
 547              		.cfi_def_cfa_register 7
 548 0006 7860     		str	r0, [r7, #4]
 260:d:/LiteOS_Lab/iot_link/os/liteos/cmsis/2.0\cmsis_liteos2.c ****     if(OS_INT_ACTIVE)
 549              		.loc 1 260 8
 550 0008 FFF7FEFF 		bl	osIntNumGet
 551 000c 0346     		mov	r3, r0
 552              		.loc 1 260 7
ARM GAS  C:\Users\ADMINI~1\AppData\Local\Temp\ccvQoyy7.s 			page 15


 553 000e 002B     		cmp	r3, #0
 554 0010 02D0     		beq	.L49
 261:d:/LiteOS_Lab/iot_link/os/liteos/cmsis/2.0\cmsis_liteos2.c ****     {
 262:d:/LiteOS_Lab/iot_link/os/liteos/cmsis/2.0\cmsis_liteos2.c ****         return (int32_t)osErrorISR;
 555              		.loc 1 262 16
 556 0012 6FF00503 		mvn	r3, #5
 557 0016 1CE0     		b	.L50
 558              	.L49:
 263:d:/LiteOS_Lab/iot_link/os/liteos/cmsis/2.0\cmsis_liteos2.c ****     }
 264:d:/LiteOS_Lab/iot_link/os/liteos/cmsis/2.0\cmsis_liteos2.c **** 
 265:d:/LiteOS_Lab/iot_link/os/liteos/cmsis/2.0\cmsis_liteos2.c ****     if(!g_bTaskScheduled)
 559              		.loc 1 265 8
 560 0018 104B     		ldr	r3, .L58
 561 001a 1B68     		ldr	r3, [r3]
 562              		.loc 1 265 7
 563 001c 002B     		cmp	r3, #0
 564 001e 02D1     		bne	.L51
 266:d:/LiteOS_Lab/iot_link/os/liteos/cmsis/2.0\cmsis_liteos2.c ****     {
 267:d:/LiteOS_Lab/iot_link/os/liteos/cmsis/2.0\cmsis_liteos2.c ****         return (int32_t)osError;
 565              		.loc 1 267 16
 566 0020 4FF0FF33 		mov	r3, #-1
 567 0024 15E0     		b	.L50
 568              	.L51:
 268:d:/LiteOS_Lab/iot_link/os/liteos/cmsis/2.0\cmsis_liteos2.c ****     }
 269:d:/LiteOS_Lab/iot_link/os/liteos/cmsis/2.0\cmsis_liteos2.c **** 
 270:d:/LiteOS_Lab/iot_link/os/liteos/cmsis/2.0\cmsis_liteos2.c ****     switch (lock)
 569              		.loc 1 270 5
 570 0026 7B68     		ldr	r3, [r7, #4]
 571 0028 002B     		cmp	r3, #0
 572 002a 03D0     		beq	.L52
 573 002c 7B68     		ldr	r3, [r7, #4]
 574 002e 012B     		cmp	r3, #1
 575 0030 08D0     		beq	.L53
 271:d:/LiteOS_Lab/iot_link/os/liteos/cmsis/2.0\cmsis_liteos2.c ****     {
 272:d:/LiteOS_Lab/iot_link/os/liteos/cmsis/2.0\cmsis_liteos2.c ****     case 0:
 273:d:/LiteOS_Lab/iot_link/os/liteos/cmsis/2.0\cmsis_liteos2.c ****         LOS_TaskUnlock();
 274:d:/LiteOS_Lab/iot_link/os/liteos/cmsis/2.0\cmsis_liteos2.c ****         if (g_usLosTaskLock != 0)
 275:d:/LiteOS_Lab/iot_link/os/liteos/cmsis/2.0\cmsis_liteos2.c ****         {
 276:d:/LiteOS_Lab/iot_link/os/liteos/cmsis/2.0\cmsis_liteos2.c ****             break;
 277:d:/LiteOS_Lab/iot_link/os/liteos/cmsis/2.0\cmsis_liteos2.c ****         }
 278:d:/LiteOS_Lab/iot_link/os/liteos/cmsis/2.0\cmsis_liteos2.c ****         return 0;
 279:d:/LiteOS_Lab/iot_link/os/liteos/cmsis/2.0\cmsis_liteos2.c ****     case 1:
 280:d:/LiteOS_Lab/iot_link/os/liteos/cmsis/2.0\cmsis_liteos2.c ****         LOS_TaskLock();
 281:d:/LiteOS_Lab/iot_link/os/liteos/cmsis/2.0\cmsis_liteos2.c ****         return 1;
 282:d:/LiteOS_Lab/iot_link/os/liteos/cmsis/2.0\cmsis_liteos2.c ****     default:
 283:d:/LiteOS_Lab/iot_link/os/liteos/cmsis/2.0\cmsis_liteos2.c ****         break;
 576              		.loc 1 283 9
 577 0032 0CE0     		b	.L56
 578              	.L52:
 273:d:/LiteOS_Lab/iot_link/os/liteos/cmsis/2.0\cmsis_liteos2.c ****         if (g_usLosTaskLock != 0)
 579              		.loc 1 273 9
 580 0034 FFF7FEFF 		bl	LOS_TaskUnlock
 274:d:/LiteOS_Lab/iot_link/os/liteos/cmsis/2.0\cmsis_liteos2.c ****         {
 581              		.loc 1 274 29
 582 0038 094B     		ldr	r3, .L58+4
 583 003a 1B88     		ldrh	r3, [r3]
 274:d:/LiteOS_Lab/iot_link/os/liteos/cmsis/2.0\cmsis_liteos2.c ****         {
ARM GAS  C:\Users\ADMINI~1\AppData\Local\Temp\ccvQoyy7.s 			page 16


 584              		.loc 1 274 12
 585 003c 002B     		cmp	r3, #0
 586 003e 05D1     		bne	.L57
 278:d:/LiteOS_Lab/iot_link/os/liteos/cmsis/2.0\cmsis_liteos2.c ****     case 1:
 587              		.loc 1 278 16
 588 0040 0023     		movs	r3, #0
 589 0042 06E0     		b	.L50
 590              	.L53:
 280:d:/LiteOS_Lab/iot_link/os/liteos/cmsis/2.0\cmsis_liteos2.c ****         return 1;
 591              		.loc 1 280 9
 592 0044 FFF7FEFF 		bl	LOS_TaskLock
 281:d:/LiteOS_Lab/iot_link/os/liteos/cmsis/2.0\cmsis_liteos2.c ****     default:
 593              		.loc 1 281 16
 594 0048 0123     		movs	r3, #1
 595 004a 02E0     		b	.L50
 596              	.L57:
 276:d:/LiteOS_Lab/iot_link/os/liteos/cmsis/2.0\cmsis_liteos2.c ****         }
 597              		.loc 1 276 13
 598 004c 00BF     		nop
 599              	.L56:
 284:d:/LiteOS_Lab/iot_link/os/liteos/cmsis/2.0\cmsis_liteos2.c ****     }
 285:d:/LiteOS_Lab/iot_link/os/liteos/cmsis/2.0\cmsis_liteos2.c **** 
 286:d:/LiteOS_Lab/iot_link/os/liteos/cmsis/2.0\cmsis_liteos2.c ****     return (int32_t)osError;
 600              		.loc 1 286 12
 601 004e 4FF0FF33 		mov	r3, #-1
 602              	.L50:
 287:d:/LiteOS_Lab/iot_link/os/liteos/cmsis/2.0\cmsis_liteos2.c **** 
 288:d:/LiteOS_Lab/iot_link/os/liteos/cmsis/2.0\cmsis_liteos2.c **** }
 603              		.loc 1 288 1
 604 0052 1846     		mov	r0, r3
 605 0054 0837     		adds	r7, r7, #8
 606              	.LCFI24:
 607              		.cfi_def_cfa_offset 8
 608 0056 BD46     		mov	sp, r7
 609              	.LCFI25:
 610              		.cfi_def_cfa_register 13
 611              		@ sp needed
 612 0058 80BD     		pop	{r7, pc}
 613              	.L59:
 614 005a 00BF     		.align	2
 615              	.L58:
 616 005c 00000000 		.word	g_bTaskScheduled
 617 0060 00000000 		.word	g_usLosTaskLock
 618              		.cfi_endproc
 619              	.LFE295:
 621              		.section	.text.osKernelGetTickCount,"ax",%progbits
 622              		.align	1
 623              		.global	osKernelGetTickCount
 624              		.syntax unified
 625              		.thumb
 626              		.thumb_func
 627              		.fpu fpv4-sp-d16
 629              	osKernelGetTickCount:
 630              	.LFB296:
 289:d:/LiteOS_Lab/iot_link/os/liteos/cmsis/2.0\cmsis_liteos2.c **** 
 290:d:/LiteOS_Lab/iot_link/os/liteos/cmsis/2.0\cmsis_liteos2.c **** 
 291:d:/LiteOS_Lab/iot_link/os/liteos/cmsis/2.0\cmsis_liteos2.c **** uint64_t osKernelGetTickCount (void)
ARM GAS  C:\Users\ADMINI~1\AppData\Local\Temp\ccvQoyy7.s 			page 17


 292:d:/LiteOS_Lab/iot_link/os/liteos/cmsis/2.0\cmsis_liteos2.c **** {
 631              		.loc 1 292 1
 632              		.cfi_startproc
 633              		@ args = 0, pretend = 0, frame = 16
 634              		@ frame_needed = 1, uses_anonymous_args = 0
 635 0000 80B5     		push	{r7, lr}
 636              	.LCFI26:
 637              		.cfi_def_cfa_offset 8
 638              		.cfi_offset 7, -8
 639              		.cfi_offset 14, -4
 640 0002 84B0     		sub	sp, sp, #16
 641              	.LCFI27:
 642              		.cfi_def_cfa_offset 24
 643 0004 00AF     		add	r7, sp, #0
 644              	.LCFI28:
 645              		.cfi_def_cfa_register 7
 293:d:/LiteOS_Lab/iot_link/os/liteos/cmsis/2.0\cmsis_liteos2.c ****     uint64_t ticks;
 294:d:/LiteOS_Lab/iot_link/os/liteos/cmsis/2.0\cmsis_liteos2.c ****     UINTPTR uvIntSave;
 295:d:/LiteOS_Lab/iot_link/os/liteos/cmsis/2.0\cmsis_liteos2.c **** 
 296:d:/LiteOS_Lab/iot_link/os/liteos/cmsis/2.0\cmsis_liteos2.c ****     if(OS_INT_ACTIVE)
 646              		.loc 1 296 8
 647 0006 FFF7FEFF 		bl	osIntNumGet
 648 000a 0346     		mov	r3, r0
 649              		.loc 1 296 7
 650 000c 002B     		cmp	r3, #0
 651 000e 06D0     		beq	.L61
 297:d:/LiteOS_Lab/iot_link/os/liteos/cmsis/2.0\cmsis_liteos2.c ****     {
 298:d:/LiteOS_Lab/iot_link/os/liteos/cmsis/2.0\cmsis_liteos2.c ****         ticks = 0U;
 652              		.loc 1 298 15
 653 0010 4FF00002 		mov	r2, #0
 654 0014 4FF00003 		mov	r3, #0
 655 0018 C7E90223 		strd	r2, [r7, #8]
 656 001c 0AE0     		b	.L62
 657              	.L61:
 299:d:/LiteOS_Lab/iot_link/os/liteos/cmsis/2.0\cmsis_liteos2.c ****     }
 300:d:/LiteOS_Lab/iot_link/os/liteos/cmsis/2.0\cmsis_liteos2.c ****     else
 301:d:/LiteOS_Lab/iot_link/os/liteos/cmsis/2.0\cmsis_liteos2.c ****     {
 302:d:/LiteOS_Lab/iot_link/os/liteos/cmsis/2.0\cmsis_liteos2.c ****         uvIntSave = LOS_IntLock();
 658              		.loc 1 302 21
 659 001e FFF7FEFF 		bl	LOS_IntLock
 660 0022 7860     		str	r0, [r7, #4]
 303:d:/LiteOS_Lab/iot_link/os/liteos/cmsis/2.0\cmsis_liteos2.c ****         ticks = g_ullTickCount;
 661              		.loc 1 303 15
 662 0024 074B     		ldr	r3, .L64
 663 0026 D3E90023 		ldrd	r2, [r3]
 664 002a C7E90223 		strd	r2, [r7, #8]
 304:d:/LiteOS_Lab/iot_link/os/liteos/cmsis/2.0\cmsis_liteos2.c ****         LOS_IntRestore(uvIntSave);
 665              		.loc 1 304 9
 666 002e 7868     		ldr	r0, [r7, #4]
 667 0030 FFF7FEFF 		bl	LOS_IntRestore
 668              	.L62:
 305:d:/LiteOS_Lab/iot_link/os/liteos/cmsis/2.0\cmsis_liteos2.c ****     }
 306:d:/LiteOS_Lab/iot_link/os/liteos/cmsis/2.0\cmsis_liteos2.c **** 
 307:d:/LiteOS_Lab/iot_link/os/liteos/cmsis/2.0\cmsis_liteos2.c ****     return ticks;
 669              		.loc 1 307 12
 670 0034 D7E90223 		ldrd	r2, [r7, #8]
 308:d:/LiteOS_Lab/iot_link/os/liteos/cmsis/2.0\cmsis_liteos2.c **** }
ARM GAS  C:\Users\ADMINI~1\AppData\Local\Temp\ccvQoyy7.s 			page 18


 671              		.loc 1 308 1
 672 0038 1046     		mov	r0, r2
 673 003a 1946     		mov	r1, r3
 674 003c 1037     		adds	r7, r7, #16
 675              	.LCFI29:
 676              		.cfi_def_cfa_offset 8
 677 003e BD46     		mov	sp, r7
 678              	.LCFI30:
 679              		.cfi_def_cfa_register 13
 680              		@ sp needed
 681 0040 80BD     		pop	{r7, pc}
 682              	.L65:
 683 0042 00BF     		.align	2
 684              	.L64:
 685 0044 00000000 		.word	g_ullTickCount
 686              		.cfi_endproc
 687              	.LFE296:
 689              		.section	.text.osKernelGetTick2ms,"ax",%progbits
 690              		.align	1
 691              		.global	osKernelGetTick2ms
 692              		.syntax unified
 693              		.thumb
 694              		.thumb_func
 695              		.fpu fpv4-sp-d16
 697              	osKernelGetTick2ms:
 698              	.LFB297:
 309:d:/LiteOS_Lab/iot_link/os/liteos/cmsis/2.0\cmsis_liteos2.c **** 
 310:d:/LiteOS_Lab/iot_link/os/liteos/cmsis/2.0\cmsis_liteos2.c **** 
 311:d:/LiteOS_Lab/iot_link/os/liteos/cmsis/2.0\cmsis_liteos2.c **** uint64_t osKernelGetTick2ms(void)
 312:d:/LiteOS_Lab/iot_link/os/liteos/cmsis/2.0\cmsis_liteos2.c **** {
 699              		.loc 1 312 1
 700              		.cfi_startproc
 701              		@ args = 0, pretend = 0, frame = 0
 702              		@ frame_needed = 1, uses_anonymous_args = 0
 703 0000 80B5     		push	{r7, lr}
 704              	.LCFI31:
 705              		.cfi_def_cfa_offset 8
 706              		.cfi_offset 7, -8
 707              		.cfi_offset 14, -4
 708 0002 00AF     		add	r7, sp, #0
 709              	.LCFI32:
 710              		.cfi_def_cfa_register 7
 313:d:/LiteOS_Lab/iot_link/os/liteos/cmsis/2.0\cmsis_liteos2.c ****     return osKernelGetTickCount() * (OS_SYS_MS_PER_SECOND / LOSCFG_BASE_CORE_TICK_PER_SECOND);
 711              		.loc 1 313 35
 712 0004 FFF7FEFF 		bl	osKernelGetTickCount
 713 0008 0246     		mov	r2, r0
 714 000a 0B46     		mov	r3, r1
 314:d:/LiteOS_Lab/iot_link/os/liteos/cmsis/2.0\cmsis_liteos2.c **** }
 715              		.loc 1 314 1
 716 000c 1046     		mov	r0, r2
 717 000e 1946     		mov	r1, r3
 718 0010 80BD     		pop	{r7, pc}
 719              		.cfi_endproc
 720              	.LFE297:
 722              		.section	.text.osMs2Tick,"ax",%progbits
 723              		.align	1
 724              		.global	osMs2Tick
ARM GAS  C:\Users\ADMINI~1\AppData\Local\Temp\ccvQoyy7.s 			page 19


 725              		.syntax unified
 726              		.thumb
 727              		.thumb_func
 728              		.fpu fpv4-sp-d16
 730              	osMs2Tick:
 731              	.LFB298:
 315:d:/LiteOS_Lab/iot_link/os/liteos/cmsis/2.0\cmsis_liteos2.c **** 
 316:d:/LiteOS_Lab/iot_link/os/liteos/cmsis/2.0\cmsis_liteos2.c **** 
 317:d:/LiteOS_Lab/iot_link/os/liteos/cmsis/2.0\cmsis_liteos2.c **** uint64_t osMs2Tick(uint64_t ms)
 318:d:/LiteOS_Lab/iot_link/os/liteos/cmsis/2.0\cmsis_liteos2.c **** {
 732              		.loc 1 318 1
 733              		.cfi_startproc
 734              		@ args = 0, pretend = 0, frame = 8
 735              		@ frame_needed = 1, uses_anonymous_args = 0
 736              		@ link register save eliminated.
 737 0000 80B4     		push	{r7}
 738              	.LCFI33:
 739              		.cfi_def_cfa_offset 4
 740              		.cfi_offset 7, -4
 741 0002 83B0     		sub	sp, sp, #12
 742              	.LCFI34:
 743              		.cfi_def_cfa_offset 16
 744 0004 00AF     		add	r7, sp, #0
 745              	.LCFI35:
 746              		.cfi_def_cfa_register 7
 747 0006 C7E90001 		strd	r0, [r7]
 319:d:/LiteOS_Lab/iot_link/os/liteos/cmsis/2.0\cmsis_liteos2.c **** 
 320:d:/LiteOS_Lab/iot_link/os/liteos/cmsis/2.0\cmsis_liteos2.c ****     return ms * (LOSCFG_BASE_CORE_TICK_PER_SECOND / OS_SYS_MS_PER_SECOND);
 748              		.loc 1 320 15
 749 000a D7E90023 		ldrd	r2, [r7]
 321:d:/LiteOS_Lab/iot_link/os/liteos/cmsis/2.0\cmsis_liteos2.c **** }
 750              		.loc 1 321 1
 751 000e 1046     		mov	r0, r2
 752 0010 1946     		mov	r1, r3
 753 0012 0C37     		adds	r7, r7, #12
 754              	.LCFI36:
 755              		.cfi_def_cfa_offset 4
 756 0014 BD46     		mov	sp, r7
 757              	.LCFI37:
 758              		.cfi_def_cfa_register 13
 759              		@ sp needed
 760 0016 5DF8047B 		ldr	r7, [sp], #4
 761              	.LCFI38:
 762              		.cfi_restore 7
 763              		.cfi_def_cfa_offset 0
 764 001a 7047     		bx	lr
 765              		.cfi_endproc
 766              	.LFE298:
 768              		.section	.text.osKernelGetTickFreq,"ax",%progbits
 769              		.align	1
 770              		.global	osKernelGetTickFreq
 771              		.syntax unified
 772              		.thumb
 773              		.thumb_func
 774              		.fpu fpv4-sp-d16
 776              	osKernelGetTickFreq:
 777              	.LFB299:
ARM GAS  C:\Users\ADMINI~1\AppData\Local\Temp\ccvQoyy7.s 			page 20


 322:d:/LiteOS_Lab/iot_link/os/liteos/cmsis/2.0\cmsis_liteos2.c **** 
 323:d:/LiteOS_Lab/iot_link/os/liteos/cmsis/2.0\cmsis_liteos2.c **** 
 324:d:/LiteOS_Lab/iot_link/os/liteos/cmsis/2.0\cmsis_liteos2.c **** uint32_t osKernelGetTickFreq (void)
 325:d:/LiteOS_Lab/iot_link/os/liteos/cmsis/2.0\cmsis_liteos2.c **** {
 778              		.loc 1 325 1
 779              		.cfi_startproc
 780              		@ args = 0, pretend = 0, frame = 8
 781              		@ frame_needed = 1, uses_anonymous_args = 0
 782 0000 80B5     		push	{r7, lr}
 783              	.LCFI39:
 784              		.cfi_def_cfa_offset 8
 785              		.cfi_offset 7, -8
 786              		.cfi_offset 14, -4
 787 0002 82B0     		sub	sp, sp, #8
 788              	.LCFI40:
 789              		.cfi_def_cfa_offset 16
 790 0004 00AF     		add	r7, sp, #0
 791              	.LCFI41:
 792              		.cfi_def_cfa_register 7
 326:d:/LiteOS_Lab/iot_link/os/liteos/cmsis/2.0\cmsis_liteos2.c ****     uint32_t freq;
 327:d:/LiteOS_Lab/iot_link/os/liteos/cmsis/2.0\cmsis_liteos2.c **** 
 328:d:/LiteOS_Lab/iot_link/os/liteos/cmsis/2.0\cmsis_liteos2.c ****     if (OS_INT_ACTIVE)
 793              		.loc 1 328 9
 794 0006 FFF7FEFF 		bl	osIntNumGet
 795 000a 0346     		mov	r3, r0
 796              		.loc 1 328 8
 797 000c 002B     		cmp	r3, #0
 798 000e 02D0     		beq	.L71
 329:d:/LiteOS_Lab/iot_link/os/liteos/cmsis/2.0\cmsis_liteos2.c ****     {
 330:d:/LiteOS_Lab/iot_link/os/liteos/cmsis/2.0\cmsis_liteos2.c ****         freq = 0U;
 799              		.loc 1 330 14
 800 0010 0023     		movs	r3, #0
 801 0012 7B60     		str	r3, [r7, #4]
 802 0014 02E0     		b	.L72
 803              	.L71:
 331:d:/LiteOS_Lab/iot_link/os/liteos/cmsis/2.0\cmsis_liteos2.c ****     }
 332:d:/LiteOS_Lab/iot_link/os/liteos/cmsis/2.0\cmsis_liteos2.c ****     else
 333:d:/LiteOS_Lab/iot_link/os/liteos/cmsis/2.0\cmsis_liteos2.c ****     {
 334:d:/LiteOS_Lab/iot_link/os/liteos/cmsis/2.0\cmsis_liteos2.c ****         freq = LOSCFG_BASE_CORE_TICK_PER_SECOND;
 804              		.loc 1 334 14
 805 0016 4FF47A73 		mov	r3, #1000
 806 001a 7B60     		str	r3, [r7, #4]
 807              	.L72:
 335:d:/LiteOS_Lab/iot_link/os/liteos/cmsis/2.0\cmsis_liteos2.c ****     }
 336:d:/LiteOS_Lab/iot_link/os/liteos/cmsis/2.0\cmsis_liteos2.c **** 
 337:d:/LiteOS_Lab/iot_link/os/liteos/cmsis/2.0\cmsis_liteos2.c ****     return (freq);
 808              		.loc 1 337 12
 809 001c 7B68     		ldr	r3, [r7, #4]
 338:d:/LiteOS_Lab/iot_link/os/liteos/cmsis/2.0\cmsis_liteos2.c **** }
 810              		.loc 1 338 1
 811 001e 1846     		mov	r0, r3
 812 0020 0837     		adds	r7, r7, #8
 813              	.LCFI42:
 814              		.cfi_def_cfa_offset 8
 815 0022 BD46     		mov	sp, r7
 816              	.LCFI43:
 817              		.cfi_def_cfa_register 13
ARM GAS  C:\Users\ADMINI~1\AppData\Local\Temp\ccvQoyy7.s 			page 21


 818              		@ sp needed
 819 0024 80BD     		pop	{r7, pc}
 820              		.cfi_endproc
 821              	.LFE299:
 823              		.section	.text.osKernelGetSysTimerCount,"ax",%progbits
 824              		.align	1
 825              		.global	osKernelGetSysTimerCount
 826              		.syntax unified
 827              		.thumb
 828              		.thumb_func
 829              		.fpu fpv4-sp-d16
 831              	osKernelGetSysTimerCount:
 832              	.LFB300:
 339:d:/LiteOS_Lab/iot_link/os/liteos/cmsis/2.0\cmsis_liteos2.c **** 
 340:d:/LiteOS_Lab/iot_link/os/liteos/cmsis/2.0\cmsis_liteos2.c **** 
 341:d:/LiteOS_Lab/iot_link/os/liteos/cmsis/2.0\cmsis_liteos2.c **** uint32_t osKernelGetSysTimerCount (void)
 342:d:/LiteOS_Lab/iot_link/os/liteos/cmsis/2.0\cmsis_liteos2.c **** {
 833              		.loc 1 342 1
 834              		.cfi_startproc
 835              		@ args = 0, pretend = 0, frame = 8
 836              		@ frame_needed = 1, uses_anonymous_args = 0
 837 0000 80B5     		push	{r7, lr}
 838              	.LCFI44:
 839              		.cfi_def_cfa_offset 8
 840              		.cfi_offset 7, -8
 841              		.cfi_offset 14, -4
 842 0002 82B0     		sub	sp, sp, #8
 843              	.LCFI45:
 844              		.cfi_def_cfa_offset 16
 845 0004 00AF     		add	r7, sp, #0
 846              	.LCFI46:
 847              		.cfi_def_cfa_register 7
 343:d:/LiteOS_Lab/iot_link/os/liteos/cmsis/2.0\cmsis_liteos2.c ****     uint32_t count_high = 0;
 848              		.loc 1 343 14
 849 0006 0023     		movs	r3, #0
 850 0008 7B60     		str	r3, [r7, #4]
 344:d:/LiteOS_Lab/iot_link/os/liteos/cmsis/2.0\cmsis_liteos2.c ****     uint32_t count_low = 0;
 851              		.loc 1 344 14
 852 000a 0023     		movs	r3, #0
 853 000c 3B60     		str	r3, [r7]
 345:d:/LiteOS_Lab/iot_link/os/liteos/cmsis/2.0\cmsis_liteos2.c ****     if (OS_INT_ACTIVE)
 854              		.loc 1 345 9
 855 000e FFF7FEFF 		bl	osIntNumGet
 856 0012 0346     		mov	r3, r0
 857              		.loc 1 345 8
 858 0014 002B     		cmp	r3, #0
 859 0016 02D0     		beq	.L75
 346:d:/LiteOS_Lab/iot_link/os/liteos/cmsis/2.0\cmsis_liteos2.c ****     {
 347:d:/LiteOS_Lab/iot_link/os/liteos/cmsis/2.0\cmsis_liteos2.c ****         count_low = 0U;
 860              		.loc 1 347 19
 861 0018 0023     		movs	r3, #0
 862 001a 3B60     		str	r3, [r7]
 863 001c 05E0     		b	.L76
 864              	.L75:
 348:d:/LiteOS_Lab/iot_link/os/liteos/cmsis/2.0\cmsis_liteos2.c ****     }
 349:d:/LiteOS_Lab/iot_link/os/liteos/cmsis/2.0\cmsis_liteos2.c ****     else
 350:d:/LiteOS_Lab/iot_link/os/liteos/cmsis/2.0\cmsis_liteos2.c ****     {
ARM GAS  C:\Users\ADMINI~1\AppData\Local\Temp\ccvQoyy7.s 			page 22


 351:d:/LiteOS_Lab/iot_link/os/liteos/cmsis/2.0\cmsis_liteos2.c ****         LOS_GetSystickCycle((UINT32 *)&count_high, (UINT32 *)&count_low);
 865              		.loc 1 351 9
 866 001e 3A46     		mov	r2, r7
 867 0020 3B1D     		adds	r3, r7, #4
 868 0022 1146     		mov	r1, r2
 869 0024 1846     		mov	r0, r3
 870 0026 FFF7FEFF 		bl	LOS_GetSystickCycle
 871              	.L76:
 352:d:/LiteOS_Lab/iot_link/os/liteos/cmsis/2.0\cmsis_liteos2.c ****     }
 353:d:/LiteOS_Lab/iot_link/os/liteos/cmsis/2.0\cmsis_liteos2.c ****     return count_low;
 872              		.loc 1 353 12
 873 002a 3B68     		ldr	r3, [r7]
 354:d:/LiteOS_Lab/iot_link/os/liteos/cmsis/2.0\cmsis_liteos2.c **** }
 874              		.loc 1 354 1
 875 002c 1846     		mov	r0, r3
 876 002e 0837     		adds	r7, r7, #8
 877              	.LCFI47:
 878              		.cfi_def_cfa_offset 8
 879 0030 BD46     		mov	sp, r7
 880              	.LCFI48:
 881              		.cfi_def_cfa_register 13
 882              		@ sp needed
 883 0032 80BD     		pop	{r7, pc}
 884              		.cfi_endproc
 885              	.LFE300:
 887              		.section	.text.osKernelGetSysTimerFreq,"ax",%progbits
 888              		.align	1
 889              		.global	osKernelGetSysTimerFreq
 890              		.syntax unified
 891              		.thumb
 892              		.thumb_func
 893              		.fpu fpv4-sp-d16
 895              	osKernelGetSysTimerFreq:
 896              	.LFB301:
 355:d:/LiteOS_Lab/iot_link/os/liteos/cmsis/2.0\cmsis_liteos2.c **** 
 356:d:/LiteOS_Lab/iot_link/os/liteos/cmsis/2.0\cmsis_liteos2.c **** 
 357:d:/LiteOS_Lab/iot_link/os/liteos/cmsis/2.0\cmsis_liteos2.c **** uint32_t osKernelGetSysTimerFreq (void)
 358:d:/LiteOS_Lab/iot_link/os/liteos/cmsis/2.0\cmsis_liteos2.c **** {
 897              		.loc 1 358 1
 898              		.cfi_startproc
 899              		@ args = 0, pretend = 0, frame = 0
 900              		@ frame_needed = 1, uses_anonymous_args = 0
 901              		@ link register save eliminated.
 902 0000 80B4     		push	{r7}
 903              	.LCFI49:
 904              		.cfi_def_cfa_offset 4
 905              		.cfi_offset 7, -4
 906 0002 00AF     		add	r7, sp, #0
 907              	.LCFI50:
 908              		.cfi_def_cfa_register 7
 359:d:/LiteOS_Lab/iot_link/os/liteos/cmsis/2.0\cmsis_liteos2.c ****     return OS_SYS_CLOCK;
 909              		.loc 1 359 12
 910 0004 034B     		ldr	r3, .L80
 911 0006 1B68     		ldr	r3, [r3]
 360:d:/LiteOS_Lab/iot_link/os/liteos/cmsis/2.0\cmsis_liteos2.c **** }
 912              		.loc 1 360 1
 913 0008 1846     		mov	r0, r3
ARM GAS  C:\Users\ADMINI~1\AppData\Local\Temp\ccvQoyy7.s 			page 23


 914 000a BD46     		mov	sp, r7
 915              	.LCFI51:
 916              		.cfi_def_cfa_register 13
 917              		@ sp needed
 918 000c 5DF8047B 		ldr	r7, [sp], #4
 919              	.LCFI52:
 920              		.cfi_restore 7
 921              		.cfi_def_cfa_offset 0
 922 0010 7047     		bx	lr
 923              	.L81:
 924 0012 00BF     		.align	2
 925              	.L80:
 926 0014 00000000 		.word	SystemCoreClock
 927              		.cfi_endproc
 928              	.LFE301:
 930              		.section	.text.osThreadNew,"ax",%progbits
 931              		.align	1
 932              		.global	osThreadNew
 933              		.syntax unified
 934              		.thumb
 935              		.thumb_func
 936              		.fpu fpv4-sp-d16
 938              	osThreadNew:
 939              	.LFB302:
 361:d:/LiteOS_Lab/iot_link/os/liteos/cmsis/2.0\cmsis_liteos2.c **** 
 362:d:/LiteOS_Lab/iot_link/os/liteos/cmsis/2.0\cmsis_liteos2.c **** 
 363:d:/LiteOS_Lab/iot_link/os/liteos/cmsis/2.0\cmsis_liteos2.c **** //  ==== Thread Management Functions ====
 364:d:/LiteOS_Lab/iot_link/os/liteos/cmsis/2.0\cmsis_liteos2.c **** 
 365:d:/LiteOS_Lab/iot_link/os/liteos/cmsis/2.0\cmsis_liteos2.c **** #if (LOSCFG_STATIC_TASK == NO)
 366:d:/LiteOS_Lab/iot_link/os/liteos/cmsis/2.0\cmsis_liteos2.c **** osThreadId_t osThreadNew (osThreadFunc_t func, void *argument, const osThreadAttr_t *attr)
 367:d:/LiteOS_Lab/iot_link/os/liteos/cmsis/2.0\cmsis_liteos2.c **** {
 940              		.loc 1 367 1
 941              		.cfi_startproc
 942              		@ args = 0, pretend = 0, frame = 56
 943              		@ frame_needed = 1, uses_anonymous_args = 0
 944 0000 80B5     		push	{r7, lr}
 945              	.LCFI53:
 946              		.cfi_def_cfa_offset 8
 947              		.cfi_offset 7, -8
 948              		.cfi_offset 14, -4
 949 0002 8EB0     		sub	sp, sp, #56
 950              	.LCFI54:
 951              		.cfi_def_cfa_offset 64
 952 0004 00AF     		add	r7, sp, #0
 953              	.LCFI55:
 954              		.cfi_def_cfa_register 7
 955 0006 F860     		str	r0, [r7, #12]
 956 0008 B960     		str	r1, [r7, #8]
 957 000a 7A60     		str	r2, [r7, #4]
 368:d:/LiteOS_Lab/iot_link/os/liteos/cmsis/2.0\cmsis_liteos2.c ****     UNUSED(argument);
 369:d:/LiteOS_Lab/iot_link/os/liteos/cmsis/2.0\cmsis_liteos2.c **** 
 370:d:/LiteOS_Lab/iot_link/os/liteos/cmsis/2.0\cmsis_liteos2.c ****     UINT32 uwTid;
 371:d:/LiteOS_Lab/iot_link/os/liteos/cmsis/2.0\cmsis_liteos2.c ****     UINT32 uwRet;
 372:d:/LiteOS_Lab/iot_link/os/liteos/cmsis/2.0\cmsis_liteos2.c ****     LOS_TASK_CB *pstTaskCB = NULL;
 958              		.loc 1 372 18
 959 000c 0023     		movs	r3, #0
 960 000e 7B63     		str	r3, [r7, #52]
ARM GAS  C:\Users\ADMINI~1\AppData\Local\Temp\ccvQoyy7.s 			page 24


 373:d:/LiteOS_Lab/iot_link/os/liteos/cmsis/2.0\cmsis_liteos2.c ****     TSK_INIT_PARAM_S stTskInitParam;
 374:d:/LiteOS_Lab/iot_link/os/liteos/cmsis/2.0\cmsis_liteos2.c **** 
 375:d:/LiteOS_Lab/iot_link/os/liteos/cmsis/2.0\cmsis_liteos2.c ****     if (OS_INT_ACTIVE)
 961              		.loc 1 375 9
 962 0010 FFF7FEFF 		bl	osIntNumGet
 963 0014 0346     		mov	r3, r0
 964              		.loc 1 375 8
 965 0016 002B     		cmp	r3, #0
 966 0018 01D0     		beq	.L83
 376:d:/LiteOS_Lab/iot_link/os/liteos/cmsis/2.0\cmsis_liteos2.c ****     {
 377:d:/LiteOS_Lab/iot_link/os/liteos/cmsis/2.0\cmsis_liteos2.c ****         return NULL;
 967              		.loc 1 377 16
 968 001a 0023     		movs	r3, #0
 969 001c 3DE0     		b	.L88
 970              	.L83:
 378:d:/LiteOS_Lab/iot_link/os/liteos/cmsis/2.0\cmsis_liteos2.c ****     }
 379:d:/LiteOS_Lab/iot_link/os/liteos/cmsis/2.0\cmsis_liteos2.c **** 
 380:d:/LiteOS_Lab/iot_link/os/liteos/cmsis/2.0\cmsis_liteos2.c ****     if ((attr == NULL) ||
 971              		.loc 1 380 8
 972 001e 7B68     		ldr	r3, [r7, #4]
 973 0020 002B     		cmp	r3, #0
 974 0022 0AD0     		beq	.L85
 975              		.loc 1 380 24 discriminator 1
 976 0024 FB68     		ldr	r3, [r7, #12]
 977 0026 002B     		cmp	r3, #0
 978 0028 07D0     		beq	.L85
 381:d:/LiteOS_Lab/iot_link/os/liteos/cmsis/2.0\cmsis_liteos2.c ****             (func == NULL) ||
 382:d:/LiteOS_Lab/iot_link/os/liteos/cmsis/2.0\cmsis_liteos2.c ****             (attr->priority < osPriorityLow1) ||
 979              		.loc 1 382 18
 980 002a 7B68     		ldr	r3, [r7, #4]
 981 002c 9B69     		ldr	r3, [r3, #24]
 381:d:/LiteOS_Lab/iot_link/os/liteos/cmsis/2.0\cmsis_liteos2.c ****             (func == NULL) ||
 982              		.loc 1 381 28
 983 002e 082B     		cmp	r3, #8
 984 0030 03DD     		ble	.L85
 383:d:/LiteOS_Lab/iot_link/os/liteos/cmsis/2.0\cmsis_liteos2.c ****             (attr->priority > osPriorityAboveNormal6))
 985              		.loc 1 383 18
 986 0032 7B68     		ldr	r3, [r7, #4]
 987 0034 9B69     		ldr	r3, [r3, #24]
 382:d:/LiteOS_Lab/iot_link/os/liteos/cmsis/2.0\cmsis_liteos2.c ****             (attr->priority > osPriorityAboveNormal6))
 988              		.loc 1 382 47
 989 0036 262B     		cmp	r3, #38
 990 0038 01DD     		ble	.L86
 991              	.L85:
 384:d:/LiteOS_Lab/iot_link/os/liteos/cmsis/2.0\cmsis_liteos2.c ****     {
 385:d:/LiteOS_Lab/iot_link/os/liteos/cmsis/2.0\cmsis_liteos2.c ****         return (osThreadId_t)NULL;
 992              		.loc 1 385 16
 993 003a 0023     		movs	r3, #0
 994 003c 2DE0     		b	.L88
 995              	.L86:
 386:d:/LiteOS_Lab/iot_link/os/liteos/cmsis/2.0\cmsis_liteos2.c ****     }
 387:d:/LiteOS_Lab/iot_link/os/liteos/cmsis/2.0\cmsis_liteos2.c **** 
 388:d:/LiteOS_Lab/iot_link/os/liteos/cmsis/2.0\cmsis_liteos2.c ****     memset(&stTskInitParam, 0, sizeof(TSK_INIT_PARAM_S));
 996              		.loc 1 388 5
 997 003e 07F11403 		add	r3, r7, #20
 998 0042 1822     		movs	r2, #24
 999 0044 0021     		movs	r1, #0
ARM GAS  C:\Users\ADMINI~1\AppData\Local\Temp\ccvQoyy7.s 			page 25


 1000 0046 1846     		mov	r0, r3
 1001 0048 FFF7FEFF 		bl	memset
 389:d:/LiteOS_Lab/iot_link/os/liteos/cmsis/2.0\cmsis_liteos2.c ****     stTskInitParam.pfnTaskEntry = (TSK_ENTRY_FUNC)func;
 1002              		.loc 1 389 33
 1003 004c FB68     		ldr	r3, [r7, #12]
 1004 004e 7B61     		str	r3, [r7, #20]
 390:d:/LiteOS_Lab/iot_link/os/liteos/cmsis/2.0\cmsis_liteos2.c ****     stTskInitParam.uwStackSize  = attr->stack_size * 4;
 1005              		.loc 1 390 39
 1006 0050 7B68     		ldr	r3, [r7, #4]
 1007 0052 5B69     		ldr	r3, [r3, #20]
 1008              		.loc 1 390 52
 1009 0054 9B00     		lsls	r3, r3, #2
 1010              		.loc 1 390 33
 1011 0056 3B62     		str	r3, [r7, #32]
 391:d:/LiteOS_Lab/iot_link/os/liteos/cmsis/2.0\cmsis_liteos2.c ****     stTskInitParam.pcName       = (CHAR *)attr->name;
 1012              		.loc 1 391 47
 1013 0058 7B68     		ldr	r3, [r7, #4]
 1014 005a 1B68     		ldr	r3, [r3]
 1015              		.loc 1 391 33
 1016 005c 7B62     		str	r3, [r7, #36]
 392:d:/LiteOS_Lab/iot_link/os/liteos/cmsis/2.0\cmsis_liteos2.c ****     stTskInitParam.usTaskPrio   = OS_TASK_PRIORITY_LOWEST - ((UINT16)(attr->priority) - LOS_PRIORIT
 1017              		.loc 1 392 75
 1018 005e 7B68     		ldr	r3, [r7, #4]
 1019 0060 9B69     		ldr	r3, [r3, #24]
 1020              		.loc 1 392 62
 1021 0062 9BB2     		uxth	r3, r3
 1022              		.loc 1 392 59
 1023 0064 C3F12703 		rsb	r3, r3, #39
 1024 0068 9BB2     		uxth	r3, r3
 1025              		.loc 1 392 33
 1026 006a 3B83     		strh	r3, [r7, #24]	@ movhi
 393:d:/LiteOS_Lab/iot_link/os/liteos/cmsis/2.0\cmsis_liteos2.c **** 
 394:d:/LiteOS_Lab/iot_link/os/liteos/cmsis/2.0\cmsis_liteos2.c ****     uwRet = LOS_TaskCreate(&uwTid, &stTskInitParam);
 1027              		.loc 1 394 13
 1028 006c 07F11402 		add	r2, r7, #20
 1029 0070 07F12C03 		add	r3, r7, #44
 1030 0074 1146     		mov	r1, r2
 1031 0076 1846     		mov	r0, r3
 1032 0078 FFF7FEFF 		bl	LOS_TaskCreate
 1033 007c 3863     		str	r0, [r7, #48]
 395:d:/LiteOS_Lab/iot_link/os/liteos/cmsis/2.0\cmsis_liteos2.c **** 
 396:d:/LiteOS_Lab/iot_link/os/liteos/cmsis/2.0\cmsis_liteos2.c ****     if (LOS_OK != uwRet)
 1034              		.loc 1 396 8
 1035 007e 3B6B     		ldr	r3, [r7, #48]
 1036 0080 002B     		cmp	r3, #0
 1037 0082 01D0     		beq	.L87
 397:d:/LiteOS_Lab/iot_link/os/liteos/cmsis/2.0\cmsis_liteos2.c ****     {
 398:d:/LiteOS_Lab/iot_link/os/liteos/cmsis/2.0\cmsis_liteos2.c ****         return (osThreadId_t)NULL;
 1038              		.loc 1 398 16
 1039 0084 0023     		movs	r3, #0
 1040 0086 08E0     		b	.L88
 1041              	.L87:
 399:d:/LiteOS_Lab/iot_link/os/liteos/cmsis/2.0\cmsis_liteos2.c ****     }
 400:d:/LiteOS_Lab/iot_link/os/liteos/cmsis/2.0\cmsis_liteos2.c **** 
 401:d:/LiteOS_Lab/iot_link/os/liteos/cmsis/2.0\cmsis_liteos2.c ****     pstTaskCB = OS_TCB_FROM_TID(uwTid);
 1042              		.loc 1 401 17
 1043 0088 064B     		ldr	r3, .L89
ARM GAS  C:\Users\ADMINI~1\AppData\Local\Temp\ccvQoyy7.s 			page 26


 1044 008a 1A68     		ldr	r2, [r3]
 1045 008c FB6A     		ldr	r3, [r7, #44]
 1046 008e 5421     		movs	r1, #84
 1047 0090 01FB03F3 		mul	r3, r1, r3
 1048              		.loc 1 401 15
 1049 0094 1344     		add	r3, r3, r2
 1050 0096 7B63     		str	r3, [r7, #52]
 402:d:/LiteOS_Lab/iot_link/os/liteos/cmsis/2.0\cmsis_liteos2.c **** 
 403:d:/LiteOS_Lab/iot_link/os/liteos/cmsis/2.0\cmsis_liteos2.c ****     return (osThreadId_t)pstTaskCB;
 1051              		.loc 1 403 12
 1052 0098 7B6B     		ldr	r3, [r7, #52]
 1053              	.L88:
 404:d:/LiteOS_Lab/iot_link/os/liteos/cmsis/2.0\cmsis_liteos2.c **** }
 1054              		.loc 1 404 1 discriminator 1
 1055 009a 1846     		mov	r0, r3
 1056 009c 3837     		adds	r7, r7, #56
 1057              	.LCFI56:
 1058              		.cfi_def_cfa_offset 8
 1059 009e BD46     		mov	sp, r7
 1060              	.LCFI57:
 1061              		.cfi_def_cfa_register 13
 1062              		@ sp needed
 1063 00a0 80BD     		pop	{r7, pc}
 1064              	.L90:
 1065 00a2 00BF     		.align	2
 1066              	.L89:
 1067 00a4 00000000 		.word	g_pstTaskCBArray
 1068              		.cfi_endproc
 1069              	.LFE302:
 1071              		.section	.text.osThreadGetName,"ax",%progbits
 1072              		.align	1
 1073              		.global	osThreadGetName
 1074              		.syntax unified
 1075              		.thumb
 1076              		.thumb_func
 1077              		.fpu fpv4-sp-d16
 1079              	osThreadGetName:
 1080              	.LFB303:
 405:d:/LiteOS_Lab/iot_link/os/liteos/cmsis/2.0\cmsis_liteos2.c **** #endif
 406:d:/LiteOS_Lab/iot_link/os/liteos/cmsis/2.0\cmsis_liteos2.c **** 
 407:d:/LiteOS_Lab/iot_link/os/liteos/cmsis/2.0\cmsis_liteos2.c **** 
 408:d:/LiteOS_Lab/iot_link/os/liteos/cmsis/2.0\cmsis_liteos2.c **** const char *osThreadGetName (osThreadId_t thread_id)
 409:d:/LiteOS_Lab/iot_link/os/liteos/cmsis/2.0\cmsis_liteos2.c **** {
 1081              		.loc 1 409 1
 1082              		.cfi_startproc
 1083              		@ args = 0, pretend = 0, frame = 16
 1084              		@ frame_needed = 1, uses_anonymous_args = 0
 1085 0000 80B5     		push	{r7, lr}
 1086              	.LCFI58:
 1087              		.cfi_def_cfa_offset 8
 1088              		.cfi_offset 7, -8
 1089              		.cfi_offset 14, -4
 1090 0002 84B0     		sub	sp, sp, #16
 1091              	.LCFI59:
 1092              		.cfi_def_cfa_offset 24
 1093 0004 00AF     		add	r7, sp, #0
 1094              	.LCFI60:
ARM GAS  C:\Users\ADMINI~1\AppData\Local\Temp\ccvQoyy7.s 			page 27


 1095              		.cfi_def_cfa_register 7
 1096 0006 7860     		str	r0, [r7, #4]
 410:d:/LiteOS_Lab/iot_link/os/liteos/cmsis/2.0\cmsis_liteos2.c ****     LOS_TASK_CB *pstTaskCB = NULL;
 1097              		.loc 1 410 18
 1098 0008 0023     		movs	r3, #0
 1099 000a FB60     		str	r3, [r7, #12]
 411:d:/LiteOS_Lab/iot_link/os/liteos/cmsis/2.0\cmsis_liteos2.c **** 
 412:d:/LiteOS_Lab/iot_link/os/liteos/cmsis/2.0\cmsis_liteos2.c ****     if (OS_INT_ACTIVE || thread_id == NULL)
 1100              		.loc 1 412 9
 1101 000c FFF7FEFF 		bl	osIntNumGet
 1102 0010 0346     		mov	r3, r0
 1103              		.loc 1 412 8
 1104 0012 002B     		cmp	r3, #0
 1105 0014 02D1     		bne	.L92
 1106              		.loc 1 412 23 discriminator 1
 1107 0016 7B68     		ldr	r3, [r7, #4]
 1108 0018 002B     		cmp	r3, #0
 1109 001a 01D1     		bne	.L93
 1110              	.L92:
 413:d:/LiteOS_Lab/iot_link/os/liteos/cmsis/2.0\cmsis_liteos2.c ****     {
 414:d:/LiteOS_Lab/iot_link/os/liteos/cmsis/2.0\cmsis_liteos2.c ****         return NULL;
 1111              		.loc 1 414 16
 1112 001c 0023     		movs	r3, #0
 1113 001e 03E0     		b	.L94
 1114              	.L93:
 415:d:/LiteOS_Lab/iot_link/os/liteos/cmsis/2.0\cmsis_liteos2.c ****     }
 416:d:/LiteOS_Lab/iot_link/os/liteos/cmsis/2.0\cmsis_liteos2.c **** 
 417:d:/LiteOS_Lab/iot_link/os/liteos/cmsis/2.0\cmsis_liteos2.c ****     pstTaskCB = (LOS_TASK_CB *)thread_id;
 1115              		.loc 1 417 15
 1116 0020 7B68     		ldr	r3, [r7, #4]
 1117 0022 FB60     		str	r3, [r7, #12]
 418:d:/LiteOS_Lab/iot_link/os/liteos/cmsis/2.0\cmsis_liteos2.c **** 
 419:d:/LiteOS_Lab/iot_link/os/liteos/cmsis/2.0\cmsis_liteos2.c ****     return pstTaskCB->pcTaskName;
 1118              		.loc 1 419 21
 1119 0024 FB68     		ldr	r3, [r7, #12]
 1120 0026 5B6A     		ldr	r3, [r3, #36]
 1121              	.L94:
 420:d:/LiteOS_Lab/iot_link/os/liteos/cmsis/2.0\cmsis_liteos2.c **** }
 1122              		.loc 1 420 1
 1123 0028 1846     		mov	r0, r3
 1124 002a 1037     		adds	r7, r7, #16
 1125              	.LCFI61:
 1126              		.cfi_def_cfa_offset 8
 1127 002c BD46     		mov	sp, r7
 1128              	.LCFI62:
 1129              		.cfi_def_cfa_register 13
 1130              		@ sp needed
 1131 002e 80BD     		pop	{r7, pc}
 1132              		.cfi_endproc
 1133              	.LFE303:
 1135              		.section	.text.osThreadGetId,"ax",%progbits
 1136              		.align	1
 1137              		.global	osThreadGetId
 1138              		.syntax unified
 1139              		.thumb
 1140              		.thumb_func
 1141              		.fpu fpv4-sp-d16
ARM GAS  C:\Users\ADMINI~1\AppData\Local\Temp\ccvQoyy7.s 			page 28


 1143              	osThreadGetId:
 1144              	.LFB304:
 421:d:/LiteOS_Lab/iot_link/os/liteos/cmsis/2.0\cmsis_liteos2.c **** 
 422:d:/LiteOS_Lab/iot_link/os/liteos/cmsis/2.0\cmsis_liteos2.c **** 
 423:d:/LiteOS_Lab/iot_link/os/liteos/cmsis/2.0\cmsis_liteos2.c **** osThreadId_t osThreadGetId (void)
 424:d:/LiteOS_Lab/iot_link/os/liteos/cmsis/2.0\cmsis_liteos2.c **** {
 1145              		.loc 1 424 1
 1146              		.cfi_startproc
 1147              		@ args = 0, pretend = 0, frame = 0
 1148              		@ frame_needed = 1, uses_anonymous_args = 0
 1149 0000 80B5     		push	{r7, lr}
 1150              	.LCFI63:
 1151              		.cfi_def_cfa_offset 8
 1152              		.cfi_offset 7, -8
 1153              		.cfi_offset 14, -4
 1154 0002 00AF     		add	r7, sp, #0
 1155              	.LCFI64:
 1156              		.cfi_def_cfa_register 7
 425:d:/LiteOS_Lab/iot_link/os/liteos/cmsis/2.0\cmsis_liteos2.c ****     if (OS_INT_ACTIVE)
 1157              		.loc 1 425 9
 1158 0004 FFF7FEFF 		bl	osIntNumGet
 1159 0008 0346     		mov	r3, r0
 1160              		.loc 1 425 8
 1161 000a 002B     		cmp	r3, #0
 1162 000c 01D0     		beq	.L96
 426:d:/LiteOS_Lab/iot_link/os/liteos/cmsis/2.0\cmsis_liteos2.c ****     {
 427:d:/LiteOS_Lab/iot_link/os/liteos/cmsis/2.0\cmsis_liteos2.c ****         return NULL;
 1163              		.loc 1 427 16
 1164 000e 0023     		movs	r3, #0
 1165 0010 01E0     		b	.L97
 1166              	.L96:
 428:d:/LiteOS_Lab/iot_link/os/liteos/cmsis/2.0\cmsis_liteos2.c ****     }
 429:d:/LiteOS_Lab/iot_link/os/liteos/cmsis/2.0\cmsis_liteos2.c **** 
 430:d:/LiteOS_Lab/iot_link/os/liteos/cmsis/2.0\cmsis_liteos2.c ****     return (osThreadId_t)(g_stLosTask.pstRunTask);
 1167              		.loc 1 430 12
 1168 0012 024B     		ldr	r3, .L98
 1169 0014 1B68     		ldr	r3, [r3]
 1170              	.L97:
 431:d:/LiteOS_Lab/iot_link/os/liteos/cmsis/2.0\cmsis_liteos2.c **** }
 1171              		.loc 1 431 1
 1172 0016 1846     		mov	r0, r3
 1173 0018 80BD     		pop	{r7, pc}
 1174              	.L99:
 1175 001a 00BF     		.align	2
 1176              	.L98:
 1177 001c 00000000 		.word	g_stLosTask
 1178              		.cfi_endproc
 1179              	.LFE304:
 1181              		.section	.text.osThreadGetState,"ax",%progbits
 1182              		.align	1
 1183              		.global	osThreadGetState
 1184              		.syntax unified
 1185              		.thumb
 1186              		.thumb_func
 1187              		.fpu fpv4-sp-d16
 1189              	osThreadGetState:
 1190              	.LFB305:
ARM GAS  C:\Users\ADMINI~1\AppData\Local\Temp\ccvQoyy7.s 			page 29


 432:d:/LiteOS_Lab/iot_link/os/liteos/cmsis/2.0\cmsis_liteos2.c **** 
 433:d:/LiteOS_Lab/iot_link/os/liteos/cmsis/2.0\cmsis_liteos2.c **** 
 434:d:/LiteOS_Lab/iot_link/os/liteos/cmsis/2.0\cmsis_liteos2.c **** osThreadState_t osThreadGetState (osThreadId_t thread_id)
 435:d:/LiteOS_Lab/iot_link/os/liteos/cmsis/2.0\cmsis_liteos2.c **** {
 1191              		.loc 1 435 1
 1192              		.cfi_startproc
 1193              		@ args = 0, pretend = 0, frame = 24
 1194              		@ frame_needed = 1, uses_anonymous_args = 0
 1195 0000 80B5     		push	{r7, lr}
 1196              	.LCFI65:
 1197              		.cfi_def_cfa_offset 8
 1198              		.cfi_offset 7, -8
 1199              		.cfi_offset 14, -4
 1200 0002 86B0     		sub	sp, sp, #24
 1201              	.LCFI66:
 1202              		.cfi_def_cfa_offset 32
 1203 0004 00AF     		add	r7, sp, #0
 1204              	.LCFI67:
 1205              		.cfi_def_cfa_register 7
 1206 0006 7860     		str	r0, [r7, #4]
 436:d:/LiteOS_Lab/iot_link/os/liteos/cmsis/2.0\cmsis_liteos2.c ****     UINT16 usTaskStatus;
 437:d:/LiteOS_Lab/iot_link/os/liteos/cmsis/2.0\cmsis_liteos2.c ****     osThreadState_t stState;
 438:d:/LiteOS_Lab/iot_link/os/liteos/cmsis/2.0\cmsis_liteos2.c ****     LOS_TASK_CB *pstTaskCB = NULL;
 1207              		.loc 1 438 18
 1208 0008 0023     		movs	r3, #0
 1209 000a 3B61     		str	r3, [r7, #16]
 439:d:/LiteOS_Lab/iot_link/os/liteos/cmsis/2.0\cmsis_liteos2.c **** 
 440:d:/LiteOS_Lab/iot_link/os/liteos/cmsis/2.0\cmsis_liteos2.c ****     if (OS_INT_ACTIVE || thread_id == NULL)
 1210              		.loc 1 440 9
 1211 000c FFF7FEFF 		bl	osIntNumGet
 1212 0010 0346     		mov	r3, r0
 1213              		.loc 1 440 8
 1214 0012 002B     		cmp	r3, #0
 1215 0014 02D1     		bne	.L101
 1216              		.loc 1 440 23 discriminator 1
 1217 0016 7B68     		ldr	r3, [r7, #4]
 1218 0018 002B     		cmp	r3, #0
 1219 001a 02D1     		bne	.L102
 1220              	.L101:
 441:d:/LiteOS_Lab/iot_link/os/liteos/cmsis/2.0\cmsis_liteos2.c ****     {
 442:d:/LiteOS_Lab/iot_link/os/liteos/cmsis/2.0\cmsis_liteos2.c ****         return osThreadError;
 1221              		.loc 1 442 16
 1222 001c 4FF0FF33 		mov	r3, #-1
 1223 0020 29E0     		b	.L103
 1224              	.L102:
 443:d:/LiteOS_Lab/iot_link/os/liteos/cmsis/2.0\cmsis_liteos2.c ****     }
 444:d:/LiteOS_Lab/iot_link/os/liteos/cmsis/2.0\cmsis_liteos2.c **** 
 445:d:/LiteOS_Lab/iot_link/os/liteos/cmsis/2.0\cmsis_liteos2.c ****     pstTaskCB = (LOS_TASK_CB *)thread_id;
 1225              		.loc 1 445 15
 1226 0022 7B68     		ldr	r3, [r7, #4]
 1227 0024 3B61     		str	r3, [r7, #16]
 446:d:/LiteOS_Lab/iot_link/os/liteos/cmsis/2.0\cmsis_liteos2.c ****     usTaskStatus = pstTaskCB->usTaskStatus;
 1228              		.loc 1 446 18
 1229 0026 3B69     		ldr	r3, [r7, #16]
 1230 0028 9B88     		ldrh	r3, [r3, #4]	@ movhi
 1231 002a FB81     		strh	r3, [r7, #14]	@ movhi
 447:d:/LiteOS_Lab/iot_link/os/liteos/cmsis/2.0\cmsis_liteos2.c **** 
ARM GAS  C:\Users\ADMINI~1\AppData\Local\Temp\ccvQoyy7.s 			page 30


 448:d:/LiteOS_Lab/iot_link/os/liteos/cmsis/2.0\cmsis_liteos2.c ****     if (usTaskStatus & OS_TASK_STATUS_RUNNING)
 1232              		.loc 1 448 22
 1233 002c FB89     		ldrh	r3, [r7, #14]
 1234 002e 03F01003 		and	r3, r3, #16
 1235              		.loc 1 448 8
 1236 0032 002B     		cmp	r3, #0
 1237 0034 02D0     		beq	.L104
 449:d:/LiteOS_Lab/iot_link/os/liteos/cmsis/2.0\cmsis_liteos2.c ****     {
 450:d:/LiteOS_Lab/iot_link/os/liteos/cmsis/2.0\cmsis_liteos2.c ****         stState = osThreadRunning;
 1238              		.loc 1 450 17
 1239 0036 0223     		movs	r3, #2
 1240 0038 7B61     		str	r3, [r7, #20]
 1241 003a 1BE0     		b	.L105
 1242              	.L104:
 451:d:/LiteOS_Lab/iot_link/os/liteos/cmsis/2.0\cmsis_liteos2.c ****     }
 452:d:/LiteOS_Lab/iot_link/os/liteos/cmsis/2.0\cmsis_liteos2.c ****     else if (usTaskStatus & OS_TASK_STATUS_READY)
 1243              		.loc 1 452 27
 1244 003c FB89     		ldrh	r3, [r7, #14]
 1245 003e 03F00403 		and	r3, r3, #4
 1246              		.loc 1 452 13
 1247 0042 002B     		cmp	r3, #0
 1248 0044 02D0     		beq	.L106
 453:d:/LiteOS_Lab/iot_link/os/liteos/cmsis/2.0\cmsis_liteos2.c ****     {
 454:d:/LiteOS_Lab/iot_link/os/liteos/cmsis/2.0\cmsis_liteos2.c ****         stState = osThreadReady;
 1249              		.loc 1 454 17
 1250 0046 0123     		movs	r3, #1
 1251 0048 7B61     		str	r3, [r7, #20]
 1252 004a 13E0     		b	.L105
 1253              	.L106:
 455:d:/LiteOS_Lab/iot_link/os/liteos/cmsis/2.0\cmsis_liteos2.c ****     }
 456:d:/LiteOS_Lab/iot_link/os/liteos/cmsis/2.0\cmsis_liteos2.c ****     else if (usTaskStatus &
 1254              		.loc 1 456 27
 1255 004c FA89     		ldrh	r2, [r7, #14]
 1256 004e 42F22A03 		movw	r3, #8234
 1257 0052 1340     		ands	r3, r3, r2
 1258              		.loc 1 456 13
 1259 0054 002B     		cmp	r3, #0
 1260 0056 02D0     		beq	.L107
 457:d:/LiteOS_Lab/iot_link/os/liteos/cmsis/2.0\cmsis_liteos2.c ****              (OS_TASK_STATUS_DELAY | OS_TASK_STATUS_PEND |
 458:d:/LiteOS_Lab/iot_link/os/liteos/cmsis/2.0\cmsis_liteos2.c ****               OS_TASK_STATUS_SUSPEND | OS_TASK_STATUS_PEND_QUEUE))
 459:d:/LiteOS_Lab/iot_link/os/liteos/cmsis/2.0\cmsis_liteos2.c ****     {
 460:d:/LiteOS_Lab/iot_link/os/liteos/cmsis/2.0\cmsis_liteos2.c ****         stState = osThreadBlocked;
 1261              		.loc 1 460 17
 1262 0058 0323     		movs	r3, #3
 1263 005a 7B61     		str	r3, [r7, #20]
 1264 005c 0AE0     		b	.L105
 1265              	.L107:
 461:d:/LiteOS_Lab/iot_link/os/liteos/cmsis/2.0\cmsis_liteos2.c ****     }
 462:d:/LiteOS_Lab/iot_link/os/liteos/cmsis/2.0\cmsis_liteos2.c ****     else if (usTaskStatus & OS_TASK_STATUS_UNUSED)
 1266              		.loc 1 462 27
 1267 005e FB89     		ldrh	r3, [r7, #14]
 1268 0060 03F00103 		and	r3, r3, #1
 1269              		.loc 1 462 13
 1270 0064 002B     		cmp	r3, #0
 1271 0066 02D0     		beq	.L108
 463:d:/LiteOS_Lab/iot_link/os/liteos/cmsis/2.0\cmsis_liteos2.c ****     {
 464:d:/LiteOS_Lab/iot_link/os/liteos/cmsis/2.0\cmsis_liteos2.c ****         stState = osThreadInactive;
ARM GAS  C:\Users\ADMINI~1\AppData\Local\Temp\ccvQoyy7.s 			page 31


 1272              		.loc 1 464 17
 1273 0068 0023     		movs	r3, #0
 1274 006a 7B61     		str	r3, [r7, #20]
 1275 006c 02E0     		b	.L105
 1276              	.L108:
 465:d:/LiteOS_Lab/iot_link/os/liteos/cmsis/2.0\cmsis_liteos2.c ****     }
 466:d:/LiteOS_Lab/iot_link/os/liteos/cmsis/2.0\cmsis_liteos2.c ****     else
 467:d:/LiteOS_Lab/iot_link/os/liteos/cmsis/2.0\cmsis_liteos2.c ****     {
 468:d:/LiteOS_Lab/iot_link/os/liteos/cmsis/2.0\cmsis_liteos2.c ****         stState = osThreadError;
 1277              		.loc 1 468 17
 1278 006e 4FF0FF33 		mov	r3, #-1
 1279 0072 7B61     		str	r3, [r7, #20]
 1280              	.L105:
 469:d:/LiteOS_Lab/iot_link/os/liteos/cmsis/2.0\cmsis_liteos2.c ****     }
 470:d:/LiteOS_Lab/iot_link/os/liteos/cmsis/2.0\cmsis_liteos2.c **** 
 471:d:/LiteOS_Lab/iot_link/os/liteos/cmsis/2.0\cmsis_liteos2.c ****     return stState;
 1281              		.loc 1 471 12
 1282 0074 7B69     		ldr	r3, [r7, #20]
 1283              	.L103:
 472:d:/LiteOS_Lab/iot_link/os/liteos/cmsis/2.0\cmsis_liteos2.c **** }
 1284              		.loc 1 472 1
 1285 0076 1846     		mov	r0, r3
 1286 0078 1837     		adds	r7, r7, #24
 1287              	.LCFI68:
 1288              		.cfi_def_cfa_offset 8
 1289 007a BD46     		mov	sp, r7
 1290              	.LCFI69:
 1291              		.cfi_def_cfa_register 13
 1292              		@ sp needed
 1293 007c 80BD     		pop	{r7, pc}
 1294              		.cfi_endproc
 1295              	.LFE305:
 1297              		.section	.text.osThreadGetStackSize,"ax",%progbits
 1298              		.align	1
 1299              		.global	osThreadGetStackSize
 1300              		.syntax unified
 1301              		.thumb
 1302              		.thumb_func
 1303              		.fpu fpv4-sp-d16
 1305              	osThreadGetStackSize:
 1306              	.LFB306:
 473:d:/LiteOS_Lab/iot_link/os/liteos/cmsis/2.0\cmsis_liteos2.c **** 
 474:d:/LiteOS_Lab/iot_link/os/liteos/cmsis/2.0\cmsis_liteos2.c **** 
 475:d:/LiteOS_Lab/iot_link/os/liteos/cmsis/2.0\cmsis_liteos2.c **** uint32_t osThreadGetStackSize (osThreadId_t thread_id)
 476:d:/LiteOS_Lab/iot_link/os/liteos/cmsis/2.0\cmsis_liteos2.c **** {
 1307              		.loc 1 476 1
 1308              		.cfi_startproc
 1309              		@ args = 0, pretend = 0, frame = 16
 1310              		@ frame_needed = 1, uses_anonymous_args = 0
 1311 0000 80B5     		push	{r7, lr}
 1312              	.LCFI70:
 1313              		.cfi_def_cfa_offset 8
 1314              		.cfi_offset 7, -8
 1315              		.cfi_offset 14, -4
 1316 0002 84B0     		sub	sp, sp, #16
 1317              	.LCFI71:
 1318              		.cfi_def_cfa_offset 24
ARM GAS  C:\Users\ADMINI~1\AppData\Local\Temp\ccvQoyy7.s 			page 32


 1319 0004 00AF     		add	r7, sp, #0
 1320              	.LCFI72:
 1321              		.cfi_def_cfa_register 7
 1322 0006 7860     		str	r0, [r7, #4]
 477:d:/LiteOS_Lab/iot_link/os/liteos/cmsis/2.0\cmsis_liteos2.c ****     LOS_TASK_CB *pstTaskCB = NULL;
 1323              		.loc 1 477 18
 1324 0008 0023     		movs	r3, #0
 1325 000a FB60     		str	r3, [r7, #12]
 478:d:/LiteOS_Lab/iot_link/os/liteos/cmsis/2.0\cmsis_liteos2.c **** 
 479:d:/LiteOS_Lab/iot_link/os/liteos/cmsis/2.0\cmsis_liteos2.c ****     if (OS_INT_ACTIVE || thread_id == NULL)
 1326              		.loc 1 479 9
 1327 000c FFF7FEFF 		bl	osIntNumGet
 1328 0010 0346     		mov	r3, r0
 1329              		.loc 1 479 8
 1330 0012 002B     		cmp	r3, #0
 1331 0014 02D1     		bne	.L110
 1332              		.loc 1 479 23 discriminator 1
 1333 0016 7B68     		ldr	r3, [r7, #4]
 1334 0018 002B     		cmp	r3, #0
 1335 001a 01D1     		bne	.L111
 1336              	.L110:
 480:d:/LiteOS_Lab/iot_link/os/liteos/cmsis/2.0\cmsis_liteos2.c ****     {
 481:d:/LiteOS_Lab/iot_link/os/liteos/cmsis/2.0\cmsis_liteos2.c ****         return 0U;
 1337              		.loc 1 481 16
 1338 001c 0023     		movs	r3, #0
 1339 001e 03E0     		b	.L112
 1340              	.L111:
 482:d:/LiteOS_Lab/iot_link/os/liteos/cmsis/2.0\cmsis_liteos2.c ****     }
 483:d:/LiteOS_Lab/iot_link/os/liteos/cmsis/2.0\cmsis_liteos2.c **** 
 484:d:/LiteOS_Lab/iot_link/os/liteos/cmsis/2.0\cmsis_liteos2.c ****     pstTaskCB = (LOS_TASK_CB *)thread_id;
 1341              		.loc 1 484 15
 1342 0020 7B68     		ldr	r3, [r7, #4]
 1343 0022 FB60     		str	r3, [r7, #12]
 485:d:/LiteOS_Lab/iot_link/os/liteos/cmsis/2.0\cmsis_liteos2.c **** 
 486:d:/LiteOS_Lab/iot_link/os/liteos/cmsis/2.0\cmsis_liteos2.c ****     return pstTaskCB->uwStackSize;
 1344              		.loc 1 486 21
 1345 0024 FB68     		ldr	r3, [r7, #12]
 1346 0026 9B68     		ldr	r3, [r3, #8]
 1347              	.L112:
 487:d:/LiteOS_Lab/iot_link/os/liteos/cmsis/2.0\cmsis_liteos2.c **** }
 1348              		.loc 1 487 1
 1349 0028 1846     		mov	r0, r3
 1350 002a 1037     		adds	r7, r7, #16
 1351              	.LCFI73:
 1352              		.cfi_def_cfa_offset 8
 1353 002c BD46     		mov	sp, r7
 1354              	.LCFI74:
 1355              		.cfi_def_cfa_register 13
 1356              		@ sp needed
 1357 002e 80BD     		pop	{r7, pc}
 1358              		.cfi_endproc
 1359              	.LFE306:
 1361              		.section	.text.osTaskStackWaterMarkGet,"ax",%progbits
 1362              		.align	1
 1363              		.global	osTaskStackWaterMarkGet
 1364              		.syntax unified
 1365              		.thumb
ARM GAS  C:\Users\ADMINI~1\AppData\Local\Temp\ccvQoyy7.s 			page 33


 1366              		.thumb_func
 1367              		.fpu fpv4-sp-d16
 1369              	osTaskStackWaterMarkGet:
 1370              	.LFB307:
 488:d:/LiteOS_Lab/iot_link/os/liteos/cmsis/2.0\cmsis_liteos2.c **** 
 489:d:/LiteOS_Lab/iot_link/os/liteos/cmsis/2.0\cmsis_liteos2.c **** 
 490:d:/LiteOS_Lab/iot_link/os/liteos/cmsis/2.0\cmsis_liteos2.c **** uint32_t osTaskStackWaterMarkGet(UINT32 uwTaskID)
 491:d:/LiteOS_Lab/iot_link/os/liteos/cmsis/2.0\cmsis_liteos2.c **** {
 1371              		.loc 1 491 1
 1372              		.cfi_startproc
 1373              		@ args = 0, pretend = 0, frame = 24
 1374              		@ frame_needed = 1, uses_anonymous_args = 0
 1375 0000 80B5     		push	{r7, lr}
 1376              	.LCFI75:
 1377              		.cfi_def_cfa_offset 8
 1378              		.cfi_offset 7, -8
 1379              		.cfi_offset 14, -4
 1380 0002 86B0     		sub	sp, sp, #24
 1381              	.LCFI76:
 1382              		.cfi_def_cfa_offset 32
 1383 0004 00AF     		add	r7, sp, #0
 1384              	.LCFI77:
 1385              		.cfi_def_cfa_register 7
 1386 0006 7860     		str	r0, [r7, #4]
 492:d:/LiteOS_Lab/iot_link/os/liteos/cmsis/2.0\cmsis_liteos2.c ****     UINT32 uwCount = 0;
 1387              		.loc 1 492 12
 1388 0008 0023     		movs	r3, #0
 1389 000a 7B61     		str	r3, [r7, #20]
 493:d:/LiteOS_Lab/iot_link/os/liteos/cmsis/2.0\cmsis_liteos2.c ****     UINT32 *puwTopOfStack;
 494:d:/LiteOS_Lab/iot_link/os/liteos/cmsis/2.0\cmsis_liteos2.c ****     UINTPTR uvIntSave;
 495:d:/LiteOS_Lab/iot_link/os/liteos/cmsis/2.0\cmsis_liteos2.c ****     LOS_TASK_CB *pstTaskCB = NULL;
 1390              		.loc 1 495 18
 1391 000c 0023     		movs	r3, #0
 1392 000e FB60     		str	r3, [r7, #12]
 496:d:/LiteOS_Lab/iot_link/os/liteos/cmsis/2.0\cmsis_liteos2.c **** 
 497:d:/LiteOS_Lab/iot_link/os/liteos/cmsis/2.0\cmsis_liteos2.c ****     if (uwTaskID > LOSCFG_BASE_CORE_TSK_LIMIT)
 1393              		.loc 1 497 8
 1394 0010 7B68     		ldr	r3, [r7, #4]
 1395 0012 0F2B     		cmp	r3, #15
 1396 0014 01D9     		bls	.L114
 498:d:/LiteOS_Lab/iot_link/os/liteos/cmsis/2.0\cmsis_liteos2.c ****     {
 499:d:/LiteOS_Lab/iot_link/os/liteos/cmsis/2.0\cmsis_liteos2.c ****         return 0;
 1397              		.loc 1 499 16
 1398 0016 0023     		movs	r3, #0
 1399 0018 2DE0     		b	.L115
 1400              	.L114:
 500:d:/LiteOS_Lab/iot_link/os/liteos/cmsis/2.0\cmsis_liteos2.c ****     }
 501:d:/LiteOS_Lab/iot_link/os/liteos/cmsis/2.0\cmsis_liteos2.c **** 
 502:d:/LiteOS_Lab/iot_link/os/liteos/cmsis/2.0\cmsis_liteos2.c ****     uvIntSave = LOS_IntLock();
 1401              		.loc 1 502 17
 1402 001a FFF7FEFF 		bl	LOS_IntLock
 1403 001e B860     		str	r0, [r7, #8]
 503:d:/LiteOS_Lab/iot_link/os/liteos/cmsis/2.0\cmsis_liteos2.c **** 
 504:d:/LiteOS_Lab/iot_link/os/liteos/cmsis/2.0\cmsis_liteos2.c ****     pstTaskCB = OS_TCB_FROM_TID(uwTaskID);
 1404              		.loc 1 504 17
 1405 0020 174B     		ldr	r3, .L119
 1406 0022 1A68     		ldr	r2, [r3]
ARM GAS  C:\Users\ADMINI~1\AppData\Local\Temp\ccvQoyy7.s 			page 34


 1407 0024 7B68     		ldr	r3, [r7, #4]
 1408 0026 5421     		movs	r1, #84
 1409 0028 01FB03F3 		mul	r3, r1, r3
 1410              		.loc 1 504 15
 1411 002c 1344     		add	r3, r3, r2
 1412 002e FB60     		str	r3, [r7, #12]
 505:d:/LiteOS_Lab/iot_link/os/liteos/cmsis/2.0\cmsis_liteos2.c ****     if (OS_TASK_STATUS_UNUSED & (pstTaskCB->usTaskStatus))
 1413              		.loc 1 505 43
 1414 0030 FB68     		ldr	r3, [r7, #12]
 1415 0032 9B88     		ldrh	r3, [r3, #4]
 1416              		.loc 1 505 9
 1417 0034 03F00103 		and	r3, r3, #1
 1418 0038 9BB2     		uxth	r3, r3
 1419              		.loc 1 505 8
 1420 003a 002B     		cmp	r3, #0
 1421 003c 04D0     		beq	.L116
 506:d:/LiteOS_Lab/iot_link/os/liteos/cmsis/2.0\cmsis_liteos2.c ****     {
 507:d:/LiteOS_Lab/iot_link/os/liteos/cmsis/2.0\cmsis_liteos2.c ****         (VOID)LOS_IntRestore(uvIntSave);
 1422              		.loc 1 507 9
 1423 003e B868     		ldr	r0, [r7, #8]
 1424 0040 FFF7FEFF 		bl	LOS_IntRestore
 508:d:/LiteOS_Lab/iot_link/os/liteos/cmsis/2.0\cmsis_liteos2.c ****         return 0;
 1425              		.loc 1 508 16
 1426 0044 0023     		movs	r3, #0
 1427 0046 16E0     		b	.L115
 1428              	.L116:
 509:d:/LiteOS_Lab/iot_link/os/liteos/cmsis/2.0\cmsis_liteos2.c ****     }
 510:d:/LiteOS_Lab/iot_link/os/liteos/cmsis/2.0\cmsis_liteos2.c **** 
 511:d:/LiteOS_Lab/iot_link/os/liteos/cmsis/2.0\cmsis_liteos2.c ****     // first 4 bytes is OS_TASK_MAGIC_WORD, skip
 512:d:/LiteOS_Lab/iot_link/os/liteos/cmsis/2.0\cmsis_liteos2.c ****     puwTopOfStack = (UINT32 *)pstTaskCB->uwTopOfStack + 1;
 1429              		.loc 1 512 40
 1430 0048 FB68     		ldr	r3, [r7, #12]
 1431 004a DB68     		ldr	r3, [r3, #12]
 1432              		.loc 1 512 55
 1433 004c 0433     		adds	r3, r3, #4
 1434              		.loc 1 512 19
 1435 004e 3B61     		str	r3, [r7, #16]
 513:d:/LiteOS_Lab/iot_link/os/liteos/cmsis/2.0\cmsis_liteos2.c **** 
 514:d:/LiteOS_Lab/iot_link/os/liteos/cmsis/2.0\cmsis_liteos2.c ****     while (*puwTopOfStack == (UINT32)OS_TASK_STACK_INIT)
 1436              		.loc 1 514 11
 1437 0050 05E0     		b	.L117
 1438              	.L118:
 515:d:/LiteOS_Lab/iot_link/os/liteos/cmsis/2.0\cmsis_liteos2.c ****     {
 516:d:/LiteOS_Lab/iot_link/os/liteos/cmsis/2.0\cmsis_liteos2.c ****         ++puwTopOfStack;
 1439              		.loc 1 516 9
 1440 0052 3B69     		ldr	r3, [r7, #16]
 1441 0054 0433     		adds	r3, r3, #4
 1442 0056 3B61     		str	r3, [r7, #16]
 517:d:/LiteOS_Lab/iot_link/os/liteos/cmsis/2.0\cmsis_liteos2.c ****         ++uwCount;
 1443              		.loc 1 517 9
 1444 0058 7B69     		ldr	r3, [r7, #20]
 1445 005a 0133     		adds	r3, r3, #1
 1446 005c 7B61     		str	r3, [r7, #20]
 1447              	.L117:
 514:d:/LiteOS_Lab/iot_link/os/liteos/cmsis/2.0\cmsis_liteos2.c ****     {
 1448              		.loc 1 514 12
 1449 005e 3B69     		ldr	r3, [r7, #16]
ARM GAS  C:\Users\ADMINI~1\AppData\Local\Temp\ccvQoyy7.s 			page 35


 1450 0060 1B68     		ldr	r3, [r3]
 514:d:/LiteOS_Lab/iot_link/os/liteos/cmsis/2.0\cmsis_liteos2.c ****     {
 1451              		.loc 1 514 11
 1452 0062 B3F1CA3F 		cmp	r3, #-892679478
 1453 0066 F4D0     		beq	.L118
 518:d:/LiteOS_Lab/iot_link/os/liteos/cmsis/2.0\cmsis_liteos2.c ****     }
 519:d:/LiteOS_Lab/iot_link/os/liteos/cmsis/2.0\cmsis_liteos2.c **** 
 520:d:/LiteOS_Lab/iot_link/os/liteos/cmsis/2.0\cmsis_liteos2.c ****     uwCount *= sizeof(UINT32);
 1454              		.loc 1 520 13
 1455 0068 7B69     		ldr	r3, [r7, #20]
 1456 006a 9B00     		lsls	r3, r3, #2
 1457 006c 7B61     		str	r3, [r7, #20]
 521:d:/LiteOS_Lab/iot_link/os/liteos/cmsis/2.0\cmsis_liteos2.c **** 
 522:d:/LiteOS_Lab/iot_link/os/liteos/cmsis/2.0\cmsis_liteos2.c ****     (VOID)LOS_IntRestore(uvIntSave);
 1458              		.loc 1 522 5
 1459 006e B868     		ldr	r0, [r7, #8]
 1460 0070 FFF7FEFF 		bl	LOS_IntRestore
 523:d:/LiteOS_Lab/iot_link/os/liteos/cmsis/2.0\cmsis_liteos2.c ****     return uwCount;
 1461              		.loc 1 523 12
 1462 0074 7B69     		ldr	r3, [r7, #20]
 1463              	.L115:
 524:d:/LiteOS_Lab/iot_link/os/liteos/cmsis/2.0\cmsis_liteos2.c **** }
 1464              		.loc 1 524 1
 1465 0076 1846     		mov	r0, r3
 1466 0078 1837     		adds	r7, r7, #24
 1467              	.LCFI78:
 1468              		.cfi_def_cfa_offset 8
 1469 007a BD46     		mov	sp, r7
 1470              	.LCFI79:
 1471              		.cfi_def_cfa_register 13
 1472              		@ sp needed
 1473 007c 80BD     		pop	{r7, pc}
 1474              	.L120:
 1475 007e 00BF     		.align	2
 1476              	.L119:
 1477 0080 00000000 		.word	g_pstTaskCBArray
 1478              		.cfi_endproc
 1479              	.LFE307:
 1481              		.section	.text.osThreadGetStackSpace,"ax",%progbits
 1482              		.align	1
 1483              		.global	osThreadGetStackSpace
 1484              		.syntax unified
 1485              		.thumb
 1486              		.thumb_func
 1487              		.fpu fpv4-sp-d16
 1489              	osThreadGetStackSpace:
 1490              	.LFB308:
 525:d:/LiteOS_Lab/iot_link/os/liteos/cmsis/2.0\cmsis_liteos2.c **** 
 526:d:/LiteOS_Lab/iot_link/os/liteos/cmsis/2.0\cmsis_liteos2.c **** 
 527:d:/LiteOS_Lab/iot_link/os/liteos/cmsis/2.0\cmsis_liteos2.c **** uint32_t osThreadGetStackSpace (osThreadId_t thread_id)
 528:d:/LiteOS_Lab/iot_link/os/liteos/cmsis/2.0\cmsis_liteos2.c **** {
 1491              		.loc 1 528 1
 1492              		.cfi_startproc
 1493              		@ args = 0, pretend = 0, frame = 16
 1494              		@ frame_needed = 1, uses_anonymous_args = 0
 1495 0000 80B5     		push	{r7, lr}
 1496              	.LCFI80:
ARM GAS  C:\Users\ADMINI~1\AppData\Local\Temp\ccvQoyy7.s 			page 36


 1497              		.cfi_def_cfa_offset 8
 1498              		.cfi_offset 7, -8
 1499              		.cfi_offset 14, -4
 1500 0002 84B0     		sub	sp, sp, #16
 1501              	.LCFI81:
 1502              		.cfi_def_cfa_offset 24
 1503 0004 00AF     		add	r7, sp, #0
 1504              	.LCFI82:
 1505              		.cfi_def_cfa_register 7
 1506 0006 7860     		str	r0, [r7, #4]
 529:d:/LiteOS_Lab/iot_link/os/liteos/cmsis/2.0\cmsis_liteos2.c ****     LOS_TASK_CB *pstTaskCB = NULL;
 1507              		.loc 1 529 18
 1508 0008 0023     		movs	r3, #0
 1509 000a FB60     		str	r3, [r7, #12]
 530:d:/LiteOS_Lab/iot_link/os/liteos/cmsis/2.0\cmsis_liteos2.c **** 
 531:d:/LiteOS_Lab/iot_link/os/liteos/cmsis/2.0\cmsis_liteos2.c ****     if (OS_INT_ACTIVE || thread_id == NULL)
 1510              		.loc 1 531 9
 1511 000c FFF7FEFF 		bl	osIntNumGet
 1512 0010 0346     		mov	r3, r0
 1513              		.loc 1 531 8
 1514 0012 002B     		cmp	r3, #0
 1515 0014 02D1     		bne	.L122
 1516              		.loc 1 531 23 discriminator 1
 1517 0016 7B68     		ldr	r3, [r7, #4]
 1518 0018 002B     		cmp	r3, #0
 1519 001a 01D1     		bne	.L123
 1520              	.L122:
 532:d:/LiteOS_Lab/iot_link/os/liteos/cmsis/2.0\cmsis_liteos2.c ****     {
 533:d:/LiteOS_Lab/iot_link/os/liteos/cmsis/2.0\cmsis_liteos2.c ****         return 0U;
 1521              		.loc 1 533 16
 1522 001c 0023     		movs	r3, #0
 1523 001e 07E0     		b	.L124
 1524              	.L123:
 534:d:/LiteOS_Lab/iot_link/os/liteos/cmsis/2.0\cmsis_liteos2.c ****     }
 535:d:/LiteOS_Lab/iot_link/os/liteos/cmsis/2.0\cmsis_liteos2.c **** 
 536:d:/LiteOS_Lab/iot_link/os/liteos/cmsis/2.0\cmsis_liteos2.c ****     pstTaskCB = (LOS_TASK_CB *)thread_id;
 1525              		.loc 1 536 15
 1526 0020 7B68     		ldr	r3, [r7, #4]
 1527 0022 FB60     		str	r3, [r7, #12]
 537:d:/LiteOS_Lab/iot_link/os/liteos/cmsis/2.0\cmsis_liteos2.c **** 
 538:d:/LiteOS_Lab/iot_link/os/liteos/cmsis/2.0\cmsis_liteos2.c ****     return osTaskStackWaterMarkGet(pstTaskCB->uwTaskID);
 1528              		.loc 1 538 12
 1529 0024 FB68     		ldr	r3, [r7, #12]
 1530 0026 1B69     		ldr	r3, [r3, #16]
 1531 0028 1846     		mov	r0, r3
 1532 002a FFF7FEFF 		bl	osTaskStackWaterMarkGet
 1533 002e 0346     		mov	r3, r0
 1534              	.L124:
 539:d:/LiteOS_Lab/iot_link/os/liteos/cmsis/2.0\cmsis_liteos2.c **** }
 1535              		.loc 1 539 1
 1536 0030 1846     		mov	r0, r3
 1537 0032 1037     		adds	r7, r7, #16
 1538              	.LCFI83:
 1539              		.cfi_def_cfa_offset 8
 1540 0034 BD46     		mov	sp, r7
 1541              	.LCFI84:
 1542              		.cfi_def_cfa_register 13
ARM GAS  C:\Users\ADMINI~1\AppData\Local\Temp\ccvQoyy7.s 			page 37


 1543              		@ sp needed
 1544 0036 80BD     		pop	{r7, pc}
 1545              		.cfi_endproc
 1546              	.LFE308:
 1548              		.section	.text.osThreadSetPriority,"ax",%progbits
 1549              		.align	1
 1550              		.global	osThreadSetPriority
 1551              		.syntax unified
 1552              		.thumb
 1553              		.thumb_func
 1554              		.fpu fpv4-sp-d16
 1556              	osThreadSetPriority:
 1557              	.LFB309:
 540:d:/LiteOS_Lab/iot_link/os/liteos/cmsis/2.0\cmsis_liteos2.c **** 
 541:d:/LiteOS_Lab/iot_link/os/liteos/cmsis/2.0\cmsis_liteos2.c **** 
 542:d:/LiteOS_Lab/iot_link/os/liteos/cmsis/2.0\cmsis_liteos2.c **** osStatus_t osThreadSetPriority (osThreadId_t thread_id, osPriority_t priority)
 543:d:/LiteOS_Lab/iot_link/os/liteos/cmsis/2.0\cmsis_liteos2.c **** {
 1558              		.loc 1 543 1
 1559              		.cfi_startproc
 1560              		@ args = 0, pretend = 0, frame = 24
 1561              		@ frame_needed = 1, uses_anonymous_args = 0
 1562 0000 80B5     		push	{r7, lr}
 1563              	.LCFI85:
 1564              		.cfi_def_cfa_offset 8
 1565              		.cfi_offset 7, -8
 1566              		.cfi_offset 14, -4
 1567 0002 86B0     		sub	sp, sp, #24
 1568              	.LCFI86:
 1569              		.cfi_def_cfa_offset 32
 1570 0004 00AF     		add	r7, sp, #0
 1571              	.LCFI87:
 1572              		.cfi_def_cfa_register 7
 1573 0006 7860     		str	r0, [r7, #4]
 1574 0008 3960     		str	r1, [r7]
 544:d:/LiteOS_Lab/iot_link/os/liteos/cmsis/2.0\cmsis_liteos2.c ****     UINT32  uwRet;
 545:d:/LiteOS_Lab/iot_link/os/liteos/cmsis/2.0\cmsis_liteos2.c ****     UINT16  usPriority;
 546:d:/LiteOS_Lab/iot_link/os/liteos/cmsis/2.0\cmsis_liteos2.c ****     LOS_TASK_CB *pstTaskCB = NULL;
 1575              		.loc 1 546 18
 1576 000a 0023     		movs	r3, #0
 1577 000c 7B61     		str	r3, [r7, #20]
 547:d:/LiteOS_Lab/iot_link/os/liteos/cmsis/2.0\cmsis_liteos2.c **** 
 548:d:/LiteOS_Lab/iot_link/os/liteos/cmsis/2.0\cmsis_liteos2.c ****     if (OS_INT_ACTIVE)
 1578              		.loc 1 548 9
 1579 000e FFF7FEFF 		bl	osIntNumGet
 1580 0012 0346     		mov	r3, r0
 1581              		.loc 1 548 8
 1582 0014 002B     		cmp	r3, #0
 1583 0016 02D0     		beq	.L126
 549:d:/LiteOS_Lab/iot_link/os/liteos/cmsis/2.0\cmsis_liteos2.c ****     {
 550:d:/LiteOS_Lab/iot_link/os/liteos/cmsis/2.0\cmsis_liteos2.c ****         return osErrorISR;
 1584              		.loc 1 550 16
 1585 0018 6FF00503 		mvn	r3, #5
 1586 001c 53E0     		b	.L127
 1587              	.L126:
 551:d:/LiteOS_Lab/iot_link/os/liteos/cmsis/2.0\cmsis_liteos2.c ****     }
 552:d:/LiteOS_Lab/iot_link/os/liteos/cmsis/2.0\cmsis_liteos2.c **** 
 553:d:/LiteOS_Lab/iot_link/os/liteos/cmsis/2.0\cmsis_liteos2.c ****     if (thread_id == NULL)
ARM GAS  C:\Users\ADMINI~1\AppData\Local\Temp\ccvQoyy7.s 			page 38


 1588              		.loc 1 553 8
 1589 001e 7B68     		ldr	r3, [r7, #4]
 1590 0020 002B     		cmp	r3, #0
 1591 0022 02D1     		bne	.L128
 554:d:/LiteOS_Lab/iot_link/os/liteos/cmsis/2.0\cmsis_liteos2.c ****     {
 555:d:/LiteOS_Lab/iot_link/os/liteos/cmsis/2.0\cmsis_liteos2.c ****         return osErrorParameter;
 1592              		.loc 1 555 16
 1593 0024 6FF00303 		mvn	r3, #3
 1594 0028 4DE0     		b	.L127
 1595              	.L128:
 556:d:/LiteOS_Lab/iot_link/os/liteos/cmsis/2.0\cmsis_liteos2.c ****     }
 557:d:/LiteOS_Lab/iot_link/os/liteos/cmsis/2.0\cmsis_liteos2.c **** 
 558:d:/LiteOS_Lab/iot_link/os/liteos/cmsis/2.0\cmsis_liteos2.c ****     if (priority < osPriorityLow1 || priority > osPriorityAboveNormal6)
 1596              		.loc 1 558 8
 1597 002a 3B68     		ldr	r3, [r7]
 1598 002c 082B     		cmp	r3, #8
 1599 002e 02DD     		ble	.L129
 1600              		.loc 1 558 35 discriminator 1
 1601 0030 3B68     		ldr	r3, [r7]
 1602 0032 262B     		cmp	r3, #38
 1603 0034 02DD     		ble	.L130
 1604              	.L129:
 559:d:/LiteOS_Lab/iot_link/os/liteos/cmsis/2.0\cmsis_liteos2.c ****     {
 560:d:/LiteOS_Lab/iot_link/os/liteos/cmsis/2.0\cmsis_liteos2.c ****         return osErrorParameter;
 1605              		.loc 1 560 16
 1606 0036 6FF00303 		mvn	r3, #3
 1607 003a 44E0     		b	.L127
 1608              	.L130:
 561:d:/LiteOS_Lab/iot_link/os/liteos/cmsis/2.0\cmsis_liteos2.c ****     }
 562:d:/LiteOS_Lab/iot_link/os/liteos/cmsis/2.0\cmsis_liteos2.c **** 
 563:d:/LiteOS_Lab/iot_link/os/liteos/cmsis/2.0\cmsis_liteos2.c ****     pstTaskCB   = (LOS_TASK_CB *)thread_id;
 1609              		.loc 1 563 17
 1610 003c 7B68     		ldr	r3, [r7, #4]
 1611 003e 7B61     		str	r3, [r7, #20]
 564:d:/LiteOS_Lab/iot_link/os/liteos/cmsis/2.0\cmsis_liteos2.c ****     usPriority  = OS_TASK_PRIORITY_LOWEST - ((UINT16)priority - LOS_PRIORITY_WIN);
 1612              		.loc 1 564 46
 1613 0040 3B68     		ldr	r3, [r7]
 1614 0042 9BB2     		uxth	r3, r3
 1615              		.loc 1 564 17
 1616 0044 C3F12703 		rsb	r3, r3, #39
 1617 0048 7B82     		strh	r3, [r7, #18]	@ movhi
 565:d:/LiteOS_Lab/iot_link/os/liteos/cmsis/2.0\cmsis_liteos2.c ****     uwRet       = LOS_TaskPriSet(pstTaskCB->uwTaskID, usPriority);
 1618              		.loc 1 565 19
 1619 004a 7B69     		ldr	r3, [r7, #20]
 1620 004c 1B69     		ldr	r3, [r3, #16]
 1621 004e 7A8A     		ldrh	r2, [r7, #18]
 1622 0050 1146     		mov	r1, r2
 1623 0052 1846     		mov	r0, r3
 1624 0054 FFF7FEFF 		bl	LOS_TaskPriSet
 1625 0058 F860     		str	r0, [r7, #12]
 1626 005a FB68     		ldr	r3, [r7, #12]
 1627 005c 03F1FD33 		add	r3, r3, #-33686019
 1628 0060 03F50033 		add	r3, r3, #131072
 1629 0064 112B     		cmp	r3, #17
 1630 0066 2DD8     		bhi	.L131
 1631 0068 01A2     		adr	r2, .L133
 1632 006a 52F823F0 		ldr	pc, [r2, r3, lsl #2]
ARM GAS  C:\Users\ADMINI~1\AppData\Local\Temp\ccvQoyy7.s 			page 39


 1633 006e 00BF     		.p2align 2
 1634              	.L133:
 1635 0070 B9000000 		.word	.L132+1
 1636 0074 C5000000 		.word	.L131+1
 1637 0078 C5000000 		.word	.L131+1
 1638 007c C5000000 		.word	.L131+1
 1639 0080 B9000000 		.word	.L132+1
 1640 0084 C5000000 		.word	.L131+1
 1641 0088 C5000000 		.word	.L131+1
 1642 008c BF000000 		.word	.L134+1
 1643 0090 C5000000 		.word	.L131+1
 1644 0094 C5000000 		.word	.L131+1
 1645 0098 C5000000 		.word	.L131+1
 1646 009c C5000000 		.word	.L131+1
 1647 00a0 C5000000 		.word	.L131+1
 1648 00a4 C5000000 		.word	.L131+1
 1649 00a8 C5000000 		.word	.L131+1
 1650 00ac C5000000 		.word	.L131+1
 1651 00b0 C5000000 		.word	.L131+1
 1652 00b4 B9000000 		.word	.L132+1
 1653              		.p2align 1
 1654              	.L132:
 566:d:/LiteOS_Lab/iot_link/os/liteos/cmsis/2.0\cmsis_liteos2.c ****     switch (uwRet)
 567:d:/LiteOS_Lab/iot_link/os/liteos/cmsis/2.0\cmsis_liteos2.c ****     {
 568:d:/LiteOS_Lab/iot_link/os/liteos/cmsis/2.0\cmsis_liteos2.c ****     case LOS_ERRNO_TSK_PRIOR_ERROR:
 569:d:/LiteOS_Lab/iot_link/os/liteos/cmsis/2.0\cmsis_liteos2.c ****     case LOS_ERRNO_TSK_OPERATE_IDLE:
 570:d:/LiteOS_Lab/iot_link/os/liteos/cmsis/2.0\cmsis_liteos2.c ****     case LOS_ERRNO_TSK_ID_INVALID:
 571:d:/LiteOS_Lab/iot_link/os/liteos/cmsis/2.0\cmsis_liteos2.c ****         return osErrorParameter;
 1655              		.loc 1 571 16
 1656 00b8 6FF00303 		mvn	r3, #3
 1657 00bc 03E0     		b	.L127
 1658              	.L134:
 572:d:/LiteOS_Lab/iot_link/os/liteos/cmsis/2.0\cmsis_liteos2.c **** 
 573:d:/LiteOS_Lab/iot_link/os/liteos/cmsis/2.0\cmsis_liteos2.c ****     case LOS_ERRNO_TSK_NOT_CREATED:
 574:d:/LiteOS_Lab/iot_link/os/liteos/cmsis/2.0\cmsis_liteos2.c ****         return osErrorResource;
 1659              		.loc 1 574 16
 1660 00be 6FF00203 		mvn	r3, #2
 1661 00c2 00E0     		b	.L127
 1662              	.L131:
 575:d:/LiteOS_Lab/iot_link/os/liteos/cmsis/2.0\cmsis_liteos2.c **** 
 576:d:/LiteOS_Lab/iot_link/os/liteos/cmsis/2.0\cmsis_liteos2.c ****     default:
 577:d:/LiteOS_Lab/iot_link/os/liteos/cmsis/2.0\cmsis_liteos2.c ****         return osOK;
 1663              		.loc 1 577 16
 1664 00c4 0023     		movs	r3, #0
 1665              	.L127:
 578:d:/LiteOS_Lab/iot_link/os/liteos/cmsis/2.0\cmsis_liteos2.c ****     }
 579:d:/LiteOS_Lab/iot_link/os/liteos/cmsis/2.0\cmsis_liteos2.c **** }
 1666              		.loc 1 579 1
 1667 00c6 1846     		mov	r0, r3
 1668 00c8 1837     		adds	r7, r7, #24
 1669              	.LCFI88:
 1670              		.cfi_def_cfa_offset 8
 1671 00ca BD46     		mov	sp, r7
 1672              	.LCFI89:
 1673              		.cfi_def_cfa_register 13
 1674              		@ sp needed
 1675 00cc 80BD     		pop	{r7, pc}
ARM GAS  C:\Users\ADMINI~1\AppData\Local\Temp\ccvQoyy7.s 			page 40


 1676              		.cfi_endproc
 1677              	.LFE309:
 1679 00ce 00BF     		.section	.text.osThreadGetPriority,"ax",%progbits
 1680              		.align	1
 1681              		.global	osThreadGetPriority
 1682              		.syntax unified
 1683              		.thumb
 1684              		.thumb_func
 1685              		.fpu fpv4-sp-d16
 1687              	osThreadGetPriority:
 1688              	.LFB310:
 580:d:/LiteOS_Lab/iot_link/os/liteos/cmsis/2.0\cmsis_liteos2.c **** 
 581:d:/LiteOS_Lab/iot_link/os/liteos/cmsis/2.0\cmsis_liteos2.c **** 
 582:d:/LiteOS_Lab/iot_link/os/liteos/cmsis/2.0\cmsis_liteos2.c **** osPriority_t osThreadGetPriority (osThreadId_t thread_id)
 583:d:/LiteOS_Lab/iot_link/os/liteos/cmsis/2.0\cmsis_liteos2.c **** {
 1689              		.loc 1 583 1
 1690              		.cfi_startproc
 1691              		@ args = 0, pretend = 0, frame = 16
 1692              		@ frame_needed = 1, uses_anonymous_args = 0
 1693 0000 80B5     		push	{r7, lr}
 1694              	.LCFI90:
 1695              		.cfi_def_cfa_offset 8
 1696              		.cfi_offset 7, -8
 1697              		.cfi_offset 14, -4
 1698 0002 84B0     		sub	sp, sp, #16
 1699              	.LCFI91:
 1700              		.cfi_def_cfa_offset 24
 1701 0004 00AF     		add	r7, sp, #0
 1702              	.LCFI92:
 1703              		.cfi_def_cfa_register 7
 1704 0006 7860     		str	r0, [r7, #4]
 584:d:/LiteOS_Lab/iot_link/os/liteos/cmsis/2.0\cmsis_liteos2.c ****     UINT16 usRet;
 585:d:/LiteOS_Lab/iot_link/os/liteos/cmsis/2.0\cmsis_liteos2.c ****     LOS_TASK_CB *pstTaskCB = NULL;
 1705              		.loc 1 585 18
 1706 0008 0023     		movs	r3, #0
 1707 000a FB60     		str	r3, [r7, #12]
 586:d:/LiteOS_Lab/iot_link/os/liteos/cmsis/2.0\cmsis_liteos2.c **** 
 587:d:/LiteOS_Lab/iot_link/os/liteos/cmsis/2.0\cmsis_liteos2.c ****     if (OS_INT_ACTIVE || thread_id == NULL)
 1708              		.loc 1 587 9
 1709 000c FFF7FEFF 		bl	osIntNumGet
 1710 0010 0346     		mov	r3, r0
 1711              		.loc 1 587 8
 1712 0012 002B     		cmp	r3, #0
 1713 0014 02D1     		bne	.L136
 1714              		.loc 1 587 23 discriminator 1
 1715 0016 7B68     		ldr	r3, [r7, #4]
 1716 0018 002B     		cmp	r3, #0
 1717 001a 02D1     		bne	.L137
 1718              	.L136:
 588:d:/LiteOS_Lab/iot_link/os/liteos/cmsis/2.0\cmsis_liteos2.c ****     {
 589:d:/LiteOS_Lab/iot_link/os/liteos/cmsis/2.0\cmsis_liteos2.c ****         return osPriorityError;
 1719              		.loc 1 589 16
 1720 001c 4FF0FF33 		mov	r3, #-1
 1721 0020 13E0     		b	.L138
 1722              	.L137:
 590:d:/LiteOS_Lab/iot_link/os/liteos/cmsis/2.0\cmsis_liteos2.c ****     }
 591:d:/LiteOS_Lab/iot_link/os/liteos/cmsis/2.0\cmsis_liteos2.c **** 
ARM GAS  C:\Users\ADMINI~1\AppData\Local\Temp\ccvQoyy7.s 			page 41


 592:d:/LiteOS_Lab/iot_link/os/liteos/cmsis/2.0\cmsis_liteos2.c ****     pstTaskCB = (LOS_TASK_CB *)thread_id;
 1723              		.loc 1 592 15
 1724 0022 7B68     		ldr	r3, [r7, #4]
 1725 0024 FB60     		str	r3, [r7, #12]
 593:d:/LiteOS_Lab/iot_link/os/liteos/cmsis/2.0\cmsis_liteos2.c ****     usRet = LOS_TaskPriGet(pstTaskCB->uwTaskID);
 1726              		.loc 1 593 13
 1727 0026 FB68     		ldr	r3, [r7, #12]
 1728 0028 1B69     		ldr	r3, [r3, #16]
 1729 002a 1846     		mov	r0, r3
 1730 002c FFF7FEFF 		bl	LOS_TaskPriGet
 1731 0030 0346     		mov	r3, r0
 1732 0032 7B81     		strh	r3, [r7, #10]	@ movhi
 594:d:/LiteOS_Lab/iot_link/os/liteos/cmsis/2.0\cmsis_liteos2.c **** 
 595:d:/LiteOS_Lab/iot_link/os/liteos/cmsis/2.0\cmsis_liteos2.c ****     if (usRet == (UINT16)OS_INVALID)
 1733              		.loc 1 595 8
 1734 0034 7B89     		ldrh	r3, [r7, #10]
 1735 0036 4FF6FF72 		movw	r2, #65535
 1736 003a 9342     		cmp	r3, r2
 1737 003c 02D1     		bne	.L139
 596:d:/LiteOS_Lab/iot_link/os/liteos/cmsis/2.0\cmsis_liteos2.c ****     {
 597:d:/LiteOS_Lab/iot_link/os/liteos/cmsis/2.0\cmsis_liteos2.c ****         return osPriorityError;
 1738              		.loc 1 597 16
 1739 003e 4FF0FF33 		mov	r3, #-1
 1740 0042 02E0     		b	.L138
 1741              	.L139:
 598:d:/LiteOS_Lab/iot_link/os/liteos/cmsis/2.0\cmsis_liteos2.c ****     }
 599:d:/LiteOS_Lab/iot_link/os/liteos/cmsis/2.0\cmsis_liteos2.c **** 
 600:d:/LiteOS_Lab/iot_link/os/liteos/cmsis/2.0\cmsis_liteos2.c ****     return (osPriority_t)(OS_TASK_PRIORITY_LOWEST - (usRet - LOS_PRIORITY_WIN));
 1742              		.loc 1 600 12
 1743 0044 7B89     		ldrh	r3, [r7, #10]
 1744 0046 C3F12703 		rsb	r3, r3, #39
 1745              	.L138:
 601:d:/LiteOS_Lab/iot_link/os/liteos/cmsis/2.0\cmsis_liteos2.c **** }
 1746              		.loc 1 601 1
 1747 004a 1846     		mov	r0, r3
 1748 004c 1037     		adds	r7, r7, #16
 1749              	.LCFI93:
 1750              		.cfi_def_cfa_offset 8
 1751 004e BD46     		mov	sp, r7
 1752              	.LCFI94:
 1753              		.cfi_def_cfa_register 13
 1754              		@ sp needed
 1755 0050 80BD     		pop	{r7, pc}
 1756              		.cfi_endproc
 1757              	.LFE310:
 1759              		.section	.text.osThreadYield,"ax",%progbits
 1760              		.align	1
 1761              		.global	osThreadYield
 1762              		.syntax unified
 1763              		.thumb
 1764              		.thumb_func
 1765              		.fpu fpv4-sp-d16
 1767              	osThreadYield:
 1768              	.LFB311:
 602:d:/LiteOS_Lab/iot_link/os/liteos/cmsis/2.0\cmsis_liteos2.c **** 
 603:d:/LiteOS_Lab/iot_link/os/liteos/cmsis/2.0\cmsis_liteos2.c **** 
 604:d:/LiteOS_Lab/iot_link/os/liteos/cmsis/2.0\cmsis_liteos2.c **** osStatus_t osThreadYield (void)
ARM GAS  C:\Users\ADMINI~1\AppData\Local\Temp\ccvQoyy7.s 			page 42


 605:d:/LiteOS_Lab/iot_link/os/liteos/cmsis/2.0\cmsis_liteos2.c **** {
 1769              		.loc 1 605 1
 1770              		.cfi_startproc
 1771              		@ args = 0, pretend = 0, frame = 8
 1772              		@ frame_needed = 1, uses_anonymous_args = 0
 1773 0000 80B5     		push	{r7, lr}
 1774              	.LCFI95:
 1775              		.cfi_def_cfa_offset 8
 1776              		.cfi_offset 7, -8
 1777              		.cfi_offset 14, -4
 1778 0002 82B0     		sub	sp, sp, #8
 1779              	.LCFI96:
 1780              		.cfi_def_cfa_offset 16
 1781 0004 00AF     		add	r7, sp, #0
 1782              	.LCFI97:
 1783              		.cfi_def_cfa_register 7
 606:d:/LiteOS_Lab/iot_link/os/liteos/cmsis/2.0\cmsis_liteos2.c ****     UINT32 uwRet;
 607:d:/LiteOS_Lab/iot_link/os/liteos/cmsis/2.0\cmsis_liteos2.c **** 
 608:d:/LiteOS_Lab/iot_link/os/liteos/cmsis/2.0\cmsis_liteos2.c ****     if (OS_INT_ACTIVE)
 1784              		.loc 1 608 9
 1785 0006 FFF7FEFF 		bl	osIntNumGet
 1786 000a 0346     		mov	r3, r0
 1787              		.loc 1 608 8
 1788 000c 002B     		cmp	r3, #0
 1789 000e 02D0     		beq	.L141
 609:d:/LiteOS_Lab/iot_link/os/liteos/cmsis/2.0\cmsis_liteos2.c ****     {
 610:d:/LiteOS_Lab/iot_link/os/liteos/cmsis/2.0\cmsis_liteos2.c ****         return osErrorISR;
 1790              		.loc 1 610 16
 1791 0010 6FF00503 		mvn	r3, #5
 1792 0014 09E0     		b	.L142
 1793              	.L141:
 611:d:/LiteOS_Lab/iot_link/os/liteos/cmsis/2.0\cmsis_liteos2.c ****     }
 612:d:/LiteOS_Lab/iot_link/os/liteos/cmsis/2.0\cmsis_liteos2.c **** 
 613:d:/LiteOS_Lab/iot_link/os/liteos/cmsis/2.0\cmsis_liteos2.c ****     uwRet = LOS_TaskYield();
 1794              		.loc 1 613 13
 1795 0016 FFF7FEFF 		bl	LOS_TaskYield
 1796 001a 7860     		str	r0, [r7, #4]
 614:d:/LiteOS_Lab/iot_link/os/liteos/cmsis/2.0\cmsis_liteos2.c **** 
 615:d:/LiteOS_Lab/iot_link/os/liteos/cmsis/2.0\cmsis_liteos2.c ****     if (uwRet == LOS_OK)
 1797              		.loc 1 615 8
 1798 001c 7B68     		ldr	r3, [r7, #4]
 1799 001e 002B     		cmp	r3, #0
 1800 0020 01D1     		bne	.L143
 616:d:/LiteOS_Lab/iot_link/os/liteos/cmsis/2.0\cmsis_liteos2.c ****     {
 617:d:/LiteOS_Lab/iot_link/os/liteos/cmsis/2.0\cmsis_liteos2.c ****         return osOK;
 1801              		.loc 1 617 16
 1802 0022 0023     		movs	r3, #0
 1803 0024 01E0     		b	.L142
 1804              	.L143:
 618:d:/LiteOS_Lab/iot_link/os/liteos/cmsis/2.0\cmsis_liteos2.c ****     }
 619:d:/LiteOS_Lab/iot_link/os/liteos/cmsis/2.0\cmsis_liteos2.c **** 
 620:d:/LiteOS_Lab/iot_link/os/liteos/cmsis/2.0\cmsis_liteos2.c ****     return osError;
 1805              		.loc 1 620 12
 1806 0026 4FF0FF33 		mov	r3, #-1
 1807              	.L142:
 621:d:/LiteOS_Lab/iot_link/os/liteos/cmsis/2.0\cmsis_liteos2.c **** }
 1808              		.loc 1 621 1
ARM GAS  C:\Users\ADMINI~1\AppData\Local\Temp\ccvQoyy7.s 			page 43


 1809 002a 1846     		mov	r0, r3
 1810 002c 0837     		adds	r7, r7, #8
 1811              	.LCFI98:
 1812              		.cfi_def_cfa_offset 8
 1813 002e BD46     		mov	sp, r7
 1814              	.LCFI99:
 1815              		.cfi_def_cfa_register 13
 1816              		@ sp needed
 1817 0030 80BD     		pop	{r7, pc}
 1818              		.cfi_endproc
 1819              	.LFE311:
 1821              		.section	.text.osThreadSuspend,"ax",%progbits
 1822              		.align	1
 1823              		.global	osThreadSuspend
 1824              		.syntax unified
 1825              		.thumb
 1826              		.thumb_func
 1827              		.fpu fpv4-sp-d16
 1829              	osThreadSuspend:
 1830              	.LFB312:
 622:d:/LiteOS_Lab/iot_link/os/liteos/cmsis/2.0\cmsis_liteos2.c **** 
 623:d:/LiteOS_Lab/iot_link/os/liteos/cmsis/2.0\cmsis_liteos2.c **** 
 624:d:/LiteOS_Lab/iot_link/os/liteos/cmsis/2.0\cmsis_liteos2.c **** osStatus_t osThreadSuspend (osThreadId_t thread_id)
 625:d:/LiteOS_Lab/iot_link/os/liteos/cmsis/2.0\cmsis_liteos2.c **** {
 1831              		.loc 1 625 1
 1832              		.cfi_startproc
 1833              		@ args = 0, pretend = 0, frame = 16
 1834              		@ frame_needed = 1, uses_anonymous_args = 0
 1835 0000 80B5     		push	{r7, lr}
 1836              	.LCFI100:
 1837              		.cfi_def_cfa_offset 8
 1838              		.cfi_offset 7, -8
 1839              		.cfi_offset 14, -4
 1840 0002 84B0     		sub	sp, sp, #16
 1841              	.LCFI101:
 1842              		.cfi_def_cfa_offset 24
 1843 0004 00AF     		add	r7, sp, #0
 1844              	.LCFI102:
 1845              		.cfi_def_cfa_register 7
 1846 0006 7860     		str	r0, [r7, #4]
 626:d:/LiteOS_Lab/iot_link/os/liteos/cmsis/2.0\cmsis_liteos2.c ****     UINT32 uwRet;
 627:d:/LiteOS_Lab/iot_link/os/liteos/cmsis/2.0\cmsis_liteos2.c ****     LOS_TASK_CB *pstTaskCB = NULL;
 1847              		.loc 1 627 18
 1848 0008 0023     		movs	r3, #0
 1849 000a FB60     		str	r3, [r7, #12]
 628:d:/LiteOS_Lab/iot_link/os/liteos/cmsis/2.0\cmsis_liteos2.c **** 
 629:d:/LiteOS_Lab/iot_link/os/liteos/cmsis/2.0\cmsis_liteos2.c ****     if (OS_INT_ACTIVE)
 1850              		.loc 1 629 9
 1851 000c FFF7FEFF 		bl	osIntNumGet
 1852 0010 0346     		mov	r3, r0
 1853              		.loc 1 629 8
 1854 0012 002B     		cmp	r3, #0
 1855 0014 02D0     		beq	.L145
 630:d:/LiteOS_Lab/iot_link/os/liteos/cmsis/2.0\cmsis_liteos2.c ****     {
 631:d:/LiteOS_Lab/iot_link/os/liteos/cmsis/2.0\cmsis_liteos2.c ****         return osErrorISR;
 1856              		.loc 1 631 16
 1857 0016 6FF00503 		mvn	r3, #5
ARM GAS  C:\Users\ADMINI~1\AppData\Local\Temp\ccvQoyy7.s 			page 44


 1858 001a 61E0     		b	.L146
 1859              	.L145:
 632:d:/LiteOS_Lab/iot_link/os/liteos/cmsis/2.0\cmsis_liteos2.c ****     }
 633:d:/LiteOS_Lab/iot_link/os/liteos/cmsis/2.0\cmsis_liteos2.c **** 
 634:d:/LiteOS_Lab/iot_link/os/liteos/cmsis/2.0\cmsis_liteos2.c ****     if (thread_id == NULL)
 1860              		.loc 1 634 8
 1861 001c 7B68     		ldr	r3, [r7, #4]
 1862 001e 002B     		cmp	r3, #0
 1863 0020 02D1     		bne	.L147
 635:d:/LiteOS_Lab/iot_link/os/liteos/cmsis/2.0\cmsis_liteos2.c ****     {
 636:d:/LiteOS_Lab/iot_link/os/liteos/cmsis/2.0\cmsis_liteos2.c ****         return osErrorParameter;
 1864              		.loc 1 636 16
 1865 0022 6FF00303 		mvn	r3, #3
 1866 0026 5BE0     		b	.L146
 1867              	.L147:
 637:d:/LiteOS_Lab/iot_link/os/liteos/cmsis/2.0\cmsis_liteos2.c ****     }
 638:d:/LiteOS_Lab/iot_link/os/liteos/cmsis/2.0\cmsis_liteos2.c **** 
 639:d:/LiteOS_Lab/iot_link/os/liteos/cmsis/2.0\cmsis_liteos2.c ****     pstTaskCB = (LOS_TASK_CB *)thread_id;
 1868              		.loc 1 639 15
 1869 0028 7B68     		ldr	r3, [r7, #4]
 1870 002a FB60     		str	r3, [r7, #12]
 640:d:/LiteOS_Lab/iot_link/os/liteos/cmsis/2.0\cmsis_liteos2.c ****     uwRet = LOS_TaskSuspend(pstTaskCB->uwTaskID);
 1871              		.loc 1 640 13
 1872 002c FB68     		ldr	r3, [r7, #12]
 1873 002e 1B69     		ldr	r3, [r3, #16]
 1874 0030 1846     		mov	r0, r3
 1875 0032 FFF7FEFF 		bl	LOS_TaskSuspend
 1876 0036 B860     		str	r0, [r7, #8]
 641:d:/LiteOS_Lab/iot_link/os/liteos/cmsis/2.0\cmsis_liteos2.c ****     switch (uwRet)
 1877              		.loc 1 641 5
 1878 0038 BB68     		ldr	r3, [r7, #8]
 1879 003a 2B4A     		ldr	r2, .L153
 1880 003c 9342     		cmp	r3, r2
 1881 003e 43D8     		bhi	.L148
 1882 0040 BB68     		ldr	r3, [r7, #8]
 1883 0042 2A4A     		ldr	r2, .L153+4
 1884 0044 9342     		cmp	r3, r2
 1885 0046 4AD3     		bcc	.L149
 1886 0048 BB68     		ldr	r3, [r7, #8]
 1887 004a A3F10223 		sub	r3, r3, #33554944
 1888 004e 073B     		subs	r3, r3, #7
 1889 0050 1A2B     		cmp	r3, #26
 1890 0052 44D8     		bhi	.L149
 1891 0054 01A2     		adr	r2, .L151
 1892 0056 52F823F0 		ldr	pc, [r2, r3, lsl #2]
 1893 005a 00BF     		.p2align 2
 1894              	.L151:
 1895 005c D3000000 		.word	.L150+1
 1896 0060 D9000000 		.word	.L152+1
 1897 0064 DF000000 		.word	.L149+1
 1898 0068 D9000000 		.word	.L152+1
 1899 006c DF000000 		.word	.L149+1
 1900 0070 DF000000 		.word	.L149+1
 1901 0074 DF000000 		.word	.L149+1
 1902 0078 DF000000 		.word	.L149+1
 1903 007c DF000000 		.word	.L149+1
 1904 0080 DF000000 		.word	.L149+1
ARM GAS  C:\Users\ADMINI~1\AppData\Local\Temp\ccvQoyy7.s 			page 45


 1905 0084 DF000000 		.word	.L149+1
 1906 0088 DF000000 		.word	.L149+1
 1907 008c DF000000 		.word	.L149+1
 1908 0090 D3000000 		.word	.L150+1
 1909 0094 DF000000 		.word	.L149+1
 1910 0098 DF000000 		.word	.L149+1
 1911 009c DF000000 		.word	.L149+1
 1912 00a0 DF000000 		.word	.L149+1
 1913 00a4 DF000000 		.word	.L149+1
 1914 00a8 DF000000 		.word	.L149+1
 1915 00ac DF000000 		.word	.L149+1
 1916 00b0 DF000000 		.word	.L149+1
 1917 00b4 DF000000 		.word	.L149+1
 1918 00b8 DF000000 		.word	.L149+1
 1919 00bc DF000000 		.word	.L149+1
 1920 00c0 DF000000 		.word	.L149+1
 1921 00c4 D3000000 		.word	.L150+1
 1922              		.p2align 1
 1923              	.L148:
 1924 00c8 BB68     		ldr	r3, [r7, #8]
 1925 00ca 094A     		ldr	r2, .L153+8
 1926 00cc 9342     		cmp	r3, r2
 1927 00ce 03D0     		beq	.L152
 1928 00d0 05E0     		b	.L149
 1929              	.L150:
 642:d:/LiteOS_Lab/iot_link/os/liteos/cmsis/2.0\cmsis_liteos2.c ****     {
 643:d:/LiteOS_Lab/iot_link/os/liteos/cmsis/2.0\cmsis_liteos2.c ****     case LOS_ERRNO_TSK_OPERATE_IDLE:
 644:d:/LiteOS_Lab/iot_link/os/liteos/cmsis/2.0\cmsis_liteos2.c ****     case LOS_ERRNO_TSK_SUSPEND_SWTMR_NOT_ALLOWED:
 645:d:/LiteOS_Lab/iot_link/os/liteos/cmsis/2.0\cmsis_liteos2.c ****     case LOS_ERRNO_TSK_ID_INVALID:
 646:d:/LiteOS_Lab/iot_link/os/liteos/cmsis/2.0\cmsis_liteos2.c ****         return osErrorParameter;
 1930              		.loc 1 646 16
 1931 00d2 6FF00303 		mvn	r3, #3
 1932 00d6 03E0     		b	.L146
 1933              	.L152:
 647:d:/LiteOS_Lab/iot_link/os/liteos/cmsis/2.0\cmsis_liteos2.c **** 
 648:d:/LiteOS_Lab/iot_link/os/liteos/cmsis/2.0\cmsis_liteos2.c ****     case LOS_ERRNO_TSK_NOT_CREATED:
 649:d:/LiteOS_Lab/iot_link/os/liteos/cmsis/2.0\cmsis_liteos2.c ****     case LOS_ERRNO_TSK_ALREADY_SUSPENDED:
 650:d:/LiteOS_Lab/iot_link/os/liteos/cmsis/2.0\cmsis_liteos2.c ****     case LOS_ERRNO_TSK_SUSPEND_LOCKED:
 651:d:/LiteOS_Lab/iot_link/os/liteos/cmsis/2.0\cmsis_liteos2.c ****         return osErrorResource;
 1934              		.loc 1 651 16
 1935 00d8 6FF00203 		mvn	r3, #2
 1936 00dc 00E0     		b	.L146
 1937              	.L149:
 652:d:/LiteOS_Lab/iot_link/os/liteos/cmsis/2.0\cmsis_liteos2.c **** 
 653:d:/LiteOS_Lab/iot_link/os/liteos/cmsis/2.0\cmsis_liteos2.c ****     default:
 654:d:/LiteOS_Lab/iot_link/os/liteos/cmsis/2.0\cmsis_liteos2.c ****         return osOK;
 1938              		.loc 1 654 16
 1939 00de 0023     		movs	r3, #0
 1940              	.L146:
 655:d:/LiteOS_Lab/iot_link/os/liteos/cmsis/2.0\cmsis_liteos2.c ****     }
 656:d:/LiteOS_Lab/iot_link/os/liteos/cmsis/2.0\cmsis_liteos2.c **** }
 1941              		.loc 1 656 1
 1942 00e0 1846     		mov	r0, r3
 1943 00e2 1037     		adds	r7, r7, #16
 1944              	.LCFI103:
 1945              		.cfi_def_cfa_offset 8
 1946 00e4 BD46     		mov	sp, r7
ARM GAS  C:\Users\ADMINI~1\AppData\Local\Temp\ccvQoyy7.s 			page 46


 1947              	.LCFI104:
 1948              		.cfi_def_cfa_register 13
 1949              		@ sp needed
 1950 00e6 80BD     		pop	{r7, pc}
 1951              	.L154:
 1952              		.align	2
 1953              	.L153:
 1954 00e8 21020002 		.word	33554977
 1955 00ec 07020002 		.word	33554951
 1956 00f0 15020003 		.word	50332181
 1957              		.cfi_endproc
 1958              	.LFE312:
 1960              		.section	.text.osThreadResume,"ax",%progbits
 1961              		.align	1
 1962              		.global	osThreadResume
 1963              		.syntax unified
 1964              		.thumb
 1965              		.thumb_func
 1966              		.fpu fpv4-sp-d16
 1968              	osThreadResume:
 1969              	.LFB313:
 657:d:/LiteOS_Lab/iot_link/os/liteos/cmsis/2.0\cmsis_liteos2.c **** 
 658:d:/LiteOS_Lab/iot_link/os/liteos/cmsis/2.0\cmsis_liteos2.c **** 
 659:d:/LiteOS_Lab/iot_link/os/liteos/cmsis/2.0\cmsis_liteos2.c **** osStatus_t osThreadResume (osThreadId_t thread_id)
 660:d:/LiteOS_Lab/iot_link/os/liteos/cmsis/2.0\cmsis_liteos2.c **** {
 1970              		.loc 1 660 1
 1971              		.cfi_startproc
 1972              		@ args = 0, pretend = 0, frame = 16
 1973              		@ frame_needed = 1, uses_anonymous_args = 0
 1974 0000 80B5     		push	{r7, lr}
 1975              	.LCFI105:
 1976              		.cfi_def_cfa_offset 8
 1977              		.cfi_offset 7, -8
 1978              		.cfi_offset 14, -4
 1979 0002 84B0     		sub	sp, sp, #16
 1980              	.LCFI106:
 1981              		.cfi_def_cfa_offset 24
 1982 0004 00AF     		add	r7, sp, #0
 1983              	.LCFI107:
 1984              		.cfi_def_cfa_register 7
 1985 0006 7860     		str	r0, [r7, #4]
 661:d:/LiteOS_Lab/iot_link/os/liteos/cmsis/2.0\cmsis_liteos2.c ****     UINT32 uwRet;
 662:d:/LiteOS_Lab/iot_link/os/liteos/cmsis/2.0\cmsis_liteos2.c ****     LOS_TASK_CB *pstTaskCB = NULL;
 1986              		.loc 1 662 18
 1987 0008 0023     		movs	r3, #0
 1988 000a FB60     		str	r3, [r7, #12]
 663:d:/LiteOS_Lab/iot_link/os/liteos/cmsis/2.0\cmsis_liteos2.c **** 
 664:d:/LiteOS_Lab/iot_link/os/liteos/cmsis/2.0\cmsis_liteos2.c ****     if (OS_INT_ACTIVE)
 1989              		.loc 1 664 9
 1990 000c FFF7FEFF 		bl	osIntNumGet
 1991 0010 0346     		mov	r3, r0
 1992              		.loc 1 664 8
 1993 0012 002B     		cmp	r3, #0
 1994 0014 02D0     		beq	.L156
 665:d:/LiteOS_Lab/iot_link/os/liteos/cmsis/2.0\cmsis_liteos2.c ****     {
 666:d:/LiteOS_Lab/iot_link/os/liteos/cmsis/2.0\cmsis_liteos2.c ****         return osErrorISR;
 1995              		.loc 1 666 16
ARM GAS  C:\Users\ADMINI~1\AppData\Local\Temp\ccvQoyy7.s 			page 47


 1996 0016 6FF00503 		mvn	r3, #5
 1997 001a 23E0     		b	.L157
 1998              	.L156:
 667:d:/LiteOS_Lab/iot_link/os/liteos/cmsis/2.0\cmsis_liteos2.c ****     }
 668:d:/LiteOS_Lab/iot_link/os/liteos/cmsis/2.0\cmsis_liteos2.c **** 
 669:d:/LiteOS_Lab/iot_link/os/liteos/cmsis/2.0\cmsis_liteos2.c ****     if (thread_id == NULL)
 1999              		.loc 1 669 8
 2000 001c 7B68     		ldr	r3, [r7, #4]
 2001 001e 002B     		cmp	r3, #0
 2002 0020 02D1     		bne	.L158
 670:d:/LiteOS_Lab/iot_link/os/liteos/cmsis/2.0\cmsis_liteos2.c ****     {
 671:d:/LiteOS_Lab/iot_link/os/liteos/cmsis/2.0\cmsis_liteos2.c ****         return osErrorParameter;
 2003              		.loc 1 671 16
 2004 0022 6FF00303 		mvn	r3, #3
 2005 0026 1DE0     		b	.L157
 2006              	.L158:
 672:d:/LiteOS_Lab/iot_link/os/liteos/cmsis/2.0\cmsis_liteos2.c ****     }
 673:d:/LiteOS_Lab/iot_link/os/liteos/cmsis/2.0\cmsis_liteos2.c **** 
 674:d:/LiteOS_Lab/iot_link/os/liteos/cmsis/2.0\cmsis_liteos2.c ****     pstTaskCB = (LOS_TASK_CB *)thread_id;
 2007              		.loc 1 674 15
 2008 0028 7B68     		ldr	r3, [r7, #4]
 2009 002a FB60     		str	r3, [r7, #12]
 675:d:/LiteOS_Lab/iot_link/os/liteos/cmsis/2.0\cmsis_liteos2.c ****     uwRet = LOS_TaskResume(pstTaskCB->uwTaskID);
 2010              		.loc 1 675 13
 2011 002c FB68     		ldr	r3, [r7, #12]
 2012 002e 1B69     		ldr	r3, [r3, #16]
 2013 0030 1846     		mov	r0, r3
 2014 0032 FFF7FEFF 		bl	LOS_TaskResume
 2015 0036 B860     		str	r0, [r7, #8]
 676:d:/LiteOS_Lab/iot_link/os/liteos/cmsis/2.0\cmsis_liteos2.c **** 
 677:d:/LiteOS_Lab/iot_link/os/liteos/cmsis/2.0\cmsis_liteos2.c ****     switch (uwRet)
 2016              		.loc 1 677 5
 2017 0038 BB68     		ldr	r3, [r7, #8]
 2018 003a 0C4A     		ldr	r2, .L163
 2019 003c 9342     		cmp	r3, r2
 2020 003e 0AD0     		beq	.L159
 2021 0040 BB68     		ldr	r3, [r7, #8]
 2022 0042 0A4A     		ldr	r2, .L163
 2023 0044 9342     		cmp	r3, r2
 2024 0046 0CD3     		bcc	.L160
 2025 0048 BB68     		ldr	r3, [r7, #8]
 2026 004a A3F10223 		sub	r3, r3, #33554944
 2027 004e 093B     		subs	r3, r3, #9
 2028 0050 012B     		cmp	r3, #1
 2029 0052 06D8     		bhi	.L160
 2030 0054 02E0     		b	.L162
 2031              	.L159:
 678:d:/LiteOS_Lab/iot_link/os/liteos/cmsis/2.0\cmsis_liteos2.c ****     {
 679:d:/LiteOS_Lab/iot_link/os/liteos/cmsis/2.0\cmsis_liteos2.c ****     case LOS_ERRNO_TSK_ID_INVALID:
 680:d:/LiteOS_Lab/iot_link/os/liteos/cmsis/2.0\cmsis_liteos2.c ****         return osErrorParameter;
 2032              		.loc 1 680 16
 2033 0056 6FF00303 		mvn	r3, #3
 2034 005a 03E0     		b	.L157
 2035              	.L162:
 681:d:/LiteOS_Lab/iot_link/os/liteos/cmsis/2.0\cmsis_liteos2.c **** 
 682:d:/LiteOS_Lab/iot_link/os/liteos/cmsis/2.0\cmsis_liteos2.c ****     case LOS_ERRNO_TSK_NOT_CREATED:
 683:d:/LiteOS_Lab/iot_link/os/liteos/cmsis/2.0\cmsis_liteos2.c ****     case LOS_ERRNO_TSK_NOT_SUSPENDED:
ARM GAS  C:\Users\ADMINI~1\AppData\Local\Temp\ccvQoyy7.s 			page 48


 684:d:/LiteOS_Lab/iot_link/os/liteos/cmsis/2.0\cmsis_liteos2.c ****         return osErrorResource;
 2036              		.loc 1 684 16
 2037 005c 6FF00203 		mvn	r3, #2
 2038 0060 00E0     		b	.L157
 2039              	.L160:
 685:d:/LiteOS_Lab/iot_link/os/liteos/cmsis/2.0\cmsis_liteos2.c **** 
 686:d:/LiteOS_Lab/iot_link/os/liteos/cmsis/2.0\cmsis_liteos2.c ****     default:
 687:d:/LiteOS_Lab/iot_link/os/liteos/cmsis/2.0\cmsis_liteos2.c ****         return osOK;
 2040              		.loc 1 687 16
 2041 0062 0023     		movs	r3, #0
 2042              	.L157:
 688:d:/LiteOS_Lab/iot_link/os/liteos/cmsis/2.0\cmsis_liteos2.c ****     }
 689:d:/LiteOS_Lab/iot_link/os/liteos/cmsis/2.0\cmsis_liteos2.c **** 
 690:d:/LiteOS_Lab/iot_link/os/liteos/cmsis/2.0\cmsis_liteos2.c **** }
 2043              		.loc 1 690 1
 2044 0064 1846     		mov	r0, r3
 2045 0066 1037     		adds	r7, r7, #16
 2046              	.LCFI108:
 2047              		.cfi_def_cfa_offset 8
 2048 0068 BD46     		mov	sp, r7
 2049              	.LCFI109:
 2050              		.cfi_def_cfa_register 13
 2051              		@ sp needed
 2052 006a 80BD     		pop	{r7, pc}
 2053              	.L164:
 2054              		.align	2
 2055              	.L163:
 2056 006c 07020002 		.word	33554951
 2057              		.cfi_endproc
 2058              	.LFE313:
 2060              		.section	.text.osThreadTerminate,"ax",%progbits
 2061              		.align	1
 2062              		.global	osThreadTerminate
 2063              		.syntax unified
 2064              		.thumb
 2065              		.thumb_func
 2066              		.fpu fpv4-sp-d16
 2068              	osThreadTerminate:
 2069              	.LFB314:
 691:d:/LiteOS_Lab/iot_link/os/liteos/cmsis/2.0\cmsis_liteos2.c **** 
 692:d:/LiteOS_Lab/iot_link/os/liteos/cmsis/2.0\cmsis_liteos2.c **** 
 693:d:/LiteOS_Lab/iot_link/os/liteos/cmsis/2.0\cmsis_liteos2.c **** osStatus_t osThreadTerminate (osThreadId_t thread_id)
 694:d:/LiteOS_Lab/iot_link/os/liteos/cmsis/2.0\cmsis_liteos2.c **** {
 2070              		.loc 1 694 1
 2071              		.cfi_startproc
 2072              		@ args = 0, pretend = 0, frame = 16
 2073              		@ frame_needed = 1, uses_anonymous_args = 0
 2074 0000 80B5     		push	{r7, lr}
 2075              	.LCFI110:
 2076              		.cfi_def_cfa_offset 8
 2077              		.cfi_offset 7, -8
 2078              		.cfi_offset 14, -4
 2079 0002 84B0     		sub	sp, sp, #16
 2080              	.LCFI111:
 2081              		.cfi_def_cfa_offset 24
 2082 0004 00AF     		add	r7, sp, #0
 2083              	.LCFI112:
ARM GAS  C:\Users\ADMINI~1\AppData\Local\Temp\ccvQoyy7.s 			page 49


 2084              		.cfi_def_cfa_register 7
 2085 0006 7860     		str	r0, [r7, #4]
 695:d:/LiteOS_Lab/iot_link/os/liteos/cmsis/2.0\cmsis_liteos2.c ****     UINT32 uwRet;
 696:d:/LiteOS_Lab/iot_link/os/liteos/cmsis/2.0\cmsis_liteos2.c ****     LOS_TASK_CB *pstTaskCB = NULL;
 2086              		.loc 1 696 18
 2087 0008 0023     		movs	r3, #0
 2088 000a FB60     		str	r3, [r7, #12]
 697:d:/LiteOS_Lab/iot_link/os/liteos/cmsis/2.0\cmsis_liteos2.c **** 
 698:d:/LiteOS_Lab/iot_link/os/liteos/cmsis/2.0\cmsis_liteos2.c ****     if (OS_INT_ACTIVE)
 2089              		.loc 1 698 9
 2090 000c FFF7FEFF 		bl	osIntNumGet
 2091 0010 0346     		mov	r3, r0
 2092              		.loc 1 698 8
 2093 0012 002B     		cmp	r3, #0
 2094 0014 02D0     		beq	.L166
 699:d:/LiteOS_Lab/iot_link/os/liteos/cmsis/2.0\cmsis_liteos2.c ****     {
 700:d:/LiteOS_Lab/iot_link/os/liteos/cmsis/2.0\cmsis_liteos2.c ****         return osErrorISR;
 2095              		.loc 1 700 16
 2096 0016 6FF00503 		mvn	r3, #5
 2097 001a 54E0     		b	.L167
 2098              	.L166:
 701:d:/LiteOS_Lab/iot_link/os/liteos/cmsis/2.0\cmsis_liteos2.c ****     }
 702:d:/LiteOS_Lab/iot_link/os/liteos/cmsis/2.0\cmsis_liteos2.c **** 
 703:d:/LiteOS_Lab/iot_link/os/liteos/cmsis/2.0\cmsis_liteos2.c ****     if (thread_id == NULL)
 2099              		.loc 1 703 8
 2100 001c 7B68     		ldr	r3, [r7, #4]
 2101 001e 002B     		cmp	r3, #0
 2102 0020 02D1     		bne	.L168
 704:d:/LiteOS_Lab/iot_link/os/liteos/cmsis/2.0\cmsis_liteos2.c ****     {
 705:d:/LiteOS_Lab/iot_link/os/liteos/cmsis/2.0\cmsis_liteos2.c ****         return osErrorParameter;
 2103              		.loc 1 705 16
 2104 0022 6FF00303 		mvn	r3, #3
 2105 0026 4EE0     		b	.L167
 2106              	.L168:
 706:d:/LiteOS_Lab/iot_link/os/liteos/cmsis/2.0\cmsis_liteos2.c ****     }
 707:d:/LiteOS_Lab/iot_link/os/liteos/cmsis/2.0\cmsis_liteos2.c **** 
 708:d:/LiteOS_Lab/iot_link/os/liteos/cmsis/2.0\cmsis_liteos2.c ****     pstTaskCB = (LOS_TASK_CB *)thread_id;
 2107              		.loc 1 708 15
 2108 0028 7B68     		ldr	r3, [r7, #4]
 2109 002a FB60     		str	r3, [r7, #12]
 709:d:/LiteOS_Lab/iot_link/os/liteos/cmsis/2.0\cmsis_liteos2.c ****     uwRet = LOS_TaskDelete(pstTaskCB->uwTaskID);
 2110              		.loc 1 709 13
 2111 002c FB68     		ldr	r3, [r7, #12]
 2112 002e 1B69     		ldr	r3, [r3, #16]
 2113 0030 1846     		mov	r0, r3
 2114 0032 FFF7FEFF 		bl	LOS_TaskDelete
 2115 0036 B860     		str	r0, [r7, #8]
 2116 0038 BB68     		ldr	r3, [r7, #8]
 2117 003a A3F10223 		sub	r3, r3, #33554944
 2118 003e 073B     		subs	r3, r3, #7
 2119 0040 1A2B     		cmp	r3, #26
 2120 0042 3FD8     		bhi	.L169
 2121 0044 01A2     		adr	r2, .L171
 2122 0046 52F823F0 		ldr	pc, [r2, r3, lsl #2]
 2123 004a 00BF     		.p2align 2
 2124              	.L171:
 2125 004c B9000000 		.word	.L170+1
ARM GAS  C:\Users\ADMINI~1\AppData\Local\Temp\ccvQoyy7.s 			page 50


 2126 0050 C5000000 		.word	.L169+1
 2127 0054 C5000000 		.word	.L169+1
 2128 0058 BF000000 		.word	.L172+1
 2129 005c C5000000 		.word	.L169+1
 2130 0060 C5000000 		.word	.L169+1
 2131 0064 C5000000 		.word	.L169+1
 2132 0068 C5000000 		.word	.L169+1
 2133 006c C5000000 		.word	.L169+1
 2134 0070 C5000000 		.word	.L169+1
 2135 0074 C5000000 		.word	.L169+1
 2136 0078 C5000000 		.word	.L169+1
 2137 007c C5000000 		.word	.L169+1
 2138 0080 B9000000 		.word	.L170+1
 2139 0084 C5000000 		.word	.L169+1
 2140 0088 C5000000 		.word	.L169+1
 2141 008c C5000000 		.word	.L169+1
 2142 0090 C5000000 		.word	.L169+1
 2143 0094 C5000000 		.word	.L169+1
 2144 0098 C5000000 		.word	.L169+1
 2145 009c C5000000 		.word	.L169+1
 2146 00a0 C5000000 		.word	.L169+1
 2147 00a4 C5000000 		.word	.L169+1
 2148 00a8 C5000000 		.word	.L169+1
 2149 00ac C5000000 		.word	.L169+1
 2150 00b0 C5000000 		.word	.L169+1
 2151 00b4 B9000000 		.word	.L170+1
 2152              		.p2align 1
 2153              	.L170:
 710:d:/LiteOS_Lab/iot_link/os/liteos/cmsis/2.0\cmsis_liteos2.c **** 
 711:d:/LiteOS_Lab/iot_link/os/liteos/cmsis/2.0\cmsis_liteos2.c ****     switch (uwRet)
 712:d:/LiteOS_Lab/iot_link/os/liteos/cmsis/2.0\cmsis_liteos2.c ****     {
 713:d:/LiteOS_Lab/iot_link/os/liteos/cmsis/2.0\cmsis_liteos2.c ****     case LOS_ERRNO_TSK_OPERATE_IDLE:
 714:d:/LiteOS_Lab/iot_link/os/liteos/cmsis/2.0\cmsis_liteos2.c ****     case LOS_ERRNO_TSK_SUSPEND_SWTMR_NOT_ALLOWED:
 715:d:/LiteOS_Lab/iot_link/os/liteos/cmsis/2.0\cmsis_liteos2.c ****     case LOS_ERRNO_TSK_ID_INVALID:
 716:d:/LiteOS_Lab/iot_link/os/liteos/cmsis/2.0\cmsis_liteos2.c ****         return osErrorParameter;
 2154              		.loc 1 716 16
 2155 00b8 6FF00303 		mvn	r3, #3
 2156 00bc 03E0     		b	.L167
 2157              	.L172:
 717:d:/LiteOS_Lab/iot_link/os/liteos/cmsis/2.0\cmsis_liteos2.c **** 
 718:d:/LiteOS_Lab/iot_link/os/liteos/cmsis/2.0\cmsis_liteos2.c ****     case LOS_ERRNO_TSK_NOT_CREATED:
 719:d:/LiteOS_Lab/iot_link/os/liteos/cmsis/2.0\cmsis_liteos2.c ****         return osErrorResource;
 2158              		.loc 1 719 16
 2159 00be 6FF00203 		mvn	r3, #2
 2160 00c2 00E0     		b	.L167
 2161              	.L169:
 720:d:/LiteOS_Lab/iot_link/os/liteos/cmsis/2.0\cmsis_liteos2.c **** 
 721:d:/LiteOS_Lab/iot_link/os/liteos/cmsis/2.0\cmsis_liteos2.c ****     default:
 722:d:/LiteOS_Lab/iot_link/os/liteos/cmsis/2.0\cmsis_liteos2.c ****         return osOK;
 2162              		.loc 1 722 16
 2163 00c4 0023     		movs	r3, #0
 2164              	.L167:
 723:d:/LiteOS_Lab/iot_link/os/liteos/cmsis/2.0\cmsis_liteos2.c ****     }
 724:d:/LiteOS_Lab/iot_link/os/liteos/cmsis/2.0\cmsis_liteos2.c **** }
 2165              		.loc 1 724 1
 2166 00c6 1846     		mov	r0, r3
 2167 00c8 1037     		adds	r7, r7, #16
ARM GAS  C:\Users\ADMINI~1\AppData\Local\Temp\ccvQoyy7.s 			page 51


 2168              	.LCFI113:
 2169              		.cfi_def_cfa_offset 8
 2170 00ca BD46     		mov	sp, r7
 2171              	.LCFI114:
 2172              		.cfi_def_cfa_register 13
 2173              		@ sp needed
 2174 00cc 80BD     		pop	{r7, pc}
 2175              		.cfi_endproc
 2176              	.LFE314:
 2178 00ce 00BF     		.section	.text.osThreadGetCount,"ax",%progbits
 2179              		.align	1
 2180              		.global	osThreadGetCount
 2181              		.syntax unified
 2182              		.thumb
 2183              		.thumb_func
 2184              		.fpu fpv4-sp-d16
 2186              	osThreadGetCount:
 2187              	.LFB315:
 725:d:/LiteOS_Lab/iot_link/os/liteos/cmsis/2.0\cmsis_liteos2.c **** 
 726:d:/LiteOS_Lab/iot_link/os/liteos/cmsis/2.0\cmsis_liteos2.c **** 
 727:d:/LiteOS_Lab/iot_link/os/liteos/cmsis/2.0\cmsis_liteos2.c **** uint32_t osThreadGetCount (void)
 728:d:/LiteOS_Lab/iot_link/os/liteos/cmsis/2.0\cmsis_liteos2.c **** {
 2188              		.loc 1 728 1
 2189              		.cfi_startproc
 2190              		@ args = 0, pretend = 0, frame = 8
 2191              		@ frame_needed = 1, uses_anonymous_args = 0
 2192 0000 80B5     		push	{r7, lr}
 2193              	.LCFI115:
 2194              		.cfi_def_cfa_offset 8
 2195              		.cfi_offset 7, -8
 2196              		.cfi_offset 14, -4
 2197 0002 82B0     		sub	sp, sp, #8
 2198              	.LCFI116:
 2199              		.cfi_def_cfa_offset 16
 2200 0004 00AF     		add	r7, sp, #0
 2201              	.LCFI117:
 2202              		.cfi_def_cfa_register 7
 729:d:/LiteOS_Lab/iot_link/os/liteos/cmsis/2.0\cmsis_liteos2.c ****     uint32_t uwCount = 0;
 2203              		.loc 1 729 14
 2204 0006 0023     		movs	r3, #0
 2205 0008 7B60     		str	r3, [r7, #4]
 730:d:/LiteOS_Lab/iot_link/os/liteos/cmsis/2.0\cmsis_liteos2.c ****     int index = 0;
 2206              		.loc 1 730 9
 2207 000a 0023     		movs	r3, #0
 2208 000c 3B60     		str	r3, [r7]
 731:d:/LiteOS_Lab/iot_link/os/liteos/cmsis/2.0\cmsis_liteos2.c **** 
 732:d:/LiteOS_Lab/iot_link/os/liteos/cmsis/2.0\cmsis_liteos2.c ****     if (OS_INT_ACTIVE)
 2209              		.loc 1 732 9
 2210 000e FFF7FEFF 		bl	osIntNumGet
 2211 0012 0346     		mov	r3, r0
 2212              		.loc 1 732 8
 2213 0014 002B     		cmp	r3, #0
 2214 0016 13D0     		beq	.L176
 733:d:/LiteOS_Lab/iot_link/os/liteos/cmsis/2.0\cmsis_liteos2.c ****     {
 734:d:/LiteOS_Lab/iot_link/os/liteos/cmsis/2.0\cmsis_liteos2.c ****         return 0U;
 2215              		.loc 1 734 16
 2216 0018 0023     		movs	r3, #0
ARM GAS  C:\Users\ADMINI~1\AppData\Local\Temp\ccvQoyy7.s 			page 52


 2217 001a 15E0     		b	.L175
 2218              	.L178:
 735:d:/LiteOS_Lab/iot_link/os/liteos/cmsis/2.0\cmsis_liteos2.c ****     }
 736:d:/LiteOS_Lab/iot_link/os/liteos/cmsis/2.0\cmsis_liteos2.c **** 
 737:d:/LiteOS_Lab/iot_link/os/liteos/cmsis/2.0\cmsis_liteos2.c ****     for(; index <= LOSCFG_BASE_CORE_TSK_LIMIT; index++)
 738:d:/LiteOS_Lab/iot_link/os/liteos/cmsis/2.0\cmsis_liteos2.c ****     {
 739:d:/LiteOS_Lab/iot_link/os/liteos/cmsis/2.0\cmsis_liteos2.c ****         if (!((OS_TCB_FROM_TID(index))->usTaskStatus & OS_TASK_STATUS_UNUSED))
 2219              		.loc 1 739 16
 2220 001c 0C4B     		ldr	r3, .L179
 2221 001e 1A68     		ldr	r2, [r3]
 2222 0020 3B68     		ldr	r3, [r7]
 2223 0022 5421     		movs	r1, #84
 2224 0024 01FB03F3 		mul	r3, r1, r3
 2225 0028 1344     		add	r3, r3, r2
 2226              		.loc 1 739 39
 2227 002a 9B88     		ldrh	r3, [r3, #4]
 2228              		.loc 1 739 54
 2229 002c 03F00103 		and	r3, r3, #1
 2230              		.loc 1 739 12
 2231 0030 002B     		cmp	r3, #0
 2232 0032 02D1     		bne	.L177
 740:d:/LiteOS_Lab/iot_link/os/liteos/cmsis/2.0\cmsis_liteos2.c ****         {
 741:d:/LiteOS_Lab/iot_link/os/liteos/cmsis/2.0\cmsis_liteos2.c ****             uwCount++;
 2233              		.loc 1 741 20
 2234 0034 7B68     		ldr	r3, [r7, #4]
 2235 0036 0133     		adds	r3, r3, #1
 2236 0038 7B60     		str	r3, [r7, #4]
 2237              	.L177:
 737:d:/LiteOS_Lab/iot_link/os/liteos/cmsis/2.0\cmsis_liteos2.c ****     {
 2238              		.loc 1 737 53
 2239 003a 3B68     		ldr	r3, [r7]
 2240 003c 0133     		adds	r3, r3, #1
 2241 003e 3B60     		str	r3, [r7]
 2242              	.L176:
 737:d:/LiteOS_Lab/iot_link/os/liteos/cmsis/2.0\cmsis_liteos2.c ****     {
 2243              		.loc 1 737 5 discriminator 1
 2244 0040 3B68     		ldr	r3, [r7]
 2245 0042 0F2B     		cmp	r3, #15
 2246 0044 EADD     		ble	.L178
 742:d:/LiteOS_Lab/iot_link/os/liteos/cmsis/2.0\cmsis_liteos2.c ****         }
 743:d:/LiteOS_Lab/iot_link/os/liteos/cmsis/2.0\cmsis_liteos2.c ****     }
 744:d:/LiteOS_Lab/iot_link/os/liteos/cmsis/2.0\cmsis_liteos2.c **** 
 745:d:/LiteOS_Lab/iot_link/os/liteos/cmsis/2.0\cmsis_liteos2.c ****     return uwCount;
 2247              		.loc 1 745 12
 2248 0046 7B68     		ldr	r3, [r7, #4]
 2249              	.L175:
 746:d:/LiteOS_Lab/iot_link/os/liteos/cmsis/2.0\cmsis_liteos2.c **** }
 2250              		.loc 1 746 1
 2251 0048 1846     		mov	r0, r3
 2252 004a 0837     		adds	r7, r7, #8
 2253              	.LCFI118:
 2254              		.cfi_def_cfa_offset 8
 2255 004c BD46     		mov	sp, r7
 2256              	.LCFI119:
 2257              		.cfi_def_cfa_register 13
 2258              		@ sp needed
 2259 004e 80BD     		pop	{r7, pc}
ARM GAS  C:\Users\ADMINI~1\AppData\Local\Temp\ccvQoyy7.s 			page 53


 2260              	.L180:
 2261              		.align	2
 2262              	.L179:
 2263 0050 00000000 		.word	g_pstTaskCBArray
 2264              		.cfi_endproc
 2265              	.LFE315:
 2267              		.section	.text.osDelay,"ax",%progbits
 2268              		.align	1
 2269              		.global	osDelay
 2270              		.syntax unified
 2271              		.thumb
 2272              		.thumb_func
 2273              		.fpu fpv4-sp-d16
 2275              	osDelay:
 2276              	.LFB316:
 747:d:/LiteOS_Lab/iot_link/os/liteos/cmsis/2.0\cmsis_liteos2.c **** 
 748:d:/LiteOS_Lab/iot_link/os/liteos/cmsis/2.0\cmsis_liteos2.c **** 
 749:d:/LiteOS_Lab/iot_link/os/liteos/cmsis/2.0\cmsis_liteos2.c **** //  ==== Generic Wait Functions ====
 750:d:/LiteOS_Lab/iot_link/os/liteos/cmsis/2.0\cmsis_liteos2.c **** 
 751:d:/LiteOS_Lab/iot_link/os/liteos/cmsis/2.0\cmsis_liteos2.c **** osStatus_t osDelay (uint32_t ticks)
 752:d:/LiteOS_Lab/iot_link/os/liteos/cmsis/2.0\cmsis_liteos2.c **** {
 2277              		.loc 1 752 1
 2278              		.cfi_startproc
 2279              		@ args = 0, pretend = 0, frame = 16
 2280              		@ frame_needed = 1, uses_anonymous_args = 0
 2281 0000 80B5     		push	{r7, lr}
 2282              	.LCFI120:
 2283              		.cfi_def_cfa_offset 8
 2284              		.cfi_offset 7, -8
 2285              		.cfi_offset 14, -4
 2286 0002 84B0     		sub	sp, sp, #16
 2287              	.LCFI121:
 2288              		.cfi_def_cfa_offset 24
 2289 0004 00AF     		add	r7, sp, #0
 2290              	.LCFI122:
 2291              		.cfi_def_cfa_register 7
 2292 0006 7860     		str	r0, [r7, #4]
 753:d:/LiteOS_Lab/iot_link/os/liteos/cmsis/2.0\cmsis_liteos2.c ****     UINT32 uwRet = 0;
 2293              		.loc 1 753 12
 2294 0008 0023     		movs	r3, #0
 2295 000a FB60     		str	r3, [r7, #12]
 754:d:/LiteOS_Lab/iot_link/os/liteos/cmsis/2.0\cmsis_liteos2.c **** 
 755:d:/LiteOS_Lab/iot_link/os/liteos/cmsis/2.0\cmsis_liteos2.c ****     uwRet = LOS_TaskDelay(ticks);
 2296              		.loc 1 755 13
 2297 000c 7868     		ldr	r0, [r7, #4]
 2298 000e FFF7FEFF 		bl	LOS_TaskDelay
 2299 0012 F860     		str	r0, [r7, #12]
 756:d:/LiteOS_Lab/iot_link/os/liteos/cmsis/2.0\cmsis_liteos2.c ****     if(uwRet == LOS_OK)
 2300              		.loc 1 756 7
 2301 0014 FB68     		ldr	r3, [r7, #12]
 2302 0016 002B     		cmp	r3, #0
 2303 0018 01D1     		bne	.L182
 757:d:/LiteOS_Lab/iot_link/os/liteos/cmsis/2.0\cmsis_liteos2.c ****     {
 758:d:/LiteOS_Lab/iot_link/os/liteos/cmsis/2.0\cmsis_liteos2.c ****         return osOK;
 2304              		.loc 1 758 16
 2305 001a 0023     		movs	r3, #0
 2306 001c 01E0     		b	.L183
ARM GAS  C:\Users\ADMINI~1\AppData\Local\Temp\ccvQoyy7.s 			page 54


 2307              	.L182:
 759:d:/LiteOS_Lab/iot_link/os/liteos/cmsis/2.0\cmsis_liteos2.c ****     }
 760:d:/LiteOS_Lab/iot_link/os/liteos/cmsis/2.0\cmsis_liteos2.c ****     else
 761:d:/LiteOS_Lab/iot_link/os/liteos/cmsis/2.0\cmsis_liteos2.c ****     {
 762:d:/LiteOS_Lab/iot_link/os/liteos/cmsis/2.0\cmsis_liteos2.c ****         return osError;
 2308              		.loc 1 762 16
 2309 001e 4FF0FF33 		mov	r3, #-1
 2310              	.L183:
 763:d:/LiteOS_Lab/iot_link/os/liteos/cmsis/2.0\cmsis_liteos2.c ****     }
 764:d:/LiteOS_Lab/iot_link/os/liteos/cmsis/2.0\cmsis_liteos2.c **** }
 2311              		.loc 1 764 1
 2312 0022 1846     		mov	r0, r3
 2313 0024 1037     		adds	r7, r7, #16
 2314              	.LCFI123:
 2315              		.cfi_def_cfa_offset 8
 2316 0026 BD46     		mov	sp, r7
 2317              	.LCFI124:
 2318              		.cfi_def_cfa_register 13
 2319              		@ sp needed
 2320 0028 80BD     		pop	{r7, pc}
 2321              		.cfi_endproc
 2322              	.LFE316:
 2324              		.section	.text.osDelayUntil,"ax",%progbits
 2325              		.align	1
 2326              		.global	osDelayUntil
 2327              		.syntax unified
 2328              		.thumb
 2329              		.thumb_func
 2330              		.fpu fpv4-sp-d16
 2332              	osDelayUntil:
 2333              	.LFB317:
 765:d:/LiteOS_Lab/iot_link/os/liteos/cmsis/2.0\cmsis_liteos2.c **** 
 766:d:/LiteOS_Lab/iot_link/os/liteos/cmsis/2.0\cmsis_liteos2.c **** 
 767:d:/LiteOS_Lab/iot_link/os/liteos/cmsis/2.0\cmsis_liteos2.c **** osStatus_t osDelayUntil (uint64_t ticks)
 768:d:/LiteOS_Lab/iot_link/os/liteos/cmsis/2.0\cmsis_liteos2.c **** {
 2334              		.loc 1 768 1
 2335              		.cfi_startproc
 2336              		@ args = 0, pretend = 0, frame = 24
 2337              		@ frame_needed = 1, uses_anonymous_args = 0
 2338 0000 80B5     		push	{r7, lr}
 2339              	.LCFI125:
 2340              		.cfi_def_cfa_offset 8
 2341              		.cfi_offset 7, -8
 2342              		.cfi_offset 14, -4
 2343 0002 86B0     		sub	sp, sp, #24
 2344              	.LCFI126:
 2345              		.cfi_def_cfa_offset 32
 2346 0004 00AF     		add	r7, sp, #0
 2347              	.LCFI127:
 2348              		.cfi_def_cfa_register 7
 2349 0006 C7E90001 		strd	r0, [r7]
 769:d:/LiteOS_Lab/iot_link/os/liteos/cmsis/2.0\cmsis_liteos2.c ****     UINT32 uwRet;
 770:d:/LiteOS_Lab/iot_link/os/liteos/cmsis/2.0\cmsis_liteos2.c ****     UINT32 uwTicks;
 771:d:/LiteOS_Lab/iot_link/os/liteos/cmsis/2.0\cmsis_liteos2.c ****     UINT64 tickCount = osKernelGetTickCount();
 2350              		.loc 1 771 24
 2351 000a FFF7FEFF 		bl	osKernelGetTickCount
 2352 000e C7E90401 		strd	r0, [r7, #16]
ARM GAS  C:\Users\ADMINI~1\AppData\Local\Temp\ccvQoyy7.s 			page 55


 772:d:/LiteOS_Lab/iot_link/os/liteos/cmsis/2.0\cmsis_liteos2.c **** 
 773:d:/LiteOS_Lab/iot_link/os/liteos/cmsis/2.0\cmsis_liteos2.c ****     if(ticks < tickCount)
 2353              		.loc 1 773 7
 2354 0012 D7E90001 		ldrd	r0, [r7]
 2355 0016 D7E90423 		ldrd	r2, [r7, #16]
 2356 001a 9942     		cmp	r1, r3
 2357 001c 08BF     		it	eq
 2358 001e 9042     		cmpeq	r0, r2
 2359 0020 02D2     		bcs	.L185
 774:d:/LiteOS_Lab/iot_link/os/liteos/cmsis/2.0\cmsis_liteos2.c ****     {
 775:d:/LiteOS_Lab/iot_link/os/liteos/cmsis/2.0\cmsis_liteos2.c ****         return osError;
 2360              		.loc 1 775 16
 2361 0022 4FF0FF33 		mov	r3, #-1
 2362 0026 0EE0     		b	.L186
 2363              	.L185:
 776:d:/LiteOS_Lab/iot_link/os/liteos/cmsis/2.0\cmsis_liteos2.c ****     }
 777:d:/LiteOS_Lab/iot_link/os/liteos/cmsis/2.0\cmsis_liteos2.c **** 
 778:d:/LiteOS_Lab/iot_link/os/liteos/cmsis/2.0\cmsis_liteos2.c ****     uwTicks = (UINT32)(ticks - tickCount);
 2364              		.loc 1 778 15
 2365 0028 3A68     		ldr	r2, [r7]
 2366 002a 3B69     		ldr	r3, [r7, #16]
 2367              		.loc 1 778 13
 2368 002c D31A     		subs	r3, r2, r3
 2369 002e FB60     		str	r3, [r7, #12]
 779:d:/LiteOS_Lab/iot_link/os/liteos/cmsis/2.0\cmsis_liteos2.c **** 
 780:d:/LiteOS_Lab/iot_link/os/liteos/cmsis/2.0\cmsis_liteos2.c ****     uwRet = LOS_TaskDelay(uwTicks);
 2370              		.loc 1 780 13
 2371 0030 F868     		ldr	r0, [r7, #12]
 2372 0032 FFF7FEFF 		bl	LOS_TaskDelay
 2373 0036 B860     		str	r0, [r7, #8]
 781:d:/LiteOS_Lab/iot_link/os/liteos/cmsis/2.0\cmsis_liteos2.c ****     if(uwRet == LOS_OK)
 2374              		.loc 1 781 7
 2375 0038 BB68     		ldr	r3, [r7, #8]
 2376 003a 002B     		cmp	r3, #0
 2377 003c 01D1     		bne	.L187
 782:d:/LiteOS_Lab/iot_link/os/liteos/cmsis/2.0\cmsis_liteos2.c ****     {
 783:d:/LiteOS_Lab/iot_link/os/liteos/cmsis/2.0\cmsis_liteos2.c ****         return osOK;
 2378              		.loc 1 783 16
 2379 003e 0023     		movs	r3, #0
 2380 0040 01E0     		b	.L186
 2381              	.L187:
 784:d:/LiteOS_Lab/iot_link/os/liteos/cmsis/2.0\cmsis_liteos2.c ****     }
 785:d:/LiteOS_Lab/iot_link/os/liteos/cmsis/2.0\cmsis_liteos2.c ****     else
 786:d:/LiteOS_Lab/iot_link/os/liteos/cmsis/2.0\cmsis_liteos2.c ****     {
 787:d:/LiteOS_Lab/iot_link/os/liteos/cmsis/2.0\cmsis_liteos2.c ****         return osError;
 2382              		.loc 1 787 16
 2383 0042 4FF0FF33 		mov	r3, #-1
 2384              	.L186:
 788:d:/LiteOS_Lab/iot_link/os/liteos/cmsis/2.0\cmsis_liteos2.c ****     }
 789:d:/LiteOS_Lab/iot_link/os/liteos/cmsis/2.0\cmsis_liteos2.c **** }
 2385              		.loc 1 789 1
 2386 0046 1846     		mov	r0, r3
 2387 0048 1837     		adds	r7, r7, #24
 2388              	.LCFI128:
 2389              		.cfi_def_cfa_offset 8
 2390 004a BD46     		mov	sp, r7
 2391              	.LCFI129:
ARM GAS  C:\Users\ADMINI~1\AppData\Local\Temp\ccvQoyy7.s 			page 56


 2392              		.cfi_def_cfa_register 13
 2393              		@ sp needed
 2394 004c 80BD     		pop	{r7, pc}
 2395              		.cfi_endproc
 2396              	.LFE317:
 2398              		.section	.text.osEventFlagsNew,"ax",%progbits
 2399              		.align	1
 2400              		.global	osEventFlagsNew
 2401              		.syntax unified
 2402              		.thumb
 2403              		.thumb_func
 2404              		.fpu fpv4-sp-d16
 2406              	osEventFlagsNew:
 2407              	.LFB318:
 790:d:/LiteOS_Lab/iot_link/os/liteos/cmsis/2.0\cmsis_liteos2.c **** 
 791:d:/LiteOS_Lab/iot_link/os/liteos/cmsis/2.0\cmsis_liteos2.c **** //  ==== Timer Management Functions ====
 792:d:/LiteOS_Lab/iot_link/os/liteos/cmsis/2.0\cmsis_liteos2.c **** #if (LOSCFG_BASE_CORE_SWTMR == YES)
 793:d:/LiteOS_Lab/iot_link/os/liteos/cmsis/2.0\cmsis_liteos2.c **** osTimerId_t osTimerNew (osTimerFunc_t func, osTimerType_t type, void *argument, const osTimerAttr_t
 794:d:/LiteOS_Lab/iot_link/os/liteos/cmsis/2.0\cmsis_liteos2.c **** {
 795:d:/LiteOS_Lab/iot_link/os/liteos/cmsis/2.0\cmsis_liteos2.c ****     UNUSED(attr);
 796:d:/LiteOS_Lab/iot_link/os/liteos/cmsis/2.0\cmsis_liteos2.c ****     UINT16 usSwTmrID;
 797:d:/LiteOS_Lab/iot_link/os/liteos/cmsis/2.0\cmsis_liteos2.c ****     UINT8 mode;
 798:d:/LiteOS_Lab/iot_link/os/liteos/cmsis/2.0\cmsis_liteos2.c **** 
 799:d:/LiteOS_Lab/iot_link/os/liteos/cmsis/2.0\cmsis_liteos2.c ****     if ((OS_INT_ACTIVE) || (NULL == func) ||
 800:d:/LiteOS_Lab/iot_link/os/liteos/cmsis/2.0\cmsis_liteos2.c ****             ((osTimerOnce != type) && (osTimerPeriodic != type)))
 801:d:/LiteOS_Lab/iot_link/os/liteos/cmsis/2.0\cmsis_liteos2.c ****     {
 802:d:/LiteOS_Lab/iot_link/os/liteos/cmsis/2.0\cmsis_liteos2.c ****         return (osTimerId_t)NULL;
 803:d:/LiteOS_Lab/iot_link/os/liteos/cmsis/2.0\cmsis_liteos2.c ****     }
 804:d:/LiteOS_Lab/iot_link/os/liteos/cmsis/2.0\cmsis_liteos2.c **** 
 805:d:/LiteOS_Lab/iot_link/os/liteos/cmsis/2.0\cmsis_liteos2.c ****     if(osTimerOnce == type)
 806:d:/LiteOS_Lab/iot_link/os/liteos/cmsis/2.0\cmsis_liteos2.c ****     {
 807:d:/LiteOS_Lab/iot_link/os/liteos/cmsis/2.0\cmsis_liteos2.c ****         mode = LOS_SWTMR_MODE_NO_SELFDELETE;
 808:d:/LiteOS_Lab/iot_link/os/liteos/cmsis/2.0\cmsis_liteos2.c ****     }
 809:d:/LiteOS_Lab/iot_link/os/liteos/cmsis/2.0\cmsis_liteos2.c ****     else
 810:d:/LiteOS_Lab/iot_link/os/liteos/cmsis/2.0\cmsis_liteos2.c ****     {
 811:d:/LiteOS_Lab/iot_link/os/liteos/cmsis/2.0\cmsis_liteos2.c ****         mode = LOS_SWTMR_MODE_PERIOD;
 812:d:/LiteOS_Lab/iot_link/os/liteos/cmsis/2.0\cmsis_liteos2.c ****     }
 813:d:/LiteOS_Lab/iot_link/os/liteos/cmsis/2.0\cmsis_liteos2.c **** #if (LOSCFG_BASE_CORE_SWTMR_ALIGN == YES)
 814:d:/LiteOS_Lab/iot_link/os/liteos/cmsis/2.0\cmsis_liteos2.c ****     if (LOS_OK != LOS_SwtmrCreate(1, mode, (SWTMR_PROC_FUNC)func, &usSwTmrID, (UINT32)argument, OS_
 815:d:/LiteOS_Lab/iot_link/os/liteos/cmsis/2.0\cmsis_liteos2.c ****     {
 816:d:/LiteOS_Lab/iot_link/os/liteos/cmsis/2.0\cmsis_liteos2.c ****         return (osTimerId_t)NULL;
 817:d:/LiteOS_Lab/iot_link/os/liteos/cmsis/2.0\cmsis_liteos2.c ****     }
 818:d:/LiteOS_Lab/iot_link/os/liteos/cmsis/2.0\cmsis_liteos2.c **** #else
 819:d:/LiteOS_Lab/iot_link/os/liteos/cmsis/2.0\cmsis_liteos2.c ****     if (LOS_OK != LOS_SwtmrCreate(1, mode, (SWTMR_PROC_FUNC)func, &usSwTmrID, (UINT32)argument))
 820:d:/LiteOS_Lab/iot_link/os/liteos/cmsis/2.0\cmsis_liteos2.c ****     {
 821:d:/LiteOS_Lab/iot_link/os/liteos/cmsis/2.0\cmsis_liteos2.c ****         return (osTimerId_t)NULL;
 822:d:/LiteOS_Lab/iot_link/os/liteos/cmsis/2.0\cmsis_liteos2.c ****     }
 823:d:/LiteOS_Lab/iot_link/os/liteos/cmsis/2.0\cmsis_liteos2.c **** #endif
 824:d:/LiteOS_Lab/iot_link/os/liteos/cmsis/2.0\cmsis_liteos2.c **** 
 825:d:/LiteOS_Lab/iot_link/os/liteos/cmsis/2.0\cmsis_liteos2.c ****     return (osTimerId_t)OS_SWT_FROM_SID(usSwTmrID);
 826:d:/LiteOS_Lab/iot_link/os/liteos/cmsis/2.0\cmsis_liteos2.c **** }
 827:d:/LiteOS_Lab/iot_link/os/liteos/cmsis/2.0\cmsis_liteos2.c **** 
 828:d:/LiteOS_Lab/iot_link/os/liteos/cmsis/2.0\cmsis_liteos2.c **** 
 829:d:/LiteOS_Lab/iot_link/os/liteos/cmsis/2.0\cmsis_liteos2.c **** osStatus_t osTimerStart (osTimerId_t timer_id, uint32_t ticks)
 830:d:/LiteOS_Lab/iot_link/os/liteos/cmsis/2.0\cmsis_liteos2.c **** {
 831:d:/LiteOS_Lab/iot_link/os/liteos/cmsis/2.0\cmsis_liteos2.c ****     UINT32 uwRet;
 832:d:/LiteOS_Lab/iot_link/os/liteos/cmsis/2.0\cmsis_liteos2.c ****     SWTMR_CTRL_S *pstSwtmr;
ARM GAS  C:\Users\ADMINI~1\AppData\Local\Temp\ccvQoyy7.s 			page 57


 833:d:/LiteOS_Lab/iot_link/os/liteos/cmsis/2.0\cmsis_liteos2.c **** 
 834:d:/LiteOS_Lab/iot_link/os/liteos/cmsis/2.0\cmsis_liteos2.c ****     if ((0 == ticks) || (NULL == timer_id))
 835:d:/LiteOS_Lab/iot_link/os/liteos/cmsis/2.0\cmsis_liteos2.c ****     {
 836:d:/LiteOS_Lab/iot_link/os/liteos/cmsis/2.0\cmsis_liteos2.c ****         return osErrorParameter;
 837:d:/LiteOS_Lab/iot_link/os/liteos/cmsis/2.0\cmsis_liteos2.c ****     }
 838:d:/LiteOS_Lab/iot_link/os/liteos/cmsis/2.0\cmsis_liteos2.c **** 
 839:d:/LiteOS_Lab/iot_link/os/liteos/cmsis/2.0\cmsis_liteos2.c ****     pstSwtmr = (SWTMR_CTRL_S *)timer_id;
 840:d:/LiteOS_Lab/iot_link/os/liteos/cmsis/2.0\cmsis_liteos2.c ****     pstSwtmr->uwInterval = LOS_Tick2MS(ticks);
 841:d:/LiteOS_Lab/iot_link/os/liteos/cmsis/2.0\cmsis_liteos2.c ****     //pstSwtmr->uwExpiry = LOS_Tick2MS(ticks);
 842:d:/LiteOS_Lab/iot_link/os/liteos/cmsis/2.0\cmsis_liteos2.c ****     uwRet = LOS_SwtmrStart(pstSwtmr->usTimerID);
 843:d:/LiteOS_Lab/iot_link/os/liteos/cmsis/2.0\cmsis_liteos2.c ****     if (LOS_OK == uwRet)
 844:d:/LiteOS_Lab/iot_link/os/liteos/cmsis/2.0\cmsis_liteos2.c ****     {
 845:d:/LiteOS_Lab/iot_link/os/liteos/cmsis/2.0\cmsis_liteos2.c ****         return osOK;
 846:d:/LiteOS_Lab/iot_link/os/liteos/cmsis/2.0\cmsis_liteos2.c ****     }
 847:d:/LiteOS_Lab/iot_link/os/liteos/cmsis/2.0\cmsis_liteos2.c ****     else if (LOS_ERRNO_SWTMR_ID_INVALID == uwRet)
 848:d:/LiteOS_Lab/iot_link/os/liteos/cmsis/2.0\cmsis_liteos2.c ****     {
 849:d:/LiteOS_Lab/iot_link/os/liteos/cmsis/2.0\cmsis_liteos2.c ****         return osErrorParameter;
 850:d:/LiteOS_Lab/iot_link/os/liteos/cmsis/2.0\cmsis_liteos2.c ****     }
 851:d:/LiteOS_Lab/iot_link/os/liteos/cmsis/2.0\cmsis_liteos2.c ****     else
 852:d:/LiteOS_Lab/iot_link/os/liteos/cmsis/2.0\cmsis_liteos2.c ****     {
 853:d:/LiteOS_Lab/iot_link/os/liteos/cmsis/2.0\cmsis_liteos2.c ****         return osErrorResource;
 854:d:/LiteOS_Lab/iot_link/os/liteos/cmsis/2.0\cmsis_liteos2.c ****     }
 855:d:/LiteOS_Lab/iot_link/os/liteos/cmsis/2.0\cmsis_liteos2.c **** }
 856:d:/LiteOS_Lab/iot_link/os/liteos/cmsis/2.0\cmsis_liteos2.c **** 
 857:d:/LiteOS_Lab/iot_link/os/liteos/cmsis/2.0\cmsis_liteos2.c **** 
 858:d:/LiteOS_Lab/iot_link/os/liteos/cmsis/2.0\cmsis_liteos2.c **** const char *osTimerGetName(osTimerId_t timer_id)
 859:d:/LiteOS_Lab/iot_link/os/liteos/cmsis/2.0\cmsis_liteos2.c **** {
 860:d:/LiteOS_Lab/iot_link/os/liteos/cmsis/2.0\cmsis_liteos2.c ****     UNUSED(timer_id);
 861:d:/LiteOS_Lab/iot_link/os/liteos/cmsis/2.0\cmsis_liteos2.c ****     return (const char *)NULL;
 862:d:/LiteOS_Lab/iot_link/os/liteos/cmsis/2.0\cmsis_liteos2.c **** }
 863:d:/LiteOS_Lab/iot_link/os/liteos/cmsis/2.0\cmsis_liteos2.c **** 
 864:d:/LiteOS_Lab/iot_link/os/liteos/cmsis/2.0\cmsis_liteos2.c **** 
 865:d:/LiteOS_Lab/iot_link/os/liteos/cmsis/2.0\cmsis_liteos2.c **** osStatus_t osTimerStop (osTimerId_t timer_id)
 866:d:/LiteOS_Lab/iot_link/os/liteos/cmsis/2.0\cmsis_liteos2.c **** {
 867:d:/LiteOS_Lab/iot_link/os/liteos/cmsis/2.0\cmsis_liteos2.c ****     UINT32 uwRet;
 868:d:/LiteOS_Lab/iot_link/os/liteos/cmsis/2.0\cmsis_liteos2.c ****     SWTMR_CTRL_S *pstSwtmr = (SWTMR_CTRL_S *)timer_id;
 869:d:/LiteOS_Lab/iot_link/os/liteos/cmsis/2.0\cmsis_liteos2.c **** 
 870:d:/LiteOS_Lab/iot_link/os/liteos/cmsis/2.0\cmsis_liteos2.c ****     if (OS_INT_ACTIVE)
 871:d:/LiteOS_Lab/iot_link/os/liteos/cmsis/2.0\cmsis_liteos2.c ****     {
 872:d:/LiteOS_Lab/iot_link/os/liteos/cmsis/2.0\cmsis_liteos2.c ****         return osErrorISR;
 873:d:/LiteOS_Lab/iot_link/os/liteos/cmsis/2.0\cmsis_liteos2.c ****     }
 874:d:/LiteOS_Lab/iot_link/os/liteos/cmsis/2.0\cmsis_liteos2.c **** 
 875:d:/LiteOS_Lab/iot_link/os/liteos/cmsis/2.0\cmsis_liteos2.c ****     if (NULL == pstSwtmr)
 876:d:/LiteOS_Lab/iot_link/os/liteos/cmsis/2.0\cmsis_liteos2.c ****     {
 877:d:/LiteOS_Lab/iot_link/os/liteos/cmsis/2.0\cmsis_liteos2.c ****         return osErrorParameter;
 878:d:/LiteOS_Lab/iot_link/os/liteos/cmsis/2.0\cmsis_liteos2.c ****     }
 879:d:/LiteOS_Lab/iot_link/os/liteos/cmsis/2.0\cmsis_liteos2.c **** 
 880:d:/LiteOS_Lab/iot_link/os/liteos/cmsis/2.0\cmsis_liteos2.c ****     uwRet = LOS_SwtmrStop(pstSwtmr->usTimerID);
 881:d:/LiteOS_Lab/iot_link/os/liteos/cmsis/2.0\cmsis_liteos2.c ****     if (LOS_OK == uwRet)
 882:d:/LiteOS_Lab/iot_link/os/liteos/cmsis/2.0\cmsis_liteos2.c ****     {
 883:d:/LiteOS_Lab/iot_link/os/liteos/cmsis/2.0\cmsis_liteos2.c ****         return osOK;
 884:d:/LiteOS_Lab/iot_link/os/liteos/cmsis/2.0\cmsis_liteos2.c ****     }
 885:d:/LiteOS_Lab/iot_link/os/liteos/cmsis/2.0\cmsis_liteos2.c ****     else if (LOS_ERRNO_SWTMR_ID_INVALID == uwRet)
 886:d:/LiteOS_Lab/iot_link/os/liteos/cmsis/2.0\cmsis_liteos2.c ****     {
 887:d:/LiteOS_Lab/iot_link/os/liteos/cmsis/2.0\cmsis_liteos2.c ****         return osErrorParameter;
 888:d:/LiteOS_Lab/iot_link/os/liteos/cmsis/2.0\cmsis_liteos2.c ****     }
 889:d:/LiteOS_Lab/iot_link/os/liteos/cmsis/2.0\cmsis_liteos2.c ****     else
ARM GAS  C:\Users\ADMINI~1\AppData\Local\Temp\ccvQoyy7.s 			page 58


 890:d:/LiteOS_Lab/iot_link/os/liteos/cmsis/2.0\cmsis_liteos2.c ****     {
 891:d:/LiteOS_Lab/iot_link/os/liteos/cmsis/2.0\cmsis_liteos2.c ****         return osErrorResource;
 892:d:/LiteOS_Lab/iot_link/os/liteos/cmsis/2.0\cmsis_liteos2.c ****     }
 893:d:/LiteOS_Lab/iot_link/os/liteos/cmsis/2.0\cmsis_liteos2.c **** }
 894:d:/LiteOS_Lab/iot_link/os/liteos/cmsis/2.0\cmsis_liteos2.c **** 
 895:d:/LiteOS_Lab/iot_link/os/liteos/cmsis/2.0\cmsis_liteos2.c **** 
 896:d:/LiteOS_Lab/iot_link/os/liteos/cmsis/2.0\cmsis_liteos2.c **** uint32_t osTimerIsRunning (osTimerId_t timer_id)
 897:d:/LiteOS_Lab/iot_link/os/liteos/cmsis/2.0\cmsis_liteos2.c **** {
 898:d:/LiteOS_Lab/iot_link/os/liteos/cmsis/2.0\cmsis_liteos2.c ****     if ((OS_INT_ACTIVE) || (NULL == timer_id))
 899:d:/LiteOS_Lab/iot_link/os/liteos/cmsis/2.0\cmsis_liteos2.c ****     {
 900:d:/LiteOS_Lab/iot_link/os/liteos/cmsis/2.0\cmsis_liteos2.c ****         return 0;
 901:d:/LiteOS_Lab/iot_link/os/liteos/cmsis/2.0\cmsis_liteos2.c ****     }
 902:d:/LiteOS_Lab/iot_link/os/liteos/cmsis/2.0\cmsis_liteos2.c **** 
 903:d:/LiteOS_Lab/iot_link/os/liteos/cmsis/2.0\cmsis_liteos2.c ****     return (OS_SWTMR_STATUS_TICKING == ((SWTMR_CTRL_S *)timer_id)->ucState);
 904:d:/LiteOS_Lab/iot_link/os/liteos/cmsis/2.0\cmsis_liteos2.c **** }
 905:d:/LiteOS_Lab/iot_link/os/liteos/cmsis/2.0\cmsis_liteos2.c **** 
 906:d:/LiteOS_Lab/iot_link/os/liteos/cmsis/2.0\cmsis_liteos2.c **** 
 907:d:/LiteOS_Lab/iot_link/os/liteos/cmsis/2.0\cmsis_liteos2.c **** osStatus_t osTimerDelete (osTimerId_t timer_id)
 908:d:/LiteOS_Lab/iot_link/os/liteos/cmsis/2.0\cmsis_liteos2.c **** {
 909:d:/LiteOS_Lab/iot_link/os/liteos/cmsis/2.0\cmsis_liteos2.c ****     UINT32 uwRet;
 910:d:/LiteOS_Lab/iot_link/os/liteos/cmsis/2.0\cmsis_liteos2.c ****     SWTMR_CTRL_S  *pstSwtmr = (SWTMR_CTRL_S *)timer_id;
 911:d:/LiteOS_Lab/iot_link/os/liteos/cmsis/2.0\cmsis_liteos2.c **** 
 912:d:/LiteOS_Lab/iot_link/os/liteos/cmsis/2.0\cmsis_liteos2.c ****     if (OS_INT_ACTIVE)
 913:d:/LiteOS_Lab/iot_link/os/liteos/cmsis/2.0\cmsis_liteos2.c ****     {
 914:d:/LiteOS_Lab/iot_link/os/liteos/cmsis/2.0\cmsis_liteos2.c ****         return osErrorISR;
 915:d:/LiteOS_Lab/iot_link/os/liteos/cmsis/2.0\cmsis_liteos2.c ****     }
 916:d:/LiteOS_Lab/iot_link/os/liteos/cmsis/2.0\cmsis_liteos2.c **** 
 917:d:/LiteOS_Lab/iot_link/os/liteos/cmsis/2.0\cmsis_liteos2.c ****     if (NULL == pstSwtmr)
 918:d:/LiteOS_Lab/iot_link/os/liteos/cmsis/2.0\cmsis_liteos2.c ****     {
 919:d:/LiteOS_Lab/iot_link/os/liteos/cmsis/2.0\cmsis_liteos2.c ****         return osErrorParameter;
 920:d:/LiteOS_Lab/iot_link/os/liteos/cmsis/2.0\cmsis_liteos2.c ****     }
 921:d:/LiteOS_Lab/iot_link/os/liteos/cmsis/2.0\cmsis_liteos2.c **** 
 922:d:/LiteOS_Lab/iot_link/os/liteos/cmsis/2.0\cmsis_liteos2.c ****     uwRet = LOS_SwtmrDelete(pstSwtmr->usTimerID);
 923:d:/LiteOS_Lab/iot_link/os/liteos/cmsis/2.0\cmsis_liteos2.c ****     if (LOS_OK == uwRet)
 924:d:/LiteOS_Lab/iot_link/os/liteos/cmsis/2.0\cmsis_liteos2.c ****     {
 925:d:/LiteOS_Lab/iot_link/os/liteos/cmsis/2.0\cmsis_liteos2.c ****         return osOK;
 926:d:/LiteOS_Lab/iot_link/os/liteos/cmsis/2.0\cmsis_liteos2.c ****     }
 927:d:/LiteOS_Lab/iot_link/os/liteos/cmsis/2.0\cmsis_liteos2.c ****     else if (LOS_ERRNO_SWTMR_ID_INVALID == uwRet)
 928:d:/LiteOS_Lab/iot_link/os/liteos/cmsis/2.0\cmsis_liteos2.c ****     {
 929:d:/LiteOS_Lab/iot_link/os/liteos/cmsis/2.0\cmsis_liteos2.c ****         return osErrorParameter;
 930:d:/LiteOS_Lab/iot_link/os/liteos/cmsis/2.0\cmsis_liteos2.c ****     }
 931:d:/LiteOS_Lab/iot_link/os/liteos/cmsis/2.0\cmsis_liteos2.c ****     else
 932:d:/LiteOS_Lab/iot_link/os/liteos/cmsis/2.0\cmsis_liteos2.c ****     {
 933:d:/LiteOS_Lab/iot_link/os/liteos/cmsis/2.0\cmsis_liteos2.c ****         return osErrorResource;
 934:d:/LiteOS_Lab/iot_link/os/liteos/cmsis/2.0\cmsis_liteos2.c ****     }
 935:d:/LiteOS_Lab/iot_link/os/liteos/cmsis/2.0\cmsis_liteos2.c **** }
 936:d:/LiteOS_Lab/iot_link/os/liteos/cmsis/2.0\cmsis_liteos2.c **** #endif
 937:d:/LiteOS_Lab/iot_link/os/liteos/cmsis/2.0\cmsis_liteos2.c **** 
 938:d:/LiteOS_Lab/iot_link/os/liteos/cmsis/2.0\cmsis_liteos2.c **** osEventFlagsId_t osEventFlagsNew (const osEventFlagsAttr_t *attr)
 939:d:/LiteOS_Lab/iot_link/os/liteos/cmsis/2.0\cmsis_liteos2.c **** {
 2408              		.loc 1 939 1
 2409              		.cfi_startproc
 2410              		@ args = 0, pretend = 0, frame = 16
 2411              		@ frame_needed = 1, uses_anonymous_args = 0
 2412 0000 80B5     		push	{r7, lr}
 2413              	.LCFI130:
 2414              		.cfi_def_cfa_offset 8
ARM GAS  C:\Users\ADMINI~1\AppData\Local\Temp\ccvQoyy7.s 			page 59


 2415              		.cfi_offset 7, -8
 2416              		.cfi_offset 14, -4
 2417 0002 84B0     		sub	sp, sp, #16
 2418              	.LCFI131:
 2419              		.cfi_def_cfa_offset 24
 2420 0004 00AF     		add	r7, sp, #0
 2421              	.LCFI132:
 2422              		.cfi_def_cfa_register 7
 2423 0006 7860     		str	r0, [r7, #4]
 940:d:/LiteOS_Lab/iot_link/os/liteos/cmsis/2.0\cmsis_liteos2.c ****     PEVENT_CB_S pstEventCB = NULL;
 2424              		.loc 1 940 17
 2425 0008 0023     		movs	r3, #0
 2426 000a FB60     		str	r3, [r7, #12]
 941:d:/LiteOS_Lab/iot_link/os/liteos/cmsis/2.0\cmsis_liteos2.c ****     UINT32 uwRet;
 942:d:/LiteOS_Lab/iot_link/os/liteos/cmsis/2.0\cmsis_liteos2.c **** 
 943:d:/LiteOS_Lab/iot_link/os/liteos/cmsis/2.0\cmsis_liteos2.c ****     UNUSED(attr);
 944:d:/LiteOS_Lab/iot_link/os/liteos/cmsis/2.0\cmsis_liteos2.c **** 
 945:d:/LiteOS_Lab/iot_link/os/liteos/cmsis/2.0\cmsis_liteos2.c ****     if (OS_INT_ACTIVE)
 2427              		.loc 1 945 9
 2428 000c FFF7FEFF 		bl	osIntNumGet
 2429 0010 0346     		mov	r3, r0
 2430              		.loc 1 945 8
 2431 0012 002B     		cmp	r3, #0
 2432 0014 01D0     		beq	.L189
 946:d:/LiteOS_Lab/iot_link/os/liteos/cmsis/2.0\cmsis_liteos2.c ****     {
 947:d:/LiteOS_Lab/iot_link/os/liteos/cmsis/2.0\cmsis_liteos2.c ****         return (osEventFlagsId_t)NULL;
 2433              		.loc 1 947 16
 2434 0016 0023     		movs	r3, #0
 2435 0018 16E0     		b	.L190
 2436              	.L189:
 948:d:/LiteOS_Lab/iot_link/os/liteos/cmsis/2.0\cmsis_liteos2.c ****     }
 949:d:/LiteOS_Lab/iot_link/os/liteos/cmsis/2.0\cmsis_liteos2.c **** 
 950:d:/LiteOS_Lab/iot_link/os/liteos/cmsis/2.0\cmsis_liteos2.c ****     pstEventCB = (PEVENT_CB_S)LOS_MemAlloc(m_aucSysMem0, sizeof(EVENT_CB_S));
 2437              		.loc 1 950 31
 2438 001a 0D4B     		ldr	r3, .L193
 2439 001c 1B68     		ldr	r3, [r3]
 2440 001e 0C21     		movs	r1, #12
 2441 0020 1846     		mov	r0, r3
 2442 0022 FFF7FEFF 		bl	LOS_MemAlloc
 2443 0026 F860     		str	r0, [r7, #12]
 951:d:/LiteOS_Lab/iot_link/os/liteos/cmsis/2.0\cmsis_liteos2.c ****     if(pstEventCB == NULL )
 2444              		.loc 1 951 7
 2445 0028 FB68     		ldr	r3, [r7, #12]
 2446 002a 002B     		cmp	r3, #0
 2447 002c 01D1     		bne	.L191
 952:d:/LiteOS_Lab/iot_link/os/liteos/cmsis/2.0\cmsis_liteos2.c ****     {
 953:d:/LiteOS_Lab/iot_link/os/liteos/cmsis/2.0\cmsis_liteos2.c ****         return (osEventFlagsId_t)NULL;
 2448              		.loc 1 953 16
 2449 002e 0023     		movs	r3, #0
 2450 0030 0AE0     		b	.L190
 2451              	.L191:
 954:d:/LiteOS_Lab/iot_link/os/liteos/cmsis/2.0\cmsis_liteos2.c ****     }
 955:d:/LiteOS_Lab/iot_link/os/liteos/cmsis/2.0\cmsis_liteos2.c **** 
 956:d:/LiteOS_Lab/iot_link/os/liteos/cmsis/2.0\cmsis_liteos2.c ****     uwRet = LOS_EventInit(pstEventCB);
 2452              		.loc 1 956 13
 2453 0032 F868     		ldr	r0, [r7, #12]
 2454 0034 FFF7FEFF 		bl	LOS_EventInit
ARM GAS  C:\Users\ADMINI~1\AppData\Local\Temp\ccvQoyy7.s 			page 60


 2455 0038 B860     		str	r0, [r7, #8]
 957:d:/LiteOS_Lab/iot_link/os/liteos/cmsis/2.0\cmsis_liteos2.c ****     if (uwRet == LOS_ERRNO_EVENT_PTR_NULL)
 2456              		.loc 1 957 8
 2457 003a BB68     		ldr	r3, [r7, #8]
 2458 003c 054A     		ldr	r2, .L193+4
 2459 003e 9342     		cmp	r3, r2
 2460 0040 01D1     		bne	.L192
 958:d:/LiteOS_Lab/iot_link/os/liteos/cmsis/2.0\cmsis_liteos2.c ****     {
 959:d:/LiteOS_Lab/iot_link/os/liteos/cmsis/2.0\cmsis_liteos2.c ****         return (osEventFlagsId_t)NULL;
 2461              		.loc 1 959 16
 2462 0042 0023     		movs	r3, #0
 2463 0044 00E0     		b	.L190
 2464              	.L192:
 960:d:/LiteOS_Lab/iot_link/os/liteos/cmsis/2.0\cmsis_liteos2.c ****     }
 961:d:/LiteOS_Lab/iot_link/os/liteos/cmsis/2.0\cmsis_liteos2.c ****     else
 962:d:/LiteOS_Lab/iot_link/os/liteos/cmsis/2.0\cmsis_liteos2.c ****     {
 963:d:/LiteOS_Lab/iot_link/os/liteos/cmsis/2.0\cmsis_liteos2.c ****         return (osEventFlagsId_t)pstEventCB;
 2465              		.loc 1 963 16
 2466 0046 FB68     		ldr	r3, [r7, #12]
 2467              	.L190:
 964:d:/LiteOS_Lab/iot_link/os/liteos/cmsis/2.0\cmsis_liteos2.c ****     }
 965:d:/LiteOS_Lab/iot_link/os/liteos/cmsis/2.0\cmsis_liteos2.c **** }
 2468              		.loc 1 965 1
 2469 0048 1846     		mov	r0, r3
 2470 004a 1037     		adds	r7, r7, #16
 2471              	.LCFI133:
 2472              		.cfi_def_cfa_offset 8
 2473 004c BD46     		mov	sp, r7
 2474              	.LCFI134:
 2475              		.cfi_def_cfa_register 13
 2476              		@ sp needed
 2477 004e 80BD     		pop	{r7, pc}
 2478              	.L194:
 2479              		.align	2
 2480              	.L193:
 2481 0050 00000000 		.word	m_aucSysMem0
 2482 0054 061C0002 		.word	33561606
 2483              		.cfi_endproc
 2484              	.LFE318:
 2486              		.section	.text.osEventFlagsGetName,"ax",%progbits
 2487              		.align	1
 2488              		.global	osEventFlagsGetName
 2489              		.syntax unified
 2490              		.thumb
 2491              		.thumb_func
 2492              		.fpu fpv4-sp-d16
 2494              	osEventFlagsGetName:
 2495              	.LFB319:
 966:d:/LiteOS_Lab/iot_link/os/liteos/cmsis/2.0\cmsis_liteos2.c **** 
 967:d:/LiteOS_Lab/iot_link/os/liteos/cmsis/2.0\cmsis_liteos2.c **** 
 968:d:/LiteOS_Lab/iot_link/os/liteos/cmsis/2.0\cmsis_liteos2.c **** const char *osEventFlagsGetName (osEventFlagsId_t ef_id)
 969:d:/LiteOS_Lab/iot_link/os/liteos/cmsis/2.0\cmsis_liteos2.c **** {
 2496              		.loc 1 969 1
 2497              		.cfi_startproc
 2498              		@ args = 0, pretend = 0, frame = 8
 2499              		@ frame_needed = 1, uses_anonymous_args = 0
 2500 0000 80B5     		push	{r7, lr}
ARM GAS  C:\Users\ADMINI~1\AppData\Local\Temp\ccvQoyy7.s 			page 61


 2501              	.LCFI135:
 2502              		.cfi_def_cfa_offset 8
 2503              		.cfi_offset 7, -8
 2504              		.cfi_offset 14, -4
 2505 0002 82B0     		sub	sp, sp, #8
 2506              	.LCFI136:
 2507              		.cfi_def_cfa_offset 16
 2508 0004 00AF     		add	r7, sp, #0
 2509              	.LCFI137:
 2510              		.cfi_def_cfa_register 7
 2511 0006 7860     		str	r0, [r7, #4]
 970:d:/LiteOS_Lab/iot_link/os/liteos/cmsis/2.0\cmsis_liteos2.c ****     UNUSED(ef_id);
 971:d:/LiteOS_Lab/iot_link/os/liteos/cmsis/2.0\cmsis_liteos2.c **** 
 972:d:/LiteOS_Lab/iot_link/os/liteos/cmsis/2.0\cmsis_liteos2.c ****     if (OS_INT_ACTIVE)
 2512              		.loc 1 972 9
 2513 0008 FFF7FEFF 		bl	osIntNumGet
 2514 000c 0346     		mov	r3, r0
 2515              		.loc 1 972 8
 2516 000e 002B     		cmp	r3, #0
 2517 0010 01D0     		beq	.L196
 973:d:/LiteOS_Lab/iot_link/os/liteos/cmsis/2.0\cmsis_liteos2.c ****     {
 974:d:/LiteOS_Lab/iot_link/os/liteos/cmsis/2.0\cmsis_liteos2.c ****         return (const char *)NULL;
 2518              		.loc 1 974 16
 2519 0012 0023     		movs	r3, #0
 2520 0014 00E0     		b	.L197
 2521              	.L196:
 975:d:/LiteOS_Lab/iot_link/os/liteos/cmsis/2.0\cmsis_liteos2.c ****     }
 976:d:/LiteOS_Lab/iot_link/os/liteos/cmsis/2.0\cmsis_liteos2.c **** 
 977:d:/LiteOS_Lab/iot_link/os/liteos/cmsis/2.0\cmsis_liteos2.c ****     return (const char *)NULL;
 2522              		.loc 1 977 12
 2523 0016 0023     		movs	r3, #0
 2524              	.L197:
 978:d:/LiteOS_Lab/iot_link/os/liteos/cmsis/2.0\cmsis_liteos2.c **** }
 2525              		.loc 1 978 1
 2526 0018 1846     		mov	r0, r3
 2527 001a 0837     		adds	r7, r7, #8
 2528              	.LCFI138:
 2529              		.cfi_def_cfa_offset 8
 2530 001c BD46     		mov	sp, r7
 2531              	.LCFI139:
 2532              		.cfi_def_cfa_register 13
 2533              		@ sp needed
 2534 001e 80BD     		pop	{r7, pc}
 2535              		.cfi_endproc
 2536              	.LFE319:
 2538              		.section	.text.osEventFlagsSet,"ax",%progbits
 2539              		.align	1
 2540              		.global	osEventFlagsSet
 2541              		.syntax unified
 2542              		.thumb
 2543              		.thumb_func
 2544              		.fpu fpv4-sp-d16
 2546              	osEventFlagsSet:
 2547              	.LFB320:
 979:d:/LiteOS_Lab/iot_link/os/liteos/cmsis/2.0\cmsis_liteos2.c **** 
 980:d:/LiteOS_Lab/iot_link/os/liteos/cmsis/2.0\cmsis_liteos2.c **** 
 981:d:/LiteOS_Lab/iot_link/os/liteos/cmsis/2.0\cmsis_liteos2.c **** uint32_t osEventFlagsSet (osEventFlagsId_t ef_id, uint32_t flags)
ARM GAS  C:\Users\ADMINI~1\AppData\Local\Temp\ccvQoyy7.s 			page 62


 982:d:/LiteOS_Lab/iot_link/os/liteos/cmsis/2.0\cmsis_liteos2.c **** {
 2548              		.loc 1 982 1
 2549              		.cfi_startproc
 2550              		@ args = 0, pretend = 0, frame = 24
 2551              		@ frame_needed = 1, uses_anonymous_args = 0
 2552 0000 80B5     		push	{r7, lr}
 2553              	.LCFI140:
 2554              		.cfi_def_cfa_offset 8
 2555              		.cfi_offset 7, -8
 2556              		.cfi_offset 14, -4
 2557 0002 86B0     		sub	sp, sp, #24
 2558              	.LCFI141:
 2559              		.cfi_def_cfa_offset 32
 2560 0004 00AF     		add	r7, sp, #0
 2561              	.LCFI142:
 2562              		.cfi_def_cfa_register 7
 2563 0006 7860     		str	r0, [r7, #4]
 2564 0008 3960     		str	r1, [r7]
 983:d:/LiteOS_Lab/iot_link/os/liteos/cmsis/2.0\cmsis_liteos2.c ****     PEVENT_CB_S pstEventCB = (PEVENT_CB_S)ef_id;
 2565              		.loc 1 983 17
 2566 000a 7B68     		ldr	r3, [r7, #4]
 2567 000c 7B61     		str	r3, [r7, #20]
 984:d:/LiteOS_Lab/iot_link/os/liteos/cmsis/2.0\cmsis_liteos2.c ****     UINT32 uwRet;
 985:d:/LiteOS_Lab/iot_link/os/liteos/cmsis/2.0\cmsis_liteos2.c ****     uint32_t rflags;
 986:d:/LiteOS_Lab/iot_link/os/liteos/cmsis/2.0\cmsis_liteos2.c **** 
 987:d:/LiteOS_Lab/iot_link/os/liteos/cmsis/2.0\cmsis_liteos2.c ****     uwRet = LOS_EventWrite(pstEventCB, (UINT32)flags);
 2568              		.loc 1 987 13
 2569 000e 3968     		ldr	r1, [r7]
 2570 0010 7869     		ldr	r0, [r7, #20]
 2571 0012 FFF7FEFF 		bl	LOS_EventWrite
 2572 0016 3861     		str	r0, [r7, #16]
 988:d:/LiteOS_Lab/iot_link/os/liteos/cmsis/2.0\cmsis_liteos2.c ****     if (uwRet != LOS_OK)
 2573              		.loc 1 988 8
 2574 0018 3B69     		ldr	r3, [r7, #16]
 2575 001a 002B     		cmp	r3, #0
 2576 001c 02D0     		beq	.L199
 989:d:/LiteOS_Lab/iot_link/os/liteos/cmsis/2.0\cmsis_liteos2.c ****     {
 990:d:/LiteOS_Lab/iot_link/os/liteos/cmsis/2.0\cmsis_liteos2.c ****         return (uint32_t)osFlagsErrorParameter;
 2577              		.loc 1 990 16
 2578 001e 6FF00303 		mvn	r3, #3
 2579 0022 03E0     		b	.L200
 2580              	.L199:
 991:d:/LiteOS_Lab/iot_link/os/liteos/cmsis/2.0\cmsis_liteos2.c ****     }
 992:d:/LiteOS_Lab/iot_link/os/liteos/cmsis/2.0\cmsis_liteos2.c ****     else
 993:d:/LiteOS_Lab/iot_link/os/liteos/cmsis/2.0\cmsis_liteos2.c ****     {
 994:d:/LiteOS_Lab/iot_link/os/liteos/cmsis/2.0\cmsis_liteos2.c ****         rflags = pstEventCB->uwEventID;
 2581              		.loc 1 994 16
 2582 0024 7B69     		ldr	r3, [r7, #20]
 2583 0026 1B68     		ldr	r3, [r3]
 2584 0028 FB60     		str	r3, [r7, #12]
 995:d:/LiteOS_Lab/iot_link/os/liteos/cmsis/2.0\cmsis_liteos2.c ****         return rflags;
 2585              		.loc 1 995 16
 2586 002a FB68     		ldr	r3, [r7, #12]
 2587              	.L200:
 996:d:/LiteOS_Lab/iot_link/os/liteos/cmsis/2.0\cmsis_liteos2.c ****     }
 997:d:/LiteOS_Lab/iot_link/os/liteos/cmsis/2.0\cmsis_liteos2.c **** }
 2588              		.loc 1 997 1
ARM GAS  C:\Users\ADMINI~1\AppData\Local\Temp\ccvQoyy7.s 			page 63


 2589 002c 1846     		mov	r0, r3
 2590 002e 1837     		adds	r7, r7, #24
 2591              	.LCFI143:
 2592              		.cfi_def_cfa_offset 8
 2593 0030 BD46     		mov	sp, r7
 2594              	.LCFI144:
 2595              		.cfi_def_cfa_register 13
 2596              		@ sp needed
 2597 0032 80BD     		pop	{r7, pc}
 2598              		.cfi_endproc
 2599              	.LFE320:
 2601              		.section	.text.osEventFlagsClear,"ax",%progbits
 2602              		.align	1
 2603              		.global	osEventFlagsClear
 2604              		.syntax unified
 2605              		.thumb
 2606              		.thumb_func
 2607              		.fpu fpv4-sp-d16
 2609              	osEventFlagsClear:
 2610              	.LFB321:
 998:d:/LiteOS_Lab/iot_link/os/liteos/cmsis/2.0\cmsis_liteos2.c **** 
 999:d:/LiteOS_Lab/iot_link/os/liteos/cmsis/2.0\cmsis_liteos2.c **** 
1000:d:/LiteOS_Lab/iot_link/os/liteos/cmsis/2.0\cmsis_liteos2.c **** uint32_t osEventFlagsClear (osEventFlagsId_t ef_id, uint32_t flags)
1001:d:/LiteOS_Lab/iot_link/os/liteos/cmsis/2.0\cmsis_liteos2.c **** {
 2611              		.loc 1 1001 1
 2612              		.cfi_startproc
 2613              		@ args = 0, pretend = 0, frame = 24
 2614              		@ frame_needed = 1, uses_anonymous_args = 0
 2615 0000 80B5     		push	{r7, lr}
 2616              	.LCFI145:
 2617              		.cfi_def_cfa_offset 8
 2618              		.cfi_offset 7, -8
 2619              		.cfi_offset 14, -4
 2620 0002 86B0     		sub	sp, sp, #24
 2621              	.LCFI146:
 2622              		.cfi_def_cfa_offset 32
 2623 0004 00AF     		add	r7, sp, #0
 2624              	.LCFI147:
 2625              		.cfi_def_cfa_register 7
 2626 0006 7860     		str	r0, [r7, #4]
 2627 0008 3960     		str	r1, [r7]
1002:d:/LiteOS_Lab/iot_link/os/liteos/cmsis/2.0\cmsis_liteos2.c ****     PEVENT_CB_S pstEventCB = (PEVENT_CB_S)ef_id;
 2628              		.loc 1 1002 17
 2629 000a 7B68     		ldr	r3, [r7, #4]
 2630 000c 7B61     		str	r3, [r7, #20]
1003:d:/LiteOS_Lab/iot_link/os/liteos/cmsis/2.0\cmsis_liteos2.c ****     UINTPTR uwIntSave;
1004:d:/LiteOS_Lab/iot_link/os/liteos/cmsis/2.0\cmsis_liteos2.c ****     uint32_t rflags;
1005:d:/LiteOS_Lab/iot_link/os/liteos/cmsis/2.0\cmsis_liteos2.c ****     UINT32 uwRet;
1006:d:/LiteOS_Lab/iot_link/os/liteos/cmsis/2.0\cmsis_liteos2.c **** 
1007:d:/LiteOS_Lab/iot_link/os/liteos/cmsis/2.0\cmsis_liteos2.c ****     if (pstEventCB == NULL)
 2631              		.loc 1 1007 8
 2632 000e 7B69     		ldr	r3, [r7, #20]
 2633 0010 002B     		cmp	r3, #0
 2634 0012 02D1     		bne	.L202
1008:d:/LiteOS_Lab/iot_link/os/liteos/cmsis/2.0\cmsis_liteos2.c ****     {
1009:d:/LiteOS_Lab/iot_link/os/liteos/cmsis/2.0\cmsis_liteos2.c ****         return (uint32_t)osFlagsErrorParameter;
 2635              		.loc 1 1009 16
ARM GAS  C:\Users\ADMINI~1\AppData\Local\Temp\ccvQoyy7.s 			page 64


 2636 0014 6FF00303 		mvn	r3, #3
 2637 0018 16E0     		b	.L203
 2638              	.L202:
1010:d:/LiteOS_Lab/iot_link/os/liteos/cmsis/2.0\cmsis_liteos2.c ****     }
1011:d:/LiteOS_Lab/iot_link/os/liteos/cmsis/2.0\cmsis_liteos2.c **** 
1012:d:/LiteOS_Lab/iot_link/os/liteos/cmsis/2.0\cmsis_liteos2.c ****     uwIntSave = LOS_IntLock();
 2639              		.loc 1 1012 17
 2640 001a FFF7FEFF 		bl	LOS_IntLock
 2641 001e 3861     		str	r0, [r7, #16]
1013:d:/LiteOS_Lab/iot_link/os/liteos/cmsis/2.0\cmsis_liteos2.c ****     rflags = pstEventCB->uwEventID;
 2642              		.loc 1 1013 12
 2643 0020 7B69     		ldr	r3, [r7, #20]
 2644 0022 1B68     		ldr	r3, [r3]
 2645 0024 FB60     		str	r3, [r7, #12]
1014:d:/LiteOS_Lab/iot_link/os/liteos/cmsis/2.0\cmsis_liteos2.c **** 
1015:d:/LiteOS_Lab/iot_link/os/liteos/cmsis/2.0\cmsis_liteos2.c ****     uwRet = LOS_EventClear(pstEventCB, ~flags);
 2646              		.loc 1 1015 40
 2647 0026 3B68     		ldr	r3, [r7]
 2648 0028 DB43     		mvns	r3, r3
 2649              		.loc 1 1015 13
 2650 002a 1946     		mov	r1, r3
 2651 002c 7869     		ldr	r0, [r7, #20]
 2652 002e FFF7FEFF 		bl	LOS_EventClear
 2653 0032 B860     		str	r0, [r7, #8]
1016:d:/LiteOS_Lab/iot_link/os/liteos/cmsis/2.0\cmsis_liteos2.c ****     LOS_IntRestore(uwIntSave);
 2654              		.loc 1 1016 5
 2655 0034 3869     		ldr	r0, [r7, #16]
 2656 0036 FFF7FEFF 		bl	LOS_IntRestore
1017:d:/LiteOS_Lab/iot_link/os/liteos/cmsis/2.0\cmsis_liteos2.c ****     if (uwRet !=  LOS_OK)
 2657              		.loc 1 1017 8
 2658 003a BB68     		ldr	r3, [r7, #8]
 2659 003c 002B     		cmp	r3, #0
 2660 003e 02D0     		beq	.L204
1018:d:/LiteOS_Lab/iot_link/os/liteos/cmsis/2.0\cmsis_liteos2.c ****     {
1019:d:/LiteOS_Lab/iot_link/os/liteos/cmsis/2.0\cmsis_liteos2.c ****         return (uint32_t)osFlagsErrorParameter;
 2661              		.loc 1 1019 16
 2662 0040 6FF00303 		mvn	r3, #3
 2663 0044 00E0     		b	.L203
 2664              	.L204:
1020:d:/LiteOS_Lab/iot_link/os/liteos/cmsis/2.0\cmsis_liteos2.c ****     }
1021:d:/LiteOS_Lab/iot_link/os/liteos/cmsis/2.0\cmsis_liteos2.c ****     else
1022:d:/LiteOS_Lab/iot_link/os/liteos/cmsis/2.0\cmsis_liteos2.c ****     {
1023:d:/LiteOS_Lab/iot_link/os/liteos/cmsis/2.0\cmsis_liteos2.c ****         return rflags;
 2665              		.loc 1 1023 16
 2666 0046 FB68     		ldr	r3, [r7, #12]
 2667              	.L203:
1024:d:/LiteOS_Lab/iot_link/os/liteos/cmsis/2.0\cmsis_liteos2.c ****     }
1025:d:/LiteOS_Lab/iot_link/os/liteos/cmsis/2.0\cmsis_liteos2.c **** }
 2668              		.loc 1 1025 1
 2669 0048 1846     		mov	r0, r3
 2670 004a 1837     		adds	r7, r7, #24
 2671              	.LCFI148:
 2672              		.cfi_def_cfa_offset 8
 2673 004c BD46     		mov	sp, r7
 2674              	.LCFI149:
 2675              		.cfi_def_cfa_register 13
 2676              		@ sp needed
ARM GAS  C:\Users\ADMINI~1\AppData\Local\Temp\ccvQoyy7.s 			page 65


 2677 004e 80BD     		pop	{r7, pc}
 2678              		.cfi_endproc
 2679              	.LFE321:
 2681              		.section	.text.osEventFlagsGet,"ax",%progbits
 2682              		.align	1
 2683              		.global	osEventFlagsGet
 2684              		.syntax unified
 2685              		.thumb
 2686              		.thumb_func
 2687              		.fpu fpv4-sp-d16
 2689              	osEventFlagsGet:
 2690              	.LFB322:
1026:d:/LiteOS_Lab/iot_link/os/liteos/cmsis/2.0\cmsis_liteos2.c **** 
1027:d:/LiteOS_Lab/iot_link/os/liteos/cmsis/2.0\cmsis_liteos2.c **** 
1028:d:/LiteOS_Lab/iot_link/os/liteos/cmsis/2.0\cmsis_liteos2.c **** uint32_t osEventFlagsGet (osEventFlagsId_t ef_id)
1029:d:/LiteOS_Lab/iot_link/os/liteos/cmsis/2.0\cmsis_liteos2.c **** {
 2691              		.loc 1 1029 1
 2692              		.cfi_startproc
 2693              		@ args = 0, pretend = 0, frame = 24
 2694              		@ frame_needed = 1, uses_anonymous_args = 0
 2695 0000 80B5     		push	{r7, lr}
 2696              	.LCFI150:
 2697              		.cfi_def_cfa_offset 8
 2698              		.cfi_offset 7, -8
 2699              		.cfi_offset 14, -4
 2700 0002 86B0     		sub	sp, sp, #24
 2701              	.LCFI151:
 2702              		.cfi_def_cfa_offset 32
 2703 0004 00AF     		add	r7, sp, #0
 2704              	.LCFI152:
 2705              		.cfi_def_cfa_register 7
 2706 0006 7860     		str	r0, [r7, #4]
1030:d:/LiteOS_Lab/iot_link/os/liteos/cmsis/2.0\cmsis_liteos2.c ****     PEVENT_CB_S pstEventCB = (PEVENT_CB_S)ef_id;
 2707              		.loc 1 1030 17
 2708 0008 7B68     		ldr	r3, [r7, #4]
 2709 000a 7B61     		str	r3, [r7, #20]
1031:d:/LiteOS_Lab/iot_link/os/liteos/cmsis/2.0\cmsis_liteos2.c ****     UINTPTR uwIntSave;
1032:d:/LiteOS_Lab/iot_link/os/liteos/cmsis/2.0\cmsis_liteos2.c ****     uint32_t rflags;
1033:d:/LiteOS_Lab/iot_link/os/liteos/cmsis/2.0\cmsis_liteos2.c **** 
1034:d:/LiteOS_Lab/iot_link/os/liteos/cmsis/2.0\cmsis_liteos2.c ****     if (pstEventCB == NULL)
 2710              		.loc 1 1034 8
 2711 000c 7B69     		ldr	r3, [r7, #20]
 2712 000e 002B     		cmp	r3, #0
 2713 0010 02D1     		bne	.L206
1035:d:/LiteOS_Lab/iot_link/os/liteos/cmsis/2.0\cmsis_liteos2.c ****     {
1036:d:/LiteOS_Lab/iot_link/os/liteos/cmsis/2.0\cmsis_liteos2.c ****         return (uint32_t)osFlagsErrorParameter;
 2714              		.loc 1 1036 16
 2715 0012 6FF00303 		mvn	r3, #3
 2716 0016 09E0     		b	.L207
 2717              	.L206:
1037:d:/LiteOS_Lab/iot_link/os/liteos/cmsis/2.0\cmsis_liteos2.c ****     }
1038:d:/LiteOS_Lab/iot_link/os/liteos/cmsis/2.0\cmsis_liteos2.c **** 
1039:d:/LiteOS_Lab/iot_link/os/liteos/cmsis/2.0\cmsis_liteos2.c ****     uwIntSave = LOS_IntLock();
 2718              		.loc 1 1039 17
 2719 0018 FFF7FEFF 		bl	LOS_IntLock
 2720 001c 3861     		str	r0, [r7, #16]
1040:d:/LiteOS_Lab/iot_link/os/liteos/cmsis/2.0\cmsis_liteos2.c ****     rflags = pstEventCB->uwEventID;
ARM GAS  C:\Users\ADMINI~1\AppData\Local\Temp\ccvQoyy7.s 			page 66


 2721              		.loc 1 1040 12
 2722 001e 7B69     		ldr	r3, [r7, #20]
 2723 0020 1B68     		ldr	r3, [r3]
 2724 0022 FB60     		str	r3, [r7, #12]
1041:d:/LiteOS_Lab/iot_link/os/liteos/cmsis/2.0\cmsis_liteos2.c ****     LOS_IntRestore(uwIntSave);
 2725              		.loc 1 1041 5
 2726 0024 3869     		ldr	r0, [r7, #16]
 2727 0026 FFF7FEFF 		bl	LOS_IntRestore
1042:d:/LiteOS_Lab/iot_link/os/liteos/cmsis/2.0\cmsis_liteos2.c **** 
1043:d:/LiteOS_Lab/iot_link/os/liteos/cmsis/2.0\cmsis_liteos2.c ****     return rflags;
 2728              		.loc 1 1043 12
 2729 002a FB68     		ldr	r3, [r7, #12]
 2730              	.L207:
1044:d:/LiteOS_Lab/iot_link/os/liteos/cmsis/2.0\cmsis_liteos2.c **** }
 2731              		.loc 1 1044 1
 2732 002c 1846     		mov	r0, r3
 2733 002e 1837     		adds	r7, r7, #24
 2734              	.LCFI153:
 2735              		.cfi_def_cfa_offset 8
 2736 0030 BD46     		mov	sp, r7
 2737              	.LCFI154:
 2738              		.cfi_def_cfa_register 13
 2739              		@ sp needed
 2740 0032 80BD     		pop	{r7, pc}
 2741              		.cfi_endproc
 2742              	.LFE322:
 2744              		.section	.text.osEventFlagsWait,"ax",%progbits
 2745              		.align	1
 2746              		.global	osEventFlagsWait
 2747              		.syntax unified
 2748              		.thumb
 2749              		.thumb_func
 2750              		.fpu fpv4-sp-d16
 2752              	osEventFlagsWait:
 2753              	.LFB323:
1045:d:/LiteOS_Lab/iot_link/os/liteos/cmsis/2.0\cmsis_liteos2.c **** 
1046:d:/LiteOS_Lab/iot_link/os/liteos/cmsis/2.0\cmsis_liteos2.c **** uint32_t osEventFlagsWait (osEventFlagsId_t ef_id, uint32_t flags, uint32_t options, uint32_t timeo
1047:d:/LiteOS_Lab/iot_link/os/liteos/cmsis/2.0\cmsis_liteos2.c **** {
 2754              		.loc 1 1047 1
 2755              		.cfi_startproc
 2756              		@ args = 0, pretend = 0, frame = 32
 2757              		@ frame_needed = 1, uses_anonymous_args = 0
 2758 0000 80B5     		push	{r7, lr}
 2759              	.LCFI155:
 2760              		.cfi_def_cfa_offset 8
 2761              		.cfi_offset 7, -8
 2762              		.cfi_offset 14, -4
 2763 0002 88B0     		sub	sp, sp, #32
 2764              	.LCFI156:
 2765              		.cfi_def_cfa_offset 40
 2766 0004 00AF     		add	r7, sp, #0
 2767              	.LCFI157:
 2768              		.cfi_def_cfa_register 7
 2769 0006 F860     		str	r0, [r7, #12]
 2770 0008 B960     		str	r1, [r7, #8]
 2771 000a 7A60     		str	r2, [r7, #4]
 2772 000c 3B60     		str	r3, [r7]
ARM GAS  C:\Users\ADMINI~1\AppData\Local\Temp\ccvQoyy7.s 			page 67


1048:d:/LiteOS_Lab/iot_link/os/liteos/cmsis/2.0\cmsis_liteos2.c ****     PEVENT_CB_S pstEventCB = (PEVENT_CB_S)ef_id;
 2773              		.loc 1 1048 17
 2774 000e FB68     		ldr	r3, [r7, #12]
 2775 0010 BB61     		str	r3, [r7, #24]
1049:d:/LiteOS_Lab/iot_link/os/liteos/cmsis/2.0\cmsis_liteos2.c ****     UINT32 uwMode = 0;
 2776              		.loc 1 1049 12
 2777 0012 0023     		movs	r3, #0
 2778 0014 FB61     		str	r3, [r7, #28]
1050:d:/LiteOS_Lab/iot_link/os/liteos/cmsis/2.0\cmsis_liteos2.c ****     UINT32 uwRet;
1051:d:/LiteOS_Lab/iot_link/os/liteos/cmsis/2.0\cmsis_liteos2.c ****     uint32_t rflags = 0;
 2779              		.loc 1 1051 14
 2780 0016 0023     		movs	r3, #0
 2781 0018 7B61     		str	r3, [r7, #20]
1052:d:/LiteOS_Lab/iot_link/os/liteos/cmsis/2.0\cmsis_liteos2.c **** 
1053:d:/LiteOS_Lab/iot_link/os/liteos/cmsis/2.0\cmsis_liteos2.c ****     if (options > (osFlagsWaitAny | osFlagsWaitAll | osFlagsNoClear))
 2782              		.loc 1 1053 8
 2783 001a 7B68     		ldr	r3, [r7, #4]
 2784 001c 032B     		cmp	r3, #3
 2785 001e 02D9     		bls	.L209
1054:d:/LiteOS_Lab/iot_link/os/liteos/cmsis/2.0\cmsis_liteos2.c ****     {
1055:d:/LiteOS_Lab/iot_link/os/liteos/cmsis/2.0\cmsis_liteos2.c ****         return (uint32_t)osFlagsErrorParameter;
 2786              		.loc 1 1055 16
 2787 0020 6FF00303 		mvn	r3, #3
 2788 0024 46E0     		b	.L210
 2789              	.L209:
1056:d:/LiteOS_Lab/iot_link/os/liteos/cmsis/2.0\cmsis_liteos2.c ****     }
1057:d:/LiteOS_Lab/iot_link/os/liteos/cmsis/2.0\cmsis_liteos2.c **** 
1058:d:/LiteOS_Lab/iot_link/os/liteos/cmsis/2.0\cmsis_liteos2.c ****     if ((options & osFlagsWaitAll) == osFlagsWaitAll)
 2790              		.loc 1 1058 18
 2791 0026 7B68     		ldr	r3, [r7, #4]
 2792 0028 03F00103 		and	r3, r3, #1
 2793              		.loc 1 1058 8
 2794 002c 002B     		cmp	r3, #0
 2795 002e 04D0     		beq	.L211
1059:d:/LiteOS_Lab/iot_link/os/liteos/cmsis/2.0\cmsis_liteos2.c ****     {
1060:d:/LiteOS_Lab/iot_link/os/liteos/cmsis/2.0\cmsis_liteos2.c ****         uwMode |= LOS_WAITMODE_AND;
 2796              		.loc 1 1060 16
 2797 0030 FB69     		ldr	r3, [r7, #28]
 2798 0032 43F00403 		orr	r3, r3, #4
 2799 0036 FB61     		str	r3, [r7, #28]
 2800 0038 03E0     		b	.L212
 2801              	.L211:
1061:d:/LiteOS_Lab/iot_link/os/liteos/cmsis/2.0\cmsis_liteos2.c ****     }
1062:d:/LiteOS_Lab/iot_link/os/liteos/cmsis/2.0\cmsis_liteos2.c ****     else
1063:d:/LiteOS_Lab/iot_link/os/liteos/cmsis/2.0\cmsis_liteos2.c ****     {
1064:d:/LiteOS_Lab/iot_link/os/liteos/cmsis/2.0\cmsis_liteos2.c ****         uwMode |= LOS_WAITMODE_OR;
 2802              		.loc 1 1064 16
 2803 003a FB69     		ldr	r3, [r7, #28]
 2804 003c 43F00203 		orr	r3, r3, #2
 2805 0040 FB61     		str	r3, [r7, #28]
 2806              	.L212:
1065:d:/LiteOS_Lab/iot_link/os/liteos/cmsis/2.0\cmsis_liteos2.c ****     }
1066:d:/LiteOS_Lab/iot_link/os/liteos/cmsis/2.0\cmsis_liteos2.c **** 
1067:d:/LiteOS_Lab/iot_link/os/liteos/cmsis/2.0\cmsis_liteos2.c ****     if ((options & osFlagsNoClear)  == osFlagsNoClear)
 2807              		.loc 1 1067 18
 2808 0042 7B68     		ldr	r3, [r7, #4]
 2809 0044 03F00203 		and	r3, r3, #2
ARM GAS  C:\Users\ADMINI~1\AppData\Local\Temp\ccvQoyy7.s 			page 68


 2810              		.loc 1 1067 8
 2811 0048 002B     		cmp	r3, #0
 2812 004a 04D0     		beq	.L213
1068:d:/LiteOS_Lab/iot_link/os/liteos/cmsis/2.0\cmsis_liteos2.c ****     {
1069:d:/LiteOS_Lab/iot_link/os/liteos/cmsis/2.0\cmsis_liteos2.c ****         uwMode &= ~LOS_WAITMODE_CLR;
 2813              		.loc 1 1069 16
 2814 004c FB69     		ldr	r3, [r7, #28]
 2815 004e 23F00103 		bic	r3, r3, #1
 2816 0052 FB61     		str	r3, [r7, #28]
 2817 0054 03E0     		b	.L214
 2818              	.L213:
1070:d:/LiteOS_Lab/iot_link/os/liteos/cmsis/2.0\cmsis_liteos2.c ****     }
1071:d:/LiteOS_Lab/iot_link/os/liteos/cmsis/2.0\cmsis_liteos2.c ****     else
1072:d:/LiteOS_Lab/iot_link/os/liteos/cmsis/2.0\cmsis_liteos2.c ****     {
1073:d:/LiteOS_Lab/iot_link/os/liteos/cmsis/2.0\cmsis_liteos2.c ****         uwMode |= LOS_WAITMODE_CLR;
 2819              		.loc 1 1073 16
 2820 0056 FB69     		ldr	r3, [r7, #28]
 2821 0058 43F00103 		orr	r3, r3, #1
 2822 005c FB61     		str	r3, [r7, #28]
 2823              	.L214:
1074:d:/LiteOS_Lab/iot_link/os/liteos/cmsis/2.0\cmsis_liteos2.c ****     }
1075:d:/LiteOS_Lab/iot_link/os/liteos/cmsis/2.0\cmsis_liteos2.c **** 
1076:d:/LiteOS_Lab/iot_link/os/liteos/cmsis/2.0\cmsis_liteos2.c ****     uwRet = LOS_EventRead(pstEventCB, (UINT32)flags, uwMode, (UINT32)timeout);
 2824              		.loc 1 1076 13
 2825 005e 3B68     		ldr	r3, [r7]
 2826 0060 FA69     		ldr	r2, [r7, #28]
 2827 0062 B968     		ldr	r1, [r7, #8]
 2828 0064 B869     		ldr	r0, [r7, #24]
 2829 0066 FFF7FEFF 		bl	LOS_EventRead
 2830 006a 3861     		str	r0, [r7, #16]
 2831 006c 3B69     		ldr	r3, [r7, #16]
 2832 006e 03F17E43 		add	r3, r3, #-33554432
 2833 0072 A3F5E053 		sub	r3, r3, #7168
 2834 0076 062B     		cmp	r3, #6
 2835 0078 19D8     		bhi	.L215
 2836 007a 01A2     		adr	r2, .L217
 2837 007c 52F823F0 		ldr	pc, [r2, r3, lsl #2]
 2838              		.p2align 2
 2839              	.L217:
 2840 0080 9D000000 		.word	.L216+1
 2841 0084 A9000000 		.word	.L219+1
 2842 0088 9D000000 		.word	.L216+1
 2843 008c A3000000 		.word	.L218+1
 2844 0090 A3000000 		.word	.L218+1
 2845 0094 A3000000 		.word	.L218+1
 2846 0098 9D000000 		.word	.L216+1
 2847              		.p2align 1
 2848              	.L216:
1077:d:/LiteOS_Lab/iot_link/os/liteos/cmsis/2.0\cmsis_liteos2.c ****     switch(uwRet)
1078:d:/LiteOS_Lab/iot_link/os/liteos/cmsis/2.0\cmsis_liteos2.c ****     {
1079:d:/LiteOS_Lab/iot_link/os/liteos/cmsis/2.0\cmsis_liteos2.c ****     case LOS_ERRNO_EVENT_PTR_NULL:
1080:d:/LiteOS_Lab/iot_link/os/liteos/cmsis/2.0\cmsis_liteos2.c ****     case LOS_ERRNO_EVENT_EVENTMASK_INVALID:
1081:d:/LiteOS_Lab/iot_link/os/liteos/cmsis/2.0\cmsis_liteos2.c ****     case LOS_ERRNO_EVENT_SETBIT_INVALID:
1082:d:/LiteOS_Lab/iot_link/os/liteos/cmsis/2.0\cmsis_liteos2.c ****         return (uint32_t)osFlagsErrorParameter;
 2849              		.loc 1 1082 16
 2850 009c 6FF00303 		mvn	r3, #3
 2851 00a0 08E0     		b	.L210
ARM GAS  C:\Users\ADMINI~1\AppData\Local\Temp\ccvQoyy7.s 			page 69


 2852              	.L218:
1083:d:/LiteOS_Lab/iot_link/os/liteos/cmsis/2.0\cmsis_liteos2.c **** 
1084:d:/LiteOS_Lab/iot_link/os/liteos/cmsis/2.0\cmsis_liteos2.c ****     case LOS_ERRNO_EVENT_READ_IN_INTERRUPT:
1085:d:/LiteOS_Lab/iot_link/os/liteos/cmsis/2.0\cmsis_liteos2.c ****     case LOS_ERRNO_EVENT_FLAGS_INVALID:
1086:d:/LiteOS_Lab/iot_link/os/liteos/cmsis/2.0\cmsis_liteos2.c ****     case LOS_ERRNO_EVENT_READ_IN_LOCK:
1087:d:/LiteOS_Lab/iot_link/os/liteos/cmsis/2.0\cmsis_liteos2.c ****         return (uint32_t)osFlagsErrorResource;
 2853              		.loc 1 1087 16
 2854 00a2 6FF00203 		mvn	r3, #2
 2855 00a6 05E0     		b	.L210
 2856              	.L219:
1088:d:/LiteOS_Lab/iot_link/os/liteos/cmsis/2.0\cmsis_liteos2.c **** 
1089:d:/LiteOS_Lab/iot_link/os/liteos/cmsis/2.0\cmsis_liteos2.c ****     case LOS_ERRNO_EVENT_READ_TIMEOUT:
1090:d:/LiteOS_Lab/iot_link/os/liteos/cmsis/2.0\cmsis_liteos2.c ****         return (uint32_t)osFlagsErrorTimeout;
 2857              		.loc 1 1090 16
 2858 00a8 6FF00103 		mvn	r3, #1
 2859 00ac 02E0     		b	.L210
 2860              	.L215:
1091:d:/LiteOS_Lab/iot_link/os/liteos/cmsis/2.0\cmsis_liteos2.c **** 
1092:d:/LiteOS_Lab/iot_link/os/liteos/cmsis/2.0\cmsis_liteos2.c ****     default :
1093:d:/LiteOS_Lab/iot_link/os/liteos/cmsis/2.0\cmsis_liteos2.c ****         rflags = (uint32_t)uwRet;
 2861              		.loc 1 1093 16
 2862 00ae 3B69     		ldr	r3, [r7, #16]
 2863 00b0 7B61     		str	r3, [r7, #20]
1094:d:/LiteOS_Lab/iot_link/os/liteos/cmsis/2.0\cmsis_liteos2.c ****         return rflags;
 2864              		.loc 1 1094 16
 2865 00b2 7B69     		ldr	r3, [r7, #20]
 2866              	.L210:
1095:d:/LiteOS_Lab/iot_link/os/liteos/cmsis/2.0\cmsis_liteos2.c ****     }
1096:d:/LiteOS_Lab/iot_link/os/liteos/cmsis/2.0\cmsis_liteos2.c **** }
 2867              		.loc 1 1096 1
 2868 00b4 1846     		mov	r0, r3
 2869 00b6 2037     		adds	r7, r7, #32
 2870              	.LCFI158:
 2871              		.cfi_def_cfa_offset 8
 2872 00b8 BD46     		mov	sp, r7
 2873              	.LCFI159:
 2874              		.cfi_def_cfa_register 13
 2875              		@ sp needed
 2876 00ba 80BD     		pop	{r7, pc}
 2877              		.cfi_endproc
 2878              	.LFE323:
 2880              		.section	.text.osEventFlagsDelete,"ax",%progbits
 2881              		.align	1
 2882              		.global	osEventFlagsDelete
 2883              		.syntax unified
 2884              		.thumb
 2885              		.thumb_func
 2886              		.fpu fpv4-sp-d16
 2888              	osEventFlagsDelete:
 2889              	.LFB324:
1097:d:/LiteOS_Lab/iot_link/os/liteos/cmsis/2.0\cmsis_liteos2.c **** 
1098:d:/LiteOS_Lab/iot_link/os/liteos/cmsis/2.0\cmsis_liteos2.c **** 
1099:d:/LiteOS_Lab/iot_link/os/liteos/cmsis/2.0\cmsis_liteos2.c **** osStatus_t osEventFlagsDelete (osEventFlagsId_t ef_id)
1100:d:/LiteOS_Lab/iot_link/os/liteos/cmsis/2.0\cmsis_liteos2.c **** {
 2890              		.loc 1 1100 1
 2891              		.cfi_startproc
 2892              		@ args = 0, pretend = 0, frame = 24
ARM GAS  C:\Users\ADMINI~1\AppData\Local\Temp\ccvQoyy7.s 			page 70


 2893              		@ frame_needed = 1, uses_anonymous_args = 0
 2894 0000 80B5     		push	{r7, lr}
 2895              	.LCFI160:
 2896              		.cfi_def_cfa_offset 8
 2897              		.cfi_offset 7, -8
 2898              		.cfi_offset 14, -4
 2899 0002 86B0     		sub	sp, sp, #24
 2900              	.LCFI161:
 2901              		.cfi_def_cfa_offset 32
 2902 0004 00AF     		add	r7, sp, #0
 2903              	.LCFI162:
 2904              		.cfi_def_cfa_register 7
 2905 0006 7860     		str	r0, [r7, #4]
1101:d:/LiteOS_Lab/iot_link/os/liteos/cmsis/2.0\cmsis_liteos2.c ****     PEVENT_CB_S pstEventCB = (PEVENT_CB_S)ef_id;
 2906              		.loc 1 1101 17
 2907 0008 7B68     		ldr	r3, [r7, #4]
 2908 000a 3B61     		str	r3, [r7, #16]
1102:d:/LiteOS_Lab/iot_link/os/liteos/cmsis/2.0\cmsis_liteos2.c ****     UINTPTR uwIntSave;
1103:d:/LiteOS_Lab/iot_link/os/liteos/cmsis/2.0\cmsis_liteos2.c ****     osStatus_t uwRet;
1104:d:/LiteOS_Lab/iot_link/os/liteos/cmsis/2.0\cmsis_liteos2.c **** 
1105:d:/LiteOS_Lab/iot_link/os/liteos/cmsis/2.0\cmsis_liteos2.c ****     uwIntSave = LOS_IntLock();
 2909              		.loc 1 1105 17
 2910 000c FFF7FEFF 		bl	LOS_IntLock
 2911 0010 F860     		str	r0, [r7, #12]
1106:d:/LiteOS_Lab/iot_link/os/liteos/cmsis/2.0\cmsis_liteos2.c ****     if (LOS_EventDestroy(pstEventCB) == LOS_OK)
 2912              		.loc 1 1106 9
 2913 0012 3869     		ldr	r0, [r7, #16]
 2914 0014 FFF7FEFF 		bl	LOS_EventDestroy
 2915 0018 0346     		mov	r3, r0
 2916              		.loc 1 1106 8
 2917 001a 002B     		cmp	r3, #0
 2918 001c 02D1     		bne	.L221
1107:d:/LiteOS_Lab/iot_link/os/liteos/cmsis/2.0\cmsis_liteos2.c ****     {
1108:d:/LiteOS_Lab/iot_link/os/liteos/cmsis/2.0\cmsis_liteos2.c ****         uwRet = osOK;
 2919              		.loc 1 1108 15
 2920 001e 0023     		movs	r3, #0
 2921 0020 7B61     		str	r3, [r7, #20]
 2922 0022 02E0     		b	.L222
 2923              	.L221:
1109:d:/LiteOS_Lab/iot_link/os/liteos/cmsis/2.0\cmsis_liteos2.c ****     }
1110:d:/LiteOS_Lab/iot_link/os/liteos/cmsis/2.0\cmsis_liteos2.c ****     else
1111:d:/LiteOS_Lab/iot_link/os/liteos/cmsis/2.0\cmsis_liteos2.c ****     {
1112:d:/LiteOS_Lab/iot_link/os/liteos/cmsis/2.0\cmsis_liteos2.c ****         uwRet = osErrorParameter;
 2924              		.loc 1 1112 15
 2925 0024 6FF00303 		mvn	r3, #3
 2926 0028 7B61     		str	r3, [r7, #20]
 2927              	.L222:
1113:d:/LiteOS_Lab/iot_link/os/liteos/cmsis/2.0\cmsis_liteos2.c ****     }
1114:d:/LiteOS_Lab/iot_link/os/liteos/cmsis/2.0\cmsis_liteos2.c ****     LOS_IntRestore(uwIntSave);
 2928              		.loc 1 1114 5
 2929 002a F868     		ldr	r0, [r7, #12]
 2930 002c FFF7FEFF 		bl	LOS_IntRestore
1115:d:/LiteOS_Lab/iot_link/os/liteos/cmsis/2.0\cmsis_liteos2.c **** 
1116:d:/LiteOS_Lab/iot_link/os/liteos/cmsis/2.0\cmsis_liteos2.c ****     if (LOS_MemFree(m_aucSysMem0, (void *)pstEventCB) == LOS_OK)
 2931              		.loc 1 1116 9
 2932 0030 094B     		ldr	r3, .L226
 2933 0032 1B68     		ldr	r3, [r3]
ARM GAS  C:\Users\ADMINI~1\AppData\Local\Temp\ccvQoyy7.s 			page 71


 2934 0034 3969     		ldr	r1, [r7, #16]
 2935 0036 1846     		mov	r0, r3
 2936 0038 FFF7FEFF 		bl	LOS_MemFree
 2937 003c 0346     		mov	r3, r0
 2938              		.loc 1 1116 8
 2939 003e 002B     		cmp	r3, #0
 2940 0040 02D1     		bne	.L223
1117:d:/LiteOS_Lab/iot_link/os/liteos/cmsis/2.0\cmsis_liteos2.c ****     {
1118:d:/LiteOS_Lab/iot_link/os/liteos/cmsis/2.0\cmsis_liteos2.c ****         uwRet = osOK;
 2941              		.loc 1 1118 15
 2942 0042 0023     		movs	r3, #0
 2943 0044 7B61     		str	r3, [r7, #20]
 2944 0046 02E0     		b	.L224
 2945              	.L223:
1119:d:/LiteOS_Lab/iot_link/os/liteos/cmsis/2.0\cmsis_liteos2.c ****     }
1120:d:/LiteOS_Lab/iot_link/os/liteos/cmsis/2.0\cmsis_liteos2.c ****     else
1121:d:/LiteOS_Lab/iot_link/os/liteos/cmsis/2.0\cmsis_liteos2.c ****     {
1122:d:/LiteOS_Lab/iot_link/os/liteos/cmsis/2.0\cmsis_liteos2.c ****         uwRet = osErrorParameter;
 2946              		.loc 1 1122 15
 2947 0048 6FF00303 		mvn	r3, #3
 2948 004c 7B61     		str	r3, [r7, #20]
 2949              	.L224:
1123:d:/LiteOS_Lab/iot_link/os/liteos/cmsis/2.0\cmsis_liteos2.c ****     }
1124:d:/LiteOS_Lab/iot_link/os/liteos/cmsis/2.0\cmsis_liteos2.c **** 
1125:d:/LiteOS_Lab/iot_link/os/liteos/cmsis/2.0\cmsis_liteos2.c ****     return uwRet;
 2950              		.loc 1 1125 12
 2951 004e 7B69     		ldr	r3, [r7, #20]
1126:d:/LiteOS_Lab/iot_link/os/liteos/cmsis/2.0\cmsis_liteos2.c **** }
 2952              		.loc 1 1126 1
 2953 0050 1846     		mov	r0, r3
 2954 0052 1837     		adds	r7, r7, #24
 2955              	.LCFI163:
 2956              		.cfi_def_cfa_offset 8
 2957 0054 BD46     		mov	sp, r7
 2958              	.LCFI164:
 2959              		.cfi_def_cfa_register 13
 2960              		@ sp needed
 2961 0056 80BD     		pop	{r7, pc}
 2962              	.L227:
 2963              		.align	2
 2964              	.L226:
 2965 0058 00000000 		.word	m_aucSysMem0
 2966              		.cfi_endproc
 2967              	.LFE324:
 2969              		.section	.text.osMutexNew,"ax",%progbits
 2970              		.align	1
 2971              		.global	osMutexNew
 2972              		.syntax unified
 2973              		.thumb
 2974              		.thumb_func
 2975              		.fpu fpv4-sp-d16
 2977              	osMutexNew:
 2978              	.LFB325:
1127:d:/LiteOS_Lab/iot_link/os/liteos/cmsis/2.0\cmsis_liteos2.c **** 
1128:d:/LiteOS_Lab/iot_link/os/liteos/cmsis/2.0\cmsis_liteos2.c **** 
1129:d:/LiteOS_Lab/iot_link/os/liteos/cmsis/2.0\cmsis_liteos2.c **** //  ==== Mutex Management Functions ====
1130:d:/LiteOS_Lab/iot_link/os/liteos/cmsis/2.0\cmsis_liteos2.c **** #if (LOSCFG_BASE_IPC_MUX == YES)
ARM GAS  C:\Users\ADMINI~1\AppData\Local\Temp\ccvQoyy7.s 			page 72


1131:d:/LiteOS_Lab/iot_link/os/liteos/cmsis/2.0\cmsis_liteos2.c **** osMutexId_t osMutexNew (const osMutexAttr_t *attr)
1132:d:/LiteOS_Lab/iot_link/os/liteos/cmsis/2.0\cmsis_liteos2.c **** {
 2979              		.loc 1 1132 1
 2980              		.cfi_startproc
 2981              		@ args = 0, pretend = 0, frame = 16
 2982              		@ frame_needed = 1, uses_anonymous_args = 0
 2983 0000 80B5     		push	{r7, lr}
 2984              	.LCFI165:
 2985              		.cfi_def_cfa_offset 8
 2986              		.cfi_offset 7, -8
 2987              		.cfi_offset 14, -4
 2988 0002 84B0     		sub	sp, sp, #16
 2989              	.LCFI166:
 2990              		.cfi_def_cfa_offset 24
 2991 0004 00AF     		add	r7, sp, #0
 2992              	.LCFI167:
 2993              		.cfi_def_cfa_register 7
 2994 0006 7860     		str	r0, [r7, #4]
1133:d:/LiteOS_Lab/iot_link/os/liteos/cmsis/2.0\cmsis_liteos2.c ****     UINT32 uwRet;
1134:d:/LiteOS_Lab/iot_link/os/liteos/cmsis/2.0\cmsis_liteos2.c ****     UINT32 uwMuxId;
1135:d:/LiteOS_Lab/iot_link/os/liteos/cmsis/2.0\cmsis_liteos2.c **** 
1136:d:/LiteOS_Lab/iot_link/os/liteos/cmsis/2.0\cmsis_liteos2.c ****     UNUSED(attr);
1137:d:/LiteOS_Lab/iot_link/os/liteos/cmsis/2.0\cmsis_liteos2.c **** 
1138:d:/LiteOS_Lab/iot_link/os/liteos/cmsis/2.0\cmsis_liteos2.c ****     if (OS_INT_ACTIVE)
 2995              		.loc 1 1138 9
 2996 0008 FFF7FEFF 		bl	osIntNumGet
 2997 000c 0346     		mov	r3, r0
 2998              		.loc 1 1138 8
 2999 000e 002B     		cmp	r3, #0
 3000 0010 01D0     		beq	.L229
1139:d:/LiteOS_Lab/iot_link/os/liteos/cmsis/2.0\cmsis_liteos2.c ****     {
1140:d:/LiteOS_Lab/iot_link/os/liteos/cmsis/2.0\cmsis_liteos2.c ****         return NULL;
 3001              		.loc 1 1140 16
 3002 0012 0023     		movs	r3, #0
 3003 0014 12E0     		b	.L232
 3004              	.L229:
1141:d:/LiteOS_Lab/iot_link/os/liteos/cmsis/2.0\cmsis_liteos2.c ****     }
1142:d:/LiteOS_Lab/iot_link/os/liteos/cmsis/2.0\cmsis_liteos2.c **** 
1143:d:/LiteOS_Lab/iot_link/os/liteos/cmsis/2.0\cmsis_liteos2.c ****     uwRet = LOS_MuxCreate(&uwMuxId);
 3005              		.loc 1 1143 13
 3006 0016 07F10803 		add	r3, r7, #8
 3007 001a 1846     		mov	r0, r3
 3008 001c FFF7FEFF 		bl	LOS_MuxCreate
 3009 0020 F860     		str	r0, [r7, #12]
1144:d:/LiteOS_Lab/iot_link/os/liteos/cmsis/2.0\cmsis_liteos2.c **** 
1145:d:/LiteOS_Lab/iot_link/os/liteos/cmsis/2.0\cmsis_liteos2.c ****     if(uwRet == LOS_OK)
 3010              		.loc 1 1145 7
 3011 0022 FB68     		ldr	r3, [r7, #12]
 3012 0024 002B     		cmp	r3, #0
 3013 0026 08D1     		bne	.L231
1146:d:/LiteOS_Lab/iot_link/os/liteos/cmsis/2.0\cmsis_liteos2.c ****     {
1147:d:/LiteOS_Lab/iot_link/os/liteos/cmsis/2.0\cmsis_liteos2.c ****         return (osMutexId_t)(GET_MUX(uwMuxId));
 3014              		.loc 1 1147 30
 3015 0028 064B     		ldr	r3, .L233
 3016 002a 1968     		ldr	r1, [r3]
 3017 002c BA68     		ldr	r2, [r7, #8]
 3018 002e 1346     		mov	r3, r2
ARM GAS  C:\Users\ADMINI~1\AppData\Local\Temp\ccvQoyy7.s 			page 73


 3019 0030 5B00     		lsls	r3, r3, #1
 3020 0032 1344     		add	r3, r3, r2
 3021 0034 DB00     		lsls	r3, r3, #3
 3022              		.loc 1 1147 16
 3023 0036 0B44     		add	r3, r3, r1
 3024 0038 00E0     		b	.L232
 3025              	.L231:
1148:d:/LiteOS_Lab/iot_link/os/liteos/cmsis/2.0\cmsis_liteos2.c ****     }
1149:d:/LiteOS_Lab/iot_link/os/liteos/cmsis/2.0\cmsis_liteos2.c ****     else
1150:d:/LiteOS_Lab/iot_link/os/liteos/cmsis/2.0\cmsis_liteos2.c ****     {
1151:d:/LiteOS_Lab/iot_link/os/liteos/cmsis/2.0\cmsis_liteos2.c ****         return (osMutexId_t)NULL;
 3026              		.loc 1 1151 16
 3027 003a 0023     		movs	r3, #0
 3028              	.L232:
1152:d:/LiteOS_Lab/iot_link/os/liteos/cmsis/2.0\cmsis_liteos2.c ****     }
1153:d:/LiteOS_Lab/iot_link/os/liteos/cmsis/2.0\cmsis_liteos2.c **** }
 3029              		.loc 1 1153 1 discriminator 1
 3030 003c 1846     		mov	r0, r3
 3031 003e 1037     		adds	r7, r7, #16
 3032              	.LCFI168:
 3033              		.cfi_def_cfa_offset 8
 3034 0040 BD46     		mov	sp, r7
 3035              	.LCFI169:
 3036              		.cfi_def_cfa_register 13
 3037              		@ sp needed
 3038 0042 80BD     		pop	{r7, pc}
 3039              	.L234:
 3040              		.align	2
 3041              	.L233:
 3042 0044 00000000 		.word	g_pstAllMux
 3043              		.cfi_endproc
 3044              	.LFE325:
 3046              		.section	.text.osMutexAcquire,"ax",%progbits
 3047              		.align	1
 3048              		.global	osMutexAcquire
 3049              		.syntax unified
 3050              		.thumb
 3051              		.thumb_func
 3052              		.fpu fpv4-sp-d16
 3054              	osMutexAcquire:
 3055              	.LFB326:
1154:d:/LiteOS_Lab/iot_link/os/liteos/cmsis/2.0\cmsis_liteos2.c **** 
1155:d:/LiteOS_Lab/iot_link/os/liteos/cmsis/2.0\cmsis_liteos2.c **** 
1156:d:/LiteOS_Lab/iot_link/os/liteos/cmsis/2.0\cmsis_liteos2.c **** osStatus_t osMutexAcquire (osMutexId_t mutex_id, uint32_t timeout)
1157:d:/LiteOS_Lab/iot_link/os/liteos/cmsis/2.0\cmsis_liteos2.c **** {
 3056              		.loc 1 1157 1
 3057              		.cfi_startproc
 3058              		@ args = 0, pretend = 0, frame = 16
 3059              		@ frame_needed = 1, uses_anonymous_args = 0
 3060 0000 80B5     		push	{r7, lr}
 3061              	.LCFI170:
 3062              		.cfi_def_cfa_offset 8
 3063              		.cfi_offset 7, -8
 3064              		.cfi_offset 14, -4
 3065 0002 84B0     		sub	sp, sp, #16
 3066              	.LCFI171:
 3067              		.cfi_def_cfa_offset 24
ARM GAS  C:\Users\ADMINI~1\AppData\Local\Temp\ccvQoyy7.s 			page 74


 3068 0004 00AF     		add	r7, sp, #0
 3069              	.LCFI172:
 3070              		.cfi_def_cfa_register 7
 3071 0006 7860     		str	r0, [r7, #4]
 3072 0008 3960     		str	r1, [r7]
1158:d:/LiteOS_Lab/iot_link/os/liteos/cmsis/2.0\cmsis_liteos2.c ****     UINT32  uwRet;
1159:d:/LiteOS_Lab/iot_link/os/liteos/cmsis/2.0\cmsis_liteos2.c **** 
1160:d:/LiteOS_Lab/iot_link/os/liteos/cmsis/2.0\cmsis_liteos2.c ****     if (mutex_id == NULL)
 3073              		.loc 1 1160 8
 3074 000a 7B68     		ldr	r3, [r7, #4]
 3075 000c 002B     		cmp	r3, #0
 3076 000e 02D1     		bne	.L236
1161:d:/LiteOS_Lab/iot_link/os/liteos/cmsis/2.0\cmsis_liteos2.c ****     {
1162:d:/LiteOS_Lab/iot_link/os/liteos/cmsis/2.0\cmsis_liteos2.c ****         return osErrorParameter;
 3077              		.loc 1 1162 16
 3078 0010 6FF00303 		mvn	r3, #3
 3079 0014 25E0     		b	.L237
 3080              	.L236:
1163:d:/LiteOS_Lab/iot_link/os/liteos/cmsis/2.0\cmsis_liteos2.c ****     }
1164:d:/LiteOS_Lab/iot_link/os/liteos/cmsis/2.0\cmsis_liteos2.c **** 
1165:d:/LiteOS_Lab/iot_link/os/liteos/cmsis/2.0\cmsis_liteos2.c ****     if (OS_INT_ACTIVE && (timeout != LOS_NO_WAIT))
 3081              		.loc 1 1165 9
 3082 0016 FFF7FEFF 		bl	osIntNumGet
 3083 001a 0346     		mov	r3, r0
 3084              		.loc 1 1165 8
 3085 001c 002B     		cmp	r3, #0
 3086 001e 04D0     		beq	.L238
 3087              		.loc 1 1165 23 discriminator 1
 3088 0020 3B68     		ldr	r3, [r7]
 3089 0022 002B     		cmp	r3, #0
 3090 0024 01D0     		beq	.L238
1166:d:/LiteOS_Lab/iot_link/os/liteos/cmsis/2.0\cmsis_liteos2.c ****     {
1167:d:/LiteOS_Lab/iot_link/os/liteos/cmsis/2.0\cmsis_liteos2.c ****         timeout = 0;
 3091              		.loc 1 1167 17
 3092 0026 0023     		movs	r3, #0
 3093 0028 3B60     		str	r3, [r7]
 3094              	.L238:
1168:d:/LiteOS_Lab/iot_link/os/liteos/cmsis/2.0\cmsis_liteos2.c ****     }
1169:d:/LiteOS_Lab/iot_link/os/liteos/cmsis/2.0\cmsis_liteos2.c **** 
1170:d:/LiteOS_Lab/iot_link/os/liteos/cmsis/2.0\cmsis_liteos2.c ****     uwRet = LOS_MuxPend(((MUX_CB_S *)mutex_id)->ucMuxID, timeout);
 3095              		.loc 1 1170 13
 3096 002a 7B68     		ldr	r3, [r7, #4]
 3097 002c 5B68     		ldr	r3, [r3, #4]
 3098 002e 3968     		ldr	r1, [r7]
 3099 0030 1846     		mov	r0, r3
 3100 0032 FFF7FEFF 		bl	LOS_MuxPend
 3101 0036 F860     		str	r0, [r7, #12]
1171:d:/LiteOS_Lab/iot_link/os/liteos/cmsis/2.0\cmsis_liteos2.c **** 
1172:d:/LiteOS_Lab/iot_link/os/liteos/cmsis/2.0\cmsis_liteos2.c ****     if(uwRet == LOS_OK)
 3102              		.loc 1 1172 7
 3103 0038 FB68     		ldr	r3, [r7, #12]
 3104 003a 002B     		cmp	r3, #0
 3105 003c 01D1     		bne	.L239
1173:d:/LiteOS_Lab/iot_link/os/liteos/cmsis/2.0\cmsis_liteos2.c ****     {
1174:d:/LiteOS_Lab/iot_link/os/liteos/cmsis/2.0\cmsis_liteos2.c ****         return osOK;
 3106              		.loc 1 1174 16
 3107 003e 0023     		movs	r3, #0
ARM GAS  C:\Users\ADMINI~1\AppData\Local\Temp\ccvQoyy7.s 			page 75


 3108 0040 0FE0     		b	.L237
 3109              	.L239:
1175:d:/LiteOS_Lab/iot_link/os/liteos/cmsis/2.0\cmsis_liteos2.c ****     }
1176:d:/LiteOS_Lab/iot_link/os/liteos/cmsis/2.0\cmsis_liteos2.c ****     else if (uwRet == LOS_ERRNO_MUX_TIMEOUT)
 3110              		.loc 1 1176 13
 3111 0042 FB68     		ldr	r3, [r7, #12]
 3112 0044 094A     		ldr	r2, .L242
 3113 0046 9342     		cmp	r3, r2
 3114 0048 02D1     		bne	.L240
1177:d:/LiteOS_Lab/iot_link/os/liteos/cmsis/2.0\cmsis_liteos2.c ****     {
1178:d:/LiteOS_Lab/iot_link/os/liteos/cmsis/2.0\cmsis_liteos2.c ****         return osErrorTimeout;
 3115              		.loc 1 1178 16
 3116 004a 6FF00103 		mvn	r3, #1
 3117 004e 08E0     		b	.L237
 3118              	.L240:
1179:d:/LiteOS_Lab/iot_link/os/liteos/cmsis/2.0\cmsis_liteos2.c ****     }
1180:d:/LiteOS_Lab/iot_link/os/liteos/cmsis/2.0\cmsis_liteos2.c ****     else if (uwRet == LOS_ERRNO_MUX_INVALID)
 3119              		.loc 1 1180 13
 3120 0050 FB68     		ldr	r3, [r7, #12]
 3121 0052 074A     		ldr	r2, .L242+4
 3122 0054 9342     		cmp	r3, r2
 3123 0056 02D1     		bne	.L241
1181:d:/LiteOS_Lab/iot_link/os/liteos/cmsis/2.0\cmsis_liteos2.c ****     {
1182:d:/LiteOS_Lab/iot_link/os/liteos/cmsis/2.0\cmsis_liteos2.c ****         return osErrorParameter;
 3124              		.loc 1 1182 16
 3125 0058 6FF00303 		mvn	r3, #3
 3126 005c 01E0     		b	.L237
 3127              	.L241:
1183:d:/LiteOS_Lab/iot_link/os/liteos/cmsis/2.0\cmsis_liteos2.c ****     }
1184:d:/LiteOS_Lab/iot_link/os/liteos/cmsis/2.0\cmsis_liteos2.c ****     else
1185:d:/LiteOS_Lab/iot_link/os/liteos/cmsis/2.0\cmsis_liteos2.c ****     {
1186:d:/LiteOS_Lab/iot_link/os/liteos/cmsis/2.0\cmsis_liteos2.c ****         return osErrorResource;
 3128              		.loc 1 1186 16
 3129 005e 6FF00203 		mvn	r3, #2
 3130              	.L237:
1187:d:/LiteOS_Lab/iot_link/os/liteos/cmsis/2.0\cmsis_liteos2.c ****     }
1188:d:/LiteOS_Lab/iot_link/os/liteos/cmsis/2.0\cmsis_liteos2.c **** }
 3131              		.loc 1 1188 1
 3132 0062 1846     		mov	r0, r3
 3133 0064 1037     		adds	r7, r7, #16
 3134              	.LCFI173:
 3135              		.cfi_def_cfa_offset 8
 3136 0066 BD46     		mov	sp, r7
 3137              	.LCFI174:
 3138              		.cfi_def_cfa_register 13
 3139              		@ sp needed
 3140 0068 80BD     		pop	{r7, pc}
 3141              	.L243:
 3142 006a 00BF     		.align	2
 3143              	.L242:
 3144 006c 071D0002 		.word	33561863
 3145 0070 011D0002 		.word	33561857
 3146              		.cfi_endproc
 3147              	.LFE326:
 3149              		.section	.text.osMutexRelease,"ax",%progbits
 3150              		.align	1
 3151              		.global	osMutexRelease
ARM GAS  C:\Users\ADMINI~1\AppData\Local\Temp\ccvQoyy7.s 			page 76


 3152              		.syntax unified
 3153              		.thumb
 3154              		.thumb_func
 3155              		.fpu fpv4-sp-d16
 3157              	osMutexRelease:
 3158              	.LFB327:
1189:d:/LiteOS_Lab/iot_link/os/liteos/cmsis/2.0\cmsis_liteos2.c **** 
1190:d:/LiteOS_Lab/iot_link/os/liteos/cmsis/2.0\cmsis_liteos2.c **** 
1191:d:/LiteOS_Lab/iot_link/os/liteos/cmsis/2.0\cmsis_liteos2.c **** osStatus_t osMutexRelease (osMutexId_t mutex_id)
1192:d:/LiteOS_Lab/iot_link/os/liteos/cmsis/2.0\cmsis_liteos2.c **** {
 3159              		.loc 1 1192 1
 3160              		.cfi_startproc
 3161              		@ args = 0, pretend = 0, frame = 16
 3162              		@ frame_needed = 1, uses_anonymous_args = 0
 3163 0000 80B5     		push	{r7, lr}
 3164              	.LCFI175:
 3165              		.cfi_def_cfa_offset 8
 3166              		.cfi_offset 7, -8
 3167              		.cfi_offset 14, -4
 3168 0002 84B0     		sub	sp, sp, #16
 3169              	.LCFI176:
 3170              		.cfi_def_cfa_offset 24
 3171 0004 00AF     		add	r7, sp, #0
 3172              	.LCFI177:
 3173              		.cfi_def_cfa_register 7
 3174 0006 7860     		str	r0, [r7, #4]
1193:d:/LiteOS_Lab/iot_link/os/liteos/cmsis/2.0\cmsis_liteos2.c ****     UINT32  uwRet;
1194:d:/LiteOS_Lab/iot_link/os/liteos/cmsis/2.0\cmsis_liteos2.c **** 
1195:d:/LiteOS_Lab/iot_link/os/liteos/cmsis/2.0\cmsis_liteos2.c ****     if (mutex_id == NULL)
 3175              		.loc 1 1195 8
 3176 0008 7B68     		ldr	r3, [r7, #4]
 3177 000a 002B     		cmp	r3, #0
 3178 000c 02D1     		bne	.L245
1196:d:/LiteOS_Lab/iot_link/os/liteos/cmsis/2.0\cmsis_liteos2.c ****     {
1197:d:/LiteOS_Lab/iot_link/os/liteos/cmsis/2.0\cmsis_liteos2.c ****         return osErrorParameter;
 3179              		.loc 1 1197 16
 3180 000e 6FF00303 		mvn	r3, #3
 3181 0012 0CE0     		b	.L246
 3182              	.L245:
1198:d:/LiteOS_Lab/iot_link/os/liteos/cmsis/2.0\cmsis_liteos2.c ****     }
1199:d:/LiteOS_Lab/iot_link/os/liteos/cmsis/2.0\cmsis_liteos2.c **** 
1200:d:/LiteOS_Lab/iot_link/os/liteos/cmsis/2.0\cmsis_liteos2.c ****     uwRet = LOS_MuxPost(((MUX_CB_S *)mutex_id)->ucMuxID);
 3183              		.loc 1 1200 13
 3184 0014 7B68     		ldr	r3, [r7, #4]
 3185 0016 5B68     		ldr	r3, [r3, #4]
 3186 0018 1846     		mov	r0, r3
 3187 001a FFF7FEFF 		bl	LOS_MuxPost
 3188 001e F860     		str	r0, [r7, #12]
1201:d:/LiteOS_Lab/iot_link/os/liteos/cmsis/2.0\cmsis_liteos2.c **** 
1202:d:/LiteOS_Lab/iot_link/os/liteos/cmsis/2.0\cmsis_liteos2.c ****     if (uwRet == LOS_OK)
 3189              		.loc 1 1202 8
 3190 0020 FB68     		ldr	r3, [r7, #12]
 3191 0022 002B     		cmp	r3, #0
 3192 0024 01D1     		bne	.L247
1203:d:/LiteOS_Lab/iot_link/os/liteos/cmsis/2.0\cmsis_liteos2.c ****     {
1204:d:/LiteOS_Lab/iot_link/os/liteos/cmsis/2.0\cmsis_liteos2.c ****         return osOK;
 3193              		.loc 1 1204 16
ARM GAS  C:\Users\ADMINI~1\AppData\Local\Temp\ccvQoyy7.s 			page 77


 3194 0026 0023     		movs	r3, #0
 3195 0028 01E0     		b	.L246
 3196              	.L247:
1205:d:/LiteOS_Lab/iot_link/os/liteos/cmsis/2.0\cmsis_liteos2.c ****     }
1206:d:/LiteOS_Lab/iot_link/os/liteos/cmsis/2.0\cmsis_liteos2.c ****     else
1207:d:/LiteOS_Lab/iot_link/os/liteos/cmsis/2.0\cmsis_liteos2.c ****     {
1208:d:/LiteOS_Lab/iot_link/os/liteos/cmsis/2.0\cmsis_liteos2.c ****         return osErrorResource;
 3197              		.loc 1 1208 16
 3198 002a 6FF00203 		mvn	r3, #2
 3199              	.L246:
1209:d:/LiteOS_Lab/iot_link/os/liteos/cmsis/2.0\cmsis_liteos2.c ****     }
1210:d:/LiteOS_Lab/iot_link/os/liteos/cmsis/2.0\cmsis_liteos2.c **** }
 3200              		.loc 1 1210 1
 3201 002e 1846     		mov	r0, r3
 3202 0030 1037     		adds	r7, r7, #16
 3203              	.LCFI178:
 3204              		.cfi_def_cfa_offset 8
 3205 0032 BD46     		mov	sp, r7
 3206              	.LCFI179:
 3207              		.cfi_def_cfa_register 13
 3208              		@ sp needed
 3209 0034 80BD     		pop	{r7, pc}
 3210              		.cfi_endproc
 3211              	.LFE327:
 3213              		.section	.text.osMutexGetOwner,"ax",%progbits
 3214              		.align	1
 3215              		.global	osMutexGetOwner
 3216              		.syntax unified
 3217              		.thumb
 3218              		.thumb_func
 3219              		.fpu fpv4-sp-d16
 3221              	osMutexGetOwner:
 3222              	.LFB328:
1211:d:/LiteOS_Lab/iot_link/os/liteos/cmsis/2.0\cmsis_liteos2.c **** 
1212:d:/LiteOS_Lab/iot_link/os/liteos/cmsis/2.0\cmsis_liteos2.c **** 
1213:d:/LiteOS_Lab/iot_link/os/liteos/cmsis/2.0\cmsis_liteos2.c **** osThreadId_t osMutexGetOwner (osMutexId_t mutex_id)
1214:d:/LiteOS_Lab/iot_link/os/liteos/cmsis/2.0\cmsis_liteos2.c **** {
 3223              		.loc 1 1214 1
 3224              		.cfi_startproc
 3225              		@ args = 0, pretend = 0, frame = 16
 3226              		@ frame_needed = 1, uses_anonymous_args = 0
 3227 0000 80B5     		push	{r7, lr}
 3228              	.LCFI180:
 3229              		.cfi_def_cfa_offset 8
 3230              		.cfi_offset 7, -8
 3231              		.cfi_offset 14, -4
 3232 0002 84B0     		sub	sp, sp, #16
 3233              	.LCFI181:
 3234              		.cfi_def_cfa_offset 24
 3235 0004 00AF     		add	r7, sp, #0
 3236              	.LCFI182:
 3237              		.cfi_def_cfa_register 7
 3238 0006 7860     		str	r0, [r7, #4]
1215:d:/LiteOS_Lab/iot_link/os/liteos/cmsis/2.0\cmsis_liteos2.c ****     UINT32 uwIntSave;
1216:d:/LiteOS_Lab/iot_link/os/liteos/cmsis/2.0\cmsis_liteos2.c ****     LOS_TASK_CB *pstTaskCB;
1217:d:/LiteOS_Lab/iot_link/os/liteos/cmsis/2.0\cmsis_liteos2.c **** 
1218:d:/LiteOS_Lab/iot_link/os/liteos/cmsis/2.0\cmsis_liteos2.c ****     if (OS_INT_ACTIVE)
ARM GAS  C:\Users\ADMINI~1\AppData\Local\Temp\ccvQoyy7.s 			page 78


 3239              		.loc 1 1218 9
 3240 0008 FFF7FEFF 		bl	osIntNumGet
 3241 000c 0346     		mov	r3, r0
 3242              		.loc 1 1218 8
 3243 000e 002B     		cmp	r3, #0
 3244 0010 01D0     		beq	.L249
1219:d:/LiteOS_Lab/iot_link/os/liteos/cmsis/2.0\cmsis_liteos2.c ****     {
1220:d:/LiteOS_Lab/iot_link/os/liteos/cmsis/2.0\cmsis_liteos2.c ****         return NULL;
 3245              		.loc 1 1220 16
 3246 0012 0023     		movs	r3, #0
 3247 0014 0EE0     		b	.L250
 3248              	.L249:
1221:d:/LiteOS_Lab/iot_link/os/liteos/cmsis/2.0\cmsis_liteos2.c ****     }
1222:d:/LiteOS_Lab/iot_link/os/liteos/cmsis/2.0\cmsis_liteos2.c **** 
1223:d:/LiteOS_Lab/iot_link/os/liteos/cmsis/2.0\cmsis_liteos2.c ****     if (mutex_id == NULL)
 3249              		.loc 1 1223 8
 3250 0016 7B68     		ldr	r3, [r7, #4]
 3251 0018 002B     		cmp	r3, #0
 3252 001a 01D1     		bne	.L251
1224:d:/LiteOS_Lab/iot_link/os/liteos/cmsis/2.0\cmsis_liteos2.c ****     {
1225:d:/LiteOS_Lab/iot_link/os/liteos/cmsis/2.0\cmsis_liteos2.c ****         return NULL;
 3253              		.loc 1 1225 16
 3254 001c 0023     		movs	r3, #0
 3255 001e 09E0     		b	.L250
 3256              	.L251:
1226:d:/LiteOS_Lab/iot_link/os/liteos/cmsis/2.0\cmsis_liteos2.c ****     }
1227:d:/LiteOS_Lab/iot_link/os/liteos/cmsis/2.0\cmsis_liteos2.c **** 
1228:d:/LiteOS_Lab/iot_link/os/liteos/cmsis/2.0\cmsis_liteos2.c ****     uwIntSave = LOS_IntLock();
 3257              		.loc 1 1228 17
 3258 0020 FFF7FEFF 		bl	LOS_IntLock
 3259 0024 F860     		str	r0, [r7, #12]
1229:d:/LiteOS_Lab/iot_link/os/liteos/cmsis/2.0\cmsis_liteos2.c ****     pstTaskCB = ((MUX_CB_S *)mutex_id)->pstOwner;
 3260              		.loc 1 1229 15
 3261 0026 7B68     		ldr	r3, [r7, #4]
 3262 0028 1B69     		ldr	r3, [r3, #16]
 3263 002a BB60     		str	r3, [r7, #8]
1230:d:/LiteOS_Lab/iot_link/os/liteos/cmsis/2.0\cmsis_liteos2.c ****     (VOID)LOS_IntRestore(uwIntSave);
 3264              		.loc 1 1230 5
 3265 002c F868     		ldr	r0, [r7, #12]
 3266 002e FFF7FEFF 		bl	LOS_IntRestore
1231:d:/LiteOS_Lab/iot_link/os/liteos/cmsis/2.0\cmsis_liteos2.c **** 
1232:d:/LiteOS_Lab/iot_link/os/liteos/cmsis/2.0\cmsis_liteos2.c ****     return (osThreadId_t)pstTaskCB;
 3267              		.loc 1 1232 12
 3268 0032 BB68     		ldr	r3, [r7, #8]
 3269              	.L250:
1233:d:/LiteOS_Lab/iot_link/os/liteos/cmsis/2.0\cmsis_liteos2.c **** }
 3270              		.loc 1 1233 1
 3271 0034 1846     		mov	r0, r3
 3272 0036 1037     		adds	r7, r7, #16
 3273              	.LCFI183:
 3274              		.cfi_def_cfa_offset 8
 3275 0038 BD46     		mov	sp, r7
 3276              	.LCFI184:
 3277              		.cfi_def_cfa_register 13
 3278              		@ sp needed
 3279 003a 80BD     		pop	{r7, pc}
 3280              		.cfi_endproc
ARM GAS  C:\Users\ADMINI~1\AppData\Local\Temp\ccvQoyy7.s 			page 79


 3281              	.LFE328:
 3283              		.section	.text.osMutexDelete,"ax",%progbits
 3284              		.align	1
 3285              		.global	osMutexDelete
 3286              		.syntax unified
 3287              		.thumb
 3288              		.thumb_func
 3289              		.fpu fpv4-sp-d16
 3291              	osMutexDelete:
 3292              	.LFB329:
1234:d:/LiteOS_Lab/iot_link/os/liteos/cmsis/2.0\cmsis_liteos2.c **** 
1235:d:/LiteOS_Lab/iot_link/os/liteos/cmsis/2.0\cmsis_liteos2.c **** 
1236:d:/LiteOS_Lab/iot_link/os/liteos/cmsis/2.0\cmsis_liteos2.c **** osStatus_t osMutexDelete (osMutexId_t mutex_id)
1237:d:/LiteOS_Lab/iot_link/os/liteos/cmsis/2.0\cmsis_liteos2.c **** {
 3293              		.loc 1 1237 1
 3294              		.cfi_startproc
 3295              		@ args = 0, pretend = 0, frame = 16
 3296              		@ frame_needed = 1, uses_anonymous_args = 0
 3297 0000 80B5     		push	{r7, lr}
 3298              	.LCFI185:
 3299              		.cfi_def_cfa_offset 8
 3300              		.cfi_offset 7, -8
 3301              		.cfi_offset 14, -4
 3302 0002 84B0     		sub	sp, sp, #16
 3303              	.LCFI186:
 3304              		.cfi_def_cfa_offset 24
 3305 0004 00AF     		add	r7, sp, #0
 3306              	.LCFI187:
 3307              		.cfi_def_cfa_register 7
 3308 0006 7860     		str	r0, [r7, #4]
1238:d:/LiteOS_Lab/iot_link/os/liteos/cmsis/2.0\cmsis_liteos2.c ****     UINT32  uwRet;
1239:d:/LiteOS_Lab/iot_link/os/liteos/cmsis/2.0\cmsis_liteos2.c **** 
1240:d:/LiteOS_Lab/iot_link/os/liteos/cmsis/2.0\cmsis_liteos2.c ****     if (OS_INT_ACTIVE)
 3309              		.loc 1 1240 9
 3310 0008 FFF7FEFF 		bl	osIntNumGet
 3311 000c 0346     		mov	r3, r0
 3312              		.loc 1 1240 8
 3313 000e 002B     		cmp	r3, #0
 3314 0010 02D0     		beq	.L253
1241:d:/LiteOS_Lab/iot_link/os/liteos/cmsis/2.0\cmsis_liteos2.c ****     {
1242:d:/LiteOS_Lab/iot_link/os/liteos/cmsis/2.0\cmsis_liteos2.c ****         return osErrorISR;
 3315              		.loc 1 1242 16
 3316 0012 6FF00503 		mvn	r3, #5
 3317 0016 19E0     		b	.L254
 3318              	.L253:
1243:d:/LiteOS_Lab/iot_link/os/liteos/cmsis/2.0\cmsis_liteos2.c ****     }
1244:d:/LiteOS_Lab/iot_link/os/liteos/cmsis/2.0\cmsis_liteos2.c **** 
1245:d:/LiteOS_Lab/iot_link/os/liteos/cmsis/2.0\cmsis_liteos2.c ****     if (mutex_id == NULL)
 3319              		.loc 1 1245 8
 3320 0018 7B68     		ldr	r3, [r7, #4]
 3321 001a 002B     		cmp	r3, #0
 3322 001c 02D1     		bne	.L255
1246:d:/LiteOS_Lab/iot_link/os/liteos/cmsis/2.0\cmsis_liteos2.c ****     {
1247:d:/LiteOS_Lab/iot_link/os/liteos/cmsis/2.0\cmsis_liteos2.c ****         return osErrorParameter;
 3323              		.loc 1 1247 16
 3324 001e 6FF00303 		mvn	r3, #3
 3325 0022 13E0     		b	.L254
ARM GAS  C:\Users\ADMINI~1\AppData\Local\Temp\ccvQoyy7.s 			page 80


 3326              	.L255:
1248:d:/LiteOS_Lab/iot_link/os/liteos/cmsis/2.0\cmsis_liteos2.c ****     }
1249:d:/LiteOS_Lab/iot_link/os/liteos/cmsis/2.0\cmsis_liteos2.c **** 
1250:d:/LiteOS_Lab/iot_link/os/liteos/cmsis/2.0\cmsis_liteos2.c ****     uwRet = LOS_MuxDelete(((MUX_CB_S *)mutex_id)->ucMuxID);
 3327              		.loc 1 1250 13
 3328 0024 7B68     		ldr	r3, [r7, #4]
 3329 0026 5B68     		ldr	r3, [r3, #4]
 3330 0028 1846     		mov	r0, r3
 3331 002a FFF7FEFF 		bl	LOS_MuxDelete
 3332 002e F860     		str	r0, [r7, #12]
1251:d:/LiteOS_Lab/iot_link/os/liteos/cmsis/2.0\cmsis_liteos2.c **** 
1252:d:/LiteOS_Lab/iot_link/os/liteos/cmsis/2.0\cmsis_liteos2.c ****     if(uwRet == LOS_OK)
 3333              		.loc 1 1252 7
 3334 0030 FB68     		ldr	r3, [r7, #12]
 3335 0032 002B     		cmp	r3, #0
 3336 0034 01D1     		bne	.L256
1253:d:/LiteOS_Lab/iot_link/os/liteos/cmsis/2.0\cmsis_liteos2.c ****     {
1254:d:/LiteOS_Lab/iot_link/os/liteos/cmsis/2.0\cmsis_liteos2.c ****         return osOK;
 3337              		.loc 1 1254 16
 3338 0036 0023     		movs	r3, #0
 3339 0038 08E0     		b	.L254
 3340              	.L256:
1255:d:/LiteOS_Lab/iot_link/os/liteos/cmsis/2.0\cmsis_liteos2.c ****     }
1256:d:/LiteOS_Lab/iot_link/os/liteos/cmsis/2.0\cmsis_liteos2.c ****     else if (uwRet == LOS_ERRNO_MUX_INVALID)
 3341              		.loc 1 1256 13
 3342 003a FB68     		ldr	r3, [r7, #12]
 3343 003c 054A     		ldr	r2, .L258
 3344 003e 9342     		cmp	r3, r2
 3345 0040 02D1     		bne	.L257
1257:d:/LiteOS_Lab/iot_link/os/liteos/cmsis/2.0\cmsis_liteos2.c ****     {
1258:d:/LiteOS_Lab/iot_link/os/liteos/cmsis/2.0\cmsis_liteos2.c ****         return osErrorParameter;
 3346              		.loc 1 1258 16
 3347 0042 6FF00303 		mvn	r3, #3
 3348 0046 01E0     		b	.L254
 3349              	.L257:
1259:d:/LiteOS_Lab/iot_link/os/liteos/cmsis/2.0\cmsis_liteos2.c ****     }
1260:d:/LiteOS_Lab/iot_link/os/liteos/cmsis/2.0\cmsis_liteos2.c ****     else
1261:d:/LiteOS_Lab/iot_link/os/liteos/cmsis/2.0\cmsis_liteos2.c ****     {
1262:d:/LiteOS_Lab/iot_link/os/liteos/cmsis/2.0\cmsis_liteos2.c ****         return osErrorResource;
 3350              		.loc 1 1262 16
 3351 0048 6FF00203 		mvn	r3, #2
 3352              	.L254:
1263:d:/LiteOS_Lab/iot_link/os/liteos/cmsis/2.0\cmsis_liteos2.c ****     }
1264:d:/LiteOS_Lab/iot_link/os/liteos/cmsis/2.0\cmsis_liteos2.c **** }
 3353              		.loc 1 1264 1
 3354 004c 1846     		mov	r0, r3
 3355 004e 1037     		adds	r7, r7, #16
 3356              	.LCFI188:
 3357              		.cfi_def_cfa_offset 8
 3358 0050 BD46     		mov	sp, r7
 3359              	.LCFI189:
 3360              		.cfi_def_cfa_register 13
 3361              		@ sp needed
 3362 0052 80BD     		pop	{r7, pc}
 3363              	.L259:
 3364              		.align	2
 3365              	.L258:
ARM GAS  C:\Users\ADMINI~1\AppData\Local\Temp\ccvQoyy7.s 			page 81


 3366 0054 011D0002 		.word	33561857
 3367              		.cfi_endproc
 3368              	.LFE329:
 3370              		.section	.text.osSemaphoreNew,"ax",%progbits
 3371              		.align	1
 3372              		.global	osSemaphoreNew
 3373              		.syntax unified
 3374              		.thumb
 3375              		.thumb_func
 3376              		.fpu fpv4-sp-d16
 3378              	osSemaphoreNew:
 3379              	.LFB330:
1265:d:/LiteOS_Lab/iot_link/os/liteos/cmsis/2.0\cmsis_liteos2.c **** #endif
1266:d:/LiteOS_Lab/iot_link/os/liteos/cmsis/2.0\cmsis_liteos2.c **** 
1267:d:/LiteOS_Lab/iot_link/os/liteos/cmsis/2.0\cmsis_liteos2.c **** //  ==== Semaphore Management Functions ====
1268:d:/LiteOS_Lab/iot_link/os/liteos/cmsis/2.0\cmsis_liteos2.c **** #if (LOSCFG_BASE_IPC_SEM == YES)
1269:d:/LiteOS_Lab/iot_link/os/liteos/cmsis/2.0\cmsis_liteos2.c **** 
1270:d:/LiteOS_Lab/iot_link/os/liteos/cmsis/2.0\cmsis_liteos2.c **** osSemaphoreId_t osSemaphoreNew (uint32_t max_count, uint32_t initial_count, const osSemaphoreAttr_t
1271:d:/LiteOS_Lab/iot_link/os/liteos/cmsis/2.0\cmsis_liteos2.c **** {
 3380              		.loc 1 1271 1
 3381              		.cfi_startproc
 3382              		@ args = 0, pretend = 0, frame = 24
 3383              		@ frame_needed = 1, uses_anonymous_args = 0
 3384 0000 80B5     		push	{r7, lr}
 3385              	.LCFI190:
 3386              		.cfi_def_cfa_offset 8
 3387              		.cfi_offset 7, -8
 3388              		.cfi_offset 14, -4
 3389 0002 86B0     		sub	sp, sp, #24
 3390              	.LCFI191:
 3391              		.cfi_def_cfa_offset 32
 3392 0004 00AF     		add	r7, sp, #0
 3393              	.LCFI192:
 3394              		.cfi_def_cfa_register 7
 3395 0006 F860     		str	r0, [r7, #12]
 3396 0008 B960     		str	r1, [r7, #8]
 3397 000a 7A60     		str	r2, [r7, #4]
1272:d:/LiteOS_Lab/iot_link/os/liteos/cmsis/2.0\cmsis_liteos2.c ****     UINT32 uwRet;
1273:d:/LiteOS_Lab/iot_link/os/liteos/cmsis/2.0\cmsis_liteos2.c ****     UINT32 uwSemId;
1274:d:/LiteOS_Lab/iot_link/os/liteos/cmsis/2.0\cmsis_liteos2.c **** 
1275:d:/LiteOS_Lab/iot_link/os/liteos/cmsis/2.0\cmsis_liteos2.c ****     UNUSED(attr);
1276:d:/LiteOS_Lab/iot_link/os/liteos/cmsis/2.0\cmsis_liteos2.c **** 
1277:d:/LiteOS_Lab/iot_link/os/liteos/cmsis/2.0\cmsis_liteos2.c ****     if (OS_INT_ACTIVE)
 3398              		.loc 1 1277 9
 3399 000c FFF7FEFF 		bl	osIntNumGet
 3400 0010 0346     		mov	r3, r0
 3401              		.loc 1 1277 8
 3402 0012 002B     		cmp	r3, #0
 3403 0014 01D0     		beq	.L261
1278:d:/LiteOS_Lab/iot_link/os/liteos/cmsis/2.0\cmsis_liteos2.c ****     {
1279:d:/LiteOS_Lab/iot_link/os/liteos/cmsis/2.0\cmsis_liteos2.c ****         return (osSemaphoreId_t)NULL;
 3404              		.loc 1 1279 16
 3405 0016 0023     		movs	r3, #0
 3406 0018 1FE0     		b	.L266
 3407              	.L261:
1280:d:/LiteOS_Lab/iot_link/os/liteos/cmsis/2.0\cmsis_liteos2.c ****     }
1281:d:/LiteOS_Lab/iot_link/os/liteos/cmsis/2.0\cmsis_liteos2.c **** 
ARM GAS  C:\Users\ADMINI~1\AppData\Local\Temp\ccvQoyy7.s 			page 82


1282:d:/LiteOS_Lab/iot_link/os/liteos/cmsis/2.0\cmsis_liteos2.c ****     if(1 == max_count)
 3408              		.loc 1 1282 7
 3409 001a FB68     		ldr	r3, [r7, #12]
 3410 001c 012B     		cmp	r3, #1
 3411 001e 09D1     		bne	.L263
1283:d:/LiteOS_Lab/iot_link/os/liteos/cmsis/2.0\cmsis_liteos2.c ****     {
1284:d:/LiteOS_Lab/iot_link/os/liteos/cmsis/2.0\cmsis_liteos2.c ****         uwRet = LOS_BinarySemCreate((UINT16)initial_count, &uwSemId);
 3412              		.loc 1 1284 17
 3413 0020 BB68     		ldr	r3, [r7, #8]
 3414 0022 9BB2     		uxth	r3, r3
 3415 0024 07F11002 		add	r2, r7, #16
 3416 0028 1146     		mov	r1, r2
 3417 002a 1846     		mov	r0, r3
 3418 002c FFF7FEFF 		bl	LOS_BinarySemCreate
 3419 0030 7861     		str	r0, [r7, #20]
 3420 0032 08E0     		b	.L264
 3421              	.L263:
1285:d:/LiteOS_Lab/iot_link/os/liteos/cmsis/2.0\cmsis_liteos2.c ****     }
1286:d:/LiteOS_Lab/iot_link/os/liteos/cmsis/2.0\cmsis_liteos2.c ****     else
1287:d:/LiteOS_Lab/iot_link/os/liteos/cmsis/2.0\cmsis_liteos2.c ****     {
1288:d:/LiteOS_Lab/iot_link/os/liteos/cmsis/2.0\cmsis_liteos2.c ****         uwRet = LOS_SemCreate((UINT16)initial_count, &uwSemId);
 3422              		.loc 1 1288 17
 3423 0034 BB68     		ldr	r3, [r7, #8]
 3424 0036 9BB2     		uxth	r3, r3
 3425 0038 07F11002 		add	r2, r7, #16
 3426 003c 1146     		mov	r1, r2
 3427 003e 1846     		mov	r0, r3
 3428 0040 FFF7FEFF 		bl	LOS_SemCreate
 3429 0044 7861     		str	r0, [r7, #20]
 3430              	.L264:
1289:d:/LiteOS_Lab/iot_link/os/liteos/cmsis/2.0\cmsis_liteos2.c ****     }
1290:d:/LiteOS_Lab/iot_link/os/liteos/cmsis/2.0\cmsis_liteos2.c **** 
1291:d:/LiteOS_Lab/iot_link/os/liteos/cmsis/2.0\cmsis_liteos2.c ****     if (uwRet == LOS_OK)
 3431              		.loc 1 1291 8
 3432 0046 7B69     		ldr	r3, [r7, #20]
 3433 0048 002B     		cmp	r3, #0
 3434 004a 05D1     		bne	.L265
1292:d:/LiteOS_Lab/iot_link/os/liteos/cmsis/2.0\cmsis_liteos2.c ****     {
1293:d:/LiteOS_Lab/iot_link/os/liteos/cmsis/2.0\cmsis_liteos2.c ****         return (osSemaphoreId_t)(GET_SEM(uwSemId));
 3435              		.loc 1 1293 34
 3436 004c 054B     		ldr	r3, .L267
 3437 004e 1A68     		ldr	r2, [r3]
 3438 0050 3B69     		ldr	r3, [r7, #16]
 3439 0052 1B01     		lsls	r3, r3, #4
 3440              		.loc 1 1293 16
 3441 0054 1344     		add	r3, r3, r2
 3442 0056 00E0     		b	.L266
 3443              	.L265:
1294:d:/LiteOS_Lab/iot_link/os/liteos/cmsis/2.0\cmsis_liteos2.c ****     }
1295:d:/LiteOS_Lab/iot_link/os/liteos/cmsis/2.0\cmsis_liteos2.c ****     else
1296:d:/LiteOS_Lab/iot_link/os/liteos/cmsis/2.0\cmsis_liteos2.c ****     {
1297:d:/LiteOS_Lab/iot_link/os/liteos/cmsis/2.0\cmsis_liteos2.c ****         return (osSemaphoreId_t)NULL;
 3444              		.loc 1 1297 16
 3445 0058 0023     		movs	r3, #0
 3446              	.L266:
1298:d:/LiteOS_Lab/iot_link/os/liteos/cmsis/2.0\cmsis_liteos2.c ****     }
1299:d:/LiteOS_Lab/iot_link/os/liteos/cmsis/2.0\cmsis_liteos2.c **** }
ARM GAS  C:\Users\ADMINI~1\AppData\Local\Temp\ccvQoyy7.s 			page 83


 3447              		.loc 1 1299 1 discriminator 1
 3448 005a 1846     		mov	r0, r3
 3449 005c 1837     		adds	r7, r7, #24
 3450              	.LCFI193:
 3451              		.cfi_def_cfa_offset 8
 3452 005e BD46     		mov	sp, r7
 3453              	.LCFI194:
 3454              		.cfi_def_cfa_register 13
 3455              		@ sp needed
 3456 0060 80BD     		pop	{r7, pc}
 3457              	.L268:
 3458 0062 00BF     		.align	2
 3459              	.L267:
 3460 0064 00000000 		.word	g_pstAllSem
 3461              		.cfi_endproc
 3462              	.LFE330:
 3464              		.section	.text.osSemaphoreAcquire,"ax",%progbits
 3465              		.align	1
 3466              		.global	osSemaphoreAcquire
 3467              		.syntax unified
 3468              		.thumb
 3469              		.thumb_func
 3470              		.fpu fpv4-sp-d16
 3472              	osSemaphoreAcquire:
 3473              	.LFB331:
1300:d:/LiteOS_Lab/iot_link/os/liteos/cmsis/2.0\cmsis_liteos2.c **** 
1301:d:/LiteOS_Lab/iot_link/os/liteos/cmsis/2.0\cmsis_liteos2.c **** 
1302:d:/LiteOS_Lab/iot_link/os/liteos/cmsis/2.0\cmsis_liteos2.c **** osStatus_t osSemaphoreAcquire (osSemaphoreId_t semaphore_id, uint32_t timeout)
1303:d:/LiteOS_Lab/iot_link/os/liteos/cmsis/2.0\cmsis_liteos2.c **** {
 3474              		.loc 1 1303 1
 3475              		.cfi_startproc
 3476              		@ args = 0, pretend = 0, frame = 16
 3477              		@ frame_needed = 1, uses_anonymous_args = 0
 3478 0000 80B5     		push	{r7, lr}
 3479              	.LCFI195:
 3480              		.cfi_def_cfa_offset 8
 3481              		.cfi_offset 7, -8
 3482              		.cfi_offset 14, -4
 3483 0002 84B0     		sub	sp, sp, #16
 3484              	.LCFI196:
 3485              		.cfi_def_cfa_offset 24
 3486 0004 00AF     		add	r7, sp, #0
 3487              	.LCFI197:
 3488              		.cfi_def_cfa_register 7
 3489 0006 7860     		str	r0, [r7, #4]
 3490 0008 3960     		str	r1, [r7]
1304:d:/LiteOS_Lab/iot_link/os/liteos/cmsis/2.0\cmsis_liteos2.c ****     UINT32 uwRet;
1305:d:/LiteOS_Lab/iot_link/os/liteos/cmsis/2.0\cmsis_liteos2.c **** 
1306:d:/LiteOS_Lab/iot_link/os/liteos/cmsis/2.0\cmsis_liteos2.c ****     if (semaphore_id == NULL)
 3491              		.loc 1 1306 8
 3492 000a 7B68     		ldr	r3, [r7, #4]
 3493 000c 002B     		cmp	r3, #0
 3494 000e 02D1     		bne	.L270
1307:d:/LiteOS_Lab/iot_link/os/liteos/cmsis/2.0\cmsis_liteos2.c ****     {
1308:d:/LiteOS_Lab/iot_link/os/liteos/cmsis/2.0\cmsis_liteos2.c ****         return osErrorParameter;
 3495              		.loc 1 1308 16
 3496 0010 6FF00303 		mvn	r3, #3
ARM GAS  C:\Users\ADMINI~1\AppData\Local\Temp\ccvQoyy7.s 			page 84


 3497 0014 2DE0     		b	.L271
 3498              	.L270:
1309:d:/LiteOS_Lab/iot_link/os/liteos/cmsis/2.0\cmsis_liteos2.c ****     }
1310:d:/LiteOS_Lab/iot_link/os/liteos/cmsis/2.0\cmsis_liteos2.c **** 
1311:d:/LiteOS_Lab/iot_link/os/liteos/cmsis/2.0\cmsis_liteos2.c ****     if (OS_INT_ACTIVE && (timeout != LOS_NO_WAIT))
 3499              		.loc 1 1311 9
 3500 0016 FFF7FEFF 		bl	osIntNumGet
 3501 001a 0346     		mov	r3, r0
 3502              		.loc 1 1311 8
 3503 001c 002B     		cmp	r3, #0
 3504 001e 05D0     		beq	.L272
 3505              		.loc 1 1311 23 discriminator 1
 3506 0020 3B68     		ldr	r3, [r7]
 3507 0022 002B     		cmp	r3, #0
 3508 0024 02D0     		beq	.L272
1312:d:/LiteOS_Lab/iot_link/os/liteos/cmsis/2.0\cmsis_liteos2.c ****     {
1313:d:/LiteOS_Lab/iot_link/os/liteos/cmsis/2.0\cmsis_liteos2.c ****         return osErrorISR;
 3509              		.loc 1 1313 16
 3510 0026 6FF00503 		mvn	r3, #5
 3511 002a 22E0     		b	.L271
 3512              	.L272:
1314:d:/LiteOS_Lab/iot_link/os/liteos/cmsis/2.0\cmsis_liteos2.c ****     }
1315:d:/LiteOS_Lab/iot_link/os/liteos/cmsis/2.0\cmsis_liteos2.c **** 
1316:d:/LiteOS_Lab/iot_link/os/liteos/cmsis/2.0\cmsis_liteos2.c ****     uwRet = LOS_SemPend(((SEM_CB_S *)semaphore_id)->usSemID, timeout);
 3513              		.loc 1 1316 51
 3514 002c 7B68     		ldr	r3, [r7, #4]
 3515 002e DB88     		ldrh	r3, [r3, #6]
 3516              		.loc 1 1316 13
 3517 0030 3968     		ldr	r1, [r7]
 3518 0032 1846     		mov	r0, r3
 3519 0034 FFF7FEFF 		bl	LOS_SemPend
 3520 0038 F860     		str	r0, [r7, #12]
1317:d:/LiteOS_Lab/iot_link/os/liteos/cmsis/2.0\cmsis_liteos2.c **** 
1318:d:/LiteOS_Lab/iot_link/os/liteos/cmsis/2.0\cmsis_liteos2.c ****     if (uwRet == LOS_OK)
 3521              		.loc 1 1318 8
 3522 003a FB68     		ldr	r3, [r7, #12]
 3523 003c 002B     		cmp	r3, #0
 3524 003e 01D1     		bne	.L273
1319:d:/LiteOS_Lab/iot_link/os/liteos/cmsis/2.0\cmsis_liteos2.c ****     {
1320:d:/LiteOS_Lab/iot_link/os/liteos/cmsis/2.0\cmsis_liteos2.c ****         return osOK;
 3525              		.loc 1 1320 16
 3526 0040 0023     		movs	r3, #0
 3527 0042 16E0     		b	.L271
 3528              	.L273:
1321:d:/LiteOS_Lab/iot_link/os/liteos/cmsis/2.0\cmsis_liteos2.c ****     }
1322:d:/LiteOS_Lab/iot_link/os/liteos/cmsis/2.0\cmsis_liteos2.c ****     else if (uwRet == LOS_ERRNO_SEM_TIMEOUT)
 3529              		.loc 1 1322 13
 3530 0044 FB68     		ldr	r3, [r7, #12]
 3531 0046 0D4A     		ldr	r2, .L277
 3532 0048 9342     		cmp	r3, r2
 3533 004a 02D1     		bne	.L274
1323:d:/LiteOS_Lab/iot_link/os/liteos/cmsis/2.0\cmsis_liteos2.c ****     {
1324:d:/LiteOS_Lab/iot_link/os/liteos/cmsis/2.0\cmsis_liteos2.c ****         return osErrorTimeout;
 3534              		.loc 1 1324 16
 3535 004c 6FF00103 		mvn	r3, #1
 3536 0050 0FE0     		b	.L271
 3537              	.L274:
ARM GAS  C:\Users\ADMINI~1\AppData\Local\Temp\ccvQoyy7.s 			page 85


1325:d:/LiteOS_Lab/iot_link/os/liteos/cmsis/2.0\cmsis_liteos2.c ****     }
1326:d:/LiteOS_Lab/iot_link/os/liteos/cmsis/2.0\cmsis_liteos2.c ****     else if (uwRet == LOS_ERRNO_SEM_INVALID)
 3538              		.loc 1 1326 13
 3539 0052 FB68     		ldr	r3, [r7, #12]
 3540 0054 0A4A     		ldr	r2, .L277+4
 3541 0056 9342     		cmp	r3, r2
 3542 0058 02D1     		bne	.L275
1327:d:/LiteOS_Lab/iot_link/os/liteos/cmsis/2.0\cmsis_liteos2.c ****     {
1328:d:/LiteOS_Lab/iot_link/os/liteos/cmsis/2.0\cmsis_liteos2.c ****         return osErrorParameter;
 3543              		.loc 1 1328 16
 3544 005a 6FF00303 		mvn	r3, #3
 3545 005e 08E0     		b	.L271
 3546              	.L275:
1329:d:/LiteOS_Lab/iot_link/os/liteos/cmsis/2.0\cmsis_liteos2.c ****     }
1330:d:/LiteOS_Lab/iot_link/os/liteos/cmsis/2.0\cmsis_liteos2.c ****     else if (uwRet == LOS_ERRNO_SEM_PEND_INTERR)
 3547              		.loc 1 1330 13
 3548 0060 FB68     		ldr	r3, [r7, #12]
 3549 0062 084A     		ldr	r2, .L277+8
 3550 0064 9342     		cmp	r3, r2
 3551 0066 02D1     		bne	.L276
1331:d:/LiteOS_Lab/iot_link/os/liteos/cmsis/2.0\cmsis_liteos2.c ****     {
1332:d:/LiteOS_Lab/iot_link/os/liteos/cmsis/2.0\cmsis_liteos2.c ****         return osErrorISR;
 3552              		.loc 1 1332 16
 3553 0068 6FF00503 		mvn	r3, #5
 3554 006c 01E0     		b	.L271
 3555              	.L276:
1333:d:/LiteOS_Lab/iot_link/os/liteos/cmsis/2.0\cmsis_liteos2.c ****     }
1334:d:/LiteOS_Lab/iot_link/os/liteos/cmsis/2.0\cmsis_liteos2.c ****     else
1335:d:/LiteOS_Lab/iot_link/os/liteos/cmsis/2.0\cmsis_liteos2.c ****     {
1336:d:/LiteOS_Lab/iot_link/os/liteos/cmsis/2.0\cmsis_liteos2.c ****         return osErrorResource;
 3556              		.loc 1 1336 16
 3557 006e 6FF00203 		mvn	r3, #2
 3558              	.L271:
1337:d:/LiteOS_Lab/iot_link/os/liteos/cmsis/2.0\cmsis_liteos2.c ****     }
1338:d:/LiteOS_Lab/iot_link/os/liteos/cmsis/2.0\cmsis_liteos2.c **** }
 3559              		.loc 1 1338 1
 3560 0072 1846     		mov	r0, r3
