ARM GAS  C:\Users\ADMINI~1\AppData\Local\Temp\ccmVSh8y.s 			page 1


   1              		.cpu cortex-m4
   2              		.eabi_attribute 27, 1
   3              		.eabi_attribute 28, 1
   4              		.eabi_attribute 20, 1
   5              		.eabi_attribute 21, 1
   6              		.eabi_attribute 23, 3
   7              		.eabi_attribute 24, 1
   8              		.eabi_attribute 25, 1
   9              		.eabi_attribute 26, 1
  10              		.eabi_attribute 30, 6
  11              		.eabi_attribute 34, 1
  12              		.eabi_attribute 18, 4
  13              		.file	"app_demo_main.c"
  14              		.text
  15              	.Ltext0:
  16              		.cfi_sections	.debug_frame
  17              		.section	.rodata
  18              		.align	2
  19              	.LC0:
  20 0000 5B25735D 		.ascii	"[%s][%u][%s] %s:###please implement app demo by you"
  20      5B25755D 
  20      5B25735D 
  20      2025733A 
  20      23232370 
  21 0033 7273656C 		.ascii	"rself####\012\015\015\012\000"
  21      66232323 
  21      230A0D0D 
  21      0A00
  22              		.section	.text.standard_app_demo_main,"ax",%progbits
  23              		.align	1
  24              		.weak	standard_app_demo_main
  25              		.arch armv7e-m
  26              		.syntax unified
  27              		.thumb
  28              		.thumb_func
  29              		.fpu fpv4-sp-d16
  31              	standard_app_demo_main:
  32              	.LFB3:
  33              		.file 1 "d:/LiteOS_Lab/iot_link/demos/app_demo_main.c"
   1:d:/LiteOS_Lab/iot_link/demos\app_demo_main.c **** /*----------------------------------------------------------------------------
   2:d:/LiteOS_Lab/iot_link/demos\app_demo_main.c ****  * Copyright (c) <2018>, <Huawei Technologies Co., Ltd>
   3:d:/LiteOS_Lab/iot_link/demos\app_demo_main.c ****  * All rights reserved.
   4:d:/LiteOS_Lab/iot_link/demos\app_demo_main.c ****  * Redistribution and use in source and binary forms, with or without modification,
   5:d:/LiteOS_Lab/iot_link/demos\app_demo_main.c ****  * are permitted provided that the following conditions are met:
   6:d:/LiteOS_Lab/iot_link/demos\app_demo_main.c ****  * 1. Redistributions of source code must retain the above copyright notice, this list of
   7:d:/LiteOS_Lab/iot_link/demos\app_demo_main.c ****  * conditions and the following disclaimer.
   8:d:/LiteOS_Lab/iot_link/demos\app_demo_main.c ****  * 2. Redistributions in binary form must reproduce the above copyright notice, this list
   9:d:/LiteOS_Lab/iot_link/demos\app_demo_main.c ****  * of conditions and the following disclaimer in the documentation and/or other materials
  10:d:/LiteOS_Lab/iot_link/demos\app_demo_main.c ****  * provided with the distribution.
  11:d:/LiteOS_Lab/iot_link/demos\app_demo_main.c ****  * 3. Neither the name of the copyright holder nor the names of its contributors may be used
  12:d:/LiteOS_Lab/iot_link/demos\app_demo_main.c ****  * to endorse or promote products derived from this software without specific prior written
  13:d:/LiteOS_Lab/iot_link/demos\app_demo_main.c ****  * permission.
  14:d:/LiteOS_Lab/iot_link/demos\app_demo_main.c ****  * THIS SOFTWARE IS PROVIDED BY THE COPYRIGHT HOLDERS AND CONTRIBUTORS
  15:d:/LiteOS_Lab/iot_link/demos\app_demo_main.c ****  * "AS IS" AND ANY EXPRESS OR IMPLIED WARRANTIES, INCLUDING, BUT NOT LIMITED TO,
  16:d:/LiteOS_Lab/iot_link/demos\app_demo_main.c ****  * THE IMPLIED WARRANTIES OF MERCHANTABILITY AND FITNESS FOR A PARTICULAR
  17:d:/LiteOS_Lab/iot_link/demos\app_demo_main.c ****  * PURPOSE ARE DISCLAIMED. IN NO EVENT SHALL THE COPYRIGHT HOLDER OR
  18:d:/LiteOS_Lab/iot_link/demos\app_demo_main.c ****  * CONTRIBUTORS BE LIABLE FOR ANY DIRECT, INDIRECT, INCIDENTAL, SPECIAL,
ARM GAS  C:\Users\ADMINI~1\AppData\Local\Temp\ccmVSh8y.s 			page 2


  19:d:/LiteOS_Lab/iot_link/demos\app_demo_main.c ****  * EXEMPLARY, OR CONSEQUENTIAL DAMAGES (INCLUDING, BUT NOT LIMITED TO,
  20:d:/LiteOS_Lab/iot_link/demos\app_demo_main.c ****  * PROCUREMENT OF SUBSTITUTE GOODS OR SERVICES; LOSS OF USE, DATA, OR PROFITS;
  21:d:/LiteOS_Lab/iot_link/demos\app_demo_main.c ****  * OR BUSINESS INTERRUPTION) HOWEVER CAUSED AND ON ANY THEORY OF LIABILITY,
  22:d:/LiteOS_Lab/iot_link/demos\app_demo_main.c ****  * WHETHER IN CONTRACT, STRICT LIABILITY, OR TORT (INCLUDING NEGLIGENCE OR
  23:d:/LiteOS_Lab/iot_link/demos\app_demo_main.c ****  * OTHERWISE) ARISING IN ANY WAY OUT OF THE USE OF THIS SOFTWARE, EVEN IF
  24:d:/LiteOS_Lab/iot_link/demos\app_demo_main.c ****  * ADVISED OF THE POSSIBILITY OF SUCH DAMAGE.
  25:d:/LiteOS_Lab/iot_link/demos\app_demo_main.c ****  *---------------------------------------------------------------------------*/
  26:d:/LiteOS_Lab/iot_link/demos\app_demo_main.c **** /*----------------------------------------------------------------------------
  27:d:/LiteOS_Lab/iot_link/demos\app_demo_main.c ****  * Notice of Export Control Law
  28:d:/LiteOS_Lab/iot_link/demos\app_demo_main.c ****  * ===============================================
  29:d:/LiteOS_Lab/iot_link/demos\app_demo_main.c ****  * Huawei LiteOS may be subject to applicable export control laws and regulations, which might
  30:d:/LiteOS_Lab/iot_link/demos\app_demo_main.c ****  * include those applicable to Huawei LiteOS of U.S. and the country in which you are located.
  31:d:/LiteOS_Lab/iot_link/demos\app_demo_main.c ****  * Import, export and usage of Huawei LiteOS in any manner by you shall be in compliance with such
  32:d:/LiteOS_Lab/iot_link/demos\app_demo_main.c ****  * applicable export control laws and regulations.
  33:d:/LiteOS_Lab/iot_link/demos\app_demo_main.c ****  *---------------------------------------------------------------------------*/
  34:d:/LiteOS_Lab/iot_link/demos\app_demo_main.c **** /**
  35:d:/LiteOS_Lab/iot_link/demos\app_demo_main.c ****  *  DATE                AUTHOR      INSTRUCTION
  36:d:/LiteOS_Lab/iot_link/demos\app_demo_main.c ****  *  2020-04-05 20:54  zhangqianfu  The first version
  37:d:/LiteOS_Lab/iot_link/demos\app_demo_main.c ****  *
  38:d:/LiteOS_Lab/iot_link/demos\app_demo_main.c ****  */
  39:d:/LiteOS_Lab/iot_link/demos\app_demo_main.c **** #include <link_log.h>
  40:d:/LiteOS_Lab/iot_link/demos\app_demo_main.c **** 
  41:d:/LiteOS_Lab/iot_link/demos\app_demo_main.c **** __attribute__ ((weak)) int standard_app_demo_main(void)
  42:d:/LiteOS_Lab/iot_link/demos\app_demo_main.c **** {
  34              		.loc 1 42 1
  35              		.cfi_startproc
  36              		@ args = 0, pretend = 0, frame = 0
  37              		@ frame_needed = 1, uses_anonymous_args = 0
  38 0000 90B5     		push	{r4, r7, lr}
  39              	.LCFI0:
  40              		.cfi_def_cfa_offset 12
  41              		.cfi_offset 4, -12
  42              		.cfi_offset 7, -8
  43              		.cfi_offset 14, -4
  44 0002 83B0     		sub	sp, sp, #12
  45              	.LCFI1:
  46              		.cfi_def_cfa_offset 24
  47 0004 02AF     		add	r7, sp, #8
  48              	.LCFI2:
  49              		.cfi_def_cfa 7, 16
  43:d:/LiteOS_Lab/iot_link/demos\app_demo_main.c ****     LINK_LOG_DEBUG("%s:###please implement app demo by yourself####\n\r",__FUNCTION__);
  50              		.loc 1 43 5
  51 0006 FFF7FEFF 		bl	link_log_level_get
  52 000a 0346     		mov	r3, r0
  53 000c 012B     		cmp	r3, #1
  54 000e 14D8     		bhi	.L2
  55              		.loc 1 43 5 is_stmt 0 discriminator 1
  56 0010 0120     		movs	r0, #1
  57 0012 FFF7FEFF 		bl	link_log_level_name
  58 0016 0446     		mov	r4, r0
  59 0018 FFF7FEFF 		bl	osal_sys_time
  60 001c 0246     		mov	r2, r0
  61 001e 0B46     		mov	r3, r1
  62 0020 094B     		ldr	r3, .L4
  63 0022 0093     		str	r3, [sp]
  64 0024 084B     		ldr	r3, .L4
  65 0026 2146     		mov	r1, r4
ARM GAS  C:\Users\ADMINI~1\AppData\Local\Temp\ccmVSh8y.s 			page 3


  66 0028 0848     		ldr	r0, .L4+4
  67 002a FFF7FEFF 		bl	printf
  68 002e 084B     		ldr	r3, .L4+8
  69 0030 1B68     		ldr	r3, [r3]
  70 0032 9B68     		ldr	r3, [r3, #8]
  71 0034 1846     		mov	r0, r3
  72 0036 FFF7FEFF 		bl	fflush
  73              	.L2:
  44:d:/LiteOS_Lab/iot_link/demos\app_demo_main.c ****     return -1;
  74              		.loc 1 44 12 is_stmt 1
  75 003a 4FF0FF33 		mov	r3, #-1
  45:d:/LiteOS_Lab/iot_link/demos\app_demo_main.c **** }
  76              		.loc 1 45 1
  77 003e 1846     		mov	r0, r3
  78 0040 0437     		adds	r7, r7, #4
  79              	.LCFI3:
  80              		.cfi_def_cfa_offset 12
  81 0042 BD46     		mov	sp, r7
  82              	.LCFI4:
  83              		.cfi_def_cfa_register 13
  84              		@ sp needed
  85 0044 90BD     		pop	{r4, r7, pc}
  86              	.L5:
  87 0046 00BF     		.align	2
  88              	.L4:
  89 0048 00000000 		.word	__FUNCTION__.6593
  90 004c 00000000 		.word	.LC0
  91 0050 00000000 		.word	_impure_ptr
  92              		.cfi_endproc
  93              	.LFE3:
  95              		.section	.rodata.__FUNCTION__.6593,"a"
  96              		.align	2
  99              	__FUNCTION__.6593:
 100 0000 7374616E 		.ascii	"standard_app_demo_main\000"
 100      64617264 
 100      5F617070 
 100      5F64656D 
 100      6F5F6D61 
 101              		.text
 102              	.Letext0:
 103              		.file 2 "c:\\users\\administrator\\.huawei-liteos-studio\\tools\\arm-none-eabi\\arm-none-eabi\\inc
 104              		.file 3 "c:\\users\\administrator\\.huawei-liteos-studio\\tools\\arm-none-eabi\\arm-none-eabi\\inc
 105              		.file 4 "c:\\users\\administrator\\.huawei-liteos-studio\\tools\\arm-none-eabi\\lib\\gcc\\arm-none
 106              		.file 5 "c:\\users\\administrator\\.huawei-liteos-studio\\tools\\arm-none-eabi\\arm-none-eabi\\inc
 107              		.file 6 "d:/LiteOS_Lab/iot_link/inc/link_log.h"
ARM GAS  C:\Users\ADMINI~1\AppData\Local\Temp\ccmVSh8y.s 			page 4

