GAS LISTING /tmp/ccLDablV.s 			page 1


   1              		.file	"dtls_al.c"
   2              		.text
   3              	.Ltext0:
   4              		.section	.bss.s_dtls_al,"aw",@nobits
   5              		.align 8
   8              	s_dtls_al:
   9 0000 00000000 		.zero	8
   9      00000000 
  10              		.section	.text.dtls_al_new,"ax",@progbits
  11              		.globl	dtls_al_new
  13              	dtls_al_new:
  14              	.LFB0:
  15              		.file 1 "/home/xingli/share/1205tiny/network/dtls/dtls_al/dtls_al.c"
   1:/home/xingli/share/1205tiny/network/dtls/dtls_al/dtls_al.c **** /*----------------------------------------------------------------------------
   2:/home/xingli/share/1205tiny/network/dtls/dtls_al/dtls_al.c ****  * Copyright (c) <2018>, <Huawei Technologies Co., Ltd>
   3:/home/xingli/share/1205tiny/network/dtls/dtls_al/dtls_al.c ****  * All rights reserved.
   4:/home/xingli/share/1205tiny/network/dtls/dtls_al/dtls_al.c ****  * Redistribution and use in source and binary forms, with or without modification,
   5:/home/xingli/share/1205tiny/network/dtls/dtls_al/dtls_al.c ****  * are permitted provided that the following conditions are met:
   6:/home/xingli/share/1205tiny/network/dtls/dtls_al/dtls_al.c ****  * 1. Redistributions of source code must retain the above copyright notice, this list of
   7:/home/xingli/share/1205tiny/network/dtls/dtls_al/dtls_al.c ****  * conditions and the following disclaimer.
   8:/home/xingli/share/1205tiny/network/dtls/dtls_al/dtls_al.c ****  * 2. Redistributions in binary form must reproduce the above copyright notice, this list
   9:/home/xingli/share/1205tiny/network/dtls/dtls_al/dtls_al.c ****  * of conditions and the following disclaimer in the documentation and/or other materials
  10:/home/xingli/share/1205tiny/network/dtls/dtls_al/dtls_al.c ****  * provided with the distribution.
  11:/home/xingli/share/1205tiny/network/dtls/dtls_al/dtls_al.c ****  * 3. Neither the name of the copyright holder nor the names of its contributors may be used
  12:/home/xingli/share/1205tiny/network/dtls/dtls_al/dtls_al.c ****  * to endorse or promote products derived from this software without specific prior written
  13:/home/xingli/share/1205tiny/network/dtls/dtls_al/dtls_al.c ****  * permission.
  14:/home/xingli/share/1205tiny/network/dtls/dtls_al/dtls_al.c ****  * THIS SOFTWARE IS PROVIDED BY THE COPYRIGHT HOLDERS AND CONTRIBUTORS
  15:/home/xingli/share/1205tiny/network/dtls/dtls_al/dtls_al.c ****  * "AS IS" AND ANY EXPRESS OR IMPLIED WARRANTIES, INCLUDING, BUT NOT LIMITED TO,
  16:/home/xingli/share/1205tiny/network/dtls/dtls_al/dtls_al.c ****  * THE IMPLIED WARRANTIES OF MERCHANTABILITY AND FITNESS FOR A PARTICULAR
  17:/home/xingli/share/1205tiny/network/dtls/dtls_al/dtls_al.c ****  * PURPOSE ARE DISCLAIMED. IN NO EVENT SHALL THE COPYRIGHT HOLDER OR
  18:/home/xingli/share/1205tiny/network/dtls/dtls_al/dtls_al.c ****  * CONTRIBUTORS BE LIABLE FOR ANY DIRECT, INDIRECT, INCIDENTAL, SPECIAL,
  19:/home/xingli/share/1205tiny/network/dtls/dtls_al/dtls_al.c ****  * EXEMPLARY, OR CONSEQUENTIAL DAMAGES (INCLUDING, BUT NOT LIMITED TO,
  20:/home/xingli/share/1205tiny/network/dtls/dtls_al/dtls_al.c ****  * PROCUREMENT OF SUBSTITUTE GOODS OR SERVICES; LOSS OF USE, DATA, OR PROFITS;
  21:/home/xingli/share/1205tiny/network/dtls/dtls_al/dtls_al.c ****  * OR BUSINESS INTERRUPTION) HOWEVER CAUSED AND ON ANY THEORY OF LIABILITY,
  22:/home/xingli/share/1205tiny/network/dtls/dtls_al/dtls_al.c ****  * WHETHER IN CONTRACT, STRICT LIABILITY, OR TORT (INCLUDING NEGLIGENCE OR
  23:/home/xingli/share/1205tiny/network/dtls/dtls_al/dtls_al.c ****  * OTHERWISE) ARISING IN ANY WAY OUT OF THE USE OF THIS SOFTWARE, EVEN IF
  24:/home/xingli/share/1205tiny/network/dtls/dtls_al/dtls_al.c ****  * ADVISED OF THE POSSIBILITY OF SUCH DAMAGE.
  25:/home/xingli/share/1205tiny/network/dtls/dtls_al/dtls_al.c ****  *---------------------------------------------------------------------------*/
  26:/home/xingli/share/1205tiny/network/dtls/dtls_al/dtls_al.c **** /*----------------------------------------------------------------------------
  27:/home/xingli/share/1205tiny/network/dtls/dtls_al/dtls_al.c ****  * Notice of Export Control Law
  28:/home/xingli/share/1205tiny/network/dtls/dtls_al/dtls_al.c ****  * ===============================================
  29:/home/xingli/share/1205tiny/network/dtls/dtls_al/dtls_al.c ****  * Huawei LiteOS may be subject to applicable export control laws and regulations, which might
  30:/home/xingli/share/1205tiny/network/dtls/dtls_al/dtls_al.c ****  * include those applicable to Huawei LiteOS of U.S. and the country in which you are located.
  31:/home/xingli/share/1205tiny/network/dtls/dtls_al/dtls_al.c ****  * Import, export and usage of Huawei LiteOS in any manner by you shall be in compliance with such
  32:/home/xingli/share/1205tiny/network/dtls/dtls_al/dtls_al.c ****  * applicable export control laws and regulations.
  33:/home/xingli/share/1205tiny/network/dtls/dtls_al/dtls_al.c ****  *---------------------------------------------------------------------------*/
  34:/home/xingli/share/1205tiny/network/dtls/dtls_al/dtls_al.c **** 
  35:/home/xingli/share/1205tiny/network/dtls/dtls_al/dtls_al.c **** 
  36:/home/xingli/share/1205tiny/network/dtls/dtls_al/dtls_al.c **** 
  37:/home/xingli/share/1205tiny/network/dtls/dtls_al/dtls_al.c **** #include <stddef.h>
  38:/home/xingli/share/1205tiny/network/dtls/dtls_al/dtls_al.c **** #include <stdint.h>
  39:/home/xingli/share/1205tiny/network/dtls/dtls_al/dtls_al.c **** #include <string.h>
  40:/home/xingli/share/1205tiny/network/dtls/dtls_al/dtls_al.c **** #include <stdio.h>
  41:/home/xingli/share/1205tiny/network/dtls/dtls_al/dtls_al.c **** #include "dtls_al.h"
  42:/home/xingli/share/1205tiny/network/dtls/dtls_al/dtls_al.c **** #include "link_log.h"
  43:/home/xingli/share/1205tiny/network/dtls/dtls_al/dtls_al.c **** 
  44:/home/xingli/share/1205tiny/network/dtls/dtls_al/dtls_al.c **** 
GAS LISTING /tmp/ccLDablV.s 			page 2


  45:/home/xingli/share/1205tiny/network/dtls/dtls_al/dtls_al.c **** static const dtls_al_t  *s_dtls_al;
  46:/home/xingli/share/1205tiny/network/dtls/dtls_al/dtls_al.c **** 
  47:/home/xingli/share/1205tiny/network/dtls/dtls_al/dtls_al.c **** en_dtls_al_err_t dtls_al_new(dtls_al_para_t *para,void **handle)
  48:/home/xingli/share/1205tiny/network/dtls/dtls_al/dtls_al.c **** {
  16              		.loc 1 48 1
  17              		.cfi_startproc
  18 0000 F30F1EFA 		endbr64
  19 0004 55       		pushq	%rbp
  20              	.LCFI0:
  21              		.cfi_def_cfa_offset 16
  22              		.cfi_offset 6, -16
  23 0005 4889E5   		movq	%rsp, %rbp
  24              	.LCFI1:
  25              		.cfi_def_cfa_register 6
  26 0008 4883EC20 		subq	$32, %rsp
  27 000c 48897DE8 		movq	%rdi, -24(%rbp)
  28 0010 488975E0 		movq	%rsi, -32(%rbp)
  29              		.loc 1 48 1
  30 0014 64488B04 		movq	%fs:40, %rax
  30      25280000 
  30      00
  31 001d 488945F8 		movq	%rax, -8(%rbp)
  32 0021 31C0     		xorl	%eax, %eax
  49:/home/xingli/share/1205tiny/network/dtls/dtls_al/dtls_al.c ****     en_dtls_al_err_t ret = EN_DTLS_AL_ERR_NOCONFIG;
  33              		.loc 1 49 22
  34 0023 C745F404 		movl	$4, -12(%rbp)
  34      000000
  50:/home/xingli/share/1205tiny/network/dtls/dtls_al/dtls_al.c ****     if( (NULL != s_dtls_al) && (NULL != s_dtls_al->io.io_new) )
  35              		.loc 1 50 15
  36 002a 488B0500 		movq	s_dtls_al(%rip), %rax
  36      000000
  37              		.loc 1 50 7
  38 0031 4885C0   		testq	%rax, %rax
  39 0034 742E     		je	.L2
  40              		.loc 1 50 50 discriminator 1
  41 0036 488B0500 		movq	s_dtls_al(%rip), %rax
  41      000000
  42              		.loc 1 50 54 discriminator 1
  43 003d 488B4008 		movq	8(%rax), %rax
  44              		.loc 1 50 29 discriminator 1
  45 0041 4885C0   		testq	%rax, %rax
  46 0044 741E     		je	.L2
  51:/home/xingli/share/1205tiny/network/dtls/dtls_al/dtls_al.c ****     {
  52:/home/xingli/share/1205tiny/network/dtls/dtls_al/dtls_al.c ****         ret = s_dtls_al->io.io_new(para, handle);
  47              		.loc 1 52 24
  48 0046 488B0500 		movq	s_dtls_al(%rip), %rax
  48      000000
  49              		.loc 1 52 28
  50 004d 488B4808 		movq	8(%rax), %rcx
  51              		.loc 1 52 15
  52 0051 488B55E0 		movq	-32(%rbp), %rdx
  53 0055 488B45E8 		movq	-24(%rbp), %rax
  54 0059 4889D6   		movq	%rdx, %rsi
  55 005c 4889C7   		movq	%rax, %rdi
  56 005f FFD1     		call	*%rcx
  57              	.LVL0:
  58 0061 8945F4   		movl	%eax, -12(%rbp)
GAS LISTING /tmp/ccLDablV.s 			page 3


  59              	.L2:
  53:/home/xingli/share/1205tiny/network/dtls/dtls_al/dtls_al.c ****     }
  54:/home/xingli/share/1205tiny/network/dtls/dtls_al/dtls_al.c ****     return ret;
  60              		.loc 1 54 12
  61 0064 8B45F4   		movl	-12(%rbp), %eax
  55:/home/xingli/share/1205tiny/network/dtls/dtls_al/dtls_al.c **** }
  62              		.loc 1 55 1
  63 0067 488B55F8 		movq	-8(%rbp), %rdx
  64 006b 64483314 		xorq	%fs:40, %rdx
  64      25280000 
  64      00
  65 0074 7405     		je	.L4
  66 0076 E8000000 		call	__stack_chk_fail@PLT
  66      00
  67              	.L4:
  68 007b C9       		leave
  69              	.LCFI2:
  70              		.cfi_def_cfa 7, 8
  71 007c C3       		ret
  72              		.cfi_endproc
  73              	.LFE0:
  75              		.section	.text.dtls_al_connect,"ax",@progbits
  76              		.globl	dtls_al_connect
  78              	dtls_al_connect:
  79              	.LFB1:
  56:/home/xingli/share/1205tiny/network/dtls/dtls_al/dtls_al.c **** 
  57:/home/xingli/share/1205tiny/network/dtls/dtls_al/dtls_al.c **** 
  58:/home/xingli/share/1205tiny/network/dtls/dtls_al/dtls_al.c **** int   dtls_al_connect(void *handle,const char *server_ip, const char *server_port, int timeout)
  59:/home/xingli/share/1205tiny/network/dtls/dtls_al/dtls_al.c **** {
  80              		.loc 1 59 1
  81              		.cfi_startproc
  82 0000 F30F1EFA 		endbr64
  83 0004 55       		pushq	%rbp
  84              	.LCFI3:
  85              		.cfi_def_cfa_offset 16
  86              		.cfi_offset 6, -16
  87 0005 4889E5   		movq	%rsp, %rbp
  88              	.LCFI4:
  89              		.cfi_def_cfa_register 6
  90 0008 4883EC30 		subq	$48, %rsp
  91 000c 48897DE8 		movq	%rdi, -24(%rbp)
  92 0010 488975E0 		movq	%rsi, -32(%rbp)
  93 0014 488955D8 		movq	%rdx, -40(%rbp)
  94 0018 894DD4   		movl	%ecx, -44(%rbp)
  95              		.loc 1 59 1
  96 001b 64488B04 		movq	%fs:40, %rax
  96      25280000 
  96      00
  97 0024 488945F8 		movq	%rax, -8(%rbp)
  98 0028 31C0     		xorl	%eax, %eax
  60:/home/xingli/share/1205tiny/network/dtls/dtls_al/dtls_al.c ****     int ret = -1;
  99              		.loc 1 60 9
 100 002a C745F4FF 		movl	$-1, -12(%rbp)
 100      FFFFFF
  61:/home/xingli/share/1205tiny/network/dtls/dtls_al/dtls_al.c ****     if( (NULL != s_dtls_al) && (NULL != s_dtls_al->io.io_connect))
 101              		.loc 1 61 15
 102 0031 488B0500 		movq	s_dtls_al(%rip), %rax
GAS LISTING /tmp/ccLDablV.s 			page 4


 102      000000
 103              		.loc 1 61 7
 104 0038 4885C0   		testq	%rax, %rax
 105 003b 7433     		je	.L6
 106              		.loc 1 61 50 discriminator 1
 107 003d 488B0500 		movq	s_dtls_al(%rip), %rax
 107      000000
 108              		.loc 1 61 54 discriminator 1
 109 0044 488B4010 		movq	16(%rax), %rax
 110              		.loc 1 61 29 discriminator 1
 111 0048 4885C0   		testq	%rax, %rax
 112 004b 7423     		je	.L6
  62:/home/xingli/share/1205tiny/network/dtls/dtls_al/dtls_al.c ****     {
  63:/home/xingli/share/1205tiny/network/dtls/dtls_al/dtls_al.c ****         ret = s_dtls_al->io.io_connect(handle, server_ip,server_port, timeout);
 113              		.loc 1 63 24
 114 004d 488B0500 		movq	s_dtls_al(%rip), %rax
 114      000000
 115              		.loc 1 63 28
 116 0054 4C8B4010 		movq	16(%rax), %r8
 117              		.loc 1 63 15
 118 0058 8B4DD4   		movl	-44(%rbp), %ecx
 119 005b 488B55D8 		movq	-40(%rbp), %rdx
 120 005f 488B75E0 		movq	-32(%rbp), %rsi
 121 0063 488B45E8 		movq	-24(%rbp), %rax
 122 0067 4889C7   		movq	%rax, %rdi
 123 006a 41FFD0   		call	*%r8
 124              	.LVL1:
 125 006d 8945F4   		movl	%eax, -12(%rbp)
 126              	.L6:
  64:/home/xingli/share/1205tiny/network/dtls/dtls_al/dtls_al.c ****     }
  65:/home/xingli/share/1205tiny/network/dtls/dtls_al/dtls_al.c ****     return ret;
 127              		.loc 1 65 12
 128 0070 8B45F4   		movl	-12(%rbp), %eax
  66:/home/xingli/share/1205tiny/network/dtls/dtls_al/dtls_al.c **** }
 129              		.loc 1 66 1
 130 0073 488B7DF8 		movq	-8(%rbp), %rdi
 131 0077 6448333C 		xorq	%fs:40, %rdi
 131      25280000 
 131      00
 132 0080 7405     		je	.L8
 133 0082 E8000000 		call	__stack_chk_fail@PLT
 133      00
 134              	.L8:
 135 0087 C9       		leave
 136              	.LCFI5:
 137              		.cfi_def_cfa 7, 8
 138 0088 C3       		ret
 139              		.cfi_endproc
 140              	.LFE1:
 142              		.section	.text.dtls_al_write,"ax",@progbits
 143              		.globl	dtls_al_write
 145              	dtls_al_write:
 146              	.LFB2:
  67:/home/xingli/share/1205tiny/network/dtls/dtls_al/dtls_al.c **** 
  68:/home/xingli/share/1205tiny/network/dtls/dtls_al/dtls_al.c **** int   dtls_al_write(void *handle, uint8_t *msg, size_t len, int timeout)
  69:/home/xingli/share/1205tiny/network/dtls/dtls_al/dtls_al.c **** {
 147              		.loc 1 69 1
GAS LISTING /tmp/ccLDablV.s 			page 5


 148              		.cfi_startproc
 149 0000 F30F1EFA 		endbr64
 150 0004 55       		pushq	%rbp
 151              	.LCFI6:
 152              		.cfi_def_cfa_offset 16
 153              		.cfi_offset 6, -16
 154 0005 4889E5   		movq	%rsp, %rbp
 155              	.LCFI7:
 156              		.cfi_def_cfa_register 6
 157 0008 4883EC30 		subq	$48, %rsp
 158 000c 48897DE8 		movq	%rdi, -24(%rbp)
 159 0010 488975E0 		movq	%rsi, -32(%rbp)
 160 0014 488955D8 		movq	%rdx, -40(%rbp)
 161 0018 894DD4   		movl	%ecx, -44(%rbp)
 162              		.loc 1 69 1
 163 001b 64488B04 		movq	%fs:40, %rax
 163      25280000 
 163      00
 164 0024 488945F8 		movq	%rax, -8(%rbp)
 165 0028 31C0     		xorl	%eax, %eax
  70:/home/xingli/share/1205tiny/network/dtls/dtls_al/dtls_al.c ****     int ret = 0;
 166              		.loc 1 70 9
 167 002a C745F400 		movl	$0, -12(%rbp)
 167      000000
  71:/home/xingli/share/1205tiny/network/dtls/dtls_al/dtls_al.c ****     if( (NULL != s_dtls_al) && (NULL != s_dtls_al->io.io_write))
 168              		.loc 1 71 15
 169 0031 488B0500 		movq	s_dtls_al(%rip), %rax
 169      000000
 170              		.loc 1 71 7
 171 0038 4885C0   		testq	%rax, %rax
 172 003b 7433     		je	.L10
 173              		.loc 1 71 50 discriminator 1
 174 003d 488B0500 		movq	s_dtls_al(%rip), %rax
 174      000000
 175              		.loc 1 71 54 discriminator 1
 176 0044 488B4018 		movq	24(%rax), %rax
 177              		.loc 1 71 29 discriminator 1
 178 0048 4885C0   		testq	%rax, %rax
 179 004b 7423     		je	.L10
  72:/home/xingli/share/1205tiny/network/dtls/dtls_al/dtls_al.c ****     {
  73:/home/xingli/share/1205tiny/network/dtls/dtls_al/dtls_al.c ****         ret = s_dtls_al->io.io_write(handle, msg, len, timeout );
 180              		.loc 1 73 24
 181 004d 488B0500 		movq	s_dtls_al(%rip), %rax
 181      000000
 182              		.loc 1 73 28
 183 0054 4C8B4018 		movq	24(%rax), %r8
 184              		.loc 1 73 15
 185 0058 8B4DD4   		movl	-44(%rbp), %ecx
 186 005b 488B55D8 		movq	-40(%rbp), %rdx
 187 005f 488B75E0 		movq	-32(%rbp), %rsi
 188 0063 488B45E8 		movq	-24(%rbp), %rax
 189 0067 4889C7   		movq	%rax, %rdi
 190 006a 41FFD0   		call	*%r8
 191              	.LVL2:
 192 006d 8945F4   		movl	%eax, -12(%rbp)
 193              	.L10:
  74:/home/xingli/share/1205tiny/network/dtls/dtls_al/dtls_al.c ****     }
GAS LISTING /tmp/ccLDablV.s 			page 6


  75:/home/xingli/share/1205tiny/network/dtls/dtls_al/dtls_al.c ****     return ret;
 194              		.loc 1 75 12
 195 0070 8B45F4   		movl	-12(%rbp), %eax
  76:/home/xingli/share/1205tiny/network/dtls/dtls_al/dtls_al.c **** }
 196              		.loc 1 76 1
 197 0073 488B7DF8 		movq	-8(%rbp), %rdi
 198 0077 6448333C 		xorq	%fs:40, %rdi
 198      25280000 
 198      00
 199 0080 7405     		je	.L12
 200 0082 E8000000 		call	__stack_chk_fail@PLT
 200      00
 201              	.L12:
 202 0087 C9       		leave
 203              	.LCFI8:
 204              		.cfi_def_cfa 7, 8
 205 0088 C3       		ret
 206              		.cfi_endproc
 207              	.LFE2:
 209              		.section	.text.dtls_al_read,"ax",@progbits
 210              		.globl	dtls_al_read
 212              	dtls_al_read:
 213              	.LFB3:
  77:/home/xingli/share/1205tiny/network/dtls/dtls_al/dtls_al.c **** 
  78:/home/xingli/share/1205tiny/network/dtls/dtls_al/dtls_al.c **** int  dtls_al_read(void *handle, uint8_t *buf, size_t len, int timeout)
  79:/home/xingli/share/1205tiny/network/dtls/dtls_al/dtls_al.c **** {
 214              		.loc 1 79 1
 215              		.cfi_startproc
 216 0000 F30F1EFA 		endbr64
 217 0004 55       		pushq	%rbp
 218              	.LCFI9:
 219              		.cfi_def_cfa_offset 16
 220              		.cfi_offset 6, -16
 221 0005 4889E5   		movq	%rsp, %rbp
 222              	.LCFI10:
 223              		.cfi_def_cfa_register 6
 224 0008 4883EC30 		subq	$48, %rsp
 225 000c 48897DE8 		movq	%rdi, -24(%rbp)
 226 0010 488975E0 		movq	%rsi, -32(%rbp)
 227 0014 488955D8 		movq	%rdx, -40(%rbp)
 228 0018 894DD4   		movl	%ecx, -44(%rbp)
 229              		.loc 1 79 1
 230 001b 64488B04 		movq	%fs:40, %rax
 230      25280000 
 230      00
 231 0024 488945F8 		movq	%rax, -8(%rbp)
 232 0028 31C0     		xorl	%eax, %eax
  80:/home/xingli/share/1205tiny/network/dtls/dtls_al/dtls_al.c ****     int ret = 0;
 233              		.loc 1 80 9
 234 002a C745F400 		movl	$0, -12(%rbp)
 234      000000
  81:/home/xingli/share/1205tiny/network/dtls/dtls_al/dtls_al.c ****     if( (NULL != s_dtls_al) && (NULL != s_dtls_al->io.io_read))
 235              		.loc 1 81 15
 236 0031 488B0500 		movq	s_dtls_al(%rip), %rax
 236      000000
 237              		.loc 1 81 7
 238 0038 4885C0   		testq	%rax, %rax
GAS LISTING /tmp/ccLDablV.s 			page 7


 239 003b 7433     		je	.L14
 240              		.loc 1 81 50 discriminator 1
 241 003d 488B0500 		movq	s_dtls_al(%rip), %rax
 241      000000
 242              		.loc 1 81 54 discriminator 1
 243 0044 488B4020 		movq	32(%rax), %rax
 244              		.loc 1 81 29 discriminator 1
 245 0048 4885C0   		testq	%rax, %rax
 246 004b 7423     		je	.L14
  82:/home/xingli/share/1205tiny/network/dtls/dtls_al/dtls_al.c ****     {
  83:/home/xingli/share/1205tiny/network/dtls/dtls_al/dtls_al.c ****         ret = s_dtls_al->io.io_read(handle, buf, len, timeout );
 247              		.loc 1 83 24
 248 004d 488B0500 		movq	s_dtls_al(%rip), %rax
 248      000000
 249              		.loc 1 83 28
 250 0054 4C8B4020 		movq	32(%rax), %r8
 251              		.loc 1 83 15
 252 0058 8B4DD4   		movl	-44(%rbp), %ecx
 253 005b 488B55D8 		movq	-40(%rbp), %rdx
 254 005f 488B75E0 		movq	-32(%rbp), %rsi
 255 0063 488B45E8 		movq	-24(%rbp), %rax
 256 0067 4889C7   		movq	%rax, %rdi
 257 006a 41FFD0   		call	*%r8
 258              	.LVL3:
 259 006d 8945F4   		movl	%eax, -12(%rbp)
 260              	.L14:
  84:/home/xingli/share/1205tiny/network/dtls/dtls_al/dtls_al.c ****     }
  85:/home/xingli/share/1205tiny/network/dtls/dtls_al/dtls_al.c ****     return ret;
 261              		.loc 1 85 12
 262 0070 8B45F4   		movl	-12(%rbp), %eax
  86:/home/xingli/share/1205tiny/network/dtls/dtls_al/dtls_al.c **** }
 263              		.loc 1 86 1
 264 0073 488B7DF8 		movq	-8(%rbp), %rdi
 265 0077 6448333C 		xorq	%fs:40, %rdi
 265      25280000 
 265      00
 266 0080 7405     		je	.L16
 267 0082 E8000000 		call	__stack_chk_fail@PLT
 267      00
 268              	.L16:
 269 0087 C9       		leave
 270              	.LCFI11:
 271              		.cfi_def_cfa 7, 8
 272 0088 C3       		ret
 273              		.cfi_endproc
 274              	.LFE3:
 276              		.section	.text.dtls_al_destroy,"ax",@progbits
 277              		.globl	dtls_al_destroy
 279              	dtls_al_destroy:
 280              	.LFB4:
  87:/home/xingli/share/1205tiny/network/dtls/dtls_al/dtls_al.c **** 
  88:/home/xingli/share/1205tiny/network/dtls/dtls_al/dtls_al.c **** en_dtls_al_err_t   dtls_al_destroy(void *handle)
  89:/home/xingli/share/1205tiny/network/dtls/dtls_al/dtls_al.c **** {
 281              		.loc 1 89 1
 282              		.cfi_startproc
 283 0000 F30F1EFA 		endbr64
 284 0004 55       		pushq	%rbp
GAS LISTING /tmp/ccLDablV.s 			page 8


 285              	.LCFI12:
 286              		.cfi_def_cfa_offset 16
 287              		.cfi_offset 6, -16
 288 0005 4889E5   		movq	%rsp, %rbp
 289              	.LCFI13:
 290              		.cfi_def_cfa_register 6
 291 0008 4883EC20 		subq	$32, %rsp
 292 000c 48897DE8 		movq	%rdi, -24(%rbp)
 293              		.loc 1 89 1
 294 0010 64488B04 		movq	%fs:40, %rax
 294      25280000 
 294      00
 295 0019 488945F8 		movq	%rax, -8(%rbp)
 296 001d 31C0     		xorl	%eax, %eax
  90:/home/xingli/share/1205tiny/network/dtls/dtls_al/dtls_al.c ****     en_dtls_al_err_t ret = EN_DTLS_AL_ERR_NOCONFIG;
 297              		.loc 1 90 22
 298 001f C745F404 		movl	$4, -12(%rbp)
 298      000000
  91:/home/xingli/share/1205tiny/network/dtls/dtls_al/dtls_al.c ****     if( (NULL != s_dtls_al) && (NULL != s_dtls_al->io.io_destroy))
 299              		.loc 1 91 15
 300 0026 488B0500 		movq	s_dtls_al(%rip), %rax
 300      000000
 301              		.loc 1 91 7
 302 002d 4885C0   		testq	%rax, %rax
 303 0030 7427     		je	.L18
 304              		.loc 1 91 50 discriminator 1
 305 0032 488B0500 		movq	s_dtls_al(%rip), %rax
 305      000000
 306              		.loc 1 91 54 discriminator 1
 307 0039 488B4028 		movq	40(%rax), %rax
 308              		.loc 1 91 29 discriminator 1
 309 003d 4885C0   		testq	%rax, %rax
 310 0040 7417     		je	.L18
  92:/home/xingli/share/1205tiny/network/dtls/dtls_al/dtls_al.c ****     {
  93:/home/xingli/share/1205tiny/network/dtls/dtls_al/dtls_al.c ****         ret = s_dtls_al->io.io_destroy( handle );
 311              		.loc 1 93 24
 312 0042 488B0500 		movq	s_dtls_al(%rip), %rax
 312      000000
 313              		.loc 1 93 28
 314 0049 488B5028 		movq	40(%rax), %rdx
 315              		.loc 1 93 15
 316 004d 488B45E8 		movq	-24(%rbp), %rax
 317 0051 4889C7   		movq	%rax, %rdi
 318 0054 FFD2     		call	*%rdx
 319              	.LVL4:
 320 0056 8945F4   		movl	%eax, -12(%rbp)
 321              	.L18:
  94:/home/xingli/share/1205tiny/network/dtls/dtls_al/dtls_al.c ****     }
  95:/home/xingli/share/1205tiny/network/dtls/dtls_al/dtls_al.c ****     return ret;
 322              		.loc 1 95 12
 323 0059 8B45F4   		movl	-12(%rbp), %eax
  96:/home/xingli/share/1205tiny/network/dtls/dtls_al/dtls_al.c **** }
 324              		.loc 1 96 1
 325 005c 488B4DF8 		movq	-8(%rbp), %rcx
 326 0060 6448330C 		xorq	%fs:40, %rcx
 326      25280000 
 326      00
GAS LISTING /tmp/ccLDablV.s 			page 9


 327 0069 7405     		je	.L20
 328 006b E8000000 		call	__stack_chk_fail@PLT
 328      00
 329              	.L20:
 330 0070 C9       		leave
 331              	.LCFI14:
 332              		.cfi_def_cfa 7, 8
 333 0071 C3       		ret
 334              		.cfi_endproc
 335              	.LFE4:
 337              		.section	.text.dtls_al_install,"ax",@progbits
 338              		.globl	dtls_al_install
 340              	dtls_al_install:
 341              	.LFB5:
  97:/home/xingli/share/1205tiny/network/dtls/dtls_al/dtls_al.c **** 
  98:/home/xingli/share/1205tiny/network/dtls/dtls_al/dtls_al.c **** 
  99:/home/xingli/share/1205tiny/network/dtls/dtls_al/dtls_al.c **** int dtls_al_install(const dtls_al_t *dtls)
 100:/home/xingli/share/1205tiny/network/dtls/dtls_al/dtls_al.c **** {
 342              		.loc 1 100 1
 343              		.cfi_startproc
 344 0000 F30F1EFA 		endbr64
 345 0004 55       		pushq	%rbp
 346              	.LCFI15:
 347              		.cfi_def_cfa_offset 16
 348              		.cfi_offset 6, -16
 349 0005 4889E5   		movq	%rsp, %rbp
 350              	.LCFI16:
 351              		.cfi_def_cfa_register 6
 352 0008 4883EC20 		subq	$32, %rsp
 353 000c 48897DE8 		movq	%rdi, -24(%rbp)
 354              		.loc 1 100 1
 355 0010 64488B04 		movq	%fs:40, %rax
 355      25280000 
 355      00
 356 0019 488945F8 		movq	%rax, -8(%rbp)
 357 001d 31C0     		xorl	%eax, %eax
 101:/home/xingli/share/1205tiny/network/dtls/dtls_al/dtls_al.c ****     int ret = -1;
 358              		.loc 1 101 9
 359 001f C745F4FF 		movl	$-1, -12(%rbp)
 359      FFFFFF
 102:/home/xingli/share/1205tiny/network/dtls/dtls_al/dtls_al.c ****     if (NULL == s_dtls_al )
 360              		.loc 1 102 14
 361 0026 488B0500 		movq	s_dtls_al(%rip), %rax
 361      000000
 362              		.loc 1 102 8
 363 002d 4885C0   		testq	%rax, %rax
 364 0030 7512     		jne	.L22
 103:/home/xingli/share/1205tiny/network/dtls/dtls_al/dtls_al.c ****     {
 104:/home/xingli/share/1205tiny/network/dtls/dtls_al/dtls_al.c ****         s_dtls_al = dtls;
 365              		.loc 1 104 19
 366 0032 488B45E8 		movq	-24(%rbp), %rax
 367 0036 48890500 		movq	%rax, s_dtls_al(%rip)
 367      000000
 105:/home/xingli/share/1205tiny/network/dtls/dtls_al/dtls_al.c ****         ret = 0;
 368              		.loc 1 105 13
 369 003d C745F400 		movl	$0, -12(%rbp)
 369      000000
GAS LISTING /tmp/ccLDablV.s 			page 10


 370              	.L22:
 106:/home/xingli/share/1205tiny/network/dtls/dtls_al/dtls_al.c ****     }
 107:/home/xingli/share/1205tiny/network/dtls/dtls_al/dtls_al.c **** 
 108:/home/xingli/share/1205tiny/network/dtls/dtls_al/dtls_al.c ****     return ret;
 371              		.loc 1 108 12
 372 0044 8B45F4   		movl	-12(%rbp), %eax
 109:/home/xingli/share/1205tiny/network/dtls/dtls_al/dtls_al.c **** }
 373              		.loc 1 109 1
 374 0047 488B55F8 		movq	-8(%rbp), %rdx
 375 004b 64483314 		xorq	%fs:40, %rdx
 375      25280000 
 375      00
 376 0054 7405     		je	.L24
 377 0056 E8000000 		call	__stack_chk_fail@PLT
 377      00
 378              	.L24:
 379 005b C9       		leave
 380              	.LCFI17:
 381              		.cfi_def_cfa 7, 8
 382 005c C3       		ret
 383              		.cfi_endproc
 384              	.LFE5:
 386              		.section	.text.dtls_al_uninstall,"ax",@progbits
 387              		.globl	dtls_al_uninstall
 389              	dtls_al_uninstall:
 390              	.LFB6:
 110:/home/xingli/share/1205tiny/network/dtls/dtls_al/dtls_al.c **** 
 111:/home/xingli/share/1205tiny/network/dtls/dtls_al/dtls_al.c **** int dtls_al_uninstall(const char*name)
 112:/home/xingli/share/1205tiny/network/dtls/dtls_al/dtls_al.c **** {
 391              		.loc 1 112 1
 392              		.cfi_startproc
 393 0000 F30F1EFA 		endbr64
 394 0004 55       		pushq	%rbp
 395              	.LCFI18:
 396              		.cfi_def_cfa_offset 16
 397              		.cfi_offset 6, -16
 398 0005 4889E5   		movq	%rsp, %rbp
 399              	.LCFI19:
 400              		.cfi_def_cfa_register 6
 401 0008 4883EC20 		subq	$32, %rsp
 402 000c 48897DE8 		movq	%rdi, -24(%rbp)
 403              		.loc 1 112 1
 404 0010 64488B04 		movq	%fs:40, %rax
 404      25280000 
 404      00
 405 0019 488945F8 		movq	%rax, -8(%rbp)
 406 001d 31C0     		xorl	%eax, %eax
 113:/home/xingli/share/1205tiny/network/dtls/dtls_al/dtls_al.c ****     int ret = -1;
 407              		.loc 1 113 9
 408 001f C745F4FF 		movl	$-1, -12(%rbp)
 408      FFFFFF
 114:/home/xingli/share/1205tiny/network/dtls/dtls_al/dtls_al.c **** 
 115:/home/xingli/share/1205tiny/network/dtls/dtls_al/dtls_al.c ****     if((NULL != s_dtls_al) && (0 == strcmp(name,s_dtls_al->name)))
 409              		.loc 1 115 14
 410 0026 488B0500 		movq	s_dtls_al(%rip), %rax
 410      000000
 411              		.loc 1 115 7
GAS LISTING /tmp/ccLDablV.s 			page 11


 412 002d 4885C0   		testq	%rax, %rax
 413 0030 7428     		je	.L26
 414              		.loc 1 115 58 discriminator 1
 415 0032 488B0500 		movq	s_dtls_al(%rip), %rax
 415      000000
 416              		.loc 1 115 37 discriminator 1
 417 0039 488B10   		movq	(%rax), %rdx
 418 003c 488B45E8 		movq	-24(%rbp), %rax
 419 0040 4889D6   		movq	%rdx, %rsi
 420 0043 4889C7   		movq	%rax, %rdi
 421 0046 E8000000 		call	strcmp@PLT
 421      00
 422              		.loc 1 115 28 discriminator 1
 423 004b 85C0     		testl	%eax, %eax
 424 004d 750B     		jne	.L26
 116:/home/xingli/share/1205tiny/network/dtls/dtls_al/dtls_al.c ****     {
 117:/home/xingli/share/1205tiny/network/dtls/dtls_al/dtls_al.c ****         s_dtls_al = NULL;
 425              		.loc 1 117 19
 426 004f 48C70500 		movq	$0, s_dtls_al(%rip)
 426      00000000 
 426      000000
 427              	.L26:
 118:/home/xingli/share/1205tiny/network/dtls/dtls_al/dtls_al.c ****     }
 119:/home/xingli/share/1205tiny/network/dtls/dtls_al/dtls_al.c **** 
 120:/home/xingli/share/1205tiny/network/dtls/dtls_al/dtls_al.c ****     return ret;
 428              		.loc 1 120 12
 429 005a 8B45F4   		movl	-12(%rbp), %eax
 121:/home/xingli/share/1205tiny/network/dtls/dtls_al/dtls_al.c **** }
 430              		.loc 1 121 1
 431 005d 488B4DF8 		movq	-8(%rbp), %rcx
 432 0061 6448330C 		xorq	%fs:40, %rcx
 432      25280000 
 432      00
 433 006a 7405     		je	.L28
 434 006c E8000000 		call	__stack_chk_fail@PLT
 434      00
 435              	.L28:
 436 0071 C9       		leave
 437              	.LCFI20:
 438              		.cfi_def_cfa 7, 8
 439 0072 C3       		ret
 440              		.cfi_endproc
 441              	.LFE6:
 443              		.section	.rodata
 444              		.align 8
 445              	.LC0:
 446 0000 5B25735D 		.string	"[%s][%u][%s] %s:###please implement dtls by yourself####\r\n"
 446      5B25755D 
 446      5B25735D 
 446      2025733A 
 446      23232370 
 447              		.section	.text.dtls_imp_init,"ax",@progbits
 448              		.weak	dtls_imp_init
 450              	dtls_imp_init:
 451              	.LFB7:
 122:/home/xingli/share/1205tiny/network/dtls/dtls_al/dtls_al.c **** 
 123:/home/xingli/share/1205tiny/network/dtls/dtls_al/dtls_al.c **** __attribute__((weak))  int dtls_imp_init(void)
GAS LISTING /tmp/ccLDablV.s 			page 12


 124:/home/xingli/share/1205tiny/network/dtls/dtls_al/dtls_al.c **** {
 452              		.loc 1 124 1
 453              		.cfi_startproc
 454 0000 F30F1EFA 		endbr64
 455 0004 55       		pushq	%rbp
 456              	.LCFI21:
 457              		.cfi_def_cfa_offset 16
 458              		.cfi_offset 6, -16
 459 0005 4889E5   		movq	%rsp, %rbp
 460              	.LCFI22:
 461              		.cfi_def_cfa_register 6
 462 0008 53       		pushq	%rbx
 463 0009 4883EC18 		subq	$24, %rsp
 464              		.cfi_offset 3, -24
 465              		.loc 1 124 1
 466 000d 64488B04 		movq	%fs:40, %rax
 466      25280000 
 466      00
 467 0016 488945E8 		movq	%rax, -24(%rbp)
 468 001a 31C0     		xorl	%eax, %eax
 125:/home/xingli/share/1205tiny/network/dtls/dtls_al/dtls_al.c ****     LINK_LOG_DEBUG("%s:###please implement dtls by yourself####",__FUNCTION__);
 469              		.loc 1 125 5
 470 001c E8000000 		call	link_log_level_get@PLT
 470      00
 471 0021 83F801   		cmpl	$1, %eax
 472 0024 7744     		ja	.L30
 473              		.loc 1 125 5 is_stmt 0 discriminator 1
 474 0026 E8000000 		call	osal_sys_time@PLT
 474      00
 475 002b 89C3     		movl	%eax, %ebx
 476 002d BF010000 		movl	$1, %edi
 476      00
 477 0032 E8000000 		call	link_log_level_name@PLT
 477      00
 478 0037 4C8D0500 		leaq	__FUNCTION__.2690(%rip), %r8
 478      000000
 479 003e 488D0D00 		leaq	__FUNCTION__.2690(%rip), %rcx
 479      000000
 480 0045 89DA     		movl	%ebx, %edx
 481 0047 4889C6   		movq	%rax, %rsi
 482 004a 488D3D00 		leaq	.LC0(%rip), %rdi
 482      000000
 483 0051 B8000000 		movl	$0, %eax
 483      00
 484 0056 E8000000 		call	printf@PLT
 484      00
 485 005b 488B0500 		movq	stdout(%rip), %rax
 485      000000
 486 0062 4889C7   		movq	%rax, %rdi
 487 0065 E8000000 		call	fflush@PLT
 487      00
 488              	.L30:
 126:/home/xingli/share/1205tiny/network/dtls/dtls_al/dtls_al.c ****     return -1;
 489              		.loc 1 126 12 is_stmt 1
 490 006a B8FFFFFF 		movl	$-1, %eax
 490      FF
 127:/home/xingli/share/1205tiny/network/dtls/dtls_al/dtls_al.c **** }
GAS LISTING /tmp/ccLDablV.s 			page 13


 491              		.loc 1 127 1
 492 006f 488B55E8 		movq	-24(%rbp), %rdx
 493 0073 64483314 		xorq	%fs:40, %rdx
 493      25280000 
 493      00
 494 007c 7405     		je	.L32
 495 007e E8000000 		call	__stack_chk_fail@PLT
 495      00
 496              	.L32:
 497 0083 4883C418 		addq	$24, %rsp
 498 0087 5B       		popq	%rbx
 499 0088 5D       		popq	%rbp
 500              	.LCFI23:
 501              		.cfi_def_cfa 7, 8
 502 0089 C3       		ret
 503              		.cfi_endproc
 504              	.LFE7:
 506              		.section	.rodata
 507 003b 00000000 		.align 8
 507      00
 508              	.LC1:
 509 0040 5B25735D 		.string	"[%s][%u][%s] IOT_LINK:DO DTLS LOAD-IMPLEMENT RET:%d\r\n"
 509      5B25755D 
 509      5B25735D 
 509      20494F54 
 509      5F4C494E 
 510              		.section	.text.dtls_al_init,"ax",@progbits
 511              		.globl	dtls_al_init
 513              	dtls_al_init:
 514              	.LFB8:
 128:/home/xingli/share/1205tiny/network/dtls/dtls_al/dtls_al.c **** 
 129:/home/xingli/share/1205tiny/network/dtls/dtls_al/dtls_al.c **** int dtls_al_init(void)
 130:/home/xingli/share/1205tiny/network/dtls/dtls_al/dtls_al.c **** {
 515              		.loc 1 130 1
 516              		.cfi_startproc
 517 0000 F30F1EFA 		endbr64
 518 0004 55       		pushq	%rbp
 519              	.LCFI24:
 520              		.cfi_def_cfa_offset 16
 521              		.cfi_offset 6, -16
 522 0005 4889E5   		movq	%rsp, %rbp
 523              	.LCFI25:
 524              		.cfi_def_cfa_register 6
 525 0008 53       		pushq	%rbx
 526 0009 4883EC18 		subq	$24, %rsp
 527              		.cfi_offset 3, -24
 528              		.loc 1 130 1
 529 000d 64488B04 		movq	%fs:40, %rax
 529      25280000 
 529      00
 530 0016 488945E8 		movq	%rax, -24(%rbp)
 531 001a 31C0     		xorl	%eax, %eax
 131:/home/xingli/share/1205tiny/network/dtls/dtls_al/dtls_al.c ****     int ret;
 132:/home/xingli/share/1205tiny/network/dtls/dtls_al/dtls_al.c **** 
 133:/home/xingli/share/1205tiny/network/dtls/dtls_al/dtls_al.c ****     ret = dtls_imp_init();
 532              		.loc 1 133 11
 533 001c E8000000 		call	dtls_imp_init
GAS LISTING /tmp/ccLDablV.s 			page 14


 533      00
 534 0021 8945E4   		movl	%eax, -28(%rbp)
 134:/home/xingli/share/1205tiny/network/dtls/dtls_al/dtls_al.c ****     LINK_LOG_DEBUG("IOT_LINK:DO DTLS LOAD-IMPLEMENT RET:%d",ret);
 535              		.loc 1 134 5
 536 0024 E8000000 		call	link_log_level_get@PLT
 536      00
 537 0029 83F801   		cmpl	$1, %eax
 538 002c 7743     		ja	.L34
 539              		.loc 1 134 5 is_stmt 0 discriminator 1
 540 002e E8000000 		call	osal_sys_time@PLT
 540      00
 541 0033 89C3     		movl	%eax, %ebx
 542 0035 BF010000 		movl	$1, %edi
 542      00
 543 003a E8000000 		call	link_log_level_name@PLT
 543      00
 544 003f 8B55E4   		movl	-28(%rbp), %edx
 545 0042 4189D0   		movl	%edx, %r8d
 546 0045 488D0D00 		leaq	__FUNCTION__.2695(%rip), %rcx
 546      000000
 547 004c 89DA     		movl	%ebx, %edx
 548 004e 4889C6   		movq	%rax, %rsi
 549 0051 488D3D00 		leaq	.LC1(%rip), %rdi
 549      000000
 550 0058 B8000000 		movl	$0, %eax
 550      00
 551 005d E8000000 		call	printf@PLT
 551      00
 552 0062 488B0500 		movq	stdout(%rip), %rax
 552      000000
 553 0069 4889C7   		movq	%rax, %rdi
 554 006c E8000000 		call	fflush@PLT
 554      00
 555              	.L34:
 135:/home/xingli/share/1205tiny/network/dtls/dtls_al/dtls_al.c **** 
 136:/home/xingli/share/1205tiny/network/dtls/dtls_al/dtls_al.c ****     return ret;
 556              		.loc 1 136 12 is_stmt 1
 557 0071 8B45E4   		movl	-28(%rbp), %eax
 137:/home/xingli/share/1205tiny/network/dtls/dtls_al/dtls_al.c **** }
 558              		.loc 1 137 1
 559 0074 488B4DE8 		movq	-24(%rbp), %rcx
 560 0078 6448330C 		xorq	%fs:40, %rcx
 560      25280000 
 560      00
 561 0081 7405     		je	.L36
 562 0083 E8000000 		call	__stack_chk_fail@PLT
 562      00
 563              	.L36:
 564 0088 4883C418 		addq	$24, %rsp
 565 008c 5B       		popq	%rbx
 566 008d 5D       		popq	%rbp
 567              	.LCFI26:
 568              		.cfi_def_cfa 7, 8
 569 008e C3       		ret
 570              		.cfi_endproc
 571              	.LFE8:
 573              		.section	.rodata.__FUNCTION__.2690,"a"
GAS LISTING /tmp/ccLDablV.s 			page 15


 574              		.align 8
 577              	__FUNCTION__.2690:
 578 0000 64746C73 		.string	"dtls_imp_init"
 578      5F696D70 
 578      5F696E69 
 578      7400
 579              		.section	.rodata.__FUNCTION__.2695,"a"
 580              		.align 8
 583              	__FUNCTION__.2695:
 584 0000 64746C73 		.string	"dtls_al_init"
 584      5F616C5F 
 584      696E6974 
 584      00
 585              		.text
 586              	.Letext0:
 587              		.file 2 "/usr/lib/gcc/x86_64-linux-gnu/9/include/stddef.h"
 588              		.file 3 "/usr/include/x86_64-linux-gnu/bits/types.h"
 589              		.file 4 "/usr/include/x86_64-linux-gnu/bits/stdint-uintn.h"
 590              		.file 5 "/usr/include/x86_64-linux-gnu/bits/types/struct_FILE.h"
 591              		.file 6 "/usr/include/x86_64-linux-gnu/bits/types/FILE.h"
 592              		.file 7 "/usr/include/stdio.h"
 593              		.file 8 "/usr/include/x86_64-linux-gnu/bits/sys_errlist.h"
 594              		.file 9 "/home/xingli/share/1205tiny/inc/dtls_al.h"
 595              		.file 10 "/home/xingli/share/1205tiny/inc/link_log.h"
 2941              		.section	.note.gnu.property,"a"
 2942              		.align 8
 2943 0000 04000000 		.long	 1f - 0f
 2944 0004 10000000 		.long	 4f - 1f
 2945 0008 05000000 		.long	 5
 2946              	0:
 2947 000c 474E5500 		.string	 "GNU"
 2948              	1:
 2949              		.align 8
 2950 0010 020000C0 		.long	 0xc0000002
 2951 0014 04000000 		.long	 3f - 2f
 2952              	2:
 2953 0018 03000000 		.long	 0x3
 2954              	3:
 2955 001c 00000000 		.align 8
 2956              	4:
GAS LISTING /tmp/ccLDablV.s 			page 16

