ARM GAS  C:\Users\ADMINI~1\AppData\Local\Temp\ccdkYN6R.s 			page 1


   1              		.cpu cortex-m4
   2              		.eabi_attribute 27, 1
   3              		.eabi_attribute 28, 1
   4              		.eabi_attribute 20, 1
   5              		.eabi_attribute 21, 1
   6              		.eabi_attribute 23, 3
   7              		.eabi_attribute 24, 1
   8              		.eabi_attribute 25, 1
   9              		.eabi_attribute 26, 1
  10              		.eabi_attribute 30, 6
  11              		.eabi_attribute 34, 1
  12              		.eabi_attribute 18, 4
  13              		.file	"oc_manhole_cover_template.c"
  14              		.text
  15              	.Ltext0:
  16              		.cfi_sections	.debug_frame
  17              		.comm	context,4,4
  18              		.global	qr_code
  19              		.section	.data.qr_code,"aw"
  22              	qr_code:
  23 0000 01       		.byte	1
  24              		.comm	gImage_Bossaylogo,45128,4
  25              		.comm	E53_SC2_Data,8,4
  26              		.comm	Manhole_Cover,10,4
  27              		.section	.bss.s_rcv_buffer,"aw",%nobits
  28              		.align	2
  31              	s_rcv_buffer:
  32 0000 00000000 		.space	512
  32      00000000 
  32      00000000 
  32      00000000 
  32      00000000 
  33              		.section	.bss.s_rcv_datalen,"aw",%nobits
  34              		.align	2
  37              	s_rcv_datalen:
  38 0000 00000000 		.space	4
  39              		.section	.bss.s_rcv_sync,"aw",%nobits
  40              		.align	2
  43              	s_rcv_sync:
  44 0000 00000000 		.space	4
  45              		.section	.rodata
  46              		.align	2
  47              	.LC0:
  48 0000 49532044 		.ascii	"IS Demo\000"
  48      656D6F00 
  49              		.align	2
  50              	.LC1:
  51 0008 4E434450 		.ascii	"NCDP_IP:\000"
  51      5F49503A 
  51      00
  52 0011 000000   		.align	2
  53              	.LC2:
  54 0014 3131392E 		.ascii	"119.3.250.80\000"
  54      332E3235 
  54      302E3830 
  54      00
  55 0021 000000   		.align	2
ARM GAS  C:\Users\ADMINI~1\AppData\Local\Temp\ccdkYN6R.s 			page 2


  56              	.LC3:
  57 0024 4E434450 		.ascii	"NCDP_PORT:\000"
  57      5F504F52 
  57      543A00
  58 002f 00       		.align	2
  59              	.LC4:
  60 0030 35363833 		.ascii	"5683\000"
  60      00
  61              		.section	.text.timer1_callback,"ax",%progbits
  62              		.align	1
  63              		.arch armv7e-m
  64              		.syntax unified
  65              		.thumb
  66              		.thumb_func
  67              		.fpu fpv4-sp-d16
  69              	timer1_callback:
  70              	.LFB287:
  71              		.file 1 "d:/LiteOS_Lab/targets/STM32L431VCT6_Bossay/Demos/oc_manhole_cover_template/oc_manhole_cov
   1:d:/LiteOS_Lab/targets/STM32L431VCT6_Bossay/Demos/oc_manhole_cover_template\oc_manhole_cover_template.c **** /*----------------------------------------------------------------------------
   2:d:/LiteOS_Lab/targets/STM32L431VCT6_Bossay/Demos/oc_manhole_cover_template\oc_manhole_cover_template.c ****  * Copyright (c) <2018>, <Huawei Technologies Co., Ltd>
   3:d:/LiteOS_Lab/targets/STM32L431VCT6_Bossay/Demos/oc_manhole_cover_template\oc_manhole_cover_template.c ****  * All rights reserved.
   4:d:/LiteOS_Lab/targets/STM32L431VCT6_Bossay/Demos/oc_manhole_cover_template\oc_manhole_cover_template.c ****  * Redistribution and use in source and binary forms, with or without modification,
   5:d:/LiteOS_Lab/targets/STM32L431VCT6_Bossay/Demos/oc_manhole_cover_template\oc_manhole_cover_template.c ****  * are permitted provided that the following conditions are met:
   6:d:/LiteOS_Lab/targets/STM32L431VCT6_Bossay/Demos/oc_manhole_cover_template\oc_manhole_cover_template.c ****  * 1. Redistributions of source code must retain the above copyright notice, this list of
   7:d:/LiteOS_Lab/targets/STM32L431VCT6_Bossay/Demos/oc_manhole_cover_template\oc_manhole_cover_template.c ****  * conditions and the following disclaimer.
   8:d:/LiteOS_Lab/targets/STM32L431VCT6_Bossay/Demos/oc_manhole_cover_template\oc_manhole_cover_template.c ****  * 2. Redistributions in binary form must reproduce the above copyright notice, this list
   9:d:/LiteOS_Lab/targets/STM32L431VCT6_Bossay/Demos/oc_manhole_cover_template\oc_manhole_cover_template.c ****  * of conditions and the following disclaimer in the documentation and/or other materials
  10:d:/LiteOS_Lab/targets/STM32L431VCT6_Bossay/Demos/oc_manhole_cover_template\oc_manhole_cover_template.c ****  * provided with the distribution.
  11:d:/LiteOS_Lab/targets/STM32L431VCT6_Bossay/Demos/oc_manhole_cover_template\oc_manhole_cover_template.c ****  * 3. Neither the name of the copyright holder nor the names of its contributors may be used
  12:d:/LiteOS_Lab/targets/STM32L431VCT6_Bossay/Demos/oc_manhole_cover_template\oc_manhole_cover_template.c ****  * to endorse or promote products derived from this software without specific prior written
  13:d:/LiteOS_Lab/targets/STM32L431VCT6_Bossay/Demos/oc_manhole_cover_template\oc_manhole_cover_template.c ****  * permission.
  14:d:/LiteOS_Lab/targets/STM32L431VCT6_Bossay/Demos/oc_manhole_cover_template\oc_manhole_cover_template.c ****  * THIS SOFTWARE IS PROVIDED BY THE COPYRIGHT HOLDERS AND CONTRIBUTORS
  15:d:/LiteOS_Lab/targets/STM32L431VCT6_Bossay/Demos/oc_manhole_cover_template\oc_manhole_cover_template.c ****  * "AS IS" AND ANY EXPRESS OR IMPLIED WARRANTIES, INCLUDING, BUT NOT LIMITED TO,
  16:d:/LiteOS_Lab/targets/STM32L431VCT6_Bossay/Demos/oc_manhole_cover_template\oc_manhole_cover_template.c ****  * THE IMPLIED WARRANTIES OF MERCHANTABILITY AND FITNESS FOR A PARTICULAR
  17:d:/LiteOS_Lab/targets/STM32L431VCT6_Bossay/Demos/oc_manhole_cover_template\oc_manhole_cover_template.c ****  * PURPOSE ARE DISCLAIMED. IN NO EVENT SHALL THE COPYRIGHT HOLDER OR
  18:d:/LiteOS_Lab/targets/STM32L431VCT6_Bossay/Demos/oc_manhole_cover_template\oc_manhole_cover_template.c ****  * CONTRIBUTORS BE LIABLE FOR ANY DIRECT, INDIRECT, INCIDENTAL, SPECIAL,
  19:d:/LiteOS_Lab/targets/STM32L431VCT6_Bossay/Demos/oc_manhole_cover_template\oc_manhole_cover_template.c ****  * EXEMPLARY, OR CONSEQUENTIAL DAMAGES (INCLUDING, BUT NOT LIMITED TO,
  20:d:/LiteOS_Lab/targets/STM32L431VCT6_Bossay/Demos/oc_manhole_cover_template\oc_manhole_cover_template.c ****  * PROCUREMENT OF SUBSTITUTE GOODS OR SERVICES; LOSS OF USE, DATA, OR PROFITS;
  21:d:/LiteOS_Lab/targets/STM32L431VCT6_Bossay/Demos/oc_manhole_cover_template\oc_manhole_cover_template.c ****  * OR BUSINESS INTERRUPTION) HOWEVER CAUSED AND ON ANY THEORY OF LIABILITY,
  22:d:/LiteOS_Lab/targets/STM32L431VCT6_Bossay/Demos/oc_manhole_cover_template\oc_manhole_cover_template.c ****  * WHETHER IN CONTRACT, STRICT LIABILITY, OR TORT (INCLUDING NEGLIGENCE OR
  23:d:/LiteOS_Lab/targets/STM32L431VCT6_Bossay/Demos/oc_manhole_cover_template\oc_manhole_cover_template.c ****  * OTHERWISE) ARISING IN ANY WAY OUT OF THE USE OF THIS SOFTWARE, EVEN IF
  24:d:/LiteOS_Lab/targets/STM32L431VCT6_Bossay/Demos/oc_manhole_cover_template\oc_manhole_cover_template.c ****  * ADVISED OF THE POSSIBILITY OF SUCH DAMAGE.
  25:d:/LiteOS_Lab/targets/STM32L431VCT6_Bossay/Demos/oc_manhole_cover_template\oc_manhole_cover_template.c ****  *---------------------------------------------------------------------------*/
  26:d:/LiteOS_Lab/targets/STM32L431VCT6_Bossay/Demos/oc_manhole_cover_template\oc_manhole_cover_template.c **** /*----------------------------------------------------------------------------
  27:d:/LiteOS_Lab/targets/STM32L431VCT6_Bossay/Demos/oc_manhole_cover_template\oc_manhole_cover_template.c ****  * Notice of Export Control Law
  28:d:/LiteOS_Lab/targets/STM32L431VCT6_Bossay/Demos/oc_manhole_cover_template\oc_manhole_cover_template.c ****  * ===============================================
  29:d:/LiteOS_Lab/targets/STM32L431VCT6_Bossay/Demos/oc_manhole_cover_template\oc_manhole_cover_template.c ****  * Huawei LiteOS may be subject to applicable export control laws and regulations, which might
  30:d:/LiteOS_Lab/targets/STM32L431VCT6_Bossay/Demos/oc_manhole_cover_template\oc_manhole_cover_template.c ****  * include those applicable to Huawei LiteOS of U.S. and the country in which you are located.
  31:d:/LiteOS_Lab/targets/STM32L431VCT6_Bossay/Demos/oc_manhole_cover_template\oc_manhole_cover_template.c ****  * Import, export and usage of Huawei LiteOS in any manner by you shall be in compliance with such
  32:d:/LiteOS_Lab/targets/STM32L431VCT6_Bossay/Demos/oc_manhole_cover_template\oc_manhole_cover_template.c ****  * applicable export control laws and regulations.
  33:d:/LiteOS_Lab/targets/STM32L431VCT6_Bossay/Demos/oc_manhole_cover_template\oc_manhole_cover_template.c ****  *---------------------------------------------------------------------------*/
  34:d:/LiteOS_Lab/targets/STM32L431VCT6_Bossay/Demos/oc_manhole_cover_template\oc_manhole_cover_template.c **** /**
  35:d:/LiteOS_Lab/targets/STM32L431VCT6_Bossay/Demos/oc_manhole_cover_template\oc_manhole_cover_template.c ****  *  DATE                AUTHOR      INSTRUCTION
  36:d:/LiteOS_Lab/targets/STM32L431VCT6_Bossay/Demos/oc_manhole_cover_template\oc_manhole_cover_template.c ****  *  2019-11-27 10:12  zhangzhongfeng  The first version  
  37:d:/LiteOS_Lab/targets/STM32L431VCT6_Bossay/Demos/oc_manhole_cover_template\oc_manhole_cover_template.c ****  *
  38:d:/LiteOS_Lab/targets/STM32L431VCT6_Bossay/Demos/oc_manhole_cover_template\oc_manhole_cover_template.c ****  */
  39:d:/LiteOS_Lab/targets/STM32L431VCT6_Bossay/Demos/oc_manhole_cover_template\oc_manhole_cover_template.c **** #include <stdint.h>
ARM GAS  C:\Users\ADMINI~1\AppData\Local\Temp\ccdkYN6R.s 			page 3


  40:d:/LiteOS_Lab/targets/STM32L431VCT6_Bossay/Demos/oc_manhole_cover_template\oc_manhole_cover_template.c **** #include <stddef.h>
  41:d:/LiteOS_Lab/targets/STM32L431VCT6_Bossay/Demos/oc_manhole_cover_template\oc_manhole_cover_template.c **** #include <string.h>
  42:d:/LiteOS_Lab/targets/STM32L431VCT6_Bossay/Demos/oc_manhole_cover_template\oc_manhole_cover_template.c **** 
  43:d:/LiteOS_Lab/targets/STM32L431VCT6_Bossay/Demos/oc_manhole_cover_template\oc_manhole_cover_template.c **** #include <osal.h>
  44:d:/LiteOS_Lab/targets/STM32L431VCT6_Bossay/Demos/oc_manhole_cover_template\oc_manhole_cover_template.c **** #include <oc_lwm2m_al.h>
  45:d:/LiteOS_Lab/targets/STM32L431VCT6_Bossay/Demos/oc_manhole_cover_template\oc_manhole_cover_template.c **** #include <link_endian.h>
  46:d:/LiteOS_Lab/targets/STM32L431VCT6_Bossay/Demos/oc_manhole_cover_template\oc_manhole_cover_template.c **** 
  47:d:/LiteOS_Lab/targets/STM32L431VCT6_Bossay/Demos/oc_manhole_cover_template\oc_manhole_cover_template.c **** #include <boudica150_oc.h>
  48:d:/LiteOS_Lab/targets/STM32L431VCT6_Bossay/Demos/oc_manhole_cover_template\oc_manhole_cover_template.c **** #include "E53_SC2.h"
  49:d:/LiteOS_Lab/targets/STM32L431VCT6_Bossay/Demos/oc_manhole_cover_template\oc_manhole_cover_template.c **** #include "lcd.h"
  50:d:/LiteOS_Lab/targets/STM32L431VCT6_Bossay/Demos/oc_manhole_cover_template\oc_manhole_cover_template.c **** 
  51:d:/LiteOS_Lab/targets/STM32L431VCT6_Bossay/Demos/oc_manhole_cover_template\oc_manhole_cover_template.c **** #include <gpio.h>
  52:d:/LiteOS_Lab/targets/STM32L431VCT6_Bossay/Demos/oc_manhole_cover_template\oc_manhole_cover_template.c **** #include <stm32l4xx_it.h>
  53:d:/LiteOS_Lab/targets/STM32L431VCT6_Bossay/Demos/oc_manhole_cover_template\oc_manhole_cover_template.c **** 
  54:d:/LiteOS_Lab/targets/STM32L431VCT6_Bossay/Demos/oc_manhole_cover_template\oc_manhole_cover_template.c **** #define cn_endpoint_id        "SDK_LWM2M_NODTLS"
  55:d:/LiteOS_Lab/targets/STM32L431VCT6_Bossay/Demos/oc_manhole_cover_template\oc_manhole_cover_template.c **** #define cn_app_server         "119.3.250.80"
  56:d:/LiteOS_Lab/targets/STM32L431VCT6_Bossay/Demos/oc_manhole_cover_template\oc_manhole_cover_template.c **** #define cn_app_port           "5683"
  57:d:/LiteOS_Lab/targets/STM32L431VCT6_Bossay/Demos/oc_manhole_cover_template\oc_manhole_cover_template.c **** 
  58:d:/LiteOS_Lab/targets/STM32L431VCT6_Bossay/Demos/oc_manhole_cover_template\oc_manhole_cover_template.c **** typedef unsigned char int8u;
  59:d:/LiteOS_Lab/targets/STM32L431VCT6_Bossay/Demos/oc_manhole_cover_template\oc_manhole_cover_template.c **** typedef char int8s;
  60:d:/LiteOS_Lab/targets/STM32L431VCT6_Bossay/Demos/oc_manhole_cover_template\oc_manhole_cover_template.c **** typedef unsigned short int16u;
  61:d:/LiteOS_Lab/targets/STM32L431VCT6_Bossay/Demos/oc_manhole_cover_template\oc_manhole_cover_template.c **** typedef short int16s;
  62:d:/LiteOS_Lab/targets/STM32L431VCT6_Bossay/Demos/oc_manhole_cover_template\oc_manhole_cover_template.c **** typedef unsigned char int24u;
  63:d:/LiteOS_Lab/targets/STM32L431VCT6_Bossay/Demos/oc_manhole_cover_template\oc_manhole_cover_template.c **** typedef char int24s;
  64:d:/LiteOS_Lab/targets/STM32L431VCT6_Bossay/Demos/oc_manhole_cover_template\oc_manhole_cover_template.c **** typedef int int32s;
  65:d:/LiteOS_Lab/targets/STM32L431VCT6_Bossay/Demos/oc_manhole_cover_template\oc_manhole_cover_template.c **** typedef char string;
  66:d:/LiteOS_Lab/targets/STM32L431VCT6_Bossay/Demos/oc_manhole_cover_template\oc_manhole_cover_template.c **** typedef char array;
  67:d:/LiteOS_Lab/targets/STM32L431VCT6_Bossay/Demos/oc_manhole_cover_template\oc_manhole_cover_template.c **** typedef char varstring;
  68:d:/LiteOS_Lab/targets/STM32L431VCT6_Bossay/Demos/oc_manhole_cover_template\oc_manhole_cover_template.c **** typedef char variant;
  69:d:/LiteOS_Lab/targets/STM32L431VCT6_Bossay/Demos/oc_manhole_cover_template\oc_manhole_cover_template.c **** 
  70:d:/LiteOS_Lab/targets/STM32L431VCT6_Bossay/Demos/oc_manhole_cover_template\oc_manhole_cover_template.c **** #define cn_app_Manhole_Cover 0x0
  71:d:/LiteOS_Lab/targets/STM32L431VCT6_Bossay/Demos/oc_manhole_cover_template\oc_manhole_cover_template.c **** 
  72:d:/LiteOS_Lab/targets/STM32L431VCT6_Bossay/Demos/oc_manhole_cover_template\oc_manhole_cover_template.c **** #pragma pack(1)
  73:d:/LiteOS_Lab/targets/STM32L431VCT6_Bossay/Demos/oc_manhole_cover_template\oc_manhole_cover_template.c **** typedef struct
  74:d:/LiteOS_Lab/targets/STM32L431VCT6_Bossay/Demos/oc_manhole_cover_template\oc_manhole_cover_template.c **** {
  75:d:/LiteOS_Lab/targets/STM32L431VCT6_Bossay/Demos/oc_manhole_cover_template\oc_manhole_cover_template.c ****     int8u messageId;
  76:d:/LiteOS_Lab/targets/STM32L431VCT6_Bossay/Demos/oc_manhole_cover_template\oc_manhole_cover_template.c ****     int8u Temperature;
  77:d:/LiteOS_Lab/targets/STM32L431VCT6_Bossay/Demos/oc_manhole_cover_template\oc_manhole_cover_template.c ****     int8u Accel_x;
  78:d:/LiteOS_Lab/targets/STM32L431VCT6_Bossay/Demos/oc_manhole_cover_template\oc_manhole_cover_template.c ****     int8u Accel_y;
  79:d:/LiteOS_Lab/targets/STM32L431VCT6_Bossay/Demos/oc_manhole_cover_template\oc_manhole_cover_template.c ****     int8u Accel_z;
  80:d:/LiteOS_Lab/targets/STM32L431VCT6_Bossay/Demos/oc_manhole_cover_template\oc_manhole_cover_template.c ****     string Status[5];
  81:d:/LiteOS_Lab/targets/STM32L431VCT6_Bossay/Demos/oc_manhole_cover_template\oc_manhole_cover_template.c **** } tag_app_Manhole_Cover;
  82:d:/LiteOS_Lab/targets/STM32L431VCT6_Bossay/Demos/oc_manhole_cover_template\oc_manhole_cover_template.c **** 
  83:d:/LiteOS_Lab/targets/STM32L431VCT6_Bossay/Demos/oc_manhole_cover_template\oc_manhole_cover_template.c **** 
  84:d:/LiteOS_Lab/targets/STM32L431VCT6_Bossay/Demos/oc_manhole_cover_template\oc_manhole_cover_template.c **** #pragma pack()
  85:d:/LiteOS_Lab/targets/STM32L431VCT6_Bossay/Demos/oc_manhole_cover_template\oc_manhole_cover_template.c **** 
  86:d:/LiteOS_Lab/targets/STM32L431VCT6_Bossay/Demos/oc_manhole_cover_template\oc_manhole_cover_template.c **** void *context;
  87:d:/LiteOS_Lab/targets/STM32L431VCT6_Bossay/Demos/oc_manhole_cover_template\oc_manhole_cover_template.c **** int8_t qr_code = 1;
  88:d:/LiteOS_Lab/targets/STM32L431VCT6_Bossay/Demos/oc_manhole_cover_template\oc_manhole_cover_template.c **** extern const unsigned char gImage_Huawei_IoT_QR_Code[114720];
  89:d:/LiteOS_Lab/targets/STM32L431VCT6_Bossay/Demos/oc_manhole_cover_template\oc_manhole_cover_template.c **** unsigned char gImage_Bossaylogo[45128];
  90:d:/LiteOS_Lab/targets/STM32L431VCT6_Bossay/Demos/oc_manhole_cover_template\oc_manhole_cover_template.c **** E53_SC2_Data_TypeDef E53_SC2_Data;
  91:d:/LiteOS_Lab/targets/STM32L431VCT6_Bossay/Demos/oc_manhole_cover_template\oc_manhole_cover_template.c **** tag_app_Manhole_Cover Manhole_Cover;
  92:d:/LiteOS_Lab/targets/STM32L431VCT6_Bossay/Demos/oc_manhole_cover_template\oc_manhole_cover_template.c **** 
  93:d:/LiteOS_Lab/targets/STM32L431VCT6_Bossay/Demos/oc_manhole_cover_template\oc_manhole_cover_template.c **** 
  94:d:/LiteOS_Lab/targets/STM32L431VCT6_Bossay/Demos/oc_manhole_cover_template\oc_manhole_cover_template.c **** //if your command is very fast,please use a queue here--TODO
  95:d:/LiteOS_Lab/targets/STM32L431VCT6_Bossay/Demos/oc_manhole_cover_template\oc_manhole_cover_template.c **** #define cn_app_rcv_buf_len 128
  96:d:/LiteOS_Lab/targets/STM32L431VCT6_Bossay/Demos/oc_manhole_cover_template\oc_manhole_cover_template.c **** static int             s_rcv_buffer[cn_app_rcv_buf_len];
ARM GAS  C:\Users\ADMINI~1\AppData\Local\Temp\ccdkYN6R.s 			page 4


  97:d:/LiteOS_Lab/targets/STM32L431VCT6_Bossay/Demos/oc_manhole_cover_template\oc_manhole_cover_template.c **** static int             s_rcv_datalen;
  98:d:/LiteOS_Lab/targets/STM32L431VCT6_Bossay/Demos/oc_manhole_cover_template\oc_manhole_cover_template.c **** static osal_semp_t     s_rcv_sync;
  99:d:/LiteOS_Lab/targets/STM32L431VCT6_Bossay/Demos/oc_manhole_cover_template\oc_manhole_cover_template.c **** 
 100:d:/LiteOS_Lab/targets/STM32L431VCT6_Bossay/Demos/oc_manhole_cover_template\oc_manhole_cover_template.c **** static void timer1_callback(void *arg)
 101:d:/LiteOS_Lab/targets/STM32L431VCT6_Bossay/Demos/oc_manhole_cover_template\oc_manhole_cover_template.c **** {
  72              		.loc 1 101 1
  73              		.cfi_startproc
  74              		@ args = 0, pretend = 0, frame = 8
  75              		@ frame_needed = 1, uses_anonymous_args = 0
  76 0000 80B5     		push	{r7, lr}
  77              	.LCFI0:
  78              		.cfi_def_cfa_offset 8
  79              		.cfi_offset 7, -8
  80              		.cfi_offset 14, -4
  81 0002 84B0     		sub	sp, sp, #16
  82              	.LCFI1:
  83              		.cfi_def_cfa_offset 24
  84 0004 02AF     		add	r7, sp, #8
  85              	.LCFI2:
  86              		.cfi_def_cfa 7, 16
  87 0006 7860     		str	r0, [r7, #4]
 102:d:/LiteOS_Lab/targets/STM32L431VCT6_Bossay/Demos/oc_manhole_cover_template\oc_manhole_cover_template.c **** 	qr_code = !qr_code;
  88              		.loc 1 102 12
  89 0008 2F4B     		ldr	r3, .L5
  90 000a 93F90030 		ldrsb	r3, [r3]
  91 000e 002B     		cmp	r3, #0
  92 0010 0CBF     		ite	eq
  93 0012 0123     		moveq	r3, #1
  94 0014 0023     		movne	r3, #0
  95 0016 DBB2     		uxtb	r3, r3
  96 0018 5AB2     		sxtb	r2, r3
  97              		.loc 1 102 10
  98 001a 2B4B     		ldr	r3, .L5
  99 001c 1A70     		strb	r2, [r3]
 103:d:/LiteOS_Lab/targets/STM32L431VCT6_Bossay/Demos/oc_manhole_cover_template\oc_manhole_cover_template.c **** 	LCD_Clear(WHITE);
 100              		.loc 1 103 2
 101 001e 4FF6FF70 		movw	r0, #65535
 102 0022 FFF7FEFF 		bl	LCD_Clear
 104:d:/LiteOS_Lab/targets/STM32L431VCT6_Bossay/Demos/oc_manhole_cover_template\oc_manhole_cover_template.c **** 	if (qr_code == 1)
 103              		.loc 1 104 14
 104 0026 284B     		ldr	r3, .L5
 105 0028 93F90030 		ldrsb	r3, [r3]
 106              		.loc 1 104 5
 107 002c 012B     		cmp	r3, #1
 108 002e 08D1     		bne	.L2
 105:d:/LiteOS_Lab/targets/STM32L431VCT6_Bossay/Demos/oc_manhole_cover_template\oc_manhole_cover_template.c **** 		LCD_Show_Image(0,0,240,239,gImage_Huawei_IoT_QR_Code);
 109              		.loc 1 105 3
 110 0030 264B     		ldr	r3, .L5+4
 111 0032 0093     		str	r3, [sp]
 112 0034 EF23     		movs	r3, #239
 113 0036 F022     		movs	r2, #240
 114 0038 0021     		movs	r1, #0
 115 003a 0020     		movs	r0, #0
 116 003c FFF7FEFF 		bl	LCD_Show_Image
 106:d:/LiteOS_Lab/targets/STM32L431VCT6_Bossay/Demos/oc_manhole_cover_template\oc_manhole_cover_template.c **** 	else
 107:d:/LiteOS_Lab/targets/STM32L431VCT6_Bossay/Demos/oc_manhole_cover_template\oc_manhole_cover_template.c **** 	{
 108:d:/LiteOS_Lab/targets/STM32L431VCT6_Bossay/Demos/oc_manhole_cover_template\oc_manhole_cover_template.c **** 		POINT_COLOR = RED;
ARM GAS  C:\Users\ADMINI~1\AppData\Local\Temp\ccdkYN6R.s 			page 5


 109:d:/LiteOS_Lab/targets/STM32L431VCT6_Bossay/Demos/oc_manhole_cover_template\oc_manhole_cover_template.c ****         LCD_Show_Image(0,0,240,93,gImage_Bossaylogo);
 110:d:/LiteOS_Lab/targets/STM32L431VCT6_Bossay/Demos/oc_manhole_cover_template\oc_manhole_cover_template.c ****         LCD_ShowString(180, 110, 200, 16, 16, "IS Demo");
 111:d:/LiteOS_Lab/targets/STM32L431VCT6_Bossay/Demos/oc_manhole_cover_template\oc_manhole_cover_template.c **** 		LCD_ShowString(10, 130, 200, 16, 16, "NCDP_IP:");
 112:d:/LiteOS_Lab/targets/STM32L431VCT6_Bossay/Demos/oc_manhole_cover_template\oc_manhole_cover_template.c **** 		LCD_ShowString(80, 130, 200, 16, 16, cn_app_server);
 113:d:/LiteOS_Lab/targets/STM32L431VCT6_Bossay/Demos/oc_manhole_cover_template\oc_manhole_cover_template.c **** 		LCD_ShowString(10, 150, 200, 16, 16, "NCDP_PORT:");
 114:d:/LiteOS_Lab/targets/STM32L431VCT6_Bossay/Demos/oc_manhole_cover_template\oc_manhole_cover_template.c **** 		LCD_ShowString(100, 150, 200, 16, 16, cn_app_port);
 115:d:/LiteOS_Lab/targets/STM32L431VCT6_Bossay/Demos/oc_manhole_cover_template\oc_manhole_cover_template.c **** 	}
 116:d:/LiteOS_Lab/targets/STM32L431VCT6_Bossay/Demos/oc_manhole_cover_template\oc_manhole_cover_template.c **** }
 117              		.loc 1 116 1
 118 0040 3DE0     		b	.L4
 119              	.L2:
 108:d:/LiteOS_Lab/targets/STM32L431VCT6_Bossay/Demos/oc_manhole_cover_template\oc_manhole_cover_template.c ****         LCD_Show_Image(0,0,240,93,gImage_Bossaylogo);
 120              		.loc 1 108 15
 121 0042 234B     		ldr	r3, .L5+8
 122 0044 4FF47842 		mov	r2, #63488
 123 0048 1A80     		strh	r2, [r3]	@ movhi
 109:d:/LiteOS_Lab/targets/STM32L431VCT6_Bossay/Demos/oc_manhole_cover_template\oc_manhole_cover_template.c ****         LCD_ShowString(180, 110, 200, 16, 16, "IS Demo");
 124              		.loc 1 109 9
 125 004a 224B     		ldr	r3, .L5+12
 126 004c 0093     		str	r3, [sp]
 127 004e 5D23     		movs	r3, #93
 128 0050 F022     		movs	r2, #240
 129 0052 0021     		movs	r1, #0
 130 0054 0020     		movs	r0, #0
 131 0056 FFF7FEFF 		bl	LCD_Show_Image
 110:d:/LiteOS_Lab/targets/STM32L431VCT6_Bossay/Demos/oc_manhole_cover_template\oc_manhole_cover_template.c **** 		LCD_ShowString(10, 130, 200, 16, 16, "NCDP_IP:");
 132              		.loc 1 110 9
 133 005a 1F4B     		ldr	r3, .L5+16
 134 005c 0193     		str	r3, [sp, #4]
 135 005e 1023     		movs	r3, #16
 136 0060 0093     		str	r3, [sp]
 137 0062 1023     		movs	r3, #16
 138 0064 C822     		movs	r2, #200
 139 0066 6E21     		movs	r1, #110
 140 0068 B420     		movs	r0, #180
 141 006a FFF7FEFF 		bl	LCD_ShowString
 111:d:/LiteOS_Lab/targets/STM32L431VCT6_Bossay/Demos/oc_manhole_cover_template\oc_manhole_cover_template.c **** 		LCD_ShowString(80, 130, 200, 16, 16, cn_app_server);
 142              		.loc 1 111 3
 143 006e 1B4B     		ldr	r3, .L5+20
 144 0070 0193     		str	r3, [sp, #4]
 145 0072 1023     		movs	r3, #16
 146 0074 0093     		str	r3, [sp]
 147 0076 1023     		movs	r3, #16
 148 0078 C822     		movs	r2, #200
 149 007a 8221     		movs	r1, #130
 150 007c 0A20     		movs	r0, #10
 151 007e FFF7FEFF 		bl	LCD_ShowString
 112:d:/LiteOS_Lab/targets/STM32L431VCT6_Bossay/Demos/oc_manhole_cover_template\oc_manhole_cover_template.c **** 		LCD_ShowString(10, 150, 200, 16, 16, "NCDP_PORT:");
 152              		.loc 1 112 3
 153 0082 174B     		ldr	r3, .L5+24
 154 0084 0193     		str	r3, [sp, #4]
 155 0086 1023     		movs	r3, #16
 156 0088 0093     		str	r3, [sp]
 157 008a 1023     		movs	r3, #16
 158 008c C822     		movs	r2, #200
 159 008e 8221     		movs	r1, #130
 160 0090 5020     		movs	r0, #80
ARM GAS  C:\Users\ADMINI~1\AppData\Local\Temp\ccdkYN6R.s 			page 6


 161 0092 FFF7FEFF 		bl	LCD_ShowString
 113:d:/LiteOS_Lab/targets/STM32L431VCT6_Bossay/Demos/oc_manhole_cover_template\oc_manhole_cover_template.c **** 		LCD_ShowString(100, 150, 200, 16, 16, cn_app_port);
 162              		.loc 1 113 3
 163 0096 134B     		ldr	r3, .L5+28
 164 0098 0193     		str	r3, [sp, #4]
 165 009a 1023     		movs	r3, #16
 166 009c 0093     		str	r3, [sp]
 167 009e 1023     		movs	r3, #16
 168 00a0 C822     		movs	r2, #200
 169 00a2 9621     		movs	r1, #150
 170 00a4 0A20     		movs	r0, #10
 171 00a6 FFF7FEFF 		bl	LCD_ShowString
 114:d:/LiteOS_Lab/targets/STM32L431VCT6_Bossay/Demos/oc_manhole_cover_template\oc_manhole_cover_template.c **** 	}
 172              		.loc 1 114 3
 173 00aa 0F4B     		ldr	r3, .L5+32
 174 00ac 0193     		str	r3, [sp, #4]
 175 00ae 1023     		movs	r3, #16
 176 00b0 0093     		str	r3, [sp]
 177 00b2 1023     		movs	r3, #16
 178 00b4 C822     		movs	r2, #200
 179 00b6 9621     		movs	r1, #150
 180 00b8 6420     		movs	r0, #100
 181 00ba FFF7FEFF 		bl	LCD_ShowString
 182              	.L4:
 183              		.loc 1 116 1
 184 00be 00BF     		nop
 185 00c0 0837     		adds	r7, r7, #8
 186              	.LCFI3:
 187              		.cfi_def_cfa_offset 8
 188 00c2 BD46     		mov	sp, r7
 189              	.LCFI4:
 190              		.cfi_def_cfa_register 13
 191              		@ sp needed
 192 00c4 80BD     		pop	{r7, pc}
 193              	.L6:
 194 00c6 00BF     		.align	2
 195              	.L5:
 196 00c8 00000000 		.word	qr_code
 197 00cc 00000000 		.word	gImage_Huawei_IoT_QR_Code
 198 00d0 00000000 		.word	POINT_COLOR
 199 00d4 00000000 		.word	gImage_Bossaylogo
 200 00d8 00000000 		.word	.LC0
 201 00dc 08000000 		.word	.LC1
 202 00e0 14000000 		.word	.LC2
 203 00e4 24000000 		.word	.LC3
 204 00e8 30000000 		.word	.LC4
 205              		.cfi_endproc
 206              	.LFE287:
 208              		.section	.rodata
 209 0035 000000   		.align	2
 210              	.LC5:
 211 0038 4F432072 		.ascii	"OC respond message received! \012\015\000"
 211      6573706F 
 211      6E64206D 
 211      65737361 
 211      67652072 
 212              		.section	.text.app_msg_deal,"ax",%progbits
ARM GAS  C:\Users\ADMINI~1\AppData\Local\Temp\ccdkYN6R.s 			page 7


 213              		.align	1
 214              		.syntax unified
 215              		.thumb
 216              		.thumb_func
 217              		.fpu fpv4-sp-d16
 219              	app_msg_deal:
 220              	.LFB288:
 117:d:/LiteOS_Lab/targets/STM32L431VCT6_Bossay/Demos/oc_manhole_cover_template\oc_manhole_cover_template.c **** 
 118:d:/LiteOS_Lab/targets/STM32L431VCT6_Bossay/Demos/oc_manhole_cover_template\oc_manhole_cover_template.c **** //use this function to push all the message to the buffer
 119:d:/LiteOS_Lab/targets/STM32L431VCT6_Bossay/Demos/oc_manhole_cover_template\oc_manhole_cover_template.c **** static int app_msg_deal(void *usr_data, en_oc_lwm2m_msg_t type, void *data, int len)
 120:d:/LiteOS_Lab/targets/STM32L431VCT6_Bossay/Demos/oc_manhole_cover_template\oc_manhole_cover_template.c **** {
 221              		.loc 1 120 1
 222              		.cfi_startproc
 223              		@ args = 0, pretend = 0, frame = 24
 224              		@ frame_needed = 1, uses_anonymous_args = 0
 225 0000 80B5     		push	{r7, lr}
 226              	.LCFI5:
 227              		.cfi_def_cfa_offset 8
 228              		.cfi_offset 7, -8
 229              		.cfi_offset 14, -4
 230 0002 86B0     		sub	sp, sp, #24
 231              	.LCFI6:
 232              		.cfi_def_cfa_offset 32
 233 0004 00AF     		add	r7, sp, #0
 234              	.LCFI7:
 235              		.cfi_def_cfa_register 7
 236 0006 F860     		str	r0, [r7, #12]
 237 0008 7A60     		str	r2, [r7, #4]
 238 000a 3B60     		str	r3, [r7]
 239 000c 0B46     		mov	r3, r1
 240 000e FB72     		strb	r3, [r7, #11]
 121:d:/LiteOS_Lab/targets/STM32L431VCT6_Bossay/Demos/oc_manhole_cover_template\oc_manhole_cover_template.c ****     unsigned char *msg;
 122:d:/LiteOS_Lab/targets/STM32L431VCT6_Bossay/Demos/oc_manhole_cover_template\oc_manhole_cover_template.c ****     msg = data;
 241              		.loc 1 122 9
 242 0010 7B68     		ldr	r3, [r7, #4]
 243 0012 3B61     		str	r3, [r7, #16]
 123:d:/LiteOS_Lab/targets/STM32L431VCT6_Bossay/Demos/oc_manhole_cover_template\oc_manhole_cover_template.c ****     int ret = -1;
 244              		.loc 1 123 9
 245 0014 4FF0FF33 		mov	r3, #-1
 246 0018 7B61     		str	r3, [r7, #20]
 124:d:/LiteOS_Lab/targets/STM32L431VCT6_Bossay/Demos/oc_manhole_cover_template\oc_manhole_cover_template.c **** 
 125:d:/LiteOS_Lab/targets/STM32L431VCT6_Bossay/Demos/oc_manhole_cover_template\oc_manhole_cover_template.c ****     if(len <= cn_app_rcv_buf_len)
 247              		.loc 1 125 7
 248 001a 3B68     		ldr	r3, [r7]
 249 001c 802B     		cmp	r3, #128
 250 001e 1DDC     		bgt	.L8
 126:d:/LiteOS_Lab/targets/STM32L431VCT6_Bossay/Demos/oc_manhole_cover_template\oc_manhole_cover_template.c ****     {
 127:d:/LiteOS_Lab/targets/STM32L431VCT6_Bossay/Demos/oc_manhole_cover_template\oc_manhole_cover_template.c ****     	if (msg[0] == 0xaa && msg[1] == 0xaa)
 251              		.loc 1 127 13
 252 0020 3B69     		ldr	r3, [r7, #16]
 253 0022 1B78     		ldrb	r3, [r3]	@ zero_extendqisi2
 254              		.loc 1 127 9
 255 0024 AA2B     		cmp	r3, #170
 256 0026 09D1     		bne	.L9
 257              		.loc 1 127 31 discriminator 1
 258 0028 3B69     		ldr	r3, [r7, #16]
 259 002a 0133     		adds	r3, r3, #1
ARM GAS  C:\Users\ADMINI~1\AppData\Local\Temp\ccdkYN6R.s 			page 8


 260 002c 1B78     		ldrb	r3, [r3]	@ zero_extendqisi2
 261              		.loc 1 127 25 discriminator 1
 262 002e AA2B     		cmp	r3, #170
 263 0030 04D1     		bne	.L9
 128:d:/LiteOS_Lab/targets/STM32L431VCT6_Bossay/Demos/oc_manhole_cover_template\oc_manhole_cover_template.c ****     	{
 129:d:/LiteOS_Lab/targets/STM32L431VCT6_Bossay/Demos/oc_manhole_cover_template\oc_manhole_cover_template.c ****     		printf("OC respond message received! \n\r");
 264              		.loc 1 129 7
 265 0032 0D48     		ldr	r0, .L11
 266 0034 FFF7FEFF 		bl	printf
 130:d:/LiteOS_Lab/targets/STM32L431VCT6_Bossay/Demos/oc_manhole_cover_template\oc_manhole_cover_template.c ****     		return ret;
 267              		.loc 1 130 14
 268 0038 7B69     		ldr	r3, [r7, #20]
 269 003a 10E0     		b	.L10
 270              	.L9:
 131:d:/LiteOS_Lab/targets/STM32L431VCT6_Bossay/Demos/oc_manhole_cover_template\oc_manhole_cover_template.c ****     	}
 132:d:/LiteOS_Lab/targets/STM32L431VCT6_Bossay/Demos/oc_manhole_cover_template\oc_manhole_cover_template.c ****         memcpy(s_rcv_buffer,msg,len);
 271              		.loc 1 132 9
 272 003c 3B68     		ldr	r3, [r7]
 273 003e 1A46     		mov	r2, r3
 274 0040 3969     		ldr	r1, [r7, #16]
 275 0042 0A48     		ldr	r0, .L11+4
 276 0044 FFF7FEFF 		bl	memcpy
 133:d:/LiteOS_Lab/targets/STM32L431VCT6_Bossay/Demos/oc_manhole_cover_template\oc_manhole_cover_template.c ****         s_rcv_datalen = len;
 277              		.loc 1 133 23
 278 0048 094A     		ldr	r2, .L11+8
 279 004a 3B68     		ldr	r3, [r7]
 280 004c 1360     		str	r3, [r2]
 134:d:/LiteOS_Lab/targets/STM32L431VCT6_Bossay/Demos/oc_manhole_cover_template\oc_manhole_cover_template.c **** 
 135:d:/LiteOS_Lab/targets/STM32L431VCT6_Bossay/Demos/oc_manhole_cover_template\oc_manhole_cover_template.c ****         osal_semp_post(s_rcv_sync);
 281              		.loc 1 135 9
 282 004e 094B     		ldr	r3, .L11+12
 283 0050 1B68     		ldr	r3, [r3]
 284 0052 1846     		mov	r0, r3
 285 0054 FFF7FEFF 		bl	osal_semp_post
 136:d:/LiteOS_Lab/targets/STM32L431VCT6_Bossay/Demos/oc_manhole_cover_template\oc_manhole_cover_template.c ****         ret = 0;
 286              		.loc 1 136 13
 287 0058 0023     		movs	r3, #0
 288 005a 7B61     		str	r3, [r7, #20]
 289              	.L8:
 137:d:/LiteOS_Lab/targets/STM32L431VCT6_Bossay/Demos/oc_manhole_cover_template\oc_manhole_cover_template.c **** 
 138:d:/LiteOS_Lab/targets/STM32L431VCT6_Bossay/Demos/oc_manhole_cover_template\oc_manhole_cover_template.c ****     }
 139:d:/LiteOS_Lab/targets/STM32L431VCT6_Bossay/Demos/oc_manhole_cover_template\oc_manhole_cover_template.c ****     return ret;
 290              		.loc 1 139 12
 291 005c 7B69     		ldr	r3, [r7, #20]
 292              	.L10:
 140:d:/LiteOS_Lab/targets/STM32L431VCT6_Bossay/Demos/oc_manhole_cover_template\oc_manhole_cover_template.c **** }
 293              		.loc 1 140 1
 294 005e 1846     		mov	r0, r3
 295 0060 1837     		adds	r7, r7, #24
 296              	.LCFI8:
 297              		.cfi_def_cfa_offset 8
 298 0062 BD46     		mov	sp, r7
 299              	.LCFI9:
 300              		.cfi_def_cfa_register 13
 301              		@ sp needed
 302 0064 80BD     		pop	{r7, pc}
 303              	.L12:
ARM GAS  C:\Users\ADMINI~1\AppData\Local\Temp\ccdkYN6R.s 			page 9


 304 0066 00BF     		.align	2
 305              	.L11:
 306 0068 38000000 		.word	.LC5
 307 006c 00000000 		.word	s_rcv_buffer
 308 0070 00000000 		.word	s_rcv_datalen
 309 0074 00000000 		.word	s_rcv_sync
 310              		.cfi_endproc
 311              	.LFE288:
 313              		.section	.rodata
 314              		.align	2
 315              	.LC6:
 316 0058 53444B5F 		.ascii	"SDK_LWM2M_NODTLS\000"
 316      4C574D32 
 316      4D5F4E4F 
 316      44544C53 
 316      00
 317              		.section	.text.app_report_task_entry,"ax",%progbits
 318              		.align	1
 319              		.syntax unified
 320              		.thumb
 321              		.thumb_func
 322              		.fpu fpv4-sp-d16
 324              	app_report_task_entry:
 325              	.LFB289:
 141:d:/LiteOS_Lab/targets/STM32L431VCT6_Bossay/Demos/oc_manhole_cover_template\oc_manhole_cover_template.c **** 
 142:d:/LiteOS_Lab/targets/STM32L431VCT6_Bossay/Demos/oc_manhole_cover_template\oc_manhole_cover_template.c **** static int app_report_task_entry()
 143:d:/LiteOS_Lab/targets/STM32L431VCT6_Bossay/Demos/oc_manhole_cover_template\oc_manhole_cover_template.c **** {
 326              		.loc 1 143 1
 327              		.cfi_startproc
 328              		@ args = 0, pretend = 0, frame = 64
 329              		@ frame_needed = 1, uses_anonymous_args = 0
 330 0000 80B5     		push	{r7, lr}
 331              	.LCFI10:
 332              		.cfi_def_cfa_offset 8
 333              		.cfi_offset 7, -8
 334              		.cfi_offset 14, -4
 335 0002 90B0     		sub	sp, sp, #64
 336              	.LCFI11:
 337              		.cfi_def_cfa_offset 72
 338 0004 00AF     		add	r7, sp, #0
 339              	.LCFI12:
 340              		.cfi_def_cfa_register 7
 144:d:/LiteOS_Lab/targets/STM32L431VCT6_Bossay/Demos/oc_manhole_cover_template\oc_manhole_cover_template.c ****     int ret = -1;
 341              		.loc 1 144 9
 342 0006 4FF0FF33 		mov	r3, #-1
 343 000a FB63     		str	r3, [r7, #60]
 145:d:/LiteOS_Lab/targets/STM32L431VCT6_Bossay/Demos/oc_manhole_cover_template\oc_manhole_cover_template.c **** 
 146:d:/LiteOS_Lab/targets/STM32L431VCT6_Bossay/Demos/oc_manhole_cover_template\oc_manhole_cover_template.c ****     oc_config_param_t      oc_param;
 147:d:/LiteOS_Lab/targets/STM32L431VCT6_Bossay/Demos/oc_manhole_cover_template\oc_manhole_cover_template.c ****     
 148:d:/LiteOS_Lab/targets/STM32L431VCT6_Bossay/Demos/oc_manhole_cover_template\oc_manhole_cover_template.c ****     memset(&oc_param,0,sizeof(oc_param));
 344              		.loc 1 148 5
 345 000c 3B46     		mov	r3, r7
 346 000e 3C22     		movs	r2, #60
 347 0010 0021     		movs	r1, #0
 348 0012 1846     		mov	r0, r3
 349 0014 FFF7FEFF 		bl	memset
 149:d:/LiteOS_Lab/targets/STM32L431VCT6_Bossay/Demos/oc_manhole_cover_template\oc_manhole_cover_template.c **** 
ARM GAS  C:\Users\ADMINI~1\AppData\Local\Temp\ccdkYN6R.s 			page 10


 150:d:/LiteOS_Lab/targets/STM32L431VCT6_Bossay/Demos/oc_manhole_cover_template\oc_manhole_cover_template.c ****     oc_param.app_server.address = cn_app_server;
 350              		.loc 1 150 33
 351 0018 1E4B     		ldr	r3, .L17
 352 001a 3B62     		str	r3, [r7, #32]
 151:d:/LiteOS_Lab/targets/STM32L431VCT6_Bossay/Demos/oc_manhole_cover_template\oc_manhole_cover_template.c ****     oc_param.app_server.port = cn_app_port;
 353              		.loc 1 151 30
 354 001c 1E4B     		ldr	r3, .L17+4
 355 001e 7B62     		str	r3, [r7, #36]
 152:d:/LiteOS_Lab/targets/STM32L431VCT6_Bossay/Demos/oc_manhole_cover_template\oc_manhole_cover_template.c ****     oc_param.app_server.ep_id = cn_endpoint_id;
 356              		.loc 1 152 31
 357 0020 1E4B     		ldr	r3, .L17+8
 358 0022 FB61     		str	r3, [r7, #28]
 153:d:/LiteOS_Lab/targets/STM32L431VCT6_Bossay/Demos/oc_manhole_cover_template\oc_manhole_cover_template.c ****     oc_param.boot_mode = en_oc_boot_strap_mode_factory;
 359              		.loc 1 153 24
 360 0024 0023     		movs	r3, #0
 361 0026 3B70     		strb	r3, [r7]
 154:d:/LiteOS_Lab/targets/STM32L431VCT6_Bossay/Demos/oc_manhole_cover_template\oc_manhole_cover_template.c ****     oc_param.rcv_func = app_msg_deal;
 362              		.loc 1 154 23
 363 0028 1D4B     		ldr	r3, .L17+12
 364 002a 7B63     		str	r3, [r7, #52]
 155:d:/LiteOS_Lab/targets/STM32L431VCT6_Bossay/Demos/oc_manhole_cover_template\oc_manhole_cover_template.c **** 
 156:d:/LiteOS_Lab/targets/STM32L431VCT6_Bossay/Demos/oc_manhole_cover_template\oc_manhole_cover_template.c ****     ret = oc_lwm2m_config( &oc_param);
 365              		.loc 1 156 11
 366 002c 3B46     		mov	r3, r7
 367 002e 1846     		mov	r0, r3
 368 0030 FFF7FEFF 		bl	oc_lwm2m_config
 369 0034 F863     		str	r0, [r7, #60]
 157:d:/LiteOS_Lab/targets/STM32L431VCT6_Bossay/Demos/oc_manhole_cover_template\oc_manhole_cover_template.c ****     if (0 != ret)
 370              		.loc 1 157 8
 371 0036 FB6B     		ldr	r3, [r7, #60]
 372 0038 002B     		cmp	r3, #0
 373 003a 01D0     		beq	.L14
 158:d:/LiteOS_Lab/targets/STM32L431VCT6_Bossay/Demos/oc_manhole_cover_template\oc_manhole_cover_template.c ****     {
 159:d:/LiteOS_Lab/targets/STM32L431VCT6_Bossay/Demos/oc_manhole_cover_template\oc_manhole_cover_template.c ****     	return ret;
 374              		.loc 1 159 13
 375 003c FB6B     		ldr	r3, [r7, #60]
 376 003e 25E0     		b	.L16
 377              	.L14:
 160:d:/LiteOS_Lab/targets/STM32L431VCT6_Bossay/Demos/oc_manhole_cover_template\oc_manhole_cover_template.c ****     }
 161:d:/LiteOS_Lab/targets/STM32L431VCT6_Bossay/Demos/oc_manhole_cover_template\oc_manhole_cover_template.c ****     //install a dealer for the led message received
 162:d:/LiteOS_Lab/targets/STM32L431VCT6_Bossay/Demos/oc_manhole_cover_template\oc_manhole_cover_template.c ****     while(1) //--TODO ,you could add your own code here
 163:d:/LiteOS_Lab/targets/STM32L431VCT6_Bossay/Demos/oc_manhole_cover_template\oc_manhole_cover_template.c ****     {
 164:d:/LiteOS_Lab/targets/STM32L431VCT6_Bossay/Demos/oc_manhole_cover_template\oc_manhole_cover_template.c ****         Manhole_Cover.messageId = cn_app_Manhole_Cover;
 378              		.loc 1 164 33 discriminator 1
 379 0040 184B     		ldr	r3, .L17+16
 380 0042 0022     		movs	r2, #0
 381 0044 1A70     		strb	r2, [r3]
 165:d:/LiteOS_Lab/targets/STM32L431VCT6_Bossay/Demos/oc_manhole_cover_template\oc_manhole_cover_template.c ****         Manhole_Cover.Temperature = (int)E53_SC2_Data.Temperature;
 382              		.loc 1 165 54 discriminator 1
 383 0046 184B     		ldr	r3, .L17+20
 384 0048 B3F90030 		ldrsh	r3, [r3]
 385              		.loc 1 165 35 discriminator 1
 386 004c DAB2     		uxtb	r2, r3
 387 004e 154B     		ldr	r3, .L17+16
 388 0050 5A70     		strb	r2, [r3, #1]
 166:d:/LiteOS_Lab/targets/STM32L431VCT6_Bossay/Demos/oc_manhole_cover_template\oc_manhole_cover_template.c ****         Manhole_Cover.Accel_x = (int)E53_SC2_Data.Accel[0];
 389              		.loc 1 166 56 discriminator 1
ARM GAS  C:\Users\ADMINI~1\AppData\Local\Temp\ccdkYN6R.s 			page 11


 390 0052 154B     		ldr	r3, .L17+20
 391 0054 B3F90230 		ldrsh	r3, [r3, #2]
 392              		.loc 1 166 31 discriminator 1
 393 0058 DAB2     		uxtb	r2, r3
 394 005a 124B     		ldr	r3, .L17+16
 395 005c 9A70     		strb	r2, [r3, #2]
 167:d:/LiteOS_Lab/targets/STM32L431VCT6_Bossay/Demos/oc_manhole_cover_template\oc_manhole_cover_template.c ****         Manhole_Cover.Accel_y = (int)E53_SC2_Data.Accel[1];
 396              		.loc 1 167 56 discriminator 1
 397 005e 124B     		ldr	r3, .L17+20
 398 0060 B3F90430 		ldrsh	r3, [r3, #4]
 399              		.loc 1 167 31 discriminator 1
 400 0064 DAB2     		uxtb	r2, r3
 401 0066 0F4B     		ldr	r3, .L17+16
 402 0068 DA70     		strb	r2, [r3, #3]
 168:d:/LiteOS_Lab/targets/STM32L431VCT6_Bossay/Demos/oc_manhole_cover_template\oc_manhole_cover_template.c ****         Manhole_Cover.Accel_z = (int)E53_SC2_Data.Accel[2];
 403              		.loc 1 168 56 discriminator 1
 404 006a 0F4B     		ldr	r3, .L17+20
 405 006c B3F90630 		ldrsh	r3, [r3, #6]
 406              		.loc 1 168 31 discriminator 1
 407 0070 DAB2     		uxtb	r2, r3
 408 0072 0C4B     		ldr	r3, .L17+16
 409 0074 1A71     		strb	r2, [r3, #4]
 169:d:/LiteOS_Lab/targets/STM32L431VCT6_Bossay/Demos/oc_manhole_cover_template\oc_manhole_cover_template.c ****         oc_lwm2m_report((char *)&Manhole_Cover, sizeof(Manhole_Cover), 1000);
 410              		.loc 1 169 9 discriminator 1
 411 0076 4FF47A72 		mov	r2, #1000
 412 007a 0A21     		movs	r1, #10
 413 007c 0948     		ldr	r0, .L17+16
 414 007e FFF7FEFF 		bl	oc_lwm2m_report
 170:d:/LiteOS_Lab/targets/STM32L431VCT6_Bossay/Demos/oc_manhole_cover_template\oc_manhole_cover_template.c ****         osal_task_sleep(2*1000);
 415              		.loc 1 170 9 discriminator 1
 416 0082 4FF4FA60 		mov	r0, #2000
 417 0086 FFF7FEFF 		bl	osal_task_sleep
 164:d:/LiteOS_Lab/targets/STM32L431VCT6_Bossay/Demos/oc_manhole_cover_template\oc_manhole_cover_template.c ****         Manhole_Cover.Temperature = (int)E53_SC2_Data.Temperature;
 418              		.loc 1 164 33 discriminator 1
 419 008a D9E7     		b	.L14
 420              	.L16:
 171:d:/LiteOS_Lab/targets/STM32L431VCT6_Bossay/Demos/oc_manhole_cover_template\oc_manhole_cover_template.c ****     }
 172:d:/LiteOS_Lab/targets/STM32L431VCT6_Bossay/Demos/oc_manhole_cover_template\oc_manhole_cover_template.c **** 
 173:d:/LiteOS_Lab/targets/STM32L431VCT6_Bossay/Demos/oc_manhole_cover_template\oc_manhole_cover_template.c ****     return ret;
 174:d:/LiteOS_Lab/targets/STM32L431VCT6_Bossay/Demos/oc_manhole_cover_template\oc_manhole_cover_template.c **** }
 421              		.loc 1 174 1 discriminator 1
 422 008c 1846     		mov	r0, r3
 423 008e 4037     		adds	r7, r7, #64
 424              	.LCFI13:
 425              		.cfi_def_cfa_offset 8
 426 0090 BD46     		mov	sp, r7
 427              	.LCFI14:
 428              		.cfi_def_cfa_register 13
 429              		@ sp needed
 430 0092 80BD     		pop	{r7, pc}
 431              	.L18:
 432              		.align	2
 433              	.L17:
 434 0094 14000000 		.word	.LC2
 435 0098 30000000 		.word	.LC4
 436 009c 58000000 		.word	.LC6
 437 00a0 00000000 		.word	app_msg_deal
ARM GAS  C:\Users\ADMINI~1\AppData\Local\Temp\ccdkYN6R.s 			page 12


 438 00a4 00000000 		.word	Manhole_Cover
 439 00a8 00000000 		.word	E53_SC2_Data
 440              		.cfi_endproc
 441              	.LFE289:
 443              		.global	X
 444              		.section	.bss.X,"aw",%nobits
 445              		.align	2
 448              	X:
 449 0000 00000000 		.space	4
 450              		.global	Y
 451              		.section	.bss.Y,"aw",%nobits
 452              		.align	2
 455              	Y:
 456 0000 00000000 		.space	4
 457              		.global	Z
 458              		.section	.bss.Z,"aw",%nobits
 459              		.align	2
 462              	Z:
 463 0000 00000000 		.space	4
 464              		.section	.rodata
 465 0069 000000   		.align	2
 466              	.LC7:
 467 006c 0D0A2A2A 		.ascii	"\015\012******************************Temperature  "
 467      2A2A2A2A 
 467      2A2A2A2A 
 467      2A2A2A2A 
 467      2A2A2A2A 
 468 0099 20202020 		.ascii	"    is  %d\015\012\000"
 468      69732020 
 468      25640D0A 
 468      00
 469 00a6 0000     		.align	2
 470              	.LC8:
 471 00a8 0D0A2A2A 		.ascii	"\015\012******************************Accel[0]     "
 471      2A2A2A2A 
 471      2A2A2A2A 
 471      2A2A2A2A 
 471      2A2A2A2A 
 472 00d5 20202020 		.ascii	"    is  %d\015\012\000"
 472      69732020 
 472      25640D0A 
 472      00
 473 00e2 0000     		.align	2
 474              	.LC9:
 475 00e4 0D0A2A2A 		.ascii	"\015\012******************************Accel[1]     "
 475      2A2A2A2A 
 475      2A2A2A2A 
 475      2A2A2A2A 
 475      2A2A2A2A 
 476 0111 20202020 		.ascii	"    is  %d\015\012\000"
 476      69732020 
 476      25640D0A 
 476      00
 477 011e 0000     		.align	2
 478              	.LC10:
 479 0120 0D0A2A2A 		.ascii	"\015\012******************************Accel[2]     "
 479      2A2A2A2A 
ARM GAS  C:\Users\ADMINI~1\AppData\Local\Temp\ccdkYN6R.s 			page 13


 479      2A2A2A2A 
 479      2A2A2A2A 
 479      2A2A2A2A 
 480 014d 20202020 		.ascii	"    is  %d\015\012\000"
 480      69732020 
 480      25640D0A 
 480      00
 481              		.section	.text.app_collect_task_entry,"ax",%progbits
 482              		.align	1
 483              		.syntax unified
 484              		.thumb
 485              		.thumb_func
 486              		.fpu fpv4-sp-d16
 488              	app_collect_task_entry:
 489              	.LFB290:
 175:d:/LiteOS_Lab/targets/STM32L431VCT6_Bossay/Demos/oc_manhole_cover_template\oc_manhole_cover_template.c **** 
 176:d:/LiteOS_Lab/targets/STM32L431VCT6_Bossay/Demos/oc_manhole_cover_template\oc_manhole_cover_template.c **** int X = 0,Y = 0,Z = 0;
 177:d:/LiteOS_Lab/targets/STM32L431VCT6_Bossay/Demos/oc_manhole_cover_template\oc_manhole_cover_template.c **** static int app_collect_task_entry()
 178:d:/LiteOS_Lab/targets/STM32L431VCT6_Bossay/Demos/oc_manhole_cover_template\oc_manhole_cover_template.c **** {
 490              		.loc 1 178 1
 491              		.cfi_startproc
 492              		@ args = 0, pretend = 0, frame = 0
 493              		@ frame_needed = 1, uses_anonymous_args = 0
 494 0000 80B5     		push	{r7, lr}
 495              	.LCFI15:
 496              		.cfi_def_cfa_offset 8
 497              		.cfi_offset 7, -8
 498              		.cfi_offset 14, -4
 499 0002 00AF     		add	r7, sp, #0
 500              	.LCFI16:
 501              		.cfi_def_cfa_register 7
 179:d:/LiteOS_Lab/targets/STM32L431VCT6_Bossay/Demos/oc_manhole_cover_template\oc_manhole_cover_template.c ****     Init_E53_SC2();
 502              		.loc 1 179 5
 503 0004 FFF7FEFF 		bl	Init_E53_SC2
 504              	.L24:
 180:d:/LiteOS_Lab/targets/STM32L431VCT6_Bossay/Demos/oc_manhole_cover_template\oc_manhole_cover_template.c ****     while (1)
 181:d:/LiteOS_Lab/targets/STM32L431VCT6_Bossay/Demos/oc_manhole_cover_template\oc_manhole_cover_template.c ****     {
 182:d:/LiteOS_Lab/targets/STM32L431VCT6_Bossay/Demos/oc_manhole_cover_template\oc_manhole_cover_template.c ****         E53_SC2_Read_Data();
 505              		.loc 1 182 9
 506 0008 FFF7FEFF 		bl	E53_SC2_Read_Data
 183:d:/LiteOS_Lab/targets/STM32L431VCT6_Bossay/Demos/oc_manhole_cover_template\oc_manhole_cover_template.c ****         printf("\r\n******************************Temperature      is  %d\r\n", (int)E53_SC2_Data.T
 507              		.loc 1 183 98
 508 000c 534B     		ldr	r3, .L26
 509 000e B3F90030 		ldrsh	r3, [r3]
 510              		.loc 1 183 9
 511 0012 1946     		mov	r1, r3
 512 0014 5248     		ldr	r0, .L26+4
 513 0016 FFF7FEFF 		bl	printf
 184:d:/LiteOS_Lab/targets/STM32L431VCT6_Bossay/Demos/oc_manhole_cover_template\oc_manhole_cover_template.c ****         printf("\r\n******************************Accel[0]         is  %d\r\n", (int)E53_SC2_Data.A
 514              		.loc 1 184 104
 515 001a 504B     		ldr	r3, .L26
 516 001c B3F90230 		ldrsh	r3, [r3, #2]
 517              		.loc 1 184 9
 518 0020 1946     		mov	r1, r3
 519 0022 5048     		ldr	r0, .L26+8
 520 0024 FFF7FEFF 		bl	printf
 185:d:/LiteOS_Lab/targets/STM32L431VCT6_Bossay/Demos/oc_manhole_cover_template\oc_manhole_cover_template.c ****         printf("\r\n******************************Accel[1]         is  %d\r\n", (int)E53_SC2_Data.A
ARM GAS  C:\Users\ADMINI~1\AppData\Local\Temp\ccdkYN6R.s 			page 14


 521              		.loc 1 185 104
 522 0028 4C4B     		ldr	r3, .L26
 523 002a B3F90430 		ldrsh	r3, [r3, #4]
 524              		.loc 1 185 9
 525 002e 1946     		mov	r1, r3
 526 0030 4D48     		ldr	r0, .L26+12
 527 0032 FFF7FEFF 		bl	printf
 186:d:/LiteOS_Lab/targets/STM32L431VCT6_Bossay/Demos/oc_manhole_cover_template\oc_manhole_cover_template.c ****         printf("\r\n******************************Accel[2]         is  %d\r\n", (int)E53_SC2_Data.A
 528              		.loc 1 186 104
 529 0036 494B     		ldr	r3, .L26
 530 0038 B3F90630 		ldrsh	r3, [r3, #6]
 531              		.loc 1 186 9
 532 003c 1946     		mov	r1, r3
 533 003e 4B48     		ldr	r0, .L26+16
 534 0040 FFF7FEFF 		bl	printf
 187:d:/LiteOS_Lab/targets/STM32L431VCT6_Bossay/Demos/oc_manhole_cover_template\oc_manhole_cover_template.c ****         if( X == 0 && Y == 0 && Z == 0)
 535              		.loc 1 187 15
 536 0044 4A4B     		ldr	r3, .L26+20
 537 0046 1B68     		ldr	r3, [r3]
 538              		.loc 1 187 11
 539 0048 002B     		cmp	r3, #0
 540 004a 1AD1     		bne	.L20
 541              		.loc 1 187 25 discriminator 1
 542 004c 494B     		ldr	r3, .L26+24
 543 004e 1B68     		ldr	r3, [r3]
 544              		.loc 1 187 20 discriminator 1
 545 0050 002B     		cmp	r3, #0
 546 0052 16D1     		bne	.L20
 547              		.loc 1 187 35 discriminator 2
 548 0054 484B     		ldr	r3, .L26+28
 549 0056 1B68     		ldr	r3, [r3]
 550              		.loc 1 187 30 discriminator 2
 551 0058 002B     		cmp	r3, #0
 552 005a 12D1     		bne	.L20
 188:d:/LiteOS_Lab/targets/STM32L431VCT6_Bossay/Demos/oc_manhole_cover_template\oc_manhole_cover_template.c ****         {
 189:d:/LiteOS_Lab/targets/STM32L431VCT6_Bossay/Demos/oc_manhole_cover_template\oc_manhole_cover_template.c ****             X = (int)E53_SC2_Data.Accel[0];
 553              		.loc 1 189 40
 554 005c 3F4B     		ldr	r3, .L26
 555 005e B3F90230 		ldrsh	r3, [r3, #2]
 556              		.loc 1 189 17
 557 0062 1A46     		mov	r2, r3
 558              		.loc 1 189 15
 559 0064 424B     		ldr	r3, .L26+20
 560 0066 1A60     		str	r2, [r3]
 190:d:/LiteOS_Lab/targets/STM32L431VCT6_Bossay/Demos/oc_manhole_cover_template\oc_manhole_cover_template.c ****             Y = (int)E53_SC2_Data.Accel[1];
 561              		.loc 1 190 40
 562 0068 3C4B     		ldr	r3, .L26
 563 006a B3F90430 		ldrsh	r3, [r3, #4]
 564              		.loc 1 190 17
 565 006e 1A46     		mov	r2, r3
 566              		.loc 1 190 15
 567 0070 404B     		ldr	r3, .L26+24
 568 0072 1A60     		str	r2, [r3]
 191:d:/LiteOS_Lab/targets/STM32L431VCT6_Bossay/Demos/oc_manhole_cover_template\oc_manhole_cover_template.c ****             Z = (int)E53_SC2_Data.Accel[2];
 569              		.loc 1 191 40
 570 0074 394B     		ldr	r3, .L26
 571 0076 B3F90630 		ldrsh	r3, [r3, #6]
ARM GAS  C:\Users\ADMINI~1\AppData\Local\Temp\ccdkYN6R.s 			page 15


 572              		.loc 1 191 17
 573 007a 1A46     		mov	r2, r3
 574              		.loc 1 191 15
 575 007c 3E4B     		ldr	r3, .L26+28
 576 007e 1A60     		str	r2, [r3]
 577 0080 66E0     		b	.L25
 578              	.L20:
 192:d:/LiteOS_Lab/targets/STM32L431VCT6_Bossay/Demos/oc_manhole_cover_template\oc_manhole_cover_template.c ****         }
 193:d:/LiteOS_Lab/targets/STM32L431VCT6_Bossay/Demos/oc_manhole_cover_template\oc_manhole_cover_template.c ****         else
 194:d:/LiteOS_Lab/targets/STM32L431VCT6_Bossay/Demos/oc_manhole_cover_template\oc_manhole_cover_template.c ****         {
 195:d:/LiteOS_Lab/targets/STM32L431VCT6_Bossay/Demos/oc_manhole_cover_template\oc_manhole_cover_template.c ****             if(X+100<E53_SC2_Data.Accel[0]||X-100>E53_SC2_Data.Accel[0]||Y+100<E53_SC2_Data.Accel[1
 579              		.loc 1 195 17
 580 0082 3B4B     		ldr	r3, .L26+20
 581 0084 1B68     		ldr	r3, [r3]
 582 0086 6433     		adds	r3, r3, #100
 583              		.loc 1 195 40
 584 0088 344A     		ldr	r2, .L26
 585 008a B2F90220 		ldrsh	r2, [r2, #2]
 586              		.loc 1 195 15
 587 008e 9342     		cmp	r3, r2
 588 0090 27DB     		blt	.L22
 589              		.loc 1 195 46 discriminator 1
 590 0092 374B     		ldr	r3, .L26+20
 591 0094 1B68     		ldr	r3, [r3]
 592 0096 643B     		subs	r3, r3, #100
 593              		.loc 1 195 69 discriminator 1
 594 0098 304A     		ldr	r2, .L26
 595 009a B2F90220 		ldrsh	r2, [r2, #2]
 596              		.loc 1 195 43 discriminator 1
 597 009e 9342     		cmp	r3, r2
 598 00a0 1FDC     		bgt	.L22
 599              		.loc 1 195 75 discriminator 2
 600 00a2 344B     		ldr	r3, .L26+24
 601 00a4 1B68     		ldr	r3, [r3]
 602 00a6 6433     		adds	r3, r3, #100
 603              		.loc 1 195 98 discriminator 2
 604 00a8 2C4A     		ldr	r2, .L26
 605 00aa B2F90420 		ldrsh	r2, [r2, #4]
 606              		.loc 1 195 72 discriminator 2
 607 00ae 9342     		cmp	r3, r2
 608 00b0 17DB     		blt	.L22
 609              		.loc 1 195 104 discriminator 3
 610 00b2 304B     		ldr	r3, .L26+24
 611 00b4 1B68     		ldr	r3, [r3]
 612 00b6 643B     		subs	r3, r3, #100
 613              		.loc 1 195 127 discriminator 3
 614 00b8 284A     		ldr	r2, .L26
 615 00ba B2F90420 		ldrsh	r2, [r2, #4]
 616              		.loc 1 195 101 discriminator 3
 617 00be 9342     		cmp	r3, r2
 618 00c0 0FDC     		bgt	.L22
 619              		.loc 1 195 133 discriminator 4
 620 00c2 2D4B     		ldr	r3, .L26+28
 621 00c4 1B68     		ldr	r3, [r3]
 622 00c6 6433     		adds	r3, r3, #100
 623              		.loc 1 195 156 discriminator 4
 624 00c8 244A     		ldr	r2, .L26
ARM GAS  C:\Users\ADMINI~1\AppData\Local\Temp\ccdkYN6R.s 			page 16


 625 00ca B2F90620 		ldrsh	r2, [r2, #6]
 626              		.loc 1 195 130 discriminator 4
 627 00ce 9342     		cmp	r3, r2
 628 00d0 07DB     		blt	.L22
 629              		.loc 1 195 162 discriminator 5
 630 00d2 294B     		ldr	r3, .L26+28
 631 00d4 1B68     		ldr	r3, [r3]
 632 00d6 643B     		subs	r3, r3, #100
 633              		.loc 1 195 185 discriminator 5
 634 00d8 204A     		ldr	r2, .L26
 635 00da B2F90620 		ldrsh	r2, [r2, #6]
 636              		.loc 1 195 159 discriminator 5
 637 00de 9342     		cmp	r3, r2
 638 00e0 1BDD     		ble	.L23
 639              	.L22:
 196:d:/LiteOS_Lab/targets/STM32L431VCT6_Bossay/Demos/oc_manhole_cover_template\oc_manhole_cover_template.c ****             {
 197:d:/LiteOS_Lab/targets/STM32L431VCT6_Bossay/Demos/oc_manhole_cover_template\oc_manhole_cover_template.c ****                 HAL_GPIO_WritePin(GPIOB,GPIO_PIN_8,GPIO_PIN_SET);
 640              		.loc 1 197 17
 641 00e2 0122     		movs	r2, #1
 642 00e4 4FF48071 		mov	r1, #256
 643 00e8 2448     		ldr	r0, .L26+32
 644 00ea FFF7FEFF 		bl	HAL_GPIO_WritePin
 198:d:/LiteOS_Lab/targets/STM32L431VCT6_Bossay/Demos/oc_manhole_cover_template\oc_manhole_cover_template.c ****                 HAL_GPIO_WritePin(GPIOB,GPIO_PIN_9,GPIO_PIN_RESET);
 645              		.loc 1 198 17
 646 00ee 0022     		movs	r2, #0
 647 00f0 4FF40071 		mov	r1, #512
 648 00f4 2148     		ldr	r0, .L26+32
 649 00f6 FFF7FEFF 		bl	HAL_GPIO_WritePin
 199:d:/LiteOS_Lab/targets/STM32L431VCT6_Bossay/Demos/oc_manhole_cover_template\oc_manhole_cover_template.c ****                 Manhole_Cover.Status[0] = ' ';
 650              		.loc 1 199 41
 651 00fa 214B     		ldr	r3, .L26+36
 652 00fc 2022     		movs	r2, #32
 653 00fe 5A71     		strb	r2, [r3, #5]
 200:d:/LiteOS_Lab/targets/STM32L431VCT6_Bossay/Demos/oc_manhole_cover_template\oc_manhole_cover_template.c ****                 Manhole_Cover.Status[1] = 'T';
 654              		.loc 1 200 41
 655 0100 1F4B     		ldr	r3, .L26+36
 656 0102 5422     		movs	r2, #84
 657 0104 9A71     		strb	r2, [r3, #6]
 201:d:/LiteOS_Lab/targets/STM32L431VCT6_Bossay/Demos/oc_manhole_cover_template\oc_manhole_cover_template.c ****                 Manhole_Cover.Status[2] = 'i';
 658              		.loc 1 201 41
 659 0106 1E4B     		ldr	r3, .L26+36
 660 0108 6922     		movs	r2, #105
 661 010a DA71     		strb	r2, [r3, #7]
 202:d:/LiteOS_Lab/targets/STM32L431VCT6_Bossay/Demos/oc_manhole_cover_template\oc_manhole_cover_template.c ****                 Manhole_Cover.Status[3] = 'l';
 662              		.loc 1 202 41
 663 010c 1C4B     		ldr	r3, .L26+36
 664 010e 6C22     		movs	r2, #108
 665 0110 1A72     		strb	r2, [r3, #8]
 203:d:/LiteOS_Lab/targets/STM32L431VCT6_Bossay/Demos/oc_manhole_cover_template\oc_manhole_cover_template.c ****                 Manhole_Cover.Status[4] = 't';
 666              		.loc 1 203 41
 667 0112 1B4B     		ldr	r3, .L26+36
 668 0114 7422     		movs	r2, #116
 669 0116 5A72     		strb	r2, [r3, #9]
 670 0118 1AE0     		b	.L25
 671              	.L23:
 204:d:/LiteOS_Lab/targets/STM32L431VCT6_Bossay/Demos/oc_manhole_cover_template\oc_manhole_cover_template.c **** 
 205:d:/LiteOS_Lab/targets/STM32L431VCT6_Bossay/Demos/oc_manhole_cover_template\oc_manhole_cover_template.c ****             }
ARM GAS  C:\Users\ADMINI~1\AppData\Local\Temp\ccdkYN6R.s 			page 17


 206:d:/LiteOS_Lab/targets/STM32L431VCT6_Bossay/Demos/oc_manhole_cover_template\oc_manhole_cover_template.c ****             else
 207:d:/LiteOS_Lab/targets/STM32L431VCT6_Bossay/Demos/oc_manhole_cover_template\oc_manhole_cover_template.c ****             {
 208:d:/LiteOS_Lab/targets/STM32L431VCT6_Bossay/Demos/oc_manhole_cover_template\oc_manhole_cover_template.c ****                 HAL_GPIO_WritePin(GPIOB,GPIO_PIN_8,GPIO_PIN_RESET);
 672              		.loc 1 208 17
 673 011a 0022     		movs	r2, #0
 674 011c 4FF48071 		mov	r1, #256
 675 0120 1648     		ldr	r0, .L26+32
 676 0122 FFF7FEFF 		bl	HAL_GPIO_WritePin
 209:d:/LiteOS_Lab/targets/STM32L431VCT6_Bossay/Demos/oc_manhole_cover_template\oc_manhole_cover_template.c ****                 HAL_GPIO_WritePin(GPIOB,GPIO_PIN_9,GPIO_PIN_SET);
 677              		.loc 1 209 17
 678 0126 0122     		movs	r2, #1
 679 0128 4FF40071 		mov	r1, #512
 680 012c 1348     		ldr	r0, .L26+32
 681 012e FFF7FEFF 		bl	HAL_GPIO_WritePin
 210:d:/LiteOS_Lab/targets/STM32L431VCT6_Bossay/Demos/oc_manhole_cover_template\oc_manhole_cover_template.c ****                 Manhole_Cover.Status[0] = 'L';
 682              		.loc 1 210 41
 683 0132 134B     		ldr	r3, .L26+36
 684 0134 4C22     		movs	r2, #76
 685 0136 5A71     		strb	r2, [r3, #5]
 211:d:/LiteOS_Lab/targets/STM32L431VCT6_Bossay/Demos/oc_manhole_cover_template\oc_manhole_cover_template.c ****                 Manhole_Cover.Status[1] = 'e';
 686              		.loc 1 211 41
 687 0138 114B     		ldr	r3, .L26+36
 688 013a 6522     		movs	r2, #101
 689 013c 9A71     		strb	r2, [r3, #6]
 212:d:/LiteOS_Lab/targets/STM32L431VCT6_Bossay/Demos/oc_manhole_cover_template\oc_manhole_cover_template.c ****                 Manhole_Cover.Status[2] = 'v';
 690              		.loc 1 212 41
 691 013e 104B     		ldr	r3, .L26+36
 692 0140 7622     		movs	r2, #118
 693 0142 DA71     		strb	r2, [r3, #7]
 213:d:/LiteOS_Lab/targets/STM32L431VCT6_Bossay/Demos/oc_manhole_cover_template\oc_manhole_cover_template.c ****                 Manhole_Cover.Status[3] = 'e';
 694              		.loc 1 213 41
 695 0144 0E4B     		ldr	r3, .L26+36
 696 0146 6522     		movs	r2, #101
 697 0148 1A72     		strb	r2, [r3, #8]
 214:d:/LiteOS_Lab/targets/STM32L431VCT6_Bossay/Demos/oc_manhole_cover_template\oc_manhole_cover_template.c ****                 Manhole_Cover.Status[4] = 'l';
 698              		.loc 1 214 41
 699 014a 0D4B     		ldr	r3, .L26+36
 700 014c 6C22     		movs	r2, #108
 701 014e 5A72     		strb	r2, [r3, #9]
 702              	.L25:
 215:d:/LiteOS_Lab/targets/STM32L431VCT6_Bossay/Demos/oc_manhole_cover_template\oc_manhole_cover_template.c ****             }
 216:d:/LiteOS_Lab/targets/STM32L431VCT6_Bossay/Demos/oc_manhole_cover_template\oc_manhole_cover_template.c ****         }
 217:d:/LiteOS_Lab/targets/STM32L431VCT6_Bossay/Demos/oc_manhole_cover_template\oc_manhole_cover_template.c ****         if (qr_code == 0)
 218:d:/LiteOS_Lab/targets/STM32L431VCT6_Bossay/Demos/oc_manhole_cover_template\oc_manhole_cover_template.c ****         {
 219:d:/LiteOS_Lab/targets/STM32L431VCT6_Bossay/Demos/oc_manhole_cover_template\oc_manhole_cover_template.c **** 
 220:d:/LiteOS_Lab/targets/STM32L431VCT6_Bossay/Demos/oc_manhole_cover_template\oc_manhole_cover_template.c ****         }
 221:d:/LiteOS_Lab/targets/STM32L431VCT6_Bossay/Demos/oc_manhole_cover_template\oc_manhole_cover_template.c ****         osal_task_sleep(2*1000);
 703              		.loc 1 221 9
 704 0150 4FF4FA60 		mov	r0, #2000
 705 0154 FFF7FEFF 		bl	osal_task_sleep
 182:d:/LiteOS_Lab/targets/STM32L431VCT6_Bossay/Demos/oc_manhole_cover_template\oc_manhole_cover_template.c ****         printf("\r\n******************************Temperature      is  %d\r\n", (int)E53_SC2_Data.T
 706              		.loc 1 182 9
 707 0158 56E7     		b	.L24
 708              	.L27:
 709 015a 00BF     		.align	2
 710              	.L26:
 711 015c 00000000 		.word	E53_SC2_Data
ARM GAS  C:\Users\ADMINI~1\AppData\Local\Temp\ccdkYN6R.s 			page 18


 712 0160 6C000000 		.word	.LC7
 713 0164 A8000000 		.word	.LC8
 714 0168 E4000000 		.word	.LC9
 715 016c 20010000 		.word	.LC10
 716 0170 00000000 		.word	X
 717 0174 00000000 		.word	Y
 718 0178 00000000 		.word	Z
 719 017c 00040048 		.word	1207960576
 720 0180 00000000 		.word	Manhole_Cover
 721              		.cfi_endproc
 722              	.LFE290:
 724              		.section	.rodata
 725 015a 0000     		.align	2
 726              	.LC11:
 727 015c 6170705F 		.ascii	"app_collect\000"
 727      636F6C6C 
 727      65637400 
 728              		.align	2
 729              	.LC12:
 730 0168 6170705F 		.ascii	"app_report\000"
 730      7265706F 
 730      727400
 731 0173 00       		.align	2
 732              	.LC13:
 733 0174 6C636474 		.ascii	"lcdtimer\000"
 733      696D6572 
 733      00
 734              		.section	.text.standard_app_demo_main,"ax",%progbits
 735              		.align	1
 736              		.global	standard_app_demo_main
 737              		.syntax unified
 738              		.thumb
 739              		.thumb_func
 740              		.fpu fpv4-sp-d16
 742              	standard_app_demo_main:
 743              	.LFB291:
 222:d:/LiteOS_Lab/targets/STM32L431VCT6_Bossay/Demos/oc_manhole_cover_template\oc_manhole_cover_template.c ****     }
 223:d:/LiteOS_Lab/targets/STM32L431VCT6_Bossay/Demos/oc_manhole_cover_template\oc_manhole_cover_template.c ****     return 0;
 224:d:/LiteOS_Lab/targets/STM32L431VCT6_Bossay/Demos/oc_manhole_cover_template\oc_manhole_cover_template.c **** }
 225:d:/LiteOS_Lab/targets/STM32L431VCT6_Bossay/Demos/oc_manhole_cover_template\oc_manhole_cover_template.c **** 
 226:d:/LiteOS_Lab/targets/STM32L431VCT6_Bossay/Demos/oc_manhole_cover_template\oc_manhole_cover_template.c **** 
 227:d:/LiteOS_Lab/targets/STM32L431VCT6_Bossay/Demos/oc_manhole_cover_template\oc_manhole_cover_template.c **** #include <stimer.h>
 228:d:/LiteOS_Lab/targets/STM32L431VCT6_Bossay/Demos/oc_manhole_cover_template\oc_manhole_cover_template.c **** 
 229:d:/LiteOS_Lab/targets/STM32L431VCT6_Bossay/Demos/oc_manhole_cover_template\oc_manhole_cover_template.c **** int standard_app_demo_main()
 230:d:/LiteOS_Lab/targets/STM32L431VCT6_Bossay/Demos/oc_manhole_cover_template\oc_manhole_cover_template.c **** {
 744              		.loc 1 230 1
 745              		.cfi_startproc
 746              		@ args = 0, pretend = 0, frame = 0
 747              		@ frame_needed = 1, uses_anonymous_args = 0
 748 0000 80B5     		push	{r7, lr}
 749              	.LCFI17:
 750              		.cfi_def_cfa_offset 8
 751              		.cfi_offset 7, -8
 752              		.cfi_offset 14, -4
 753 0002 82B0     		sub	sp, sp, #8
 754              	.LCFI18:
 755              		.cfi_def_cfa_offset 16
ARM GAS  C:\Users\ADMINI~1\AppData\Local\Temp\ccdkYN6R.s 			page 19


 756 0004 02AF     		add	r7, sp, #8
 757              	.LCFI19:
 758              		.cfi_def_cfa 7, 8
 231:d:/LiteOS_Lab/targets/STM32L431VCT6_Bossay/Demos/oc_manhole_cover_template\oc_manhole_cover_template.c ****     osal_semp_create(&s_rcv_sync,1,0);
 759              		.loc 1 231 5
 760 0006 0022     		movs	r2, #0
 761 0008 0121     		movs	r1, #1
 762 000a 1348     		ldr	r0, .L30
 763 000c FFF7FEFF 		bl	osal_semp_create
 232:d:/LiteOS_Lab/targets/STM32L431VCT6_Bossay/Demos/oc_manhole_cover_template\oc_manhole_cover_template.c **** 
 233:d:/LiteOS_Lab/targets/STM32L431VCT6_Bossay/Demos/oc_manhole_cover_template\oc_manhole_cover_template.c ****     osal_task_create("app_collect",app_collect_task_entry,NULL,0x400,NULL,3);
 764              		.loc 1 233 5
 765 0010 0323     		movs	r3, #3
 766 0012 0193     		str	r3, [sp, #4]
 767 0014 0023     		movs	r3, #0
 768 0016 0093     		str	r3, [sp]
 769 0018 4FF48063 		mov	r3, #1024
 770 001c 0022     		movs	r2, #0
 771 001e 0F49     		ldr	r1, .L30+4
 772 0020 0F48     		ldr	r0, .L30+8
 773 0022 FFF7FEFF 		bl	osal_task_create
 234:d:/LiteOS_Lab/targets/STM32L431VCT6_Bossay/Demos/oc_manhole_cover_template\oc_manhole_cover_template.c ****     osal_task_create("app_report",app_report_task_entry,NULL,0x1000,NULL,2);
 774              		.loc 1 234 5
 775 0026 0223     		movs	r3, #2
 776 0028 0193     		str	r3, [sp, #4]
 777 002a 0023     		movs	r3, #0
 778 002c 0093     		str	r3, [sp]
 779 002e 4FF48053 		mov	r3, #4096
 780 0032 0022     		movs	r2, #0
 781 0034 0B49     		ldr	r1, .L30+12
 782 0036 0C48     		ldr	r0, .L30+16
 783 0038 FFF7FEFF 		bl	osal_task_create
 235:d:/LiteOS_Lab/targets/STM32L431VCT6_Bossay/Demos/oc_manhole_cover_template\oc_manhole_cover_template.c **** 
 236:d:/LiteOS_Lab/targets/STM32L431VCT6_Bossay/Demos/oc_manhole_cover_template\oc_manhole_cover_template.c ****     stimer_create("lcdtimer",timer1_callback,NULL,8*1000,cn_stimer_flag_start);
 784              		.loc 1 236 5
 785 003c 0223     		movs	r3, #2
 786 003e 0093     		str	r3, [sp]
 787 0040 4FF4FA53 		mov	r3, #8000
 788 0044 0022     		movs	r2, #0
 789 0046 0949     		ldr	r1, .L30+20
 790 0048 0948     		ldr	r0, .L30+24
 791 004a FFF7FEFF 		bl	stimer_create
 237:d:/LiteOS_Lab/targets/STM32L431VCT6_Bossay/Demos/oc_manhole_cover_template\oc_manhole_cover_template.c **** 
 238:d:/LiteOS_Lab/targets/STM32L431VCT6_Bossay/Demos/oc_manhole_cover_template\oc_manhole_cover_template.c ****     return 0;
 792              		.loc 1 238 12
 793 004e 0023     		movs	r3, #0
 239:d:/LiteOS_Lab/targets/STM32L431VCT6_Bossay/Demos/oc_manhole_cover_template\oc_manhole_cover_template.c **** }
 794              		.loc 1 239 1
 795 0050 1846     		mov	r0, r3
 796 0052 BD46     		mov	sp, r7
 797              	.LCFI20:
 798              		.cfi_def_cfa_register 13
 799              		@ sp needed
 800 0054 80BD     		pop	{r7, pc}
 801              	.L31:
 802 0056 00BF     		.align	2
 803              	.L30:
ARM GAS  C:\Users\ADMINI~1\AppData\Local\Temp\ccdkYN6R.s 			page 20


 804 0058 00000000 		.word	s_rcv_sync
 805 005c 00000000 		.word	app_collect_task_entry
 806 0060 5C010000 		.word	.LC11
 807 0064 00000000 		.word	app_report_task_entry
 808 0068 68010000 		.word	.LC12
 809 006c 00000000 		.word	timer1_callback
 810 0070 74010000 		.word	.LC13
 811              		.cfi_endproc
 812              	.LFE291:
 814              		.text
 815              	.Letext0:
 816              		.file 2 "c:\\users\\administrator\\.huawei-liteos-studio\\tools\\arm-none-eabi\\arm-none-eabi\\inc
 817              		.file 3 "c:\\users\\administrator\\.huawei-liteos-studio\\tools\\arm-none-eabi\\arm-none-eabi\\inc
 818              		.file 4 "c:\\users\\administrator\\.huawei-liteos-studio\\tools\\arm-none-eabi\\arm-none-eabi\\inc
 819              		.file 5 "c:\\users\\administrator\\.huawei-liteos-studio\\tools\\arm-none-eabi\\arm-none-eabi\\inc
 820              		.file 6 "c:\\users\\administrator\\.huawei-liteos-studio\\tools\\arm-none-eabi\\lib\\gcc\\arm-none
 821              		.file 7 "c:\\users\\administrator\\.huawei-liteos-studio\\tools\\arm-none-eabi\\arm-none-eabi\\inc
 822              		.file 8 "d:/LiteOS_Lab/iot_link/os/osal/osal_types.h"
 823              		.file 9 "d:/LiteOS_Lab/iot_link/oc/oc_lwm2m/oc_lwm2m_al/oc_lwm2m_al.h"
 824              		.file 10 "d:/LiteOS_Lab/iot_link/os/liteos/include/los_typedef.h"
 825              		.file 11 "d:/LiteOS_Lab/iot_link/os/liteos/arch/arm/common/cmsis/core_cm4.h"
 826              		.file 12 "d:/LiteOS_Lab/targets/STM32L431VCT6_Bossay/Inc/system_stm32l4xx.h"
 827              		.file 13 "d:/LiteOS_Lab/targets/STM32L431VCT6_Bossay/Inc/stm32l431xx.h"
 828              		.file 14 "d:/LiteOS_Lab/iot_link/os/liteos/include/los_config.h"
 829              		.file 15 "d:/LiteOS_Lab/iot_link/os/liteos/include/los_err.h"
 830              		.file 16 "d:/LiteOS_Lab/iot_link/os/liteos/arch/arm/arm-m/include/los_hwi.h"
 831              		.file 17 "d:/LiteOS_Lab/drivers/third_party/ST/STM32L4xx_HAL_Driver/Inc/stm32l4xx_hal_def.h"
 832              		.file 18 "d:/LiteOS_Lab/drivers/third_party/ST/STM32L4xx_HAL_Driver/Inc/stm32l4xx_hal_gpio.h"
 833              		.file 19 "d:/LiteOS_Lab/drivers/third_party/ST/STM32L4xx_HAL_Driver/Inc/stm32l4xx_hal_dma.h"
 834              		.file 20 "d:/LiteOS_Lab/drivers/third_party/ST/STM32L4xx_HAL_Driver/Inc/stm32l4xx_hal_i2c.h"
 835              		.file 21 "d:/LiteOS_Lab/targets/STM32L431VCT6_Bossay/Inc/i2c.h"
 836              		.file 22 "d:/LiteOS_Lab/targets/STM32L431VCT6_Bossay/Hardware/IoTBox/rsrvd_interface/E53_SC2.h"
 837              		.file 23 "d:/LiteOS_Lab/targets/STM32L431VCT6_Bossay/Hardware/LCD/lcd.h"
ARM GAS  C:\Users\ADMINI~1\AppData\Local\Temp\ccdkYN6R.s 			page 21

