GAS LISTING /tmp/ccrqlIgG.s 			page 1


   1              		.file	"paho_mqtt_port.c"
   2              		.text
   3              	.Ltext0:
   4              		.section	.text.MQTTIsConnected,"ax",@progbits
   6              	MQTTIsConnected:
   7              	.LFB6:
   8              		.file 1 "/home/xingli/share/1205tiny/network/mqtt/paho_mqtt/paho/MQTTClient-C/src/MQTTClient.h"
   1:/home/xingli/share/1205tiny/network/mqtt/paho_mqtt/paho/MQTTClient-C/src/MQTTClient.h **** /*******************************************************************************
   2:/home/xingli/share/1205tiny/network/mqtt/paho_mqtt/paho/MQTTClient-C/src/MQTTClient.h ****  * Copyright (c) 2014, 2017 IBM Corp.
   3:/home/xingli/share/1205tiny/network/mqtt/paho_mqtt/paho/MQTTClient-C/src/MQTTClient.h ****  *
   4:/home/xingli/share/1205tiny/network/mqtt/paho_mqtt/paho/MQTTClient-C/src/MQTTClient.h ****  * All rights reserved. This program and the accompanying materials
   5:/home/xingli/share/1205tiny/network/mqtt/paho_mqtt/paho/MQTTClient-C/src/MQTTClient.h ****  * are made available under the terms of the Eclipse Public License v1.0
   6:/home/xingli/share/1205tiny/network/mqtt/paho_mqtt/paho/MQTTClient-C/src/MQTTClient.h ****  * and Eclipse Distribution License v1.0 which accompany this distribution.
   7:/home/xingli/share/1205tiny/network/mqtt/paho_mqtt/paho/MQTTClient-C/src/MQTTClient.h ****  *
   8:/home/xingli/share/1205tiny/network/mqtt/paho_mqtt/paho/MQTTClient-C/src/MQTTClient.h ****  * The Eclipse Public License is available at
   9:/home/xingli/share/1205tiny/network/mqtt/paho_mqtt/paho/MQTTClient-C/src/MQTTClient.h ****  *    http://www.eclipse.org/legal/epl-v10.html
  10:/home/xingli/share/1205tiny/network/mqtt/paho_mqtt/paho/MQTTClient-C/src/MQTTClient.h ****  * and the Eclipse Distribution License is available at
  11:/home/xingli/share/1205tiny/network/mqtt/paho_mqtt/paho/MQTTClient-C/src/MQTTClient.h ****  *   http://www.eclipse.org/org/documents/edl-v10.php.
  12:/home/xingli/share/1205tiny/network/mqtt/paho_mqtt/paho/MQTTClient-C/src/MQTTClient.h ****  *
  13:/home/xingli/share/1205tiny/network/mqtt/paho_mqtt/paho/MQTTClient-C/src/MQTTClient.h ****  * Contributors:
  14:/home/xingli/share/1205tiny/network/mqtt/paho_mqtt/paho/MQTTClient-C/src/MQTTClient.h ****  *    Allan Stockdill-Mander/Ian Craggs - initial API and implementation and/or initial documentati
  15:/home/xingli/share/1205tiny/network/mqtt/paho_mqtt/paho/MQTTClient-C/src/MQTTClient.h ****  *    Ian Craggs - documentation and platform specific header
  16:/home/xingli/share/1205tiny/network/mqtt/paho_mqtt/paho/MQTTClient-C/src/MQTTClient.h ****  *    Ian Craggs - add setMessageHandler function
  17:/home/xingli/share/1205tiny/network/mqtt/paho_mqtt/paho/MQTTClient-C/src/MQTTClient.h ****  *******************************************************************************/
  18:/home/xingli/share/1205tiny/network/mqtt/paho_mqtt/paho/MQTTClient-C/src/MQTTClient.h **** 
  19:/home/xingli/share/1205tiny/network/mqtt/paho_mqtt/paho/MQTTClient-C/src/MQTTClient.h **** #if !defined(__MQTT_CLIENT_C_)
  20:/home/xingli/share/1205tiny/network/mqtt/paho_mqtt/paho/MQTTClient-C/src/MQTTClient.h **** #define __MQTT_CLIENT_C_
  21:/home/xingli/share/1205tiny/network/mqtt/paho_mqtt/paho/MQTTClient-C/src/MQTTClient.h **** 
  22:/home/xingli/share/1205tiny/network/mqtt/paho_mqtt/paho/MQTTClient-C/src/MQTTClient.h **** #if defined(__cplusplus)
  23:/home/xingli/share/1205tiny/network/mqtt/paho_mqtt/paho/MQTTClient-C/src/MQTTClient.h ****  extern "C" {
  24:/home/xingli/share/1205tiny/network/mqtt/paho_mqtt/paho/MQTTClient-C/src/MQTTClient.h **** #endif
  25:/home/xingli/share/1205tiny/network/mqtt/paho_mqtt/paho/MQTTClient-C/src/MQTTClient.h **** 
  26:/home/xingli/share/1205tiny/network/mqtt/paho_mqtt/paho/MQTTClient-C/src/MQTTClient.h **** #if defined(WIN32_DLL) || defined(WIN64_DLL)
  27:/home/xingli/share/1205tiny/network/mqtt/paho_mqtt/paho/MQTTClient-C/src/MQTTClient.h ****   #define DLLImport __declspec(dllimport)
  28:/home/xingli/share/1205tiny/network/mqtt/paho_mqtt/paho/MQTTClient-C/src/MQTTClient.h ****   #define DLLExport __declspec(dllexport)
  29:/home/xingli/share/1205tiny/network/mqtt/paho_mqtt/paho/MQTTClient-C/src/MQTTClient.h **** #elif defined(LINUX_SO)
  30:/home/xingli/share/1205tiny/network/mqtt/paho_mqtt/paho/MQTTClient-C/src/MQTTClient.h ****   #define DLLImport extern
  31:/home/xingli/share/1205tiny/network/mqtt/paho_mqtt/paho/MQTTClient-C/src/MQTTClient.h ****   #define DLLExport  __attribute__ ((visibility ("default")))
  32:/home/xingli/share/1205tiny/network/mqtt/paho_mqtt/paho/MQTTClient-C/src/MQTTClient.h **** #else
  33:/home/xingli/share/1205tiny/network/mqtt/paho_mqtt/paho/MQTTClient-C/src/MQTTClient.h ****   #define DLLImport
  34:/home/xingli/share/1205tiny/network/mqtt/paho_mqtt/paho/MQTTClient-C/src/MQTTClient.h ****   #define DLLExport
  35:/home/xingli/share/1205tiny/network/mqtt/paho_mqtt/paho/MQTTClient-C/src/MQTTClient.h **** #endif
  36:/home/xingli/share/1205tiny/network/mqtt/paho_mqtt/paho/MQTTClient-C/src/MQTTClient.h **** 
  37:/home/xingli/share/1205tiny/network/mqtt/paho_mqtt/paho/MQTTClient-C/src/MQTTClient.h **** #include "MQTTPacket.h"
  38:/home/xingli/share/1205tiny/network/mqtt/paho_mqtt/paho/MQTTClient-C/src/MQTTClient.h **** #include "stdio.h"
  39:/home/xingli/share/1205tiny/network/mqtt/paho_mqtt/paho/MQTTClient-C/src/MQTTClient.h **** 
  40:/home/xingli/share/1205tiny/network/mqtt/paho_mqtt/paho/MQTTClient-C/src/MQTTClient.h **** #if defined(MQTTCLIENT_PLATFORM_HEADER)
  41:/home/xingli/share/1205tiny/network/mqtt/paho_mqtt/paho/MQTTClient-C/src/MQTTClient.h **** /* The following sequence of macros converts the MQTTCLIENT_PLATFORM_HEADER value
  42:/home/xingli/share/1205tiny/network/mqtt/paho_mqtt/paho/MQTTClient-C/src/MQTTClient.h ****  * into a string constant suitable for use with include.
  43:/home/xingli/share/1205tiny/network/mqtt/paho_mqtt/paho/MQTTClient-C/src/MQTTClient.h ****  */
  44:/home/xingli/share/1205tiny/network/mqtt/paho_mqtt/paho/MQTTClient-C/src/MQTTClient.h **** #define xstr(s) str(s)
  45:/home/xingli/share/1205tiny/network/mqtt/paho_mqtt/paho/MQTTClient-C/src/MQTTClient.h **** #define str(s) #s
  46:/home/xingli/share/1205tiny/network/mqtt/paho_mqtt/paho/MQTTClient-C/src/MQTTClient.h **** #include xstr(MQTTCLIENT_PLATFORM_HEADER)
  47:/home/xingli/share/1205tiny/network/mqtt/paho_mqtt/paho/MQTTClient-C/src/MQTTClient.h **** #endif
  48:/home/xingli/share/1205tiny/network/mqtt/paho_mqtt/paho/MQTTClient-C/src/MQTTClient.h **** 
  49:/home/xingli/share/1205tiny/network/mqtt/paho_mqtt/paho/MQTTClient-C/src/MQTTClient.h **** #define MAX_PACKET_ID 65535 /* according to the MQTT specification - do not change! */
  50:/home/xingli/share/1205tiny/network/mqtt/paho_mqtt/paho/MQTTClient-C/src/MQTTClient.h **** 
GAS LISTING /tmp/ccrqlIgG.s 			page 2


  51:/home/xingli/share/1205tiny/network/mqtt/paho_mqtt/paho/MQTTClient-C/src/MQTTClient.h **** #if !defined(MAX_MESSAGE_HANDLERS)
  52:/home/xingli/share/1205tiny/network/mqtt/paho_mqtt/paho/MQTTClient-C/src/MQTTClient.h **** #define MAX_MESSAGE_HANDLERS 10/* redefinable - how many subscriptions do you want? */
  53:/home/xingli/share/1205tiny/network/mqtt/paho_mqtt/paho/MQTTClient-C/src/MQTTClient.h **** #endif
  54:/home/xingli/share/1205tiny/network/mqtt/paho_mqtt/paho/MQTTClient-C/src/MQTTClient.h **** 
  55:/home/xingli/share/1205tiny/network/mqtt/paho_mqtt/paho/MQTTClient-C/src/MQTTClient.h **** enum QoS { QOS0, QOS1, QOS2, SUBFAIL=0x80 };
  56:/home/xingli/share/1205tiny/network/mqtt/paho_mqtt/paho/MQTTClient-C/src/MQTTClient.h **** 
  57:/home/xingli/share/1205tiny/network/mqtt/paho_mqtt/paho/MQTTClient-C/src/MQTTClient.h **** /* all failure return codes must be negative */
  58:/home/xingli/share/1205tiny/network/mqtt/paho_mqtt/paho/MQTTClient-C/src/MQTTClient.h **** enum returnCode { BUFFER_OVERFLOW = -2, FAILURE = -1, MQTT_SUCCESS = 0 };
  59:/home/xingli/share/1205tiny/network/mqtt/paho_mqtt/paho/MQTTClient-C/src/MQTTClient.h **** 
  60:/home/xingli/share/1205tiny/network/mqtt/paho_mqtt/paho/MQTTClient-C/src/MQTTClient.h **** /* The Platform specific header must define the Network and Timer structures and functions
  61:/home/xingli/share/1205tiny/network/mqtt/paho_mqtt/paho/MQTTClient-C/src/MQTTClient.h ****  * which operate on them.
  62:/home/xingli/share/1205tiny/network/mqtt/paho_mqtt/paho/MQTTClient-C/src/MQTTClient.h ****  *
  63:/home/xingli/share/1205tiny/network/mqtt/paho_mqtt/paho/MQTTClient-C/src/MQTTClient.h **** typedef struct Network
  64:/home/xingli/share/1205tiny/network/mqtt/paho_mqtt/paho/MQTTClient-C/src/MQTTClient.h **** {
  65:/home/xingli/share/1205tiny/network/mqtt/paho_mqtt/paho/MQTTClient-C/src/MQTTClient.h **** 	int (*mqttread)(Network*, unsigned char* read_buffer, int, int);
  66:/home/xingli/share/1205tiny/network/mqtt/paho_mqtt/paho/MQTTClient-C/src/MQTTClient.h **** 	int (*mqttwrite)(Network*, unsigned char* send_buffer, int, int);
  67:/home/xingli/share/1205tiny/network/mqtt/paho_mqtt/paho/MQTTClient-C/src/MQTTClient.h **** } Network;*/
  68:/home/xingli/share/1205tiny/network/mqtt/paho_mqtt/paho/MQTTClient-C/src/MQTTClient.h **** 
  69:/home/xingli/share/1205tiny/network/mqtt/paho_mqtt/paho/MQTTClient-C/src/MQTTClient.h **** /* The Timer structure must be defined in the platform specific header,
  70:/home/xingli/share/1205tiny/network/mqtt/paho_mqtt/paho/MQTTClient-C/src/MQTTClient.h ****  * and have the following functions to operate on it.  */
  71:/home/xingli/share/1205tiny/network/mqtt/paho_mqtt/paho/MQTTClient-C/src/MQTTClient.h **** extern void TimerInit(Timer*);
  72:/home/xingli/share/1205tiny/network/mqtt/paho_mqtt/paho/MQTTClient-C/src/MQTTClient.h **** extern char TimerIsExpired(Timer*);
  73:/home/xingli/share/1205tiny/network/mqtt/paho_mqtt/paho/MQTTClient-C/src/MQTTClient.h **** extern void TimerCountdownMS(Timer*, unsigned int);
  74:/home/xingli/share/1205tiny/network/mqtt/paho_mqtt/paho/MQTTClient-C/src/MQTTClient.h **** extern void TimerCountdown(Timer*, unsigned int);
  75:/home/xingli/share/1205tiny/network/mqtt/paho_mqtt/paho/MQTTClient-C/src/MQTTClient.h **** extern int TimerLeftMS(Timer*);
  76:/home/xingli/share/1205tiny/network/mqtt/paho_mqtt/paho/MQTTClient-C/src/MQTTClient.h **** 
  77:/home/xingli/share/1205tiny/network/mqtt/paho_mqtt/paho/MQTTClient-C/src/MQTTClient.h **** typedef struct MQTTMessage
  78:/home/xingli/share/1205tiny/network/mqtt/paho_mqtt/paho/MQTTClient-C/src/MQTTClient.h **** {
  79:/home/xingli/share/1205tiny/network/mqtt/paho_mqtt/paho/MQTTClient-C/src/MQTTClient.h ****     enum QoS qos;
  80:/home/xingli/share/1205tiny/network/mqtt/paho_mqtt/paho/MQTTClient-C/src/MQTTClient.h ****     unsigned char retained;
  81:/home/xingli/share/1205tiny/network/mqtt/paho_mqtt/paho/MQTTClient-C/src/MQTTClient.h ****     unsigned char dup;
  82:/home/xingli/share/1205tiny/network/mqtt/paho_mqtt/paho/MQTTClient-C/src/MQTTClient.h ****     unsigned short id;
  83:/home/xingli/share/1205tiny/network/mqtt/paho_mqtt/paho/MQTTClient-C/src/MQTTClient.h ****     void *payload;
  84:/home/xingli/share/1205tiny/network/mqtt/paho_mqtt/paho/MQTTClient-C/src/MQTTClient.h ****     size_t payloadlen;
  85:/home/xingli/share/1205tiny/network/mqtt/paho_mqtt/paho/MQTTClient-C/src/MQTTClient.h **** } MQTTMessage;
  86:/home/xingli/share/1205tiny/network/mqtt/paho_mqtt/paho/MQTTClient-C/src/MQTTClient.h **** 
  87:/home/xingli/share/1205tiny/network/mqtt/paho_mqtt/paho/MQTTClient-C/src/MQTTClient.h **** typedef struct MessageData
  88:/home/xingli/share/1205tiny/network/mqtt/paho_mqtt/paho/MQTTClient-C/src/MQTTClient.h **** {
  89:/home/xingli/share/1205tiny/network/mqtt/paho_mqtt/paho/MQTTClient-C/src/MQTTClient.h ****     MQTTMessage* message;
  90:/home/xingli/share/1205tiny/network/mqtt/paho_mqtt/paho/MQTTClient-C/src/MQTTClient.h ****     MQTTString* topicName;
  91:/home/xingli/share/1205tiny/network/mqtt/paho_mqtt/paho/MQTTClient-C/src/MQTTClient.h ****     void        *arg;
  92:/home/xingli/share/1205tiny/network/mqtt/paho_mqtt/paho/MQTTClient-C/src/MQTTClient.h **** } MessageData;
  93:/home/xingli/share/1205tiny/network/mqtt/paho_mqtt/paho/MQTTClient-C/src/MQTTClient.h **** 
  94:/home/xingli/share/1205tiny/network/mqtt/paho_mqtt/paho/MQTTClient-C/src/MQTTClient.h **** typedef struct MQTTConnackData
  95:/home/xingli/share/1205tiny/network/mqtt/paho_mqtt/paho/MQTTClient-C/src/MQTTClient.h **** {
  96:/home/xingli/share/1205tiny/network/mqtt/paho_mqtt/paho/MQTTClient-C/src/MQTTClient.h ****     unsigned char rc;
  97:/home/xingli/share/1205tiny/network/mqtt/paho_mqtt/paho/MQTTClient-C/src/MQTTClient.h ****     unsigned char sessionPresent;
  98:/home/xingli/share/1205tiny/network/mqtt/paho_mqtt/paho/MQTTClient-C/src/MQTTClient.h **** } MQTTConnackData;
  99:/home/xingli/share/1205tiny/network/mqtt/paho_mqtt/paho/MQTTClient-C/src/MQTTClient.h **** 
 100:/home/xingli/share/1205tiny/network/mqtt/paho_mqtt/paho/MQTTClient-C/src/MQTTClient.h **** typedef struct MQTTSubackData
 101:/home/xingli/share/1205tiny/network/mqtt/paho_mqtt/paho/MQTTClient-C/src/MQTTClient.h **** {
 102:/home/xingli/share/1205tiny/network/mqtt/paho_mqtt/paho/MQTTClient-C/src/MQTTClient.h ****     enum QoS grantedQoS;
 103:/home/xingli/share/1205tiny/network/mqtt/paho_mqtt/paho/MQTTClient-C/src/MQTTClient.h **** } MQTTSubackData;
 104:/home/xingli/share/1205tiny/network/mqtt/paho_mqtt/paho/MQTTClient-C/src/MQTTClient.h **** 
 105:/home/xingli/share/1205tiny/network/mqtt/paho_mqtt/paho/MQTTClient-C/src/MQTTClient.h **** typedef void (*messageHandler)(MessageData*);
 106:/home/xingli/share/1205tiny/network/mqtt/paho_mqtt/paho/MQTTClient-C/src/MQTTClient.h **** 
 107:/home/xingli/share/1205tiny/network/mqtt/paho_mqtt/paho/MQTTClient-C/src/MQTTClient.h **** typedef struct MQTTClient
GAS LISTING /tmp/ccrqlIgG.s 			page 3


 108:/home/xingli/share/1205tiny/network/mqtt/paho_mqtt/paho/MQTTClient-C/src/MQTTClient.h **** {
 109:/home/xingli/share/1205tiny/network/mqtt/paho_mqtt/paho/MQTTClient-C/src/MQTTClient.h ****     unsigned int next_packetid,
 110:/home/xingli/share/1205tiny/network/mqtt/paho_mqtt/paho/MQTTClient-C/src/MQTTClient.h ****       command_timeout_ms;
 111:/home/xingli/share/1205tiny/network/mqtt/paho_mqtt/paho/MQTTClient-C/src/MQTTClient.h ****     size_t buf_size,
 112:/home/xingli/share/1205tiny/network/mqtt/paho_mqtt/paho/MQTTClient-C/src/MQTTClient.h ****       readbuf_size;
 113:/home/xingli/share/1205tiny/network/mqtt/paho_mqtt/paho/MQTTClient-C/src/MQTTClient.h ****     unsigned char *buf,
 114:/home/xingli/share/1205tiny/network/mqtt/paho_mqtt/paho/MQTTClient-C/src/MQTTClient.h ****       *readbuf;
 115:/home/xingli/share/1205tiny/network/mqtt/paho_mqtt/paho/MQTTClient-C/src/MQTTClient.h ****     unsigned int keepAliveInterval;
 116:/home/xingli/share/1205tiny/network/mqtt/paho_mqtt/paho/MQTTClient-C/src/MQTTClient.h ****     char ping_outstanding;
 117:/home/xingli/share/1205tiny/network/mqtt/paho_mqtt/paho/MQTTClient-C/src/MQTTClient.h ****     int isconnected;
 118:/home/xingli/share/1205tiny/network/mqtt/paho_mqtt/paho/MQTTClient-C/src/MQTTClient.h ****     int cleansession;
 119:/home/xingli/share/1205tiny/network/mqtt/paho_mqtt/paho/MQTTClient-C/src/MQTTClient.h **** 
 120:/home/xingli/share/1205tiny/network/mqtt/paho_mqtt/paho/MQTTClient-C/src/MQTTClient.h ****     struct MessageHandlers
 121:/home/xingli/share/1205tiny/network/mqtt/paho_mqtt/paho/MQTTClient-C/src/MQTTClient.h ****     {
 122:/home/xingli/share/1205tiny/network/mqtt/paho_mqtt/paho/MQTTClient-C/src/MQTTClient.h ****         const char* topicFilter;
 123:/home/xingli/share/1205tiny/network/mqtt/paho_mqtt/paho/MQTTClient-C/src/MQTTClient.h ****         void (*fp) (MessageData*);
 124:/home/xingli/share/1205tiny/network/mqtt/paho_mqtt/paho/MQTTClient-C/src/MQTTClient.h ****         void  *arg;
 125:/home/xingli/share/1205tiny/network/mqtt/paho_mqtt/paho/MQTTClient-C/src/MQTTClient.h ****     } messageHandlers[MAX_MESSAGE_HANDLERS];      /* Message handlers are indexed by subscription t
 126:/home/xingli/share/1205tiny/network/mqtt/paho_mqtt/paho/MQTTClient-C/src/MQTTClient.h **** 
 127:/home/xingli/share/1205tiny/network/mqtt/paho_mqtt/paho/MQTTClient-C/src/MQTTClient.h ****     void (*defaultMessageHandler) (MessageData*);
 128:/home/xingli/share/1205tiny/network/mqtt/paho_mqtt/paho/MQTTClient-C/src/MQTTClient.h **** 
 129:/home/xingli/share/1205tiny/network/mqtt/paho_mqtt/paho/MQTTClient-C/src/MQTTClient.h ****     Network* ipstack;
 130:/home/xingli/share/1205tiny/network/mqtt/paho_mqtt/paho/MQTTClient-C/src/MQTTClient.h ****     Timer last_sent, last_received;
 131:/home/xingli/share/1205tiny/network/mqtt/paho_mqtt/paho/MQTTClient-C/src/MQTTClient.h **** #if defined(MQTT_TASK)
 132:/home/xingli/share/1205tiny/network/mqtt/paho_mqtt/paho/MQTTClient-C/src/MQTTClient.h ****     Mutex mutex;
 133:/home/xingli/share/1205tiny/network/mqtt/paho_mqtt/paho/MQTTClient-C/src/MQTTClient.h ****     Thread thread;
 134:/home/xingli/share/1205tiny/network/mqtt/paho_mqtt/paho/MQTTClient-C/src/MQTTClient.h **** #endif
 135:/home/xingli/share/1205tiny/network/mqtt/paho_mqtt/paho/MQTTClient-C/src/MQTTClient.h **** } MQTTClient;
 136:/home/xingli/share/1205tiny/network/mqtt/paho_mqtt/paho/MQTTClient-C/src/MQTTClient.h **** 
 137:/home/xingli/share/1205tiny/network/mqtt/paho_mqtt/paho/MQTTClient-C/src/MQTTClient.h **** #define DefaultClient {0, 0, 0, 0, NULL, NULL, 0, 0, 0}
 138:/home/xingli/share/1205tiny/network/mqtt/paho_mqtt/paho/MQTTClient-C/src/MQTTClient.h **** 
 139:/home/xingli/share/1205tiny/network/mqtt/paho_mqtt/paho/MQTTClient-C/src/MQTTClient.h **** 
 140:/home/xingli/share/1205tiny/network/mqtt/paho_mqtt/paho/MQTTClient-C/src/MQTTClient.h **** /**
 141:/home/xingli/share/1205tiny/network/mqtt/paho_mqtt/paho/MQTTClient-C/src/MQTTClient.h ****  * Create an MQTT client object
 142:/home/xingli/share/1205tiny/network/mqtt/paho_mqtt/paho/MQTTClient-C/src/MQTTClient.h ****  * @param client
 143:/home/xingli/share/1205tiny/network/mqtt/paho_mqtt/paho/MQTTClient-C/src/MQTTClient.h ****  * @param network
 144:/home/xingli/share/1205tiny/network/mqtt/paho_mqtt/paho/MQTTClient-C/src/MQTTClient.h ****  * @param command_timeout_ms
 145:/home/xingli/share/1205tiny/network/mqtt/paho_mqtt/paho/MQTTClient-C/src/MQTTClient.h ****  * @param
 146:/home/xingli/share/1205tiny/network/mqtt/paho_mqtt/paho/MQTTClient-C/src/MQTTClient.h ****  */
 147:/home/xingli/share/1205tiny/network/mqtt/paho_mqtt/paho/MQTTClient-C/src/MQTTClient.h **** DLLExport int MQTTClientInit(MQTTClient* client, Network* network, unsigned int command_timeout_ms,
 148:/home/xingli/share/1205tiny/network/mqtt/paho_mqtt/paho/MQTTClient-C/src/MQTTClient.h **** 		unsigned char* sendbuf, size_t sendbuf_size, unsigned char* readbuf, size_t readbuf_size);
 149:/home/xingli/share/1205tiny/network/mqtt/paho_mqtt/paho/MQTTClient-C/src/MQTTClient.h **** DLLExport void MQTTClientDeInit(MQTTClient* c);
 150:/home/xingli/share/1205tiny/network/mqtt/paho_mqtt/paho/MQTTClient-C/src/MQTTClient.h **** 
 151:/home/xingli/share/1205tiny/network/mqtt/paho_mqtt/paho/MQTTClient-C/src/MQTTClient.h **** /** MQTT Connect - send an MQTT connect packet down the network and wait for a Connack
 152:/home/xingli/share/1205tiny/network/mqtt/paho_mqtt/paho/MQTTClient-C/src/MQTTClient.h ****  *  The nework object must be connected to the network endpoint before calling this
 153:/home/xingli/share/1205tiny/network/mqtt/paho_mqtt/paho/MQTTClient-C/src/MQTTClient.h ****  *  @param options - connect options
 154:/home/xingli/share/1205tiny/network/mqtt/paho_mqtt/paho/MQTTClient-C/src/MQTTClient.h ****  *  @return success code
 155:/home/xingli/share/1205tiny/network/mqtt/paho_mqtt/paho/MQTTClient-C/src/MQTTClient.h ****  */
 156:/home/xingli/share/1205tiny/network/mqtt/paho_mqtt/paho/MQTTClient-C/src/MQTTClient.h **** DLLExport int MQTTConnectWithResults(MQTTClient* client, MQTTPacket_connectData* options,
 157:/home/xingli/share/1205tiny/network/mqtt/paho_mqtt/paho/MQTTClient-C/src/MQTTClient.h ****     MQTTConnackData* data);
 158:/home/xingli/share/1205tiny/network/mqtt/paho_mqtt/paho/MQTTClient-C/src/MQTTClient.h **** 
 159:/home/xingli/share/1205tiny/network/mqtt/paho_mqtt/paho/MQTTClient-C/src/MQTTClient.h **** /** MQTT Connect - send an MQTT connect packet down the network and wait for a Connack
 160:/home/xingli/share/1205tiny/network/mqtt/paho_mqtt/paho/MQTTClient-C/src/MQTTClient.h ****  *  The nework object must be connected to the network endpoint before calling this
 161:/home/xingli/share/1205tiny/network/mqtt/paho_mqtt/paho/MQTTClient-C/src/MQTTClient.h ****  *  @param options - connect options
 162:/home/xingli/share/1205tiny/network/mqtt/paho_mqtt/paho/MQTTClient-C/src/MQTTClient.h ****  *  @return success code
 163:/home/xingli/share/1205tiny/network/mqtt/paho_mqtt/paho/MQTTClient-C/src/MQTTClient.h ****  */
 164:/home/xingli/share/1205tiny/network/mqtt/paho_mqtt/paho/MQTTClient-C/src/MQTTClient.h **** DLLExport int MQTTConnect(MQTTClient* client, MQTTPacket_connectData* options);
GAS LISTING /tmp/ccrqlIgG.s 			page 4


 165:/home/xingli/share/1205tiny/network/mqtt/paho_mqtt/paho/MQTTClient-C/src/MQTTClient.h **** 
 166:/home/xingli/share/1205tiny/network/mqtt/paho_mqtt/paho/MQTTClient-C/src/MQTTClient.h **** /** MQTT Publish - send an MQTT publish packet and wait for all acks to complete for all QoSs
 167:/home/xingli/share/1205tiny/network/mqtt/paho_mqtt/paho/MQTTClient-C/src/MQTTClient.h ****  *  @param client - the client object to use
 168:/home/xingli/share/1205tiny/network/mqtt/paho_mqtt/paho/MQTTClient-C/src/MQTTClient.h ****  *  @param topic - the topic to publish to
 169:/home/xingli/share/1205tiny/network/mqtt/paho_mqtt/paho/MQTTClient-C/src/MQTTClient.h ****  *  @param message - the message to send
 170:/home/xingli/share/1205tiny/network/mqtt/paho_mqtt/paho/MQTTClient-C/src/MQTTClient.h ****  *  @return success code
 171:/home/xingli/share/1205tiny/network/mqtt/paho_mqtt/paho/MQTTClient-C/src/MQTTClient.h ****  */
 172:/home/xingli/share/1205tiny/network/mqtt/paho_mqtt/paho/MQTTClient-C/src/MQTTClient.h **** DLLExport int MQTTPublish(MQTTClient* client, const char*, MQTTMessage*);
 173:/home/xingli/share/1205tiny/network/mqtt/paho_mqtt/paho/MQTTClient-C/src/MQTTClient.h **** 
 174:/home/xingli/share/1205tiny/network/mqtt/paho_mqtt/paho/MQTTClient-C/src/MQTTClient.h **** /** MQTT SetMessageHandler - set or remove a per topic message handler
 175:/home/xingli/share/1205tiny/network/mqtt/paho_mqtt/paho/MQTTClient-C/src/MQTTClient.h ****  *  @param client - the client object to use
 176:/home/xingli/share/1205tiny/network/mqtt/paho_mqtt/paho/MQTTClient-C/src/MQTTClient.h ****  *  @param topicFilter - the topic filter set the message handler for
 177:/home/xingli/share/1205tiny/network/mqtt/paho_mqtt/paho/MQTTClient-C/src/MQTTClient.h ****  *  @param messageHandler - pointer to the message handler function or NULL to remove
 178:/home/xingli/share/1205tiny/network/mqtt/paho_mqtt/paho/MQTTClient-C/src/MQTTClient.h ****  *  @return success code
 179:/home/xingli/share/1205tiny/network/mqtt/paho_mqtt/paho/MQTTClient-C/src/MQTTClient.h ****  */
 180:/home/xingli/share/1205tiny/network/mqtt/paho_mqtt/paho/MQTTClient-C/src/MQTTClient.h **** DLLExport int MQTTSetMessageHandler(MQTTClient* c, const char* topicFilter, messageHandler messageH
 181:/home/xingli/share/1205tiny/network/mqtt/paho_mqtt/paho/MQTTClient-C/src/MQTTClient.h **** 
 182:/home/xingli/share/1205tiny/network/mqtt/paho_mqtt/paho/MQTTClient-C/src/MQTTClient.h **** /** MQTT Subscribe - send an MQTT subscribe packet and wait for suback before returning.
 183:/home/xingli/share/1205tiny/network/mqtt/paho_mqtt/paho/MQTTClient-C/src/MQTTClient.h ****  *  @param client - the client object to use
 184:/home/xingli/share/1205tiny/network/mqtt/paho_mqtt/paho/MQTTClient-C/src/MQTTClient.h ****  *  @param topicFilter - the topic filter to subscribe to
 185:/home/xingli/share/1205tiny/network/mqtt/paho_mqtt/paho/MQTTClient-C/src/MQTTClient.h ****  *  @param message - the message to send
 186:/home/xingli/share/1205tiny/network/mqtt/paho_mqtt/paho/MQTTClient-C/src/MQTTClient.h ****  *  @return success code
 187:/home/xingli/share/1205tiny/network/mqtt/paho_mqtt/paho/MQTTClient-C/src/MQTTClient.h ****  */
 188:/home/xingli/share/1205tiny/network/mqtt/paho_mqtt/paho/MQTTClient-C/src/MQTTClient.h **** DLLExport int MQTTSubscribe(MQTTClient* client, const char* topicFilter, enum QoS, messageHandler);
 189:/home/xingli/share/1205tiny/network/mqtt/paho_mqtt/paho/MQTTClient-C/src/MQTTClient.h **** 
 190:/home/xingli/share/1205tiny/network/mqtt/paho_mqtt/paho/MQTTClient-C/src/MQTTClient.h **** /** MQTT Subscribe - send an MQTT subscribe packet and wait for suback before returning.
 191:/home/xingli/share/1205tiny/network/mqtt/paho_mqtt/paho/MQTTClient-C/src/MQTTClient.h ****  *  @param client - the client object to use
 192:/home/xingli/share/1205tiny/network/mqtt/paho_mqtt/paho/MQTTClient-C/src/MQTTClient.h ****  *  @param topicFilter - the topic filter to subscribe to
 193:/home/xingli/share/1205tiny/network/mqtt/paho_mqtt/paho/MQTTClient-C/src/MQTTClient.h ****  *  @param message - the message to send
 194:/home/xingli/share/1205tiny/network/mqtt/paho_mqtt/paho/MQTTClient-C/src/MQTTClient.h ****  *  @param data - suback granted QoS returned
 195:/home/xingli/share/1205tiny/network/mqtt/paho_mqtt/paho/MQTTClient-C/src/MQTTClient.h ****  *  @return success code
 196:/home/xingli/share/1205tiny/network/mqtt/paho_mqtt/paho/MQTTClient-C/src/MQTTClient.h ****  */
 197:/home/xingli/share/1205tiny/network/mqtt/paho_mqtt/paho/MQTTClient-C/src/MQTTClient.h **** DLLExport int MQTTSubscribeWithResults(MQTTClient* client, const char* topicFilter, enum QoS, messa
 198:/home/xingli/share/1205tiny/network/mqtt/paho_mqtt/paho/MQTTClient-C/src/MQTTClient.h **** 
 199:/home/xingli/share/1205tiny/network/mqtt/paho_mqtt/paho/MQTTClient-C/src/MQTTClient.h **** /** MQTT Subscribe - send an MQTT subscribe packet and wait for suback before returning.
 200:/home/xingli/share/1205tiny/network/mqtt/paho_mqtt/paho/MQTTClient-C/src/MQTTClient.h ****  *  @param client - the client object to use
 201:/home/xingli/share/1205tiny/network/mqtt/paho_mqtt/paho/MQTTClient-C/src/MQTTClient.h ****  *  @param topicFilter - the topic filter to subscribe to
 202:/home/xingli/share/1205tiny/network/mqtt/paho_mqtt/paho/MQTTClient-C/src/MQTTClient.h ****  *  @param message - the message to send
 203:/home/xingli/share/1205tiny/network/mqtt/paho_mqtt/paho/MQTTClient-C/src/MQTTClient.h ****  *  @param data - suback granted QoS returned
 204:/home/xingli/share/1205tiny/network/mqtt/paho_mqtt/paho/MQTTClient-C/src/MQTTClient.h ****  *  @param arg  - which used for the messageHandler
 205:/home/xingli/share/1205tiny/network/mqtt/paho_mqtt/paho/MQTTClient-C/src/MQTTClient.h ****  *  @return success code
 206:/home/xingli/share/1205tiny/network/mqtt/paho_mqtt/paho/MQTTClient-C/src/MQTTClient.h ****  */
 207:/home/xingli/share/1205tiny/network/mqtt/paho_mqtt/paho/MQTTClient-C/src/MQTTClient.h **** DLLExport int MQTTSubscribeWithResultsArgs(MQTTClient* client, const char* topicFilter, enum QoS, m
 208:/home/xingli/share/1205tiny/network/mqtt/paho_mqtt/paho/MQTTClient-C/src/MQTTClient.h **** 
 209:/home/xingli/share/1205tiny/network/mqtt/paho_mqtt/paho/MQTTClient-C/src/MQTTClient.h **** 
 210:/home/xingli/share/1205tiny/network/mqtt/paho_mqtt/paho/MQTTClient-C/src/MQTTClient.h **** /** MQTT Subscribe - send an MQTT unsubscribe packet and wait for unsuback before returning.
 211:/home/xingli/share/1205tiny/network/mqtt/paho_mqtt/paho/MQTTClient-C/src/MQTTClient.h ****  *  @param client - the client object to use
 212:/home/xingli/share/1205tiny/network/mqtt/paho_mqtt/paho/MQTTClient-C/src/MQTTClient.h ****  *  @param topicFilter - the topic filter to unsubscribe from
 213:/home/xingli/share/1205tiny/network/mqtt/paho_mqtt/paho/MQTTClient-C/src/MQTTClient.h ****  *  @return success code
 214:/home/xingli/share/1205tiny/network/mqtt/paho_mqtt/paho/MQTTClient-C/src/MQTTClient.h ****  */
 215:/home/xingli/share/1205tiny/network/mqtt/paho_mqtt/paho/MQTTClient-C/src/MQTTClient.h **** DLLExport int MQTTUnsubscribe(MQTTClient* client, const char* topicFilter);
 216:/home/xingli/share/1205tiny/network/mqtt/paho_mqtt/paho/MQTTClient-C/src/MQTTClient.h **** 
 217:/home/xingli/share/1205tiny/network/mqtt/paho_mqtt/paho/MQTTClient-C/src/MQTTClient.h **** /** MQTT Disconnect - send an MQTT disconnect packet and close the connection
 218:/home/xingli/share/1205tiny/network/mqtt/paho_mqtt/paho/MQTTClient-C/src/MQTTClient.h ****  *  @param client - the client object to use
 219:/home/xingli/share/1205tiny/network/mqtt/paho_mqtt/paho/MQTTClient-C/src/MQTTClient.h ****  *  @return success code
 220:/home/xingli/share/1205tiny/network/mqtt/paho_mqtt/paho/MQTTClient-C/src/MQTTClient.h ****  */
 221:/home/xingli/share/1205tiny/network/mqtt/paho_mqtt/paho/MQTTClient-C/src/MQTTClient.h **** DLLExport int MQTTDisconnect(MQTTClient* client);
GAS LISTING /tmp/ccrqlIgG.s 			page 5


 222:/home/xingli/share/1205tiny/network/mqtt/paho_mqtt/paho/MQTTClient-C/src/MQTTClient.h **** 
 223:/home/xingli/share/1205tiny/network/mqtt/paho_mqtt/paho/MQTTClient-C/src/MQTTClient.h **** /** MQTT Yield - MQTT background
 224:/home/xingli/share/1205tiny/network/mqtt/paho_mqtt/paho/MQTTClient-C/src/MQTTClient.h ****  *  @param client - the client object to use
 225:/home/xingli/share/1205tiny/network/mqtt/paho_mqtt/paho/MQTTClient-C/src/MQTTClient.h ****  *  @param time - the time, in milliseconds, to yield for
 226:/home/xingli/share/1205tiny/network/mqtt/paho_mqtt/paho/MQTTClient-C/src/MQTTClient.h ****  *  @return success code
 227:/home/xingli/share/1205tiny/network/mqtt/paho_mqtt/paho/MQTTClient-C/src/MQTTClient.h ****  */
 228:/home/xingli/share/1205tiny/network/mqtt/paho_mqtt/paho/MQTTClient-C/src/MQTTClient.h **** DLLExport int MQTTYield(MQTTClient* client, int time);
 229:/home/xingli/share/1205tiny/network/mqtt/paho_mqtt/paho/MQTTClient-C/src/MQTTClient.h **** 
 230:/home/xingli/share/1205tiny/network/mqtt/paho_mqtt/paho/MQTTClient-C/src/MQTTClient.h **** /** MQTT isConnected
 231:/home/xingli/share/1205tiny/network/mqtt/paho_mqtt/paho/MQTTClient-C/src/MQTTClient.h ****  *  @param client - the client object to use
 232:/home/xingli/share/1205tiny/network/mqtt/paho_mqtt/paho/MQTTClient-C/src/MQTTClient.h ****  *  @return truth value indicating whether the client is connected to the server
 233:/home/xingli/share/1205tiny/network/mqtt/paho_mqtt/paho/MQTTClient-C/src/MQTTClient.h ****  */
 234:/home/xingli/share/1205tiny/network/mqtt/paho_mqtt/paho/MQTTClient-C/src/MQTTClient.h **** static inline DLLExport int MQTTIsConnected(MQTTClient* client)
 235:/home/xingli/share/1205tiny/network/mqtt/paho_mqtt/paho/MQTTClient-C/src/MQTTClient.h **** {
   9              		.loc 1 235 1
  10              		.cfi_startproc
  11 0000 55       		pushq	%rbp
  12              	.LCFI0:
  13              		.cfi_def_cfa_offset 16
  14              		.cfi_offset 6, -16
  15 0001 4889E5   		movq	%rsp, %rbp
  16              	.LCFI1:
  17              		.cfi_def_cfa_register 6
  18 0004 4883EC20 		subq	$32, %rsp
  19 0008 48897DE8 		movq	%rdi, -24(%rbp)
  20              		.loc 1 235 1
  21 000c 64488B04 		movq	%fs:40, %rax
  21      25280000 
  21      00
  22 0015 488945F8 		movq	%rax, -8(%rbp)
  23 0019 31C0     		xorl	%eax, %eax
 236:/home/xingli/share/1205tiny/network/mqtt/paho_mqtt/paho/MQTTClient-C/src/MQTTClient.h ****   return client->isconnected;
  24              		.loc 1 236 16
  25 001b 488B45E8 		movq	-24(%rbp), %rax
  26 001f 8B4030   		movl	48(%rax), %eax
 237:/home/xingli/share/1205tiny/network/mqtt/paho_mqtt/paho/MQTTClient-C/src/MQTTClient.h **** }
  27              		.loc 1 237 1
  28 0022 488B55F8 		movq	-8(%rbp), %rdx
  29 0026 64483314 		xorq	%fs:40, %rdx
  29      25280000 
  29      00
  30 002f 7405     		je	.L3
  31 0031 E8000000 		call	__stack_chk_fail@PLT
  31      00
  32              	.L3:
  33 0036 C9       		leave
  34              	.LCFI2:
  35              		.cfi_def_cfa 7, 8
  36 0037 C3       		ret
  37              		.cfi_endproc
  38              	.LFE6:
  40              		.section	.text.__tls_read,"ax",@progbits
  42              	__tls_read:
  43              	.LFB7:
  44              		.file 2 "/home/xingli/share/1205tiny/network/mqtt/paho_mqtt/port/paho_mqtt_port.c"
   1:/home/xingli/share/1205tiny/network/mqtt/paho_mqtt/port/paho_mqtt_port.c **** /*----------------------------------------------------------------------------
   2:/home/xingli/share/1205tiny/network/mqtt/paho_mqtt/port/paho_mqtt_port.c ****  * Copyright (c) <2016-2018>, <Huawei Technologies Co., Ltd>
GAS LISTING /tmp/ccrqlIgG.s 			page 6


   3:/home/xingli/share/1205tiny/network/mqtt/paho_mqtt/port/paho_mqtt_port.c ****  * All rights reserved.
   4:/home/xingli/share/1205tiny/network/mqtt/paho_mqtt/port/paho_mqtt_port.c ****  * Redistribution and use in source and binary forms, with or without modification,
   5:/home/xingli/share/1205tiny/network/mqtt/paho_mqtt/port/paho_mqtt_port.c ****  * are permitted provided that the following conditions are met:
   6:/home/xingli/share/1205tiny/network/mqtt/paho_mqtt/port/paho_mqtt_port.c ****  * 1. Redistributions of source code must retain the above copyright notice, this list of
   7:/home/xingli/share/1205tiny/network/mqtt/paho_mqtt/port/paho_mqtt_port.c ****  * conditions and the following disclaimer.
   8:/home/xingli/share/1205tiny/network/mqtt/paho_mqtt/port/paho_mqtt_port.c ****  * 2. Redistributions in binary form must reproduce the above copyright notice, this list
   9:/home/xingli/share/1205tiny/network/mqtt/paho_mqtt/port/paho_mqtt_port.c ****  * of conditions and the following disclaimer in the documentation and/or other materials
  10:/home/xingli/share/1205tiny/network/mqtt/paho_mqtt/port/paho_mqtt_port.c ****  * provided with the distribution.
  11:/home/xingli/share/1205tiny/network/mqtt/paho_mqtt/port/paho_mqtt_port.c ****  * 3. Neither the name of the copyright holder nor the names of its contributors may be used
  12:/home/xingli/share/1205tiny/network/mqtt/paho_mqtt/port/paho_mqtt_port.c ****  * to endorse or promote products derived from this software without specific prior written
  13:/home/xingli/share/1205tiny/network/mqtt/paho_mqtt/port/paho_mqtt_port.c ****  * permission.
  14:/home/xingli/share/1205tiny/network/mqtt/paho_mqtt/port/paho_mqtt_port.c ****  * THIS SOFTWARE IS PROVIDED BY THE COPYRIGHT HOLDERS AND CONTRIBUTORS
  15:/home/xingli/share/1205tiny/network/mqtt/paho_mqtt/port/paho_mqtt_port.c ****  * "AS IS" AND ANY EXPRESS OR IMPLIED WARRANTIES, INCLUDING, BUT NOT LIMITED TO,
  16:/home/xingli/share/1205tiny/network/mqtt/paho_mqtt/port/paho_mqtt_port.c ****  * THE IMPLIED WARRANTIES OF MERCHANTABILITY AND FITNESS FOR A PARTICULAR
  17:/home/xingli/share/1205tiny/network/mqtt/paho_mqtt/port/paho_mqtt_port.c ****  * PURPOSE ARE DISCLAIMED. IN NO EVENT SHALL THE COPYRIGHT HOLDER OR
  18:/home/xingli/share/1205tiny/network/mqtt/paho_mqtt/port/paho_mqtt_port.c ****  * CONTRIBUTORS BE LIABLE FOR ANY DIRECT, INDIRECT, INCIDENTAL, SPECIAL,
  19:/home/xingli/share/1205tiny/network/mqtt/paho_mqtt/port/paho_mqtt_port.c ****  * EXEMPLARY, OR CONSEQUENTIAL DAMAGES (INCLUDING, BUT NOT LIMITED TO,
  20:/home/xingli/share/1205tiny/network/mqtt/paho_mqtt/port/paho_mqtt_port.c ****  * PROCUREMENT OF SUBSTITUTE GOODS OR SERVICES; LOSS OF USE, DATA, OR PROFITS;
  21:/home/xingli/share/1205tiny/network/mqtt/paho_mqtt/port/paho_mqtt_port.c ****  * OR BUSINESS INTERRUPTION) HOWEVER CAUSED AND ON ANY THEORY OF LIABILITY,
  22:/home/xingli/share/1205tiny/network/mqtt/paho_mqtt/port/paho_mqtt_port.c ****  * WHETHER IN CONTRACT, STRICT LIABILITY, OR TORT (INCLUDING NEGLIGENCE OR
  23:/home/xingli/share/1205tiny/network/mqtt/paho_mqtt/port/paho_mqtt_port.c ****  * OTHERWISE) ARISING IN ANY WAY OUT OF THE USE OF THIS SOFTWARE, EVEN IF
  24:/home/xingli/share/1205tiny/network/mqtt/paho_mqtt/port/paho_mqtt_port.c ****  * ADVISED OF THE POSSIBILITY OF SUCH DAMAGE.
  25:/home/xingli/share/1205tiny/network/mqtt/paho_mqtt/port/paho_mqtt_port.c ****  *---------------------------------------------------------------------------*/
  26:/home/xingli/share/1205tiny/network/mqtt/paho_mqtt/port/paho_mqtt_port.c **** /*----------------------------------------------------------------------------
  27:/home/xingli/share/1205tiny/network/mqtt/paho_mqtt/port/paho_mqtt_port.c ****  * Notice of Export Control Law
  28:/home/xingli/share/1205tiny/network/mqtt/paho_mqtt/port/paho_mqtt_port.c ****  * ===============================================
  29:/home/xingli/share/1205tiny/network/mqtt/paho_mqtt/port/paho_mqtt_port.c ****  * Huawei LiteOS may be subject to applicable export control laws and regulations, which might
  30:/home/xingli/share/1205tiny/network/mqtt/paho_mqtt/port/paho_mqtt_port.c ****  * include those applicable to Huawei LiteOS of U.S. and the country in which you are located.
  31:/home/xingli/share/1205tiny/network/mqtt/paho_mqtt/port/paho_mqtt_port.c ****  * Import, export and usage of Huawei LiteOS in any manner by you shall be in compliance with such
  32:/home/xingli/share/1205tiny/network/mqtt/paho_mqtt/port/paho_mqtt_port.c ****  * applicable export control laws and regulations.
  33:/home/xingli/share/1205tiny/network/mqtt/paho_mqtt/port/paho_mqtt_port.c ****  *---------------------------------------------------------------------------*/
  34:/home/xingli/share/1205tiny/network/mqtt/paho_mqtt/port/paho_mqtt_port.c **** #include "MQTTClient.h"
  35:/home/xingli/share/1205tiny/network/mqtt/paho_mqtt/port/paho_mqtt_port.c **** 
  36:/home/xingli/share/1205tiny/network/mqtt/paho_mqtt/port/paho_mqtt_port.c **** #include <time.h>
  37:/home/xingli/share/1205tiny/network/mqtt/paho_mqtt/port/paho_mqtt_port.c **** #include <sal.h>
  38:/home/xingli/share/1205tiny/network/mqtt/paho_mqtt/port/paho_mqtt_port.c **** #include <mqtt_al.h>
  39:/home/xingli/share/1205tiny/network/mqtt/paho_mqtt/port/paho_mqtt_port.c **** #include <paho_mqtt_port.h>
  40:/home/xingli/share/1205tiny/network/mqtt/paho_mqtt/port/paho_mqtt_port.c **** #include <iot_config.h>
  41:/home/xingli/share/1205tiny/network/mqtt/paho_mqtt/port/paho_mqtt_port.c **** 
  42:/home/xingli/share/1205tiny/network/mqtt/paho_mqtt/port/paho_mqtt_port.c **** 
  43:/home/xingli/share/1205tiny/network/mqtt/paho_mqtt/port/paho_mqtt_port.c **** #ifndef CONFIG_PAHO_CONNECT_TIMEOUT
  44:/home/xingli/share/1205tiny/network/mqtt/paho_mqtt/port/paho_mqtt_port.c **** #define CONFIG_PAHO_CONNECT_TIMEOUT  (10 *1000)
  45:/home/xingli/share/1205tiny/network/mqtt/paho_mqtt/port/paho_mqtt_port.c **** #endif
  46:/home/xingli/share/1205tiny/network/mqtt/paho_mqtt/port/paho_mqtt_port.c **** 
  47:/home/xingli/share/1205tiny/network/mqtt/paho_mqtt/port/paho_mqtt_port.c **** #ifndef CONFIG_PAHO_CMD_TIMEOUT
  48:/home/xingli/share/1205tiny/network/mqtt/paho_mqtt/port/paho_mqtt_port.c **** #define CONFIG_PAHO_CMD_TIMEOUT      (10 * 1000)
  49:/home/xingli/share/1205tiny/network/mqtt/paho_mqtt/port/paho_mqtt_port.c **** #endif
  50:/home/xingli/share/1205tiny/network/mqtt/paho_mqtt/port/paho_mqtt_port.c **** 
  51:/home/xingli/share/1205tiny/network/mqtt/paho_mqtt/port/paho_mqtt_port.c **** 
  52:/home/xingli/share/1205tiny/network/mqtt/paho_mqtt/port/paho_mqtt_port.c **** #ifndef CONFIG_PAHO_LOOPTIMEOUT
  53:/home/xingli/share/1205tiny/network/mqtt/paho_mqtt/port/paho_mqtt_port.c **** #define CONFIG_PAHO_LOOPTIMEOUT     (10)
  54:/home/xingli/share/1205tiny/network/mqtt/paho_mqtt/port/paho_mqtt_port.c **** #endif
  55:/home/xingli/share/1205tiny/network/mqtt/paho_mqtt/port/paho_mqtt_port.c **** 
  56:/home/xingli/share/1205tiny/network/mqtt/paho_mqtt/port/paho_mqtt_port.c **** 
  57:/home/xingli/share/1205tiny/network/mqtt/paho_mqtt/port/paho_mqtt_port.c **** #ifndef CONFIG_PAHO_SNDBUF_SIZE
  58:/home/xingli/share/1205tiny/network/mqtt/paho_mqtt/port/paho_mqtt_port.c **** #define CONFIG_PAHO_SNDBUF_SIZE     (1024 * 2)
  59:/home/xingli/share/1205tiny/network/mqtt/paho_mqtt/port/paho_mqtt_port.c **** #endif
GAS LISTING /tmp/ccrqlIgG.s 			page 7


  60:/home/xingli/share/1205tiny/network/mqtt/paho_mqtt/port/paho_mqtt_port.c **** 
  61:/home/xingli/share/1205tiny/network/mqtt/paho_mqtt/port/paho_mqtt_port.c **** #ifndef CONFIG_PAHO_RCVBUF_SIZE
  62:/home/xingli/share/1205tiny/network/mqtt/paho_mqtt/port/paho_mqtt_port.c **** #define CONFIG_PAHO_RCVBUF_SIZE      (1024 * 2)
  63:/home/xingli/share/1205tiny/network/mqtt/paho_mqtt/port/paho_mqtt_port.c **** #endif
  64:/home/xingli/share/1205tiny/network/mqtt/paho_mqtt/port/paho_mqtt_port.c **** 
  65:/home/xingli/share/1205tiny/network/mqtt/paho_mqtt/port/paho_mqtt_port.c **** typedef struct
  66:/home/xingli/share/1205tiny/network/mqtt/paho_mqtt/port/paho_mqtt_port.c **** {
  67:/home/xingli/share/1205tiny/network/mqtt/paho_mqtt/port/paho_mqtt_port.c ****     Network        network;
  68:/home/xingli/share/1205tiny/network/mqtt/paho_mqtt/port/paho_mqtt_port.c ****     MQTTClient     client;
  69:/home/xingli/share/1205tiny/network/mqtt/paho_mqtt/port/paho_mqtt_port.c ****     void          *task;    //create a task for this client
  70:/home/xingli/share/1205tiny/network/mqtt/paho_mqtt/port/paho_mqtt_port.c ****     void          *rcvbuf;  //for the mqtt engine used
  71:/home/xingli/share/1205tiny/network/mqtt/paho_mqtt/port/paho_mqtt_port.c ****     void          *sndbuf;
  72:/home/xingli/share/1205tiny/network/mqtt/paho_mqtt/port/paho_mqtt_port.c ****     int            stop;
  73:/home/xingli/share/1205tiny/network/mqtt/paho_mqtt/port/paho_mqtt_port.c ****     int            stoped;
  74:/home/xingli/share/1205tiny/network/mqtt/paho_mqtt/port/paho_mqtt_port.c **** }paho_mqtt_cb_t;
  75:/home/xingli/share/1205tiny/network/mqtt/paho_mqtt/port/paho_mqtt_port.c **** 
  76:/home/xingli/share/1205tiny/network/mqtt/paho_mqtt/port/paho_mqtt_port.c **** ///< waring: the paho mqtt has the opposite return code with normal socket read and write
  77:/home/xingli/share/1205tiny/network/mqtt/paho_mqtt/port/paho_mqtt_port.c **** 
  78:/home/xingli/share/1205tiny/network/mqtt/paho_mqtt/port/paho_mqtt_port.c **** static int __tls_read(void *ssl, unsigned char *buffer, int len, int timeout)
  79:/home/xingli/share/1205tiny/network/mqtt/paho_mqtt/port/paho_mqtt_port.c **** {
  45              		.loc 2 79 1
  46              		.cfi_startproc
  47 0000 F30F1EFA 		endbr64
  48 0004 55       		pushq	%rbp
  49              	.LCFI3:
  50              		.cfi_def_cfa_offset 16
  51              		.cfi_offset 6, -16
  52 0005 4889E5   		movq	%rsp, %rbp
  53              	.LCFI4:
  54              		.cfi_def_cfa_register 6
  55 0008 4883EC30 		subq	$48, %rsp
  56 000c 48897DE8 		movq	%rdi, -24(%rbp)
  57 0010 488975E0 		movq	%rsi, -32(%rbp)
  58 0014 8955DC   		movl	%edx, -36(%rbp)
  59 0017 894DD8   		movl	%ecx, -40(%rbp)
  60              		.loc 2 79 1
  61 001a 64488B04 		movq	%fs:40, %rax
  61      25280000 
  61      00
  62 0023 488945F8 		movq	%rax, -8(%rbp)
  63 0027 31C0     		xorl	%eax, %eax
  80:/home/xingli/share/1205tiny/network/mqtt/paho_mqtt/port/paho_mqtt_port.c ****     int ret= -1;
  64              		.loc 2 80 9
  65 0029 C745F0FF 		movl	$-1, -16(%rbp)
  65      FFFFFF
  81:/home/xingli/share/1205tiny/network/mqtt/paho_mqtt/port/paho_mqtt_port.c ****     int rcvlen = -1;
  66              		.loc 2 81 9
  67 0030 C745F4FF 		movl	$-1, -12(%rbp)
  67      FFFFFF
  82:/home/xingli/share/1205tiny/network/mqtt/paho_mqtt/port/paho_mqtt_port.c **** 
  83:/home/xingli/share/1205tiny/network/mqtt/paho_mqtt/port/paho_mqtt_port.c ****     if(NULL == ssl || NULL == buffer)
  68              		.loc 2 83 7
  69 0037 48837DE8 		cmpq	$0, -24(%rbp)
  69      00
  70 003c 7407     		je	.L5
  71              		.loc 2 83 20 discriminator 1
  72 003e 48837DE0 		cmpq	$0, -32(%rbp)
GAS LISTING /tmp/ccrqlIgG.s 			page 8


  72      00
  73 0043 7507     		jne	.L6
  74              	.L5:
  84:/home/xingli/share/1205tiny/network/mqtt/paho_mqtt/port/paho_mqtt_port.c ****     {
  85:/home/xingli/share/1205tiny/network/mqtt/paho_mqtt/port/paho_mqtt_port.c ****         return -1;
  75              		.loc 2 85 16
  76 0045 B8FFFFFF 		movl	$-1, %eax
  76      FF
  77 004a EB43     		jmp	.L7
  78              	.L6:
  86:/home/xingli/share/1205tiny/network/mqtt/paho_mqtt/port/paho_mqtt_port.c ****     }
  87:/home/xingli/share/1205tiny/network/mqtt/paho_mqtt/port/paho_mqtt_port.c **** 
  88:/home/xingli/share/1205tiny/network/mqtt/paho_mqtt/port/paho_mqtt_port.c ****     rcvlen = dtls_al_read(ssl,buffer,len, timeout);
  79              		.loc 2 88 14
  80 004c 8B45DC   		movl	-36(%rbp), %eax
  81 004f 4863D0   		movslq	%eax, %rdx
  82 0052 8B4DD8   		movl	-40(%rbp), %ecx
  83 0055 488B75E0 		movq	-32(%rbp), %rsi
  84 0059 488B45E8 		movq	-24(%rbp), %rax
  85 005d 4889C7   		movq	%rax, %rdi
  86 0060 E8000000 		call	dtls_al_read@PLT
  86      00
  87 0065 8945F4   		movl	%eax, -12(%rbp)
  89:/home/xingli/share/1205tiny/network/mqtt/paho_mqtt/port/paho_mqtt_port.c **** 
  90:/home/xingli/share/1205tiny/network/mqtt/paho_mqtt/port/paho_mqtt_port.c ****     if(rcvlen == 0)
  88              		.loc 2 90 7
  89 0068 837DF400 		cmpl	$0, -12(%rbp)
  90 006c 7509     		jne	.L8
  91:/home/xingli/share/1205tiny/network/mqtt/paho_mqtt/port/paho_mqtt_port.c ****     {
  92:/home/xingli/share/1205tiny/network/mqtt/paho_mqtt/port/paho_mqtt_port.c ****         ret = -1;
  91              		.loc 2 92 13
  92 006e C745F0FF 		movl	$-1, -16(%rbp)
  92      FFFFFF
  93 0075 EB15     		jmp	.L9
  94              	.L8:
  93:/home/xingli/share/1205tiny/network/mqtt/paho_mqtt/port/paho_mqtt_port.c ****     }
  94:/home/xingli/share/1205tiny/network/mqtt/paho_mqtt/port/paho_mqtt_port.c ****     else if(rcvlen < 0)
  95              		.loc 2 94 12
  96 0077 837DF400 		cmpl	$0, -12(%rbp)
  97 007b 7909     		jns	.L10
  95:/home/xingli/share/1205tiny/network/mqtt/paho_mqtt/port/paho_mqtt_port.c ****     {
  96:/home/xingli/share/1205tiny/network/mqtt/paho_mqtt/port/paho_mqtt_port.c ****         ret = 0;
  98              		.loc 2 96 13
  99 007d C745F000 		movl	$0, -16(%rbp)
  99      000000
 100 0084 EB06     		jmp	.L9
 101              	.L10:
  97:/home/xingli/share/1205tiny/network/mqtt/paho_mqtt/port/paho_mqtt_port.c ****     }
  98:/home/xingli/share/1205tiny/network/mqtt/paho_mqtt/port/paho_mqtt_port.c ****     else
  99:/home/xingli/share/1205tiny/network/mqtt/paho_mqtt/port/paho_mqtt_port.c ****     {
 100:/home/xingli/share/1205tiny/network/mqtt/paho_mqtt/port/paho_mqtt_port.c ****         ret = rcvlen;
 102              		.loc 2 100 13
 103 0086 8B45F4   		movl	-12(%rbp), %eax
 104 0089 8945F0   		movl	%eax, -16(%rbp)
 105              	.L9:
 101:/home/xingli/share/1205tiny/network/mqtt/paho_mqtt/port/paho_mqtt_port.c ****     }
 102:/home/xingli/share/1205tiny/network/mqtt/paho_mqtt/port/paho_mqtt_port.c **** 
GAS LISTING /tmp/ccrqlIgG.s 			page 9


 103:/home/xingli/share/1205tiny/network/mqtt/paho_mqtt/port/paho_mqtt_port.c ****     return ret;
 106              		.loc 2 103 12
 107 008c 8B45F0   		movl	-16(%rbp), %eax
 108              	.L7:
 104:/home/xingli/share/1205tiny/network/mqtt/paho_mqtt/port/paho_mqtt_port.c **** }
 109              		.loc 2 104 1
 110 008f 488B7DF8 		movq	-8(%rbp), %rdi
 111 0093 6448333C 		xorq	%fs:40, %rdi
 111      25280000 
 111      00
 112 009c 7405     		je	.L11
 113 009e E8000000 		call	__stack_chk_fail@PLT
 113      00
 114              	.L11:
 115 00a3 C9       		leave
 116              	.LCFI5:
 117              		.cfi_def_cfa 7, 8
 118 00a4 C3       		ret
 119              		.cfi_endproc
 120              	.LFE7:
 122              		.section	.text.__tls_write,"ax",@progbits
 124              	__tls_write:
 125              	.LFB8:
 105:/home/xingli/share/1205tiny/network/mqtt/paho_mqtt/port/paho_mqtt_port.c **** static int __tls_write(void *ssl, unsigned char *buffer, int len, int timeout)
 106:/home/xingli/share/1205tiny/network/mqtt/paho_mqtt/port/paho_mqtt_port.c **** {
 126              		.loc 2 106 1
 127              		.cfi_startproc
 128 0000 F30F1EFA 		endbr64
 129 0004 55       		pushq	%rbp
 130              	.LCFI6:
 131              		.cfi_def_cfa_offset 16
 132              		.cfi_offset 6, -16
 133 0005 4889E5   		movq	%rsp, %rbp
 134              	.LCFI7:
 135              		.cfi_def_cfa_register 6
 136 0008 4883EC30 		subq	$48, %rsp
 137 000c 48897DE8 		movq	%rdi, -24(%rbp)
 138 0010 488975E0 		movq	%rsi, -32(%rbp)
 139 0014 8955DC   		movl	%edx, -36(%rbp)
 140 0017 894DD8   		movl	%ecx, -40(%rbp)
 141              		.loc 2 106 1
 142 001a 64488B04 		movq	%fs:40, %rax
 142      25280000 
 142      00
 143 0023 488945F8 		movq	%rax, -8(%rbp)
 144 0027 31C0     		xorl	%eax, %eax
 107:/home/xingli/share/1205tiny/network/mqtt/paho_mqtt/port/paho_mqtt_port.c ****     int ret= -1;
 145              		.loc 2 107 9
 146 0029 C745F0FF 		movl	$-1, -16(%rbp)
 146      FFFFFF
 108:/home/xingli/share/1205tiny/network/mqtt/paho_mqtt/port/paho_mqtt_port.c ****     int sndlen = -1;
 147              		.loc 2 108 9
 148 0030 C745F4FF 		movl	$-1, -12(%rbp)
 148      FFFFFF
 109:/home/xingli/share/1205tiny/network/mqtt/paho_mqtt/port/paho_mqtt_port.c **** 
 110:/home/xingli/share/1205tiny/network/mqtt/paho_mqtt/port/paho_mqtt_port.c ****     if(NULL == ssl || NULL == buffer)
 149              		.loc 2 110 7
GAS LISTING /tmp/ccrqlIgG.s 			page 10


 150 0037 48837DE8 		cmpq	$0, -24(%rbp)
 150      00
 151 003c 7407     		je	.L13
 152              		.loc 2 110 20 discriminator 1
 153 003e 48837DE0 		cmpq	$0, -32(%rbp)
 153      00
 154 0043 7507     		jne	.L14
 155              	.L13:
 111:/home/xingli/share/1205tiny/network/mqtt/paho_mqtt/port/paho_mqtt_port.c ****     {
 112:/home/xingli/share/1205tiny/network/mqtt/paho_mqtt/port/paho_mqtt_port.c ****         return -1;
 156              		.loc 2 112 16
 157 0045 B8FFFFFF 		movl	$-1, %eax
 157      FF
 158 004a EB43     		jmp	.L15
 159              	.L14:
 113:/home/xingli/share/1205tiny/network/mqtt/paho_mqtt/port/paho_mqtt_port.c ****     }
 114:/home/xingli/share/1205tiny/network/mqtt/paho_mqtt/port/paho_mqtt_port.c **** 
 115:/home/xingli/share/1205tiny/network/mqtt/paho_mqtt/port/paho_mqtt_port.c ****     sndlen = dtls_al_write(ssl,buffer,len,timeout);
 160              		.loc 2 115 14
 161 004c 8B45DC   		movl	-36(%rbp), %eax
 162 004f 4863D0   		movslq	%eax, %rdx
 163 0052 8B4DD8   		movl	-40(%rbp), %ecx
 164 0055 488B75E0 		movq	-32(%rbp), %rsi
 165 0059 488B45E8 		movq	-24(%rbp), %rax
 166 005d 4889C7   		movq	%rax, %rdi
 167 0060 E8000000 		call	dtls_al_write@PLT
 167      00
 168 0065 8945F4   		movl	%eax, -12(%rbp)
 116:/home/xingli/share/1205tiny/network/mqtt/paho_mqtt/port/paho_mqtt_port.c **** 
 117:/home/xingli/share/1205tiny/network/mqtt/paho_mqtt/port/paho_mqtt_port.c ****     if(sndlen == 0)
 169              		.loc 2 117 7
 170 0068 837DF400 		cmpl	$0, -12(%rbp)
 171 006c 7509     		jne	.L16
 118:/home/xingli/share/1205tiny/network/mqtt/paho_mqtt/port/paho_mqtt_port.c ****     {
 119:/home/xingli/share/1205tiny/network/mqtt/paho_mqtt/port/paho_mqtt_port.c ****         ret = -1;
 172              		.loc 2 119 13
 173 006e C745F0FF 		movl	$-1, -16(%rbp)
 173      FFFFFF
 174 0075 EB15     		jmp	.L17
 175              	.L16:
 120:/home/xingli/share/1205tiny/network/mqtt/paho_mqtt/port/paho_mqtt_port.c ****     }
 121:/home/xingli/share/1205tiny/network/mqtt/paho_mqtt/port/paho_mqtt_port.c ****     else if(sndlen < 0)
 176              		.loc 2 121 12
 177 0077 837DF400 		cmpl	$0, -12(%rbp)
 178 007b 7909     		jns	.L18
 122:/home/xingli/share/1205tiny/network/mqtt/paho_mqtt/port/paho_mqtt_port.c ****     {
 123:/home/xingli/share/1205tiny/network/mqtt/paho_mqtt/port/paho_mqtt_port.c ****         ret = 0;
 179              		.loc 2 123 13
 180 007d C745F000 		movl	$0, -16(%rbp)
 180      000000
 181 0084 EB06     		jmp	.L17
 182              	.L18:
 124:/home/xingli/share/1205tiny/network/mqtt/paho_mqtt/port/paho_mqtt_port.c ****     }
 125:/home/xingli/share/1205tiny/network/mqtt/paho_mqtt/port/paho_mqtt_port.c ****     else
 126:/home/xingli/share/1205tiny/network/mqtt/paho_mqtt/port/paho_mqtt_port.c ****     {
 127:/home/xingli/share/1205tiny/network/mqtt/paho_mqtt/port/paho_mqtt_port.c ****         ret = sndlen;
 183              		.loc 2 127 13
GAS LISTING /tmp/ccrqlIgG.s 			page 11


 184 0086 8B45F4   		movl	-12(%rbp), %eax
 185 0089 8945F0   		movl	%eax, -16(%rbp)
 186              	.L17:
 128:/home/xingli/share/1205tiny/network/mqtt/paho_mqtt/port/paho_mqtt_port.c ****     }
 129:/home/xingli/share/1205tiny/network/mqtt/paho_mqtt/port/paho_mqtt_port.c **** 
 130:/home/xingli/share/1205tiny/network/mqtt/paho_mqtt/port/paho_mqtt_port.c ****     return ret;
 187              		.loc 2 130 12
 188 008c 8B45F0   		movl	-16(%rbp), %eax
 189              	.L15:
 131:/home/xingli/share/1205tiny/network/mqtt/paho_mqtt/port/paho_mqtt_port.c **** }
 190              		.loc 2 131 1
 191 008f 488B7DF8 		movq	-8(%rbp), %rdi
 192 0093 6448333C 		xorq	%fs:40, %rdi
 192      25280000 
 192      00
 193 009c 7405     		je	.L19
 194 009e E8000000 		call	__stack_chk_fail@PLT
 194      00
 195              	.L19:
 196 00a3 C9       		leave
 197              	.LCFI8:
 198              		.cfi_def_cfa 7, 8
 199 00a4 C3       		ret
 200              		.cfi_endproc
 201              	.LFE8:
 203              		.section	.rodata
 204              	.LC0:
 205 0000 256400   		.string	"%d"
 206              		.section	.text.__tls_connect,"ax",@progbits
 208              	__tls_connect:
 209              	.LFB9:
 132:/home/xingli/share/1205tiny/network/mqtt/paho_mqtt/port/paho_mqtt_port.c **** 
 133:/home/xingli/share/1205tiny/network/mqtt/paho_mqtt/port/paho_mqtt_port.c **** #define PORT_BUF_LEN 16
 134:/home/xingli/share/1205tiny/network/mqtt/paho_mqtt/port/paho_mqtt_port.c **** static int __tls_connect(Network *n,const char *addr, int port)
 135:/home/xingli/share/1205tiny/network/mqtt/paho_mqtt/port/paho_mqtt_port.c **** {    int ret = -1;
 210              		.loc 2 135 1
 211              		.cfi_startproc
 212 0000 F30F1EFA 		endbr64
 213 0004 55       		pushq	%rbp
 214              	.LCFI9:
 215              		.cfi_def_cfa_offset 16
 216              		.cfi_offset 6, -16
 217 0005 4889E5   		movq	%rsp, %rbp
 218              	.LCFI10:
 219              		.cfi_def_cfa_register 6
 220 0008 53       		pushq	%rbx
 221 0009 4881ECA8 		subq	$168, %rsp
 221      000000
 222              		.cfi_offset 3, -24
 223 0010 4889BD68 		movq	%rdi, -152(%rbp)
 223      FFFFFF
 224 0017 4889B560 		movq	%rsi, -160(%rbp)
 224      FFFFFF
 225 001e 89955CFF 		movl	%edx, -164(%rbp)
 225      FFFF
 226              		.loc 2 135 1
 227 0024 64488B04 		movq	%fs:40, %rax
GAS LISTING /tmp/ccrqlIgG.s 			page 12


 227      25280000 
 227      00
 228 002d 488945E8 		movq	%rax, -24(%rbp)
 229 0031 31C0     		xorl	%eax, %eax
 230              		.loc 2 135 10
 231 0033 C78574FF 		movl	$-1, -140(%rbp)
 231      FFFFFFFF 
 231      FFFF
 136:/home/xingli/share/1205tiny/network/mqtt/paho_mqtt/port/paho_mqtt_port.c **** 
 137:/home/xingli/share/1205tiny/network/mqtt/paho_mqtt/port/paho_mqtt_port.c ****     void *handle = NULL;
 232              		.loc 2 137 11
 233 003d 48C78578 		movq	$0, -136(%rbp)
 233      FFFFFF00 
 233      000000
 138:/home/xingli/share/1205tiny/network/mqtt/paho_mqtt/port/paho_mqtt_port.c **** 
 139:/home/xingli/share/1205tiny/network/mqtt/paho_mqtt/port/paho_mqtt_port.c ****     dtls_al_para_t para;
 140:/home/xingli/share/1205tiny/network/mqtt/paho_mqtt/port/paho_mqtt_port.c **** 
 141:/home/xingli/share/1205tiny/network/mqtt/paho_mqtt/port/paho_mqtt_port.c ****     char port_buf[PORT_BUF_LEN];
 142:/home/xingli/share/1205tiny/network/mqtt/paho_mqtt/port/paho_mqtt_port.c **** 
 143:/home/xingli/share/1205tiny/network/mqtt/paho_mqtt/port/paho_mqtt_port.c ****     (void) memset( &para,0, sizeof(para));
 234              		.loc 2 143 12
 235 0048 488D4580 		leaq	-128(%rbp), %rax
 236 004c BA480000 		movl	$72, %edx
 236      00
 237 0051 BE000000 		movl	$0, %esi
 237      00
 238 0056 4889C7   		movq	%rax, %rdi
 239 0059 E8000000 		call	memset@PLT
 239      00
 144:/home/xingli/share/1205tiny/network/mqtt/paho_mqtt/port/paho_mqtt_port.c **** 
 145:/home/xingli/share/1205tiny/network/mqtt/paho_mqtt/port/paho_mqtt_port.c ****     para.security.type = EN_DTLS_AL_SECURITY_TYPE_CERT;
 240              		.loc 2 145 24
 241 005e C7458802 		movl	$2, -120(%rbp)
 241      000000
 146:/home/xingli/share/1205tiny/network/mqtt/paho_mqtt/port/paho_mqtt_port.c ****     para.istcp = 1;
 242              		.loc 2 146 16
 243 0065 C7458001 		movl	$1, -128(%rbp)
 243      000000
 147:/home/xingli/share/1205tiny/network/mqtt/paho_mqtt/port/paho_mqtt_port.c ****     para.isclient = 1;
 244              		.loc 2 147 19
 245 006c C7458401 		movl	$1, -124(%rbp)
 245      000000
 148:/home/xingli/share/1205tiny/network/mqtt/paho_mqtt/port/paho_mqtt_port.c ****     para.security = n->arg;
 246              		.loc 2 148 19
 247 0073 488B8568 		movq	-152(%rbp), %rax
 247      FFFFFF
 248 007a 488B4808 		movq	8(%rax), %rcx
 249 007e 488B5810 		movq	16(%rax), %rbx
 250 0082 48894D88 		movq	%rcx, -120(%rbp)
 251 0086 48895D90 		movq	%rbx, -112(%rbp)
 252 008a 488B4818 		movq	24(%rax), %rcx
 253 008e 488B5820 		movq	32(%rax), %rbx
 254 0092 48894D98 		movq	%rcx, -104(%rbp)
 255 0096 48895DA0 		movq	%rbx, -96(%rbp)
 256 009a 488B4828 		movq	40(%rax), %rcx
 257 009e 488B5830 		movq	48(%rax), %rbx
 258 00a2 48894DA8 		movq	%rcx, -88(%rbp)
GAS LISTING /tmp/ccrqlIgG.s 			page 13


 259 00a6 48895DB0 		movq	%rbx, -80(%rbp)
 260 00aa 488B5040 		movq	64(%rax), %rdx
 261 00ae 488B4038 		movq	56(%rax), %rax
 262 00b2 488945B8 		movq	%rax, -72(%rbp)
 263 00b6 488955C0 		movq	%rdx, -64(%rbp)
 149:/home/xingli/share/1205tiny/network/mqtt/paho_mqtt/port/paho_mqtt_port.c **** 
 150:/home/xingli/share/1205tiny/network/mqtt/paho_mqtt/port/paho_mqtt_port.c ****     if(EN_DTLS_AL_ERR_OK != dtls_al_new(&para,&handle))
 264              		.loc 2 150 29
 265 00ba 488D9578 		leaq	-136(%rbp), %rdx
 265      FFFFFF
 266 00c1 488D4580 		leaq	-128(%rbp), %rax
 267 00c5 4889D6   		movq	%rdx, %rsi
 268 00c8 4889C7   		movq	%rax, %rdi
 269 00cb E8000000 		call	dtls_al_new@PLT
 269      00
 270              		.loc 2 150 7
 271 00d0 85C0     		testl	%eax, %eax
 272 00d2 740B     		je	.L21
 151:/home/xingli/share/1205tiny/network/mqtt/paho_mqtt/port/paho_mqtt_port.c ****     {
 152:/home/xingli/share/1205tiny/network/mqtt/paho_mqtt/port/paho_mqtt_port.c ****         return ret;
 273              		.loc 2 152 16
 274 00d4 8B8574FF 		movl	-140(%rbp), %eax
 274      FFFF
 275 00da E9950000 		jmp	.L24
 275      00
 276              	.L21:
 153:/home/xingli/share/1205tiny/network/mqtt/paho_mqtt/port/paho_mqtt_port.c ****     }
 154:/home/xingli/share/1205tiny/network/mqtt/paho_mqtt/port/paho_mqtt_port.c **** 
 155:/home/xingli/share/1205tiny/network/mqtt/paho_mqtt/port/paho_mqtt_port.c ****     (void) snprintf(port_buf, PORT_BUF_LEN, "%d", port);
 277              		.loc 2 155 12
 278 00df 8B955CFF 		movl	-164(%rbp), %edx
 278      FFFF
 279 00e5 488D45D0 		leaq	-48(%rbp), %rax
 280 00e9 89D1     		movl	%edx, %ecx
 281 00eb 488D1500 		leaq	.LC0(%rip), %rdx
 281      000000
 282 00f2 BE100000 		movl	$16, %esi
 282      00
 283 00f7 4889C7   		movq	%rax, %rdi
 284 00fa B8000000 		movl	$0, %eax
 284      00
 285 00ff E8000000 		call	snprintf@PLT
 285      00
 156:/home/xingli/share/1205tiny/network/mqtt/paho_mqtt/port/paho_mqtt_port.c **** 
 157:/home/xingli/share/1205tiny/network/mqtt/paho_mqtt/port/paho_mqtt_port.c ****     ret = dtls_al_connect( handle, addr, port_buf, CONFIG_PAHO_CONNECT_TIMEOUT);
 286              		.loc 2 157 11
 287 0104 488B8578 		movq	-136(%rbp), %rax
 287      FFFFFF
 288 010b 488D55D0 		leaq	-48(%rbp), %rdx
 289 010f 488BB560 		movq	-160(%rbp), %rsi
 289      FFFFFF
 290 0116 B9102700 		movl	$10000, %ecx
 290      00
 291 011b 4889C7   		movq	%rax, %rdi
 292 011e E8000000 		call	dtls_al_connect@PLT
 292      00
 293 0123 898574FF 		movl	%eax, -140(%rbp)
GAS LISTING /tmp/ccrqlIgG.s 			page 14


 293      FFFF
 158:/home/xingli/share/1205tiny/network/mqtt/paho_mqtt/port/paho_mqtt_port.c ****     if (ret != EN_DTLS_AL_ERR_OK)
 294              		.loc 2 158 8
 295 0129 83BD74FF 		cmpl	$0, -140(%rbp)
 295      FFFF00
 296 0130 7421     		je	.L23
 159:/home/xingli/share/1205tiny/network/mqtt/paho_mqtt/port/paho_mqtt_port.c ****     {
 160:/home/xingli/share/1205tiny/network/mqtt/paho_mqtt/port/paho_mqtt_port.c ****         dtls_al_destroy(handle);
 297              		.loc 2 160 9
 298 0132 488B8578 		movq	-136(%rbp), %rax
 298      FFFFFF
 299 0139 4889C7   		movq	%rax, %rdi
 300 013c E8000000 		call	dtls_al_destroy@PLT
 300      00
 161:/home/xingli/share/1205tiny/network/mqtt/paho_mqtt/port/paho_mqtt_port.c **** 
 162:/home/xingli/share/1205tiny/network/mqtt/paho_mqtt/port/paho_mqtt_port.c ****         ret = -1;
 301              		.loc 2 162 13
 302 0141 C78574FF 		movl	$-1, -140(%rbp)
 302      FFFFFFFF 
 302      FFFF
 163:/home/xingli/share/1205tiny/network/mqtt/paho_mqtt/port/paho_mqtt_port.c ****         return ret;
 303              		.loc 2 163 16
 304 014b 8B8574FF 		movl	-140(%rbp), %eax
 304      FFFF
 305 0151 EB21     		jmp	.L24
 306              	.L23:
 164:/home/xingli/share/1205tiny/network/mqtt/paho_mqtt/port/paho_mqtt_port.c ****     }
 165:/home/xingli/share/1205tiny/network/mqtt/paho_mqtt/port/paho_mqtt_port.c ****     else
 166:/home/xingli/share/1205tiny/network/mqtt/paho_mqtt/port/paho_mqtt_port.c ****     {
 167:/home/xingli/share/1205tiny/network/mqtt/paho_mqtt/port/paho_mqtt_port.c ****         ret = 0;
 307              		.loc 2 167 13
 308 0153 C78574FF 		movl	$0, -140(%rbp)
 308      FFFF0000 
 308      0000
 168:/home/xingli/share/1205tiny/network/mqtt/paho_mqtt/port/paho_mqtt_port.c ****     }
 169:/home/xingli/share/1205tiny/network/mqtt/paho_mqtt/port/paho_mqtt_port.c **** 
 170:/home/xingli/share/1205tiny/network/mqtt/paho_mqtt/port/paho_mqtt_port.c ****     n->ctx = handle;
 309              		.loc 2 170 12
 310 015d 488B9578 		movq	-136(%rbp), %rdx
 310      FFFFFF
 311 0164 488B8568 		movq	-152(%rbp), %rax
 311      FFFFFF
 312 016b 488910   		movq	%rdx, (%rax)
 171:/home/xingli/share/1205tiny/network/mqtt/paho_mqtt/port/paho_mqtt_port.c ****     return ret;
 313              		.loc 2 171 12
 314 016e 8B8574FF 		movl	-140(%rbp), %eax
 314      FFFF
 315              	.L24:
 172:/home/xingli/share/1205tiny/network/mqtt/paho_mqtt/port/paho_mqtt_port.c **** 
 173:/home/xingli/share/1205tiny/network/mqtt/paho_mqtt/port/paho_mqtt_port.c **** }
 316              		.loc 2 173 1 discriminator 1
 317 0174 488B5DE8 		movq	-24(%rbp), %rbx
 318 0178 6448331C 		xorq	%fs:40, %rbx
 318      25280000 
 318      00
 319 0181 7405     		je	.L25
 320              		.loc 2 173 1 is_stmt 0
GAS LISTING /tmp/ccrqlIgG.s 			page 15


 321 0183 E8000000 		call	__stack_chk_fail@PLT
 321      00
 322              	.L25:
 323 0188 4881C4A8 		addq	$168, %rsp
 323      000000
 324 018f 5B       		popq	%rbx
 325 0190 5D       		popq	%rbp
 326              	.LCFI11:
 327              		.cfi_def_cfa 7, 8
 328 0191 C3       		ret
 329              		.cfi_endproc
 330              	.LFE9:
 332              		.section	.text.__tls_disconnect,"ax",@progbits
 334              	__tls_disconnect:
 335              	.LFB10:
 174:/home/xingli/share/1205tiny/network/mqtt/paho_mqtt/port/paho_mqtt_port.c **** 
 175:/home/xingli/share/1205tiny/network/mqtt/paho_mqtt/port/paho_mqtt_port.c **** static void __tls_disconnect(void *ctx)
 176:/home/xingli/share/1205tiny/network/mqtt/paho_mqtt/port/paho_mqtt_port.c **** {
 336              		.loc 2 176 1 is_stmt 1
 337              		.cfi_startproc
 338 0000 F30F1EFA 		endbr64
 339 0004 55       		pushq	%rbp
 340              	.LCFI12:
 341              		.cfi_def_cfa_offset 16
 342              		.cfi_offset 6, -16
 343 0005 4889E5   		movq	%rsp, %rbp
 344              	.LCFI13:
 345              		.cfi_def_cfa_register 6
 346 0008 4883EC20 		subq	$32, %rsp
 347 000c 48897DE8 		movq	%rdi, -24(%rbp)
 348              		.loc 2 176 1
 349 0010 64488B04 		movq	%fs:40, %rax
 349      25280000 
 349      00
 350 0019 488945F8 		movq	%rax, -8(%rbp)
 351 001d 31C0     		xorl	%eax, %eax
 177:/home/xingli/share/1205tiny/network/mqtt/paho_mqtt/port/paho_mqtt_port.c ****     if(NULL != ctx)
 352              		.loc 2 177 7
 353 001f 48837DE8 		cmpq	$0, -24(%rbp)
 353      00
 354 0024 740D     		je	.L30
 178:/home/xingli/share/1205tiny/network/mqtt/paho_mqtt/port/paho_mqtt_port.c ****     {
 179:/home/xingli/share/1205tiny/network/mqtt/paho_mqtt/port/paho_mqtt_port.c ****         dtls_al_destroy(ctx);
 355              		.loc 2 179 9
 356 0026 488B45E8 		movq	-24(%rbp), %rax
 357 002a 4889C7   		movq	%rax, %rdi
 358 002d E8000000 		call	dtls_al_destroy@PLT
 358      00
 180:/home/xingli/share/1205tiny/network/mqtt/paho_mqtt/port/paho_mqtt_port.c ****     }
 181:/home/xingli/share/1205tiny/network/mqtt/paho_mqtt/port/paho_mqtt_port.c **** 
 182:/home/xingli/share/1205tiny/network/mqtt/paho_mqtt/port/paho_mqtt_port.c ****     return;
 359              		.loc 2 182 5
 360 0032 90       		nop
 361              	.L30:
 362 0033 90       		nop
 183:/home/xingli/share/1205tiny/network/mqtt/paho_mqtt/port/paho_mqtt_port.c **** }
 363              		.loc 2 183 1
GAS LISTING /tmp/ccrqlIgG.s 			page 16


 364 0034 488B45F8 		movq	-8(%rbp), %rax
 365 0038 64483304 		xorq	%fs:40, %rax
 365      25280000 
 365      00
 366 0041 7405     		je	.L29
 367 0043 E8000000 		call	__stack_chk_fail@PLT
 367      00
 368              	.L29:
 369 0048 C9       		leave
 370              	.LCFI14:
 371              		.cfi_def_cfa 7, 8
 372 0049 C3       		ret
 373              		.cfi_endproc
 374              	.LFE10:
 376              		.section	.text.__socket_read,"ax",@progbits
 378              	__socket_read:
 379              	.LFB11:
 184:/home/xingli/share/1205tiny/network/mqtt/paho_mqtt/port/paho_mqtt_port.c **** 
 185:/home/xingli/share/1205tiny/network/mqtt/paho_mqtt/port/paho_mqtt_port.c **** 
 186:/home/xingli/share/1205tiny/network/mqtt/paho_mqtt/port/paho_mqtt_port.c **** ///< receve function: return code:0 means timeout -1:failed  > receive length
 187:/home/xingli/share/1205tiny/network/mqtt/paho_mqtt/port/paho_mqtt_port.c **** static int __socket_read(void *ctx, unsigned char *buf, int len, int timeout)
 188:/home/xingli/share/1205tiny/network/mqtt/paho_mqtt/port/paho_mqtt_port.c **** {
 380              		.loc 2 188 1
 381              		.cfi_startproc
 382 0000 F30F1EFA 		endbr64
 383 0004 55       		pushq	%rbp
 384              	.LCFI15:
 385              		.cfi_def_cfa_offset 16
 386              		.cfi_offset 6, -16
 387 0005 4889E5   		movq	%rsp, %rbp
 388              	.LCFI16:
 389              		.cfi_def_cfa_register 6
 390 0008 4883EC50 		subq	$80, %rsp
 391 000c 48897DC8 		movq	%rdi, -56(%rbp)
 392 0010 488975C0 		movq	%rsi, -64(%rbp)
 393 0014 8955BC   		movl	%edx, -68(%rbp)
 394 0017 894DB8   		movl	%ecx, -72(%rbp)
 395              		.loc 2 188 1
 396 001a 64488B04 		movq	%fs:40, %rax
 396      25280000 
 396      00
 397 0023 488945F8 		movq	%rax, -8(%rbp)
 398 0027 31C0     		xorl	%eax, %eax
 189:/home/xingli/share/1205tiny/network/mqtt/paho_mqtt/port/paho_mqtt_port.c ****     int fd;
 190:/home/xingli/share/1205tiny/network/mqtt/paho_mqtt/port/paho_mqtt_port.c ****     int ret = 0;
 399              		.loc 2 190 9
 400 0029 C745D400 		movl	$0, -44(%rbp)
 400      000000
 191:/home/xingli/share/1205tiny/network/mqtt/paho_mqtt/port/paho_mqtt_port.c ****     int rcvlen = -1;
 401              		.loc 2 191 9
 402 0030 C745D8FF 		movl	$-1, -40(%rbp)
 402      FFFFFF
 192:/home/xingli/share/1205tiny/network/mqtt/paho_mqtt/port/paho_mqtt_port.c **** 
 193:/home/xingli/share/1205tiny/network/mqtt/paho_mqtt/port/paho_mqtt_port.c ****     struct timeval timedelay;
 194:/home/xingli/share/1205tiny/network/mqtt/paho_mqtt/port/paho_mqtt_port.c **** 
 195:/home/xingli/share/1205tiny/network/mqtt/paho_mqtt/port/paho_mqtt_port.c ****     if(NULL== buf)
 403              		.loc 2 195 7
GAS LISTING /tmp/ccrqlIgG.s 			page 17


 404 0037 48837DC0 		cmpq	$0, -64(%rbp)
 404      00
 405 003c 7508     		jne	.L32
 196:/home/xingli/share/1205tiny/network/mqtt/paho_mqtt/port/paho_mqtt_port.c ****     {
 197:/home/xingli/share/1205tiny/network/mqtt/paho_mqtt/port/paho_mqtt_port.c ****         return ret;
 406              		.loc 2 197 16
 407 003e 8B45D4   		movl	-44(%rbp), %eax
 408 0041 E9C60000 		jmp	.L38
 408      00
 409              	.L32:
 198:/home/xingli/share/1205tiny/network/mqtt/paho_mqtt/port/paho_mqtt_port.c ****     }
 199:/home/xingli/share/1205tiny/network/mqtt/paho_mqtt/port/paho_mqtt_port.c **** 
 200:/home/xingli/share/1205tiny/network/mqtt/paho_mqtt/port/paho_mqtt_port.c ****     fd = (int)(intptr_t)ctx;  ///< socket could be zero
 410              		.loc 2 200 10
 411 0046 488B45C8 		movq	-56(%rbp), %rax
 412              		.loc 2 200 8
 413 004a 8945DC   		movl	%eax, -36(%rbp)
 201:/home/xingli/share/1205tiny/network/mqtt/paho_mqtt/port/paho_mqtt_port.c **** 
 202:/home/xingli/share/1205tiny/network/mqtt/paho_mqtt/port/paho_mqtt_port.c ****     timedelay.tv_sec = timeout/1000;
 414              		.loc 2 202 31
 415 004d 8B45B8   		movl	-72(%rbp), %eax
 416 0050 4863D0   		movslq	%eax, %rdx
 417 0053 4869D2D3 		imulq	$274877907, %rdx, %rdx
 417      4D6210
 418 005a 48C1EA20 		shrq	$32, %rdx
 419 005e C1FA06   		sarl	$6, %edx
 420 0061 C1F81F   		sarl	$31, %eax
 421 0064 29C2     		subl	%eax, %edx
 422 0066 89D0     		movl	%edx, %eax
 423 0068 4898     		cltq
 424              		.loc 2 202 22
 425 006a 488945E0 		movq	%rax, -32(%rbp)
 203:/home/xingli/share/1205tiny/network/mqtt/paho_mqtt/port/paho_mqtt_port.c ****     timedelay.tv_usec = (timeout%1000)*1000;
 426              		.loc 2 203 33
 427 006e 8B45B8   		movl	-72(%rbp), %eax
 428 0071 4863D0   		movslq	%eax, %rdx
 429 0074 4869D2D3 		imulq	$274877907, %rdx, %rdx
 429      4D6210
 430 007b 48C1EA20 		shrq	$32, %rdx
 431 007f 89D1     		movl	%edx, %ecx
 432 0081 C1F906   		sarl	$6, %ecx
 433 0084 99       		cltd
 434 0085 29D1     		subl	%edx, %ecx
 435 0087 89CA     		movl	%ecx, %edx
 436 0089 69D2E803 		imull	$1000, %edx, %edx
 436      0000
 437 008f 29D0     		subl	%edx, %eax
 438 0091 89C2     		movl	%eax, %edx
 439              		.loc 2 203 39
 440 0093 69C2E803 		imull	$1000, %edx, %eax
 440      0000
 441 0099 4898     		cltq
 442              		.loc 2 203 23
 443 009b 488945E8 		movq	%rax, -24(%rbp)
 204:/home/xingli/share/1205tiny/network/mqtt/paho_mqtt/port/paho_mqtt_port.c **** 
 205:/home/xingli/share/1205tiny/network/mqtt/paho_mqtt/port/paho_mqtt_port.c ****     ///< set the recv timeout
 206:/home/xingli/share/1205tiny/network/mqtt/paho_mqtt/port/paho_mqtt_port.c ****     if(0 != sal_setsockopt(fd,SOL_SOCKET,SO_RCVTIMEO,&timedelay,sizeof(timedelay)))
GAS LISTING /tmp/ccrqlIgG.s 			page 18


 444              		.loc 2 206 13
 445 009f 488D55E0 		leaq	-32(%rbp), %rdx
 446 00a3 8B45DC   		movl	-36(%rbp), %eax
 447 00a6 41B81000 		movl	$16, %r8d
 447      0000
 448 00ac 4889D1   		movq	%rdx, %rcx
 449 00af BA061000 		movl	$4102, %edx
 449      00
 450 00b4 BEFFFF00 		movl	$65535, %esi
 450      00
 451 00b9 89C7     		movl	%eax, %edi
 452 00bb E8000000 		call	sal_setsockopt@PLT
 452      00
 453              		.loc 2 206 7
 454 00c0 85C0     		testl	%eax, %eax
 455 00c2 7405     		je	.L34
 207:/home/xingli/share/1205tiny/network/mqtt/paho_mqtt/port/paho_mqtt_port.c ****     {
 208:/home/xingli/share/1205tiny/network/mqtt/paho_mqtt/port/paho_mqtt_port.c ****         return ret;  //could not support the rcv timeout
 456              		.loc 2 208 16
 457 00c4 8B45D4   		movl	-44(%rbp), %eax
 458 00c7 EB43     		jmp	.L38
 459              	.L34:
 209:/home/xingli/share/1205tiny/network/mqtt/paho_mqtt/port/paho_mqtt_port.c ****     }
 210:/home/xingli/share/1205tiny/network/mqtt/paho_mqtt/port/paho_mqtt_port.c **** 
 211:/home/xingli/share/1205tiny/network/mqtt/paho_mqtt/port/paho_mqtt_port.c ****     rcvlen = sal_recv(fd,buf,len,0);
 460              		.loc 2 211 14
 461 00c9 8B45BC   		movl	-68(%rbp), %eax
 462 00cc 4863D0   		movslq	%eax, %rdx
 463 00cf 488B75C0 		movq	-64(%rbp), %rsi
 464 00d3 8B45DC   		movl	-36(%rbp), %eax
 465 00d6 B9000000 		movl	$0, %ecx
 465      00
 466 00db 89C7     		movl	%eax, %edi
 467 00dd E8000000 		call	sal_recv@PLT
 467      00
 468 00e2 8945D8   		movl	%eax, -40(%rbp)
 212:/home/xingli/share/1205tiny/network/mqtt/paho_mqtt/port/paho_mqtt_port.c ****     if(rcvlen == 0)
 469              		.loc 2 212 7
 470 00e5 837DD800 		cmpl	$0, -40(%rbp)
 471 00e9 7509     		jne	.L35
 213:/home/xingli/share/1205tiny/network/mqtt/paho_mqtt/port/paho_mqtt_port.c ****     {
 214:/home/xingli/share/1205tiny/network/mqtt/paho_mqtt/port/paho_mqtt_port.c ****         ret = -1;
 472              		.loc 2 214 13
 473 00eb C745D4FF 		movl	$-1, -44(%rbp)
 473      FFFFFF
 474 00f2 EB15     		jmp	.L36
 475              	.L35:
 215:/home/xingli/share/1205tiny/network/mqtt/paho_mqtt/port/paho_mqtt_port.c ****     }
 216:/home/xingli/share/1205tiny/network/mqtt/paho_mqtt/port/paho_mqtt_port.c ****     else if(rcvlen < 0)
 476              		.loc 2 216 12
 477 00f4 837DD800 		cmpl	$0, -40(%rbp)
 478 00f8 7909     		jns	.L37
 217:/home/xingli/share/1205tiny/network/mqtt/paho_mqtt/port/paho_mqtt_port.c ****     {
 218:/home/xingli/share/1205tiny/network/mqtt/paho_mqtt/port/paho_mqtt_port.c ****         ret = 0;
 479              		.loc 2 218 13
 480 00fa C745D400 		movl	$0, -44(%rbp)
 480      000000
GAS LISTING /tmp/ccrqlIgG.s 			page 19


 481 0101 EB06     		jmp	.L36
 482              	.L37:
 219:/home/xingli/share/1205tiny/network/mqtt/paho_mqtt/port/paho_mqtt_port.c ****     }
 220:/home/xingli/share/1205tiny/network/mqtt/paho_mqtt/port/paho_mqtt_port.c ****     else
 221:/home/xingli/share/1205tiny/network/mqtt/paho_mqtt/port/paho_mqtt_port.c ****     {
 222:/home/xingli/share/1205tiny/network/mqtt/paho_mqtt/port/paho_mqtt_port.c ****         ret = rcvlen;
 483              		.loc 2 222 13
 484 0103 8B45D8   		movl	-40(%rbp), %eax
 485 0106 8945D4   		movl	%eax, -44(%rbp)
 486              	.L36:
 223:/home/xingli/share/1205tiny/network/mqtt/paho_mqtt/port/paho_mqtt_port.c ****     }
 224:/home/xingli/share/1205tiny/network/mqtt/paho_mqtt/port/paho_mqtt_port.c ****     return ret;
 487              		.loc 2 224 12
 488 0109 8B45D4   		movl	-44(%rbp), %eax
 489              	.L38:
 225:/home/xingli/share/1205tiny/network/mqtt/paho_mqtt/port/paho_mqtt_port.c **** }
 490              		.loc 2 225 1 discriminator 1
 491 010c 488B7DF8 		movq	-8(%rbp), %rdi
 492 0110 6448333C 		xorq	%fs:40, %rdi
 492      25280000 
 492      00
 493 0119 7405     		je	.L39
 494              		.loc 2 225 1 is_stmt 0
 495 011b E8000000 		call	__stack_chk_fail@PLT
 495      00
 496              	.L39:
 497 0120 C9       		leave
 498              	.LCFI17:
 499              		.cfi_def_cfa 7, 8
 500 0121 C3       		ret
 501              		.cfi_endproc
 502              	.LFE11:
 504              		.section	.text.__socket_write,"ax",@progbits
 506              	__socket_write:
 507              	.LFB12:
 226:/home/xingli/share/1205tiny/network/mqtt/paho_mqtt/port/paho_mqtt_port.c **** 
 227:/home/xingli/share/1205tiny/network/mqtt/paho_mqtt/port/paho_mqtt_port.c **** 
 228:/home/xingli/share/1205tiny/network/mqtt/paho_mqtt/port/paho_mqtt_port.c **** ///< receve function: return code:0 means timeout -1:failed  > receive length
 229:/home/xingli/share/1205tiny/network/mqtt/paho_mqtt/port/paho_mqtt_port.c **** static int __socket_write(void *ctx, unsigned char *buf, int len, int timeout)
 230:/home/xingli/share/1205tiny/network/mqtt/paho_mqtt/port/paho_mqtt_port.c **** {
 508              		.loc 2 230 1 is_stmt 1
 509              		.cfi_startproc
 510 0000 F30F1EFA 		endbr64
 511 0004 55       		pushq	%rbp
 512              	.LCFI18:
 513              		.cfi_def_cfa_offset 16
 514              		.cfi_offset 6, -16
 515 0005 4889E5   		movq	%rsp, %rbp
 516              	.LCFI19:
 517              		.cfi_def_cfa_register 6
 518 0008 4883EC50 		subq	$80, %rsp
 519 000c 48897DC8 		movq	%rdi, -56(%rbp)
 520 0010 488975C0 		movq	%rsi, -64(%rbp)
 521 0014 8955BC   		movl	%edx, -68(%rbp)
 522 0017 894DB8   		movl	%ecx, -72(%rbp)
 523              		.loc 2 230 1
 524 001a 64488B04 		movq	%fs:40, %rax
GAS LISTING /tmp/ccrqlIgG.s 			page 20


 524      25280000 
 524      00
 525 0023 488945F8 		movq	%rax, -8(%rbp)
 526 0027 31C0     		xorl	%eax, %eax
 231:/home/xingli/share/1205tiny/network/mqtt/paho_mqtt/port/paho_mqtt_port.c ****     int fd;
 232:/home/xingli/share/1205tiny/network/mqtt/paho_mqtt/port/paho_mqtt_port.c ****     int ret = 0;
 527              		.loc 2 232 9
 528 0029 C745D400 		movl	$0, -44(%rbp)
 528      000000
 233:/home/xingli/share/1205tiny/network/mqtt/paho_mqtt/port/paho_mqtt_port.c ****     int sndlen = -1;
 529              		.loc 2 233 9
 530 0030 C745D8FF 		movl	$-1, -40(%rbp)
 530      FFFFFF
 234:/home/xingli/share/1205tiny/network/mqtt/paho_mqtt/port/paho_mqtt_port.c **** 
 235:/home/xingli/share/1205tiny/network/mqtt/paho_mqtt/port/paho_mqtt_port.c ****     struct timeval timedelay;
 236:/home/xingli/share/1205tiny/network/mqtt/paho_mqtt/port/paho_mqtt_port.c **** 
 237:/home/xingli/share/1205tiny/network/mqtt/paho_mqtt/port/paho_mqtt_port.c ****     if(NULL== buf)
 531              		.loc 2 237 7
 532 0037 48837DC0 		cmpq	$0, -64(%rbp)
 532      00
 533 003c 7508     		jne	.L41
 238:/home/xingli/share/1205tiny/network/mqtt/paho_mqtt/port/paho_mqtt_port.c ****     {
 239:/home/xingli/share/1205tiny/network/mqtt/paho_mqtt/port/paho_mqtt_port.c ****         return ret;
 534              		.loc 2 239 16
 535 003e 8B45D4   		movl	-44(%rbp), %eax
 536 0041 E9C60000 		jmp	.L47
 536      00
 537              	.L41:
 240:/home/xingli/share/1205tiny/network/mqtt/paho_mqtt/port/paho_mqtt_port.c ****     }
 241:/home/xingli/share/1205tiny/network/mqtt/paho_mqtt/port/paho_mqtt_port.c **** 
 242:/home/xingli/share/1205tiny/network/mqtt/paho_mqtt/port/paho_mqtt_port.c ****     fd = (int)(intptr_t)ctx;  ///< THE SOCKET COULD BE ZERO
 538              		.loc 2 242 10
 539 0046 488B45C8 		movq	-56(%rbp), %rax
 540              		.loc 2 242 8
 541 004a 8945DC   		movl	%eax, -36(%rbp)
 243:/home/xingli/share/1205tiny/network/mqtt/paho_mqtt/port/paho_mqtt_port.c **** 
 244:/home/xingli/share/1205tiny/network/mqtt/paho_mqtt/port/paho_mqtt_port.c ****     timedelay.tv_sec = timeout/1000;
 542              		.loc 2 244 31
 543 004d 8B45B8   		movl	-72(%rbp), %eax
 544 0050 4863D0   		movslq	%eax, %rdx
 545 0053 4869D2D3 		imulq	$274877907, %rdx, %rdx
 545      4D6210
 546 005a 48C1EA20 		shrq	$32, %rdx
 547 005e C1FA06   		sarl	$6, %edx
 548 0061 C1F81F   		sarl	$31, %eax
 549 0064 29C2     		subl	%eax, %edx
 550 0066 89D0     		movl	%edx, %eax
 551 0068 4898     		cltq
 552              		.loc 2 244 22
 553 006a 488945E0 		movq	%rax, -32(%rbp)
 245:/home/xingli/share/1205tiny/network/mqtt/paho_mqtt/port/paho_mqtt_port.c ****     timedelay.tv_usec = (timeout%1000)*1000;
 554              		.loc 2 245 33
 555 006e 8B45B8   		movl	-72(%rbp), %eax
 556 0071 4863D0   		movslq	%eax, %rdx
 557 0074 4869D2D3 		imulq	$274877907, %rdx, %rdx
 557      4D6210
 558 007b 48C1EA20 		shrq	$32, %rdx
GAS LISTING /tmp/ccrqlIgG.s 			page 21


 559 007f 89D1     		movl	%edx, %ecx
 560 0081 C1F906   		sarl	$6, %ecx
 561 0084 99       		cltd
 562 0085 29D1     		subl	%edx, %ecx
 563 0087 89CA     		movl	%ecx, %edx
 564 0089 69D2E803 		imull	$1000, %edx, %edx
 564      0000
 565 008f 29D0     		subl	%edx, %eax
 566 0091 89C2     		movl	%eax, %edx
 567              		.loc 2 245 39
 568 0093 69C2E803 		imull	$1000, %edx, %eax
 568      0000
 569 0099 4898     		cltq
 570              		.loc 2 245 23
 571 009b 488945E8 		movq	%rax, -24(%rbp)
 246:/home/xingli/share/1205tiny/network/mqtt/paho_mqtt/port/paho_mqtt_port.c **** 
 247:/home/xingli/share/1205tiny/network/mqtt/paho_mqtt/port/paho_mqtt_port.c ****     ///< set the recv timeout
 248:/home/xingli/share/1205tiny/network/mqtt/paho_mqtt/port/paho_mqtt_port.c ****     if(0 != sal_setsockopt(fd,SOL_SOCKET,SO_SNDTIMEO,&timedelay,sizeof(timedelay)))
 572              		.loc 2 248 13
 573 009f 488D55E0 		leaq	-32(%rbp), %rdx
 574 00a3 8B45DC   		movl	-36(%rbp), %eax
 575 00a6 41B81000 		movl	$16, %r8d
 575      0000
 576 00ac 4889D1   		movq	%rdx, %rcx
 577 00af BA051000 		movl	$4101, %edx
 577      00
 578 00b4 BEFFFF00 		movl	$65535, %esi
 578      00
 579 00b9 89C7     		movl	%eax, %edi
 580 00bb E8000000 		call	sal_setsockopt@PLT
 580      00
 581              		.loc 2 248 7
 582 00c0 85C0     		testl	%eax, %eax
 583 00c2 7405     		je	.L43
 249:/home/xingli/share/1205tiny/network/mqtt/paho_mqtt/port/paho_mqtt_port.c ****     {
 250:/home/xingli/share/1205tiny/network/mqtt/paho_mqtt/port/paho_mqtt_port.c ****         return ret;  //could not support the rcv timeout
 584              		.loc 2 250 16
 585 00c4 8B45D4   		movl	-44(%rbp), %eax
 586 00c7 EB43     		jmp	.L47
 587              	.L43:
 251:/home/xingli/share/1205tiny/network/mqtt/paho_mqtt/port/paho_mqtt_port.c ****     }
 252:/home/xingli/share/1205tiny/network/mqtt/paho_mqtt/port/paho_mqtt_port.c **** 
 253:/home/xingli/share/1205tiny/network/mqtt/paho_mqtt/port/paho_mqtt_port.c ****     sndlen = sal_send(fd,buf,len,0);
 588              		.loc 2 253 14
 589 00c9 8B45BC   		movl	-68(%rbp), %eax
 590 00cc 4863D0   		movslq	%eax, %rdx
 591 00cf 488B75C0 		movq	-64(%rbp), %rsi
 592 00d3 8B45DC   		movl	-36(%rbp), %eax
 593 00d6 B9000000 		movl	$0, %ecx
 593      00
 594 00db 89C7     		movl	%eax, %edi
 595 00dd E8000000 		call	sal_send@PLT
 595      00
 596 00e2 8945D8   		movl	%eax, -40(%rbp)
 254:/home/xingli/share/1205tiny/network/mqtt/paho_mqtt/port/paho_mqtt_port.c ****     if(sndlen == 0)
 597              		.loc 2 254 7
 598 00e5 837DD800 		cmpl	$0, -40(%rbp)
GAS LISTING /tmp/ccrqlIgG.s 			page 22


 599 00e9 7509     		jne	.L44
 255:/home/xingli/share/1205tiny/network/mqtt/paho_mqtt/port/paho_mqtt_port.c ****     {
 256:/home/xingli/share/1205tiny/network/mqtt/paho_mqtt/port/paho_mqtt_port.c ****         ret = -1;
 600              		.loc 2 256 13
 601 00eb C745D4FF 		movl	$-1, -44(%rbp)
 601      FFFFFF
 602 00f2 EB15     		jmp	.L45
 603              	.L44:
 257:/home/xingli/share/1205tiny/network/mqtt/paho_mqtt/port/paho_mqtt_port.c ****     }
 258:/home/xingli/share/1205tiny/network/mqtt/paho_mqtt/port/paho_mqtt_port.c ****     else if(sndlen < 0)
 604              		.loc 2 258 12
 605 00f4 837DD800 		cmpl	$0, -40(%rbp)
 606 00f8 7909     		jns	.L46
 259:/home/xingli/share/1205tiny/network/mqtt/paho_mqtt/port/paho_mqtt_port.c ****     {
 260:/home/xingli/share/1205tiny/network/mqtt/paho_mqtt/port/paho_mqtt_port.c ****         ret = 0;
 607              		.loc 2 260 13
 608 00fa C745D400 		movl	$0, -44(%rbp)
 608      000000
 609 0101 EB06     		jmp	.L45
 610              	.L46:
 261:/home/xingli/share/1205tiny/network/mqtt/paho_mqtt/port/paho_mqtt_port.c ****     }
 262:/home/xingli/share/1205tiny/network/mqtt/paho_mqtt/port/paho_mqtt_port.c ****     else
 263:/home/xingli/share/1205tiny/network/mqtt/paho_mqtt/port/paho_mqtt_port.c ****     {
 264:/home/xingli/share/1205tiny/network/mqtt/paho_mqtt/port/paho_mqtt_port.c ****         ret = sndlen;
 611              		.loc 2 264 13
 612 0103 8B45D8   		movl	-40(%rbp), %eax
 613 0106 8945D4   		movl	%eax, -44(%rbp)
 614              	.L45:
 265:/home/xingli/share/1205tiny/network/mqtt/paho_mqtt/port/paho_mqtt_port.c ****     }
 266:/home/xingli/share/1205tiny/network/mqtt/paho_mqtt/port/paho_mqtt_port.c ****     return ret;
 615              		.loc 2 266 12
 616 0109 8B45D4   		movl	-44(%rbp), %eax
 617              	.L47:
 267:/home/xingli/share/1205tiny/network/mqtt/paho_mqtt/port/paho_mqtt_port.c **** }
 618              		.loc 2 267 1 discriminator 1
 619 010c 488B7DF8 		movq	-8(%rbp), %rdi
 620 0110 6448333C 		xorq	%fs:40, %rdi
 620      25280000 
 620      00
 621 0119 7405     		je	.L48
 622              		.loc 2 267 1 is_stmt 0
 623 011b E8000000 		call	__stack_chk_fail@PLT
 623      00
 624              	.L48:
 625 0120 C9       		leave
 626              	.LCFI20:
 627              		.cfi_def_cfa 7, 8
 628 0121 C3       		ret
 629              		.cfi_endproc
 630              	.LFE12:
 632              		.section	.text.__socket_disconnect,"ax",@progbits
 634              	__socket_disconnect:
 635              	.LFB13:
 268:/home/xingli/share/1205tiny/network/mqtt/paho_mqtt/port/paho_mqtt_port.c **** static void __socket_disconnect(void *ctx)
 269:/home/xingli/share/1205tiny/network/mqtt/paho_mqtt/port/paho_mqtt_port.c **** {
 636              		.loc 2 269 1 is_stmt 1
 637              		.cfi_startproc
GAS LISTING /tmp/ccrqlIgG.s 			page 23


 638 0000 F30F1EFA 		endbr64
 639 0004 55       		pushq	%rbp
 640              	.LCFI21:
 641              		.cfi_def_cfa_offset 16
 642              		.cfi_offset 6, -16
 643 0005 4889E5   		movq	%rsp, %rbp
 644              	.LCFI22:
 645              		.cfi_def_cfa_register 6
 646 0008 4883EC20 		subq	$32, %rsp
 647 000c 48897DE8 		movq	%rdi, -24(%rbp)
 648              		.loc 2 269 1
 649 0010 64488B04 		movq	%fs:40, %rax
 649      25280000 
 649      00
 650 0019 488945F8 		movq	%rax, -8(%rbp)
 651 001d 31C0     		xorl	%eax, %eax
 270:/home/xingli/share/1205tiny/network/mqtt/paho_mqtt/port/paho_mqtt_port.c ****     (void) sal_closesocket((int)(intptr_t)ctx);
 652              		.loc 2 270 12
 653 001f 488B45E8 		movq	-24(%rbp), %rax
 654 0023 89C7     		movl	%eax, %edi
 655 0025 E8000000 		call	sal_closesocket@PLT
 655      00
 271:/home/xingli/share/1205tiny/network/mqtt/paho_mqtt/port/paho_mqtt_port.c ****     return;
 656              		.loc 2 271 5
 657 002a 90       		nop
 272:/home/xingli/share/1205tiny/network/mqtt/paho_mqtt/port/paho_mqtt_port.c **** }
 658              		.loc 2 272 1
 659 002b 488B45F8 		movq	-8(%rbp), %rax
 660 002f 64483304 		xorq	%fs:40, %rax
 660      25280000 
 660      00
 661 0038 7405     		je	.L51
 662 003a E8000000 		call	__stack_chk_fail@PLT
 662      00
 663              	.L51:
 664 003f C9       		leave
 665              	.LCFI23:
 666              		.cfi_def_cfa 7, 8
 667 0040 C3       		ret
 668              		.cfi_endproc
 669              	.LFE13:
 671              		.section	.text.__socket_connect,"ax",@progbits
 673              	__socket_connect:
 674              	.LFB14:
 273:/home/xingli/share/1205tiny/network/mqtt/paho_mqtt/port/paho_mqtt_port.c **** static int __socket_connect(Network *n, const char *host, int port)
 274:/home/xingli/share/1205tiny/network/mqtt/paho_mqtt/port/paho_mqtt_port.c **** {
 675              		.loc 2 274 1
 676              		.cfi_startproc
 677 0000 F30F1EFA 		endbr64
 678 0004 55       		pushq	%rbp
 679              	.LCFI24:
 680              		.cfi_def_cfa_offset 16
 681              		.cfi_offset 6, -16
 682 0005 4889E5   		movq	%rsp, %rbp
 683              	.LCFI25:
 684              		.cfi_def_cfa_register 6
 685 0008 4883EC50 		subq	$80, %rsp
GAS LISTING /tmp/ccrqlIgG.s 			page 24


 686 000c 48897DC8 		movq	%rdi, -56(%rbp)
 687 0010 488975C0 		movq	%rsi, -64(%rbp)
 688 0014 8955BC   		movl	%edx, -68(%rbp)
 689              		.loc 2 274 1
 690 0017 64488B04 		movq	%fs:40, %rax
 690      25280000 
 690      00
 691 0020 488945F8 		movq	%rax, -8(%rbp)
 692 0024 31C0     		xorl	%eax, %eax
 275:/home/xingli/share/1205tiny/network/mqtt/paho_mqtt/port/paho_mqtt_port.c ****     int ret = -1;
 693              		.loc 2 275 9
 694 0026 C745D0FF 		movl	$-1, -48(%rbp)
 694      FFFFFF
 276:/home/xingli/share/1205tiny/network/mqtt/paho_mqtt/port/paho_mqtt_port.c ****     int fd = -1;
 695              		.loc 2 276 9
 696 002d C745D4FF 		movl	$-1, -44(%rbp)
 696      FFFFFF
 277:/home/xingli/share/1205tiny/network/mqtt/paho_mqtt/port/paho_mqtt_port.c ****     struct sockaddr_in addr;
 278:/home/xingli/share/1205tiny/network/mqtt/paho_mqtt/port/paho_mqtt_port.c **** 
 279:/home/xingli/share/1205tiny/network/mqtt/paho_mqtt/port/paho_mqtt_port.c ****     ///< first we try use the gethostbyname to get the ip address, the host maybe a domain name
 280:/home/xingli/share/1205tiny/network/mqtt/paho_mqtt/port/paho_mqtt_port.c ****     struct hostent* entry = NULL;
 697              		.loc 2 280 21
 698 0034 48C745D8 		movq	$0, -40(%rbp)
 698      00000000 
 281:/home/xingli/share/1205tiny/network/mqtt/paho_mqtt/port/paho_mqtt_port.c ****     entry = sal_gethostbyname(host);
 699              		.loc 2 281 13
 700 003c 488B45C0 		movq	-64(%rbp), %rax
 701 0040 4889C7   		movq	%rax, %rdi
 702 0043 E8000000 		call	sal_gethostbyname@PLT
 702      00
 703 0048 488945D8 		movq	%rax, -40(%rbp)
 282:/home/xingli/share/1205tiny/network/mqtt/paho_mqtt/port/paho_mqtt_port.c ****     if( !(entry && entry->h_addr_list[0] && (entry->h_addrtype == AF_INET)))
 704              		.loc 2 282 7
 705 004c 48837DD8 		cmpq	$0, -40(%rbp)
 705      00
 706 0051 741C     		je	.L53
 707              		.loc 2 282 25 discriminator 1
 708 0053 488B45D8 		movq	-40(%rbp), %rax
 709 0057 488B4018 		movq	24(%rax), %rax
 710              		.loc 2 282 38 discriminator 1
 711 005b 488B00   		movq	(%rax), %rax
 712              		.loc 2 282 17 discriminator 1
 713 005e 4885C0   		testq	%rax, %rax
 714 0061 740C     		je	.L53
 715              		.loc 2 282 51 discriminator 2
 716 0063 488B45D8 		movq	-40(%rbp), %rax
 717 0067 8B4010   		movl	16(%rax), %eax
 718              		.loc 2 282 9 discriminator 2
 719 006a 83F802   		cmpl	$2, %eax
 720 006d 7408     		je	.L54
 721              	.L53:
 283:/home/xingli/share/1205tiny/network/mqtt/paho_mqtt/port/paho_mqtt_port.c ****     {
 284:/home/xingli/share/1205tiny/network/mqtt/paho_mqtt/port/paho_mqtt_port.c ****        return ret;
 722              		.loc 2 284 15
 723 006f 8B45D0   		movl	-48(%rbp), %eax
 724 0072 E9A90000 		jmp	.L59
 724      00
GAS LISTING /tmp/ccrqlIgG.s 			page 25


 725              	.L54:
 285:/home/xingli/share/1205tiny/network/mqtt/paho_mqtt/port/paho_mqtt_port.c ****     }
 286:/home/xingli/share/1205tiny/network/mqtt/paho_mqtt/port/paho_mqtt_port.c **** 
 287:/home/xingli/share/1205tiny/network/mqtt/paho_mqtt/port/paho_mqtt_port.c ****     fd = sal_socket(AF_INET,SOCK_STREAM,0);
 726              		.loc 2 287 10
 727 0077 BA000000 		movl	$0, %edx
 727      00
 728 007c BE010000 		movl	$1, %esi
 728      00
 729 0081 BF020000 		movl	$2, %edi
 729      00
 730 0086 E8000000 		call	sal_socket@PLT
 730      00
 731 008b 8945D4   		movl	%eax, -44(%rbp)
 288:/home/xingli/share/1205tiny/network/mqtt/paho_mqtt/port/paho_mqtt_port.c ****     if(fd == -1)
 732              		.loc 2 288 7
 733 008e 837DD4FF 		cmpl	$-1, -44(%rbp)
 734 0092 7508     		jne	.L56
 289:/home/xingli/share/1205tiny/network/mqtt/paho_mqtt/port/paho_mqtt_port.c ****     {
 290:/home/xingli/share/1205tiny/network/mqtt/paho_mqtt/port/paho_mqtt_port.c ****         return ret;
 735              		.loc 2 290 16
 736 0094 8B45D0   		movl	-48(%rbp), %eax
 737 0097 E9840000 		jmp	.L59
 737      00
 738              	.L56:
 291:/home/xingli/share/1205tiny/network/mqtt/paho_mqtt/port/paho_mqtt_port.c ****     }
 292:/home/xingli/share/1205tiny/network/mqtt/paho_mqtt/port/paho_mqtt_port.c **** 
 293:/home/xingli/share/1205tiny/network/mqtt/paho_mqtt/port/paho_mqtt_port.c **** 
 294:/home/xingli/share/1205tiny/network/mqtt/paho_mqtt/port/paho_mqtt_port.c ****     (void) memset(&addr,0,sizeof(addr));
 739              		.loc 2 294 12
 740 009c 488D45E0 		leaq	-32(%rbp), %rax
 741 00a0 BA100000 		movl	$16, %edx
 741      00
 742 00a5 BE000000 		movl	$0, %esi
 742      00
 743 00aa 4889C7   		movq	%rax, %rdi
 744 00ad E8000000 		call	memset@PLT
 744      00
 295:/home/xingli/share/1205tiny/network/mqtt/paho_mqtt/port/paho_mqtt_port.c ****     addr.sin_family = AF_INET;
 745              		.loc 2 295 21
 746 00b2 66C745E0 		movw	$2, -32(%rbp)
 746      0200
 296:/home/xingli/share/1205tiny/network/mqtt/paho_mqtt/port/paho_mqtt_port.c ****     (void) memcpy(&addr.sin_addr.s_addr,entry->h_addr_list[0],sizeof(addr.sin_addr.s_addr));
 747              		.loc 2 296 46
 748 00b8 488B45D8 		movq	-40(%rbp), %rax
 749 00bc 488B4018 		movq	24(%rax), %rax
 750              		.loc 2 296 12
 751 00c0 488B00   		movq	(%rax), %rax
 752 00c3 8B00     		movl	(%rax), %eax
 753 00c5 8945E4   		movl	%eax, -28(%rbp)
 297:/home/xingli/share/1205tiny/network/mqtt/paho_mqtt/port/paho_mqtt_port.c ****     addr.sin_port = htons(((uint16_t)port));
 754              		.loc 2 297 21
 755 00c8 8B45BC   		movl	-68(%rbp), %eax
 756 00cb 66C1E808 		shrw	$8, %ax
 757 00cf 89C2     		movl	%eax, %edx
 758 00d1 8B45BC   		movl	-68(%rbp), %eax
 759 00d4 0FB7C0   		movzwl	%ax, %eax
GAS LISTING /tmp/ccrqlIgG.s 			page 26


 760 00d7 C1E008   		sall	$8, %eax
 761 00da 09D0     		orl	%edx, %eax
 762              		.loc 2 297 19
 763 00dc 668945E2 		movw	%ax, -30(%rbp)
 298:/home/xingli/share/1205tiny/network/mqtt/paho_mqtt/port/paho_mqtt_port.c **** 
 299:/home/xingli/share/1205tiny/network/mqtt/paho_mqtt/port/paho_mqtt_port.c ****     if(-1 == sal_connect(fd,(struct sockaddr *)&addr,sizeof(addr)))
 764              		.loc 2 299 14
 765 00e0 488D4DE0 		leaq	-32(%rbp), %rcx
 766 00e4 8B45D4   		movl	-44(%rbp), %eax
 767 00e7 BA100000 		movl	$16, %edx
 767      00
 768 00ec 4889CE   		movq	%rcx, %rsi
 769 00ef 89C7     		movl	%eax, %edi
 770 00f1 E8000000 		call	sal_connect@PLT
 770      00
 771              		.loc 2 299 7
 772 00f6 83F8FF   		cmpl	$-1, %eax
 773 00f9 750C     		jne	.L57
 300:/home/xingli/share/1205tiny/network/mqtt/paho_mqtt/port/paho_mqtt_port.c ****     {
 301:/home/xingli/share/1205tiny/network/mqtt/paho_mqtt/port/paho_mqtt_port.c ****         (void) sal_closesocket(fd);
 774              		.loc 2 301 16
 775 00fb 8B45D4   		movl	-44(%rbp), %eax
 776 00fe 89C7     		movl	%eax, %edi
 777 0100 E8000000 		call	sal_closesocket@PLT
 777      00
 778 0105 EB16     		jmp	.L58
 779              	.L57:
 302:/home/xingli/share/1205tiny/network/mqtt/paho_mqtt/port/paho_mqtt_port.c ****     }
 303:/home/xingli/share/1205tiny/network/mqtt/paho_mqtt/port/paho_mqtt_port.c ****     else
 304:/home/xingli/share/1205tiny/network/mqtt/paho_mqtt/port/paho_mqtt_port.c ****     {
 305:/home/xingli/share/1205tiny/network/mqtt/paho_mqtt/port/paho_mqtt_port.c ****         ret = 0;
 780              		.loc 2 305 13
 781 0107 C745D000 		movl	$0, -48(%rbp)
 781      000000
 306:/home/xingli/share/1205tiny/network/mqtt/paho_mqtt/port/paho_mqtt_port.c ****         n->ctx = (void *)(intptr_t)fd;
 782              		.loc 2 306 26
 783 010e 8B45D4   		movl	-44(%rbp), %eax
 784 0111 4898     		cltq
 785              		.loc 2 306 18
 786 0113 4889C2   		movq	%rax, %rdx
 787              		.loc 2 306 16
 788 0116 488B45C8 		movq	-56(%rbp), %rax
 789 011a 488910   		movq	%rdx, (%rax)
 790              	.L58:
 307:/home/xingli/share/1205tiny/network/mqtt/paho_mqtt/port/paho_mqtt_port.c ****     }
 308:/home/xingli/share/1205tiny/network/mqtt/paho_mqtt/port/paho_mqtt_port.c **** 
 309:/home/xingli/share/1205tiny/network/mqtt/paho_mqtt/port/paho_mqtt_port.c ****     return ret;
 791              		.loc 2 309 12
 792 011d 8B45D0   		movl	-48(%rbp), %eax
 793              	.L59:
 310:/home/xingli/share/1205tiny/network/mqtt/paho_mqtt/port/paho_mqtt_port.c **** }
 794              		.loc 2 310 1 discriminator 1
 795 0120 488B4DF8 		movq	-8(%rbp), %rcx
 796 0124 6448330C 		xorq	%fs:40, %rcx
 796      25280000 
 796      00
 797 012d 7405     		je	.L60
GAS LISTING /tmp/ccrqlIgG.s 			page 27


 798              		.loc 2 310 1 is_stmt 0
 799 012f E8000000 		call	__stack_chk_fail@PLT
 799      00
 800              	.L60:
 801 0134 C9       		leave
 802              	.LCFI26:
 803              		.cfi_def_cfa 7, 8
 804 0135 C3       		ret
 805              		.cfi_endproc
 806              	.LFE14:
 808              		.section	.text.__io_read,"ax",@progbits
 810              	__io_read:
 811              	.LFB15:
 311:/home/xingli/share/1205tiny/network/mqtt/paho_mqtt/port/paho_mqtt_port.c **** 
 312:/home/xingli/share/1205tiny/network/mqtt/paho_mqtt/port/paho_mqtt_port.c **** 
 313:/home/xingli/share/1205tiny/network/mqtt/paho_mqtt/port/paho_mqtt_port.c **** 
 314:/home/xingli/share/1205tiny/network/mqtt/paho_mqtt/port/paho_mqtt_port.c **** 
 315:/home/xingli/share/1205tiny/network/mqtt/paho_mqtt/port/paho_mqtt_port.c **** static int __io_read(Network *n, unsigned char *buffer, int len, int timeout_ms)
 316:/home/xingli/share/1205tiny/network/mqtt/paho_mqtt/port/paho_mqtt_port.c **** {
 812              		.loc 2 316 1 is_stmt 1
 813              		.cfi_startproc
 814 0000 F30F1EFA 		endbr64
 815 0004 55       		pushq	%rbp
 816              	.LCFI27:
 817              		.cfi_def_cfa_offset 16
 818              		.cfi_offset 6, -16
 819 0005 4889E5   		movq	%rsp, %rbp
 820              	.LCFI28:
 821              		.cfi_def_cfa_register 6
 822 0008 4883EC30 		subq	$48, %rsp
 823 000c 48897DE8 		movq	%rdi, -24(%rbp)
 824 0010 488975E0 		movq	%rsi, -32(%rbp)
 825 0014 8955DC   		movl	%edx, -36(%rbp)
 826 0017 894DD8   		movl	%ecx, -40(%rbp)
 827              		.loc 2 316 1
 828 001a 64488B04 		movq	%fs:40, %rax
 828      25280000 
 828      00
 829 0023 488945F8 		movq	%rax, -8(%rbp)
 830 0027 31C0     		xorl	%eax, %eax
 317:/home/xingli/share/1205tiny/network/mqtt/paho_mqtt/port/paho_mqtt_port.c ****     int ret = -1;
 831              		.loc 2 317 9
 832 0029 C745F4FF 		movl	$-1, -12(%rbp)
 832      FFFFFF
 318:/home/xingli/share/1205tiny/network/mqtt/paho_mqtt/port/paho_mqtt_port.c **** 
 319:/home/xingli/share/1205tiny/network/mqtt/paho_mqtt/port/paho_mqtt_port.c ****     if(n->arg.type == EN_DTLS_AL_SECURITY_TYPE_NONE)
 833              		.loc 2 319 14
 834 0030 488B45E8 		movq	-24(%rbp), %rax
 835 0034 8B4008   		movl	8(%rax), %eax
 836              		.loc 2 319 7
 837 0037 85C0     		testl	%eax, %eax
 838 0039 751E     		jne	.L62
 320:/home/xingli/share/1205tiny/network/mqtt/paho_mqtt/port/paho_mqtt_port.c ****     {
 321:/home/xingli/share/1205tiny/network/mqtt/paho_mqtt/port/paho_mqtt_port.c ****         ret = __socket_read(n->ctx, buffer, len, timeout_ms);
 839              		.loc 2 321 15
 840 003b 488B45E8 		movq	-24(%rbp), %rax
 841 003f 488B00   		movq	(%rax), %rax
GAS LISTING /tmp/ccrqlIgG.s 			page 28


 842 0042 8B4DD8   		movl	-40(%rbp), %ecx
 843 0045 8B55DC   		movl	-36(%rbp), %edx
 844 0048 488B75E0 		movq	-32(%rbp), %rsi
 845 004c 4889C7   		movq	%rax, %rdi
 846 004f E8000000 		call	__socket_read
 846      00
 847 0054 8945F4   		movl	%eax, -12(%rbp)
 848 0057 EB1C     		jmp	.L63
 849              	.L62:
 322:/home/xingli/share/1205tiny/network/mqtt/paho_mqtt/port/paho_mqtt_port.c ****     }
 323:/home/xingli/share/1205tiny/network/mqtt/paho_mqtt/port/paho_mqtt_port.c ****     else
 324:/home/xingli/share/1205tiny/network/mqtt/paho_mqtt/port/paho_mqtt_port.c ****     {
 325:/home/xingli/share/1205tiny/network/mqtt/paho_mqtt/port/paho_mqtt_port.c ****         ret = __tls_read(n->ctx, buffer, len, timeout_ms);
 850              		.loc 2 325 15
 851 0059 488B45E8 		movq	-24(%rbp), %rax
 852 005d 488B00   		movq	(%rax), %rax
 853 0060 8B4DD8   		movl	-40(%rbp), %ecx
 854 0063 8B55DC   		movl	-36(%rbp), %edx
 855 0066 488B75E0 		movq	-32(%rbp), %rsi
 856 006a 4889C7   		movq	%rax, %rdi
 857 006d E8000000 		call	__tls_read
 857      00
 858 0072 8945F4   		movl	%eax, -12(%rbp)
 859              	.L63:
 326:/home/xingli/share/1205tiny/network/mqtt/paho_mqtt/port/paho_mqtt_port.c ****     }
 327:/home/xingli/share/1205tiny/network/mqtt/paho_mqtt/port/paho_mqtt_port.c **** 
 328:/home/xingli/share/1205tiny/network/mqtt/paho_mqtt/port/paho_mqtt_port.c ****     return ret;
 860              		.loc 2 328 12
 861 0075 8B45F4   		movl	-12(%rbp), %eax
 329:/home/xingli/share/1205tiny/network/mqtt/paho_mqtt/port/paho_mqtt_port.c **** }
 862              		.loc 2 329 1
 863 0078 488B7DF8 		movq	-8(%rbp), %rdi
 864 007c 6448333C 		xorq	%fs:40, %rdi
 864      25280000 
 864      00
 865 0085 7405     		je	.L65
 866 0087 E8000000 		call	__stack_chk_fail@PLT
 866      00
 867              	.L65:
 868 008c C9       		leave
 869              	.LCFI29:
 870              		.cfi_def_cfa 7, 8
 871 008d C3       		ret
 872              		.cfi_endproc
 873              	.LFE15:
 875              		.section	.text.__io_write,"ax",@progbits
 877              	__io_write:
 878              	.LFB16:
 330:/home/xingli/share/1205tiny/network/mqtt/paho_mqtt/port/paho_mqtt_port.c **** 
 331:/home/xingli/share/1205tiny/network/mqtt/paho_mqtt/port/paho_mqtt_port.c **** static int __io_write(Network *n, unsigned char *buffer, int len, int timeout_ms)
 332:/home/xingli/share/1205tiny/network/mqtt/paho_mqtt/port/paho_mqtt_port.c **** {
 879              		.loc 2 332 1
 880              		.cfi_startproc
 881 0000 F30F1EFA 		endbr64
 882 0004 55       		pushq	%rbp
 883              	.LCFI30:
 884              		.cfi_def_cfa_offset 16
GAS LISTING /tmp/ccrqlIgG.s 			page 29


 885              		.cfi_offset 6, -16
 886 0005 4889E5   		movq	%rsp, %rbp
 887              	.LCFI31:
 888              		.cfi_def_cfa_register 6
 889 0008 4883EC30 		subq	$48, %rsp
 890 000c 48897DE8 		movq	%rdi, -24(%rbp)
 891 0010 488975E0 		movq	%rsi, -32(%rbp)
 892 0014 8955DC   		movl	%edx, -36(%rbp)
 893 0017 894DD8   		movl	%ecx, -40(%rbp)
 894              		.loc 2 332 1
 895 001a 64488B04 		movq	%fs:40, %rax
 895      25280000 
 895      00
 896 0023 488945F8 		movq	%rax, -8(%rbp)
 897 0027 31C0     		xorl	%eax, %eax
 333:/home/xingli/share/1205tiny/network/mqtt/paho_mqtt/port/paho_mqtt_port.c ****     int ret = -1;
 898              		.loc 2 333 9
 899 0029 C745F4FF 		movl	$-1, -12(%rbp)
 899      FFFFFF
 334:/home/xingli/share/1205tiny/network/mqtt/paho_mqtt/port/paho_mqtt_port.c **** 
 335:/home/xingli/share/1205tiny/network/mqtt/paho_mqtt/port/paho_mqtt_port.c ****     if(n->arg.type == EN_DTLS_AL_SECURITY_TYPE_NONE)
 900              		.loc 2 335 14
 901 0030 488B45E8 		movq	-24(%rbp), %rax
 902 0034 8B4008   		movl	8(%rax), %eax
 903              		.loc 2 335 7
 904 0037 85C0     		testl	%eax, %eax
 905 0039 751E     		jne	.L67
 336:/home/xingli/share/1205tiny/network/mqtt/paho_mqtt/port/paho_mqtt_port.c ****     {
 337:/home/xingli/share/1205tiny/network/mqtt/paho_mqtt/port/paho_mqtt_port.c ****         ret = __socket_write(n->ctx, buffer, len, timeout_ms);
 906              		.loc 2 337 15
 907 003b 488B45E8 		movq	-24(%rbp), %rax
 908 003f 488B00   		movq	(%rax), %rax
 909 0042 8B4DD8   		movl	-40(%rbp), %ecx
 910 0045 8B55DC   		movl	-36(%rbp), %edx
 911 0048 488B75E0 		movq	-32(%rbp), %rsi
 912 004c 4889C7   		movq	%rax, %rdi
 913 004f E8000000 		call	__socket_write
 913      00
 914 0054 8945F4   		movl	%eax, -12(%rbp)
 915 0057 EB1C     		jmp	.L68
 916              	.L67:
 338:/home/xingli/share/1205tiny/network/mqtt/paho_mqtt/port/paho_mqtt_port.c ****     }
 339:/home/xingli/share/1205tiny/network/mqtt/paho_mqtt/port/paho_mqtt_port.c ****     else
 340:/home/xingli/share/1205tiny/network/mqtt/paho_mqtt/port/paho_mqtt_port.c ****     {
 341:/home/xingli/share/1205tiny/network/mqtt/paho_mqtt/port/paho_mqtt_port.c ****         ret = __tls_write(n->ctx, buffer, len,timeout_ms);
 917              		.loc 2 341 15
 918 0059 488B45E8 		movq	-24(%rbp), %rax
 919 005d 488B00   		movq	(%rax), %rax
 920 0060 8B4DD8   		movl	-40(%rbp), %ecx
 921 0063 8B55DC   		movl	-36(%rbp), %edx
 922 0066 488B75E0 		movq	-32(%rbp), %rsi
 923 006a 4889C7   		movq	%rax, %rdi
 924 006d E8000000 		call	__tls_write
 924      00
 925 0072 8945F4   		movl	%eax, -12(%rbp)
 926              	.L68:
 342:/home/xingli/share/1205tiny/network/mqtt/paho_mqtt/port/paho_mqtt_port.c ****     }
GAS LISTING /tmp/ccrqlIgG.s 			page 30


 343:/home/xingli/share/1205tiny/network/mqtt/paho_mqtt/port/paho_mqtt_port.c ****     return ret;
 927              		.loc 2 343 12
 928 0075 8B45F4   		movl	-12(%rbp), %eax
 344:/home/xingli/share/1205tiny/network/mqtt/paho_mqtt/port/paho_mqtt_port.c **** }
 929              		.loc 2 344 1
 930 0078 488B7DF8 		movq	-8(%rbp), %rdi
 931 007c 6448333C 		xorq	%fs:40, %rdi
 931      25280000 
 931      00
 932 0085 7405     		je	.L70
 933 0087 E8000000 		call	__stack_chk_fail@PLT
 933      00
 934              	.L70:
 935 008c C9       		leave
 936              	.LCFI32:
 937              		.cfi_def_cfa 7, 8
 938 008d C3       		ret
 939              		.cfi_endproc
 940              	.LFE16:
 942              		.section	.text.__io_connect,"ax",@progbits
 944              	__io_connect:
 945              	.LFB17:
 345:/home/xingli/share/1205tiny/network/mqtt/paho_mqtt/port/paho_mqtt_port.c **** 
 346:/home/xingli/share/1205tiny/network/mqtt/paho_mqtt/port/paho_mqtt_port.c **** static int __io_connect(Network *n, const char *addr, int port)
 347:/home/xingli/share/1205tiny/network/mqtt/paho_mqtt/port/paho_mqtt_port.c **** {
 946              		.loc 2 347 1
 947              		.cfi_startproc
 948 0000 F30F1EFA 		endbr64
 949 0004 55       		pushq	%rbp
 950              	.LCFI33:
 951              		.cfi_def_cfa_offset 16
 952              		.cfi_offset 6, -16
 953 0005 4889E5   		movq	%rsp, %rbp
 954              	.LCFI34:
 955              		.cfi_def_cfa_register 6
 956 0008 4883EC30 		subq	$48, %rsp
 957 000c 48897DE8 		movq	%rdi, -24(%rbp)
 958 0010 488975E0 		movq	%rsi, -32(%rbp)
 959 0014 8955DC   		movl	%edx, -36(%rbp)
 960              		.loc 2 347 1
 961 0017 64488B04 		movq	%fs:40, %rax
 961      25280000 
 961      00
 962 0020 488945F8 		movq	%rax, -8(%rbp)
 963 0024 31C0     		xorl	%eax, %eax
 348:/home/xingli/share/1205tiny/network/mqtt/paho_mqtt/port/paho_mqtt_port.c ****     int ret = -1;
 964              		.loc 2 348 9
 965 0026 C745F4FF 		movl	$-1, -12(%rbp)
 965      FFFFFF
 349:/home/xingli/share/1205tiny/network/mqtt/paho_mqtt/port/paho_mqtt_port.c **** 
 350:/home/xingli/share/1205tiny/network/mqtt/paho_mqtt/port/paho_mqtt_port.c ****     if((NULL == n) || (NULL == addr ))
 966              		.loc 2 350 7
 967 002d 48837DE8 		cmpq	$0, -24(%rbp)
 967      00
 968 0032 7407     		je	.L72
 969              		.loc 2 350 20 discriminator 1
 970 0034 48837DE0 		cmpq	$0, -32(%rbp)
GAS LISTING /tmp/ccrqlIgG.s 			page 31


 970      00
 971 0039 7507     		jne	.L73
 972              	.L72:
 351:/home/xingli/share/1205tiny/network/mqtt/paho_mqtt/port/paho_mqtt_port.c ****     {
 352:/home/xingli/share/1205tiny/network/mqtt/paho_mqtt/port/paho_mqtt_port.c ****         return -1;
 973              		.loc 2 352 16
 974 003b B8FFFFFF 		movl	$-1, %eax
 974      FF
 975 0040 EB42     		jmp	.L74
 976              	.L73:
 353:/home/xingli/share/1205tiny/network/mqtt/paho_mqtt/port/paho_mqtt_port.c ****     }
 354:/home/xingli/share/1205tiny/network/mqtt/paho_mqtt/port/paho_mqtt_port.c **** 
 355:/home/xingli/share/1205tiny/network/mqtt/paho_mqtt/port/paho_mqtt_port.c ****     if(n->arg.type == EN_DTLS_AL_SECURITY_TYPE_NONE)
 977              		.loc 2 355 14
 978 0042 488B45E8 		movq	-24(%rbp), %rax
 979 0046 8B4008   		movl	8(%rax), %eax
 980              		.loc 2 355 7
 981 0049 85C0     		testl	%eax, %eax
 982 004b 751B     		jne	.L75
 356:/home/xingli/share/1205tiny/network/mqtt/paho_mqtt/port/paho_mqtt_port.c ****     {
 357:/home/xingli/share/1205tiny/network/mqtt/paho_mqtt/port/paho_mqtt_port.c ****         ret = __socket_connect(n, addr, port);
 983              		.loc 2 357 15
 984 004d 8B55DC   		movl	-36(%rbp), %edx
 985 0050 488B4DE0 		movq	-32(%rbp), %rcx
 986 0054 488B45E8 		movq	-24(%rbp), %rax
 987 0058 4889CE   		movq	%rcx, %rsi
 988 005b 4889C7   		movq	%rax, %rdi
 989 005e E8000000 		call	__socket_connect
 989      00
 990 0063 8945F4   		movl	%eax, -12(%rbp)
 991 0066 EB19     		jmp	.L76
 992              	.L75:
 358:/home/xingli/share/1205tiny/network/mqtt/paho_mqtt/port/paho_mqtt_port.c ****     }
 359:/home/xingli/share/1205tiny/network/mqtt/paho_mqtt/port/paho_mqtt_port.c ****     else
 360:/home/xingli/share/1205tiny/network/mqtt/paho_mqtt/port/paho_mqtt_port.c ****     {
 361:/home/xingli/share/1205tiny/network/mqtt/paho_mqtt/port/paho_mqtt_port.c ****         ret = __tls_connect(n, (const char *)addr, port);
 993              		.loc 2 361 15
 994 0068 8B55DC   		movl	-36(%rbp), %edx
 995 006b 488B4DE0 		movq	-32(%rbp), %rcx
 996 006f 488B45E8 		movq	-24(%rbp), %rax
 997 0073 4889CE   		movq	%rcx, %rsi
 998 0076 4889C7   		movq	%rax, %rdi
 999 0079 E8000000 		call	__tls_connect
 999      00
 1000 007e 8945F4   		movl	%eax, -12(%rbp)
 1001              	.L76:
 362:/home/xingli/share/1205tiny/network/mqtt/paho_mqtt/port/paho_mqtt_port.c ****     }
 363:/home/xingli/share/1205tiny/network/mqtt/paho_mqtt/port/paho_mqtt_port.c ****     return ret;
 1002              		.loc 2 363 12
 1003 0081 8B45F4   		movl	-12(%rbp), %eax
 1004              	.L74:
 364:/home/xingli/share/1205tiny/network/mqtt/paho_mqtt/port/paho_mqtt_port.c **** }
 1005              		.loc 2 364 1
 1006 0084 488B75F8 		movq	-8(%rbp), %rsi
 1007 0088 64483334 		xorq	%fs:40, %rsi
 1007      25280000 
 1007      00
GAS LISTING /tmp/ccrqlIgG.s 			page 32


 1008 0091 7405     		je	.L77
 1009 0093 E8000000 		call	__stack_chk_fail@PLT
 1009      00
 1010              	.L77:
 1011 0098 C9       		leave
 1012              	.LCFI35:
 1013              		.cfi_def_cfa 7, 8
 1014 0099 C3       		ret
 1015              		.cfi_endproc
 1016              	.LFE17:
 1018              		.section	.text.__io_disconnect,"ax",@progbits
 1020              	__io_disconnect:
 1021              	.LFB18:
 365:/home/xingli/share/1205tiny/network/mqtt/paho_mqtt/port/paho_mqtt_port.c **** 
 366:/home/xingli/share/1205tiny/network/mqtt/paho_mqtt/port/paho_mqtt_port.c **** 
 367:/home/xingli/share/1205tiny/network/mqtt/paho_mqtt/port/paho_mqtt_port.c **** 
 368:/home/xingli/share/1205tiny/network/mqtt/paho_mqtt/port/paho_mqtt_port.c **** static void __io_disconnect(Network *n)
 369:/home/xingli/share/1205tiny/network/mqtt/paho_mqtt/port/paho_mqtt_port.c **** {
 1022              		.loc 2 369 1
 1023              		.cfi_startproc
 1024 0000 F30F1EFA 		endbr64
 1025 0004 55       		pushq	%rbp
 1026              	.LCFI36:
 1027              		.cfi_def_cfa_offset 16
 1028              		.cfi_offset 6, -16
 1029 0005 4889E5   		movq	%rsp, %rbp
 1030              	.LCFI37:
 1031              		.cfi_def_cfa_register 6
 1032 0008 4883EC20 		subq	$32, %rsp
 1033 000c 48897DE8 		movq	%rdi, -24(%rbp)
 1034              		.loc 2 369 1
 1035 0010 64488B04 		movq	%fs:40, %rax
 1035      25280000 
 1035      00
 1036 0019 488945F8 		movq	%rax, -8(%rbp)
 1037 001d 31C0     		xorl	%eax, %eax
 370:/home/xingli/share/1205tiny/network/mqtt/paho_mqtt/port/paho_mqtt_port.c **** 
 371:/home/xingli/share/1205tiny/network/mqtt/paho_mqtt/port/paho_mqtt_port.c ****     if(n->arg.type == EN_DTLS_AL_SECURITY_TYPE_NONE)
 1038              		.loc 2 371 14
 1039 001f 488B45E8 		movq	-24(%rbp), %rax
 1040 0023 8B4008   		movl	8(%rax), %eax
 1041              		.loc 2 371 7
 1042 0026 85C0     		testl	%eax, %eax
 1043 0028 7511     		jne	.L79
 372:/home/xingli/share/1205tiny/network/mqtt/paho_mqtt/port/paho_mqtt_port.c ****     {
 373:/home/xingli/share/1205tiny/network/mqtt/paho_mqtt/port/paho_mqtt_port.c ****         __socket_disconnect(n->ctx);
 1044              		.loc 2 373 9
 1045 002a 488B45E8 		movq	-24(%rbp), %rax
 1046 002e 488B00   		movq	(%rax), %rax
 1047 0031 4889C7   		movq	%rax, %rdi
 1048 0034 E8000000 		call	__socket_disconnect
 1048      00
 1049 0039 EB0F     		jmp	.L80
 1050              	.L79:
 374:/home/xingli/share/1205tiny/network/mqtt/paho_mqtt/port/paho_mqtt_port.c ****     }
 375:/home/xingli/share/1205tiny/network/mqtt/paho_mqtt/port/paho_mqtt_port.c ****     else
 376:/home/xingli/share/1205tiny/network/mqtt/paho_mqtt/port/paho_mqtt_port.c ****     {
GAS LISTING /tmp/ccrqlIgG.s 			page 33


 377:/home/xingli/share/1205tiny/network/mqtt/paho_mqtt/port/paho_mqtt_port.c ****         __tls_disconnect(n->ctx);
 1051              		.loc 2 377 9
 1052 003b 488B45E8 		movq	-24(%rbp), %rax
 1053 003f 488B00   		movq	(%rax), %rax
 1054 0042 4889C7   		movq	%rax, %rdi
 1055 0045 E8000000 		call	__tls_disconnect
 1055      00
 1056              	.L80:
 378:/home/xingli/share/1205tiny/network/mqtt/paho_mqtt/port/paho_mqtt_port.c ****     }
 379:/home/xingli/share/1205tiny/network/mqtt/paho_mqtt/port/paho_mqtt_port.c **** 
 380:/home/xingli/share/1205tiny/network/mqtt/paho_mqtt/port/paho_mqtt_port.c ****     n->ctx = NULL;
 1057              		.loc 2 380 12
 1058 004a 488B45E8 		movq	-24(%rbp), %rax
 1059 004e 48C70000 		movq	$0, (%rax)
 1059      000000
 381:/home/xingli/share/1205tiny/network/mqtt/paho_mqtt/port/paho_mqtt_port.c **** 
 382:/home/xingli/share/1205tiny/network/mqtt/paho_mqtt/port/paho_mqtt_port.c ****     return;
 1060              		.loc 2 382 5
 1061 0055 90       		nop
 383:/home/xingli/share/1205tiny/network/mqtt/paho_mqtt/port/paho_mqtt_port.c **** }
 1062              		.loc 2 383 1
 1063 0056 488B45F8 		movq	-8(%rbp), %rax
 1064 005a 64483304 		xorq	%fs:40, %rax
 1064      25280000 
 1064      00
 1065 0063 7405     		je	.L82
 1066 0065 E8000000 		call	__stack_chk_fail@PLT
 1066      00
 1067              	.L82:
 1068 006a C9       		leave
 1069              	.LCFI38:
 1070              		.cfi_def_cfa 7, 8
 1071 006b C3       		ret
 1072              		.cfi_endproc
 1073              	.LFE18:
 1075              		.section	.text.mqtt_io_read,"ax",@progbits
 1077              	mqtt_io_read:
 1078              	.LFB19:
 384:/home/xingli/share/1205tiny/network/mqtt/paho_mqtt/port/paho_mqtt_port.c **** 
 385:/home/xingli/share/1205tiny/network/mqtt/paho_mqtt/port/paho_mqtt_port.c **** 
 386:/home/xingli/share/1205tiny/network/mqtt/paho_mqtt/port/paho_mqtt_port.c **** ///< make the mqtt io loop read or write
 387:/home/xingli/share/1205tiny/network/mqtt/paho_mqtt/port/paho_mqtt_port.c **** static int mqtt_io_read(Network *n, unsigned char *buffer, int len, int timeout_ms)
 388:/home/xingli/share/1205tiny/network/mqtt/paho_mqtt/port/paho_mqtt_port.c **** {
 1079              		.loc 2 388 1
 1080              		.cfi_startproc
 1081 0000 F30F1EFA 		endbr64
 1082 0004 55       		pushq	%rbp
 1083              	.LCFI39:
 1084              		.cfi_def_cfa_offset 16
 1085              		.cfi_offset 6, -16
 1086 0005 4889E5   		movq	%rsp, %rbp
 1087              	.LCFI40:
 1088              		.cfi_def_cfa_register 6
 1089 0008 4883EC40 		subq	$64, %rsp
 1090 000c 48897DD8 		movq	%rdi, -40(%rbp)
 1091 0010 488975D0 		movq	%rsi, -48(%rbp)
 1092 0014 8955CC   		movl	%edx, -52(%rbp)
GAS LISTING /tmp/ccrqlIgG.s 			page 34


 1093 0017 894DC8   		movl	%ecx, -56(%rbp)
 1094              		.loc 2 388 1
 1095 001a 64488B04 		movq	%fs:40, %rax
 1095      25280000 
 1095      00
 1096 0023 488945F8 		movq	%rax, -8(%rbp)
 1097 0027 31C0     		xorl	%eax, %eax
 389:/home/xingli/share/1205tiny/network/mqtt/paho_mqtt/port/paho_mqtt_port.c ****     int ret = -1;
 1098              		.loc 2 389 9
 1099 0029 C745E4FF 		movl	$-1, -28(%rbp)
 1099      FFFFFF
 390:/home/xingli/share/1205tiny/network/mqtt/paho_mqtt/port/paho_mqtt_port.c ****     int cur_sum = 0;
 1100              		.loc 2 390 9
 1101 0030 C745E800 		movl	$0, -24(%rbp)
 1101      000000
 391:/home/xingli/share/1205tiny/network/mqtt/paho_mqtt/port/paho_mqtt_port.c ****     int cur_ret;
 392:/home/xingli/share/1205tiny/network/mqtt/paho_mqtt/port/paho_mqtt_port.c ****     unsigned long long time_deadtime;
 393:/home/xingli/share/1205tiny/network/mqtt/paho_mqtt/port/paho_mqtt_port.c **** 
 394:/home/xingli/share/1205tiny/network/mqtt/paho_mqtt/port/paho_mqtt_port.c ****     if((NULL == n) || (NULL == buffer ))
 1102              		.loc 2 394 7
 1103 0037 48837DD8 		cmpq	$0, -40(%rbp)
 1103      00
 1104 003c 7407     		je	.L84
 1105              		.loc 2 394 20 discriminator 1
 1106 003e 48837DD0 		cmpq	$0, -48(%rbp)
 1106      00
 1107 0043 7505     		jne	.L85
 1108              	.L84:
 395:/home/xingli/share/1205tiny/network/mqtt/paho_mqtt/port/paho_mqtt_port.c ****     {
 396:/home/xingli/share/1205tiny/network/mqtt/paho_mqtt/port/paho_mqtt_port.c ****         return ret;
 1109              		.loc 2 396 16
 1110 0045 8B45E4   		movl	-28(%rbp), %eax
 1111 0048 EB68     		jmp	.L86
 1112              	.L85:
 397:/home/xingli/share/1205tiny/network/mqtt/paho_mqtt/port/paho_mqtt_port.c ****     }
 398:/home/xingli/share/1205tiny/network/mqtt/paho_mqtt/port/paho_mqtt_port.c **** 
 399:/home/xingli/share/1205tiny/network/mqtt/paho_mqtt/port/paho_mqtt_port.c ****     time_deadtime = osal_sys_time();
 1113              		.loc 2 399 21
 1114 004a E8000000 		call	osal_sys_time@PLT
 1114      00
 1115 004f 488945F0 		movq	%rax, -16(%rbp)
 1116              	.L90:
 400:/home/xingli/share/1205tiny/network/mqtt/paho_mqtt/port/paho_mqtt_port.c ****     do{
 401:/home/xingli/share/1205tiny/network/mqtt/paho_mqtt/port/paho_mqtt_port.c ****         cur_ret = __io_read(n, buffer+cur_sum,len-cur_sum,timeout_ms);
 1117              		.loc 2 401 19
 1118 0053 8B45CC   		movl	-52(%rbp), %eax
 1119 0056 2B45E8   		subl	-24(%rbp), %eax
 1120 0059 89C2     		movl	%eax, %edx
 1121 005b 8B45E8   		movl	-24(%rbp), %eax
 1122 005e 4863C8   		movslq	%eax, %rcx
 1123 0061 488B45D0 		movq	-48(%rbp), %rax
 1124 0065 488D3401 		leaq	(%rcx,%rax), %rsi
 1125 0069 8B4DC8   		movl	-56(%rbp), %ecx
 1126 006c 488B45D8 		movq	-40(%rbp), %rax
 1127 0070 4889C7   		movq	%rax, %rdi
 1128 0073 E8000000 		call	__io_read
 1128      00
GAS LISTING /tmp/ccrqlIgG.s 			page 35


 1129 0078 8945EC   		movl	%eax, -20(%rbp)
 402:/home/xingli/share/1205tiny/network/mqtt/paho_mqtt/port/paho_mqtt_port.c ****         if(cur_ret == 0)
 1130              		.loc 2 402 11
 1131 007b 837DEC00 		cmpl	$0, -20(%rbp)
 1132 007f 7509     		jne	.L87
 403:/home/xingli/share/1205tiny/network/mqtt/paho_mqtt/port/paho_mqtt_port.c ****         {
 404:/home/xingli/share/1205tiny/network/mqtt/paho_mqtt/port/paho_mqtt_port.c ****             ret = 0;
 1133              		.loc 2 404 17
 1134 0081 C745E400 		movl	$0, -28(%rbp)
 1134      000000
 405:/home/xingli/share/1205tiny/network/mqtt/paho_mqtt/port/paho_mqtt_port.c ****             break;
 1135              		.loc 2 405 13
 1136 0088 EB25     		jmp	.L88
 1137              	.L87:
 406:/home/xingli/share/1205tiny/network/mqtt/paho_mqtt/port/paho_mqtt_port.c ****         }
 407:/home/xingli/share/1205tiny/network/mqtt/paho_mqtt/port/paho_mqtt_port.c ****         else if(cur_ret > 0)
 1138              		.loc 2 407 16
 1139 008a 837DEC00 		cmpl	$0, -20(%rbp)
 1140 008e 7E0C     		jle	.L89
 408:/home/xingli/share/1205tiny/network/mqtt/paho_mqtt/port/paho_mqtt_port.c ****         {
 409:/home/xingli/share/1205tiny/network/mqtt/paho_mqtt/port/paho_mqtt_port.c ****             cur_sum += cur_ret;
 1141              		.loc 2 409 21
 1142 0090 8B45EC   		movl	-20(%rbp), %eax
 1143 0093 0145E8   		addl	%eax, -24(%rbp)
 410:/home/xingli/share/1205tiny/network/mqtt/paho_mqtt/port/paho_mqtt_port.c ****             ret = cur_sum;
 1144              		.loc 2 410 17
 1145 0096 8B45E8   		movl	-24(%rbp), %eax
 1146 0099 8945E4   		movl	%eax, -28(%rbp)
 1147              	.L89:
 411:/home/xingli/share/1205tiny/network/mqtt/paho_mqtt/port/paho_mqtt_port.c ****         }
 412:/home/xingli/share/1205tiny/network/mqtt/paho_mqtt/port/paho_mqtt_port.c **** 
 413:/home/xingli/share/1205tiny/network/mqtt/paho_mqtt/port/paho_mqtt_port.c ****     }while((osal_sys_time() < time_deadtime) && (cur_sum < len));
 1148              		.loc 2 413 13
 1149 009c E8000000 		call	osal_sys_time@PLT
 1149      00
 1150              		.loc 2 413 5
 1151 00a1 483945F0 		cmpq	%rax, -16(%rbp)
 1152 00a5 7608     		jbe	.L88
 1153              		.loc 2 413 46 discriminator 1
 1154 00a7 8B45E8   		movl	-24(%rbp), %eax
 1155 00aa 3B45CC   		cmpl	-52(%rbp), %eax
 1156 00ad 7CA4     		jl	.L90
 1157              	.L88:
 414:/home/xingli/share/1205tiny/network/mqtt/paho_mqtt/port/paho_mqtt_port.c **** 
 415:/home/xingli/share/1205tiny/network/mqtt/paho_mqtt/port/paho_mqtt_port.c ****     return ret;
 1158              		.loc 2 415 12
 1159 00af 8B45E4   		movl	-28(%rbp), %eax
 1160              	.L86:
 416:/home/xingli/share/1205tiny/network/mqtt/paho_mqtt/port/paho_mqtt_port.c **** }
 1161              		.loc 2 416 1
 1162 00b2 488B7DF8 		movq	-8(%rbp), %rdi
 1163 00b6 6448333C 		xorq	%fs:40, %rdi
 1163      25280000 
 1163      00
 1164 00bf 7405     		je	.L91
 1165 00c1 E8000000 		call	__stack_chk_fail@PLT
 1165      00
GAS LISTING /tmp/ccrqlIgG.s 			page 36


 1166              	.L91:
 1167 00c6 C9       		leave
 1168              	.LCFI41:
 1169              		.cfi_def_cfa 7, 8
 1170 00c7 C3       		ret
 1171              		.cfi_endproc
 1172              	.LFE19:
 1174              		.section	.text.mqtt_io_write,"ax",@progbits
 1176              	mqtt_io_write:
 1177              	.LFB20:
 417:/home/xingli/share/1205tiny/network/mqtt/paho_mqtt/port/paho_mqtt_port.c **** 
 418:/home/xingli/share/1205tiny/network/mqtt/paho_mqtt/port/paho_mqtt_port.c **** static int mqtt_io_write(Network *n, unsigned char *buffer, int len, int timeout_ms)
 419:/home/xingli/share/1205tiny/network/mqtt/paho_mqtt/port/paho_mqtt_port.c **** {
 1178              		.loc 2 419 1
 1179              		.cfi_startproc
 1180 0000 F30F1EFA 		endbr64
 1181 0004 55       		pushq	%rbp
 1182              	.LCFI42:
 1183              		.cfi_def_cfa_offset 16
 1184              		.cfi_offset 6, -16
 1185 0005 4889E5   		movq	%rsp, %rbp
 1186              	.LCFI43:
 1187              		.cfi_def_cfa_register 6
 1188 0008 4883EC40 		subq	$64, %rsp
 1189 000c 48897DD8 		movq	%rdi, -40(%rbp)
 1190 0010 488975D0 		movq	%rsi, -48(%rbp)
 1191 0014 8955CC   		movl	%edx, -52(%rbp)
 1192 0017 894DC8   		movl	%ecx, -56(%rbp)
 1193              		.loc 2 419 1
 1194 001a 64488B04 		movq	%fs:40, %rax
 1194      25280000 
 1194      00
 1195 0023 488945F8 		movq	%rax, -8(%rbp)
 1196 0027 31C0     		xorl	%eax, %eax
 420:/home/xingli/share/1205tiny/network/mqtt/paho_mqtt/port/paho_mqtt_port.c ****     int ret = -1;
 1197              		.loc 2 420 9
 1198 0029 C745E4FF 		movl	$-1, -28(%rbp)
 1198      FFFFFF
 421:/home/xingli/share/1205tiny/network/mqtt/paho_mqtt/port/paho_mqtt_port.c ****     int cur_sum = 0;
 1199              		.loc 2 421 9
 1200 0030 C745E800 		movl	$0, -24(%rbp)
 1200      000000
 422:/home/xingli/share/1205tiny/network/mqtt/paho_mqtt/port/paho_mqtt_port.c ****     int cur_ret;
 423:/home/xingli/share/1205tiny/network/mqtt/paho_mqtt/port/paho_mqtt_port.c ****     unsigned long long time_deadtime;
 424:/home/xingli/share/1205tiny/network/mqtt/paho_mqtt/port/paho_mqtt_port.c **** 
 425:/home/xingli/share/1205tiny/network/mqtt/paho_mqtt/port/paho_mqtt_port.c ****     if((NULL == n) || (NULL == buffer ))
 1201              		.loc 2 425 7
 1202 0037 48837DD8 		cmpq	$0, -40(%rbp)
 1202      00
 1203 003c 7407     		je	.L93
 1204              		.loc 2 425 20 discriminator 1
 1205 003e 48837DD0 		cmpq	$0, -48(%rbp)
 1205      00
 1206 0043 7505     		jne	.L94
 1207              	.L93:
 426:/home/xingli/share/1205tiny/network/mqtt/paho_mqtt/port/paho_mqtt_port.c ****     {
 427:/home/xingli/share/1205tiny/network/mqtt/paho_mqtt/port/paho_mqtt_port.c ****         return ret;
GAS LISTING /tmp/ccrqlIgG.s 			page 37


 1208              		.loc 2 427 16
 1209 0045 8B45E4   		movl	-28(%rbp), %eax
 1210 0048 EB68     		jmp	.L95
 1211              	.L94:
 428:/home/xingli/share/1205tiny/network/mqtt/paho_mqtt/port/paho_mqtt_port.c ****     }
 429:/home/xingli/share/1205tiny/network/mqtt/paho_mqtt/port/paho_mqtt_port.c **** 
 430:/home/xingli/share/1205tiny/network/mqtt/paho_mqtt/port/paho_mqtt_port.c ****     time_deadtime = osal_sys_time();
 1212              		.loc 2 430 21
 1213 004a E8000000 		call	osal_sys_time@PLT
 1213      00
 1214 004f 488945F0 		movq	%rax, -16(%rbp)
 1215              	.L99:
 431:/home/xingli/share/1205tiny/network/mqtt/paho_mqtt/port/paho_mqtt_port.c ****     do{
 432:/home/xingli/share/1205tiny/network/mqtt/paho_mqtt/port/paho_mqtt_port.c ****         cur_ret = __io_write(n, buffer+cur_sum,len-cur_sum,timeout_ms);
 1216              		.loc 2 432 19
 1217 0053 8B45CC   		movl	-52(%rbp), %eax
 1218 0056 2B45E8   		subl	-24(%rbp), %eax
 1219 0059 89C2     		movl	%eax, %edx
 1220 005b 8B45E8   		movl	-24(%rbp), %eax
 1221 005e 4863C8   		movslq	%eax, %rcx
 1222 0061 488B45D0 		movq	-48(%rbp), %rax
 1223 0065 488D3401 		leaq	(%rcx,%rax), %rsi
 1224 0069 8B4DC8   		movl	-56(%rbp), %ecx
 1225 006c 488B45D8 		movq	-40(%rbp), %rax
 1226 0070 4889C7   		movq	%rax, %rdi
 1227 0073 E8000000 		call	__io_write
 1227      00
 1228 0078 8945EC   		movl	%eax, -20(%rbp)
 433:/home/xingli/share/1205tiny/network/mqtt/paho_mqtt/port/paho_mqtt_port.c ****         if(cur_ret == 0)
 1229              		.loc 2 433 11
 1230 007b 837DEC00 		cmpl	$0, -20(%rbp)
 1231 007f 7509     		jne	.L96
 434:/home/xingli/share/1205tiny/network/mqtt/paho_mqtt/port/paho_mqtt_port.c ****         {
 435:/home/xingli/share/1205tiny/network/mqtt/paho_mqtt/port/paho_mqtt_port.c ****             ret = 0;
 1232              		.loc 2 435 17
 1233 0081 C745E400 		movl	$0, -28(%rbp)
 1233      000000
 436:/home/xingli/share/1205tiny/network/mqtt/paho_mqtt/port/paho_mqtt_port.c ****             break;
 1234              		.loc 2 436 13
 1235 0088 EB25     		jmp	.L97
 1236              	.L96:
 437:/home/xingli/share/1205tiny/network/mqtt/paho_mqtt/port/paho_mqtt_port.c ****         }
 438:/home/xingli/share/1205tiny/network/mqtt/paho_mqtt/port/paho_mqtt_port.c ****         else if(cur_ret > 0)
 1237              		.loc 2 438 16
 1238 008a 837DEC00 		cmpl	$0, -20(%rbp)
 1239 008e 7E0C     		jle	.L98
 439:/home/xingli/share/1205tiny/network/mqtt/paho_mqtt/port/paho_mqtt_port.c ****         {
 440:/home/xingli/share/1205tiny/network/mqtt/paho_mqtt/port/paho_mqtt_port.c ****             cur_sum += cur_ret;
 1240              		.loc 2 440 21
 1241 0090 8B45EC   		movl	-20(%rbp), %eax
 1242 0093 0145E8   		addl	%eax, -24(%rbp)
 441:/home/xingli/share/1205tiny/network/mqtt/paho_mqtt/port/paho_mqtt_port.c ****             ret = cur_sum;
 1243              		.loc 2 441 17
 1244 0096 8B45E8   		movl	-24(%rbp), %eax
 1245 0099 8945E4   		movl	%eax, -28(%rbp)
 1246              	.L98:
 442:/home/xingli/share/1205tiny/network/mqtt/paho_mqtt/port/paho_mqtt_port.c ****         }
GAS LISTING /tmp/ccrqlIgG.s 			page 38


 443:/home/xingli/share/1205tiny/network/mqtt/paho_mqtt/port/paho_mqtt_port.c **** 
 444:/home/xingli/share/1205tiny/network/mqtt/paho_mqtt/port/paho_mqtt_port.c ****     }while((osal_sys_time() < time_deadtime) && (cur_sum < len));
 1247              		.loc 2 444 13
 1248 009c E8000000 		call	osal_sys_time@PLT
 1248      00
 1249              		.loc 2 444 5
 1250 00a1 483945F0 		cmpq	%rax, -16(%rbp)
 1251 00a5 7608     		jbe	.L97
 1252              		.loc 2 444 46 discriminator 1
 1253 00a7 8B45E8   		movl	-24(%rbp), %eax
 1254 00aa 3B45CC   		cmpl	-52(%rbp), %eax
 1255 00ad 7CA4     		jl	.L99
 1256              	.L97:
 445:/home/xingli/share/1205tiny/network/mqtt/paho_mqtt/port/paho_mqtt_port.c **** 
 446:/home/xingli/share/1205tiny/network/mqtt/paho_mqtt/port/paho_mqtt_port.c ****     return ret;
 1257              		.loc 2 446 12
 1258 00af 8B45E4   		movl	-28(%rbp), %eax
 1259              	.L95:
 447:/home/xingli/share/1205tiny/network/mqtt/paho_mqtt/port/paho_mqtt_port.c **** }
 1260              		.loc 2 447 1
 1261 00b2 488B7DF8 		movq	-8(%rbp), %rdi
 1262 00b6 6448333C 		xorq	%fs:40, %rdi
 1262      25280000 
 1262      00
 1263 00bf 7405     		je	.L100
 1264 00c1 E8000000 		call	__stack_chk_fail@PLT
 1264      00
 1265              	.L100:
 1266 00c6 C9       		leave
 1267              	.LCFI44:
 1268              		.cfi_def_cfa 7, 8
 1269 00c7 C3       		ret
 1270              		.cfi_endproc
 1271              	.LFE20:
 1273              		.section	.text.__mqtt_cb_stop,"ax",@progbits
 1274              		.globl	__mqtt_cb_stop
 1276              	__mqtt_cb_stop:
 1277              	.LFB21:
 448:/home/xingli/share/1205tiny/network/mqtt/paho_mqtt/port/paho_mqtt_port.c **** ///////////////////////CREATE THE API FOR THE MQTT_AL///////////////////////////
 449:/home/xingli/share/1205tiny/network/mqtt/paho_mqtt/port/paho_mqtt_port.c **** void __mqtt_cb_stop(paho_mqtt_cb_t   *cb)
 450:/home/xingli/share/1205tiny/network/mqtt/paho_mqtt/port/paho_mqtt_port.c **** {
 1278              		.loc 2 450 1
 1279              		.cfi_startproc
 1280 0000 F30F1EFA 		endbr64
 1281 0004 55       		pushq	%rbp
 1282              	.LCFI45:
 1283              		.cfi_def_cfa_offset 16
 1284              		.cfi_offset 6, -16
 1285 0005 4889E5   		movq	%rsp, %rbp
 1286              	.LCFI46:
 1287              		.cfi_def_cfa_register 6
 1288 0008 4883EC20 		subq	$32, %rsp
 1289 000c 48897DE8 		movq	%rdi, -24(%rbp)
 1290              		.loc 2 450 1
 1291 0010 64488B04 		movq	%fs:40, %rax
 1291      25280000 
 1291      00
GAS LISTING /tmp/ccrqlIgG.s 			page 39


 1292 0019 488945F8 		movq	%rax, -8(%rbp)
 1293 001d 31C0     		xorl	%eax, %eax
 451:/home/xingli/share/1205tiny/network/mqtt/paho_mqtt/port/paho_mqtt_port.c ****     if(NULL != cb)
 1294              		.loc 2 451 7
 1295 001f 48837DE8 		cmpq	$0, -24(%rbp)
 1295      00
 1296 0024 740F     		je	.L105
 452:/home/xingli/share/1205tiny/network/mqtt/paho_mqtt/port/paho_mqtt_port.c ****     {
 453:/home/xingli/share/1205tiny/network/mqtt/paho_mqtt/port/paho_mqtt_port.c ****         cb->stop = 1;
 1297              		.loc 2 453 18
 1298 0026 488B45E8 		movq	-24(%rbp), %rax
 1299 002a C780C801 		movl	$1, 456(%rax)
 1299      00000100 
 1299      0000
 454:/home/xingli/share/1205tiny/network/mqtt/paho_mqtt/port/paho_mqtt_port.c ****     }
 455:/home/xingli/share/1205tiny/network/mqtt/paho_mqtt/port/paho_mqtt_port.c **** 
 456:/home/xingli/share/1205tiny/network/mqtt/paho_mqtt/port/paho_mqtt_port.c ****     return;
 1300              		.loc 2 456 5
 1301 0034 90       		nop
 1302              	.L105:
 1303 0035 90       		nop
 457:/home/xingli/share/1205tiny/network/mqtt/paho_mqtt/port/paho_mqtt_port.c **** }
 1304              		.loc 2 457 1
 1305 0036 488B45F8 		movq	-8(%rbp), %rax
 1306 003a 64483304 		xorq	%fs:40, %rax
 1306      25280000 
 1306      00
 1307 0043 7405     		je	.L104
 1308 0045 E8000000 		call	__stack_chk_fail@PLT
 1308      00
 1309              	.L104:
 1310 004a C9       		leave
 1311              	.LCFI47:
 1312              		.cfi_def_cfa 7, 8
 1313 004b C3       		ret
 1314              		.cfi_endproc
 1315              	.LFE21:
 1317              		.section	.text.__loop_entry,"ax",@progbits
 1319              	__loop_entry:
 1320              	.LFB22:
 458:/home/xingli/share/1205tiny/network/mqtt/paho_mqtt/port/paho_mqtt_port.c **** 
 459:/home/xingli/share/1205tiny/network/mqtt/paho_mqtt/port/paho_mqtt_port.c **** static  int __loop_entry(void *arg)
 460:/home/xingli/share/1205tiny/network/mqtt/paho_mqtt/port/paho_mqtt_port.c **** {
 1321              		.loc 2 460 1
 1322              		.cfi_startproc
 1323 0000 F30F1EFA 		endbr64
 1324 0004 55       		pushq	%rbp
 1325              	.LCFI48:
 1326              		.cfi_def_cfa_offset 16
 1327              		.cfi_offset 6, -16
 1328 0005 4889E5   		movq	%rsp, %rbp
 1329              	.LCFI49:
 1330              		.cfi_def_cfa_register 6
 1331 0008 4883EC20 		subq	$32, %rsp
 1332 000c 48897DE8 		movq	%rdi, -24(%rbp)
 1333              		.loc 2 460 1
 1334 0010 64488B04 		movq	%fs:40, %rax
GAS LISTING /tmp/ccrqlIgG.s 			page 40


 1334      25280000 
 1334      00
 1335 0019 488945F8 		movq	%rax, -8(%rbp)
 1336 001d 31C0     		xorl	%eax, %eax
 461:/home/xingli/share/1205tiny/network/mqtt/paho_mqtt/port/paho_mqtt_port.c ****     paho_mqtt_cb_t *cb;
 462:/home/xingli/share/1205tiny/network/mqtt/paho_mqtt/port/paho_mqtt_port.c **** 
 463:/home/xingli/share/1205tiny/network/mqtt/paho_mqtt/port/paho_mqtt_port.c ****     cb = arg;
 1337              		.loc 2 463 8
 1338 001f 488B45E8 		movq	-24(%rbp), %rax
 1339 0023 488945F0 		movq	%rax, -16(%rbp)
 464:/home/xingli/share/1205tiny/network/mqtt/paho_mqtt/port/paho_mqtt_port.c ****     while((NULL != cb) && (cb->stop == 0))
 1340              		.loc 2 464 10
 1341 0027 EB3A     		jmp	.L107
 1342              	.L110:
 465:/home/xingli/share/1205tiny/network/mqtt/paho_mqtt/port/paho_mqtt_port.c ****     {
 466:/home/xingli/share/1205tiny/network/mqtt/paho_mqtt/port/paho_mqtt_port.c ****         if((NULL != cb) && MQTTIsConnected(&cb->client))
 1343              		.loc 2 466 11
 1344 0029 48837DF0 		cmpq	$0, -16(%rbp)
 1344      00
 1345 002e 7429     		je	.L108
 1346              		.loc 2 466 28 discriminator 1
 1347 0030 488B45F0 		movq	-16(%rbp), %rax
 1348 0034 4883C058 		addq	$88, %rax
 1349 0038 4889C7   		movq	%rax, %rdi
 1350 003b E8000000 		call	MQTTIsConnected
 1350      00
 1351              		.loc 2 466 25 discriminator 1
 1352 0040 85C0     		testl	%eax, %eax
 1353 0042 7415     		je	.L108
 467:/home/xingli/share/1205tiny/network/mqtt/paho_mqtt/port/paho_mqtt_port.c ****         {
 468:/home/xingli/share/1205tiny/network/mqtt/paho_mqtt/port/paho_mqtt_port.c ****            (void) MQTTYield(&cb->client, CONFIG_PAHO_LOOPTIMEOUT);
 1354              		.loc 2 468 19
 1355 0044 488B45F0 		movq	-16(%rbp), %rax
 1356 0048 4883C058 		addq	$88, %rax
 1357 004c BE0A0000 		movl	$10, %esi
 1357      00
 1358 0051 4889C7   		movq	%rax, %rdi
 1359 0054 E8000000 		call	MQTTYield@PLT
 1359      00
 1360              	.L108:
 469:/home/xingli/share/1205tiny/network/mqtt/paho_mqtt/port/paho_mqtt_port.c ****         }
 470:/home/xingli/share/1205tiny/network/mqtt/paho_mqtt/port/paho_mqtt_port.c ****         ///< for some operation system ,the task could not be awake when release,so do some wait to
 471:/home/xingli/share/1205tiny/network/mqtt/paho_mqtt/port/paho_mqtt_port.c **** 
 472:/home/xingli/share/1205tiny/network/mqtt/paho_mqtt/port/paho_mqtt_port.c ****         osal_task_sleep(1);///< when disconnect, this has been killed
 1361              		.loc 2 472 9
 1362 0059 BF010000 		movl	$1, %edi
 1362      00
 1363 005e E8000000 		call	osal_task_sleep@PLT
 1363      00
 1364              	.L107:
 464:/home/xingli/share/1205tiny/network/mqtt/paho_mqtt/port/paho_mqtt_port.c ****     {
 1365              		.loc 2 464 10
 1366 0063 48837DF0 		cmpq	$0, -16(%rbp)
 1366      00
 1367 0068 740E     		je	.L109
 464:/home/xingli/share/1205tiny/network/mqtt/paho_mqtt/port/paho_mqtt_port.c ****     {
 1368              		.loc 2 464 30 discriminator 1
GAS LISTING /tmp/ccrqlIgG.s 			page 41


 1369 006a 488B45F0 		movq	-16(%rbp), %rax
 1370 006e 8B80C801 		movl	456(%rax), %eax
 1370      0000
 464:/home/xingli/share/1205tiny/network/mqtt/paho_mqtt/port/paho_mqtt_port.c ****     {
 1371              		.loc 2 464 24 discriminator 1
 1372 0074 85C0     		testl	%eax, %eax
 1373 0076 74B1     		je	.L110
 1374              	.L109:
 473:/home/xingli/share/1205tiny/network/mqtt/paho_mqtt/port/paho_mqtt_port.c ****     }
 474:/home/xingli/share/1205tiny/network/mqtt/paho_mqtt/port/paho_mqtt_port.c ****     cb->stoped =1;
 1375              		.loc 2 474 16
 1376 0078 488B45F0 		movq	-16(%rbp), %rax
 1377 007c C780CC01 		movl	$1, 460(%rax)
 1377      00000100 
 1377      0000
 475:/home/xingli/share/1205tiny/network/mqtt/paho_mqtt/port/paho_mqtt_port.c **** 
 476:/home/xingli/share/1205tiny/network/mqtt/paho_mqtt/port/paho_mqtt_port.c ****     return 0;
 1378              		.loc 2 476 12
 1379 0086 B8000000 		movl	$0, %eax
 1379      00
 477:/home/xingli/share/1205tiny/network/mqtt/paho_mqtt/port/paho_mqtt_port.c **** }
 1380              		.loc 2 477 1
 1381 008b 488B55F8 		movq	-8(%rbp), %rdx
 1382 008f 64483314 		xorq	%fs:40, %rdx
 1382      25280000 
 1382      00
 1383 0098 7405     		je	.L112
 1384 009a E8000000 		call	__stack_chk_fail@PLT
 1384      00
 1385              	.L112:
 1386 009f C9       		leave
 1387              	.LCFI50:
 1388              		.cfi_def_cfa 7, 8
 1389 00a0 C3       		ret
 1390              		.cfi_endproc
 1391              	.LFE22:
 1393              		.section	.rodata
 1394              	.LC1:
 1395 0003 7061686F 		.string	"paho"
 1395      00
 1396              		.section	.text.__connect,"ax",@progbits
 1398              	__connect:
 1399              	.LFB23:
 478:/home/xingli/share/1205tiny/network/mqtt/paho_mqtt/port/paho_mqtt_port.c **** 
 479:/home/xingli/share/1205tiny/network/mqtt/paho_mqtt/port/paho_mqtt_port.c **** 
 480:/home/xingli/share/1205tiny/network/mqtt/paho_mqtt/port/paho_mqtt_port.c **** static void * __connect(mqtt_al_conpara_t *conparam)
 481:/home/xingli/share/1205tiny/network/mqtt/paho_mqtt/port/paho_mqtt_port.c **** {
 1400              		.loc 2 481 1
 1401              		.cfi_startproc
 1402 0000 F30F1EFA 		endbr64
 1403 0004 55       		pushq	%rbp
 1404              	.LCFI51:
 1405              		.cfi_def_cfa_offset 16
 1406              		.cfi_offset 6, -16
 1407 0005 4889E5   		movq	%rsp, %rbp
 1408              	.LCFI52:
 1409              		.cfi_def_cfa_register 6
GAS LISTING /tmp/ccrqlIgG.s 			page 42


 1410 0008 53       		pushq	%rbx
 1411 0009 4881ECF8 		subq	$248, %rsp
 1411      000000
 1412              		.cfi_offset 3, -24
 1413 0010 4889BD08 		movq	%rdi, -248(%rbp)
 1413      FFFFFF
 1414              		.loc 2 481 1
 1415 0017 64488B04 		movq	%fs:40, %rax
 1415      25280000 
 1415      00
 1416 0020 488945E8 		movq	%rax, -24(%rbp)
 1417 0024 31C0     		xorl	%eax, %eax
 482:/home/xingli/share/1205tiny/network/mqtt/paho_mqtt/port/paho_mqtt_port.c **** 
 483:/home/xingli/share/1205tiny/network/mqtt/paho_mqtt/port/paho_mqtt_port.c ****     void             *ret  = NULL;
 1418              		.loc 2 483 23
 1419 0026 48C78520 		movq	$0, -224(%rbp)
 1419      FFFFFF00 
 1419      000000
 484:/home/xingli/share/1205tiny/network/mqtt/paho_mqtt/port/paho_mqtt_port.c ****     Network          *n = NULL;
 1420              		.loc 2 484 23
 1421 0031 48C78528 		movq	$0, -216(%rbp)
 1421      FFFFFF00 
 1421      000000
 485:/home/xingli/share/1205tiny/network/mqtt/paho_mqtt/port/paho_mqtt_port.c ****     MQTTClient       *c = NULL;
 1422              		.loc 2 485 23
 1423 003c 48C78530 		movq	$0, -208(%rbp)
 1423      FFFFFF00 
 1423      000000
 486:/home/xingli/share/1205tiny/network/mqtt/paho_mqtt/port/paho_mqtt_port.c ****     paho_mqtt_cb_t   *cb = NULL;
 1424              		.loc 2 486 23
 1425 0047 48C78538 		movq	$0, -200(%rbp)
 1425      FFFFFF00 
 1425      000000
 487:/home/xingli/share/1205tiny/network/mqtt/paho_mqtt/port/paho_mqtt_port.c **** 
 488:/home/xingli/share/1205tiny/network/mqtt/paho_mqtt/port/paho_mqtt_port.c ****     MQTTPacket_connectData option = MQTTPacket_connectData_initializer;
 1426              		.loc 2 488 28
 1427 0052 C78540FF 		movl	$1129599309, -192(%rbp)
 1427      FFFF4D51 
 1427      5443
 1428 005c C78544FF 		movl	$0, -188(%rbp)
 1428      FFFF0000 
 1428      0000
 1429 0066 C68548FF 		movb	$4, -184(%rbp)
 1429      FFFF04
 1430 006d 48C78550 		movq	$0, -176(%rbp)
 1430      FFFFFF00 
 1430      000000
 1431 0078 C78558FF 		movl	$0, -168(%rbp)
 1431      FFFF0000 
 1431      0000
 1432 0082 48C78560 		movq	$0, -160(%rbp)
 1432      FFFFFF00 
 1432      000000
 1433 008d 66C78568 		movw	$60, -152(%rbp)
 1433      FFFFFF3C 
 1433      00
 1434 0096 C6856AFF 		movb	$1, -150(%rbp)
GAS LISTING /tmp/ccrqlIgG.s 			page 43


 1434      FFFF01
 1435 009d C6856BFF 		movb	$0, -149(%rbp)
 1435      FFFF00
 1436 00a4 C78570FF 		movl	$1465143629, -144(%rbp)
 1436      FFFF4D51 
 1436      5457
 1437 00ae C78574FF 		movl	$0, -140(%rbp)
 1437      FFFF0000 
 1437      0000
 1438 00b8 48C78578 		movq	$0, -136(%rbp)
 1438      FFFFFF00 
 1438      000000
 1439 00c3 C7458000 		movl	$0, -128(%rbp)
 1439      000000
 1440 00ca 48C74588 		movq	$0, -120(%rbp)
 1440      00000000 
 1441 00d2 48C74590 		movq	$0, -112(%rbp)
 1441      00000000 
 1442 00da C7459800 		movl	$0, -104(%rbp)
 1442      000000
 1443 00e1 48C745A0 		movq	$0, -96(%rbp)
 1443      00000000 
 1444 00e9 C645A800 		movb	$0, -88(%rbp)
 1445 00ed C645A900 		movb	$0, -87(%rbp)
 1446 00f1 48C745B0 		movq	$0, -80(%rbp)
 1446      00000000 
 1447 00f9 C745B800 		movl	$0, -72(%rbp)
 1447      000000
 1448 0100 48C745C0 		movq	$0, -64(%rbp)
 1448      00000000 
 1449 0108 48C745C8 		movq	$0, -56(%rbp)
 1449      00000000 
 1450 0110 C745D000 		movl	$0, -48(%rbp)
 1450      000000
 1451 0117 48C745D8 		movq	$0, -40(%rbp)
 1451      00000000 
 489:/home/xingli/share/1205tiny/network/mqtt/paho_mqtt/port/paho_mqtt_port.c ****     MQTTConnackData conack = {0};
 1452              		.loc 2 489 21
 1453 011f 66C7851E 		movw	$0, -226(%rbp)
 1453      FFFFFF00 
 1453      00
 490:/home/xingli/share/1205tiny/network/mqtt/paho_mqtt/port/paho_mqtt_port.c ****     //malloc a handle
 491:/home/xingli/share/1205tiny/network/mqtt/paho_mqtt/port/paho_mqtt_port.c ****     cb = osal_malloc(sizeof(paho_mqtt_cb_t));
 1454              		.loc 2 491 10
 1455 0128 BFD00100 		movl	$464, %edi
 1455      00
 1456 012d E8000000 		call	osal_malloc@PLT
 1456      00
 1457 0132 48898538 		movq	%rax, -200(%rbp)
 1457      FFFFFF
 492:/home/xingli/share/1205tiny/network/mqtt/paho_mqtt/port/paho_mqtt_port.c ****     if(NULL == cb)
 1458              		.loc 2 492 7
 1459 0139 4883BD38 		cmpq	$0, -200(%rbp)
 1459      FFFFFF00 
 1460 0141 7510     		jne	.L114
 493:/home/xingli/share/1205tiny/network/mqtt/paho_mqtt/port/paho_mqtt_port.c ****     {
 494:/home/xingli/share/1205tiny/network/mqtt/paho_mqtt/port/paho_mqtt_port.c ****         conparam->conret = cn_mqtt_al_con_code_err_unkown;
GAS LISTING /tmp/ccrqlIgG.s 			page 44


 1461              		.loc 2 494 26
 1462 0143 488B8508 		movq	-248(%rbp), %rax
 1462      FFFFFF
 1463 014a C6406AFF 		movb	$-1, 106(%rax)
 495:/home/xingli/share/1205tiny/network/mqtt/paho_mqtt/port/paho_mqtt_port.c ****         goto EXIT_CB_MEM_ERR;
 1464              		.loc 2 495 9
 1465 014e E9580400 		jmp	.L115
 1465      00
 1466              	.L114:
 496:/home/xingli/share/1205tiny/network/mqtt/paho_mqtt/port/paho_mqtt_port.c ****     }
 497:/home/xingli/share/1205tiny/network/mqtt/paho_mqtt/port/paho_mqtt_port.c **** 
 498:/home/xingli/share/1205tiny/network/mqtt/paho_mqtt/port/paho_mqtt_port.c ****     (void) memset(cb,0,sizeof(paho_mqtt_cb_t));
 1467              		.loc 2 498 12
 1468 0153 488B8538 		movq	-200(%rbp), %rax
 1468      FFFFFF
 1469 015a BAD00100 		movl	$464, %edx
 1469      00
 1470 015f BE000000 		movl	$0, %esi
 1470      00
 1471 0164 4889C7   		movq	%rax, %rdi
 1472 0167 E8000000 		call	memset@PLT
 1472      00
 499:/home/xingli/share/1205tiny/network/mqtt/paho_mqtt/port/paho_mqtt_port.c ****     cb->task = NULL;
 1473              		.loc 2 499 14
 1474 016c 488B8538 		movq	-200(%rbp), %rax
 1474      FFFFFF
 1475 0173 48C780B0 		movq	$0, 432(%rax)
 1475      01000000 
 1475      000000
 500:/home/xingli/share/1205tiny/network/mqtt/paho_mqtt/port/paho_mqtt_port.c ****     conparam->conret = cn_mqtt_al_con_code_err_unkown;
 1476              		.loc 2 500 22
 1477 017e 488B8508 		movq	-248(%rbp), %rax
 1477      FFFFFF
 1478 0185 C6406AFF 		movb	$-1, 106(%rax)
 501:/home/xingli/share/1205tiny/network/mqtt/paho_mqtt/port/paho_mqtt_port.c **** 
 502:/home/xingli/share/1205tiny/network/mqtt/paho_mqtt/port/paho_mqtt_port.c ****     //do the net connect
 503:/home/xingli/share/1205tiny/network/mqtt/paho_mqtt/port/paho_mqtt_port.c ****     n = &cb->network;
 1479              		.loc 2 503 7
 1480 0189 488B8538 		movq	-200(%rbp), %rax
 1480      FFFFFF
 1481 0190 48898528 		movq	%rax, -216(%rbp)
 1481      FFFFFF
 504:/home/xingli/share/1205tiny/network/mqtt/paho_mqtt/port/paho_mqtt_port.c ****     n->mqttread = mqtt_io_read;
 1482              		.loc 2 504 17
 1483 0197 488B8528 		movq	-216(%rbp), %rax
 1483      FFFFFF
 1484 019e 488D1500 		leaq	mqtt_io_read(%rip), %rdx
 1484      000000
 1485 01a5 48895048 		movq	%rdx, 72(%rax)
 505:/home/xingli/share/1205tiny/network/mqtt/paho_mqtt/port/paho_mqtt_port.c ****     n->mqttwrite = mqtt_io_write;
 1486              		.loc 2 505 18
 1487 01a9 488B8528 		movq	-216(%rbp), %rax
 1487      FFFFFF
 1488 01b0 488D1500 		leaq	mqtt_io_write(%rip), %rdx
 1488      000000
 1489 01b7 48895050 		movq	%rdx, 80(%rax)
 506:/home/xingli/share/1205tiny/network/mqtt/paho_mqtt/port/paho_mqtt_port.c **** 
GAS LISTING /tmp/ccrqlIgG.s 			page 45


 507:/home/xingli/share/1205tiny/network/mqtt/paho_mqtt/port/paho_mqtt_port.c ****     if(NULL == conparam->security)
 1490              		.loc 2 507 24
 1491 01bb 488B8508 		movq	-248(%rbp), %rax
 1491      FFFFFF
 1492 01c2 488B4018 		movq	24(%rax), %rax
 1493              		.loc 2 507 7
 1494 01c6 4885C0   		testq	%rax, %rax
 1495 01c9 7510     		jne	.L116
 508:/home/xingli/share/1205tiny/network/mqtt/paho_mqtt/port/paho_mqtt_port.c ****     {
 509:/home/xingli/share/1205tiny/network/mqtt/paho_mqtt/port/paho_mqtt_port.c ****         n->arg.type = EN_DTLS_AL_SECURITY_TYPE_NONE;
 1496              		.loc 2 509 21
 1497 01cb 488B8528 		movq	-216(%rbp), %rax
 1497      FFFFFF
 1498 01d2 C7400800 		movl	$0, 8(%rax)
 1498      000000
 1499 01d9 EB51     		jmp	.L117
 1500              	.L116:
 510:/home/xingli/share/1205tiny/network/mqtt/paho_mqtt/port/paho_mqtt_port.c ****     }
 511:/home/xingli/share/1205tiny/network/mqtt/paho_mqtt/port/paho_mqtt_port.c ****     else
 512:/home/xingli/share/1205tiny/network/mqtt/paho_mqtt/port/paho_mqtt_port.c ****     {
 513:/home/xingli/share/1205tiny/network/mqtt/paho_mqtt/port/paho_mqtt_port.c ****         n->arg = *conparam->security;
 1501              		.loc 2 513 27
 1502 01db 488B8508 		movq	-248(%rbp), %rax
 1502      FFFFFF
 1503 01e2 488B5018 		movq	24(%rax), %rdx
 1504              		.loc 2 513 16
 1505 01e6 488B8528 		movq	-216(%rbp), %rax
 1505      FFFFFF
 1506 01ed 488B0A   		movq	(%rdx), %rcx
 1507 01f0 488B5A08 		movq	8(%rdx), %rbx
 1508 01f4 48894808 		movq	%rcx, 8(%rax)
 1509 01f8 48895810 		movq	%rbx, 16(%rax)
 1510 01fc 488B4A10 		movq	16(%rdx), %rcx
 1511 0200 488B5A18 		movq	24(%rdx), %rbx
 1512 0204 48894818 		movq	%rcx, 24(%rax)
 1513 0208 48895820 		movq	%rbx, 32(%rax)
 1514 020c 488B4A20 		movq	32(%rdx), %rcx
 1515 0210 488B5A28 		movq	40(%rdx), %rbx
 1516 0214 48894828 		movq	%rcx, 40(%rax)
 1517 0218 48895830 		movq	%rbx, 48(%rax)
 1518 021c 488B4A30 		movq	48(%rdx), %rcx
 1519 0220 488B5A38 		movq	56(%rdx), %rbx
 1520 0224 48894838 		movq	%rcx, 56(%rax)
 1521 0228 48895840 		movq	%rbx, 64(%rax)
 1522              	.L117:
 514:/home/xingli/share/1205tiny/network/mqtt/paho_mqtt/port/paho_mqtt_port.c ****     }
 515:/home/xingli/share/1205tiny/network/mqtt/paho_mqtt/port/paho_mqtt_port.c ****     if(0 != __io_connect(n,(const char *)conparam->serveraddr.data,conparam->serverport))
 1523              		.loc 2 515 13
 1524 022c 488B8508 		movq	-248(%rbp), %rax
 1524      FFFFFF
 1525 0233 8B5010   		movl	16(%rax), %edx
 1526              		.loc 2 515 62
 1527 0236 488B8508 		movq	-248(%rbp), %rax
 1527      FFFFFF
 1528 023d 488B08   		movq	(%rax), %rcx
 1529              		.loc 2 515 13
 1530 0240 488B8528 		movq	-216(%rbp), %rax
GAS LISTING /tmp/ccrqlIgG.s 			page 46


 1530      FFFFFF
 1531 0247 4889CE   		movq	%rcx, %rsi
 1532 024a 4889C7   		movq	%rax, %rdi
 1533 024d E8000000 		call	__io_connect
 1533      00
 1534              		.loc 2 515 7
 1535 0252 85C0     		testl	%eax, %eax
 1536 0254 7410     		je	.L118
 516:/home/xingli/share/1205tiny/network/mqtt/paho_mqtt/port/paho_mqtt_port.c ****     {
 517:/home/xingli/share/1205tiny/network/mqtt/paho_mqtt/port/paho_mqtt_port.c ****         conparam->conret = cn_mqtt_al_con_code_err_network;
 1537              		.loc 2 517 26
 1538 0256 488B8508 		movq	-248(%rbp), %rax
 1538      FFFFFF
 1539 025d C6406A80 		movb	$-128, 106(%rax)
 518:/home/xingli/share/1205tiny/network/mqtt/paho_mqtt/port/paho_mqtt_port.c **** 
 519:/home/xingli/share/1205tiny/network/mqtt/paho_mqtt/port/paho_mqtt_port.c ****         goto EXIT_NET_CONNECT_ERR;
 1540              		.loc 2 519 9
 1541 0261 E9360300 		jmp	.L119
 1541      00
 1542              	.L118:
 520:/home/xingli/share/1205tiny/network/mqtt/paho_mqtt/port/paho_mqtt_port.c ****     }
 521:/home/xingli/share/1205tiny/network/mqtt/paho_mqtt/port/paho_mqtt_port.c ****     //then do the mqtt config
 522:/home/xingli/share/1205tiny/network/mqtt/paho_mqtt/port/paho_mqtt_port.c ****     cb->rcvbuf = osal_malloc(CONFIG_PAHO_RCVBUF_SIZE) ;
 1543              		.loc 2 522 18
 1544 0266 BF000800 		movl	$2048, %edi
 1544      00
 1545 026b E8000000 		call	osal_malloc@PLT
 1545      00
 1546              		.loc 2 522 16
 1547 0270 488B9538 		movq	-200(%rbp), %rdx
 1547      FFFFFF
 1548 0277 488982B8 		movq	%rax, 440(%rdx)
 1548      010000
 523:/home/xingli/share/1205tiny/network/mqtt/paho_mqtt/port/paho_mqtt_port.c ****     cb->sndbuf = osal_malloc(CONFIG_PAHO_SNDBUF_SIZE) ;
 1549              		.loc 2 523 18
 1550 027e BF000800 		movl	$2048, %edi
 1550      00
 1551 0283 E8000000 		call	osal_malloc@PLT
 1551      00
 1552              		.loc 2 523 16
 1553 0288 488B9538 		movq	-200(%rbp), %rdx
 1553      FFFFFF
 1554 028f 488982C0 		movq	%rax, 448(%rdx)
 1554      010000
 524:/home/xingli/share/1205tiny/network/mqtt/paho_mqtt/port/paho_mqtt_port.c ****     if((NULL == cb->rcvbuf) || (NULL == cb->sndbuf))
 1555              		.loc 2 524 19
 1556 0296 488B8538 		movq	-200(%rbp), %rax
 1556      FFFFFF
 1557 029d 488B80B8 		movq	440(%rax), %rax
 1557      010000
 1558              		.loc 2 524 7
 1559 02a4 4885C0   		testq	%rax, %rax
 1560 02a7 7413     		je	.L120
 1561              		.loc 2 524 43 discriminator 1
 1562 02a9 488B8538 		movq	-200(%rbp), %rax
 1562      FFFFFF
 1563 02b0 488B80C0 		movq	448(%rax), %rax
GAS LISTING /tmp/ccrqlIgG.s 			page 47


 1563      010000
 1564              		.loc 2 524 29 discriminator 1
 1565 02b7 4885C0   		testq	%rax, %rax
 1566 02ba 7510     		jne	.L121
 1567              	.L120:
 525:/home/xingli/share/1205tiny/network/mqtt/paho_mqtt/port/paho_mqtt_port.c ****     {
 526:/home/xingli/share/1205tiny/network/mqtt/paho_mqtt/port/paho_mqtt_port.c ****         conparam->conret = cn_mqtt_al_con_code_err_unkown;
 1568              		.loc 2 526 26
 1569 02bc 488B8508 		movq	-248(%rbp), %rax
 1569      FFFFFF
 1570 02c3 C6406AFF 		movb	$-1, 106(%rax)
 527:/home/xingli/share/1205tiny/network/mqtt/paho_mqtt/port/paho_mqtt_port.c ****         goto EIXT_BUF_MEM_ERR;
 1571              		.loc 2 527 9
 1572 02c7 E9950200 		jmp	.L134
 1572      00
 1573              	.L121:
 528:/home/xingli/share/1205tiny/network/mqtt/paho_mqtt/port/paho_mqtt_port.c ****     }
 529:/home/xingli/share/1205tiny/network/mqtt/paho_mqtt/port/paho_mqtt_port.c ****     c = &cb->client;
 1574              		.loc 2 529 7
 1575 02cc 488B8538 		movq	-200(%rbp), %rax
 1575      FFFFFF
 1576 02d3 4883C058 		addq	$88, %rax
 1577 02d7 48898530 		movq	%rax, -208(%rbp)
 1577      FFFFFF
 530:/home/xingli/share/1205tiny/network/mqtt/paho_mqtt/port/paho_mqtt_port.c ****     if(MQTT_SUCCESS != MQTTClientInit(c, n, CONFIG_PAHO_CMD_TIMEOUT,\
 531:/home/xingli/share/1205tiny/network/mqtt/paho_mqtt/port/paho_mqtt_port.c ****             cb->sndbuf, CONFIG_PAHO_SNDBUF_SIZE, cb->rcvbuf, CONFIG_PAHO_RCVBUF_SIZE))
 1578              		.loc 2 531 52
 1579 02de 488B8538 		movq	-200(%rbp), %rax
 1579      FFFFFF
 1580 02e5 488B88B8 		movq	440(%rax), %rcx
 1580      010000
 1581              		.loc 2 531 15
 1582 02ec 488B8538 		movq	-200(%rbp), %rax
 1582      FFFFFF
 1583 02f3 488B90C0 		movq	448(%rax), %rdx
 1583      010000
 530:/home/xingli/share/1205tiny/network/mqtt/paho_mqtt/port/paho_mqtt_port.c ****     if(MQTT_SUCCESS != MQTTClientInit(c, n, CONFIG_PAHO_CMD_TIMEOUT,\
 1584              		.loc 2 530 24
 1585 02fa 488BB528 		movq	-216(%rbp), %rsi
 1585      FFFFFF
 1586 0301 488B8530 		movq	-208(%rbp), %rax
 1586      FFFFFF
 1587 0308 4883EC08 		subq	$8, %rsp
 1588 030c 68000800 		pushq	$2048
 1588      00
 1589 0311 4989C9   		movq	%rcx, %r9
 1590 0314 41B80008 		movl	$2048, %r8d
 1590      0000
 1591 031a 4889D1   		movq	%rdx, %rcx
 1592 031d BA102700 		movl	$10000, %edx
 1592      00
 1593 0322 4889C7   		movq	%rax, %rdi
 1594 0325 E8000000 		call	MQTTClientInit@PLT
 1594      00
 1595 032a 4883C410 		addq	$16, %rsp
 530:/home/xingli/share/1205tiny/network/mqtt/paho_mqtt/port/paho_mqtt_port.c ****     if(MQTT_SUCCESS != MQTTClientInit(c, n, CONFIG_PAHO_CMD_TIMEOUT,\
 1596              		.loc 2 530 7
GAS LISTING /tmp/ccrqlIgG.s 			page 48


 1597 032e 85C0     		testl	%eax, %eax
 1598 0330 0F852A02 		jne	.L138
 1598      0000
 532:/home/xingli/share/1205tiny/network/mqtt/paho_mqtt/port/paho_mqtt_port.c ****     {
 533:/home/xingli/share/1205tiny/network/mqtt/paho_mqtt/port/paho_mqtt_port.c ****         goto EXIT_MQTT_INIT;
 534:/home/xingli/share/1205tiny/network/mqtt/paho_mqtt/port/paho_mqtt_port.c ****     }
 535:/home/xingli/share/1205tiny/network/mqtt/paho_mqtt/port/paho_mqtt_port.c ****     //then do make the mqtt connect param
 536:/home/xingli/share/1205tiny/network/mqtt/paho_mqtt/port/paho_mqtt_port.c ****     if(conparam->version == en_mqtt_al_version_3_1_0)
 1599              		.loc 2 536 16
 1600 0336 488B8508 		movq	-248(%rbp), %rax
 1600      FFFFFF
 1601 033d 8B4020   		movl	32(%rax), %eax
 1602              		.loc 2 536 7
 1603 0340 85C0     		testl	%eax, %eax
 1604 0342 7509     		jne	.L124
 537:/home/xingli/share/1205tiny/network/mqtt/paho_mqtt/port/paho_mqtt_port.c ****     {
 538:/home/xingli/share/1205tiny/network/mqtt/paho_mqtt/port/paho_mqtt_port.c ****         option.MQTTVersion = 3 ;
 1605              		.loc 2 538 28
 1606 0344 C68548FF 		movb	$3, -184(%rbp)
 1606      FFFF03
 1607 034b EB07     		jmp	.L125
 1608              	.L124:
 539:/home/xingli/share/1205tiny/network/mqtt/paho_mqtt/port/paho_mqtt_port.c ****     }
 540:/home/xingli/share/1205tiny/network/mqtt/paho_mqtt/port/paho_mqtt_port.c ****     else
 541:/home/xingli/share/1205tiny/network/mqtt/paho_mqtt/port/paho_mqtt_port.c ****     {
 542:/home/xingli/share/1205tiny/network/mqtt/paho_mqtt/port/paho_mqtt_port.c ****         option.MQTTVersion = 4 ;
 1609              		.loc 2 542 28
 1610 034d C68548FF 		movb	$4, -184(%rbp)
 1610      FFFF04
 1611              	.L125:
 543:/home/xingli/share/1205tiny/network/mqtt/paho_mqtt/port/paho_mqtt_port.c ****     }
 544:/home/xingli/share/1205tiny/network/mqtt/paho_mqtt/port/paho_mqtt_port.c **** 
 545:/home/xingli/share/1205tiny/network/mqtt/paho_mqtt/port/paho_mqtt_port.c ****     option.clientID.lenstring.len = conparam->clientid.len;
 1612              		.loc 2 545 55
 1613 0354 488B8508 		movq	-248(%rbp), %rax
 1613      FFFFFF
 1614 035b 8B4030   		movl	48(%rax), %eax
 1615              		.loc 2 545 35
 1616 035e 898558FF 		movl	%eax, -168(%rbp)
 1616      FFFF
 546:/home/xingli/share/1205tiny/network/mqtt/paho_mqtt/port/paho_mqtt_port.c ****     option.clientID.lenstring.data = conparam->clientid.data;
 1617              		.loc 2 546 56
 1618 0364 488B8508 		movq	-248(%rbp), %rax
 1618      FFFFFF
 1619 036b 488B4028 		movq	40(%rax), %rax
 1620              		.loc 2 546 36
 1621 036f 48898560 		movq	%rax, -160(%rbp)
 1621      FFFFFF
 547:/home/xingli/share/1205tiny/network/mqtt/paho_mqtt/port/paho_mqtt_port.c **** 
 548:/home/xingli/share/1205tiny/network/mqtt/paho_mqtt/port/paho_mqtt_port.c ****     option.keepAliveInterval = conparam->keepalivetime;
 1622              		.loc 2 548 40
 1623 0376 488B8508 		movq	-248(%rbp), %rax
 1623      FFFFFF
 1624 037d 0FB74068 		movzwl	104(%rax), %eax
 1625              		.loc 2 548 30
 1626 0381 66898568 		movw	%ax, -152(%rbp)
 1626      FFFFFF
GAS LISTING /tmp/ccrqlIgG.s 			page 49


 549:/home/xingli/share/1205tiny/network/mqtt/paho_mqtt/port/paho_mqtt_port.c **** 
 550:/home/xingli/share/1205tiny/network/mqtt/paho_mqtt/port/paho_mqtt_port.c ****     option.cleansession = (unsigned char)conparam->cleansession;
 1627              		.loc 2 550 50
 1628 0388 488B8508 		movq	-248(%rbp), %rax
 1628      FFFFFF
 1629 038f 8B4058   		movl	88(%rax), %eax
 1630              		.loc 2 550 25
 1631 0392 88856AFF 		movb	%al, -150(%rbp)
 1631      FFFF
 551:/home/xingli/share/1205tiny/network/mqtt/paho_mqtt/port/paho_mqtt_port.c **** 
 552:/home/xingli/share/1205tiny/network/mqtt/paho_mqtt/port/paho_mqtt_port.c ****     if(NULL != conparam->willmsg)
 1632              		.loc 2 552 24
 1633 0398 488B8508 		movq	-248(%rbp), %rax
 1633      FFFFFF
 1634 039f 488B4060 		movq	96(%rax), %rax
 1635              		.loc 2 552 7
 1636 03a3 4885C0   		testq	%rax, %rax
 1637 03a6 7472     		je	.L126
 553:/home/xingli/share/1205tiny/network/mqtt/paho_mqtt/port/paho_mqtt_port.c ****     {
 554:/home/xingli/share/1205tiny/network/mqtt/paho_mqtt/port/paho_mqtt_port.c **** 
 555:/home/xingli/share/1205tiny/network/mqtt/paho_mqtt/port/paho_mqtt_port.c ****         option.willFlag = 1;
 1638              		.loc 2 555 25
 1639 03a8 C6856BFF 		movb	$1, -149(%rbp)
 1639      FFFF01
 556:/home/xingli/share/1205tiny/network/mqtt/paho_mqtt/port/paho_mqtt_port.c ****         option.will.qos = conparam->willmsg->qos;
 1640              		.loc 2 556 35
 1641 03af 488B8508 		movq	-248(%rbp), %rax
 1641      FFFFFF
 1642 03b6 488B4060 		movq	96(%rax), %rax
 1643              		.loc 2 556 44
 1644 03ba 8B4020   		movl	32(%rax), %eax
 1645              		.loc 2 556 25
 1646 03bd 8845A9   		movb	%al, -87(%rbp)
 557:/home/xingli/share/1205tiny/network/mqtt/paho_mqtt/port/paho_mqtt_port.c ****         option.will.retained = (unsigned char )conparam->willmsg->retain;
 1647              		.loc 2 557 56
 1648 03c0 488B8508 		movq	-248(%rbp), %rax
 1648      FFFFFF
 1649 03c7 488B4060 		movq	96(%rax), %rax
 1650              		.loc 2 557 65
 1651 03cb 8B4024   		movl	36(%rax), %eax
 1652              		.loc 2 557 30
 1653 03ce 8845A8   		movb	%al, -88(%rbp)
 558:/home/xingli/share/1205tiny/network/mqtt/paho_mqtt/port/paho_mqtt_port.c **** 
 559:/home/xingli/share/1205tiny/network/mqtt/paho_mqtt/port/paho_mqtt_port.c ****         option.will.topicName.lenstring.len = conparam->willmsg->topic.len;
 1654              		.loc 2 559 55
 1655 03d1 488B8508 		movq	-248(%rbp), %rax
 1655      FFFFFF
 1656 03d8 488B4060 		movq	96(%rax), %rax
 1657              		.loc 2 559 71
 1658 03dc 8B4008   		movl	8(%rax), %eax
 1659              		.loc 2 559 45
 1660 03df 894580   		movl	%eax, -128(%rbp)
 560:/home/xingli/share/1205tiny/network/mqtt/paho_mqtt/port/paho_mqtt_port.c ****         option.will.topicName.lenstring.data = conparam->willmsg->topic.data;
 1661              		.loc 2 560 56
 1662 03e2 488B8508 		movq	-248(%rbp), %rax
 1662      FFFFFF
 1663 03e9 488B4060 		movq	96(%rax), %rax
GAS LISTING /tmp/ccrqlIgG.s 			page 50


 1664              		.loc 2 560 72
 1665 03ed 488B00   		movq	(%rax), %rax
 1666              		.loc 2 560 46
 1667 03f0 48894588 		movq	%rax, -120(%rbp)
 561:/home/xingli/share/1205tiny/network/mqtt/paho_mqtt/port/paho_mqtt_port.c **** 
 562:/home/xingli/share/1205tiny/network/mqtt/paho_mqtt/port/paho_mqtt_port.c ****         option.will.message.lenstring.len =conparam->willmsg->msg.len;
 1668              		.loc 2 562 52
 1669 03f4 488B8508 		movq	-248(%rbp), %rax
 1669      FFFFFF
 1670 03fb 488B4060 		movq	96(%rax), %rax
 1671              		.loc 2 562 66
 1672 03ff 8B4018   		movl	24(%rax), %eax
 1673              		.loc 2 562 43
 1674 0402 894598   		movl	%eax, -104(%rbp)
 563:/home/xingli/share/1205tiny/network/mqtt/paho_mqtt/port/paho_mqtt_port.c ****         option.will.message.lenstring.data =conparam->willmsg->msg.data;
 1675              		.loc 2 563 53
 1676 0405 488B8508 		movq	-248(%rbp), %rax
 1676      FFFFFF
 1677 040c 488B4060 		movq	96(%rax), %rax
 1678              		.loc 2 563 67
 1679 0410 488B4010 		movq	16(%rax), %rax
 1680              		.loc 2 563 44
 1681 0414 488945A0 		movq	%rax, -96(%rbp)
 1682 0418 EB07     		jmp	.L127
 1683              	.L126:
 564:/home/xingli/share/1205tiny/network/mqtt/paho_mqtt/port/paho_mqtt_port.c **** 
 565:/home/xingli/share/1205tiny/network/mqtt/paho_mqtt/port/paho_mqtt_port.c ****     }
 566:/home/xingli/share/1205tiny/network/mqtt/paho_mqtt/port/paho_mqtt_port.c ****     else
 567:/home/xingli/share/1205tiny/network/mqtt/paho_mqtt/port/paho_mqtt_port.c ****     {
 568:/home/xingli/share/1205tiny/network/mqtt/paho_mqtt/port/paho_mqtt_port.c ****         option.willFlag = 0;
 1684              		.loc 2 568 25
 1685 041a C6856BFF 		movb	$0, -149(%rbp)
 1685      FFFF00
 1686              	.L127:
 569:/home/xingli/share/1205tiny/network/mqtt/paho_mqtt/port/paho_mqtt_port.c ****     }
 570:/home/xingli/share/1205tiny/network/mqtt/paho_mqtt/port/paho_mqtt_port.c **** 
 571:/home/xingli/share/1205tiny/network/mqtt/paho_mqtt/port/paho_mqtt_port.c ****     option.username.lenstring.len = conparam->user.len;
 1687              		.loc 2 571 51
 1688 0421 488B8508 		movq	-248(%rbp), %rax
 1688      FFFFFF
 1689 0428 8B4040   		movl	64(%rax), %eax
 1690              		.loc 2 571 35
 1691 042b 8945B8   		movl	%eax, -72(%rbp)
 572:/home/xingli/share/1205tiny/network/mqtt/paho_mqtt/port/paho_mqtt_port.c ****     option.username.lenstring.data = conparam->user.data;
 1692              		.loc 2 572 52
 1693 042e 488B8508 		movq	-248(%rbp), %rax
 1693      FFFFFF
 1694 0435 488B4038 		movq	56(%rax), %rax
 1695              		.loc 2 572 36
 1696 0439 488945C0 		movq	%rax, -64(%rbp)
 573:/home/xingli/share/1205tiny/network/mqtt/paho_mqtt/port/paho_mqtt_port.c **** 
 574:/home/xingli/share/1205tiny/network/mqtt/paho_mqtt/port/paho_mqtt_port.c ****     option.password.lenstring.len = conparam->passwd.len;
 1697              		.loc 2 574 53
 1698 043d 488B8508 		movq	-248(%rbp), %rax
 1698      FFFFFF
 1699 0444 8B4050   		movl	80(%rax), %eax
 1700              		.loc 2 574 35
GAS LISTING /tmp/ccrqlIgG.s 			page 51


 1701 0447 8945D0   		movl	%eax, -48(%rbp)
 575:/home/xingli/share/1205tiny/network/mqtt/paho_mqtt/port/paho_mqtt_port.c ****     option.password.lenstring.data = conparam->passwd.data;
 1702              		.loc 2 575 54
 1703 044a 488B8508 		movq	-248(%rbp), %rax
 1703      FFFFFF
 1704 0451 488B4048 		movq	72(%rax), %rax
 1705              		.loc 2 575 36
 1706 0455 488945D8 		movq	%rax, -40(%rbp)
 576:/home/xingli/share/1205tiny/network/mqtt/paho_mqtt/port/paho_mqtt_port.c **** 
 577:/home/xingli/share/1205tiny/network/mqtt/paho_mqtt/port/paho_mqtt_port.c ****     if((MQTT_SUCCESS != MQTTConnectWithResults(c, &option,&conack)) || \
 1707              		.loc 2 577 25
 1708 0459 488D951E 		leaq	-226(%rbp), %rdx
 1708      FFFFFF
 1709 0460 488D8D40 		leaq	-192(%rbp), %rcx
 1709      FFFFFF
 1710 0467 488B8530 		movq	-208(%rbp), %rax
 1710      FFFFFF
 1711 046e 4889CE   		movq	%rcx, %rsi
 1712 0471 4889C7   		movq	%rax, %rdi
 1713 0474 E8000000 		call	MQTTConnectWithResults@PLT
 1713      00
 1714              		.loc 2 577 7
 1715 0479 85C0     		testl	%eax, %eax
 1716 047b 750B     		jne	.L128
 578:/home/xingli/share/1205tiny/network/mqtt/paho_mqtt/port/paho_mqtt_port.c ****          (conack.rc != cn_mqtt_al_con_code_ok))
 1717              		.loc 2 578 17 discriminator 1
 1718 047d 0FB6851E 		movzbl	-226(%rbp), %eax
 1718      FFFFFF
 577:/home/xingli/share/1205tiny/network/mqtt/paho_mqtt/port/paho_mqtt_port.c ****          (conack.rc != cn_mqtt_al_con_code_ok))
 1719              		.loc 2 577 69 discriminator 1
 1720 0484 84C0     		testb	%al, %al
 1721 0486 7418     		je	.L129
 1722              	.L128:
 579:/home/xingli/share/1205tiny/network/mqtt/paho_mqtt/port/paho_mqtt_port.c ****     {
 580:/home/xingli/share/1205tiny/network/mqtt/paho_mqtt/port/paho_mqtt_port.c ****         conparam->conret = conack.rc;
 1723              		.loc 2 580 34
 1724 0488 0FB6851E 		movzbl	-226(%rbp), %eax
 1724      FFFFFF
 1725 048f 89C2     		movl	%eax, %edx
 1726              		.loc 2 580 26
 1727 0491 488B8508 		movq	-248(%rbp), %rax
 1727      FFFFFF
 1728 0498 88506A   		movb	%dl, 106(%rax)
 581:/home/xingli/share/1205tiny/network/mqtt/paho_mqtt/port/paho_mqtt_port.c ****         goto EXIT_MQTT_CONNECT;
 1729              		.loc 2 581 9
 1730 049b E9AF0000 		jmp	.L130
 1730      00
 1731              	.L129:
 582:/home/xingli/share/1205tiny/network/mqtt/paho_mqtt/port/paho_mqtt_port.c ****     }
 583:/home/xingli/share/1205tiny/network/mqtt/paho_mqtt/port/paho_mqtt_port.c ****     else
 584:/home/xingli/share/1205tiny/network/mqtt/paho_mqtt/port/paho_mqtt_port.c ****     {
 585:/home/xingli/share/1205tiny/network/mqtt/paho_mqtt/port/paho_mqtt_port.c ****         conparam->conret = conack.rc;
 1732              		.loc 2 585 34
 1733 04a0 0FB6851E 		movzbl	-226(%rbp), %eax
 1733      FFFFFF
 1734 04a7 89C2     		movl	%eax, %edx
 1735              		.loc 2 585 26
GAS LISTING /tmp/ccrqlIgG.s 			page 52


 1736 04a9 488B8508 		movq	-248(%rbp), %rax
 1736      FFFFFF
 1737 04b0 88506A   		movb	%dl, 106(%rax)
 586:/home/xingli/share/1205tiny/network/mqtt/paho_mqtt/port/paho_mqtt_port.c ****     }
 587:/home/xingli/share/1205tiny/network/mqtt/paho_mqtt/port/paho_mqtt_port.c ****     //create the loop task here
 588:/home/xingli/share/1205tiny/network/mqtt/paho_mqtt/port/paho_mqtt_port.c ****     cb->task = osal_task_create("paho",__loop_entry,cb,0x800,NULL,4);
 1738              		.loc 2 588 16
 1739 04b3 488B8538 		movq	-200(%rbp), %rax
 1739      FFFFFF
 1740 04ba 41B90400 		movl	$4, %r9d
 1740      0000
 1741 04c0 41B80000 		movl	$0, %r8d
 1741      0000
 1742 04c6 B9000800 		movl	$2048, %ecx
 1742      00
 1743 04cb 4889C2   		movq	%rax, %rdx
 1744 04ce 488D3500 		leaq	__loop_entry(%rip), %rsi
 1744      000000
 1745 04d5 488D3D00 		leaq	.LC1(%rip), %rdi
 1745      000000
 1746 04dc E8000000 		call	osal_task_create@PLT
 1746      00
 1747              		.loc 2 588 14
 1748 04e1 488B9538 		movq	-200(%rbp), %rdx
 1748      FFFFFF
 1749 04e8 488982B0 		movq	%rax, 432(%rdx)
 1749      010000
 589:/home/xingli/share/1205tiny/network/mqtt/paho_mqtt/port/paho_mqtt_port.c ****     if(NULL == cb->task)
 1750              		.loc 2 589 18
 1751 04ef 488B8538 		movq	-200(%rbp), %rax
 1751      FFFFFF
 1752 04f6 488B80B0 		movq	432(%rax), %rax
 1752      010000
 1753              		.loc 2 589 7
 1754 04fd 4885C0   		testq	%rax, %rax
 1755 0500 7439     		je	.L139
 590:/home/xingli/share/1205tiny/network/mqtt/paho_mqtt/port/paho_mqtt_port.c ****     {
 591:/home/xingli/share/1205tiny/network/mqtt/paho_mqtt/port/paho_mqtt_port.c ****         goto EXIT_MQTT_MAINTASK;
 592:/home/xingli/share/1205tiny/network/mqtt/paho_mqtt/port/paho_mqtt_port.c ****     }
 593:/home/xingli/share/1205tiny/network/mqtt/paho_mqtt/port/paho_mqtt_port.c ****     cb->stop = 0;
 1756              		.loc 2 593 14
 1757 0502 488B8538 		movq	-200(%rbp), %rax
 1757      FFFFFF
 1758 0509 C780C801 		movl	$0, 456(%rax)
 1758      00000000 
 1758      0000
 594:/home/xingli/share/1205tiny/network/mqtt/paho_mqtt/port/paho_mqtt_port.c ****     cb->stoped = 0;
 1759              		.loc 2 594 16
 1760 0513 488B8538 		movq	-200(%rbp), %rax
 1760      FFFFFF
 1761 051a C780CC01 		movl	$0, 460(%rax)
 1761      00000000 
 1761      0000
 595:/home/xingli/share/1205tiny/network/mqtt/paho_mqtt/port/paho_mqtt_port.c ****     ret = cb;
 1762              		.loc 2 595 9
 1763 0524 488B8538 		movq	-200(%rbp), %rax
 1763      FFFFFF
GAS LISTING /tmp/ccrqlIgG.s 			page 53


 1764 052b 48898520 		movq	%rax, -224(%rbp)
 1764      FFFFFF
 596:/home/xingli/share/1205tiny/network/mqtt/paho_mqtt/port/paho_mqtt_port.c **** 
 597:/home/xingli/share/1205tiny/network/mqtt/paho_mqtt/port/paho_mqtt_port.c ****     return ret;
 1765              		.loc 2 597 12
 1766 0532 488B8520 		movq	-224(%rbp), %rax
 1766      FFFFFF
 1767 0539 EB75     		jmp	.L135
 1768              	.L139:
 591:/home/xingli/share/1205tiny/network/mqtt/paho_mqtt/port/paho_mqtt_port.c ****     }
 1769              		.loc 2 591 9
 1770 053b 90       		nop
 1771              	.L132:
 1772 053c F30F1EFA 		endbr64
 598:/home/xingli/share/1205tiny/network/mqtt/paho_mqtt/port/paho_mqtt_port.c **** 
 599:/home/xingli/share/1205tiny/network/mqtt/paho_mqtt/port/paho_mqtt_port.c **** EXIT_MQTT_MAINTASK:
 600:/home/xingli/share/1205tiny/network/mqtt/paho_mqtt/port/paho_mqtt_port.c ****     (void)MQTTDisconnect(c);
 1773              		.loc 2 600 11
 1774 0540 488B8530 		movq	-208(%rbp), %rax
 1774      FFFFFF
 1775 0547 4889C7   		movq	%rax, %rdi
 1776 054a E8000000 		call	MQTTDisconnect@PLT
 1776      00
 1777              	.L130:
 601:/home/xingli/share/1205tiny/network/mqtt/paho_mqtt/port/paho_mqtt_port.c **** EXIT_MQTT_CONNECT:
 602:/home/xingli/share/1205tiny/network/mqtt/paho_mqtt/port/paho_mqtt_port.c ****     MQTTClientDeInit(c);
 1778              		.loc 2 602 5
 1779 054f 488B8530 		movq	-208(%rbp), %rax
 1779      FFFFFF
 1780 0556 4889C7   		movq	%rax, %rdi
 1781 0559 E8000000 		call	MQTTClientDeInit@PLT
 1781      00
 1782 055e EB01     		jmp	.L134
 1783              	.L122:
 1784              	.L138:
 533:/home/xingli/share/1205tiny/network/mqtt/paho_mqtt/port/paho_mqtt_port.c ****     }
 1785              		.loc 2 533 9
 1786 0560 90       		nop
 1787              	.L134:
 603:/home/xingli/share/1205tiny/network/mqtt/paho_mqtt/port/paho_mqtt_port.c **** EXIT_MQTT_INIT:
 604:/home/xingli/share/1205tiny/network/mqtt/paho_mqtt/port/paho_mqtt_port.c **** EIXT_BUF_MEM_ERR:
 605:/home/xingli/share/1205tiny/network/mqtt/paho_mqtt/port/paho_mqtt_port.c ****     __io_disconnect(n);
 1788              		.loc 2 605 5
 1789 0561 488B8528 		movq	-216(%rbp), %rax
 1789      FFFFFF
 1790 0568 4889C7   		movq	%rax, %rdi
 1791 056b E8000000 		call	__io_disconnect
 1791      00
 606:/home/xingli/share/1205tiny/network/mqtt/paho_mqtt/port/paho_mqtt_port.c ****     osal_free(cb->rcvbuf);
 1792              		.loc 2 606 5
 1793 0570 488B8538 		movq	-200(%rbp), %rax
 1793      FFFFFF
 1794 0577 488B80B8 		movq	440(%rax), %rax
 1794      010000
 1795 057e 4889C7   		movq	%rax, %rdi
 1796 0581 E8000000 		call	osal_free@PLT
 1796      00
GAS LISTING /tmp/ccrqlIgG.s 			page 54


 607:/home/xingli/share/1205tiny/network/mqtt/paho_mqtt/port/paho_mqtt_port.c ****     osal_free(cb->sndbuf);
 1797              		.loc 2 607 5
 1798 0586 488B8538 		movq	-200(%rbp), %rax
 1798      FFFFFF
 1799 058d 488B80C0 		movq	448(%rax), %rax
 1799      010000
 1800 0594 4889C7   		movq	%rax, %rdi
 1801 0597 E8000000 		call	osal_free@PLT
 1801      00
 1802              	.L119:
 608:/home/xingli/share/1205tiny/network/mqtt/paho_mqtt/port/paho_mqtt_port.c **** 
 609:/home/xingli/share/1205tiny/network/mqtt/paho_mqtt/port/paho_mqtt_port.c **** EXIT_NET_CONNECT_ERR:
 610:/home/xingli/share/1205tiny/network/mqtt/paho_mqtt/port/paho_mqtt_port.c ****     osal_free(cb);
 1803              		.loc 2 610 5
 1804 059c 488B8538 		movq	-200(%rbp), %rax
 1804      FFFFFF
 1805 05a3 4889C7   		movq	%rax, %rdi
 1806 05a6 E8000000 		call	osal_free@PLT
 1806      00
 1807              	.L115:
 611:/home/xingli/share/1205tiny/network/mqtt/paho_mqtt/port/paho_mqtt_port.c **** EXIT_CB_MEM_ERR:
 612:/home/xingli/share/1205tiny/network/mqtt/paho_mqtt/port/paho_mqtt_port.c ****     return NULL;
 1808              		.loc 2 612 12
 1809 05ab B8000000 		movl	$0, %eax
 1809      00
 1810              	.L135:
 613:/home/xingli/share/1205tiny/network/mqtt/paho_mqtt/port/paho_mqtt_port.c **** }
 1811              		.loc 2 613 1 discriminator 1
 1812 05b0 488B5DE8 		movq	-24(%rbp), %rbx
 1813 05b4 6448331C 		xorq	%fs:40, %rbx
 1813      25280000 
 1813      00
 1814 05bd 7405     		je	.L136
 1815              		.loc 2 613 1 is_stmt 0
 1816 05bf E8000000 		call	__stack_chk_fail@PLT
 1816      00
 1817              	.L136:
 1818 05c4 488B5DF8 		movq	-8(%rbp), %rbx
 1819 05c8 C9       		leave
 1820              	.LCFI53:
 1821              		.cfi_def_cfa 7, 8
 1822 05c9 C3       		ret
 1823              		.cfi_endproc
 1824              	.LFE23:
 1826              		.section	.rodata
 1827              	.LC2:
 1828 0008 5B25735D 		.string	"[%s][%u][%s] PAHO_EXIT_NOW\r\n"
 1828      5B25755D 
 1828      5B25735D 
 1828      20504148 
 1828      4F5F4558 
 1829 0025 000000   		.align 8
 1830              	.LC3:
 1831 0028 5B25735D 		.string	"[%s][%u][%s] PAHO_EXIT_SENDISCONNECT  MESSAGE\r\n"
 1831      5B25755D 
 1831      5B25735D 
 1831      20504148 
GAS LISTING /tmp/ccrqlIgG.s 			page 55


 1831      4F5F4558 
 1832              		.align 8
 1833              	.LC4:
 1834 0058 5B25735D 		.string	"[%s][%u][%s] PAHO MAKE THE TASK TO EXIT\r\n"
 1834      5B25755D 
 1834      5B25735D 
 1834      20504148 
 1834      4F204D41 
 1835 0082 00000000 		.align 8
 1835      0000
 1836              	.LC5:
 1837 0088 5B25735D 		.string	"[%s][%u][%s] PAHO  TO CLOSE THE NETWORK\r\n"
 1837      5B25755D 
 1837      5B25735D 
 1837      20504148 
 1837      4F202054 
 1838 00b2 00000000 		.align 8
 1838      0000
 1839              	.LC6:
 1840 00b8 5B25735D 		.string	"[%s][%u][%s] PAHO  TO CLEAR THE MUTEX\r\n"
 1840      5B25755D 
 1840      5B25735D 
 1840      20504148 
 1840      4F202054 
 1841              		.align 8
 1842              	.LC7:
 1843 00e0 5B25735D 		.string	"[%s][%u][%s] PAHO  TO FREE THE MEMORY\r\n"
 1843      5B25755D 
 1843      5B25735D 
 1843      20504148 
 1843      4F202054 
 1844              	.LC8:
 1845 0108 5B25735D 		.string	"[%s][%u][%s] PAHO TASK EXIT\r\n"
 1845      5B25755D 
 1845      5B25735D 
 1845      20504148 
 1845      4F205441 
 1846              		.section	.text.__disconnect,"ax",@progbits
 1848              	__disconnect:
 1849              	.LFB24:
 614:/home/xingli/share/1205tiny/network/mqtt/paho_mqtt/port/paho_mqtt_port.c **** 
 615:/home/xingli/share/1205tiny/network/mqtt/paho_mqtt/port/paho_mqtt_port.c **** static int __disconnect(void *handle)
 616:/home/xingli/share/1205tiny/network/mqtt/paho_mqtt/port/paho_mqtt_port.c **** {
 1850              		.loc 2 616 1 is_stmt 1
 1851              		.cfi_startproc
 1852 0000 F30F1EFA 		endbr64
 1853 0004 55       		pushq	%rbp
 1854              	.LCFI54:
 1855              		.cfi_def_cfa_offset 16
 1856              		.cfi_offset 6, -16
 1857 0005 4889E5   		movq	%rsp, %rbp
 1858              	.LCFI55:
 1859              		.cfi_def_cfa_register 6
 1860 0008 53       		pushq	%rbx
 1861 0009 4883EC48 		subq	$72, %rsp
 1862              		.cfi_offset 3, -24
 1863 000d 48897DB8 		movq	%rdi, -72(%rbp)
GAS LISTING /tmp/ccrqlIgG.s 			page 56


 1864              		.loc 2 616 1
 1865 0011 64488B04 		movq	%fs:40, %rax
 1865      25280000 
 1865      00
 1866 001a 488945E8 		movq	%rax, -24(%rbp)
 1867 001e 31C0     		xorl	%eax, %eax
 617:/home/xingli/share/1205tiny/network/mqtt/paho_mqtt/port/paho_mqtt_port.c ****     int ret = -1;
 1868              		.loc 2 617 9
 1869 0020 C745CCFF 		movl	$-1, -52(%rbp)
 1869      FFFFFF
 618:/home/xingli/share/1205tiny/network/mqtt/paho_mqtt/port/paho_mqtt_port.c **** 
 619:/home/xingli/share/1205tiny/network/mqtt/paho_mqtt/port/paho_mqtt_port.c ****     MQTTClient       *c = NULL;
 1870              		.loc 2 619 23
 1871 0027 48C745D0 		movq	$0, -48(%rbp)
 1871      00000000 
 620:/home/xingli/share/1205tiny/network/mqtt/paho_mqtt/port/paho_mqtt_port.c ****     paho_mqtt_cb_t   *cb = NULL;
 1872              		.loc 2 620 23
 1873 002f 48C745D8 		movq	$0, -40(%rbp)
 1873      00000000 
 621:/home/xingli/share/1205tiny/network/mqtt/paho_mqtt/port/paho_mqtt_port.c ****     Network           *n = NULL;
 1874              		.loc 2 621 24
 1875 0037 48C745E0 		movq	$0, -32(%rbp)
 1875      00000000 
 622:/home/xingli/share/1205tiny/network/mqtt/paho_mqtt/port/paho_mqtt_port.c **** 
 623:/home/xingli/share/1205tiny/network/mqtt/paho_mqtt/port/paho_mqtt_port.c ****     LINK_LOG_DEBUG("PAHO_EXIT_NOW");
 1876              		.loc 2 623 5
 1877 003f E8000000 		call	link_log_level_get@PLT
 1877      00
 1878 0044 83F801   		cmpl	$1, %eax
 1879 0047 773D     		ja	.L141
 1880              		.loc 2 623 5 is_stmt 0 discriminator 1
 1881 0049 E8000000 		call	osal_sys_time@PLT
 1881      00
 1882 004e 89C3     		movl	%eax, %ebx
 1883 0050 BF010000 		movl	$1, %edi
 1883      00
 1884 0055 E8000000 		call	link_log_level_name@PLT
 1884      00
 1885 005a 488D0D00 		leaq	__FUNCTION__.4258(%rip), %rcx
 1885      000000
 1886 0061 89DA     		movl	%ebx, %edx
 1887 0063 4889C6   		movq	%rax, %rsi
 1888 0066 488D3D00 		leaq	.LC2(%rip), %rdi
 1888      000000
 1889 006d B8000000 		movl	$0, %eax
 1889      00
 1890 0072 E8000000 		call	printf@PLT
 1890      00
 1891 0077 488B0500 		movq	stdout(%rip), %rax
 1891      000000
 1892 007e 4889C7   		movq	%rax, %rdi
 1893 0081 E8000000 		call	fflush@PLT
 1893      00
 1894              	.L141:
 624:/home/xingli/share/1205tiny/network/mqtt/paho_mqtt/port/paho_mqtt_port.c ****     if (NULL == handle)
 1895              		.loc 2 624 8 is_stmt 1
 1896 0086 48837DB8 		cmpq	$0, -72(%rbp)
GAS LISTING /tmp/ccrqlIgG.s 			page 57


 1896      00
 1897 008b 7508     		jne	.L142
 625:/home/xingli/share/1205tiny/network/mqtt/paho_mqtt/port/paho_mqtt_port.c ****     {
 626:/home/xingli/share/1205tiny/network/mqtt/paho_mqtt/port/paho_mqtt_port.c ****         return ret;
 1898              		.loc 2 626 16
 1899 008d 8B45CC   		movl	-52(%rbp), %eax
 1900 0090 E9660200 		jmp	.L143
 1900      00
 1901              	.L142:
 627:/home/xingli/share/1205tiny/network/mqtt/paho_mqtt/port/paho_mqtt_port.c ****     }
 628:/home/xingli/share/1205tiny/network/mqtt/paho_mqtt/port/paho_mqtt_port.c ****     cb = handle;
 1902              		.loc 2 628 8
 1903 0095 488B45B8 		movq	-72(%rbp), %rax
 1904 0099 488945D8 		movq	%rax, -40(%rbp)
 629:/home/xingli/share/1205tiny/network/mqtt/paho_mqtt/port/paho_mqtt_port.c **** 
 630:/home/xingli/share/1205tiny/network/mqtt/paho_mqtt/port/paho_mqtt_port.c ****     c = &cb->client;
 1905              		.loc 2 630 7
 1906 009d 488B45D8 		movq	-40(%rbp), %rax
 1907 00a1 4883C058 		addq	$88, %rax
 1908 00a5 488945D0 		movq	%rax, -48(%rbp)
 631:/home/xingli/share/1205tiny/network/mqtt/paho_mqtt/port/paho_mqtt_port.c ****     LINK_LOG_DEBUG("PAHO_EXIT_SENDISCONNECT  MESSAGE");
 1909              		.loc 2 631 5
 1910 00a9 E8000000 		call	link_log_level_get@PLT
 1910      00
 1911 00ae 83F801   		cmpl	$1, %eax
 1912 00b1 773D     		ja	.L144
 1913              		.loc 2 631 5 is_stmt 0 discriminator 1
 1914 00b3 E8000000 		call	osal_sys_time@PLT
 1914      00
 1915 00b8 89C3     		movl	%eax, %ebx
 1916 00ba BF010000 		movl	$1, %edi
 1916      00
 1917 00bf E8000000 		call	link_log_level_name@PLT
 1917      00
 1918 00c4 488D0D00 		leaq	__FUNCTION__.4258(%rip), %rcx
 1918      000000
 1919 00cb 89DA     		movl	%ebx, %edx
 1920 00cd 4889C6   		movq	%rax, %rsi
 1921 00d0 488D3D00 		leaq	.LC3(%rip), %rdi
 1921      000000
 1922 00d7 B8000000 		movl	$0, %eax
 1922      00
 1923 00dc E8000000 		call	printf@PLT
 1923      00
 1924 00e1 488B0500 		movq	stdout(%rip), %rax
 1924      000000
 1925 00e8 4889C7   		movq	%rax, %rdi
 1926 00eb E8000000 		call	fflush@PLT
 1926      00
 1927              	.L144:
 632:/home/xingli/share/1205tiny/network/mqtt/paho_mqtt/port/paho_mqtt_port.c ****     //mqtt disconnect
 633:/home/xingli/share/1205tiny/network/mqtt/paho_mqtt/port/paho_mqtt_port.c ****     (void)MQTTDisconnect(c);
 1928              		.loc 2 633 11 is_stmt 1
 1929 00f0 488B45D0 		movq	-48(%rbp), %rax
 1930 00f4 4889C7   		movq	%rax, %rdi
 1931 00f7 E8000000 		call	MQTTDisconnect@PLT
 1931      00
GAS LISTING /tmp/ccrqlIgG.s 			page 58


 634:/home/xingli/share/1205tiny/network/mqtt/paho_mqtt/port/paho_mqtt_port.c ****     //make the task to exit
 635:/home/xingli/share/1205tiny/network/mqtt/paho_mqtt/port/paho_mqtt_port.c ****     LINK_LOG_DEBUG("PAHO MAKE THE TASK TO EXIT");
 1932              		.loc 2 635 5
 1933 00fc E8000000 		call	link_log_level_get@PLT
 1933      00
 1934 0101 83F801   		cmpl	$1, %eax
 1935 0104 773D     		ja	.L145
 1936              		.loc 2 635 5 is_stmt 0 discriminator 1
 1937 0106 E8000000 		call	osal_sys_time@PLT
 1937      00
 1938 010b 89C3     		movl	%eax, %ebx
 1939 010d BF010000 		movl	$1, %edi
 1939      00
 1940 0112 E8000000 		call	link_log_level_name@PLT
 1940      00
 1941 0117 488D0D00 		leaq	__FUNCTION__.4258(%rip), %rcx
 1941      000000
 1942 011e 89DA     		movl	%ebx, %edx
 1943 0120 4889C6   		movq	%rax, %rsi
 1944 0123 488D3D00 		leaq	.LC4(%rip), %rdi
 1944      000000
 1945 012a B8000000 		movl	$0, %eax
 1945      00
 1946 012f E8000000 		call	printf@PLT
 1946      00
 1947 0134 488B0500 		movq	stdout(%rip), %rax
 1947      000000
 1948 013b 4889C7   		movq	%rax, %rdi
 1949 013e E8000000 		call	fflush@PLT
 1949      00
 1950              	.L145:
 636:/home/xingli/share/1205tiny/network/mqtt/paho_mqtt/port/paho_mqtt_port.c ****     __mqtt_cb_stop(cb);
 1951              		.loc 2 636 5 is_stmt 1
 1952 0143 488B45D8 		movq	-40(%rbp), %rax
 1953 0147 4889C7   		movq	%rax, %rdi
 1954 014a E8000000 		call	__mqtt_cb_stop
 1954      00
 637:/home/xingli/share/1205tiny/network/mqtt/paho_mqtt/port/paho_mqtt_port.c **** 
 638:/home/xingli/share/1205tiny/network/mqtt/paho_mqtt/port/paho_mqtt_port.c ****     while(0 == cb->stoped)  ///< wait for the loop to exit
 1955              		.loc 2 638 10
 1956 014f EB0A     		jmp	.L146
 1957              	.L147:
 639:/home/xingli/share/1205tiny/network/mqtt/paho_mqtt/port/paho_mqtt_port.c ****     {
 640:/home/xingli/share/1205tiny/network/mqtt/paho_mqtt/port/paho_mqtt_port.c ****         osal_task_sleep(1000);
 1958              		.loc 2 640 9
 1959 0151 BFE80300 		movl	$1000, %edi
 1959      00
 1960 0156 E8000000 		call	osal_task_sleep@PLT
 1960      00
 1961              	.L146:
 638:/home/xingli/share/1205tiny/network/mqtt/paho_mqtt/port/paho_mqtt_port.c ****     {
 1962              		.loc 2 638 18
 1963 015b 488B45D8 		movq	-40(%rbp), %rax
 1964 015f 8B80CC01 		movl	460(%rax), %eax
 1964      0000
 638:/home/xingli/share/1205tiny/network/mqtt/paho_mqtt/port/paho_mqtt_port.c ****     {
 1965              		.loc 2 638 10
GAS LISTING /tmp/ccrqlIgG.s 			page 59


 1966 0165 85C0     		testl	%eax, %eax
 1967 0167 74E8     		je	.L147
 641:/home/xingli/share/1205tiny/network/mqtt/paho_mqtt/port/paho_mqtt_port.c ****     }
 642:/home/xingli/share/1205tiny/network/mqtt/paho_mqtt/port/paho_mqtt_port.c ****     osal_task_kill(cb->task);
 1968              		.loc 2 642 5
 1969 0169 488B45D8 		movq	-40(%rbp), %rax
 1970 016d 488B80B0 		movq	432(%rax), %rax
 1970      010000
 1971 0174 4889C7   		movq	%rax, %rdi
 1972 0177 E8000000 		call	osal_task_kill@PLT
 1972      00
 643:/home/xingli/share/1205tiny/network/mqtt/paho_mqtt/port/paho_mqtt_port.c ****     c = &cb->client;
 1973              		.loc 2 643 7
 1974 017c 488B45D8 		movq	-40(%rbp), %rax
 1975 0180 4883C058 		addq	$88, %rax
 1976 0184 488945D0 		movq	%rax, -48(%rbp)
 644:/home/xingli/share/1205tiny/network/mqtt/paho_mqtt/port/paho_mqtt_port.c ****     n = &cb->network;
 1977              		.loc 2 644 7
 1978 0188 488B45D8 		movq	-40(%rbp), %rax
 1979 018c 488945E0 		movq	%rax, -32(%rbp)
 645:/home/xingli/share/1205tiny/network/mqtt/paho_mqtt/port/paho_mqtt_port.c ****     //net disconnect
 646:/home/xingli/share/1205tiny/network/mqtt/paho_mqtt/port/paho_mqtt_port.c ****     LINK_LOG_DEBUG("PAHO  TO CLOSE THE NETWORK");
 1980              		.loc 2 646 5
 1981 0190 E8000000 		call	link_log_level_get@PLT
 1981      00
 1982 0195 83F801   		cmpl	$1, %eax
 1983 0198 773D     		ja	.L148
 1984              		.loc 2 646 5 is_stmt 0 discriminator 1
 1985 019a E8000000 		call	osal_sys_time@PLT
 1985      00
 1986 019f 89C3     		movl	%eax, %ebx
 1987 01a1 BF010000 		movl	$1, %edi
 1987      00
 1988 01a6 E8000000 		call	link_log_level_name@PLT
 1988      00
 1989 01ab 488D0D00 		leaq	__FUNCTION__.4258(%rip), %rcx
 1989      000000
 1990 01b2 89DA     		movl	%ebx, %edx
 1991 01b4 4889C6   		movq	%rax, %rsi
 1992 01b7 488D3D00 		leaq	.LC5(%rip), %rdi
 1992      000000
 1993 01be B8000000 		movl	$0, %eax
 1993      00
 1994 01c3 E8000000 		call	printf@PLT
 1994      00
 1995 01c8 488B0500 		movq	stdout(%rip), %rax
 1995      000000
 1996 01cf 4889C7   		movq	%rax, %rdi
 1997 01d2 E8000000 		call	fflush@PLT
 1997      00
 1998              	.L148:
 647:/home/xingli/share/1205tiny/network/mqtt/paho_mqtt/port/paho_mqtt_port.c ****     __io_disconnect(n);
 1999              		.loc 2 647 5 is_stmt 1
 2000 01d7 488B45E0 		movq	-32(%rbp), %rax
 2001 01db 4889C7   		movq	%rax, %rdi
 2002 01de E8000000 		call	__io_disconnect
 2002      00
GAS LISTING /tmp/ccrqlIgG.s 			page 60


 648:/home/xingli/share/1205tiny/network/mqtt/paho_mqtt/port/paho_mqtt_port.c ****     //deinit the mqtt
 649:/home/xingli/share/1205tiny/network/mqtt/paho_mqtt/port/paho_mqtt_port.c ****     LINK_LOG_DEBUG("PAHO  TO CLEAR THE MUTEX");
 2003              		.loc 2 649 5
 2004 01e3 E8000000 		call	link_log_level_get@PLT
 2004      00
 2005 01e8 83F801   		cmpl	$1, %eax
 2006 01eb 773D     		ja	.L149
 2007              		.loc 2 649 5 is_stmt 0 discriminator 1
 2008 01ed E8000000 		call	osal_sys_time@PLT
 2008      00
 2009 01f2 89C3     		movl	%eax, %ebx
 2010 01f4 BF010000 		movl	$1, %edi
 2010      00
 2011 01f9 E8000000 		call	link_log_level_name@PLT
 2011      00
 2012 01fe 488D0D00 		leaq	__FUNCTION__.4258(%rip), %rcx
 2012      000000
 2013 0205 89DA     		movl	%ebx, %edx
 2014 0207 4889C6   		movq	%rax, %rsi
 2015 020a 488D3D00 		leaq	.LC6(%rip), %rdi
 2015      000000
 2016 0211 B8000000 		movl	$0, %eax
 2016      00
 2017 0216 E8000000 		call	printf@PLT
 2017      00
 2018 021b 488B0500 		movq	stdout(%rip), %rax
 2018      000000
 2019 0222 4889C7   		movq	%rax, %rdi
 2020 0225 E8000000 		call	fflush@PLT
 2020      00
 2021              	.L149:
 650:/home/xingli/share/1205tiny/network/mqtt/paho_mqtt/port/paho_mqtt_port.c ****     MQTTClientDeInit(c);
 2022              		.loc 2 650 5 is_stmt 1
 2023 022a 488B45D0 		movq	-48(%rbp), %rax
 2024 022e 4889C7   		movq	%rax, %rdi
 2025 0231 E8000000 		call	MQTTClientDeInit@PLT
 2025      00
 651:/home/xingli/share/1205tiny/network/mqtt/paho_mqtt/port/paho_mqtt_port.c ****     //free the memory
 652:/home/xingli/share/1205tiny/network/mqtt/paho_mqtt/port/paho_mqtt_port.c ****     LINK_LOG_DEBUG("PAHO  TO FREE THE MEMORY");
 2026              		.loc 2 652 5
 2027 0236 E8000000 		call	link_log_level_get@PLT
 2027      00
 2028 023b 83F801   		cmpl	$1, %eax
 2029 023e 773D     		ja	.L150
 2030              		.loc 2 652 5 is_stmt 0 discriminator 1
 2031 0240 E8000000 		call	osal_sys_time@PLT
 2031      00
 2032 0245 89C3     		movl	%eax, %ebx
 2033 0247 BF010000 		movl	$1, %edi
 2033      00
 2034 024c E8000000 		call	link_log_level_name@PLT
 2034      00
 2035 0251 488D0D00 		leaq	__FUNCTION__.4258(%rip), %rcx
 2035      000000
 2036 0258 89DA     		movl	%ebx, %edx
 2037 025a 4889C6   		movq	%rax, %rsi
 2038 025d 488D3D00 		leaq	.LC7(%rip), %rdi
GAS LISTING /tmp/ccrqlIgG.s 			page 61


 2038      000000
 2039 0264 B8000000 		movl	$0, %eax
 2039      00
 2040 0269 E8000000 		call	printf@PLT
 2040      00
 2041 026e 488B0500 		movq	stdout(%rip), %rax
 2041      000000
 2042 0275 4889C7   		movq	%rax, %rdi
 2043 0278 E8000000 		call	fflush@PLT
 2043      00
 2044              	.L150:
 653:/home/xingli/share/1205tiny/network/mqtt/paho_mqtt/port/paho_mqtt_port.c ****     osal_free(cb->rcvbuf);
 2045              		.loc 2 653 5 is_stmt 1
 2046 027d 488B45D8 		movq	-40(%rbp), %rax
 2047 0281 488B80B8 		movq	440(%rax), %rax
 2047      010000
 2048 0288 4889C7   		movq	%rax, %rdi
 2049 028b E8000000 		call	osal_free@PLT
 2049      00
 654:/home/xingli/share/1205tiny/network/mqtt/paho_mqtt/port/paho_mqtt_port.c ****     osal_free(cb->sndbuf);
 2050              		.loc 2 654 5
 2051 0290 488B45D8 		movq	-40(%rbp), %rax
 2052 0294 488B80C0 		movq	448(%rax), %rax
 2052      010000
 2053 029b 4889C7   		movq	%rax, %rdi
 2054 029e E8000000 		call	osal_free@PLT
 2054      00
 655:/home/xingli/share/1205tiny/network/mqtt/paho_mqtt/port/paho_mqtt_port.c ****     osal_free(cb);
 2055              		.loc 2 655 5
 2056 02a3 488B45D8 		movq	-40(%rbp), %rax
 2057 02a7 4889C7   		movq	%rax, %rdi
 2058 02aa E8000000 		call	osal_free@PLT
 2058      00
 656:/home/xingli/share/1205tiny/network/mqtt/paho_mqtt/port/paho_mqtt_port.c ****     LINK_LOG_DEBUG("PAHO TASK EXIT");
 2059              		.loc 2 656 5
 2060 02af E8000000 		call	link_log_level_get@PLT
 2060      00
 2061 02b4 83F801   		cmpl	$1, %eax
 2062 02b7 773D     		ja	.L151
 2063              		.loc 2 656 5 is_stmt 0 discriminator 1
 2064 02b9 E8000000 		call	osal_sys_time@PLT
 2064      00
 2065 02be 89C3     		movl	%eax, %ebx
 2066 02c0 BF010000 		movl	$1, %edi
 2066      00
 2067 02c5 E8000000 		call	link_log_level_name@PLT
 2067      00
 2068 02ca 488D0D00 		leaq	__FUNCTION__.4258(%rip), %rcx
 2068      000000
 2069 02d1 89DA     		movl	%ebx, %edx
 2070 02d3 4889C6   		movq	%rax, %rsi
 2071 02d6 488D3D00 		leaq	.LC8(%rip), %rdi
 2071      000000
 2072 02dd B8000000 		movl	$0, %eax
 2072      00
 2073 02e2 E8000000 		call	printf@PLT
 2073      00
GAS LISTING /tmp/ccrqlIgG.s 			page 62


 2074 02e7 488B0500 		movq	stdout(%rip), %rax
 2074      000000
 2075 02ee 4889C7   		movq	%rax, %rdi
 2076 02f1 E8000000 		call	fflush@PLT
 2076      00
 2077              	.L151:
 657:/home/xingli/share/1205tiny/network/mqtt/paho_mqtt/port/paho_mqtt_port.c ****     return 0;
 2078              		.loc 2 657 12 is_stmt 1
 2079 02f6 B8000000 		movl	$0, %eax
 2079      00
 2080              	.L143:
 658:/home/xingli/share/1205tiny/network/mqtt/paho_mqtt/port/paho_mqtt_port.c **** }
 2081              		.loc 2 658 1
 2082 02fb 488B55E8 		movq	-24(%rbp), %rdx
 2083 02ff 64483314 		xorq	%fs:40, %rdx
 2083      25280000 
 2083      00
 2084 0308 7405     		je	.L152
 2085 030a E8000000 		call	__stack_chk_fail@PLT
 2085      00
 2086              	.L152:
 2087 030f 4883C448 		addq	$72, %rsp
 2088 0313 5B       		popq	%rbx
 2089 0314 5D       		popq	%rbp
 2090              	.LCFI56:
 2091              		.cfi_def_cfa 7, 8
 2092 0315 C3       		ret
 2093              		.cfi_endproc
 2094              	.LFE24:
 2096              		.section	.text.general_dealer,"ax",@progbits
 2098              	general_dealer:
 2099              	.LFB25:
 659:/home/xingli/share/1205tiny/network/mqtt/paho_mqtt/port/paho_mqtt_port.c **** 
 660:/home/xingli/share/1205tiny/network/mqtt/paho_mqtt/port/paho_mqtt_port.c **** /**
 661:/home/xingli/share/1205tiny/network/mqtt/paho_mqtt/port/paho_mqtt_port.c ****  * Copyright (c) 2009-2018 Roger Light <roger@atchoo.org>
 662:/home/xingli/share/1205tiny/network/mqtt/paho_mqtt/port/paho_mqtt_port.c ****  * licensed under the Eclipse Public License 1.0 and the Eclipse Distribution License 1.0
 663:/home/xingli/share/1205tiny/network/mqtt/paho_mqtt/port/paho_mqtt_port.c ****  */
 664:/home/xingli/share/1205tiny/network/mqtt/paho_mqtt/port/paho_mqtt_port.c **** ///< we changge the lib to support the args
 665:/home/xingli/share/1205tiny/network/mqtt/paho_mqtt/port/paho_mqtt_port.c **** static void general_dealer(MessageData *data)
 666:/home/xingli/share/1205tiny/network/mqtt/paho_mqtt/port/paho_mqtt_port.c **** {
 2100              		.loc 2 666 1
 2101              		.cfi_startproc
 2102 0000 F30F1EFA 		endbr64
 2103 0004 55       		pushq	%rbp
 2104              	.LCFI57:
 2105              		.cfi_def_cfa_offset 16
 2106              		.cfi_offset 6, -16
 2107 0005 4889E5   		movq	%rsp, %rbp
 2108              	.LCFI58:
 2109              		.cfi_def_cfa_register 6
 2110 0008 4883EC60 		subq	$96, %rsp
 2111 000c 48897DA8 		movq	%rdi, -88(%rbp)
 2112              		.loc 2 666 1
 2113 0010 64488B04 		movq	%fs:40, %rax
 2113      25280000 
 2113      00
 2114 0019 488945F8 		movq	%rax, -8(%rbp)
GAS LISTING /tmp/ccrqlIgG.s 			page 63


 2115 001d 31C0     		xorl	%eax, %eax
 667:/home/xingli/share/1205tiny/network/mqtt/paho_mqtt/port/paho_mqtt_port.c ****     mqtt_al_msgrcv_t   msg;
 668:/home/xingli/share/1205tiny/network/mqtt/paho_mqtt/port/paho_mqtt_port.c ****     fn_mqtt_al_msg_dealer  dealer;
 669:/home/xingli/share/1205tiny/network/mqtt/paho_mqtt/port/paho_mqtt_port.c ****     msg.dup = data->message->dup;
 2116              		.loc 2 669 19
 2117 001f 488B45A8 		movq	-88(%rbp), %rax
 2118 0023 488B00   		movq	(%rax), %rax
 2119              		.loc 2 669 28
 2120 0026 0FB64005 		movzbl	5(%rax), %eax
 2121 002a 0FB6C0   		movzbl	%al, %eax
 2122              		.loc 2 669 13
 2123 002d 8945E4   		movl	%eax, -28(%rbp)
 670:/home/xingli/share/1205tiny/network/mqtt/paho_mqtt/port/paho_mqtt_port.c ****     msg.qos = data->message->qos;
 2124              		.loc 2 670 19
 2125 0030 488B45A8 		movq	-88(%rbp), %rax
 2126 0034 488B00   		movq	(%rax), %rax
 2127              		.loc 2 670 28
 2128 0037 8B00     		movl	(%rax), %eax
 2129              		.loc 2 670 13
 2130 0039 8945E0   		movl	%eax, -32(%rbp)
 671:/home/xingli/share/1205tiny/network/mqtt/paho_mqtt/port/paho_mqtt_port.c ****     msg.retain = data->message->retained;
 2131              		.loc 2 671 22
 2132 003c 488B45A8 		movq	-88(%rbp), %rax
 2133 0040 488B00   		movq	(%rax), %rax
 2134              		.loc 2 671 31
 2135 0043 0FB64004 		movzbl	4(%rax), %eax
 2136 0047 0FB6C0   		movzbl	%al, %eax
 2137              		.loc 2 671 16
 2138 004a 8945E8   		movl	%eax, -24(%rbp)
 672:/home/xingli/share/1205tiny/network/mqtt/paho_mqtt/port/paho_mqtt_port.c ****     msg.msg.len = data->message->payloadlen;
 2139              		.loc 2 672 23
 2140 004d 488B45A8 		movq	-88(%rbp), %rax
 2141 0051 488B00   		movq	(%rax), %rax
 2142              		.loc 2 672 32
 2143 0054 488B4010 		movq	16(%rax), %rax
 2144              		.loc 2 672 17
 2145 0058 8945D8   		movl	%eax, -40(%rbp)
 673:/home/xingli/share/1205tiny/network/mqtt/paho_mqtt/port/paho_mqtt_port.c ****     msg.msg.data = data->message->payload;
 2146              		.loc 2 673 24
 2147 005b 488B45A8 		movq	-88(%rbp), %rax
 2148 005f 488B00   		movq	(%rax), %rax
 2149              		.loc 2 673 33
 2150 0062 488B4008 		movq	8(%rax), %rax
 2151              		.loc 2 673 18
 2152 0066 488945D0 		movq	%rax, -48(%rbp)
 674:/home/xingli/share/1205tiny/network/mqtt/paho_mqtt/port/paho_mqtt_port.c **** 
 675:/home/xingli/share/1205tiny/network/mqtt/paho_mqtt/port/paho_mqtt_port.c ****     if(data->topicName->lenstring.len)
 2153              		.loc 2 675 12
 2154 006a 488B45A8 		movq	-88(%rbp), %rax
 2155 006e 488B4008 		movq	8(%rax), %rax
 2156              		.loc 2 675 34
 2157 0072 8B4008   		movl	8(%rax), %eax
 2158              		.loc 2 675 7
 2159 0075 85C0     		testl	%eax, %eax
 2160 0077 7420     		je	.L154
 676:/home/xingli/share/1205tiny/network/mqtt/paho_mqtt/port/paho_mqtt_port.c ****     {
 677:/home/xingli/share/1205tiny/network/mqtt/paho_mqtt/port/paho_mqtt_port.c ****         msg.topic.data = data->topicName->lenstring.data;
GAS LISTING /tmp/ccrqlIgG.s 			page 64


 2161              		.loc 2 677 30
 2162 0079 488B45A8 		movq	-88(%rbp), %rax
 2163 007d 488B4008 		movq	8(%rax), %rax
 2164              		.loc 2 677 52
 2165 0081 488B4010 		movq	16(%rax), %rax
 2166              		.loc 2 677 24
 2167 0085 488945C0 		movq	%rax, -64(%rbp)
 678:/home/xingli/share/1205tiny/network/mqtt/paho_mqtt/port/paho_mqtt_port.c ****         msg.topic.len = data->topicName->lenstring.len;
 2168              		.loc 2 678 29
 2169 0089 488B45A8 		movq	-88(%rbp), %rax
 2170 008d 488B4008 		movq	8(%rax), %rax
 2171              		.loc 2 678 51
 2172 0091 8B4008   		movl	8(%rax), %eax
 2173              		.loc 2 678 23
 2174 0094 8945C8   		movl	%eax, -56(%rbp)
 2175 0097 EB25     		jmp	.L155
 2176              	.L154:
 679:/home/xingli/share/1205tiny/network/mqtt/paho_mqtt/port/paho_mqtt_port.c ****     }
 680:/home/xingli/share/1205tiny/network/mqtt/paho_mqtt/port/paho_mqtt_port.c ****     else
 681:/home/xingli/share/1205tiny/network/mqtt/paho_mqtt/port/paho_mqtt_port.c ****     {
 682:/home/xingli/share/1205tiny/network/mqtt/paho_mqtt/port/paho_mqtt_port.c ****         msg.topic.data = data->topicName->cstring;
 2177              		.loc 2 682 30
 2178 0099 488B45A8 		movq	-88(%rbp), %rax
 2179 009d 488B4008 		movq	8(%rax), %rax
 2180              		.loc 2 682 41
 2181 00a1 488B00   		movq	(%rax), %rax
 2182              		.loc 2 682 24
 2183 00a4 488945C0 		movq	%rax, -64(%rbp)
 683:/home/xingli/share/1205tiny/network/mqtt/paho_mqtt/port/paho_mqtt_port.c ****         msg.topic.len = strlen(data->topicName->cstring);
 2184              		.loc 2 683 36
 2185 00a8 488B45A8 		movq	-88(%rbp), %rax
 2186 00ac 488B4008 		movq	8(%rax), %rax
 2187              		.loc 2 683 47
 2188 00b0 488B00   		movq	(%rax), %rax
 2189              		.loc 2 683 25
 2190 00b3 4889C7   		movq	%rax, %rdi
 2191 00b6 E8000000 		call	strlen@PLT
 2191      00
 2192              		.loc 2 683 23
 2193 00bb 8945C8   		movl	%eax, -56(%rbp)
 2194              	.L155:
 684:/home/xingli/share/1205tiny/network/mqtt/paho_mqtt/port/paho_mqtt_port.c ****     }
 685:/home/xingli/share/1205tiny/network/mqtt/paho_mqtt/port/paho_mqtt_port.c **** 
 686:/home/xingli/share/1205tiny/network/mqtt/paho_mqtt/port/paho_mqtt_port.c ****     if(NULL != data->arg)
 2195              		.loc 2 686 20
 2196 00be 488B45A8 		movq	-88(%rbp), %rax
 2197 00c2 488B4010 		movq	16(%rax), %rax
 2198              		.loc 2 686 7
 2199 00c6 4885C0   		testq	%rax, %rax
 2200 00c9 7424     		je	.L158
 687:/home/xingli/share/1205tiny/network/mqtt/paho_mqtt/port/paho_mqtt_port.c ****     {
 688:/home/xingli/share/1205tiny/network/mqtt/paho_mqtt/port/paho_mqtt_port.c ****         dealer = data->arg;
 2201              		.loc 2 688 22
 2202 00cb 488B45A8 		movq	-88(%rbp), %rax
 2203 00cf 488B4010 		movq	16(%rax), %rax
 2204              		.loc 2 688 16
 2205 00d3 488945B8 		movq	%rax, -72(%rbp)
GAS LISTING /tmp/ccrqlIgG.s 			page 65


 689:/home/xingli/share/1205tiny/network/mqtt/paho_mqtt/port/paho_mqtt_port.c ****         dealer((void *)data->arg,&msg);  ///<   the args not implement yet
 2206              		.loc 2 689 9
 2207 00d7 488B45A8 		movq	-88(%rbp), %rax
 2208 00db 488B4010 		movq	16(%rax), %rax
 2209 00df 488D55C0 		leaq	-64(%rbp), %rdx
 2210 00e3 488B4DB8 		movq	-72(%rbp), %rcx
 2211 00e7 4889D6   		movq	%rdx, %rsi
 2212 00ea 4889C7   		movq	%rax, %rdi
 2213 00ed FFD1     		call	*%rcx
 2214              	.LVL0:
 2215              	.L158:
 690:/home/xingli/share/1205tiny/network/mqtt/paho_mqtt/port/paho_mqtt_port.c ****     }
 691:/home/xingli/share/1205tiny/network/mqtt/paho_mqtt/port/paho_mqtt_port.c **** }
 2216              		.loc 2 691 1
 2217 00ef 90       		nop
 2218 00f0 488B45F8 		movq	-8(%rbp), %rax
 2219 00f4 64483304 		xorq	%fs:40, %rax
 2219      25280000 
 2219      00
 2220 00fd 7405     		je	.L157
 2221 00ff E8000000 		call	__stack_chk_fail@PLT
 2221      00
 2222              	.L157:
 2223 0104 C9       		leave
 2224              	.LCFI59:
 2225              		.cfi_def_cfa 7, 8
 2226 0105 C3       		ret
 2227              		.cfi_endproc
 2228              	.LFE25:
 2230              		.section	.text.__subscribe,"ax",@progbits
 2232              	__subscribe:
 2233              	.LFB26:
 692:/home/xingli/share/1205tiny/network/mqtt/paho_mqtt/port/paho_mqtt_port.c **** 
 693:/home/xingli/share/1205tiny/network/mqtt/paho_mqtt/port/paho_mqtt_port.c **** 
 694:/home/xingli/share/1205tiny/network/mqtt/paho_mqtt/port/paho_mqtt_port.c **** //////////////////////END --PATCH FOR PAHO MQTT/////////////////////////////////
 695:/home/xingli/share/1205tiny/network/mqtt/paho_mqtt/port/paho_mqtt_port.c **** static int __subscribe(void *handle,mqtt_al_subpara_t *para)
 696:/home/xingli/share/1205tiny/network/mqtt/paho_mqtt/port/paho_mqtt_port.c **** {
 2234              		.loc 2 696 1
 2235              		.cfi_startproc
 2236 0000 F30F1EFA 		endbr64
 2237 0004 55       		pushq	%rbp
 2238              	.LCFI60:
 2239              		.cfi_def_cfa_offset 16
 2240              		.cfi_offset 6, -16
 2241 0005 4889E5   		movq	%rsp, %rbp
 2242              	.LCFI61:
 2243              		.cfi_def_cfa_register 6
 2244 0008 4883EC30 		subq	$48, %rsp
 2245 000c 48897DD8 		movq	%rdi, -40(%rbp)
 2246 0010 488975D0 		movq	%rsi, -48(%rbp)
 2247              		.loc 2 696 1
 2248 0014 64488B04 		movq	%fs:40, %rax
 2248      25280000 
 2248      00
 2249 001d 488945F8 		movq	%rax, -8(%rbp)
 2250 0021 31C0     		xorl	%eax, %eax
 697:/home/xingli/share/1205tiny/network/mqtt/paho_mqtt/port/paho_mqtt_port.c ****     int ret = -1;
GAS LISTING /tmp/ccrqlIgG.s 			page 66


 2251              		.loc 2 697 9
 2252 0023 C745E4FF 		movl	$-1, -28(%rbp)
 2252      FFFFFF
 698:/home/xingli/share/1205tiny/network/mqtt/paho_mqtt/port/paho_mqtt_port.c ****     MQTTClient       *c = NULL;
 2253              		.loc 2 698 23
 2254 002a 48C745E8 		movq	$0, -24(%rbp)
 2254      00000000 
 699:/home/xingli/share/1205tiny/network/mqtt/paho_mqtt/port/paho_mqtt_port.c ****     paho_mqtt_cb_t   *cb = NULL;
 2255              		.loc 2 699 23
 2256 0032 48C745F0 		movq	$0, -16(%rbp)
 2256      00000000 
 700:/home/xingli/share/1205tiny/network/mqtt/paho_mqtt/port/paho_mqtt_port.c **** 
 701:/home/xingli/share/1205tiny/network/mqtt/paho_mqtt/port/paho_mqtt_port.c ****     MQTTSubackData   ack;
 702:/home/xingli/share/1205tiny/network/mqtt/paho_mqtt/port/paho_mqtt_port.c **** 
 703:/home/xingli/share/1205tiny/network/mqtt/paho_mqtt/port/paho_mqtt_port.c ****     if((NULL == handle) ||(NULL == para))
 2257              		.loc 2 703 7
 2258 003a 48837DD8 		cmpq	$0, -40(%rbp)
 2258      00
 2259 003f 7407     		je	.L160
 2260              		.loc 2 703 25 discriminator 1
 2261 0041 48837DD0 		cmpq	$0, -48(%rbp)
 2261      00
 2262 0046 7505     		jne	.L161
 2263              	.L160:
 704:/home/xingli/share/1205tiny/network/mqtt/paho_mqtt/port/paho_mqtt_port.c ****     {
 705:/home/xingli/share/1205tiny/network/mqtt/paho_mqtt/port/paho_mqtt_port.c ****         return ret;
 2264              		.loc 2 705 16
 2265 0048 8B45E4   		movl	-28(%rbp), %eax
 2266 004b EB78     		jmp	.L165
 2267              	.L161:
 706:/home/xingli/share/1205tiny/network/mqtt/paho_mqtt/port/paho_mqtt_port.c ****     }
 707:/home/xingli/share/1205tiny/network/mqtt/paho_mqtt/port/paho_mqtt_port.c **** 
 708:/home/xingli/share/1205tiny/network/mqtt/paho_mqtt/port/paho_mqtt_port.c ****     cb = handle;
 2268              		.loc 2 708 8
 2269 004d 488B45D8 		movq	-40(%rbp), %rax
 2270 0051 488945F0 		movq	%rax, -16(%rbp)
 709:/home/xingli/share/1205tiny/network/mqtt/paho_mqtt/port/paho_mqtt_port.c ****     c = &cb->client;
 2271              		.loc 2 709 7
 2272 0055 488B45F0 		movq	-16(%rbp), %rax
 2273 0059 4883C058 		addq	$88, %rax
 2274 005d 488945E8 		movq	%rax, -24(%rbp)
 710:/home/xingli/share/1205tiny/network/mqtt/paho_mqtt/port/paho_mqtt_port.c **** 
 711:/home/xingli/share/1205tiny/network/mqtt/paho_mqtt/port/paho_mqtt_port.c ****     if(MQTT_SUCCESS == MQTTSubscribeWithResultsArgs(c,para->topic.data,para->qos,\
 712:/home/xingli/share/1205tiny/network/mqtt/paho_mqtt/port/paho_mqtt_port.c ****             general_dealer,&ack,para->dealer))
 2275              		.loc 2 712 37
 2276 0061 488B45D0 		movq	-48(%rbp), %rax
 2277 0065 488B7818 		movq	24(%rax), %rdi
 711:/home/xingli/share/1205tiny/network/mqtt/paho_mqtt/port/paho_mqtt_port.c ****             general_dealer,&ack,para->dealer))
 2278              		.loc 2 711 76
 2279 0069 488B45D0 		movq	-48(%rbp), %rax
 2280 006d 8B5010   		movl	16(%rax), %edx
 711:/home/xingli/share/1205tiny/network/mqtt/paho_mqtt/port/paho_mqtt_port.c ****             general_dealer,&ack,para->dealer))
 2281              		.loc 2 711 66
 2282 0070 488B45D0 		movq	-48(%rbp), %rax
 2283 0074 488B30   		movq	(%rax), %rsi
 711:/home/xingli/share/1205tiny/network/mqtt/paho_mqtt/port/paho_mqtt_port.c ****             general_dealer,&ack,para->dealer))
 2284              		.loc 2 711 24
GAS LISTING /tmp/ccrqlIgG.s 			page 67


 2285 0077 488D4DE0 		leaq	-32(%rbp), %rcx
 2286 007b 488B45E8 		movq	-24(%rbp), %rax
 2287 007f 4989F9   		movq	%rdi, %r9
 2288 0082 4989C8   		movq	%rcx, %r8
 2289 0085 488D0D00 		leaq	general_dealer(%rip), %rcx
 2289      000000
 2290 008c 4889C7   		movq	%rax, %rdi
 2291 008f E8000000 		call	MQTTSubscribeWithResultsArgs@PLT
 2291      00
 711:/home/xingli/share/1205tiny/network/mqtt/paho_mqtt/port/paho_mqtt_port.c ****             general_dealer,&ack,para->dealer))
 2292              		.loc 2 711 7
 2293 0094 85C0     		testl	%eax, %eax
 2294 0096 752A     		jne	.L163
 713:/home/xingli/share/1205tiny/network/mqtt/paho_mqtt/port/paho_mqtt_port.c ****     {
 714:/home/xingli/share/1205tiny/network/mqtt/paho_mqtt/port/paho_mqtt_port.c ****         para->subret = ack.grantedQoS;
 2295              		.loc 2 714 27
 2296 0098 8B45E0   		movl	-32(%rbp), %eax
 2297              		.loc 2 714 22
 2298 009b 89C2     		movl	%eax, %edx
 2299 009d 488B45D0 		movq	-48(%rbp), %rax
 2300 00a1 885028   		movb	%dl, 40(%rax)
 715:/home/xingli/share/1205tiny/network/mqtt/paho_mqtt/port/paho_mqtt_port.c ****         if((ack.grantedQoS == QOS0)|| (ack.grantedQoS == QOS1 ) || (ack.grantedQoS == QOS2 ) )
 2301              		.loc 2 715 16
 2302 00a4 8B45E0   		movl	-32(%rbp), %eax
 2303              		.loc 2 715 11
 2304 00a7 85C0     		testl	%eax, %eax
 2305 00a9 7410     		je	.L164
 2306              		.loc 2 715 43 discriminator 1
 2307 00ab 8B45E0   		movl	-32(%rbp), %eax
 2308              		.loc 2 715 36 discriminator 1
 2309 00ae 83F801   		cmpl	$1, %eax
 2310 00b1 7408     		je	.L164
 2311              		.loc 2 715 72 discriminator 2
 2312 00b3 8B45E0   		movl	-32(%rbp), %eax
 2313              		.loc 2 715 65 discriminator 2
 2314 00b6 83F802   		cmpl	$2, %eax
 2315 00b9 7507     		jne	.L163
 2316              	.L164:
 716:/home/xingli/share/1205tiny/network/mqtt/paho_mqtt/port/paho_mqtt_port.c ****         {
 717:/home/xingli/share/1205tiny/network/mqtt/paho_mqtt/port/paho_mqtt_port.c ****             ret = 0;
 2317              		.loc 2 717 17
 2318 00bb C745E400 		movl	$0, -28(%rbp)
 2318      000000
 2319              	.L163:
 718:/home/xingli/share/1205tiny/network/mqtt/paho_mqtt/port/paho_mqtt_port.c ****         }
 719:/home/xingli/share/1205tiny/network/mqtt/paho_mqtt/port/paho_mqtt_port.c ****     }
 720:/home/xingli/share/1205tiny/network/mqtt/paho_mqtt/port/paho_mqtt_port.c **** 
 721:/home/xingli/share/1205tiny/network/mqtt/paho_mqtt/port/paho_mqtt_port.c ****     return ret;
 2320              		.loc 2 721 12
 2321 00c2 8B45E4   		movl	-28(%rbp), %eax
 2322              	.L165:
 722:/home/xingli/share/1205tiny/network/mqtt/paho_mqtt/port/paho_mqtt_port.c **** }
 2323              		.loc 2 722 1 discriminator 1
 2324 00c5 488B4DF8 		movq	-8(%rbp), %rcx
 2325 00c9 6448330C 		xorq	%fs:40, %rcx
 2325      25280000 
 2325      00
GAS LISTING /tmp/ccrqlIgG.s 			page 68


 2326 00d2 7405     		je	.L166
 2327              		.loc 2 722 1 is_stmt 0
 2328 00d4 E8000000 		call	__stack_chk_fail@PLT
 2328      00
 2329              	.L166:
 2330 00d9 C9       		leave
 2331              	.LCFI62:
 2332              		.cfi_def_cfa 7, 8
 2333 00da C3       		ret
 2334              		.cfi_endproc
 2335              	.LFE26:
 2337              		.section	.text.__unsubscribe,"ax",@progbits
 2339              	__unsubscribe:
 2340              	.LFB27:
 723:/home/xingli/share/1205tiny/network/mqtt/paho_mqtt/port/paho_mqtt_port.c **** 
 724:/home/xingli/share/1205tiny/network/mqtt/paho_mqtt/port/paho_mqtt_port.c **** static int __unsubscribe(void *handle,mqtt_al_unsubpara_t *para)
 725:/home/xingli/share/1205tiny/network/mqtt/paho_mqtt/port/paho_mqtt_port.c **** {
 2341              		.loc 2 725 1 is_stmt 1
 2342              		.cfi_startproc
 2343 0000 F30F1EFA 		endbr64
 2344 0004 55       		pushq	%rbp
 2345              	.LCFI63:
 2346              		.cfi_def_cfa_offset 16
 2347              		.cfi_offset 6, -16
 2348 0005 4889E5   		movq	%rsp, %rbp
 2349              	.LCFI64:
 2350              		.cfi_def_cfa_register 6
 2351 0008 4883EC30 		subq	$48, %rsp
 2352 000c 48897DD8 		movq	%rdi, -40(%rbp)
 2353 0010 488975D0 		movq	%rsi, -48(%rbp)
 2354              		.loc 2 725 1
 2355 0014 64488B04 		movq	%fs:40, %rax
 2355      25280000 
 2355      00
 2356 001d 488945F8 		movq	%rax, -8(%rbp)
 2357 0021 31C0     		xorl	%eax, %eax
 726:/home/xingli/share/1205tiny/network/mqtt/paho_mqtt/port/paho_mqtt_port.c ****     int ret = -1;
 2358              		.loc 2 726 9
 2359 0023 C745E4FF 		movl	$-1, -28(%rbp)
 2359      FFFFFF
 727:/home/xingli/share/1205tiny/network/mqtt/paho_mqtt/port/paho_mqtt_port.c ****     MQTTClient       *c = NULL;
 2360              		.loc 2 727 23
 2361 002a 48C745E8 		movq	$0, -24(%rbp)
 2361      00000000 
 728:/home/xingli/share/1205tiny/network/mqtt/paho_mqtt/port/paho_mqtt_port.c ****     paho_mqtt_cb_t   *cb = NULL;
 2362              		.loc 2 728 23
 2363 0032 48C745F0 		movq	$0, -16(%rbp)
 2363      00000000 
 729:/home/xingli/share/1205tiny/network/mqtt/paho_mqtt/port/paho_mqtt_port.c **** 
 730:/home/xingli/share/1205tiny/network/mqtt/paho_mqtt/port/paho_mqtt_port.c ****     if((NULL == handle) ||(NULL == para))
 2364              		.loc 2 730 7
 2365 003a 48837DD8 		cmpq	$0, -40(%rbp)
 2365      00
 2366 003f 7407     		je	.L168
 2367              		.loc 2 730 25 discriminator 1
 2368 0041 48837DD0 		cmpq	$0, -48(%rbp)
 2368      00
GAS LISTING /tmp/ccrqlIgG.s 			page 69


 2369 0046 7505     		jne	.L169
 2370              	.L168:
 731:/home/xingli/share/1205tiny/network/mqtt/paho_mqtt/port/paho_mqtt_port.c ****     {
 732:/home/xingli/share/1205tiny/network/mqtt/paho_mqtt/port/paho_mqtt_port.c ****         return ret;
 2371              		.loc 2 732 16
 2372 0048 8B45E4   		movl	-28(%rbp), %eax
 2373 004b EB38     		jmp	.L170
 2374              	.L169:
 733:/home/xingli/share/1205tiny/network/mqtt/paho_mqtt/port/paho_mqtt_port.c ****     }
 734:/home/xingli/share/1205tiny/network/mqtt/paho_mqtt/port/paho_mqtt_port.c **** 
 735:/home/xingli/share/1205tiny/network/mqtt/paho_mqtt/port/paho_mqtt_port.c ****     cb = handle;
 2375              		.loc 2 735 8
 2376 004d 488B45D8 		movq	-40(%rbp), %rax
 2377 0051 488945F0 		movq	%rax, -16(%rbp)
 736:/home/xingli/share/1205tiny/network/mqtt/paho_mqtt/port/paho_mqtt_port.c ****     c = &cb->client;
 2378              		.loc 2 736 7
 2379 0055 488B45F0 		movq	-16(%rbp), %rax
 2380 0059 4883C058 		addq	$88, %rax
 2381 005d 488945E8 		movq	%rax, -24(%rbp)
 737:/home/xingli/share/1205tiny/network/mqtt/paho_mqtt/port/paho_mqtt_port.c **** 
 738:/home/xingli/share/1205tiny/network/mqtt/paho_mqtt/port/paho_mqtt_port.c ****     if(MQTT_SUCCESS == MQTTUnsubscribe(c,para->topic.data))
 2382              		.loc 2 738 53
 2383 0061 488B45D0 		movq	-48(%rbp), %rax
 2384 0065 488B10   		movq	(%rax), %rdx
 2385              		.loc 2 738 24
 2386 0068 488B45E8 		movq	-24(%rbp), %rax
 2387 006c 4889D6   		movq	%rdx, %rsi
 2388 006f 4889C7   		movq	%rax, %rdi
 2389 0072 E8000000 		call	MQTTUnsubscribe@PLT
 2389      00
 2390              		.loc 2 738 7
 2391 0077 85C0     		testl	%eax, %eax
 2392 0079 7507     		jne	.L171
 739:/home/xingli/share/1205tiny/network/mqtt/paho_mqtt/port/paho_mqtt_port.c ****     {
 740:/home/xingli/share/1205tiny/network/mqtt/paho_mqtt/port/paho_mqtt_port.c ****         ret = 0;
 2393              		.loc 2 740 13
 2394 007b C745E400 		movl	$0, -28(%rbp)
 2394      000000
 2395              	.L171:
 741:/home/xingli/share/1205tiny/network/mqtt/paho_mqtt/port/paho_mqtt_port.c ****     }
 742:/home/xingli/share/1205tiny/network/mqtt/paho_mqtt/port/paho_mqtt_port.c **** 
 743:/home/xingli/share/1205tiny/network/mqtt/paho_mqtt/port/paho_mqtt_port.c ****     return ret;
 2396              		.loc 2 743 12
 2397 0082 8B45E4   		movl	-28(%rbp), %eax
 2398              	.L170:
 744:/home/xingli/share/1205tiny/network/mqtt/paho_mqtt/port/paho_mqtt_port.c **** 
 745:/home/xingli/share/1205tiny/network/mqtt/paho_mqtt/port/paho_mqtt_port.c **** }
 2399              		.loc 2 745 1
 2400 0085 488B4DF8 		movq	-8(%rbp), %rcx
 2401 0089 6448330C 		xorq	%fs:40, %rcx
 2401      25280000 
 2401      00
 2402 0092 7405     		je	.L172
 2403 0094 E8000000 		call	__stack_chk_fail@PLT
 2403      00
 2404              	.L172:
 2405 0099 C9       		leave
GAS LISTING /tmp/ccrqlIgG.s 			page 70


 2406              	.LCFI65:
 2407              		.cfi_def_cfa 7, 8
 2408 009a C3       		ret
 2409              		.cfi_endproc
 2410              	.LFE27:
 2412              		.section	.text.__publish,"ax",@progbits
 2414              	__publish:
 2415              	.LFB28:
 746:/home/xingli/share/1205tiny/network/mqtt/paho_mqtt/port/paho_mqtt_port.c **** 
 747:/home/xingli/share/1205tiny/network/mqtt/paho_mqtt/port/paho_mqtt_port.c **** static int __publish(void *handle, mqtt_al_pubpara_t *para)
 748:/home/xingli/share/1205tiny/network/mqtt/paho_mqtt/port/paho_mqtt_port.c **** {
 2416              		.loc 2 748 1
 2417              		.cfi_startproc
 2418 0000 F30F1EFA 		endbr64
 2419 0004 55       		pushq	%rbp
 2420              	.LCFI66:
 2421              		.cfi_def_cfa_offset 16
 2422              		.cfi_offset 6, -16
 2423 0005 4889E5   		movq	%rsp, %rbp
 2424              	.LCFI67:
 2425              		.cfi_def_cfa_register 6
 2426 0008 4883EC50 		subq	$80, %rsp
 2427 000c 48897DB8 		movq	%rdi, -72(%rbp)
 2428 0010 488975B0 		movq	%rsi, -80(%rbp)
 2429              		.loc 2 748 1
 2430 0014 64488B04 		movq	%fs:40, %rax
 2430      25280000 
 2430      00
 2431 001d 488945F8 		movq	%rax, -8(%rbp)
 2432 0021 31C0     		xorl	%eax, %eax
 749:/home/xingli/share/1205tiny/network/mqtt/paho_mqtt/port/paho_mqtt_port.c ****     MQTTMessage  msg;
 750:/home/xingli/share/1205tiny/network/mqtt/paho_mqtt/port/paho_mqtt_port.c ****     int ret = -1;
 2433              		.loc 2 750 9
 2434 0023 C745CCFF 		movl	$-1, -52(%rbp)
 2434      FFFFFF
 751:/home/xingli/share/1205tiny/network/mqtt/paho_mqtt/port/paho_mqtt_port.c ****     MQTTClient       *c = NULL;
 2435              		.loc 2 751 23
 2436 002a 48C745D0 		movq	$0, -48(%rbp)
 2436      00000000 
 752:/home/xingli/share/1205tiny/network/mqtt/paho_mqtt/port/paho_mqtt_port.c ****     paho_mqtt_cb_t   *cb = NULL;
 2437              		.loc 2 752 23
 2438 0032 48C745D8 		movq	$0, -40(%rbp)
 2438      00000000 
 753:/home/xingli/share/1205tiny/network/mqtt/paho_mqtt/port/paho_mqtt_port.c **** 
 754:/home/xingli/share/1205tiny/network/mqtt/paho_mqtt/port/paho_mqtt_port.c ****     if((NULL == handle) ||(NULL == para))
 2439              		.loc 2 754 7
 2440 003a 48837DB8 		cmpq	$0, -72(%rbp)
 2440      00
 2441 003f 7407     		je	.L174
 2442              		.loc 2 754 25 discriminator 1
 2443 0041 48837DB0 		cmpq	$0, -80(%rbp)
 2443      00
 2444 0046 7505     		jne	.L175
 2445              	.L174:
 755:/home/xingli/share/1205tiny/network/mqtt/paho_mqtt/port/paho_mqtt_port.c ****     {
 756:/home/xingli/share/1205tiny/network/mqtt/paho_mqtt/port/paho_mqtt_port.c ****         return ret;
 2446              		.loc 2 756 16
GAS LISTING /tmp/ccrqlIgG.s 			page 71


 2447 0048 8B45CC   		movl	-52(%rbp), %eax
 2448 004b EB7F     		jmp	.L178
 2449              	.L175:
 757:/home/xingli/share/1205tiny/network/mqtt/paho_mqtt/port/paho_mqtt_port.c ****     }
 758:/home/xingli/share/1205tiny/network/mqtt/paho_mqtt/port/paho_mqtt_port.c **** 
 759:/home/xingli/share/1205tiny/network/mqtt/paho_mqtt/port/paho_mqtt_port.c ****     cb = handle;
 2450              		.loc 2 759 8
 2451 004d 488B45B8 		movq	-72(%rbp), %rax
 2452 0051 488945D8 		movq	%rax, -40(%rbp)
 760:/home/xingli/share/1205tiny/network/mqtt/paho_mqtt/port/paho_mqtt_port.c ****     c = &cb->client;
 2453              		.loc 2 760 7
 2454 0055 488B45D8 		movq	-40(%rbp), %rax
 2455 0059 4883C058 		addq	$88, %rax
 2456 005d 488945D0 		movq	%rax, -48(%rbp)
 761:/home/xingli/share/1205tiny/network/mqtt/paho_mqtt/port/paho_mqtt_port.c **** 
 762:/home/xingli/share/1205tiny/network/mqtt/paho_mqtt/port/paho_mqtt_port.c ****     (void) memset(&msg,0,sizeof(msg));
 2457              		.loc 2 762 12
 2458 0061 488D45E0 		leaq	-32(%rbp), %rax
 2459 0065 BA180000 		movl	$24, %edx
 2459      00
 2460 006a BE000000 		movl	$0, %esi
 2460      00
 2461 006f 4889C7   		movq	%rax, %rdi
 2462 0072 E8000000 		call	memset@PLT
 2462      00
 763:/home/xingli/share/1205tiny/network/mqtt/paho_mqtt/port/paho_mqtt_port.c ****     msg.retained = (unsigned char )para->retain;
 2463              		.loc 2 763 40
 2464 0077 488B45B0 		movq	-80(%rbp), %rax
 2465 007b 8B4024   		movl	36(%rax), %eax
 2466              		.loc 2 763 18
 2467 007e 8845E4   		movb	%al, -28(%rbp)
 764:/home/xingli/share/1205tiny/network/mqtt/paho_mqtt/port/paho_mqtt_port.c ****     msg.qos = QOS0 + (enum QoS)para->qos;
 2468              		.loc 2 764 36
 2469 0081 488B45B0 		movq	-80(%rbp), %rax
 2470 0085 8B4020   		movl	32(%rax), %eax
 2471              		.loc 2 764 13
 2472 0088 8945E0   		movl	%eax, -32(%rbp)
 765:/home/xingli/share/1205tiny/network/mqtt/paho_mqtt/port/paho_mqtt_port.c ****     msg.payload = para->msg.data;
 2473              		.loc 2 765 28
 2474 008b 488B45B0 		movq	-80(%rbp), %rax
 2475 008f 488B4010 		movq	16(%rax), %rax
 2476              		.loc 2 765 17
 2477 0093 488945E8 		movq	%rax, -24(%rbp)
 766:/home/xingli/share/1205tiny/network/mqtt/paho_mqtt/port/paho_mqtt_port.c ****     msg.payloadlen = para->msg.len;
 2478              		.loc 2 766 31
 2479 0097 488B45B0 		movq	-80(%rbp), %rax
 2480 009b 8B4018   		movl	24(%rax), %eax
 2481 009e 4898     		cltq
 2482              		.loc 2 766 20
 2483 00a0 488945F0 		movq	%rax, -16(%rbp)
 767:/home/xingli/share/1205tiny/network/mqtt/paho_mqtt/port/paho_mqtt_port.c ****     if(MQTT_SUCCESS ==  MQTTPublish(c, para->topic.data, &msg))
 2484              		.loc 2 767 51
 2485 00a4 488B45B0 		movq	-80(%rbp), %rax
 2486 00a8 488B08   		movq	(%rax), %rcx
 2487              		.loc 2 767 25
 2488 00ab 488D55E0 		leaq	-32(%rbp), %rdx
 2489 00af 488B45D0 		movq	-48(%rbp), %rax
GAS LISTING /tmp/ccrqlIgG.s 			page 72


 2490 00b3 4889CE   		movq	%rcx, %rsi
 2491 00b6 4889C7   		movq	%rax, %rdi
 2492 00b9 E8000000 		call	MQTTPublish@PLT
 2492      00
 2493              		.loc 2 767 7
 2494 00be 85C0     		testl	%eax, %eax
 2495 00c0 7507     		jne	.L177
 768:/home/xingli/share/1205tiny/network/mqtt/paho_mqtt/port/paho_mqtt_port.c ****     {
 769:/home/xingli/share/1205tiny/network/mqtt/paho_mqtt/port/paho_mqtt_port.c ****         ret = 0;
 2496              		.loc 2 769 13
 2497 00c2 C745CC00 		movl	$0, -52(%rbp)
 2497      000000
 2498              	.L177:
 770:/home/xingli/share/1205tiny/network/mqtt/paho_mqtt/port/paho_mqtt_port.c ****     }
 771:/home/xingli/share/1205tiny/network/mqtt/paho_mqtt/port/paho_mqtt_port.c **** 
 772:/home/xingli/share/1205tiny/network/mqtt/paho_mqtt/port/paho_mqtt_port.c ****     return ret;
 2499              		.loc 2 772 12
 2500 00c9 8B45CC   		movl	-52(%rbp), %eax
 2501              	.L178:
 773:/home/xingli/share/1205tiny/network/mqtt/paho_mqtt/port/paho_mqtt_port.c **** }
 2502              		.loc 2 773 1 discriminator 1
 2503 00cc 488B4DF8 		movq	-8(%rbp), %rcx
 2504 00d0 6448330C 		xorq	%fs:40, %rcx
 2504      25280000 
 2504      00
 2505 00d9 7405     		je	.L179
 2506              		.loc 2 773 1 is_stmt 0
 2507 00db E8000000 		call	__stack_chk_fail@PLT
 2507      00
 2508              	.L179:
 2509 00e0 C9       		leave
 2510              	.LCFI68:
 2511              		.cfi_def_cfa 7, 8
 2512 00e1 C3       		ret
 2513              		.cfi_endproc
 2514              	.LFE28:
 2516              		.section	.text.__check_status,"ax",@progbits
 2518              	__check_status:
 2519              	.LFB29:
 774:/home/xingli/share/1205tiny/network/mqtt/paho_mqtt/port/paho_mqtt_port.c **** 
 775:/home/xingli/share/1205tiny/network/mqtt/paho_mqtt/port/paho_mqtt_port.c **** static en_mqtt_al_connect_state __check_status(void *handle)
 776:/home/xingli/share/1205tiny/network/mqtt/paho_mqtt/port/paho_mqtt_port.c **** {
 2520              		.loc 2 776 1 is_stmt 1
 2521              		.cfi_startproc
 2522 0000 F30F1EFA 		endbr64
 2523 0004 55       		pushq	%rbp
 2524              	.LCFI69:
 2525              		.cfi_def_cfa_offset 16
 2526              		.cfi_offset 6, -16
 2527 0005 4889E5   		movq	%rsp, %rbp
 2528              	.LCFI70:
 2529              		.cfi_def_cfa_register 6
 2530 0008 4883EC30 		subq	$48, %rsp
 2531 000c 48897DD8 		movq	%rdi, -40(%rbp)
 2532              		.loc 2 776 1
 2533 0010 64488B04 		movq	%fs:40, %rax
 2533      25280000 
GAS LISTING /tmp/ccrqlIgG.s 			page 73


 2533      00
 2534 0019 488945F8 		movq	%rax, -8(%rbp)
 2535 001d 31C0     		xorl	%eax, %eax
 777:/home/xingli/share/1205tiny/network/mqtt/paho_mqtt/port/paho_mqtt_port.c ****     en_mqtt_al_connect_state ret = en_mqtt_al_connect_err;
 2536              		.loc 2 777 30
 2537 001f C745E401 		movl	$1, -28(%rbp)
 2537      000000
 778:/home/xingli/share/1205tiny/network/mqtt/paho_mqtt/port/paho_mqtt_port.c ****     MQTTClient       *c = NULL;
 2538              		.loc 2 778 23
 2539 0026 48C745E8 		movq	$0, -24(%rbp)
 2539      00000000 
 779:/home/xingli/share/1205tiny/network/mqtt/paho_mqtt/port/paho_mqtt_port.c ****     paho_mqtt_cb_t   *cb = NULL;
 2540              		.loc 2 779 23
 2541 002e 48C745F0 		movq	$0, -16(%rbp)
 2541      00000000 
 780:/home/xingli/share/1205tiny/network/mqtt/paho_mqtt/port/paho_mqtt_port.c **** 
 781:/home/xingli/share/1205tiny/network/mqtt/paho_mqtt/port/paho_mqtt_port.c ****     if(NULL == handle)
 2542              		.loc 2 781 7
 2543 0036 48837DD8 		cmpq	$0, -40(%rbp)
 2543      00
 2544 003b 7505     		jne	.L181
 782:/home/xingli/share/1205tiny/network/mqtt/paho_mqtt/port/paho_mqtt_port.c ****     {
 783:/home/xingli/share/1205tiny/network/mqtt/paho_mqtt/port/paho_mqtt_port.c ****         return ret;
 2545              		.loc 2 783 16
 2546 003d 8B45E4   		movl	-28(%rbp), %eax
 2547 0040 EB2E     		jmp	.L182
 2548              	.L181:
 784:/home/xingli/share/1205tiny/network/mqtt/paho_mqtt/port/paho_mqtt_port.c ****     }
 785:/home/xingli/share/1205tiny/network/mqtt/paho_mqtt/port/paho_mqtt_port.c **** 
 786:/home/xingli/share/1205tiny/network/mqtt/paho_mqtt/port/paho_mqtt_port.c ****     cb = handle;
 2549              		.loc 2 786 8
 2550 0042 488B45D8 		movq	-40(%rbp), %rax
 2551 0046 488945F0 		movq	%rax, -16(%rbp)
 787:/home/xingli/share/1205tiny/network/mqtt/paho_mqtt/port/paho_mqtt_port.c ****     c = &cb->client;
 2552              		.loc 2 787 7
 2553 004a 488B45F0 		movq	-16(%rbp), %rax
 2554 004e 4883C058 		addq	$88, %rax
 2555 0052 488945E8 		movq	%rax, -24(%rbp)
 788:/home/xingli/share/1205tiny/network/mqtt/paho_mqtt/port/paho_mqtt_port.c **** 
 789:/home/xingli/share/1205tiny/network/mqtt/paho_mqtt/port/paho_mqtt_port.c ****     if(MQTTIsConnected(c))
 2556              		.loc 2 789 8
 2557 0056 488B45E8 		movq	-24(%rbp), %rax
 2558 005a 4889C7   		movq	%rax, %rdi
 2559 005d E8000000 		call	MQTTIsConnected
 2559      00
 2560              		.loc 2 789 7
 2561 0062 85C0     		testl	%eax, %eax
 2562 0064 7407     		je	.L183
 790:/home/xingli/share/1205tiny/network/mqtt/paho_mqtt/port/paho_mqtt_port.c ****     {
 791:/home/xingli/share/1205tiny/network/mqtt/paho_mqtt/port/paho_mqtt_port.c ****         ret = en_mqtt_al_connect_ok;
 2563              		.loc 2 791 13
 2564 0066 C745E400 		movl	$0, -28(%rbp)
 2564      000000
 2565              	.L183:
 792:/home/xingli/share/1205tiny/network/mqtt/paho_mqtt/port/paho_mqtt_port.c ****     }
 793:/home/xingli/share/1205tiny/network/mqtt/paho_mqtt/port/paho_mqtt_port.c **** 
 794:/home/xingli/share/1205tiny/network/mqtt/paho_mqtt/port/paho_mqtt_port.c ****     return ret;
GAS LISTING /tmp/ccrqlIgG.s 			page 74


 2566              		.loc 2 794 12
 2567 006d 8B45E4   		movl	-28(%rbp), %eax
 2568              	.L182:
 795:/home/xingli/share/1205tiny/network/mqtt/paho_mqtt/port/paho_mqtt_port.c **** }
 2569              		.loc 2 795 1
 2570 0070 488B55F8 		movq	-8(%rbp), %rdx
 2571 0074 64483314 		xorq	%fs:40, %rdx
 2571      25280000 
 2571      00
 2572 007d 7405     		je	.L184
 2573 007f E8000000 		call	__stack_chk_fail@PLT
 2573      00
 2574              	.L184:
 2575 0084 C9       		leave
 2576              	.LCFI71:
 2577              		.cfi_def_cfa 7, 8
 2578 0085 C3       		ret
 2579              		.cfi_endproc
 2580              	.LFE29:
 2582              		.section	.text.mqtt_imp_init,"ax",@progbits
 2583              		.globl	mqtt_imp_init
 2585              	mqtt_imp_init:
 2586              	.LFB30:
 796:/home/xingli/share/1205tiny/network/mqtt/paho_mqtt/port/paho_mqtt_port.c **** 
 797:/home/xingli/share/1205tiny/network/mqtt/paho_mqtt/port/paho_mqtt_port.c **** 
 798:/home/xingli/share/1205tiny/network/mqtt/paho_mqtt/port/paho_mqtt_port.c **** int mqtt_imp_init()
 799:/home/xingli/share/1205tiny/network/mqtt/paho_mqtt/port/paho_mqtt_port.c **** {
 2587              		.loc 2 799 1
 2588              		.cfi_startproc
 2589 0000 F30F1EFA 		endbr64
 2590 0004 55       		pushq	%rbp
 2591              	.LCFI72:
 2592              		.cfi_def_cfa_offset 16
 2593              		.cfi_offset 6, -16
 2594 0005 4889E5   		movq	%rsp, %rbp
 2595              	.LCFI73:
 2596              		.cfi_def_cfa_register 6
 2597 0008 4883EC50 		subq	$80, %rsp
 2598              		.loc 2 799 1
 2599 000c 64488B04 		movq	%fs:40, %rax
 2599      25280000 
 2599      00
 2600 0015 488945F8 		movq	%rax, -8(%rbp)
 2601 0019 31C0     		xorl	%eax, %eax
 800:/home/xingli/share/1205tiny/network/mqtt/paho_mqtt/port/paho_mqtt_port.c ****     int ret = -1;
 2602              		.loc 2 800 9
 2603 001b C745BCFF 		movl	$-1, -68(%rbp)
 2603      FFFFFF
 801:/home/xingli/share/1205tiny/network/mqtt/paho_mqtt/port/paho_mqtt_port.c **** 
 802:/home/xingli/share/1205tiny/network/mqtt/paho_mqtt/port/paho_mqtt_port.c ****     mqtt_al_op_t paho_mqtt_op =
 2604              		.loc 2 802 18
 2605 0022 488D0500 		leaq	__connect(%rip), %rax
 2605      000000
 2606 0029 488945C0 		movq	%rax, -64(%rbp)
 2607 002d 488D0500 		leaq	__disconnect(%rip), %rax
 2607      000000
 2608 0034 488945C8 		movq	%rax, -56(%rbp)
GAS LISTING /tmp/ccrqlIgG.s 			page 75


 2609 0038 488D0500 		leaq	__publish(%rip), %rax
 2609      000000
 2610 003f 488945D0 		movq	%rax, -48(%rbp)
 2611 0043 488D0500 		leaq	__subscribe(%rip), %rax
 2611      000000
 2612 004a 488945D8 		movq	%rax, -40(%rbp)
 2613 004e 488D0500 		leaq	__unsubscribe(%rip), %rax
 2613      000000
 2614 0055 488945E0 		movq	%rax, -32(%rbp)
 2615 0059 488D0500 		leaq	__check_status(%rip), %rax
 2615      000000
 2616 0060 488945E8 		movq	%rax, -24(%rbp)
 803:/home/xingli/share/1205tiny/network/mqtt/paho_mqtt/port/paho_mqtt_port.c ****     {
 804:/home/xingli/share/1205tiny/network/mqtt/paho_mqtt/port/paho_mqtt_port.c ****         .connect = __connect,
 805:/home/xingli/share/1205tiny/network/mqtt/paho_mqtt/port/paho_mqtt_port.c ****         .disconnect = __disconnect,
 806:/home/xingli/share/1205tiny/network/mqtt/paho_mqtt/port/paho_mqtt_port.c ****         .subscribe = __subscribe,
 807:/home/xingli/share/1205tiny/network/mqtt/paho_mqtt/port/paho_mqtt_port.c ****         .unsubscribe = __unsubscribe,
 808:/home/xingli/share/1205tiny/network/mqtt/paho_mqtt/port/paho_mqtt_port.c ****         .publish = __publish,
 809:/home/xingli/share/1205tiny/network/mqtt/paho_mqtt/port/paho_mqtt_port.c ****         .check_status = __check_status,
 810:/home/xingli/share/1205tiny/network/mqtt/paho_mqtt/port/paho_mqtt_port.c ****     };
 811:/home/xingli/share/1205tiny/network/mqtt/paho_mqtt/port/paho_mqtt_port.c **** 
 812:/home/xingli/share/1205tiny/network/mqtt/paho_mqtt/port/paho_mqtt_port.c ****     ret = mqtt_al_install(&paho_mqtt_op);
 2617              		.loc 2 812 11
 2618 0064 488D45C0 		leaq	-64(%rbp), %rax
 2619 0068 4889C7   		movq	%rax, %rdi
 2620 006b E8000000 		call	mqtt_al_install@PLT
 2620      00
 2621 0070 8945BC   		movl	%eax, -68(%rbp)
 813:/home/xingli/share/1205tiny/network/mqtt/paho_mqtt/port/paho_mqtt_port.c **** 
 814:/home/xingli/share/1205tiny/network/mqtt/paho_mqtt/port/paho_mqtt_port.c ****     return ret;
 2622              		.loc 2 814 12
 2623 0073 8B45BC   		movl	-68(%rbp), %eax
 815:/home/xingli/share/1205tiny/network/mqtt/paho_mqtt/port/paho_mqtt_port.c **** }
 2624              		.loc 2 815 1
 2625 0076 488B55F8 		movq	-8(%rbp), %rdx
 2626 007a 64483314 		xorq	%fs:40, %rdx
 2626      25280000 
 2626      00
 2627 0083 7405     		je	.L187
 2628 0085 E8000000 		call	__stack_chk_fail@PLT
 2628      00
 2629              	.L187:
 2630 008a C9       		leave
 2631              	.LCFI74:
 2632              		.cfi_def_cfa 7, 8
 2633 008b C3       		ret
 2634              		.cfi_endproc
 2635              	.LFE30:
 2637              		.section	.rodata.__FUNCTION__.4258,"a"
 2638              		.align 8
 2641              	__FUNCTION__.4258:
 2642 0000 5F5F6469 		.string	"__disconnect"
 2642      73636F6E 
 2642      6E656374 
 2642      00
 2643              		.text
 2644              	.Letext0:
GAS LISTING /tmp/ccrqlIgG.s 			page 76


 2645              		.file 3 "/home/xingli/share/1205tiny/network/mqtt/paho_mqtt/paho/MQTTPacket/src/MQTTPacket.h"
 2646              		.file 4 "/home/xingli/share/1205tiny/network/mqtt/paho_mqtt/paho/MQTTPacket/src/MQTTConnect.h"
 2647              		.file 5 "/usr/lib/gcc/x86_64-linux-gnu/9/include/stddef.h"
 2648              		.file 6 "/usr/include/x86_64-linux-gnu/bits/types.h"
 2649              		.file 7 "/usr/include/x86_64-linux-gnu/bits/types/struct_FILE.h"
 2650              		.file 8 "/usr/include/x86_64-linux-gnu/bits/types/FILE.h"
 2651              		.file 9 "/usr/include/stdio.h"
 2652              		.file 10 "/usr/include/x86_64-linux-gnu/bits/sys_errlist.h"
 2653              		.file 11 "/usr/include/x86_64-linux-gnu/bits/types/struct_timeval.h"
 2654              		.file 12 "/usr/include/x86_64-linux-gnu/bits/stdint-uintn.h"
 2655              		.file 13 "/usr/include/stdint.h"
 2656              		.file 14 "/home/xingli/share/1205tiny/os/osal/osal_types.h"
 2657              		.file 15 "/home/xingli/share/1205tiny/inc/link_log.h"
 2658              		.file 16 "/home/xingli/share/1205tiny/inc/dtls_al.h"
 2659              		.file 17 "/home/xingli/share/1205tiny/inc/mqtt_al.h"
 2660              		.file 18 "/home/xingli/share/1205tiny/network/mqtt/paho_mqtt/port/paho_osdepends.h"
 2661              		.file 19 "/usr/include/time.h"
 2662              		.file 20 "/home/xingli/share/1205tiny/inc/sal_types.h"
 8753              		.section	.note.gnu.property,"a"
 8754              		.align 8
 8755 0000 04000000 		.long	 1f - 0f
 8756 0004 10000000 		.long	 4f - 1f
 8757 0008 05000000 		.long	 5
 8758              	0:
 8759 000c 474E5500 		.string	 "GNU"
 8760              	1:
 8761              		.align 8
 8762 0010 020000C0 		.long	 0xc0000002
 8763 0014 04000000 		.long	 3f - 2f
 8764              	2:
 8765 0018 03000000 		.long	 0x3
 8766              	3:
 8767 001c 00000000 		.align 8
 8768              	4:
GAS LISTING /tmp/ccrqlIgG.s 			page 77


DEFINED SYMBOLS
                            *ABS*:0000000000000000 paho_mqtt_port.c
     /tmp/ccrqlIgG.s:6      .text.MQTTIsConnected:0000000000000000 MQTTIsConnected
     /tmp/ccrqlIgG.s:42     .text.__tls_read:0000000000000000 __tls_read
     /tmp/ccrqlIgG.s:124    .text.__tls_write:0000000000000000 __tls_write
     /tmp/ccrqlIgG.s:208    .text.__tls_connect:0000000000000000 __tls_connect
     /tmp/ccrqlIgG.s:334    .text.__tls_disconnect:0000000000000000 __tls_disconnect
     /tmp/ccrqlIgG.s:378    .text.__socket_read:0000000000000000 __socket_read
     /tmp/ccrqlIgG.s:506    .text.__socket_write:0000000000000000 __socket_write
     /tmp/ccrqlIgG.s:634    .text.__socket_disconnect:0000000000000000 __socket_disconnect
     /tmp/ccrqlIgG.s:673    .text.__socket_connect:0000000000000000 __socket_connect
     /tmp/ccrqlIgG.s:810    .text.__io_read:0000000000000000 __io_read
     /tmp/ccrqlIgG.s:877    .text.__io_write:0000000000000000 __io_write
     /tmp/ccrqlIgG.s:944    .text.__io_connect:0000000000000000 __io_connect
     /tmp/ccrqlIgG.s:1020   .text.__io_disconnect:0000000000000000 __io_disconnect
     /tmp/ccrqlIgG.s:1077   .text.mqtt_io_read:0000000000000000 mqtt_io_read
     /tmp/ccrqlIgG.s:1176   .text.mqtt_io_write:0000000000000000 mqtt_io_write
     /tmp/ccrqlIgG.s:1276   .text.__mqtt_cb_stop:0000000000000000 __mqtt_cb_stop
     /tmp/ccrqlIgG.s:1319   .text.__loop_entry:0000000000000000 __loop_entry
     /tmp/ccrqlIgG.s:1398   .text.__connect:0000000000000000 __connect
     /tmp/ccrqlIgG.s:1848   .text.__disconnect:0000000000000000 __disconnect
     /tmp/ccrqlIgG.s:2641   .rodata.__FUNCTION__.4258:0000000000000000 __FUNCTION__.4258
     /tmp/ccrqlIgG.s:2098   .text.general_dealer:0000000000000000 general_dealer
     /tmp/ccrqlIgG.s:2232   .text.__subscribe:0000000000000000 __subscribe
     /tmp/ccrqlIgG.s:2339   .text.__unsubscribe:0000000000000000 __unsubscribe
     /tmp/ccrqlIgG.s:2414   .text.__publish:0000000000000000 __publish
     /tmp/ccrqlIgG.s:2518   .text.__check_status:0000000000000000 __check_status
     /tmp/ccrqlIgG.s:2585   .text.mqtt_imp_init:0000000000000000 mqtt_imp_init

UNDEFINED SYMBOLS
_GLOBAL_OFFSET_TABLE_
__stack_chk_fail
dtls_al_read
dtls_al_write
memset
dtls_al_new
snprintf
dtls_al_connect
dtls_al_destroy
sal_setsockopt
sal_recv
sal_send
sal_closesocket
sal_gethostbyname
sal_socket
sal_connect
osal_sys_time
MQTTYield
osal_task_sleep
osal_malloc
MQTTClientInit
MQTTConnectWithResults
osal_task_create
MQTTDisconnect
MQTTClientDeInit
osal_free
link_log_level_get
GAS LISTING /tmp/ccrqlIgG.s 			page 78


link_log_level_name
printf
stdout
fflush
osal_task_kill
strlen
MQTTSubscribeWithResultsArgs
MQTTUnsubscribe
MQTTPublish
mqtt_al_install
