GAS LISTING /tmp/cc7S055g.s 			page 1


   1              		.file	"oc_mqtt_tiny.c"
   2              		.text
   3              	.Ltext0:
   4              		.section	.rodata.s_oc_mqtt_ca_crt,"a"
   5              		.align 32
   8              	s_oc_mqtt_ca_crt:
   9 0000 202D2D2D 		.ascii	" -----BEGIN CERTIFICATE-----\r\nMIIDrzCCApegAwIBAgIQCDvgVpBC"
   9      2D2D4245 
   9      47494E20 
   9      43455254 
   9      49464943 
  10 003a 52724768 		.ascii	"RrGhdWrJWZHHSjANBgkqhkiG9w0BAQUFADBh\r\nMQswCQYDVQQGEwJVUzEV"
  10      6457724A 
  10      575A4848 
  10      536A414E 
  10      42676B71 
  11 0074 4D424D47 		.ascii	"MBMGA1UEChMMRGlnaUNlcnQgSW5jMRkwFwYDVQQLExB3\r\nd3cuZGlnaWNl"
  11      41315545 
  11      43684D4D 
  11      52476C6E 
  11      61554E6C 
  12 00ae 636E5175 		.ascii	"cnQuY29tMSAwHgYDVQQDExdEaWdpQ2VydCBHbG9iYWwgUm9vdCBD\r\nQTAe"
  12      59323974 
  12      4D534177 
  12      48675944 
  12      56515144 
  13 00e8 46773077 		.ascii	"Fw0wNjExMTAwMDAwMDBaFw0zMTExMTAwMDAwMDBaMGExCzAJBgNVBAYTAlVT"
  13      4E6A4578 
  13      4D544177 
  13      4D444177 
  13      4D444261 
  14 0124 0D0A4D52 		.ascii	"\r\nMRUwEwYDVQQKEwxEaWdpQ2VydCBJbmMxGTAXBgNVBAsTEHd3dy5kaWdp"
  14      55774577 
  14      59445651 
  14      514B4577 
  14      78456157 
  15 015e 59325679 		.ascii	"Y2VydC5j\r\nb20xIDAeBgNVBAMTF0RpZ2lDZXJ0IEdsb2JhbCBSb290IENB"
  15      6443356A 
  15      0D0A6232 
  15      30784944 
  15      41654267 
  16 0198 4D494942 		.ascii	"MIIBIjANBgkqhkiG\r\n9w0BAQEFAAOCAQ8AMIIBCgKCAQEA4jvhEXLeqKTT"
  16      496A414E 
  16      42676B71 
  16      686B6947 
  16      0D0A3977 
  17 01d2 6F316571 		.ascii	"o1eqUKKPC3eQyaKl7hLOllsB\r\nCSDMAZOnTjC3U/dDxGkAV53ijSLdhwZA"
  17      554B4B50 
  17      43336551 
  17      79614B6C 
  17      37684C4F 
  18 020c 4149454A 		.ascii	"AIEJzs4bg7/fzTtxRuLWZscFs3YnFo97\r\nnh6Vfe63SKMI2tavegw5BmV/"
  18      7A733462 
  18      67372F66 
  18      7A547478 
  18      52754C57 
  19 0246 536C3066 		.ascii	"Sl0fvBf4q77uKNd0f3p4mVmFaG5cIzJLv07A6Fpt\r\n43C/dxC//AH2hdmo"
GAS LISTING /tmp/cc7S055g.s 			page 2


  19      76426634 
  19      71373775 
  19      4B4E6430 
  19      66337034 
  20 0280 52424259 		.ascii	"RBBYMql1GNXRor5H4idq9Joz+EkIYIvUX7Q6hL+hqkpMfT7P\r\nT19sdl6g"
  20      4D716C31 
  20      474E5852 
  20      6F723548 
  20      34696471 
  21 02ba 537A6552 		.ascii	"SzeRntwi5m3OFBqOasv+zbMUZBfHWymeMr/y7vrTC0LUq7dBMtoM1O/4\r\n"
  21      6E747769 
  21      356D334F 
  21      4642714F 
  21      6173762B 
  22 02f4 67645737 		.ascii	"gdW7jVg/tRvoSSiicNoxBN33shbyTApOB6jtSj1etX+jkMOvJwIDAQABo2Mw"
  22      6A56672F 
  22      7452766F 
  22      53536969 
  22      634E6F78 
  23 0330 5954414F 		.ascii	"YTAO\r\nBgNVHQ8BAf8EBAMCAYYwDwYDVR0TAQH/BAUwAwEB/zAdBgNVHQ4E"
  23      0D0A4267 
  23      4E564851 
  23      38424166 
  23      38454241 
  24 036a 46675155 		.ascii	"FgQUA95QNVbR\r\nTLtm8KPiGxvDl7I90VUwHwYDVR0jBBgwFoAUA95QNVbR"
  24      41393551 
  24      4E566252 
  24      0D0A544C 
  24      746D384B 
  25 03a4 544C746D 		.ascii	"TLtm8KPiGxvDl7I90VUw\r\nDQYJKoZIhvcNAQEFBQADggEBAMucN6pIExIK"
  25      384B5069 
  25      47787644 
  25      6C374939 
  25      30565577 
  26 03de 2B743145 		.ascii	"+t1EnE9SsPTfrgT1eXkIoyQY/Esr\r\nhMAtudXH/vTBH1jLuG2cenTnmCmr"
  26      6E453953 
  26      73505466 
  26      72675431 
  26      65586B49 
  27 0418 4562586A 		.ascii	"EbXjcKChzUyImZOMkXDiqw8cvpOp/2PV5Adg\r\n06O/nVsJ8dWO41P0jmP"
  27      634B4368 
  27      7A557949 
  27      6D5A4F4D 
  27      6B584469 
  28 0451 36503666 		.string	"6P6fbtGbfYmbW0W5BjfIttep3Sp+dWOIrWcBAI+0tKIJF\r\nPnlUkiaY4IBIqDfv8NZ5YBberOgOzW6sRBc4L0na
  28      62744762 
  28      66596D62 
  28      57305735 
  28      426A6649 
  29              		.globl	s_new_topic_fmt
  30              		.section	.rodata
  31              		.align 8
  32              	.LC0:
  33 0000 246F632F 		.string	"$oc/devices/%s/sys/messages/down"
  33      64657669 
  33      6365732F 
  33      25732F73 
GAS LISTING /tmp/cc7S055g.s 			page 3


  33      79732F6D 
  34 0021 00000000 		.align 8
  34      000000
  35              	.LC1:
  36 0028 246F632F 		.string	"$oc/devices/%s/sys/properties/set/#"
  36      64657669 
  36      6365732F 
  36      25732F73 
  36      79732F70 
  37 004c 00000000 		.align 8
  38              	.LC2:
  39 0050 246F632F 		.string	"$oc/devices/%s/sys/properties/get/#"
  39      64657669 
  39      6365732F 
  39      25732F73 
  39      79732F70 
  40 0074 00000000 		.align 8
  41              	.LC3:
  42 0078 246F632F 		.string	"$oc/devices/%s/sys/shadow/get/response/#"
  42      64657669 
  42      6365732F 
  42      25732F73 
  42      79732F73 
  43 00a1 00000000 		.align 8
  43      000000
  44              	.LC4:
  45 00a8 246F632F 		.string	"$oc/devices/%s/sys/events/down"
  45      64657669 
  45      6365732F 
  45      25732F73 
  45      79732F65 
  46              		.section	.data.rel.local.s_new_topic_fmt,"aw"
  47              		.align 32
  50              	s_new_topic_fmt:
  51 0000 00000000 		.quad	.LC0
  51      00000000 
  52 0008 00000000 		.quad	.LC1
  52      00000000 
  53 0010 00000000 		.quad	.LC2
  53      00000000 
  54 0018 00000000 		.quad	.LC3
  54      00000000 
  55 0020 00000000 		.quad	.LC4
  55      00000000 
  56              		.section	.bss.s_oc_mqtt_tiny_cb,"aw",@nobits
  57              		.align 8
  60              	s_oc_mqtt_tiny_cb:
  61 0000 00000000 		.zero	8
  61      00000000 
  62              		.section	.text.hub_msg_default_deal,"ax",@progbits
  64              	hub_msg_default_deal:
  65              	.LFB6:
  66              		.file 1 "/home/xingli/share/1205tiny/oc/oc_mqtt/oc_mqtt_tiny_v5/oc_mqtt_tiny.c"
   1:/home/xingli/share/1205tiny/oc/oc_mqtt/oc_mqtt_tiny_v5/oc_mqtt_tiny.c **** /*----------------------------------------------------------------------------
   2:/home/xingli/share/1205tiny/oc/oc_mqtt/oc_mqtt_tiny_v5/oc_mqtt_tiny.c ****  * Copyright (c) <2018>, <Huawei Technologies Co., Ltd>
   3:/home/xingli/share/1205tiny/oc/oc_mqtt/oc_mqtt_tiny_v5/oc_mqtt_tiny.c ****  * All rights reserved.
   4:/home/xingli/share/1205tiny/oc/oc_mqtt/oc_mqtt_tiny_v5/oc_mqtt_tiny.c ****  * Redistribution and use in source and binary forms, with or without modification,
GAS LISTING /tmp/cc7S055g.s 			page 4


   5:/home/xingli/share/1205tiny/oc/oc_mqtt/oc_mqtt_tiny_v5/oc_mqtt_tiny.c ****  * are permitted provided that the following conditions are met:
   6:/home/xingli/share/1205tiny/oc/oc_mqtt/oc_mqtt_tiny_v5/oc_mqtt_tiny.c ****  * 1. Redistributions of source code must retain the above copyright notice, this list of
   7:/home/xingli/share/1205tiny/oc/oc_mqtt/oc_mqtt_tiny_v5/oc_mqtt_tiny.c ****  * conditions and the following disclaimer.
   8:/home/xingli/share/1205tiny/oc/oc_mqtt/oc_mqtt_tiny_v5/oc_mqtt_tiny.c ****  * 2. Redistributions in binary form must reproduce the above copyright notice, this list
   9:/home/xingli/share/1205tiny/oc/oc_mqtt/oc_mqtt_tiny_v5/oc_mqtt_tiny.c ****  * of conditions and the following disclaimer in the documentation and/or other materials
  10:/home/xingli/share/1205tiny/oc/oc_mqtt/oc_mqtt_tiny_v5/oc_mqtt_tiny.c ****  * provided with the distribution.
  11:/home/xingli/share/1205tiny/oc/oc_mqtt/oc_mqtt_tiny_v5/oc_mqtt_tiny.c ****  * 3. Neither the name of the copyright holder nor the names of its contributors may be used
  12:/home/xingli/share/1205tiny/oc/oc_mqtt/oc_mqtt_tiny_v5/oc_mqtt_tiny.c ****  * to endorse or promote products derived from this software without specific prior written
  13:/home/xingli/share/1205tiny/oc/oc_mqtt/oc_mqtt_tiny_v5/oc_mqtt_tiny.c ****  * permission.
  14:/home/xingli/share/1205tiny/oc/oc_mqtt/oc_mqtt_tiny_v5/oc_mqtt_tiny.c ****  * THIS SOFTWARE IS PROVIDED BY THE COPYRIGHT HOLDERS AND CONTRIBUTORS
  15:/home/xingli/share/1205tiny/oc/oc_mqtt/oc_mqtt_tiny_v5/oc_mqtt_tiny.c ****  * "AS IS" AND ANY EXPRESS OR IMPLIED WARRANTIES, INCLUDING, BUT NOT LIMITED TO,
  16:/home/xingli/share/1205tiny/oc/oc_mqtt/oc_mqtt_tiny_v5/oc_mqtt_tiny.c ****  * THE IMPLIED WARRANTIES OF MERCHANTABILITY AND FITNESS FOR A PARTICULAR
  17:/home/xingli/share/1205tiny/oc/oc_mqtt/oc_mqtt_tiny_v5/oc_mqtt_tiny.c ****  * PURPOSE ARE DISCLAIMED. IN NO EVENT SHALL THE COPYRIGHT HOLDER OR
  18:/home/xingli/share/1205tiny/oc/oc_mqtt/oc_mqtt_tiny_v5/oc_mqtt_tiny.c ****  * CONTRIBUTORS BE LIABLE FOR ANY DIRECT, INDIRECT, INCIDENTAL, SPECIAL,
  19:/home/xingli/share/1205tiny/oc/oc_mqtt/oc_mqtt_tiny_v5/oc_mqtt_tiny.c ****  * EXEMPLARY, OR CONSEQUENTIAL DAMAGES (INCLUDING, BUT NOT LIMITED TO,
  20:/home/xingli/share/1205tiny/oc/oc_mqtt/oc_mqtt_tiny_v5/oc_mqtt_tiny.c ****  * PROCUREMENT OF SUBSTITUTE GOODS OR SERVICES; LOSS OF USE, DATA, OR PROFITS;
  21:/home/xingli/share/1205tiny/oc/oc_mqtt/oc_mqtt_tiny_v5/oc_mqtt_tiny.c ****  * OR BUSINESS INTERRUPTION) HOWEVER CAUSED AND ON ANY THEORY OF LIABILITY,
  22:/home/xingli/share/1205tiny/oc/oc_mqtt/oc_mqtt_tiny_v5/oc_mqtt_tiny.c ****  * WHETHER IN CONTRACT, STRICT LIABILITY, OR TORT (INCLUDING NEGLIGENCE OR
  23:/home/xingli/share/1205tiny/oc/oc_mqtt/oc_mqtt_tiny_v5/oc_mqtt_tiny.c ****  * OTHERWISE) ARISING IN ANY WAY OUT OF THE USE OF THIS SOFTWARE, EVEN IF
  24:/home/xingli/share/1205tiny/oc/oc_mqtt/oc_mqtt_tiny_v5/oc_mqtt_tiny.c ****  * ADVISED OF THE POSSIBILITY OF SUCH DAMAGE.
  25:/home/xingli/share/1205tiny/oc/oc_mqtt/oc_mqtt_tiny_v5/oc_mqtt_tiny.c ****  *---------------------------------------------------------------------------*/
  26:/home/xingli/share/1205tiny/oc/oc_mqtt/oc_mqtt_tiny_v5/oc_mqtt_tiny.c **** /*----------------------------------------------------------------------------
  27:/home/xingli/share/1205tiny/oc/oc_mqtt/oc_mqtt_tiny_v5/oc_mqtt_tiny.c ****  * Notice of Export Control Law
  28:/home/xingli/share/1205tiny/oc/oc_mqtt/oc_mqtt_tiny_v5/oc_mqtt_tiny.c ****  * ===============================================
  29:/home/xingli/share/1205tiny/oc/oc_mqtt/oc_mqtt_tiny_v5/oc_mqtt_tiny.c ****  * Huawei LiteOS may be subject to applicable export control laws and regulations, which might
  30:/home/xingli/share/1205tiny/oc/oc_mqtt/oc_mqtt_tiny_v5/oc_mqtt_tiny.c ****  * include those applicable to Huawei LiteOS of U.S. and the country in which you are located.
  31:/home/xingli/share/1205tiny/oc/oc_mqtt/oc_mqtt_tiny_v5/oc_mqtt_tiny.c ****  * Import, export and usage of Huawei LiteOS in any manner by you shall be in compliance with such
  32:/home/xingli/share/1205tiny/oc/oc_mqtt/oc_mqtt_tiny_v5/oc_mqtt_tiny.c ****  * applicable export control laws and regulations.
  33:/home/xingli/share/1205tiny/oc/oc_mqtt/oc_mqtt_tiny_v5/oc_mqtt_tiny.c ****  *---------------------------------------------------------------------------*/
  34:/home/xingli/share/1205tiny/oc/oc_mqtt/oc_mqtt_tiny_v5/oc_mqtt_tiny.c **** /**
  35:/home/xingli/share/1205tiny/oc/oc_mqtt/oc_mqtt_tiny_v5/oc_mqtt_tiny.c ****  *  1, only support CRT tls mode
  36:/home/xingli/share/1205tiny/oc/oc_mqtt/oc_mqtt_tiny_v5/oc_mqtt_tiny.c ****  *  2, the data encode only support the json mode
  37:/home/xingli/share/1205tiny/oc/oc_mqtt/oc_mqtt_tiny_v5/oc_mqtt_tiny.c ****  *  3, the pwd only support the no check time mode
  38:/home/xingli/share/1205tiny/oc/oc_mqtt/oc_mqtt_tiny_v5/oc_mqtt_tiny.c ****  *
  39:/home/xingli/share/1205tiny/oc/oc_mqtt/oc_mqtt_tiny_v5/oc_mqtt_tiny.c ****  */
  40:/home/xingli/share/1205tiny/oc/oc_mqtt/oc_mqtt_tiny_v5/oc_mqtt_tiny.c **** #include <stdint.h>
  41:/home/xingli/share/1205tiny/oc/oc_mqtt/oc_mqtt_tiny_v5/oc_mqtt_tiny.c **** #include <stddef.h>
  42:/home/xingli/share/1205tiny/oc/oc_mqtt/oc_mqtt_tiny_v5/oc_mqtt_tiny.c **** #include <stdlib.h>
  43:/home/xingli/share/1205tiny/oc/oc_mqtt/oc_mqtt_tiny_v5/oc_mqtt_tiny.c **** #include <string.h>
  44:/home/xingli/share/1205tiny/oc/oc_mqtt/oc_mqtt_tiny_v5/oc_mqtt_tiny.c **** #include <link_misc.h>
  45:/home/xingli/share/1205tiny/oc/oc_mqtt/oc_mqtt_tiny_v5/oc_mqtt_tiny.c **** #include <time.h>
  46:/home/xingli/share/1205tiny/oc/oc_mqtt/oc_mqtt_tiny_v5/oc_mqtt_tiny.c **** 
  47:/home/xingli/share/1205tiny/oc/oc_mqtt/oc_mqtt_tiny_v5/oc_mqtt_tiny.c **** #include "queue.h"
  48:/home/xingli/share/1205tiny/oc/oc_mqtt/oc_mqtt_tiny_v5/oc_mqtt_tiny.c **** #include "osal.h"
  49:/home/xingli/share/1205tiny/oc/oc_mqtt/oc_mqtt_tiny_v5/oc_mqtt_tiny.c **** #include "mqtt_al.h"
  50:/home/xingli/share/1205tiny/oc/oc_mqtt/oc_mqtt_tiny_v5/oc_mqtt_tiny.c **** #include "oc_mqtt_al.h"
  51:/home/xingli/share/1205tiny/oc/oc_mqtt/oc_mqtt_tiny_v5/oc_mqtt_tiny.c **** //#include "sal.h"
  52:/home/xingli/share/1205tiny/oc/oc_mqtt/oc_mqtt_tiny_v5/oc_mqtt_tiny.c **** 
  53:/home/xingli/share/1205tiny/oc/oc_mqtt/oc_mqtt_tiny_v5/oc_mqtt_tiny.c **** #include "cJSON.h"           //json mode
  54:/home/xingli/share/1205tiny/oc/oc_mqtt/oc_mqtt_tiny_v5/oc_mqtt_tiny.c **** #include "hmac.h"            //used to generate the user pwd
  55:/home/xingli/share/1205tiny/oc/oc_mqtt/oc_mqtt_tiny_v5/oc_mqtt_tiny.c **** #include "link_log.h"
  56:/home/xingli/share/1205tiny/oc/oc_mqtt/oc_mqtt_tiny_v5/oc_mqtt_tiny.c **** 
  57:/home/xingli/share/1205tiny/oc/oc_mqtt/oc_mqtt_tiny_v5/oc_mqtt_tiny.c **** ////CRT FOR THE OC
  58:/home/xingli/share/1205tiny/oc/oc_mqtt/oc_mqtt_tiny_v5/oc_mqtt_tiny.c **** static const char s_oc_mqtt_ca_crt[] =
  59:/home/xingli/share/1205tiny/oc/oc_mqtt/oc_mqtt_tiny_v5/oc_mqtt_tiny.c **** " -----BEGIN CERTIFICATE-----\r\n"
  60:/home/xingli/share/1205tiny/oc/oc_mqtt/oc_mqtt_tiny_v5/oc_mqtt_tiny.c **** "MIIDrzCCApegAwIBAgIQCDvgVpBCRrGhdWrJWZHHSjANBgkqhkiG9w0BAQUFADBh\r\n"
  61:/home/xingli/share/1205tiny/oc/oc_mqtt/oc_mqtt_tiny_v5/oc_mqtt_tiny.c **** "MQswCQYDVQQGEwJVUzEVMBMGA1UEChMMRGlnaUNlcnQgSW5jMRkwFwYDVQQLExB3\r\n"
GAS LISTING /tmp/cc7S055g.s 			page 5


  62:/home/xingli/share/1205tiny/oc/oc_mqtt/oc_mqtt_tiny_v5/oc_mqtt_tiny.c **** "d3cuZGlnaWNlcnQuY29tMSAwHgYDVQQDExdEaWdpQ2VydCBHbG9iYWwgUm9vdCBD\r\n"
  63:/home/xingli/share/1205tiny/oc/oc_mqtt/oc_mqtt_tiny_v5/oc_mqtt_tiny.c **** "QTAeFw0wNjExMTAwMDAwMDBaFw0zMTExMTAwMDAwMDBaMGExCzAJBgNVBAYTAlVT\r\n"
  64:/home/xingli/share/1205tiny/oc/oc_mqtt/oc_mqtt_tiny_v5/oc_mqtt_tiny.c **** "MRUwEwYDVQQKEwxEaWdpQ2VydCBJbmMxGTAXBgNVBAsTEHd3dy5kaWdpY2VydC5j\r\n"
  65:/home/xingli/share/1205tiny/oc/oc_mqtt/oc_mqtt_tiny_v5/oc_mqtt_tiny.c **** "b20xIDAeBgNVBAMTF0RpZ2lDZXJ0IEdsb2JhbCBSb290IENBMIIBIjANBgkqhkiG\r\n"
  66:/home/xingli/share/1205tiny/oc/oc_mqtt/oc_mqtt_tiny_v5/oc_mqtt_tiny.c **** "9w0BAQEFAAOCAQ8AMIIBCgKCAQEA4jvhEXLeqKTTo1eqUKKPC3eQyaKl7hLOllsB\r\n"
  67:/home/xingli/share/1205tiny/oc/oc_mqtt/oc_mqtt_tiny_v5/oc_mqtt_tiny.c **** "CSDMAZOnTjC3U/dDxGkAV53ijSLdhwZAAIEJzs4bg7/fzTtxRuLWZscFs3YnFo97\r\n"
  68:/home/xingli/share/1205tiny/oc/oc_mqtt/oc_mqtt_tiny_v5/oc_mqtt_tiny.c **** "nh6Vfe63SKMI2tavegw5BmV/Sl0fvBf4q77uKNd0f3p4mVmFaG5cIzJLv07A6Fpt\r\n"
  69:/home/xingli/share/1205tiny/oc/oc_mqtt/oc_mqtt_tiny_v5/oc_mqtt_tiny.c **** "43C/dxC//AH2hdmoRBBYMql1GNXRor5H4idq9Joz+EkIYIvUX7Q6hL+hqkpMfT7P\r\n"
  70:/home/xingli/share/1205tiny/oc/oc_mqtt/oc_mqtt_tiny_v5/oc_mqtt_tiny.c **** "T19sdl6gSzeRntwi5m3OFBqOasv+zbMUZBfHWymeMr/y7vrTC0LUq7dBMtoM1O/4\r\n"
  71:/home/xingli/share/1205tiny/oc/oc_mqtt/oc_mqtt_tiny_v5/oc_mqtt_tiny.c **** "gdW7jVg/tRvoSSiicNoxBN33shbyTApOB6jtSj1etX+jkMOvJwIDAQABo2MwYTAO\r\n"
  72:/home/xingli/share/1205tiny/oc/oc_mqtt/oc_mqtt_tiny_v5/oc_mqtt_tiny.c **** "BgNVHQ8BAf8EBAMCAYYwDwYDVR0TAQH/BAUwAwEB/zAdBgNVHQ4EFgQUA95QNVbR\r\n"
  73:/home/xingli/share/1205tiny/oc/oc_mqtt/oc_mqtt_tiny_v5/oc_mqtt_tiny.c **** "TLtm8KPiGxvDl7I90VUwHwYDVR0jBBgwFoAUA95QNVbRTLtm8KPiGxvDl7I90VUw\r\n"
  74:/home/xingli/share/1205tiny/oc/oc_mqtt/oc_mqtt_tiny_v5/oc_mqtt_tiny.c **** "DQYJKoZIhvcNAQEFBQADggEBAMucN6pIExIK+t1EnE9SsPTfrgT1eXkIoyQY/Esr\r\n"
  75:/home/xingli/share/1205tiny/oc/oc_mqtt/oc_mqtt_tiny_v5/oc_mqtt_tiny.c **** "hMAtudXH/vTBH1jLuG2cenTnmCmrEbXjcKChzUyImZOMkXDiqw8cvpOp/2PV5Adg\r\n"
  76:/home/xingli/share/1205tiny/oc/oc_mqtt/oc_mqtt_tiny_v5/oc_mqtt_tiny.c **** "06O/nVsJ8dWO41P0jmP6P6fbtGbfYmbW0W5BjfIttep3Sp+dWOIrWcBAI+0tKIJF\r\n"
  77:/home/xingli/share/1205tiny/oc/oc_mqtt/oc_mqtt_tiny_v5/oc_mqtt_tiny.c **** "PnlUkiaY4IBIqDfv8NZ5YBberOgOzW6sRBc4L0na4UU+Krk2U886UAb3LujEV0ls\r\n"
  78:/home/xingli/share/1205tiny/oc/oc_mqtt/oc_mqtt_tiny_v5/oc_mqtt_tiny.c **** "YSEY1QSteDwsOoBrp+uvFRTp2InBuThs4pFsiv9kuXclVzDAGySj4dzp30d8tbQk\r\n"
  79:/home/xingli/share/1205tiny/oc/oc_mqtt/oc_mqtt_tiny_v5/oc_mqtt_tiny.c **** "CAUw7C29C79Fv1C5qfPrmAESrciIxpg0X40KPMbp1ZWVbd4=\r\n"
  80:/home/xingli/share/1205tiny/oc/oc_mqtt/oc_mqtt_tiny_v5/oc_mqtt_tiny.c **** "-----END CERTIFICATE-----\r\n";
  81:/home/xingli/share/1205tiny/oc/oc_mqtt/oc_mqtt_tiny_v5/oc_mqtt_tiny.c **** 
  82:/home/xingli/share/1205tiny/oc/oc_mqtt/oc_mqtt_tiny_v5/oc_mqtt_tiny.c **** 
  83:/home/xingli/share/1205tiny/oc/oc_mqtt/oc_mqtt_tiny_v5/oc_mqtt_tiny.c **** ///< devices normal data report and receive topic format
  84:/home/xingli/share/1205tiny/oc/oc_mqtt/oc_mqtt_tiny_v5/oc_mqtt_tiny.c **** #define CN_CLIENT_ID_FMTNORMAL               "%s_0_0_%s"    ///< "deviceid_0_0_salttime"
  85:/home/xingli/share/1205tiny/oc/oc_mqtt/oc_mqtt_tiny_v5/oc_mqtt_tiny.c **** #define CN_CLIENT_ID_FMTGROUP                "%s_0_%s"      ///< "deviceid_0_scopeid"
  86:/home/xingli/share/1205tiny/oc/oc_mqtt/oc_mqtt_tiny_v5/oc_mqtt_tiny.c **** 
  87:/home/xingli/share/1205tiny/oc/oc_mqtt/oc_mqtt_tiny_v5/oc_mqtt_tiny.c **** #define CN_OC_BS_REPORT_TOPIC_FMT           "$oc/devices/%s/sys/bootstrap/up"
  88:/home/xingli/share/1205tiny/oc/oc_mqtt/oc_mqtt_tiny_v5/oc_mqtt_tiny.c **** #define CN_OC_BS_CMD_TOPIC_FMT              "$oc/devices/%s/sys/bootstrap/down"
  89:/home/xingli/share/1205tiny/oc/oc_mqtt/oc_mqtt_tiny_v5/oc_mqtt_tiny.c **** #define CN_OC_HUB_SUBTOPIC_DEFAULT_FMT      "$oc/devices/%s/sys/commands/#"
  90:/home/xingli/share/1205tiny/oc/oc_mqtt/oc_mqtt_tiny_v5/oc_mqtt_tiny.c **** #define CN_OC_HUB_PUBTOPIC_DEFAULT_FMT      "$oc/devices/%s/sys/properties/report"
  91:/home/xingli/share/1205tiny/oc/oc_mqtt/oc_mqtt_tiny_v5/oc_mqtt_tiny.c **** 
  92:/home/xingli/share/1205tiny/oc/oc_mqtt/oc_mqtt_tiny_v5/oc_mqtt_tiny.c **** /*The unit is millisecond*/
  93:/home/xingli/share/1205tiny/oc/oc_mqtt/oc_mqtt_tiny_v5/oc_mqtt_tiny.c **** #define CN_CON_BACKOFF_TIME     (1000)   ///< UNIT:ms
  94:/home/xingli/share/1205tiny/oc/oc_mqtt/oc_mqtt_tiny_v5/oc_mqtt_tiny.c **** #define CN_CON_BACKOFF_MAXTIMES  40      ///< WHEN WAIT OR GET ADDRESS ,WE COULD TRY MAX TIMES
  95:/home/xingli/share/1205tiny/oc/oc_mqtt/oc_mqtt_tiny_v5/oc_mqtt_tiny.c **** #define CN_HMAC_LEN              32
  96:/home/xingli/share/1205tiny/oc/oc_mqtt/oc_mqtt_tiny_v5/oc_mqtt_tiny.c **** #define CN_STRING_MAXLEN         127
  97:/home/xingli/share/1205tiny/oc/oc_mqtt/oc_mqtt_tiny_v5/oc_mqtt_tiny.c **** 
  98:/home/xingli/share/1205tiny/oc/oc_mqtt/oc_mqtt_tiny_v5/oc_mqtt_tiny.c **** #define CN_OC_MQTT_TIMEOUT             (10*1000)
  99:/home/xingli/share/1205tiny/oc/oc_mqtt/oc_mqtt_tiny_v5/oc_mqtt_tiny.c **** #define CN_OC_MQTT_LIFETIMEDEFAULT     (120)
 100:/home/xingli/share/1205tiny/oc/oc_mqtt/oc_mqtt_tiny_v5/oc_mqtt_tiny.c **** #define CN_OC_MQTT_LIFELEAST           (30)
 101:/home/xingli/share/1205tiny/oc/oc_mqtt/oc_mqtt_tiny_v5/oc_mqtt_tiny.c **** #define CN_OC_MQTT_LIFEMAX             (1200)
 102:/home/xingli/share/1205tiny/oc/oc_mqtt/oc_mqtt_tiny_v5/oc_mqtt_tiny.c **** 
 103:/home/xingli/share/1205tiny/oc/oc_mqtt/oc_mqtt_tiny_v5/oc_mqtt_tiny.c **** const char *s_new_topic_fmt[]=
 104:/home/xingli/share/1205tiny/oc/oc_mqtt/oc_mqtt_tiny_v5/oc_mqtt_tiny.c **** {
 105:/home/xingli/share/1205tiny/oc/oc_mqtt/oc_mqtt_tiny_v5/oc_mqtt_tiny.c ****     "$oc/devices/%s/sys/messages/down",
 106:/home/xingli/share/1205tiny/oc/oc_mqtt/oc_mqtt_tiny_v5/oc_mqtt_tiny.c ****     "$oc/devices/%s/sys/properties/set/#",
 107:/home/xingli/share/1205tiny/oc/oc_mqtt/oc_mqtt_tiny_v5/oc_mqtt_tiny.c ****     "$oc/devices/%s/sys/properties/get/#",
 108:/home/xingli/share/1205tiny/oc/oc_mqtt/oc_mqtt_tiny_v5/oc_mqtt_tiny.c ****     "$oc/devices/%s/sys/shadow/get/response/#",
 109:/home/xingli/share/1205tiny/oc/oc_mqtt/oc_mqtt_tiny_v5/oc_mqtt_tiny.c ****     "$oc/devices/%s/sys/events/down",
 110:/home/xingli/share/1205tiny/oc/oc_mqtt/oc_mqtt_tiny_v5/oc_mqtt_tiny.c **** };
 111:/home/xingli/share/1205tiny/oc/oc_mqtt/oc_mqtt_tiny_v5/oc_mqtt_tiny.c **** #define CN_NEW_TOPIC_NUM     (sizeof(s_new_topic_fmt)/sizeof(const char *))
 112:/home/xingli/share/1205tiny/oc/oc_mqtt/oc_mqtt_tiny_v5/oc_mqtt_tiny.c **** 
 113:/home/xingli/share/1205tiny/oc/oc_mqtt/oc_mqtt_tiny_v5/oc_mqtt_tiny.c **** 
 114:/home/xingli/share/1205tiny/oc/oc_mqtt/oc_mqtt_tiny_v5/oc_mqtt_tiny.c **** typedef struct
 115:/home/xingli/share/1205tiny/oc/oc_mqtt/oc_mqtt_tiny_v5/oc_mqtt_tiny.c **** {
 116:/home/xingli/share/1205tiny/oc/oc_mqtt/oc_mqtt_tiny_v5/oc_mqtt_tiny.c ****     char *hubserver_addr;     ///< we get from the bs server
 117:/home/xingli/share/1205tiny/oc/oc_mqtt/oc_mqtt_tiny_v5/oc_mqtt_tiny.c ****     char *hubserver_port;     ///< we get from the bs server
 118:/home/xingli/share/1205tiny/oc/oc_mqtt/oc_mqtt_tiny_v5/oc_mqtt_tiny.c **** }oc_bs_mqtt_cb_t;             ///< when we used
GAS LISTING /tmp/cc7S055g.s 			page 6


 119:/home/xingli/share/1205tiny/oc/oc_mqtt/oc_mqtt_tiny_v5/oc_mqtt_tiny.c **** 
 120:/home/xingli/share/1205tiny/oc/oc_mqtt/oc_mqtt_tiny_v5/oc_mqtt_tiny.c **** 
 121:/home/xingli/share/1205tiny/oc/oc_mqtt/oc_mqtt_tiny_v5/oc_mqtt_tiny.c **** typedef struct
 122:/home/xingli/share/1205tiny/oc/oc_mqtt/oc_mqtt_tiny_v5/oc_mqtt_tiny.c **** {
 123:/home/xingli/share/1205tiny/oc/oc_mqtt/oc_mqtt_tiny_v5/oc_mqtt_tiny.c ****     ///< these parameter has been generated when configured
 124:/home/xingli/share/1205tiny/oc/oc_mqtt/oc_mqtt_tiny_v5/oc_mqtt_tiny.c ****     char   *mqtt_clientid;
 125:/home/xingli/share/1205tiny/oc/oc_mqtt/oc_mqtt_tiny_v5/oc_mqtt_tiny.c ****     char   *mqtt_user;
 126:/home/xingli/share/1205tiny/oc/oc_mqtt/oc_mqtt_tiny_v5/oc_mqtt_tiny.c ****     char   *mqtt_passwd;
 127:/home/xingli/share/1205tiny/oc/oc_mqtt/oc_mqtt_tiny_v5/oc_mqtt_tiny.c ****     char   *server_addr;
 128:/home/xingli/share/1205tiny/oc/oc_mqtt/oc_mqtt_tiny_v5/oc_mqtt_tiny.c ****     char   *server_port;
 129:/home/xingli/share/1205tiny/oc/oc_mqtt/oc_mqtt_tiny_v5/oc_mqtt_tiny.c ****     char   *default_pub_topic;
 130:/home/xingli/share/1205tiny/oc/oc_mqtt/oc_mqtt_tiny_v5/oc_mqtt_tiny.c ****     char   *default_sub_topic;
 131:/home/xingli/share/1205tiny/oc/oc_mqtt/oc_mqtt_tiny_v5/oc_mqtt_tiny.c ****     fn_mqtt_al_msg_dealer default_msg_deal;
 132:/home/xingli/share/1205tiny/oc/oc_mqtt/oc_mqtt_tiny_v5/oc_mqtt_tiny.c ****     ///< these parameter is dynamic  and will changed in the connection process
 133:/home/xingli/share/1205tiny/oc/oc_mqtt/oc_mqtt_tiny_v5/oc_mqtt_tiny.c ****     void   *mqtt_handle;
 134:/home/xingli/share/1205tiny/oc/oc_mqtt/oc_mqtt_tiny_v5/oc_mqtt_tiny.c **** }oc_mqtt_para_t;
 135:/home/xingli/share/1205tiny/oc/oc_mqtt/oc_mqtt_tiny_v5/oc_mqtt_tiny.c **** 
 136:/home/xingli/share/1205tiny/oc/oc_mqtt/oc_mqtt_tiny_v5/oc_mqtt_tiny.c **** 
 137:/home/xingli/share/1205tiny/oc/oc_mqtt/oc_mqtt_tiny_v5/oc_mqtt_tiny.c **** typedef enum
 138:/home/xingli/share/1205tiny/oc/oc_mqtt/oc_mqtt_tiny_v5/oc_mqtt_tiny.c **** {
 139:/home/xingli/share/1205tiny/oc/oc_mqtt/oc_mqtt_tiny_v5/oc_mqtt_tiny.c ****     en_daemon_status_idle = 0,
 140:/home/xingli/share/1205tiny/oc/oc_mqtt/oc_mqtt_tiny_v5/oc_mqtt_tiny.c ****     en_daemon_status_bs_getaddr,
 141:/home/xingli/share/1205tiny/oc/oc_mqtt/oc_mqtt_tiny_v5/oc_mqtt_tiny.c ****     en_daemon_status_dmp_connecting,
 142:/home/xingli/share/1205tiny/oc/oc_mqtt/oc_mqtt_tiny_v5/oc_mqtt_tiny.c ****     en_daemon_status_hub_keep,
 143:/home/xingli/share/1205tiny/oc/oc_mqtt/oc_mqtt_tiny_v5/oc_mqtt_tiny.c **** }en_daemon_status_t;
 144:/home/xingli/share/1205tiny/oc/oc_mqtt/oc_mqtt_tiny_v5/oc_mqtt_tiny.c **** 
 145:/home/xingli/share/1205tiny/oc/oc_mqtt/oc_mqtt_tiny_v5/oc_mqtt_tiny.c **** typedef struct
 146:/home/xingli/share/1205tiny/oc/oc_mqtt/oc_mqtt_tiny_v5/oc_mqtt_tiny.c **** {
 147:/home/xingli/share/1205tiny/oc/oc_mqtt/oc_mqtt_tiny_v5/oc_mqtt_tiny.c ****     void  *nxt;
 148:/home/xingli/share/1205tiny/oc/oc_mqtt/oc_mqtt_tiny_v5/oc_mqtt_tiny.c ****     char  *topic;
 149:/home/xingli/share/1205tiny/oc/oc_mqtt/oc_mqtt_tiny_v5/oc_mqtt_tiny.c ****     int    qos;
 150:/home/xingli/share/1205tiny/oc/oc_mqtt/oc_mqtt_tiny_v5/oc_mqtt_tiny.c **** }tiny_topic_sub_t;
 151:/home/xingli/share/1205tiny/oc/oc_mqtt/oc_mqtt_tiny_v5/oc_mqtt_tiny.c **** 
 152:/home/xingli/share/1205tiny/oc/oc_mqtt/oc_mqtt_tiny_v5/oc_mqtt_tiny.c **** 
 153:/home/xingli/share/1205tiny/oc/oc_mqtt/oc_mqtt_tiny_v5/oc_mqtt_tiny.c **** typedef struct
 154:/home/xingli/share/1205tiny/oc/oc_mqtt/oc_mqtt_tiny_v5/oc_mqtt_tiny.c **** {
 155:/home/xingli/share/1205tiny/oc/oc_mqtt/oc_mqtt_tiny_v5/oc_mqtt_tiny.c ****     int                     daemon_exit;
 156:/home/xingli/share/1205tiny/oc/oc_mqtt/oc_mqtt_tiny_v5/oc_mqtt_tiny.c ****     char                   *config_mem;   ///< used to storage the configuration information
 157:/home/xingli/share/1205tiny/oc/oc_mqtt/oc_mqtt_tiny_v5/oc_mqtt_tiny.c ****     oc_mqtt_config_t        config;
 158:/home/xingli/share/1205tiny/oc/oc_mqtt/oc_mqtt_tiny_v5/oc_mqtt_tiny.c ****     oc_mqtt_para_t          mqtt_para;
 159:/home/xingli/share/1205tiny/oc/oc_mqtt/oc_mqtt_tiny_v5/oc_mqtt_tiny.c ****     union{
 160:/home/xingli/share/1205tiny/oc/oc_mqtt/oc_mqtt_tiny_v5/oc_mqtt_tiny.c ****         uint32_t value;
 161:/home/xingli/share/1205tiny/oc/oc_mqtt/oc_mqtt_tiny_v5/oc_mqtt_tiny.c ****         struct
 162:/home/xingli/share/1205tiny/oc/oc_mqtt/oc_mqtt_tiny_v5/oc_mqtt_tiny.c ****         {
 163:/home/xingli/share/1205tiny/oc/oc_mqtt/oc_mqtt_tiny_v5/oc_mqtt_tiny.c ****             uint32_t bit_bs_enable:1;
 164:/home/xingli/share/1205tiny/oc/oc_mqtt/oc_mqtt_tiny_v5/oc_mqtt_tiny.c ****             uint32_t bit_daemon_status:3;
 165:/home/xingli/share/1205tiny/oc/oc_mqtt/oc_mqtt_tiny_v5/oc_mqtt_tiny.c ****             uint32_t bit_get_hubaddr:1;
 166:/home/xingli/share/1205tiny/oc/oc_mqtt/oc_mqtt_tiny_v5/oc_mqtt_tiny.c ****             uint32_t bit_do_bootstrap:1;
 167:/home/xingli/share/1205tiny/oc/oc_mqtt/oc_mqtt_tiny_v5/oc_mqtt_tiny.c ****             uint32_t bit_do_reportdisconnect:1;
 168:/home/xingli/share/1205tiny/oc/oc_mqtt/oc_mqtt_tiny_v5/oc_mqtt_tiny.c ****         }bits;
 169:/home/xingli/share/1205tiny/oc/oc_mqtt/oc_mqtt_tiny_v5/oc_mqtt_tiny.c ****     }flag;
 170:/home/xingli/share/1205tiny/oc/oc_mqtt/oc_mqtt_tiny_v5/oc_mqtt_tiny.c ****     oc_bs_mqtt_cb_t     bs_cb;
 171:/home/xingli/share/1205tiny/oc/oc_mqtt/oc_mqtt_tiny_v5/oc_mqtt_tiny.c ****     void               *task_daemon;                ///< oc mqtt lite daemon task
 172:/home/xingli/share/1205tiny/oc/oc_mqtt/oc_mqtt_tiny_v5/oc_mqtt_tiny.c ****     queue_t            *task_daemon_cmd_queue;      ///< oc mqtt lite daemon task command queue
 173:/home/xingli/share/1205tiny/oc/oc_mqtt/oc_mqtt_tiny_v5/oc_mqtt_tiny.c ****     char                salt_time[16];              ///< salt time for the connect
 174:/home/xingli/share/1205tiny/oc/oc_mqtt/oc_mqtt_tiny_v5/oc_mqtt_tiny.c ****     char               *hub_sub_topic[CN_NEW_TOPIC_NUM];
 175:/home/xingli/share/1205tiny/oc/oc_mqtt/oc_mqtt_tiny_v5/oc_mqtt_tiny.c ****     tiny_topic_sub_t   *subscribe_lst;
GAS LISTING /tmp/cc7S055g.s 			page 7


 176:/home/xingli/share/1205tiny/oc/oc_mqtt/oc_mqtt_tiny_v5/oc_mqtt_tiny.c **** }oc_mqtt_tiny_cb_t;   ///< i think we may only got one mqtt
 177:/home/xingli/share/1205tiny/oc/oc_mqtt/oc_mqtt_tiny_v5/oc_mqtt_tiny.c **** static oc_mqtt_tiny_cb_t *s_oc_mqtt_tiny_cb;
 178:/home/xingli/share/1205tiny/oc/oc_mqtt/oc_mqtt_tiny_v5/oc_mqtt_tiny.c **** 
 179:/home/xingli/share/1205tiny/oc/oc_mqtt/oc_mqtt_tiny_v5/oc_mqtt_tiny.c **** typedef enum
 180:/home/xingli/share/1205tiny/oc/oc_mqtt/oc_mqtt_tiny_v5/oc_mqtt_tiny.c **** {
 181:/home/xingli/share/1205tiny/oc/oc_mqtt/oc_mqtt_tiny_v5/oc_mqtt_tiny.c ****     en_oc_mqtt_daemon_cmd_connect = 0,
 182:/home/xingli/share/1205tiny/oc/oc_mqtt/oc_mqtt_tiny_v5/oc_mqtt_tiny.c ****     en_oc_mqtt_daemon_cmd_send,           ///< when api need send message, then it post this comman
 183:/home/xingli/share/1205tiny/oc/oc_mqtt/oc_mqtt_tiny_v5/oc_mqtt_tiny.c ****     en_oc_mqtt_daemon_cmd_publish,        ///< when api need publish message, then it post this com
 184:/home/xingli/share/1205tiny/oc/oc_mqtt/oc_mqtt_tiny_v5/oc_mqtt_tiny.c ****     en_oc_mqtt_daemon_cmd_subscribe,      ///< when api need subscribe a topic, then it post this c
 185:/home/xingli/share/1205tiny/oc/oc_mqtt/oc_mqtt_tiny_v5/oc_mqtt_tiny.c ****     en_oc_mqtt_daemon_cmd_unsubscribe,    ///< when api need un-subscribe a topic,then it post this
 186:/home/xingli/share/1205tiny/oc/oc_mqtt/oc_mqtt_tiny_v5/oc_mqtt_tiny.c ****     en_oc_mqtt_daemon_cmd_disconnect,     ///< when api need to stop the connect, then it post this
 187:/home/xingli/share/1205tiny/oc/oc_mqtt/oc_mqtt_tiny_v5/oc_mqtt_tiny.c ****     en_oc_mqtt_daemon_cmd_bsgetaddr,      ///< the bs callback post this command to the daemon when
 188:/home/xingli/share/1205tiny/oc/oc_mqtt/oc_mqtt_tiny_v5/oc_mqtt_tiny.c ****     en_oc_mqtt_daemon_cmd_rebootstrap,    ///< the hub callback post this command to the daemon whe
 189:/home/xingli/share/1205tiny/oc/oc_mqtt/oc_mqtt_tiny_v5/oc_mqtt_tiny.c **** }en_oc_mqtt_daemon_cmd;
 190:/home/xingli/share/1205tiny/oc/oc_mqtt/oc_mqtt_tiny_v5/oc_mqtt_tiny.c **** 
 191:/home/xingli/share/1205tiny/oc/oc_mqtt/oc_mqtt_tiny_v5/oc_mqtt_tiny.c **** typedef struct
 192:/home/xingli/share/1205tiny/oc/oc_mqtt/oc_mqtt_tiny_v5/oc_mqtt_tiny.c **** {
 193:/home/xingli/share/1205tiny/oc/oc_mqtt/oc_mqtt_tiny_v5/oc_mqtt_tiny.c ****     en_oc_mqtt_daemon_cmd   cmd;       ///< this is the command
 194:/home/xingli/share/1205tiny/oc/oc_mqtt/oc_mqtt_tiny_v5/oc_mqtt_tiny.c ****     void                   *arg;       ///< this is used for the argument
 195:/home/xingli/share/1205tiny/oc/oc_mqtt/oc_mqtt_tiny_v5/oc_mqtt_tiny.c ****     osal_semp_t             signal;    ///< when done the command, please light this signal
 196:/home/xingli/share/1205tiny/oc/oc_mqtt/oc_mqtt_tiny_v5/oc_mqtt_tiny.c ****     int                     retcode;   ///< this is the operation code for the command
 197:/home/xingli/share/1205tiny/oc/oc_mqtt/oc_mqtt_tiny_v5/oc_mqtt_tiny.c **** }oc_mqtt_daemon_cmd_t;                 ///< use this to do the command for the api
 198:/home/xingli/share/1205tiny/oc/oc_mqtt/oc_mqtt_tiny_v5/oc_mqtt_tiny.c **** 
 199:/home/xingli/share/1205tiny/oc/oc_mqtt/oc_mqtt_tiny_v5/oc_mqtt_tiny.c **** 
 200:/home/xingli/share/1205tiny/oc/oc_mqtt/oc_mqtt_tiny_v5/oc_mqtt_tiny.c **** ///< here we implement the hub and bootstrap server command dealer
 201:/home/xingli/share/1205tiny/oc/oc_mqtt/oc_mqtt_tiny_v5/oc_mqtt_tiny.c **** ///< the bs not debug yet
 202:/home/xingli/share/1205tiny/oc/oc_mqtt/oc_mqtt_tiny_v5/oc_mqtt_tiny.c **** static void hub_msg_default_deal(void *arg,mqtt_al_msgrcv_t  *msg)
 203:/home/xingli/share/1205tiny/oc/oc_mqtt/oc_mqtt_tiny_v5/oc_mqtt_tiny.c **** {
  67              		.loc 1 203 1
  68              		.cfi_startproc
  69 0000 F30F1EFA 		endbr64
  70 0004 55       		pushq	%rbp
  71              	.LCFI0:
  72              		.cfi_def_cfa_offset 16
  73              		.cfi_offset 6, -16
  74 0005 4889E5   		movq	%rsp, %rbp
  75              	.LCFI1:
  76              		.cfi_def_cfa_register 6
  77 0008 4883EC20 		subq	$32, %rsp
  78 000c 48897DE8 		movq	%rdi, -24(%rbp)
  79 0010 488975E0 		movq	%rsi, -32(%rbp)
  80              		.loc 1 203 1
  81 0014 64488B04 		movq	%fs:40, %rax
  81      25280000 
  81      00
  82 001d 488945F8 		movq	%rax, -8(%rbp)
  83 0021 31C0     		xorl	%eax, %eax
 204:/home/xingli/share/1205tiny/oc/oc_mqtt/oc_mqtt_tiny_v5/oc_mqtt_tiny.c ****     ///< we pass this message to the client, and let the client to deal with
 205:/home/xingli/share/1205tiny/oc/oc_mqtt/oc_mqtt_tiny_v5/oc_mqtt_tiny.c ****     if ((msg != NULL) && ( msg->msg.data != NULL) &&(msg->msg.len > 0 ) \
  84              		.loc 1 205 8
  85 0023 48837DE0 		cmpq	$0, -32(%rbp)
  85      00
  86 0028 7454     		je	.L5
  87              		.loc 1 205 36 discriminator 1
  88 002a 488B45E0 		movq	-32(%rbp), %rax
  89 002e 488B4010 		movq	16(%rax), %rax
  90              		.loc 1 205 23 discriminator 1
GAS LISTING /tmp/cc7S055g.s 			page 8


  91 0032 4885C0   		testq	%rax, %rax
  92 0035 7447     		je	.L5
  93              		.loc 1 205 62 discriminator 2
  94 0037 488B45E0 		movq	-32(%rbp), %rax
  95 003b 8B4018   		movl	24(%rax), %eax
  96              		.loc 1 205 51 discriminator 2
  97 003e 85C0     		testl	%eax, %eax
  98 0040 7E3C     		jle	.L5
 206:/home/xingli/share/1205tiny/oc/oc_mqtt/oc_mqtt_tiny_v5/oc_mqtt_tiny.c ****         &&(NULL != s_oc_mqtt_tiny_cb->config.msg_deal))
  99              		.loc 1 206 37
 100 0042 488B0500 		movq	s_oc_mqtt_tiny_cb(%rip), %rax
 100      000000
 101              		.loc 1 206 45
 102 0049 488B8080 		movq	128(%rax), %rax
 102      000000
 103              		.loc 1 206 9
 104 0050 4885C0   		testq	%rax, %rax
 105 0053 7429     		je	.L5
 207:/home/xingli/share/1205tiny/oc/oc_mqtt/oc_mqtt_tiny_v5/oc_mqtt_tiny.c ****     {
 208:/home/xingli/share/1205tiny/oc/oc_mqtt/oc_mqtt_tiny_v5/oc_mqtt_tiny.c ****         s_oc_mqtt_tiny_cb->config.msg_deal(s_oc_mqtt_tiny_cb->config.msg_deal_arg,msg);
 106              		.loc 1 208 26
 107 0055 488B0500 		movq	s_oc_mqtt_tiny_cb(%rip), %rax
 107      000000
 108              		.loc 1 208 34
 109 005c 488B8880 		movq	128(%rax), %rcx
 109      000000
 110              		.loc 1 208 61
 111 0063 488B0500 		movq	s_oc_mqtt_tiny_cb(%rip), %rax
 111      000000
 112              		.loc 1 208 9
 113 006a 488B8088 		movq	136(%rax), %rax
 113      000000
 114 0071 488B55E0 		movq	-32(%rbp), %rdx
 115 0075 4889D6   		movq	%rdx, %rsi
 116 0078 4889C7   		movq	%rax, %rdi
 117 007b FFD1     		call	*%rcx
 118              	.LVL0:
 209:/home/xingli/share/1205tiny/oc/oc_mqtt/oc_mqtt_tiny_v5/oc_mqtt_tiny.c ****     }
 210:/home/xingli/share/1205tiny/oc/oc_mqtt/oc_mqtt_tiny_v5/oc_mqtt_tiny.c ****     return;
 119              		.loc 1 210 5
 120 007d 90       		nop
 121              	.L5:
 122 007e 90       		nop
 211:/home/xingli/share/1205tiny/oc/oc_mqtt/oc_mqtt_tiny_v5/oc_mqtt_tiny.c **** }
 123              		.loc 1 211 1
 124 007f 488B45F8 		movq	-8(%rbp), %rax
 125 0083 64483304 		xorq	%fs:40, %rax
 125      25280000 
 125      00
 126 008c 7405     		je	.L4
 127 008e E8000000 		call	__stack_chk_fail@PLT
 127      00
 128              	.L4:
 129 0093 C9       		leave
 130              	.LCFI2:
 131              		.cfi_def_cfa 7, 8
 132 0094 C3       		ret
GAS LISTING /tmp/cc7S055g.s 			page 9


 133              		.cfi_endproc
 134              	.LFE6:
 136              		.section	.rodata
 137 00c7 00       		.align 8
 138              	.LC5:
 139 00c8 5B25735D 		.string	"[%s][%u][%s] bs topic:%s qos:%d\r\n"
 139      5B25755D 
 139      5B25735D 
 139      20627320 
 139      746F7069 
 140              	.LC6:
 141 00ea 5B25735D 		.string	"[%s][%u][%s] msg:%s\r\n"
 141      5B25755D 
 141      5B25735D 
 141      206D7367 
 141      3A25730D 
 142              	.LC7:
 143 0100 61646472 		.string	"address"
 143      65737300 
 144              	.LC8:
 145 0108 5B25735D 		.string	"[%s][%u][%s] address:%s\r\n"
 145      5B25755D 
 145      5B25735D 
 145      20616464 
 145      72657373 
 146              		.section	.text.bs_msg_default_deal,"ax",@progbits
 148              	bs_msg_default_deal:
 149              	.LFB7:
 212:/home/xingli/share/1205tiny/oc/oc_mqtt/oc_mqtt_tiny_v5/oc_mqtt_tiny.c **** 
 213:/home/xingli/share/1205tiny/oc/oc_mqtt/oc_mqtt_tiny_v5/oc_mqtt_tiny.c **** ///< deal the bootstrap server messages
 214:/home/xingli/share/1205tiny/oc/oc_mqtt/oc_mqtt_tiny_v5/oc_mqtt_tiny.c **** static void bs_msg_default_deal(void *arg,mqtt_al_msgrcv_t *msg)
 215:/home/xingli/share/1205tiny/oc/oc_mqtt/oc_mqtt_tiny_v5/oc_mqtt_tiny.c **** {
 150              		.loc 1 215 1
 151              		.cfi_startproc
 152 0000 F30F1EFA 		endbr64
 153 0004 55       		pushq	%rbp
 154              	.LCFI3:
 155              		.cfi_def_cfa_offset 16
 156              		.cfi_offset 6, -16
 157 0005 4889E5   		movq	%rsp, %rbp
 158              	.LCFI4:
 159              		.cfi_def_cfa_register 6
 160 0008 4155     		pushq	%r13
 161 000a 4154     		pushq	%r12
 162 000c 53       		pushq	%rbx
 163 000d 4883EC48 		subq	$72, %rsp
 164              		.cfi_offset 13, -24
 165              		.cfi_offset 12, -32
 166              		.cfi_offset 3, -40
 167 0011 48897DA8 		movq	%rdi, -88(%rbp)
 168 0015 488975A0 		movq	%rsi, -96(%rbp)
 169              		.loc 1 215 1
 170 0019 64488B04 		movq	%fs:40, %rax
 170      25280000 
 170      00
 171 0022 488945D8 		movq	%rax, -40(%rbp)
 172 0026 31C0     		xorl	%eax, %eax
GAS LISTING /tmp/cc7S055g.s 			page 10


 216:/home/xingli/share/1205tiny/oc/oc_mqtt/oc_mqtt_tiny_v5/oc_mqtt_tiny.c ****    cJSON  *root = NULL;
 173              		.loc 1 216 12
 174 0028 48C745B0 		movq	$0, -80(%rbp)
 174      00000000 
 217:/home/xingli/share/1205tiny/oc/oc_mqtt/oc_mqtt_tiny_v5/oc_mqtt_tiny.c ****    cJSON  *addr_item = NULL;
 175              		.loc 1 217 12
 176 0030 48C745B8 		movq	$0, -72(%rbp)
 176      00000000 
 218:/home/xingli/share/1205tiny/oc/oc_mqtt/oc_mqtt_tiny_v5/oc_mqtt_tiny.c ****    char   *port = NULL;
 177              		.loc 1 218 12
 178 0038 48C745C0 		movq	$0, -64(%rbp)
 178      00000000 
 219:/home/xingli/share/1205tiny/oc/oc_mqtt/oc_mqtt_tiny_v5/oc_mqtt_tiny.c ****    char   *server = NULL;
 179              		.loc 1 219 12
 180 0040 48C745C8 		movq	$0, -56(%rbp)
 180      00000000 
 220:/home/xingli/share/1205tiny/oc/oc_mqtt/oc_mqtt_tiny_v5/oc_mqtt_tiny.c **** 
 221:/home/xingli/share/1205tiny/oc/oc_mqtt/oc_mqtt_tiny_v5/oc_mqtt_tiny.c ****    char   *json_buf;
 222:/home/xingli/share/1205tiny/oc/oc_mqtt/oc_mqtt_tiny_v5/oc_mqtt_tiny.c **** 
 223:/home/xingli/share/1205tiny/oc/oc_mqtt/oc_mqtt_tiny_v5/oc_mqtt_tiny.c ****    LINK_LOG_DEBUG("bs topic:%s qos:%d",msg->topic.data,(int)msg->qos);
 181              		.loc 1 223 4
 182 0048 E8000000 		call	link_log_level_get@PLT
 182      00
 183 004d 83F801   		cmpl	$1, %eax
 184 0050 7756     		ja	.L7
 185              		.loc 1 223 4 is_stmt 0 discriminator 1
 186 0052 488B45A0 		movq	-96(%rbp), %rax
 187 0056 8B4020   		movl	32(%rax), %eax
 188 0059 4189C5   		movl	%eax, %r13d
 189 005c 488B45A0 		movq	-96(%rbp), %rax
 190 0060 488B18   		movq	(%rax), %rbx
 191 0063 E8000000 		call	osal_sys_time@PLT
 191      00
 192 0068 4189C4   		movl	%eax, %r12d
 193 006b BF010000 		movl	$1, %edi
 193      00
 194 0070 E8000000 		call	link_log_level_name@PLT
 194      00
 195 0075 4589E9   		movl	%r13d, %r9d
 196 0078 4989D8   		movq	%rbx, %r8
 197 007b 488D0D00 		leaq	__FUNCTION__.3959(%rip), %rcx
 197      000000
 198 0082 4489E2   		movl	%r12d, %edx
 199 0085 4889C6   		movq	%rax, %rsi
 200 0088 488D3D00 		leaq	.LC5(%rip), %rdi
 200      000000
 201 008f B8000000 		movl	$0, %eax
 201      00
 202 0094 E8000000 		call	printf@PLT
 202      00
 203 0099 488B0500 		movq	stdout(%rip), %rax
 203      000000
 204 00a0 4889C7   		movq	%rax, %rdi
 205 00a3 E8000000 		call	fflush@PLT
 205      00
 206              	.L7:
 224:/home/xingli/share/1205tiny/oc/oc_mqtt/oc_mqtt_tiny_v5/oc_mqtt_tiny.c **** 
GAS LISTING /tmp/cc7S055g.s 			page 11


 225:/home/xingli/share/1205tiny/oc/oc_mqtt/oc_mqtt_tiny_v5/oc_mqtt_tiny.c ****    json_buf = osal_malloc(msg->msg.len + 1);
 207              		.loc 1 225 35 is_stmt 1
 208 00a8 488B45A0 		movq	-96(%rbp), %rax
 209 00ac 8B4018   		movl	24(%rax), %eax
 210              		.loc 1 225 40
 211 00af 83C001   		addl	$1, %eax
 212              		.loc 1 225 15
 213 00b2 4898     		cltq
 214 00b4 4889C7   		movq	%rax, %rdi
 215 00b7 E8000000 		call	osal_malloc@PLT
 215      00
 216 00bc 488945D0 		movq	%rax, -48(%rbp)
 226:/home/xingli/share/1205tiny/oc/oc_mqtt/oc_mqtt_tiny_v5/oc_mqtt_tiny.c ****    if(NULL == json_buf)
 217              		.loc 1 226 6
 218 00c0 48837DD0 		cmpq	$0, -48(%rbp)
 218      00
 219 00c5 0F846102 		je	.L16
 219      0000
 227:/home/xingli/share/1205tiny/oc/oc_mqtt/oc_mqtt_tiny_v5/oc_mqtt_tiny.c ****    {
 228:/home/xingli/share/1205tiny/oc/oc_mqtt/oc_mqtt_tiny_v5/oc_mqtt_tiny.c ****        return;
 229:/home/xingli/share/1205tiny/oc/oc_mqtt/oc_mqtt_tiny_v5/oc_mqtt_tiny.c ****    }
 230:/home/xingli/share/1205tiny/oc/oc_mqtt/oc_mqtt_tiny_v5/oc_mqtt_tiny.c **** 
 231:/home/xingli/share/1205tiny/oc/oc_mqtt/oc_mqtt_tiny_v5/oc_mqtt_tiny.c ****    (void) memcpy(json_buf,msg->msg.data,msg->msg.len);
 220              		.loc 1 231 49
 221 00cb 488B45A0 		movq	-96(%rbp), %rax
 222 00cf 8B4018   		movl	24(%rax), %eax
 223              		.loc 1 231 11
 224 00d2 4863D0   		movslq	%eax, %rdx
 225              		.loc 1 231 35
 226 00d5 488B45A0 		movq	-96(%rbp), %rax
 227 00d9 488B4810 		movq	16(%rax), %rcx
 228              		.loc 1 231 11
 229 00dd 488B45D0 		movq	-48(%rbp), %rax
 230 00e1 4889CE   		movq	%rcx, %rsi
 231 00e4 4889C7   		movq	%rax, %rdi
 232 00e7 E8000000 		call	memcpy@PLT
 232      00
 232:/home/xingli/share/1205tiny/oc/oc_mqtt/oc_mqtt_tiny_v5/oc_mqtt_tiny.c ****    json_buf[msg->msg.len] = '\0';
 233              		.loc 1 232 21
 234 00ec 488B45A0 		movq	-96(%rbp), %rax
 235 00f0 8B4018   		movl	24(%rax), %eax
 236 00f3 4863D0   		movslq	%eax, %rdx
 237              		.loc 1 232 12
 238 00f6 488B45D0 		movq	-48(%rbp), %rax
 239 00fa 4801D0   		addq	%rdx, %rax
 240              		.loc 1 232 27
 241 00fd C60000   		movb	$0, (%rax)
 233:/home/xingli/share/1205tiny/oc/oc_mqtt/oc_mqtt_tiny_v5/oc_mqtt_tiny.c **** 
 234:/home/xingli/share/1205tiny/oc/oc_mqtt/oc_mqtt_tiny_v5/oc_mqtt_tiny.c ****    LINK_LOG_DEBUG("msg:%s",json_buf);
 242              		.loc 1 234 4
 243 0100 E8000000 		call	link_log_level_get@PLT
 243      00
 244 0105 83F801   		cmpl	$1, %eax
 245 0108 7744     		ja	.L10
 246              		.loc 1 234 4 is_stmt 0 discriminator 1
 247 010a E8000000 		call	osal_sys_time@PLT
 247      00
GAS LISTING /tmp/cc7S055g.s 			page 12


 248 010f 89C3     		movl	%eax, %ebx
 249 0111 BF010000 		movl	$1, %edi
 249      00
 250 0116 E8000000 		call	link_log_level_name@PLT
 250      00
 251 011b 488B55D0 		movq	-48(%rbp), %rdx
 252 011f 4989D0   		movq	%rdx, %r8
 253 0122 488D0D00 		leaq	__FUNCTION__.3959(%rip), %rcx
 253      000000
 254 0129 89DA     		movl	%ebx, %edx
 255 012b 4889C6   		movq	%rax, %rsi
 256 012e 488D3D00 		leaq	.LC6(%rip), %rdi
 256      000000
 257 0135 B8000000 		movl	$0, %eax
 257      00
 258 013a E8000000 		call	printf@PLT
 258      00
 259 013f 488B0500 		movq	stdout(%rip), %rax
 259      000000
 260 0146 4889C7   		movq	%rax, %rdi
 261 0149 E8000000 		call	fflush@PLT
 261      00
 262              	.L10:
 235:/home/xingli/share/1205tiny/oc/oc_mqtt/oc_mqtt_tiny_v5/oc_mqtt_tiny.c ****    root = cJSON_Parse(json_buf);
 263              		.loc 1 235 11 is_stmt 1
 264 014e 488B45D0 		movq	-48(%rbp), %rax
 265 0152 4889C7   		movq	%rax, %rdi
 266 0155 E8000000 		call	cJSON_Parse@PLT
 266      00
 267 015a 488945B0 		movq	%rax, -80(%rbp)
 236:/home/xingli/share/1205tiny/oc/oc_mqtt/oc_mqtt_tiny_v5/oc_mqtt_tiny.c ****    if(NULL != root)
 268              		.loc 1 236 6
 269 015e 48837DB0 		cmpq	$0, -80(%rbp)
 269      00
 270 0163 0F845B01 		je	.L11
 270      0000
 237:/home/xingli/share/1205tiny/oc/oc_mqtt/oc_mqtt_tiny_v5/oc_mqtt_tiny.c ****    {
 238:/home/xingli/share/1205tiny/oc/oc_mqtt/oc_mqtt_tiny_v5/oc_mqtt_tiny.c ****        addr_item = cJSON_GetObjectItem(root,"address");
 271              		.loc 1 238 20
 272 0169 488B45B0 		movq	-80(%rbp), %rax
 273 016d 488D3500 		leaq	.LC7(%rip), %rsi
 273      000000
 274 0174 4889C7   		movq	%rax, %rdi
 275 0177 E8000000 		call	cJSON_GetObjectItem@PLT
 275      00
 276 017c 488945B8 		movq	%rax, -72(%rbp)
 239:/home/xingli/share/1205tiny/oc/oc_mqtt/oc_mqtt_tiny_v5/oc_mqtt_tiny.c ****        if(NULL != addr_item)
 277              		.loc 1 239 10
 278 0180 48837DB8 		cmpq	$0, -72(%rbp)
 278      00
 279 0185 0F842D01 		je	.L12
 279      0000
 240:/home/xingli/share/1205tiny/oc/oc_mqtt/oc_mqtt_tiny_v5/oc_mqtt_tiny.c ****        {
 241:/home/xingli/share/1205tiny/oc/oc_mqtt/oc_mqtt_tiny_v5/oc_mqtt_tiny.c ****            LINK_LOG_DEBUG("address:%s", addr_item->valuestring);
 280              		.loc 1 241 12
 281 018b E8000000 		call	link_log_level_get@PLT
 281      00
GAS LISTING /tmp/cc7S055g.s 			page 13


 282 0190 83F801   		cmpl	$1, %eax
 283 0193 774A     		ja	.L13
 284              		.loc 1 241 12 is_stmt 0 discriminator 1
 285 0195 488B45B8 		movq	-72(%rbp), %rax
 286 0199 488B5820 		movq	32(%rax), %rbx
 287 019d E8000000 		call	osal_sys_time@PLT
 287      00
 288 01a2 4189C4   		movl	%eax, %r12d
 289 01a5 BF010000 		movl	$1, %edi
 289      00
 290 01aa E8000000 		call	link_log_level_name@PLT
 290      00
 291 01af 4989D8   		movq	%rbx, %r8
 292 01b2 488D0D00 		leaq	__FUNCTION__.3959(%rip), %rcx
 292      000000
 293 01b9 4489E2   		movl	%r12d, %edx
 294 01bc 4889C6   		movq	%rax, %rsi
 295 01bf 488D3D00 		leaq	.LC8(%rip), %rdi
 295      000000
 296 01c6 B8000000 		movl	$0, %eax
 296      00
 297 01cb E8000000 		call	printf@PLT
 297      00
 298 01d0 488B0500 		movq	stdout(%rip), %rax
 298      000000
 299 01d7 4889C7   		movq	%rax, %rdi
 300 01da E8000000 		call	fflush@PLT
 300      00
 301              	.L13:
 242:/home/xingli/share/1205tiny/oc/oc_mqtt/oc_mqtt_tiny_v5/oc_mqtt_tiny.c ****            port = strrchr(addr_item->valuestring, ':');
 302              		.loc 1 242 36 is_stmt 1
 303 01df 488B45B8 		movq	-72(%rbp), %rax
 304 01e3 488B4020 		movq	32(%rax), %rax
 305              		.loc 1 242 19
 306 01e7 BE3A0000 		movl	$58, %esi
 306      00
 307 01ec 4889C7   		movq	%rax, %rdi
 308 01ef E8000000 		call	strrchr@PLT
 308      00
 309 01f4 488945C0 		movq	%rax, -64(%rbp)
 243:/home/xingli/share/1205tiny/oc/oc_mqtt/oc_mqtt_tiny_v5/oc_mqtt_tiny.c ****            if(NULL != port)
 310              		.loc 1 243 14
 311 01f8 48837DC0 		cmpq	$0, -64(%rbp)
 311      00
 312 01fd 0F84B500 		je	.L12
 312      0000
 244:/home/xingli/share/1205tiny/oc/oc_mqtt/oc_mqtt_tiny_v5/oc_mqtt_tiny.c ****            {
 245:/home/xingli/share/1205tiny/oc/oc_mqtt/oc_mqtt_tiny_v5/oc_mqtt_tiny.c ****                server = addr_item->valuestring;
 313              		.loc 1 245 23
 314 0203 488B45B8 		movq	-72(%rbp), %rax
 315 0207 488B4020 		movq	32(%rax), %rax
 316 020b 488945C8 		movq	%rax, -56(%rbp)
 246:/home/xingli/share/1205tiny/oc/oc_mqtt/oc_mqtt_tiny_v5/oc_mqtt_tiny.c ****                *port = '\0';
 317              		.loc 1 246 22
 318 020f 488B45C0 		movq	-64(%rbp), %rax
 319 0213 C60000   		movb	$0, (%rax)
 247:/home/xingli/share/1205tiny/oc/oc_mqtt/oc_mqtt_tiny_v5/oc_mqtt_tiny.c ****                port++;
GAS LISTING /tmp/cc7S055g.s 			page 14


 320              		.loc 1 247 20
 321 0216 488345C0 		addq	$1, -64(%rbp)
 321      01
 248:/home/xingli/share/1205tiny/oc/oc_mqtt/oc_mqtt_tiny_v5/oc_mqtt_tiny.c ****                osal_free(s_oc_mqtt_tiny_cb->bs_cb.hubserver_addr);
 322              		.loc 1 248 43
 323 021b 488B0500 		movq	s_oc_mqtt_tiny_cb(%rip), %rax
 323      000000
 324              		.loc 1 248 50
 325 0222 488B80E8 		movq	232(%rax), %rax
 325      000000
 326              		.loc 1 248 16
 327 0229 4889C7   		movq	%rax, %rdi
 328 022c E8000000 		call	osal_free@PLT
 328      00
 249:/home/xingli/share/1205tiny/oc/oc_mqtt/oc_mqtt_tiny_v5/oc_mqtt_tiny.c ****                osal_free(s_oc_mqtt_tiny_cb->bs_cb.hubserver_port);
 329              		.loc 1 249 43
 330 0231 488B0500 		movq	s_oc_mqtt_tiny_cb(%rip), %rax
 330      000000
 331              		.loc 1 249 50
 332 0238 488B80F0 		movq	240(%rax), %rax
 332      000000
 333              		.loc 1 249 16
 334 023f 4889C7   		movq	%rax, %rdi
 335 0242 E8000000 		call	osal_free@PLT
 335      00
 250:/home/xingli/share/1205tiny/oc/oc_mqtt/oc_mqtt_tiny_v5/oc_mqtt_tiny.c **** 
 251:/home/xingli/share/1205tiny/oc/oc_mqtt/oc_mqtt_tiny_v5/oc_mqtt_tiny.c ****                s_oc_mqtt_tiny_cb->bs_cb.hubserver_addr = osal_strdup(server);
 336              		.loc 1 251 33
 337 0247 488B1D00 		movq	s_oc_mqtt_tiny_cb(%rip), %rbx
 337      000000
 338              		.loc 1 251 58
 339 024e 488B45C8 		movq	-56(%rbp), %rax
 340 0252 4889C7   		movq	%rax, %rdi
 341 0255 E8000000 		call	osal_strdup@PLT
 341      00
 342              		.loc 1 251 56
 343 025a 488983E8 		movq	%rax, 232(%rbx)
 343      000000
 252:/home/xingli/share/1205tiny/oc/oc_mqtt/oc_mqtt_tiny_v5/oc_mqtt_tiny.c ****                s_oc_mqtt_tiny_cb->bs_cb.hubserver_port = osal_strdup(port);
 344              		.loc 1 252 33
 345 0261 488B1D00 		movq	s_oc_mqtt_tiny_cb(%rip), %rbx
 345      000000
 346              		.loc 1 252 58
 347 0268 488B45C0 		movq	-64(%rbp), %rax
 348 026c 4889C7   		movq	%rax, %rdi
 349 026f E8000000 		call	osal_strdup@PLT
 349      00
 350              		.loc 1 252 56
 351 0274 488983F0 		movq	%rax, 240(%rbx)
 351      000000
 253:/home/xingli/share/1205tiny/oc/oc_mqtt/oc_mqtt_tiny_v5/oc_mqtt_tiny.c **** 
 254:/home/xingli/share/1205tiny/oc/oc_mqtt/oc_mqtt_tiny_v5/oc_mqtt_tiny.c ****                if((NULL != s_oc_mqtt_tiny_cb->bs_cb.hubserver_addr) && \
 352              		.loc 1 254 45
 353 027b 488B0500 		movq	s_oc_mqtt_tiny_cb(%rip), %rax
 353      000000
 354              		.loc 1 254 52
 355 0282 488B80E8 		movq	232(%rax), %rax
GAS LISTING /tmp/cc7S055g.s 			page 15


 355      000000
 356              		.loc 1 254 18
 357 0289 4885C0   		testq	%rax, %rax
 358 028c 742A     		je	.L12
 255:/home/xingli/share/1205tiny/oc/oc_mqtt/oc_mqtt_tiny_v5/oc_mqtt_tiny.c ****                        (NULL != s_oc_mqtt_tiny_cb->bs_cb.hubserver_port))
 359              		.loc 1 255 50 discriminator 1
 360 028e 488B0500 		movq	s_oc_mqtt_tiny_cb(%rip), %rax
 360      000000
 361              		.loc 1 255 57 discriminator 1
 362 0295 488B80F0 		movq	240(%rax), %rax
 362      000000
 254:/home/xingli/share/1205tiny/oc/oc_mqtt/oc_mqtt_tiny_v5/oc_mqtt_tiny.c ****                        (NULL != s_oc_mqtt_tiny_cb->bs_cb.hubserver_port))
 363              		.loc 1 254 69 discriminator 1
 364 029c 4885C0   		testq	%rax, %rax
 365 029f 7417     		je	.L12
 256:/home/xingli/share/1205tiny/oc/oc_mqtt/oc_mqtt_tiny_v5/oc_mqtt_tiny.c ****                {
 257:/home/xingli/share/1205tiny/oc/oc_mqtt/oc_mqtt_tiny_v5/oc_mqtt_tiny.c ****                    s_oc_mqtt_tiny_cb->flag.bits.bit_get_hubaddr =1;
 366              		.loc 1 257 37
 367 02a1 488B0500 		movq	s_oc_mqtt_tiny_cb(%rip), %rax
 367      000000
 368              		.loc 1 257 65
 369 02a8 0FB690E0 		movzbl	224(%rax), %edx
 369      000000
 370 02af 83CA10   		orl	$16, %edx
 371 02b2 8890E000 		movb	%dl, 224(%rax)
 371      0000
 372              	.L12:
 258:/home/xingli/share/1205tiny/oc/oc_mqtt/oc_mqtt_tiny_v5/oc_mqtt_tiny.c ****                }
 259:/home/xingli/share/1205tiny/oc/oc_mqtt/oc_mqtt_tiny_v5/oc_mqtt_tiny.c **** 
 260:/home/xingli/share/1205tiny/oc/oc_mqtt/oc_mqtt_tiny_v5/oc_mqtt_tiny.c ****            }
 261:/home/xingli/share/1205tiny/oc/oc_mqtt/oc_mqtt_tiny_v5/oc_mqtt_tiny.c ****        }
 262:/home/xingli/share/1205tiny/oc/oc_mqtt/oc_mqtt_tiny_v5/oc_mqtt_tiny.c ****        cJSON_Delete(root);
 373              		.loc 1 262 8
 374 02b8 488B45B0 		movq	-80(%rbp), %rax
 375 02bc 4889C7   		movq	%rax, %rdi
 376 02bf E8000000 		call	cJSON_Delete@PLT
 376      00
 377              	.L11:
 263:/home/xingli/share/1205tiny/oc/oc_mqtt/oc_mqtt_tiny_v5/oc_mqtt_tiny.c ****    }
 264:/home/xingli/share/1205tiny/oc/oc_mqtt/oc_mqtt_tiny_v5/oc_mqtt_tiny.c ****    osal_free(json_buf);
 378              		.loc 1 264 4
 379 02c4 488B45D0 		movq	-48(%rbp), %rax
 380 02c8 4889C7   		movq	%rax, %rdi
 381 02cb E8000000 		call	osal_free@PLT
 381      00
 265:/home/xingli/share/1205tiny/oc/oc_mqtt/oc_mqtt_tiny_v5/oc_mqtt_tiny.c ****    ///<any way, we still pass this message to the client and let the client known this message
 266:/home/xingli/share/1205tiny/oc/oc_mqtt/oc_mqtt_tiny_v5/oc_mqtt_tiny.c ****    if ((msg != NULL) && ( msg->msg.data != NULL) &&(msg->msg.len > 0 ) \
 382              		.loc 1 266 7
 383 02d0 48837DA0 		cmpq	$0, -96(%rbp)
 383      00
 384 02d5 7458     		je	.L17
 385              		.loc 1 266 35 discriminator 1
 386 02d7 488B45A0 		movq	-96(%rbp), %rax
 387 02db 488B4010 		movq	16(%rax), %rax
 388              		.loc 1 266 22 discriminator 1
 389 02df 4885C0   		testq	%rax, %rax
 390 02e2 744B     		je	.L17
GAS LISTING /tmp/cc7S055g.s 			page 16


 391              		.loc 1 266 61 discriminator 2
 392 02e4 488B45A0 		movq	-96(%rbp), %rax
 393 02e8 8B4018   		movl	24(%rax), %eax
 394              		.loc 1 266 50 discriminator 2
 395 02eb 85C0     		testl	%eax, %eax
 396 02ed 7E40     		jle	.L17
 267:/home/xingli/share/1205tiny/oc/oc_mqtt/oc_mqtt_tiny_v5/oc_mqtt_tiny.c ****        &&(NULL != s_oc_mqtt_tiny_cb->config.msg_deal))
 397              		.loc 1 267 36
 398 02ef 488B0500 		movq	s_oc_mqtt_tiny_cb(%rip), %rax
 398      000000
 399              		.loc 1 267 44
 400 02f6 488B8080 		movq	128(%rax), %rax
 400      000000
 401              		.loc 1 267 8
 402 02fd 4885C0   		testq	%rax, %rax
 403 0300 742D     		je	.L17
 268:/home/xingli/share/1205tiny/oc/oc_mqtt/oc_mqtt_tiny_v5/oc_mqtt_tiny.c ****    {
 269:/home/xingli/share/1205tiny/oc/oc_mqtt/oc_mqtt_tiny_v5/oc_mqtt_tiny.c ****        s_oc_mqtt_tiny_cb->config.msg_deal(s_oc_mqtt_tiny_cb->config.msg_deal_arg,msg);
 404              		.loc 1 269 25
 405 0302 488B0500 		movq	s_oc_mqtt_tiny_cb(%rip), %rax
 405      000000
 406              		.loc 1 269 33
 407 0309 488B8880 		movq	128(%rax), %rcx
 407      000000
 408              		.loc 1 269 60
 409 0310 488B0500 		movq	s_oc_mqtt_tiny_cb(%rip), %rax
 409      000000
 410              		.loc 1 269 8
 411 0317 488B8088 		movq	136(%rax), %rax
 411      000000
 412 031e 488B55A0 		movq	-96(%rbp), %rdx
 413 0322 4889D6   		movq	%rdx, %rsi
 414 0325 4889C7   		movq	%rax, %rdi
 415 0328 FFD1     		call	*%rcx
 416              	.LVL1:
 270:/home/xingli/share/1205tiny/oc/oc_mqtt/oc_mqtt_tiny_v5/oc_mqtt_tiny.c ****    }
 271:/home/xingli/share/1205tiny/oc/oc_mqtt/oc_mqtt_tiny_v5/oc_mqtt_tiny.c ****    return;
 417              		.loc 1 271 4
 418 032a EB03     		jmp	.L17
 419              	.L16:
 228:/home/xingli/share/1205tiny/oc/oc_mqtt/oc_mqtt_tiny_v5/oc_mqtt_tiny.c ****    }
 420              		.loc 1 228 8
 421 032c 90       		nop
 422 032d EB01     		jmp	.L6
 423              	.L17:
 424              		.loc 1 271 4
 425 032f 90       		nop
 426              	.L6:
 272:/home/xingli/share/1205tiny/oc/oc_mqtt/oc_mqtt_tiny_v5/oc_mqtt_tiny.c **** }
 427              		.loc 1 272 1
 428 0330 488B45D8 		movq	-40(%rbp), %rax
 429 0334 64483304 		xorq	%fs:40, %rax
 429      25280000 
 429      00
 430 033d 7405     		je	.L15
 431 033f E8000000 		call	__stack_chk_fail@PLT
 431      00
GAS LISTING /tmp/cc7S055g.s 			page 17


 432              	.L15:
 433 0344 4883C448 		addq	$72, %rsp
 434 0348 5B       		popq	%rbx
 435 0349 415C     		popq	%r12
 436 034b 415D     		popq	%r13
 437 034d 5D       		popq	%rbp
 438              	.LCFI5:
 439              		.cfi_def_cfa 7, 8
 440 034e C3       		ret
 441              		.cfi_endproc
 442              	.LFE7:
 444              		.section	.text.topic_fmt,"ax",@progbits
 446              	topic_fmt:
 447              	.LFB8:
 273:/home/xingli/share/1205tiny/oc/oc_mqtt/oc_mqtt_tiny_v5/oc_mqtt_tiny.c **** 
 274:/home/xingli/share/1205tiny/oc/oc_mqtt/oc_mqtt_tiny_v5/oc_mqtt_tiny.c **** static char *topic_fmt(const char *fmt, const char *id)
 275:/home/xingli/share/1205tiny/oc/oc_mqtt/oc_mqtt_tiny_v5/oc_mqtt_tiny.c **** {
 448              		.loc 1 275 1
 449              		.cfi_startproc
 450 0000 F30F1EFA 		endbr64
 451 0004 55       		pushq	%rbp
 452              	.LCFI6:
 453              		.cfi_def_cfa_offset 16
 454              		.cfi_offset 6, -16
 455 0005 4889E5   		movq	%rsp, %rbp
 456              	.LCFI7:
 457              		.cfi_def_cfa_register 6
 458 0008 53       		pushq	%rbx
 459 0009 4883EC38 		subq	$56, %rsp
 460              		.cfi_offset 3, -24
 461 000d 48897DC8 		movq	%rdi, -56(%rbp)
 462 0011 488975C0 		movq	%rsi, -64(%rbp)
 463              		.loc 1 275 1
 464 0015 64488B04 		movq	%fs:40, %rax
 464      25280000 
 464      00
 465 001e 488945E8 		movq	%rax, -24(%rbp)
 466 0022 31C0     		xorl	%eax, %eax
 276:/home/xingli/share/1205tiny/oc/oc_mqtt/oc_mqtt_tiny_v5/oc_mqtt_tiny.c ****     char *ret = NULL;
 467              		.loc 1 276 11
 468 0024 48C745E0 		movq	$0, -32(%rbp)
 468      00000000 
 277:/home/xingli/share/1205tiny/oc/oc_mqtt/oc_mqtt_tiny_v5/oc_mqtt_tiny.c ****     int len =  0;
 469              		.loc 1 277 9
 470 002c C745DC00 		movl	$0, -36(%rbp)
 470      000000
 278:/home/xingli/share/1205tiny/oc/oc_mqtt/oc_mqtt_tiny_v5/oc_mqtt_tiny.c **** 
 279:/home/xingli/share/1205tiny/oc/oc_mqtt/oc_mqtt_tiny_v5/oc_mqtt_tiny.c ****     len = strlen(fmt) + strlen(id) + 1;
 471              		.loc 1 279 11
 472 0033 488B45C8 		movq	-56(%rbp), %rax
 473 0037 4889C7   		movq	%rax, %rdi
 474 003a E8000000 		call	strlen@PLT
 474      00
 475              		.loc 1 279 23
 476 003f 89C3     		movl	%eax, %ebx
 477              		.loc 1 279 25
 478 0041 488B45C0 		movq	-64(%rbp), %rax
GAS LISTING /tmp/cc7S055g.s 			page 18


 479 0045 4889C7   		movq	%rax, %rdi
 480 0048 E8000000 		call	strlen@PLT
 480      00
 481              		.loc 1 279 23
 482 004d 01D8     		addl	%ebx, %eax
 483              		.loc 1 279 36
 484 004f 83C001   		addl	$1, %eax
 485              		.loc 1 279 9
 486 0052 8945DC   		movl	%eax, -36(%rbp)
 280:/home/xingli/share/1205tiny/oc/oc_mqtt/oc_mqtt_tiny_v5/oc_mqtt_tiny.c **** 
 281:/home/xingli/share/1205tiny/oc/oc_mqtt/oc_mqtt_tiny_v5/oc_mqtt_tiny.c ****     ret = osal_malloc(len);
 487              		.loc 1 281 11
 488 0055 8B45DC   		movl	-36(%rbp), %eax
 489 0058 4898     		cltq
 490 005a 4889C7   		movq	%rax, %rdi
 491 005d E8000000 		call	osal_malloc@PLT
 491      00
 492 0062 488945E0 		movq	%rax, -32(%rbp)
 282:/home/xingli/share/1205tiny/oc/oc_mqtt/oc_mqtt_tiny_v5/oc_mqtt_tiny.c ****     if(NULL != ret)
 493              		.loc 1 282 7
 494 0066 48837DE0 		cmpq	$0, -32(%rbp)
 494      00
 495 006b 741F     		je	.L19
 283:/home/xingli/share/1205tiny/oc/oc_mqtt/oc_mqtt_tiny_v5/oc_mqtt_tiny.c ****     {
 284:/home/xingli/share/1205tiny/oc/oc_mqtt/oc_mqtt_tiny_v5/oc_mqtt_tiny.c ****         (void) snprintf(ret,len,fmt,id);
 496              		.loc 1 284 16
 497 006d 8B45DC   		movl	-36(%rbp), %eax
 498 0070 4863F0   		movslq	%eax, %rsi
 499 0073 488B4DC0 		movq	-64(%rbp), %rcx
 500 0077 488B55C8 		movq	-56(%rbp), %rdx
 501 007b 488B45E0 		movq	-32(%rbp), %rax
 502 007f 4889C7   		movq	%rax, %rdi
 503 0082 B8000000 		movl	$0, %eax
 503      00
 504 0087 E8000000 		call	snprintf@PLT
 504      00
 505              	.L19:
 285:/home/xingli/share/1205tiny/oc/oc_mqtt/oc_mqtt_tiny_v5/oc_mqtt_tiny.c ****     }
 286:/home/xingli/share/1205tiny/oc/oc_mqtt/oc_mqtt_tiny_v5/oc_mqtt_tiny.c **** 
 287:/home/xingli/share/1205tiny/oc/oc_mqtt/oc_mqtt_tiny_v5/oc_mqtt_tiny.c ****     return ret;
 506              		.loc 1 287 12
 507 008c 488B45E0 		movq	-32(%rbp), %rax
 288:/home/xingli/share/1205tiny/oc/oc_mqtt/oc_mqtt_tiny_v5/oc_mqtt_tiny.c **** }
 508              		.loc 1 288 1
 509 0090 488B5DE8 		movq	-24(%rbp), %rbx
 510 0094 6448331C 		xorq	%fs:40, %rbx
 510      25280000 
 510      00
 511 009d 7405     		je	.L21
 512 009f E8000000 		call	__stack_chk_fail@PLT
 512      00
 513              	.L21:
 514 00a4 4883C438 		addq	$56, %rsp
 515 00a8 5B       		popq	%rbx
 516 00a9 5D       		popq	%rbp
 517              	.LCFI8:
 518              		.cfi_def_cfa 7, 8
GAS LISTING /tmp/cc7S055g.s 			page 19


 519 00aa C3       		ret
 520              		.cfi_endproc
 521              	.LFE8:
 523              		.section	.rodata
 524              	.LC9:
 525 0122 25735F30 		.string	"%s_0_%s"
 525      5F257300 
 526              	.LC10:
 527 012a 25735F30 		.string	"%s_0_0_%s"
 527      5F305F25 
 527      7300
 528              		.section	.text.clientid_fmt,"ax",@progbits
 530              	clientid_fmt:
 531              	.LFB9:
 289:/home/xingli/share/1205tiny/oc/oc_mqtt/oc_mqtt_tiny_v5/oc_mqtt_tiny.c **** 
 290:/home/xingli/share/1205tiny/oc/oc_mqtt/oc_mqtt_tiny_v5/oc_mqtt_tiny.c **** static char *clientid_fmt(const char *id, const char *salt_time,const char *scopeid, int group_mode
 291:/home/xingli/share/1205tiny/oc/oc_mqtt/oc_mqtt_tiny_v5/oc_mqtt_tiny.c **** {
 532              		.loc 1 291 1
 533              		.cfi_startproc
 534 0000 F30F1EFA 		endbr64
 535 0004 55       		pushq	%rbp
 536              	.LCFI9:
 537              		.cfi_def_cfa_offset 16
 538              		.cfi_offset 6, -16
 539 0005 4889E5   		movq	%rsp, %rbp
 540              	.LCFI10:
 541              		.cfi_def_cfa_register 6
 542 0008 53       		pushq	%rbx
 543 0009 4883EC58 		subq	$88, %rsp
 544              		.cfi_offset 3, -24
 545 000d 48897DB8 		movq	%rdi, -72(%rbp)
 546 0011 488975B0 		movq	%rsi, -80(%rbp)
 547 0015 488955A8 		movq	%rdx, -88(%rbp)
 548 0019 894DA4   		movl	%ecx, -92(%rbp)
 549              		.loc 1 291 1
 550 001c 64488B04 		movq	%fs:40, %rax
 550      25280000 
 550      00
 551 0025 488945E8 		movq	%rax, -24(%rbp)
 552 0029 31C0     		xorl	%eax, %eax
 292:/home/xingli/share/1205tiny/oc/oc_mqtt/oc_mqtt_tiny_v5/oc_mqtt_tiny.c ****     char *ret = NULL;
 553              		.loc 1 292 11
 554 002b 48C745E0 		movq	$0, -32(%rbp)
 554      00000000 
 293:/home/xingli/share/1205tiny/oc/oc_mqtt/oc_mqtt_tiny_v5/oc_mqtt_tiny.c ****     int len =  0;
 555              		.loc 1 293 9
 556 0033 C745CC00 		movl	$0, -52(%rbp)
 556      000000
 294:/home/xingli/share/1205tiny/oc/oc_mqtt/oc_mqtt_tiny_v5/oc_mqtt_tiny.c ****     const char *fmt;
 295:/home/xingli/share/1205tiny/oc/oc_mqtt/oc_mqtt_tiny_v5/oc_mqtt_tiny.c ****     const char *param;
 296:/home/xingli/share/1205tiny/oc/oc_mqtt/oc_mqtt_tiny_v5/oc_mqtt_tiny.c **** 
 297:/home/xingli/share/1205tiny/oc/oc_mqtt/oc_mqtt_tiny_v5/oc_mqtt_tiny.c ****     if(group_mode)
 557              		.loc 1 297 7
 558 003a 837DA400 		cmpl	$0, -92(%rbp)
 559 003e 7415     		je	.L23
 298:/home/xingli/share/1205tiny/oc/oc_mqtt/oc_mqtt_tiny_v5/oc_mqtt_tiny.c ****     {
 299:/home/xingli/share/1205tiny/oc/oc_mqtt/oc_mqtt_tiny_v5/oc_mqtt_tiny.c ****         fmt = CN_CLIENT_ID_FMTGROUP;
GAS LISTING /tmp/cc7S055g.s 			page 20


 560              		.loc 1 299 13
 561 0040 488D0500 		leaq	.LC9(%rip), %rax
 561      000000
 562 0047 488945D0 		movq	%rax, -48(%rbp)
 300:/home/xingli/share/1205tiny/oc/oc_mqtt/oc_mqtt_tiny_v5/oc_mqtt_tiny.c ****         param = scopeid;
 563              		.loc 1 300 15
 564 004b 488B45A8 		movq	-88(%rbp), %rax
 565 004f 488945D8 		movq	%rax, -40(%rbp)
 566 0053 EB13     		jmp	.L24
 567              	.L23:
 301:/home/xingli/share/1205tiny/oc/oc_mqtt/oc_mqtt_tiny_v5/oc_mqtt_tiny.c ****     }
 302:/home/xingli/share/1205tiny/oc/oc_mqtt/oc_mqtt_tiny_v5/oc_mqtt_tiny.c ****     else
 303:/home/xingli/share/1205tiny/oc/oc_mqtt/oc_mqtt_tiny_v5/oc_mqtt_tiny.c ****     {
 304:/home/xingli/share/1205tiny/oc/oc_mqtt/oc_mqtt_tiny_v5/oc_mqtt_tiny.c ****         fmt = CN_CLIENT_ID_FMTNORMAL;
 568              		.loc 1 304 13
 569 0055 488D0500 		leaq	.LC10(%rip), %rax
 569      000000
 570 005c 488945D0 		movq	%rax, -48(%rbp)
 305:/home/xingli/share/1205tiny/oc/oc_mqtt/oc_mqtt_tiny_v5/oc_mqtt_tiny.c ****         param = salt_time;
 571              		.loc 1 305 15
 572 0060 488B45B0 		movq	-80(%rbp), %rax
 573 0064 488945D8 		movq	%rax, -40(%rbp)
 574              	.L24:
 306:/home/xingli/share/1205tiny/oc/oc_mqtt/oc_mqtt_tiny_v5/oc_mqtt_tiny.c ****     }
 307:/home/xingli/share/1205tiny/oc/oc_mqtt/oc_mqtt_tiny_v5/oc_mqtt_tiny.c **** 
 308:/home/xingli/share/1205tiny/oc/oc_mqtt/oc_mqtt_tiny_v5/oc_mqtt_tiny.c ****     len = strlen(fmt) + strlen(id) + strlen(param) + 1;
 575              		.loc 1 308 11
 576 0068 488B45D0 		movq	-48(%rbp), %rax
 577 006c 4889C7   		movq	%rax, %rdi
 578 006f E8000000 		call	strlen@PLT
 578      00
 579              		.loc 1 308 23
 580 0074 89C3     		movl	%eax, %ebx
 581              		.loc 1 308 25
 582 0076 488B45B8 		movq	-72(%rbp), %rax
 583 007a 4889C7   		movq	%rax, %rdi
 584 007d E8000000 		call	strlen@PLT
 584      00
 585              		.loc 1 308 23
 586 0082 01C3     		addl	%eax, %ebx
 587              		.loc 1 308 38
 588 0084 488B45D8 		movq	-40(%rbp), %rax
 589 0088 4889C7   		movq	%rax, %rdi
 590 008b E8000000 		call	strlen@PLT
 590      00
 591              		.loc 1 308 36
 592 0090 01D8     		addl	%ebx, %eax
 593              		.loc 1 308 52
 594 0092 83C001   		addl	$1, %eax
 595              		.loc 1 308 9
 596 0095 8945CC   		movl	%eax, -52(%rbp)
 309:/home/xingli/share/1205tiny/oc/oc_mqtt/oc_mqtt_tiny_v5/oc_mqtt_tiny.c ****     ret = osal_malloc(len);
 597              		.loc 1 309 11
 598 0098 8B45CC   		movl	-52(%rbp), %eax
 599 009b 4898     		cltq
 600 009d 4889C7   		movq	%rax, %rdi
 601 00a0 E8000000 		call	osal_malloc@PLT
GAS LISTING /tmp/cc7S055g.s 			page 21


 601      00
 602 00a5 488945E0 		movq	%rax, -32(%rbp)
 310:/home/xingli/share/1205tiny/oc/oc_mqtt/oc_mqtt_tiny_v5/oc_mqtt_tiny.c ****     if(NULL != ret)
 603              		.loc 1 310 7
 604 00a9 48837DE0 		cmpq	$0, -32(%rbp)
 604      00
 605 00ae 7426     		je	.L25
 311:/home/xingli/share/1205tiny/oc/oc_mqtt/oc_mqtt_tiny_v5/oc_mqtt_tiny.c ****     {
 312:/home/xingli/share/1205tiny/oc/oc_mqtt/oc_mqtt_tiny_v5/oc_mqtt_tiny.c ****         (void) snprintf(ret,len,fmt,id,param);
 606              		.loc 1 312 16
 607 00b0 8B45CC   		movl	-52(%rbp), %eax
 608 00b3 4863F0   		movslq	%eax, %rsi
 609 00b6 488B7DD8 		movq	-40(%rbp), %rdi
 610 00ba 488B4DB8 		movq	-72(%rbp), %rcx
 611 00be 488B55D0 		movq	-48(%rbp), %rdx
 612 00c2 488B45E0 		movq	-32(%rbp), %rax
 613 00c6 4989F8   		movq	%rdi, %r8
 614 00c9 4889C7   		movq	%rax, %rdi
 615 00cc B8000000 		movl	$0, %eax
 615      00
 616 00d1 E8000000 		call	snprintf@PLT
 616      00
 617              	.L25:
 313:/home/xingli/share/1205tiny/oc/oc_mqtt/oc_mqtt_tiny_v5/oc_mqtt_tiny.c ****     }
 314:/home/xingli/share/1205tiny/oc/oc_mqtt/oc_mqtt_tiny_v5/oc_mqtt_tiny.c ****     return ret;
 618              		.loc 1 314 12
 619 00d6 488B45E0 		movq	-32(%rbp), %rax
 315:/home/xingli/share/1205tiny/oc/oc_mqtt/oc_mqtt_tiny_v5/oc_mqtt_tiny.c **** }
 620              		.loc 1 315 1
 621 00da 488B55E8 		movq	-24(%rbp), %rdx
 622 00de 64483314 		xorq	%fs:40, %rdx
 622      25280000 
 622      00
 623 00e7 7405     		je	.L27
 624 00e9 E8000000 		call	__stack_chk_fail@PLT
 624      00
 625              	.L27:
 626 00ee 4883C458 		addq	$88, %rsp
 627 00f2 5B       		popq	%rbx
 628 00f3 5D       		popq	%rbp
 629              	.LCFI11:
 630              		.cfi_def_cfa 7, 8
 631 00f4 C3       		ret
 632              		.cfi_endproc
 633              	.LFE9:
 635              		.section	.text.daemon_cmd_post,"ax",@progbits
 637              	daemon_cmd_post:
 638              	.LFB10:
 316:/home/xingli/share/1205tiny/oc/oc_mqtt/oc_mqtt_tiny_v5/oc_mqtt_tiny.c **** 
 317:/home/xingli/share/1205tiny/oc/oc_mqtt/oc_mqtt_tiny_v5/oc_mqtt_tiny.c **** ///< return the command code for the operation
 318:/home/xingli/share/1205tiny/oc/oc_mqtt/oc_mqtt_tiny_v5/oc_mqtt_tiny.c **** static int daemon_cmd_post(en_oc_mqtt_daemon_cmd cmd, void *arg)
 319:/home/xingli/share/1205tiny/oc/oc_mqtt/oc_mqtt_tiny_v5/oc_mqtt_tiny.c **** {
 639              		.loc 1 319 1
 640              		.cfi_startproc
 641 0000 F30F1EFA 		endbr64
 642 0004 55       		pushq	%rbp
 643              	.LCFI12:
GAS LISTING /tmp/cc7S055g.s 			page 22


 644              		.cfi_def_cfa_offset 16
 645              		.cfi_offset 6, -16
 646 0005 4889E5   		movq	%rsp, %rbp
 647              	.LCFI13:
 648              		.cfi_def_cfa_register 6
 649 0008 4883EC30 		subq	$48, %rsp
 650 000c 897DDC   		movl	%edi, -36(%rbp)
 651 000f 488975D0 		movq	%rsi, -48(%rbp)
 652              		.loc 1 319 1
 653 0013 64488B04 		movq	%fs:40, %rax
 653      25280000 
 653      00
 654 001c 488945F8 		movq	%rax, -8(%rbp)
 655 0020 31C0     		xorl	%eax, %eax
 320:/home/xingli/share/1205tiny/oc/oc_mqtt/oc_mqtt_tiny_v5/oc_mqtt_tiny.c ****     int ret = (int)en_oc_mqtt_err_system;
 656              		.loc 1 320 9
 657 0022 C745EC10 		movl	$16, -20(%rbp)
 657      000000
 321:/home/xingli/share/1205tiny/oc/oc_mqtt/oc_mqtt_tiny_v5/oc_mqtt_tiny.c ****     oc_mqtt_daemon_cmd_t *daemon_cmd;
 322:/home/xingli/share/1205tiny/oc/oc_mqtt/oc_mqtt_tiny_v5/oc_mqtt_tiny.c **** 
 323:/home/xingli/share/1205tiny/oc/oc_mqtt/oc_mqtt_tiny_v5/oc_mqtt_tiny.c ****     daemon_cmd = osal_malloc(sizeof(oc_mqtt_daemon_cmd_t));
 658              		.loc 1 323 18
 659 0029 BF200000 		movl	$32, %edi
 659      00
 660 002e E8000000 		call	osal_malloc@PLT
 660      00
 661 0033 488945F0 		movq	%rax, -16(%rbp)
 324:/home/xingli/share/1205tiny/oc/oc_mqtt/oc_mqtt_tiny_v5/oc_mqtt_tiny.c ****     if(NULL != daemon_cmd)
 662              		.loc 1 324 7
 663 0037 48837DF0 		cmpq	$0, -16(%rbp)
 663      00
 664 003c 0F849F00 		je	.L29
 664      0000
 325:/home/xingli/share/1205tiny/oc/oc_mqtt/oc_mqtt_tiny_v5/oc_mqtt_tiny.c ****     {
 326:/home/xingli/share/1205tiny/oc/oc_mqtt/oc_mqtt_tiny_v5/oc_mqtt_tiny.c ****         daemon_cmd->cmd = cmd;
 665              		.loc 1 326 25
 666 0042 488B45F0 		movq	-16(%rbp), %rax
 667 0046 8B55DC   		movl	-36(%rbp), %edx
 668 0049 8910     		movl	%edx, (%rax)
 327:/home/xingli/share/1205tiny/oc/oc_mqtt/oc_mqtt_tiny_v5/oc_mqtt_tiny.c ****         daemon_cmd->arg = arg;
 669              		.loc 1 327 25
 670 004b 488B45F0 		movq	-16(%rbp), %rax
 671 004f 488B55D0 		movq	-48(%rbp), %rdx
 672 0053 48895008 		movq	%rdx, 8(%rax)
 328:/home/xingli/share/1205tiny/oc/oc_mqtt/oc_mqtt_tiny_v5/oc_mqtt_tiny.c ****         daemon_cmd->retcode = ret;
 673              		.loc 1 328 29
 674 0057 488B45F0 		movq	-16(%rbp), %rax
 675 005b 8B55EC   		movl	-20(%rbp), %edx
 676 005e 895018   		movl	%edx, 24(%rax)
 329:/home/xingli/share/1205tiny/oc/oc_mqtt/oc_mqtt_tiny_v5/oc_mqtt_tiny.c ****         if(true == osal_semp_create(&daemon_cmd->signal,1,0))
 677              		.loc 1 329 20
 678 0061 488B45F0 		movq	-16(%rbp), %rax
 679 0065 4883C010 		addq	$16, %rax
 680 0069 BA000000 		movl	$0, %edx
 680      00
 681 006e BE010000 		movl	$1, %esi
 681      00
GAS LISTING /tmp/cc7S055g.s 			page 23


 682 0073 4889C7   		movq	%rax, %rdi
 683 0076 E8000000 		call	osal_semp_create@PLT
 683      00
 684              		.loc 1 329 11
 685 007b 83F801   		cmpl	$1, %eax
 686 007e 7555     		jne	.L30
 330:/home/xingli/share/1205tiny/oc/oc_mqtt/oc_mqtt_tiny_v5/oc_mqtt_tiny.c ****         {
 331:/home/xingli/share/1205tiny/oc/oc_mqtt/oc_mqtt_tiny_v5/oc_mqtt_tiny.c ****             if(0 == queue_push(s_oc_mqtt_tiny_cb->task_daemon_cmd_queue,daemon_cmd,10))
 687              		.loc 1 331 49
 688 0080 488B0500 		movq	s_oc_mqtt_tiny_cb(%rip), %rax
 688      000000
 689              		.loc 1 331 21
 690 0087 488B8000 		movq	256(%rax), %rax
 690      010000
 691 008e 488B4DF0 		movq	-16(%rbp), %rcx
 692 0092 BA0A0000 		movl	$10, %edx
 692      00
 693 0097 4889CE   		movq	%rcx, %rsi
 694 009a 4889C7   		movq	%rax, %rdi
 695 009d E8000000 		call	queue_push@PLT
 695      00
 696              		.loc 1 331 15
 697 00a2 85C0     		testl	%eax, %eax
 698 00a4 751F     		jne	.L31
 332:/home/xingli/share/1205tiny/oc/oc_mqtt/oc_mqtt_tiny_v5/oc_mqtt_tiny.c ****             {
 333:/home/xingli/share/1205tiny/oc/oc_mqtt/oc_mqtt_tiny_v5/oc_mqtt_tiny.c ****                 (void)osal_semp_pend(daemon_cmd->signal,cn_osal_timeout_forever);
 699              		.loc 1 333 23
 700 00a6 488B45F0 		movq	-16(%rbp), %rax
 701 00aa 488B4010 		movq	16(%rax), %rax
 702 00ae BEFFFFFF 		movl	$-1, %esi
 702      FF
 703 00b3 4889C7   		movq	%rax, %rdi
 704 00b6 E8000000 		call	osal_semp_pend@PLT
 704      00
 334:/home/xingli/share/1205tiny/oc/oc_mqtt/oc_mqtt_tiny_v5/oc_mqtt_tiny.c ****                 ret = daemon_cmd->retcode;
 705              		.loc 1 334 21
 706 00bb 488B45F0 		movq	-16(%rbp), %rax
 707 00bf 8B4018   		movl	24(%rax), %eax
 708 00c2 8945EC   		movl	%eax, -20(%rbp)
 709              	.L31:
 335:/home/xingli/share/1205tiny/oc/oc_mqtt/oc_mqtt_tiny_v5/oc_mqtt_tiny.c ****             }
 336:/home/xingli/share/1205tiny/oc/oc_mqtt/oc_mqtt_tiny_v5/oc_mqtt_tiny.c ****             (void) osal_semp_del(daemon_cmd->signal);
 710              		.loc 1 336 20
 711 00c5 488B45F0 		movq	-16(%rbp), %rax
 712 00c9 488B4010 		movq	16(%rax), %rax
 713 00cd 4889C7   		movq	%rax, %rdi
 714 00d0 E8000000 		call	osal_semp_del@PLT
 714      00
 715              	.L30:
 337:/home/xingli/share/1205tiny/oc/oc_mqtt/oc_mqtt_tiny_v5/oc_mqtt_tiny.c ****         }
 338:/home/xingli/share/1205tiny/oc/oc_mqtt/oc_mqtt_tiny_v5/oc_mqtt_tiny.c ****         osal_free(daemon_cmd);
 716              		.loc 1 338 9
 717 00d5 488B45F0 		movq	-16(%rbp), %rax
 718 00d9 4889C7   		movq	%rax, %rdi
 719 00dc E8000000 		call	osal_free@PLT
 719      00
 720              	.L29:
GAS LISTING /tmp/cc7S055g.s 			page 24


 339:/home/xingli/share/1205tiny/oc/oc_mqtt/oc_mqtt_tiny_v5/oc_mqtt_tiny.c ****     }
 340:/home/xingli/share/1205tiny/oc/oc_mqtt/oc_mqtt_tiny_v5/oc_mqtt_tiny.c **** 
 341:/home/xingli/share/1205tiny/oc/oc_mqtt/oc_mqtt_tiny_v5/oc_mqtt_tiny.c ****     return ret;
 721              		.loc 1 341 12
 722 00e1 8B45EC   		movl	-20(%rbp), %eax
 342:/home/xingli/share/1205tiny/oc/oc_mqtt/oc_mqtt_tiny_v5/oc_mqtt_tiny.c **** }
 723              		.loc 1 342 1
 724 00e4 488B4DF8 		movq	-8(%rbp), %rcx
 725 00e8 6448330C 		xorq	%fs:40, %rcx
 725      25280000 
 725      00
 726 00f1 7405     		je	.L33
 727 00f3 E8000000 		call	__stack_chk_fail@PLT
 727      00
 728              	.L33:
 729 00f8 C9       		leave
 730              	.LCFI14:
 731              		.cfi_def_cfa 7, 8
 732 00f9 C3       		ret
 733              		.cfi_endproc
 734              	.LFE10:
 736              		.section	.text.config_parameter_release,"ax",@progbits
 738              	config_parameter_release:
 739              	.LFB11:
 343:/home/xingli/share/1205tiny/oc/oc_mqtt/oc_mqtt_tiny_v5/oc_mqtt_tiny.c **** 
 344:/home/xingli/share/1205tiny/oc/oc_mqtt/oc_mqtt_tiny_v5/oc_mqtt_tiny.c **** 
 345:/home/xingli/share/1205tiny/oc/oc_mqtt/oc_mqtt_tiny_v5/oc_mqtt_tiny.c **** ///< release the config parameters
 346:/home/xingli/share/1205tiny/oc/oc_mqtt/oc_mqtt_tiny_v5/oc_mqtt_tiny.c **** static int config_parameter_release(oc_mqtt_tiny_cb_t *cb)
 347:/home/xingli/share/1205tiny/oc/oc_mqtt/oc_mqtt_tiny_v5/oc_mqtt_tiny.c **** {
 740              		.loc 1 347 1
 741              		.cfi_startproc
 742 0000 F30F1EFA 		endbr64
 743 0004 55       		pushq	%rbp
 744              	.LCFI15:
 745              		.cfi_def_cfa_offset 16
 746              		.cfi_offset 6, -16
 747 0005 4889E5   		movq	%rsp, %rbp
 748              	.LCFI16:
 749              		.cfi_def_cfa_register 6
 750 0008 4883EC30 		subq	$48, %rsp
 751 000c 48897DD8 		movq	%rdi, -40(%rbp)
 752              		.loc 1 347 1
 753 0010 64488B04 		movq	%fs:40, %rax
 753      25280000 
 753      00
 754 0019 488945F8 		movq	%rax, -8(%rbp)
 755 001d 31C0     		xorl	%eax, %eax
 348:/home/xingli/share/1205tiny/oc/oc_mqtt/oc_mqtt_tiny_v5/oc_mqtt_tiny.c ****     tiny_topic_sub_t  *sub_topic;
 349:/home/xingli/share/1205tiny/oc/oc_mqtt/oc_mqtt_tiny_v5/oc_mqtt_tiny.c ****     tiny_topic_sub_t  *sub_topic_nxt;
 350:/home/xingli/share/1205tiny/oc/oc_mqtt/oc_mqtt_tiny_v5/oc_mqtt_tiny.c **** 
 351:/home/xingli/share/1205tiny/oc/oc_mqtt/oc_mqtt_tiny_v5/oc_mqtt_tiny.c ****     if( NULL != cb->config_mem )
 756              		.loc 1 351 19
 757 001f 488B45D8 		movq	-40(%rbp), %rax
 758 0023 488B4008 		movq	8(%rax), %rax
 759              		.loc 1 351 7
 760 0027 4885C0   		testq	%rax, %rax
 761 002a 741C     		je	.L35
GAS LISTING /tmp/cc7S055g.s 			page 25


 352:/home/xingli/share/1205tiny/oc/oc_mqtt/oc_mqtt_tiny_v5/oc_mqtt_tiny.c ****     {
 353:/home/xingli/share/1205tiny/oc/oc_mqtt/oc_mqtt_tiny_v5/oc_mqtt_tiny.c ****         osal_free(cb->config_mem);
 762              		.loc 1 353 21
 763 002c 488B45D8 		movq	-40(%rbp), %rax
 764 0030 488B4008 		movq	8(%rax), %rax
 765              		.loc 1 353 9
 766 0034 4889C7   		movq	%rax, %rdi
 767 0037 E8000000 		call	osal_free@PLT
 767      00
 354:/home/xingli/share/1205tiny/oc/oc_mqtt/oc_mqtt_tiny_v5/oc_mqtt_tiny.c ****         cb->config_mem = NULL;
 768              		.loc 1 354 24
 769 003c 488B45D8 		movq	-40(%rbp), %rax
 770 0040 48C74008 		movq	$0, 8(%rax)
 770      00000000 
 771              	.L35:
 355:/home/xingli/share/1205tiny/oc/oc_mqtt/oc_mqtt_tiny_v5/oc_mqtt_tiny.c ****     }
 356:/home/xingli/share/1205tiny/oc/oc_mqtt/oc_mqtt_tiny_v5/oc_mqtt_tiny.c **** 
 357:/home/xingli/share/1205tiny/oc/oc_mqtt/oc_mqtt_tiny_v5/oc_mqtt_tiny.c ****     if( cb->bs_cb.hubserver_addr != NULL )
 772              		.loc 1 357 18
 773 0048 488B45D8 		movq	-40(%rbp), %rax
 774 004c 488B80E8 		movq	232(%rax), %rax
 774      000000
 775              		.loc 1 357 7
 776 0053 4885C0   		testq	%rax, %rax
 777 0056 7413     		je	.L36
 358:/home/xingli/share/1205tiny/oc/oc_mqtt/oc_mqtt_tiny_v5/oc_mqtt_tiny.c ****     {
 359:/home/xingli/share/1205tiny/oc/oc_mqtt/oc_mqtt_tiny_v5/oc_mqtt_tiny.c ****         osal_free(cb->bs_cb.hubserver_addr);
 778              		.loc 1 359 28
 779 0058 488B45D8 		movq	-40(%rbp), %rax
 780 005c 488B80E8 		movq	232(%rax), %rax
 780      000000
 781              		.loc 1 359 9
 782 0063 4889C7   		movq	%rax, %rdi
 783 0066 E8000000 		call	osal_free@PLT
 783      00
 784              	.L36:
 360:/home/xingli/share/1205tiny/oc/oc_mqtt/oc_mqtt_tiny_v5/oc_mqtt_tiny.c ****     }
 361:/home/xingli/share/1205tiny/oc/oc_mqtt/oc_mqtt_tiny_v5/oc_mqtt_tiny.c ****     if( cb->bs_cb.hubserver_port != NULL )
 785              		.loc 1 361 18
 786 006b 488B45D8 		movq	-40(%rbp), %rax
 787 006f 488B80F0 		movq	240(%rax), %rax
 787      000000
 788              		.loc 1 361 7
 789 0076 4885C0   		testq	%rax, %rax
 790 0079 7413     		je	.L37
 362:/home/xingli/share/1205tiny/oc/oc_mqtt/oc_mqtt_tiny_v5/oc_mqtt_tiny.c ****     {
 363:/home/xingli/share/1205tiny/oc/oc_mqtt/oc_mqtt_tiny_v5/oc_mqtt_tiny.c ****         osal_free(cb->bs_cb.hubserver_port);
 791              		.loc 1 363 28
 792 007b 488B45D8 		movq	-40(%rbp), %rax
 793 007f 488B80F0 		movq	240(%rax), %rax
 793      000000
 794              		.loc 1 363 9
 795 0086 4889C7   		movq	%rax, %rdi
 796 0089 E8000000 		call	osal_free@PLT
 796      00
 797              	.L37:
 364:/home/xingli/share/1205tiny/oc/oc_mqtt/oc_mqtt_tiny_v5/oc_mqtt_tiny.c ****     }
GAS LISTING /tmp/cc7S055g.s 			page 26


 365:/home/xingli/share/1205tiny/oc/oc_mqtt/oc_mqtt_tiny_v5/oc_mqtt_tiny.c **** 
 366:/home/xingli/share/1205tiny/oc/oc_mqtt/oc_mqtt_tiny_v5/oc_mqtt_tiny.c ****     unsigned int i = 0;
 798              		.loc 1 366 18
 799 008e C745E400 		movl	$0, -28(%rbp)
 799      000000
 367:/home/xingli/share/1205tiny/oc/oc_mqtt/oc_mqtt_tiny_v5/oc_mqtt_tiny.c ****     for(i = 0;i < CN_NEW_TOPIC_NUM;i++)
 800              		.loc 1 367 11
 801 0095 C745E400 		movl	$0, -28(%rbp)
 801      000000
 802              		.loc 1 367 5
 803 009c EB31     		jmp	.L38
 804              	.L40:
 368:/home/xingli/share/1205tiny/oc/oc_mqtt/oc_mqtt_tiny_v5/oc_mqtt_tiny.c ****     {
 369:/home/xingli/share/1205tiny/oc/oc_mqtt/oc_mqtt_tiny_v5/oc_mqtt_tiny.c ****         if(NULL != cb->hub_sub_topic[i])
 805              		.loc 1 369 37
 806 009e 488B45D8 		movq	-40(%rbp), %rax
 807 00a2 8B55E4   		movl	-28(%rbp), %edx
 808 00a5 4883C222 		addq	$34, %rdx
 809 00a9 488B44D0 		movq	8(%rax,%rdx,8), %rax
 809      08
 810              		.loc 1 369 11
 811 00ae 4885C0   		testq	%rax, %rax
 812 00b1 7418     		je	.L39
 370:/home/xingli/share/1205tiny/oc/oc_mqtt/oc_mqtt_tiny_v5/oc_mqtt_tiny.c ****         {
 371:/home/xingli/share/1205tiny/oc/oc_mqtt/oc_mqtt_tiny_v5/oc_mqtt_tiny.c ****             osal_free(cb->hub_sub_topic[i]);
 813              		.loc 1 371 40
 814 00b3 488B45D8 		movq	-40(%rbp), %rax
 815 00b7 8B55E4   		movl	-28(%rbp), %edx
 816 00ba 4883C222 		addq	$34, %rdx
 817 00be 488B44D0 		movq	8(%rax,%rdx,8), %rax
 817      08
 818              		.loc 1 371 13
 819 00c3 4889C7   		movq	%rax, %rdi
 820 00c6 E8000000 		call	osal_free@PLT
 820      00
 821              	.L39:
 367:/home/xingli/share/1205tiny/oc/oc_mqtt/oc_mqtt_tiny_v5/oc_mqtt_tiny.c ****     {
 822              		.loc 1 367 37 discriminator 2
 823 00cb 8345E401 		addl	$1, -28(%rbp)
 824              	.L38:
 367:/home/xingli/share/1205tiny/oc/oc_mqtt/oc_mqtt_tiny_v5/oc_mqtt_tiny.c ****     {
 825              		.loc 1 367 5 discriminator 1
 826 00cf 837DE404 		cmpl	$4, -28(%rbp)
 827 00d3 76C9     		jbe	.L40
 372:/home/xingli/share/1205tiny/oc/oc_mqtt/oc_mqtt_tiny_v5/oc_mqtt_tiny.c ****         }
 373:/home/xingli/share/1205tiny/oc/oc_mqtt/oc_mqtt_tiny_v5/oc_mqtt_tiny.c ****     }
 374:/home/xingli/share/1205tiny/oc/oc_mqtt/oc_mqtt_tiny_v5/oc_mqtt_tiny.c ****     (void) memset((void *)&cb->hub_sub_topic[0],0,sizeof(cb->hub_sub_topic));
 828              		.loc 1 374 27
 829 00d5 488B45D8 		movq	-40(%rbp), %rax
 830 00d9 48051801 		addq	$280, %rax
 830      0000
 831              		.loc 1 374 12
 832 00df BA280000 		movl	$40, %edx
 832      00
 833 00e4 BE000000 		movl	$0, %esi
 833      00
 834 00e9 4889C7   		movq	%rax, %rdi
GAS LISTING /tmp/cc7S055g.s 			page 27


 835 00ec E8000000 		call	memset@PLT
 835      00
 375:/home/xingli/share/1205tiny/oc/oc_mqtt/oc_mqtt_tiny_v5/oc_mqtt_tiny.c **** 
 376:/home/xingli/share/1205tiny/oc/oc_mqtt/oc_mqtt_tiny_v5/oc_mqtt_tiny.c ****     (void) memset(&cb->config,0,sizeof(oc_mqtt_config_t));
 836              		.loc 1 376 19
 837 00f1 488B45D8 		movq	-40(%rbp), %rax
 838 00f5 4883C010 		addq	$16, %rax
 839              		.loc 1 376 12
 840 00f9 BA880000 		movl	$136, %edx
 840      00
 841 00fe BE000000 		movl	$0, %esi
 841      00
 842 0103 4889C7   		movq	%rax, %rdi
 843 0106 E8000000 		call	memset@PLT
 843      00
 377:/home/xingli/share/1205tiny/oc/oc_mqtt/oc_mqtt_tiny_v5/oc_mqtt_tiny.c **** 
 378:/home/xingli/share/1205tiny/oc/oc_mqtt/oc_mqtt_tiny_v5/oc_mqtt_tiny.c ****     (void) memset(&cb->bs_cb,0,sizeof(oc_bs_mqtt_cb_t));
 844              		.loc 1 378 19
 845 010b 488B45D8 		movq	-40(%rbp), %rax
 846 010f 4805E800 		addq	$232, %rax
 846      0000
 847              		.loc 1 378 12
 848 0115 BA100000 		movl	$16, %edx
 848      00
 849 011a BE000000 		movl	$0, %esi
 849      00
 850 011f 4889C7   		movq	%rax, %rdi
 851 0122 E8000000 		call	memset@PLT
 851      00
 379:/home/xingli/share/1205tiny/oc/oc_mqtt/oc_mqtt_tiny_v5/oc_mqtt_tiny.c **** 
 380:/home/xingli/share/1205tiny/oc/oc_mqtt/oc_mqtt_tiny_v5/oc_mqtt_tiny.c ****     cb->flag.bits.bit_daemon_status = en_daemon_status_idle;
 852              		.loc 1 380 37
 853 0127 488B45D8 		movq	-40(%rbp), %rax
 854 012b 0FB690E0 		movzbl	224(%rax), %edx
 854      000000
 855 0132 83E2F1   		andl	$-15, %edx
 856 0135 8890E000 		movb	%dl, 224(%rax)
 856      0000
 381:/home/xingli/share/1205tiny/oc/oc_mqtt/oc_mqtt_tiny_v5/oc_mqtt_tiny.c **** 
 382:/home/xingli/share/1205tiny/oc/oc_mqtt/oc_mqtt_tiny_v5/oc_mqtt_tiny.c ****     sub_topic = cb->subscribe_lst;
 857              		.loc 1 382 15
 858 013b 488B45D8 		movq	-40(%rbp), %rax
 859 013f 488B8040 		movq	320(%rax), %rax
 859      010000
 860 0146 488945E8 		movq	%rax, -24(%rbp)
 383:/home/xingli/share/1205tiny/oc/oc_mqtt/oc_mqtt_tiny_v5/oc_mqtt_tiny.c ****     cb->subscribe_lst = NULL;
 861              		.loc 1 383 23
 862 014a 488B45D8 		movq	-40(%rbp), %rax
 863 014e 48C78040 		movq	$0, 320(%rax)
 863      01000000 
 863      000000
 384:/home/xingli/share/1205tiny/oc/oc_mqtt/oc_mqtt_tiny_v5/oc_mqtt_tiny.c **** 
 385:/home/xingli/share/1205tiny/oc/oc_mqtt/oc_mqtt_tiny_v5/oc_mqtt_tiny.c ****     while( NULL != sub_topic)
 864              		.loc 1 385 10
 865 0159 EB1F     		jmp	.L41
 866              	.L42:
 386:/home/xingli/share/1205tiny/oc/oc_mqtt/oc_mqtt_tiny_v5/oc_mqtt_tiny.c ****     {
GAS LISTING /tmp/cc7S055g.s 			page 28


 387:/home/xingli/share/1205tiny/oc/oc_mqtt/oc_mqtt_tiny_v5/oc_mqtt_tiny.c ****         sub_topic_nxt = sub_topic->nxt;
 867              		.loc 1 387 23
 868 015b 488B45E8 		movq	-24(%rbp), %rax
 869 015f 488B00   		movq	(%rax), %rax
 870 0162 488945F0 		movq	%rax, -16(%rbp)
 388:/home/xingli/share/1205tiny/oc/oc_mqtt/oc_mqtt_tiny_v5/oc_mqtt_tiny.c ****         osal_free ( sub_topic );
 871              		.loc 1 388 9
 872 0166 488B45E8 		movq	-24(%rbp), %rax
 873 016a 4889C7   		movq	%rax, %rdi
 874 016d E8000000 		call	osal_free@PLT
 874      00
 389:/home/xingli/share/1205tiny/oc/oc_mqtt/oc_mqtt_tiny_v5/oc_mqtt_tiny.c **** 
 390:/home/xingli/share/1205tiny/oc/oc_mqtt/oc_mqtt_tiny_v5/oc_mqtt_tiny.c ****         sub_topic = sub_topic_nxt;
 875              		.loc 1 390 19
 876 0172 488B45F0 		movq	-16(%rbp), %rax
 877 0176 488945E8 		movq	%rax, -24(%rbp)
 878              	.L41:
 385:/home/xingli/share/1205tiny/oc/oc_mqtt/oc_mqtt_tiny_v5/oc_mqtt_tiny.c ****     {
 879              		.loc 1 385 10
 880 017a 48837DE8 		cmpq	$0, -24(%rbp)
 880      00
 881 017f 75DA     		jne	.L42
 391:/home/xingli/share/1205tiny/oc/oc_mqtt/oc_mqtt_tiny_v5/oc_mqtt_tiny.c ****     }
 392:/home/xingli/share/1205tiny/oc/oc_mqtt/oc_mqtt_tiny_v5/oc_mqtt_tiny.c **** 
 393:/home/xingli/share/1205tiny/oc/oc_mqtt/oc_mqtt_tiny_v5/oc_mqtt_tiny.c ****     return (int)en_oc_mqtt_err_ok;
 882              		.loc 1 393 12
 883 0181 B8000000 		movl	$0, %eax
 883      00
 394:/home/xingli/share/1205tiny/oc/oc_mqtt/oc_mqtt_tiny_v5/oc_mqtt_tiny.c **** }
 884              		.loc 1 394 1
 885 0186 488B4DF8 		movq	-8(%rbp), %rcx
 886 018a 6448330C 		xorq	%fs:40, %rcx
 886      25280000 
 886      00
 887 0193 7405     		je	.L44
 888 0195 E8000000 		call	__stack_chk_fail@PLT
 888      00
 889              	.L44:
 890 019a C9       		leave
 891              	.LCFI17:
 892              		.cfi_def_cfa 7, 8
 893 019b C3       		ret
 894              		.cfi_endproc
 895              	.LFE11:
 897              		.section	.text.config_parameter_clone,"ax",@progbits
 899              	config_parameter_clone:
 900              	.LFB12:
 395:/home/xingli/share/1205tiny/oc/oc_mqtt/oc_mqtt_tiny_v5/oc_mqtt_tiny.c **** ///< check the config parameters
 396:/home/xingli/share/1205tiny/oc/oc_mqtt/oc_mqtt_tiny_v5/oc_mqtt_tiny.c **** static int config_parameter_clone(oc_mqtt_tiny_cb_t *cb,oc_mqtt_config_t *config)
 397:/home/xingli/share/1205tiny/oc/oc_mqtt/oc_mqtt_tiny_v5/oc_mqtt_tiny.c **** {
 901              		.loc 1 397 1
 902              		.cfi_startproc
 903 0000 F30F1EFA 		endbr64
 904 0004 55       		pushq	%rbp
 905              	.LCFI18:
 906              		.cfi_def_cfa_offset 16
 907              		.cfi_offset 6, -16
GAS LISTING /tmp/cc7S055g.s 			page 29


 908 0005 4889E5   		movq	%rsp, %rbp
 909              	.LCFI19:
 910              		.cfi_def_cfa_register 6
 911 0008 4883EC30 		subq	$48, %rsp
 912 000c 48897DD8 		movq	%rdi, -40(%rbp)
 913 0010 488975D0 		movq	%rsi, -48(%rbp)
 914              		.loc 1 397 1
 915 0014 64488B04 		movq	%fs:40, %rax
 915      25280000 
 915      00
 916 001d 488945F8 		movq	%rax, -8(%rbp)
 917 0021 31C0     		xorl	%eax, %eax
 398:/home/xingli/share/1205tiny/oc/oc_mqtt/oc_mqtt_tiny_v5/oc_mqtt_tiny.c ****     int ret = (int)en_oc_mqtt_err_parafmt;
 918              		.loc 1 398 9
 919 0023 C745EC01 		movl	$1, -20(%rbp)
 919      000000
 399:/home/xingli/share/1205tiny/oc/oc_mqtt/oc_mqtt_tiny_v5/oc_mqtt_tiny.c ****     int mem_len = 0;
 920              		.loc 1 399 9
 921 002a C745E400 		movl	$0, -28(%rbp)
 921      000000
 400:/home/xingli/share/1205tiny/oc/oc_mqtt/oc_mqtt_tiny_v5/oc_mqtt_tiny.c ****     char *mem_buf = NULL;
 922              		.loc 1 400 11
 923 0031 48C745F0 		movq	$0, -16(%rbp)
 923      00000000 
 401:/home/xingli/share/1205tiny/oc/oc_mqtt/oc_mqtt_tiny_v5/oc_mqtt_tiny.c **** 
 402:/home/xingli/share/1205tiny/oc/oc_mqtt/oc_mqtt_tiny_v5/oc_mqtt_tiny.c ****     if(config->security.type == EN_DTLS_AL_SECURITY_TYPE_CERT)
 924              		.loc 1 402 24
 925 0039 488B45D0 		movq	-48(%rbp), %rax
 926 003d 8B4018   		movl	24(%rax), %eax
 927              		.loc 1 402 7
 928 0040 83F802   		cmpl	$2, %eax
 929 0043 7551     		jne	.L46
 403:/home/xingli/share/1205tiny/oc/oc_mqtt/oc_mqtt_tiny_v5/oc_mqtt_tiny.c ****     {
 404:/home/xingli/share/1205tiny/oc/oc_mqtt/oc_mqtt_tiny_v5/oc_mqtt_tiny.c ****         mem_len += config->security.u.cert.server_ca_len + config->security.u.cert.client_ca_len +\
 930              		.loc 1 404 43
 931 0045 488B45D0 		movq	-48(%rbp), %rax
 932 0049 8B5040   		movl	64(%rax), %edx
 933              		.loc 1 404 83
 934 004c 488B45D0 		movq	-48(%rbp), %rax
 935 0050 8B4044   		movl	68(%rax), %eax
 936              		.loc 1 404 58
 937 0053 01C2     		addl	%eax, %edx
 405:/home/xingli/share/1205tiny/oc/oc_mqtt/oc_mqtt_tiny_v5/oc_mqtt_tiny.c ****                    config->security.u.cert.client_pk_len + config->security.u.cert.client_pk_pwd_le
 938              		.loc 1 405 43
 939 0055 488B45D0 		movq	-48(%rbp), %rax
 940 0059 8B4048   		movl	72(%rax), %eax
 404:/home/xingli/share/1205tiny/oc/oc_mqtt/oc_mqtt_tiny_v5/oc_mqtt_tiny.c ****                    config->security.u.cert.client_pk_len + config->security.u.cert.client_pk_pwd_le
 941              		.loc 1 404 98
 942 005c 01C2     		addl	%eax, %edx
 943              		.loc 1 405 83
 944 005e 488B45D0 		movq	-48(%rbp), %rax
 945 0062 8B404C   		movl	76(%rax), %eax
 946              		.loc 1 405 58
 947 0065 01D0     		addl	%edx, %eax
 404:/home/xingli/share/1205tiny/oc/oc_mqtt/oc_mqtt_tiny_v5/oc_mqtt_tiny.c ****                    config->security.u.cert.client_pk_len + config->security.u.cert.client_pk_pwd_le
 948              		.loc 1 404 17
 949 0067 0145E4   		addl	%eax, -28(%rbp)
GAS LISTING /tmp/cc7S055g.s 			page 30


 406:/home/xingli/share/1205tiny/oc/oc_mqtt/oc_mqtt_tiny_v5/oc_mqtt_tiny.c ****         if(NULL != config->security.u.cert.server_name)
 950              		.loc 1 406 43
 951 006a 488B45D0 		movq	-48(%rbp), %rax
 952 006e 488B4050 		movq	80(%rax), %rax
 953              		.loc 1 406 11
 954 0072 4885C0   		testq	%rax, %rax
 955 0075 743E     		je	.L47
 407:/home/xingli/share/1205tiny/oc/oc_mqtt/oc_mqtt_tiny_v5/oc_mqtt_tiny.c ****         {
 408:/home/xingli/share/1205tiny/oc/oc_mqtt/oc_mqtt_tiny_v5/oc_mqtt_tiny.c ****             mem_len += strlen(config->security.u.cert.server_name) + 1;
 956              		.loc 1 408 54
 957 0077 488B45D0 		movq	-48(%rbp), %rax
 958 007b 488B4050 		movq	80(%rax), %rax
 959              		.loc 1 408 24
 960 007f 4889C7   		movq	%rax, %rdi
 961 0082 E8000000 		call	strlen@PLT
 961      00
 962              		.loc 1 408 21
 963 0087 89C2     		movl	%eax, %edx
 964 0089 8B45E4   		movl	-28(%rbp), %eax
 965 008c 01D0     		addl	%edx, %eax
 966 008e 83C001   		addl	$1, %eax
 967 0091 8945E4   		movl	%eax, -28(%rbp)
 968 0094 EB1F     		jmp	.L47
 969              	.L46:
 409:/home/xingli/share/1205tiny/oc/oc_mqtt/oc_mqtt_tiny_v5/oc_mqtt_tiny.c ****         }
 410:/home/xingli/share/1205tiny/oc/oc_mqtt/oc_mqtt_tiny_v5/oc_mqtt_tiny.c ****     }
 411:/home/xingli/share/1205tiny/oc/oc_mqtt/oc_mqtt_tiny_v5/oc_mqtt_tiny.c ****     else if(config->security.type == EN_DTLS_AL_SECURITY_TYPE_PSK)
 970              		.loc 1 411 29
 971 0096 488B45D0 		movq	-48(%rbp), %rax
 972 009a 8B4018   		movl	24(%rax), %eax
 973              		.loc 1 411 12
 974 009d 83F801   		cmpl	$1, %eax
 975 00a0 7513     		jne	.L47
 412:/home/xingli/share/1205tiny/oc/oc_mqtt/oc_mqtt_tiny_v5/oc_mqtt_tiny.c ****     {
 413:/home/xingli/share/1205tiny/oc/oc_mqtt/oc_mqtt_tiny_v5/oc_mqtt_tiny.c ****         mem_len += config->security.u.psk.psk_id_len + config->security.u.psk.psk_key_len;
 976              		.loc 1 413 42
 977 00a2 488B45D0 		movq	-48(%rbp), %rax
 978 00a6 8B5030   		movl	48(%rax), %edx
 979              		.loc 1 413 78
 980 00a9 488B45D0 		movq	-48(%rbp), %rax
 981 00ad 8B4034   		movl	52(%rax), %eax
 982              		.loc 1 413 54
 983 00b0 01D0     		addl	%edx, %eax
 984              		.loc 1 413 17
 985 00b2 0145E4   		addl	%eax, -28(%rbp)
 986              	.L47:
 414:/home/xingli/share/1205tiny/oc/oc_mqtt/oc_mqtt_tiny_v5/oc_mqtt_tiny.c ****     }
 415:/home/xingli/share/1205tiny/oc/oc_mqtt/oc_mqtt_tiny_v5/oc_mqtt_tiny.c **** 
 416:/home/xingli/share/1205tiny/oc/oc_mqtt/oc_mqtt_tiny_v5/oc_mqtt_tiny.c ****     mem_len += strlen(config->id) +1;
 987              		.loc 1 416 29
 988 00b5 488B45D0 		movq	-48(%rbp), %rax
 989 00b9 488B4058 		movq	88(%rax), %rax
 990              		.loc 1 416 16
 991 00bd 4889C7   		movq	%rax, %rdi
 992 00c0 E8000000 		call	strlen@PLT
 992      00
 993              		.loc 1 416 13
GAS LISTING /tmp/cc7S055g.s 			page 31


 994 00c5 89C2     		movl	%eax, %edx
 995 00c7 8B45E4   		movl	-28(%rbp), %eax
 996 00ca 01D0     		addl	%edx, %eax
 997 00cc 83C001   		addl	$1, %eax
 998 00cf 8945E4   		movl	%eax, -28(%rbp)
 417:/home/xingli/share/1205tiny/oc/oc_mqtt/oc_mqtt_tiny_v5/oc_mqtt_tiny.c ****     if( NULL != config->pwd )                              ///PWD could be NULL
 999              		.loc 1 417 23
 1000 00d2 488B45D0 		movq	-48(%rbp), %rax
 1001 00d6 488B4060 		movq	96(%rax), %rax
 1002              		.loc 1 417 7
 1003 00da 4885C0   		testq	%rax, %rax
 1004 00dd 741D     		je	.L48
 418:/home/xingli/share/1205tiny/oc/oc_mqtt/oc_mqtt_tiny_v5/oc_mqtt_tiny.c ****     {
 419:/home/xingli/share/1205tiny/oc/oc_mqtt/oc_mqtt_tiny_v5/oc_mqtt_tiny.c ****         mem_len += strlen(config->pwd) + 1;
 1005              		.loc 1 419 33
 1006 00df 488B45D0 		movq	-48(%rbp), %rax
 1007 00e3 488B4060 		movq	96(%rax), %rax
 1008              		.loc 1 419 20
 1009 00e7 4889C7   		movq	%rax, %rdi
 1010 00ea E8000000 		call	strlen@PLT
 1010      00
 1011              		.loc 1 419 17
 1012 00ef 89C2     		movl	%eax, %edx
 1013 00f1 8B45E4   		movl	-28(%rbp), %eax
 1014 00f4 01D0     		addl	%edx, %eax
 1015 00f6 83C001   		addl	$1, %eax
 1016 00f9 8945E4   		movl	%eax, -28(%rbp)
 1017              	.L48:
 420:/home/xingli/share/1205tiny/oc/oc_mqtt/oc_mqtt_tiny_v5/oc_mqtt_tiny.c ****     }
 421:/home/xingli/share/1205tiny/oc/oc_mqtt/oc_mqtt_tiny_v5/oc_mqtt_tiny.c ****     if( NULL != config->scope_id)
 1018              		.loc 1 421 23
 1019 00fc 488B45D0 		movq	-48(%rbp), %rax
 1020 0100 488B4068 		movq	104(%rax), %rax
 1021              		.loc 1 421 7
 1022 0104 4885C0   		testq	%rax, %rax
 1023 0107 741D     		je	.L49
 422:/home/xingli/share/1205tiny/oc/oc_mqtt/oc_mqtt_tiny_v5/oc_mqtt_tiny.c ****     {
 423:/home/xingli/share/1205tiny/oc/oc_mqtt/oc_mqtt_tiny_v5/oc_mqtt_tiny.c ****         mem_len += strlen(config->scope_id) + 1;
 1024              		.loc 1 423 33
 1025 0109 488B45D0 		movq	-48(%rbp), %rax
 1026 010d 488B4068 		movq	104(%rax), %rax
 1027              		.loc 1 423 20
 1028 0111 4889C7   		movq	%rax, %rdi
 1029 0114 E8000000 		call	strlen@PLT
 1029      00
 1030              		.loc 1 423 17
 1031 0119 89C2     		movl	%eax, %edx
 1032 011b 8B45E4   		movl	-28(%rbp), %eax
 1033 011e 01D0     		addl	%edx, %eax
 1034 0120 83C001   		addl	$1, %eax
 1035 0123 8945E4   		movl	%eax, -28(%rbp)
 1036              	.L49:
 424:/home/xingli/share/1205tiny/oc/oc_mqtt/oc_mqtt_tiny_v5/oc_mqtt_tiny.c ****     }
 425:/home/xingli/share/1205tiny/oc/oc_mqtt/oc_mqtt_tiny_v5/oc_mqtt_tiny.c ****     mem_len += strlen(config->server_addr) + 1;
 1037              		.loc 1 425 29
 1038 0126 488B45D0 		movq	-48(%rbp), %rax
 1039 012a 488B4008 		movq	8(%rax), %rax
GAS LISTING /tmp/cc7S055g.s 			page 32


 1040              		.loc 1 425 16
 1041 012e 4889C7   		movq	%rax, %rdi
 1042 0131 E8000000 		call	strlen@PLT
 1042      00
 1043              		.loc 1 425 13
 1044 0136 89C2     		movl	%eax, %edx
 1045 0138 8B45E4   		movl	-28(%rbp), %eax
 1046 013b 01D0     		addl	%edx, %eax
 1047 013d 83C001   		addl	$1, %eax
 1048 0140 8945E4   		movl	%eax, -28(%rbp)
 426:/home/xingli/share/1205tiny/oc/oc_mqtt/oc_mqtt_tiny_v5/oc_mqtt_tiny.c ****     mem_len += strlen(config->server_port) + 1;
 1049              		.loc 1 426 29
 1050 0143 488B45D0 		movq	-48(%rbp), %rax
 1051 0147 488B4010 		movq	16(%rax), %rax
 1052              		.loc 1 426 16
 1053 014b 4889C7   		movq	%rax, %rdi
 1054 014e E8000000 		call	strlen@PLT
 1054      00
 1055              		.loc 1 426 13
 1056 0153 89C2     		movl	%eax, %edx
 1057 0155 8B45E4   		movl	-28(%rbp), %eax
 1058 0158 01D0     		addl	%edx, %eax
 1059 015a 83C001   		addl	$1, %eax
 1060 015d 8945E4   		movl	%eax, -28(%rbp)
 427:/home/xingli/share/1205tiny/oc/oc_mqtt/oc_mqtt_tiny_v5/oc_mqtt_tiny.c ****     ////< now we
 428:/home/xingli/share/1205tiny/oc/oc_mqtt/oc_mqtt_tiny_v5/oc_mqtt_tiny.c ****     mem_buf = osal_malloc(mem_len);
 1061              		.loc 1 428 15
 1062 0160 8B45E4   		movl	-28(%rbp), %eax
 1063 0163 4898     		cltq
 1064 0165 4889C7   		movq	%rax, %rdi
 1065 0168 E8000000 		call	osal_malloc@PLT
 1065      00
 1066 016d 488945F0 		movq	%rax, -16(%rbp)
 429:/home/xingli/share/1205tiny/oc/oc_mqtt/oc_mqtt_tiny_v5/oc_mqtt_tiny.c ****     if( NULL == mem_buf )
 1067              		.loc 1 429 7
 1068 0171 48837DF0 		cmpq	$0, -16(%rbp)
 1068      00
 1069 0176 7508     		jne	.L50
 430:/home/xingli/share/1205tiny/oc/oc_mqtt/oc_mqtt_tiny_v5/oc_mqtt_tiny.c ****     {
 431:/home/xingli/share/1205tiny/oc/oc_mqtt/oc_mqtt_tiny_v5/oc_mqtt_tiny.c ****         return ret;
 1070              		.loc 1 431 16
 1071 0178 8B45EC   		movl	-20(%rbp), %eax
 1072 017b E9770400 		jmp	.L51
 1072      00
 1073              	.L50:
 432:/home/xingli/share/1205tiny/oc/oc_mqtt/oc_mqtt_tiny_v5/oc_mqtt_tiny.c ****     }
 433:/home/xingli/share/1205tiny/oc/oc_mqtt/oc_mqtt_tiny_v5/oc_mqtt_tiny.c **** 
 434:/home/xingli/share/1205tiny/oc/oc_mqtt/oc_mqtt_tiny_v5/oc_mqtt_tiny.c ****     /// now we copy the parameter
 435:/home/xingli/share/1205tiny/oc/oc_mqtt/oc_mqtt_tiny_v5/oc_mqtt_tiny.c ****     (void) memset( &cb->config, 0 ,sizeof(cb->config) );
 1074              		.loc 1 435 20
 1075 0180 488B45D8 		movq	-40(%rbp), %rax
 1076 0184 4883C010 		addq	$16, %rax
 1077              		.loc 1 435 12
 1078 0188 BA880000 		movl	$136, %edx
 1078      00
 1079 018d BE000000 		movl	$0, %esi
 1079      00
GAS LISTING /tmp/cc7S055g.s 			page 33


 1080 0192 4889C7   		movq	%rax, %rdi
 1081 0195 E8000000 		call	memset@PLT
 1081      00
 436:/home/xingli/share/1205tiny/oc/oc_mqtt/oc_mqtt_tiny_v5/oc_mqtt_tiny.c **** 
 437:/home/xingli/share/1205tiny/oc/oc_mqtt/oc_mqtt_tiny_v5/oc_mqtt_tiny.c ****     if( config->boot_mode == en_oc_mqtt_mode_bs_static_nodeid_hmacsha256_notimecheck_json )
 1082              		.loc 1 437 15
 1083 019a 488B45D0 		movq	-48(%rbp), %rax
 1084 019e 8B00     		movl	(%rax), %eax
 1085              		.loc 1 437 7
 1086 01a0 85C0     		testl	%eax, %eax
 1087 01a2 7516     		jne	.L52
 438:/home/xingli/share/1205tiny/oc/oc_mqtt/oc_mqtt_tiny_v5/oc_mqtt_tiny.c ****     {
 439:/home/xingli/share/1205tiny/oc/oc_mqtt/oc_mqtt_tiny_v5/oc_mqtt_tiny.c ****         cb->flag.bits.bit_bs_enable = 1;
 1088              		.loc 1 439 37
 1089 01a4 488B45D8 		movq	-40(%rbp), %rax
 1090 01a8 0FB690E0 		movzbl	224(%rax), %edx
 1090      000000
 1091 01af 83CA01   		orl	$1, %edx
 1092 01b2 8890E000 		movb	%dl, 224(%rax)
 1092      0000
 1093 01b8 EB14     		jmp	.L53
 1094              	.L52:
 440:/home/xingli/share/1205tiny/oc/oc_mqtt/oc_mqtt_tiny_v5/oc_mqtt_tiny.c ****     }
 441:/home/xingli/share/1205tiny/oc/oc_mqtt/oc_mqtt_tiny_v5/oc_mqtt_tiny.c ****     else
 442:/home/xingli/share/1205tiny/oc/oc_mqtt/oc_mqtt_tiny_v5/oc_mqtt_tiny.c ****     {
 443:/home/xingli/share/1205tiny/oc/oc_mqtt/oc_mqtt_tiny_v5/oc_mqtt_tiny.c ****         cb->flag.bits.bit_bs_enable = 0;
 1095              		.loc 1 443 37
 1096 01ba 488B45D8 		movq	-40(%rbp), %rax
 1097 01be 0FB690E0 		movzbl	224(%rax), %edx
 1097      000000
 1098 01c5 83E2FE   		andl	$-2, %edx
 1099 01c8 8890E000 		movb	%dl, 224(%rax)
 1099      0000
 1100              	.L53:
 444:/home/xingli/share/1205tiny/oc/oc_mqtt/oc_mqtt_tiny_v5/oc_mqtt_tiny.c ****     }
 445:/home/xingli/share/1205tiny/oc/oc_mqtt/oc_mqtt_tiny_v5/oc_mqtt_tiny.c ****     cb->config.boot_mode  = config->boot_mode;
 1101              		.loc 1 445 35
 1102 01ce 488B45D0 		movq	-48(%rbp), %rax
 1103 01d2 8B10     		movl	(%rax), %edx
 1104              		.loc 1 445 27
 1105 01d4 488B45D8 		movq	-40(%rbp), %rax
 1106 01d8 895010   		movl	%edx, 16(%rax)
 446:/home/xingli/share/1205tiny/oc/oc_mqtt/oc_mqtt_tiny_v5/oc_mqtt_tiny.c ****     cb->config.lifetime = config->lifetime;
 1107              		.loc 1 446 33
 1108 01db 488B45D0 		movq	-48(%rbp), %rax
 1109 01df 0FB75004 		movzwl	4(%rax), %edx
 1110              		.loc 1 446 25
 1111 01e3 488B45D8 		movq	-40(%rbp), %rax
 1112 01e7 66895014 		movw	%dx, 20(%rax)
 447:/home/xingli/share/1205tiny/oc/oc_mqtt/oc_mqtt_tiny_v5/oc_mqtt_tiny.c ****     cb->config.msg_deal = config->msg_deal;
 1113              		.loc 1 447 33
 1114 01eb 488B45D0 		movq	-48(%rbp), %rax
 1115 01ef 488B5070 		movq	112(%rax), %rdx
 1116              		.loc 1 447 25
 1117 01f3 488B45D8 		movq	-40(%rbp), %rax
 1118 01f7 48899080 		movq	%rdx, 128(%rax)
 1118      000000
GAS LISTING /tmp/cc7S055g.s 			page 34


 448:/home/xingli/share/1205tiny/oc/oc_mqtt/oc_mqtt_tiny_v5/oc_mqtt_tiny.c ****     cb->config.msg_deal_arg = config->msg_deal_arg;
 1119              		.loc 1 448 37
 1120 01fe 488B45D0 		movq	-48(%rbp), %rax
 1121 0202 488B5078 		movq	120(%rax), %rdx
 1122              		.loc 1 448 29
 1123 0206 488B45D8 		movq	-40(%rbp), %rax
 1124 020a 48899088 		movq	%rdx, 136(%rax)
 1124      000000
 449:/home/xingli/share/1205tiny/oc/oc_mqtt/oc_mqtt_tiny_v5/oc_mqtt_tiny.c ****     cb->config.log_dealer  = config->log_dealer;
 1125              		.loc 1 449 36
 1126 0211 488B45D0 		movq	-48(%rbp), %rax
 1127 0215 488B9080 		movq	128(%rax), %rdx
 1127      000000
 1128              		.loc 1 449 28
 1129 021c 488B45D8 		movq	-40(%rbp), %rax
 1130 0220 48899090 		movq	%rdx, 144(%rax)
 1130      000000
 450:/home/xingli/share/1205tiny/oc/oc_mqtt/oc_mqtt_tiny_v5/oc_mqtt_tiny.c **** 
 451:/home/xingli/share/1205tiny/oc/oc_mqtt/oc_mqtt_tiny_v5/oc_mqtt_tiny.c ****     cb->config_mem = mem_buf; ///< this is the membuf
 1131              		.loc 1 451 20
 1132 0227 488B45D8 		movq	-40(%rbp), %rax
 1133 022b 488B55F0 		movq	-16(%rbp), %rdx
 1134 022f 48895008 		movq	%rdx, 8(%rax)
 452:/home/xingli/share/1205tiny/oc/oc_mqtt/oc_mqtt_tiny_v5/oc_mqtt_tiny.c **** 
 453:/home/xingli/share/1205tiny/oc/oc_mqtt/oc_mqtt_tiny_v5/oc_mqtt_tiny.c ****     cb->config.id = mem_buf;
 1135              		.loc 1 453 19
 1136 0233 488B45D8 		movq	-40(%rbp), %rax
 1137 0237 488B55F0 		movq	-16(%rbp), %rdx
 1138 023b 48895068 		movq	%rdx, 104(%rax)
 454:/home/xingli/share/1205tiny/oc/oc_mqtt/oc_mqtt_tiny_v5/oc_mqtt_tiny.c ****     (void) strncpy( mem_buf,config->id,strlen(config->id)+1 );
 1139              		.loc 1 454 53
 1140 023f 488B45D0 		movq	-48(%rbp), %rax
 1141 0243 488B4058 		movq	88(%rax), %rax
 1142              		.loc 1 454 40
 1143 0247 4889C7   		movq	%rax, %rdi
 1144 024a E8000000 		call	strlen@PLT
 1144      00
 1145              		.loc 1 454 12
 1146 024f 488D5001 		leaq	1(%rax), %rdx
 1147              		.loc 1 454 35
 1148 0253 488B45D0 		movq	-48(%rbp), %rax
 1149 0257 488B4858 		movq	88(%rax), %rcx
 1150              		.loc 1 454 12
 1151 025b 488B45F0 		movq	-16(%rbp), %rax
 1152 025f 4889CE   		movq	%rcx, %rsi
 1153 0262 4889C7   		movq	%rax, %rdi
 1154 0265 E8000000 		call	strncpy@PLT
 1154      00
 455:/home/xingli/share/1205tiny/oc/oc_mqtt/oc_mqtt_tiny_v5/oc_mqtt_tiny.c ****     mem_buf += strlen(config->id) + 1;
 1155              		.loc 1 455 29
 1156 026a 488B45D0 		movq	-48(%rbp), %rax
 1157 026e 488B4058 		movq	88(%rax), %rax
 1158              		.loc 1 455 16
 1159 0272 4889C7   		movq	%rax, %rdi
 1160 0275 E8000000 		call	strlen@PLT
 1160      00
 1161              		.loc 1 455 13
GAS LISTING /tmp/cc7S055g.s 			page 35


 1162 027a 4883C001 		addq	$1, %rax
 1163 027e 480145F0 		addq	%rax, -16(%rbp)
 456:/home/xingli/share/1205tiny/oc/oc_mqtt/oc_mqtt_tiny_v5/oc_mqtt_tiny.c **** 
 457:/home/xingli/share/1205tiny/oc/oc_mqtt/oc_mqtt_tiny_v5/oc_mqtt_tiny.c ****     if ( NULL != config->pwd )
 1164              		.loc 1 457 24
 1165 0282 488B45D0 		movq	-48(%rbp), %rax
 1166 0286 488B4060 		movq	96(%rax), %rax
 1167              		.loc 1 457 8
 1168 028a 4885C0   		testq	%rax, %rax
 1169 028d 7451     		je	.L54
 458:/home/xingli/share/1205tiny/oc/oc_mqtt/oc_mqtt_tiny_v5/oc_mqtt_tiny.c ****     {
 459:/home/xingli/share/1205tiny/oc/oc_mqtt/oc_mqtt_tiny_v5/oc_mqtt_tiny.c ****         (void) strncpy( mem_buf, config->pwd ,strlen(config->pwd)+1);
 1170              		.loc 1 459 60
 1171 028f 488B45D0 		movq	-48(%rbp), %rax
 1172 0293 488B4060 		movq	96(%rax), %rax
 1173              		.loc 1 459 47
 1174 0297 4889C7   		movq	%rax, %rdi
 1175 029a E8000000 		call	strlen@PLT
 1175      00
 1176              		.loc 1 459 16
 1177 029f 488D5001 		leaq	1(%rax), %rdx
 1178              		.loc 1 459 40
 1179 02a3 488B45D0 		movq	-48(%rbp), %rax
 1180 02a7 488B4860 		movq	96(%rax), %rcx
 1181              		.loc 1 459 16
 1182 02ab 488B45F0 		movq	-16(%rbp), %rax
 1183 02af 4889CE   		movq	%rcx, %rsi
 1184 02b2 4889C7   		movq	%rax, %rdi
 1185 02b5 E8000000 		call	strncpy@PLT
 1185      00
 460:/home/xingli/share/1205tiny/oc/oc_mqtt/oc_mqtt_tiny_v5/oc_mqtt_tiny.c ****         cb->config.pwd = mem_buf;
 1186              		.loc 1 460 24
 1187 02ba 488B45D8 		movq	-40(%rbp), %rax
 1188 02be 488B55F0 		movq	-16(%rbp), %rdx
 1189 02c2 48895070 		movq	%rdx, 112(%rax)
 461:/home/xingli/share/1205tiny/oc/oc_mqtt/oc_mqtt_tiny_v5/oc_mqtt_tiny.c ****         mem_buf += strlen( config->pwd ) + 1;
 1190              		.loc 1 461 34
 1191 02c6 488B45D0 		movq	-48(%rbp), %rax
 1192 02ca 488B4060 		movq	96(%rax), %rax
 1193              		.loc 1 461 20
 1194 02ce 4889C7   		movq	%rax, %rdi
 1195 02d1 E8000000 		call	strlen@PLT
 1195      00
 1196              		.loc 1 461 17
 1197 02d6 4883C001 		addq	$1, %rax
 1198 02da 480145F0 		addq	%rax, -16(%rbp)
 1199 02de EB0C     		jmp	.L55
 1200              	.L54:
 462:/home/xingli/share/1205tiny/oc/oc_mqtt/oc_mqtt_tiny_v5/oc_mqtt_tiny.c ****     }
 463:/home/xingli/share/1205tiny/oc/oc_mqtt/oc_mqtt_tiny_v5/oc_mqtt_tiny.c ****     else
 464:/home/xingli/share/1205tiny/oc/oc_mqtt/oc_mqtt_tiny_v5/oc_mqtt_tiny.c ****     {
 465:/home/xingli/share/1205tiny/oc/oc_mqtt/oc_mqtt_tiny_v5/oc_mqtt_tiny.c ****         cb->config.pwd = NULL;
 1201              		.loc 1 465 24
 1202 02e0 488B45D8 		movq	-40(%rbp), %rax
 1203 02e4 48C74070 		movq	$0, 112(%rax)
 1203      00000000 
 1204              	.L55:
GAS LISTING /tmp/cc7S055g.s 			page 36


 466:/home/xingli/share/1205tiny/oc/oc_mqtt/oc_mqtt_tiny_v5/oc_mqtt_tiny.c ****     }
 467:/home/xingli/share/1205tiny/oc/oc_mqtt/oc_mqtt_tiny_v5/oc_mqtt_tiny.c **** 
 468:/home/xingli/share/1205tiny/oc/oc_mqtt/oc_mqtt_tiny_v5/oc_mqtt_tiny.c ****     if (NULL != config->scope_id)
 1205              		.loc 1 468 23
 1206 02ec 488B45D0 		movq	-48(%rbp), %rax
 1207 02f0 488B4068 		movq	104(%rax), %rax
 1208              		.loc 1 468 8
 1209 02f4 4885C0   		testq	%rax, %rax
 1210 02f7 7451     		je	.L56
 469:/home/xingli/share/1205tiny/oc/oc_mqtt/oc_mqtt_tiny_v5/oc_mqtt_tiny.c ****     {
 470:/home/xingli/share/1205tiny/oc/oc_mqtt/oc_mqtt_tiny_v5/oc_mqtt_tiny.c ****         (void) strncpy( mem_buf, config->scope_id ,strlen(config->scope_id)+1);
 1211              		.loc 1 470 65
 1212 02f9 488B45D0 		movq	-48(%rbp), %rax
 1213 02fd 488B4068 		movq	104(%rax), %rax
 1214              		.loc 1 470 52
 1215 0301 4889C7   		movq	%rax, %rdi
 1216 0304 E8000000 		call	strlen@PLT
 1216      00
 1217              		.loc 1 470 16
 1218 0309 488D5001 		leaq	1(%rax), %rdx
 1219              		.loc 1 470 40
 1220 030d 488B45D0 		movq	-48(%rbp), %rax
 1221 0311 488B4868 		movq	104(%rax), %rcx
 1222              		.loc 1 470 16
 1223 0315 488B45F0 		movq	-16(%rbp), %rax
 1224 0319 4889CE   		movq	%rcx, %rsi
 1225 031c 4889C7   		movq	%rax, %rdi
 1226 031f E8000000 		call	strncpy@PLT
 1226      00
 471:/home/xingli/share/1205tiny/oc/oc_mqtt/oc_mqtt_tiny_v5/oc_mqtt_tiny.c ****         cb->config.scope_id = mem_buf;
 1227              		.loc 1 471 29
 1228 0324 488B45D8 		movq	-40(%rbp), %rax
 1229 0328 488B55F0 		movq	-16(%rbp), %rdx
 1230 032c 48895078 		movq	%rdx, 120(%rax)
 472:/home/xingli/share/1205tiny/oc/oc_mqtt/oc_mqtt_tiny_v5/oc_mqtt_tiny.c ****         mem_buf += strlen( config->scope_id ) + 1;
 1231              		.loc 1 472 34
 1232 0330 488B45D0 		movq	-48(%rbp), %rax
 1233 0334 488B4068 		movq	104(%rax), %rax
 1234              		.loc 1 472 20
 1235 0338 4889C7   		movq	%rax, %rdi
 1236 033b E8000000 		call	strlen@PLT
 1236      00
 1237              		.loc 1 472 17
 1238 0340 4883C001 		addq	$1, %rax
 1239 0344 480145F0 		addq	%rax, -16(%rbp)
 1240 0348 EB0C     		jmp	.L57
 1241              	.L56:
 473:/home/xingli/share/1205tiny/oc/oc_mqtt/oc_mqtt_tiny_v5/oc_mqtt_tiny.c ****     }
 474:/home/xingli/share/1205tiny/oc/oc_mqtt/oc_mqtt_tiny_v5/oc_mqtt_tiny.c ****     else
 475:/home/xingli/share/1205tiny/oc/oc_mqtt/oc_mqtt_tiny_v5/oc_mqtt_tiny.c ****     {
 476:/home/xingli/share/1205tiny/oc/oc_mqtt/oc_mqtt_tiny_v5/oc_mqtt_tiny.c ****         cb->config.scope_id = NULL;
 1242              		.loc 1 476 29
 1243 034a 488B45D8 		movq	-40(%rbp), %rax
 1244 034e 48C74078 		movq	$0, 120(%rax)
 1244      00000000 
 1245              	.L57:
 477:/home/xingli/share/1205tiny/oc/oc_mqtt/oc_mqtt_tiny_v5/oc_mqtt_tiny.c ****     }
GAS LISTING /tmp/cc7S055g.s 			page 37


 478:/home/xingli/share/1205tiny/oc/oc_mqtt/oc_mqtt_tiny_v5/oc_mqtt_tiny.c **** 
 479:/home/xingli/share/1205tiny/oc/oc_mqtt/oc_mqtt_tiny_v5/oc_mqtt_tiny.c ****     (void) strncpy( mem_buf,config->server_addr,strlen(config->server_addr)+1 );
 1246              		.loc 1 479 62
 1247 0356 488B45D0 		movq	-48(%rbp), %rax
 1248 035a 488B4008 		movq	8(%rax), %rax
 1249              		.loc 1 479 49
 1250 035e 4889C7   		movq	%rax, %rdi
 1251 0361 E8000000 		call	strlen@PLT
 1251      00
 1252              		.loc 1 479 12
 1253 0366 488D5001 		leaq	1(%rax), %rdx
 1254              		.loc 1 479 35
 1255 036a 488B45D0 		movq	-48(%rbp), %rax
 1256 036e 488B4808 		movq	8(%rax), %rcx
 1257              		.loc 1 479 12
 1258 0372 488B45F0 		movq	-16(%rbp), %rax
 1259 0376 4889CE   		movq	%rcx, %rsi
 1260 0379 4889C7   		movq	%rax, %rdi
 1261 037c E8000000 		call	strncpy@PLT
 1261      00
 480:/home/xingli/share/1205tiny/oc/oc_mqtt/oc_mqtt_tiny_v5/oc_mqtt_tiny.c ****     cb->config.server_addr = mem_buf;
 1262              		.loc 1 480 28
 1263 0381 488B45D8 		movq	-40(%rbp), %rax
 1264 0385 488B55F0 		movq	-16(%rbp), %rdx
 1265 0389 48895018 		movq	%rdx, 24(%rax)
 481:/home/xingli/share/1205tiny/oc/oc_mqtt/oc_mqtt_tiny_v5/oc_mqtt_tiny.c ****     mem_buf += strlen(config->server_addr) + 1;
 1266              		.loc 1 481 29
 1267 038d 488B45D0 		movq	-48(%rbp), %rax
 1268 0391 488B4008 		movq	8(%rax), %rax
 1269              		.loc 1 481 16
 1270 0395 4889C7   		movq	%rax, %rdi
 1271 0398 E8000000 		call	strlen@PLT
 1271      00
 1272              		.loc 1 481 13
 1273 039d 4883C001 		addq	$1, %rax
 1274 03a1 480145F0 		addq	%rax, -16(%rbp)
 482:/home/xingli/share/1205tiny/oc/oc_mqtt/oc_mqtt_tiny_v5/oc_mqtt_tiny.c **** 
 483:/home/xingli/share/1205tiny/oc/oc_mqtt/oc_mqtt_tiny_v5/oc_mqtt_tiny.c ****     (void) strncpy( mem_buf,config->server_port,strlen(config->server_port) + 1 );
 1275              		.loc 1 483 62
 1276 03a5 488B45D0 		movq	-48(%rbp), %rax
 1277 03a9 488B4010 		movq	16(%rax), %rax
 1278              		.loc 1 483 49
 1279 03ad 4889C7   		movq	%rax, %rdi
 1280 03b0 E8000000 		call	strlen@PLT
 1280      00
 1281              		.loc 1 483 12
 1282 03b5 488D5001 		leaq	1(%rax), %rdx
 1283              		.loc 1 483 35
 1284 03b9 488B45D0 		movq	-48(%rbp), %rax
 1285 03bd 488B4810 		movq	16(%rax), %rcx
 1286              		.loc 1 483 12
 1287 03c1 488B45F0 		movq	-16(%rbp), %rax
 1288 03c5 4889CE   		movq	%rcx, %rsi
 1289 03c8 4889C7   		movq	%rax, %rdi
 1290 03cb E8000000 		call	strncpy@PLT
 1290      00
 484:/home/xingli/share/1205tiny/oc/oc_mqtt/oc_mqtt_tiny_v5/oc_mqtt_tiny.c ****     cb->config.server_port = mem_buf;
GAS LISTING /tmp/cc7S055g.s 			page 38


 1291              		.loc 1 484 28
 1292 03d0 488B45D8 		movq	-40(%rbp), %rax
 1293 03d4 488B55F0 		movq	-16(%rbp), %rdx
 1294 03d8 48895020 		movq	%rdx, 32(%rax)
 485:/home/xingli/share/1205tiny/oc/oc_mqtt/oc_mqtt_tiny_v5/oc_mqtt_tiny.c ****     mem_buf += strlen(config->server_port) + 1;
 1295              		.loc 1 485 29
 1296 03dc 488B45D0 		movq	-48(%rbp), %rax
 1297 03e0 488B4010 		movq	16(%rax), %rax
 1298              		.loc 1 485 16
 1299 03e4 4889C7   		movq	%rax, %rdi
 1300 03e7 E8000000 		call	strlen@PLT
 1300      00
 1301              		.loc 1 485 13
 1302 03ec 4883C001 		addq	$1, %rax
 1303 03f0 480145F0 		addq	%rax, -16(%rbp)
 486:/home/xingli/share/1205tiny/oc/oc_mqtt/oc_mqtt_tiny_v5/oc_mqtt_tiny.c **** 
 487:/home/xingli/share/1205tiny/oc/oc_mqtt/oc_mqtt_tiny_v5/oc_mqtt_tiny.c ****     cb->config.security.type = config->security.type;
 1304              		.loc 1 487 48
 1305 03f4 488B45D0 		movq	-48(%rbp), %rax
 1306 03f8 8B5018   		movl	24(%rax), %edx
 1307              		.loc 1 487 30
 1308 03fb 488B45D8 		movq	-40(%rbp), %rax
 1309 03ff 895028   		movl	%edx, 40(%rax)
 488:/home/xingli/share/1205tiny/oc/oc_mqtt/oc_mqtt_tiny_v5/oc_mqtt_tiny.c ****     if(config->security.type == EN_DTLS_AL_SECURITY_TYPE_CERT)
 1310              		.loc 1 488 24
 1311 0402 488B45D0 		movq	-48(%rbp), %rax
 1312 0406 8B4018   		movl	24(%rax), %eax
 1313              		.loc 1 488 7
 1314 0409 83F802   		cmpl	$2, %eax
 1315 040c 0F855B01 		jne	.L58
 1315      0000
 489:/home/xingli/share/1205tiny/oc/oc_mqtt/oc_mqtt_tiny_v5/oc_mqtt_tiny.c ****     {
 490:/home/xingli/share/1205tiny/oc/oc_mqtt/oc_mqtt_tiny_v5/oc_mqtt_tiny.c ****         if ( 0 != config->security.u.cert.server_ca_len)
 1316              		.loc 1 490 42
 1317 0412 488B45D0 		movq	-48(%rbp), %rax
 1318 0416 8B4040   		movl	64(%rax), %eax
 1319              		.loc 1 490 12
 1320 0419 85C0     		testl	%eax, %eax
 1321 041b 744A     		je	.L59
 491:/home/xingli/share/1205tiny/oc/oc_mqtt/oc_mqtt_tiny_v5/oc_mqtt_tiny.c ****         {
 492:/home/xingli/share/1205tiny/oc/oc_mqtt/oc_mqtt_tiny_v5/oc_mqtt_tiny.c ****             cb->config.security.u.cert.server_ca_len = config->security.u.cert.server_ca_len;
 1322              		.loc 1 492 79
 1323 041d 488B45D0 		movq	-48(%rbp), %rax
 1324 0421 8B5040   		movl	64(%rax), %edx
 1325              		.loc 1 492 54
 1326 0424 488B45D8 		movq	-40(%rbp), %rax
 1327 0428 895050   		movl	%edx, 80(%rax)
 493:/home/xingli/share/1205tiny/oc/oc_mqtt/oc_mqtt_tiny_v5/oc_mqtt_tiny.c ****             (void) memcpy( mem_buf, config->security.u.cert.server_ca, config->security.u.cert.serv
 1328              		.loc 1 493 95
 1329 042b 488B45D0 		movq	-48(%rbp), %rax
 1330 042f 8B4040   		movl	64(%rax), %eax
 1331              		.loc 1 493 20
 1332 0432 4863D0   		movslq	%eax, %rdx
 1333              		.loc 1 493 60
 1334 0435 488B45D0 		movq	-48(%rbp), %rax
 1335 0439 488B4820 		movq	32(%rax), %rcx
 1336              		.loc 1 493 20
GAS LISTING /tmp/cc7S055g.s 			page 39


 1337 043d 488B45F0 		movq	-16(%rbp), %rax
 1338 0441 4889CE   		movq	%rcx, %rsi
 1339 0444 4889C7   		movq	%rax, %rdi
 1340 0447 E8000000 		call	memcpy@PLT
 1340      00
 494:/home/xingli/share/1205tiny/oc/oc_mqtt/oc_mqtt_tiny_v5/oc_mqtt_tiny.c ****             cb->config.security.u.cert.server_ca = (uint8_t *)mem_buf;
 1341              		.loc 1 494 50
 1342 044c 488B45D8 		movq	-40(%rbp), %rax
 1343 0450 488B55F0 		movq	-16(%rbp), %rdx
 1344 0454 48895030 		movq	%rdx, 48(%rax)
 495:/home/xingli/share/1205tiny/oc/oc_mqtt/oc_mqtt_tiny_v5/oc_mqtt_tiny.c ****             mem_buf += config->security.u.cert.server_ca_len;
 1345              		.loc 1 495 47
 1346 0458 488B45D0 		movq	-48(%rbp), %rax
 1347 045c 8B4040   		movl	64(%rax), %eax
 1348 045f 4898     		cltq
 1349              		.loc 1 495 21
 1350 0461 480145F0 		addq	%rax, -16(%rbp)
 1351 0465 EB1A     		jmp	.L60
 1352              	.L59:
 496:/home/xingli/share/1205tiny/oc/oc_mqtt/oc_mqtt_tiny_v5/oc_mqtt_tiny.c ****         }
 497:/home/xingli/share/1205tiny/oc/oc_mqtt/oc_mqtt_tiny_v5/oc_mqtt_tiny.c ****         else
 498:/home/xingli/share/1205tiny/oc/oc_mqtt/oc_mqtt_tiny_v5/oc_mqtt_tiny.c ****         {
 499:/home/xingli/share/1205tiny/oc/oc_mqtt/oc_mqtt_tiny_v5/oc_mqtt_tiny.c ****             cb->config.security.u.cert.server_ca  =  (uint8_t *) s_oc_mqtt_ca_crt;
 1353              		.loc 1 499 51
 1354 0467 488B45D8 		movq	-40(%rbp), %rax
 1355 046b 488D1500 		leaq	s_oc_mqtt_ca_crt(%rip), %rdx
 1355      000000
 1356 0472 48895030 		movq	%rdx, 48(%rax)
 500:/home/xingli/share/1205tiny/oc/oc_mqtt/oc_mqtt_tiny_v5/oc_mqtt_tiny.c ****             cb->config.security.u.cert.server_ca_len = sizeof( s_oc_mqtt_ca_crt );
 1357              		.loc 1 500 54
 1358 0476 488B45D8 		movq	-40(%rbp), %rax
 1359 047a C7405052 		movl	$1362, 80(%rax)
 1359      050000
 1360              	.L60:
 501:/home/xingli/share/1205tiny/oc/oc_mqtt/oc_mqtt_tiny_v5/oc_mqtt_tiny.c ****         }
 502:/home/xingli/share/1205tiny/oc/oc_mqtt/oc_mqtt_tiny_v5/oc_mqtt_tiny.c **** 
 503:/home/xingli/share/1205tiny/oc/oc_mqtt/oc_mqtt_tiny_v5/oc_mqtt_tiny.c ****         if ( 0 != config->security.u.cert.client_ca_len)
 1361              		.loc 1 503 42
 1362 0481 488B45D0 		movq	-48(%rbp), %rax
 1363 0485 8B4044   		movl	68(%rax), %eax
 1364              		.loc 1 503 12
 1365 0488 85C0     		testl	%eax, %eax
 1366 048a 7448     		je	.L61
 504:/home/xingli/share/1205tiny/oc/oc_mqtt/oc_mqtt_tiny_v5/oc_mqtt_tiny.c ****         {
 505:/home/xingli/share/1205tiny/oc/oc_mqtt/oc_mqtt_tiny_v5/oc_mqtt_tiny.c ****             cb->config.security.u.cert.client_ca_len =  config->security.u.cert.client_ca_len;
 1367              		.loc 1 505 80
 1368 048c 488B45D0 		movq	-48(%rbp), %rax
 1369 0490 8B5044   		movl	68(%rax), %edx
 1370              		.loc 1 505 54
 1371 0493 488B45D8 		movq	-40(%rbp), %rax
 1372 0497 895054   		movl	%edx, 84(%rax)
 506:/home/xingli/share/1205tiny/oc/oc_mqtt/oc_mqtt_tiny_v5/oc_mqtt_tiny.c ****             (void) memcpy( mem_buf, config->security.u.cert.client_ca, config->security.u.cert.clie
 1373              		.loc 1 506 95
 1374 049a 488B45D0 		movq	-48(%rbp), %rax
 1375 049e 8B4044   		movl	68(%rax), %eax
 1376              		.loc 1 506 20
 1377 04a1 4863D0   		movslq	%eax, %rdx
GAS LISTING /tmp/cc7S055g.s 			page 40


 1378              		.loc 1 506 60
 1379 04a4 488B45D0 		movq	-48(%rbp), %rax
 1380 04a8 488B4828 		movq	40(%rax), %rcx
 1381              		.loc 1 506 20
 1382 04ac 488B45F0 		movq	-16(%rbp), %rax
 1383 04b0 4889CE   		movq	%rcx, %rsi
 1384 04b3 4889C7   		movq	%rax, %rdi
 1385 04b6 E8000000 		call	memcpy@PLT
 1385      00
 507:/home/xingli/share/1205tiny/oc/oc_mqtt/oc_mqtt_tiny_v5/oc_mqtt_tiny.c ****             cb->config.security.u.cert.client_ca = (uint8_t *)mem_buf;
 1386              		.loc 1 507 50
 1387 04bb 488B45D8 		movq	-40(%rbp), %rax
 1388 04bf 488B55F0 		movq	-16(%rbp), %rdx
 1389 04c3 48895038 		movq	%rdx, 56(%rax)
 508:/home/xingli/share/1205tiny/oc/oc_mqtt/oc_mqtt_tiny_v5/oc_mqtt_tiny.c ****             mem_buf += config->security.u.cert.client_ca_len;
 1390              		.loc 1 508 47
 1391 04c7 488B45D0 		movq	-48(%rbp), %rax
 1392 04cb 8B4044   		movl	68(%rax), %eax
 1393 04ce 4898     		cltq
 1394              		.loc 1 508 21
 1395 04d0 480145F0 		addq	%rax, -16(%rbp)
 1396              	.L61:
 509:/home/xingli/share/1205tiny/oc/oc_mqtt/oc_mqtt_tiny_v5/oc_mqtt_tiny.c ****         }
 510:/home/xingli/share/1205tiny/oc/oc_mqtt/oc_mqtt_tiny_v5/oc_mqtt_tiny.c **** 
 511:/home/xingli/share/1205tiny/oc/oc_mqtt/oc_mqtt_tiny_v5/oc_mqtt_tiny.c ****         if ( 0 != config->security.u.cert.client_pk_len)
 1397              		.loc 1 511 42
 1398 04d4 488B45D0 		movq	-48(%rbp), %rax
 1399 04d8 8B4048   		movl	72(%rax), %eax
 1400              		.loc 1 511 12
 1401 04db 85C0     		testl	%eax, %eax
 1402 04dd 7448     		je	.L62
 512:/home/xingli/share/1205tiny/oc/oc_mqtt/oc_mqtt_tiny_v5/oc_mqtt_tiny.c ****         {
 513:/home/xingli/share/1205tiny/oc/oc_mqtt/oc_mqtt_tiny_v5/oc_mqtt_tiny.c ****             cb->config.security.u.cert.client_pk_len =  config->security.u.cert.client_pk_len;
 1403              		.loc 1 513 80
 1404 04df 488B45D0 		movq	-48(%rbp), %rax
 1405 04e3 8B5048   		movl	72(%rax), %edx
 1406              		.loc 1 513 54
 1407 04e6 488B45D8 		movq	-40(%rbp), %rax
 1408 04ea 895058   		movl	%edx, 88(%rax)
 514:/home/xingli/share/1205tiny/oc/oc_mqtt/oc_mqtt_tiny_v5/oc_mqtt_tiny.c ****             (void) memcpy( mem_buf, config->security.u.cert.client_pk, config->security.u.cert.clie
 1409              		.loc 1 514 95
 1410 04ed 488B45D0 		movq	-48(%rbp), %rax
 1411 04f1 8B4048   		movl	72(%rax), %eax
 1412              		.loc 1 514 20
 1413 04f4 4863D0   		movslq	%eax, %rdx
 1414              		.loc 1 514 60
 1415 04f7 488B45D0 		movq	-48(%rbp), %rax
 1416 04fb 488B4830 		movq	48(%rax), %rcx
 1417              		.loc 1 514 20
 1418 04ff 488B45F0 		movq	-16(%rbp), %rax
 1419 0503 4889CE   		movq	%rcx, %rsi
 1420 0506 4889C7   		movq	%rax, %rdi
 1421 0509 E8000000 		call	memcpy@PLT
 1421      00
 515:/home/xingli/share/1205tiny/oc/oc_mqtt/oc_mqtt_tiny_v5/oc_mqtt_tiny.c ****             cb->config.security.u.cert.client_pk = (uint8_t *)mem_buf;
 1422              		.loc 1 515 50
 1423 050e 488B45D8 		movq	-40(%rbp), %rax
GAS LISTING /tmp/cc7S055g.s 			page 41


 1424 0512 488B55F0 		movq	-16(%rbp), %rdx
 1425 0516 48895040 		movq	%rdx, 64(%rax)
 516:/home/xingli/share/1205tiny/oc/oc_mqtt/oc_mqtt_tiny_v5/oc_mqtt_tiny.c ****             mem_buf += config->security.u.cert.client_pk_len;
 1426              		.loc 1 516 47
 1427 051a 488B45D0 		movq	-48(%rbp), %rax
 1428 051e 8B4048   		movl	72(%rax), %eax
 1429 0521 4898     		cltq
 1430              		.loc 1 516 21
 1431 0523 480145F0 		addq	%rax, -16(%rbp)
 1432              	.L62:
 517:/home/xingli/share/1205tiny/oc/oc_mqtt/oc_mqtt_tiny_v5/oc_mqtt_tiny.c ****         }
 518:/home/xingli/share/1205tiny/oc/oc_mqtt/oc_mqtt_tiny_v5/oc_mqtt_tiny.c **** 
 519:/home/xingli/share/1205tiny/oc/oc_mqtt/oc_mqtt_tiny_v5/oc_mqtt_tiny.c ****         if ( 0 != config->security.u.cert.client_pk_pwd_len)
 1433              		.loc 1 519 42
 1434 0527 488B45D0 		movq	-48(%rbp), %rax
 1435 052b 8B404C   		movl	76(%rax), %eax
 1436              		.loc 1 519 12
 1437 052e 85C0     		testl	%eax, %eax
 1438 0530 743B     		je	.L58
 520:/home/xingli/share/1205tiny/oc/oc_mqtt/oc_mqtt_tiny_v5/oc_mqtt_tiny.c ****         {
 521:/home/xingli/share/1205tiny/oc/oc_mqtt/oc_mqtt_tiny_v5/oc_mqtt_tiny.c ****             cb->config.security.u.cert.client_pk_pwd_len = config->security.u.cert.client_pk_pwd_le
 1439              		.loc 1 521 83
 1440 0532 488B45D0 		movq	-48(%rbp), %rax
 1441 0536 8B504C   		movl	76(%rax), %edx
 1442              		.loc 1 521 58
 1443 0539 488B45D8 		movq	-40(%rbp), %rax
 1444 053d 89505C   		movl	%edx, 92(%rax)
 522:/home/xingli/share/1205tiny/oc/oc_mqtt/oc_mqtt_tiny_v5/oc_mqtt_tiny.c ****             (void) memcpy( mem_buf, config->security.u.cert.client_pk_pwd, config->security.u.cert.
 1445              		.loc 1 522 99
 1446 0540 488B45D0 		movq	-48(%rbp), %rax
 1447 0544 8B404C   		movl	76(%rax), %eax
 1448              		.loc 1 522 20
 1449 0547 4863D0   		movslq	%eax, %rdx
 1450              		.loc 1 522 60
 1451 054a 488B45D0 		movq	-48(%rbp), %rax
 1452 054e 488B4838 		movq	56(%rax), %rcx
 1453              		.loc 1 522 20
 1454 0552 488B45F0 		movq	-16(%rbp), %rax
 1455 0556 4889CE   		movq	%rcx, %rsi
 1456 0559 4889C7   		movq	%rax, %rdi
 1457 055c E8000000 		call	memcpy@PLT
 1457      00
 523:/home/xingli/share/1205tiny/oc/oc_mqtt/oc_mqtt_tiny_v5/oc_mqtt_tiny.c ****             cb->config.security.u.cert.client_pk_pwd = (uint8_t *)mem_buf;
 1458              		.loc 1 523 54
 1459 0561 488B45D8 		movq	-40(%rbp), %rax
 1460 0565 488B55F0 		movq	-16(%rbp), %rdx
 1461 0569 48895048 		movq	%rdx, 72(%rax)
 1462              	.L58:
 524:/home/xingli/share/1205tiny/oc/oc_mqtt/oc_mqtt_tiny_v5/oc_mqtt_tiny.c ****         }
 525:/home/xingli/share/1205tiny/oc/oc_mqtt/oc_mqtt_tiny_v5/oc_mqtt_tiny.c ****     }
 526:/home/xingli/share/1205tiny/oc/oc_mqtt/oc_mqtt_tiny_v5/oc_mqtt_tiny.c **** 
 527:/home/xingli/share/1205tiny/oc/oc_mqtt/oc_mqtt_tiny_v5/oc_mqtt_tiny.c ****     unsigned int i = 0;
 1463              		.loc 1 527 18
 1464 056d C745E800 		movl	$0, -24(%rbp)
 1464      000000
 528:/home/xingli/share/1205tiny/oc/oc_mqtt/oc_mqtt_tiny_v5/oc_mqtt_tiny.c ****     for(i = 0;i < CN_NEW_TOPIC_NUM;i++)
 1465              		.loc 1 528 11
GAS LISTING /tmp/cc7S055g.s 			page 42


 1466 0574 C745E800 		movl	$0, -24(%rbp)
 1466      000000
 1467              		.loc 1 528 5
 1468 057b EB6A     		jmp	.L63
 1469              	.L65:
 529:/home/xingli/share/1205tiny/oc/oc_mqtt/oc_mqtt_tiny_v5/oc_mqtt_tiny.c ****     {
 530:/home/xingli/share/1205tiny/oc/oc_mqtt/oc_mqtt_tiny_v5/oc_mqtt_tiny.c ****         cb->hub_sub_topic[i] = topic_fmt(s_new_topic_fmt[i],(const char *)cb->config.id);
 1470              		.loc 1 530 85
 1471 057d 488B45D8 		movq	-40(%rbp), %rax
 1472 0581 488B5068 		movq	104(%rax), %rdx
 1473              		.loc 1 530 32
 1474 0585 8B45E8   		movl	-24(%rbp), %eax
 1475 0588 488D0CC5 		leaq	0(,%rax,8), %rcx
 1475      00000000 
 1476 0590 488D0500 		leaq	s_new_topic_fmt(%rip), %rax
 1476      000000
 1477 0597 488B0401 		movq	(%rcx,%rax), %rax
 1478 059b 4889D6   		movq	%rdx, %rsi
 1479 059e 4889C7   		movq	%rax, %rdi
 1480 05a1 E8000000 		call	topic_fmt
 1480      00
 1481              		.loc 1 530 30
 1482 05a6 488B55D8 		movq	-40(%rbp), %rdx
 1483 05aa 8B4DE8   		movl	-24(%rbp), %ecx
 1484 05ad 4883C122 		addq	$34, %rcx
 1485 05b1 488944CA 		movq	%rax, 8(%rdx,%rcx,8)
 1485      08
 531:/home/xingli/share/1205tiny/oc/oc_mqtt/oc_mqtt_tiny_v5/oc_mqtt_tiny.c ****         if(NULL == cb->hub_sub_topic[i])
 1486              		.loc 1 531 37
 1487 05b6 488B45D8 		movq	-40(%rbp), %rax
 1488 05ba 8B55E8   		movl	-24(%rbp), %edx
 1489 05bd 4883C222 		addq	$34, %rdx
 1490 05c1 488B44D0 		movq	8(%rax,%rdx,8), %rax
 1490      08
 1491              		.loc 1 531 11
 1492 05c6 4885C0   		testq	%rax, %rax
 1493 05c9 7518     		jne	.L64
 532:/home/xingli/share/1205tiny/oc/oc_mqtt/oc_mqtt_tiny_v5/oc_mqtt_tiny.c ****         {
 533:/home/xingli/share/1205tiny/oc/oc_mqtt/oc_mqtt_tiny_v5/oc_mqtt_tiny.c ****             (void)config_parameter_release(cb);
 1494              		.loc 1 533 19
 1495 05cb 488B45D8 		movq	-40(%rbp), %rax
 1496 05cf 4889C7   		movq	%rax, %rdi
 1497 05d2 E8000000 		call	config_parameter_release
 1497      00
 534:/home/xingli/share/1205tiny/oc/oc_mqtt/oc_mqtt_tiny_v5/oc_mqtt_tiny.c ****             ret = (int)en_oc_mqtt_err_sysmem;
 1498              		.loc 1 534 17
 1499 05d7 C745EC0F 		movl	$15, -20(%rbp)
 1499      000000
 535:/home/xingli/share/1205tiny/oc/oc_mqtt/oc_mqtt_tiny_v5/oc_mqtt_tiny.c ****             return ret;
 1500              		.loc 1 535 20
 1501 05de 8B45EC   		movl	-20(%rbp), %eax
 1502 05e1 EB14     		jmp	.L51
 1503              	.L64:
 528:/home/xingli/share/1205tiny/oc/oc_mqtt/oc_mqtt_tiny_v5/oc_mqtt_tiny.c ****     {
 1504              		.loc 1 528 37 discriminator 2
 1505 05e3 8345E801 		addl	$1, -24(%rbp)
 1506              	.L63:
GAS LISTING /tmp/cc7S055g.s 			page 43


 528:/home/xingli/share/1205tiny/oc/oc_mqtt/oc_mqtt_tiny_v5/oc_mqtt_tiny.c ****     {
 1507              		.loc 1 528 5 discriminator 1
 1508 05e7 837DE804 		cmpl	$4, -24(%rbp)
 1509 05eb 7690     		jbe	.L65
 536:/home/xingli/share/1205tiny/oc/oc_mqtt/oc_mqtt_tiny_v5/oc_mqtt_tiny.c ****         }
 537:/home/xingli/share/1205tiny/oc/oc_mqtt/oc_mqtt_tiny_v5/oc_mqtt_tiny.c ****     }
 538:/home/xingli/share/1205tiny/oc/oc_mqtt/oc_mqtt_tiny_v5/oc_mqtt_tiny.c **** 
 539:/home/xingli/share/1205tiny/oc/oc_mqtt/oc_mqtt_tiny_v5/oc_mqtt_tiny.c ****     ret = (int)en_oc_mqtt_err_ok;
 1510              		.loc 1 539 9
 1511 05ed C745EC00 		movl	$0, -20(%rbp)
 1511      000000
 540:/home/xingli/share/1205tiny/oc/oc_mqtt/oc_mqtt_tiny_v5/oc_mqtt_tiny.c ****     return ret;
 1512              		.loc 1 540 12
 1513 05f4 8B45EC   		movl	-20(%rbp), %eax
 1514              	.L51:
 541:/home/xingli/share/1205tiny/oc/oc_mqtt/oc_mqtt_tiny_v5/oc_mqtt_tiny.c **** }
 1515              		.loc 1 541 1
 1516 05f7 488B75F8 		movq	-8(%rbp), %rsi
 1517 05fb 64483334 		xorq	%fs:40, %rsi
 1517      25280000 
 1517      00
 1518 0604 7405     		je	.L66
 1519 0606 E8000000 		call	__stack_chk_fail@PLT
 1519      00
 1520              	.L66:
 1521 060b C9       		leave
 1522              	.LCFI20:
 1523              		.cfi_def_cfa 7, 8
 1524 060c C3       		ret
 1525              		.cfi_endproc
 1526              	.LFE12:
 1528              		.section	.text.oc_mqtt_para_release,"ax",@progbits
 1530              	oc_mqtt_para_release:
 1531              	.LFB13:
 542:/home/xingli/share/1205tiny/oc/oc_mqtt/oc_mqtt_tiny_v5/oc_mqtt_tiny.c **** 
 543:/home/xingli/share/1205tiny/oc/oc_mqtt/oc_mqtt_tiny_v5/oc_mqtt_tiny.c **** 
 544:/home/xingli/share/1205tiny/oc/oc_mqtt/oc_mqtt_tiny_v5/oc_mqtt_tiny.c **** ///< generate the client_id user pwd for the mqtt need
 545:/home/xingli/share/1205tiny/oc/oc_mqtt/oc_mqtt_tiny_v5/oc_mqtt_tiny.c **** static int oc_mqtt_para_release(oc_mqtt_tiny_cb_t *cb)
 546:/home/xingli/share/1205tiny/oc/oc_mqtt/oc_mqtt_tiny_v5/oc_mqtt_tiny.c **** {
 1532              		.loc 1 546 1
 1533              		.cfi_startproc
 1534 0000 F30F1EFA 		endbr64
 1535 0004 55       		pushq	%rbp
 1536              	.LCFI21:
 1537              		.cfi_def_cfa_offset 16
 1538              		.cfi_offset 6, -16
 1539 0005 4889E5   		movq	%rsp, %rbp
 1540              	.LCFI22:
 1541              		.cfi_def_cfa_register 6
 1542 0008 4883EC20 		subq	$32, %rsp
 1543 000c 48897DE8 		movq	%rdi, -24(%rbp)
 1544              		.loc 1 546 1
 1545 0010 64488B04 		movq	%fs:40, %rax
 1545      25280000 
 1545      00
 1546 0019 488945F8 		movq	%rax, -8(%rbp)
 1547 001d 31C0     		xorl	%eax, %eax
GAS LISTING /tmp/cc7S055g.s 			page 44


 547:/home/xingli/share/1205tiny/oc/oc_mqtt/oc_mqtt_tiny_v5/oc_mqtt_tiny.c ****     (void)mqtt_al_disconnect(cb->mqtt_para.mqtt_handle);
 1548              		.loc 1 547 11
 1549 001f 488B45E8 		movq	-24(%rbp), %rax
 1550 0023 488B80D8 		movq	216(%rax), %rax
 1550      000000
 1551 002a 4889C7   		movq	%rax, %rdi
 1552 002d E8000000 		call	mqtt_al_disconnect@PLT
 1552      00
 548:/home/xingli/share/1205tiny/oc/oc_mqtt/oc_mqtt_tiny_v5/oc_mqtt_tiny.c ****     osal_free(cb->mqtt_para.mqtt_clientid);
 1553              		.loc 1 548 28
 1554 0032 488B45E8 		movq	-24(%rbp), %rax
 1555 0036 488B8098 		movq	152(%rax), %rax
 1555      000000
 1556              		.loc 1 548 5
 1557 003d 4889C7   		movq	%rax, %rdi
 1558 0040 E8000000 		call	osal_free@PLT
 1558      00
 549:/home/xingli/share/1205tiny/oc/oc_mqtt/oc_mqtt_tiny_v5/oc_mqtt_tiny.c ****     osal_free(cb->mqtt_para.mqtt_user);
 1559              		.loc 1 549 28
 1560 0045 488B45E8 		movq	-24(%rbp), %rax
 1561 0049 488B80A0 		movq	160(%rax), %rax
 1561      000000
 1562              		.loc 1 549 5
 1563 0050 4889C7   		movq	%rax, %rdi
 1564 0053 E8000000 		call	osal_free@PLT
 1564      00
 550:/home/xingli/share/1205tiny/oc/oc_mqtt/oc_mqtt_tiny_v5/oc_mqtt_tiny.c ****     osal_free(cb->mqtt_para.mqtt_passwd);
 1565              		.loc 1 550 28
 1566 0058 488B45E8 		movq	-24(%rbp), %rax
 1567 005c 488B80A8 		movq	168(%rax), %rax
 1567      000000
 1568              		.loc 1 550 5
 1569 0063 4889C7   		movq	%rax, %rdi
 1570 0066 E8000000 		call	osal_free@PLT
 1570      00
 551:/home/xingli/share/1205tiny/oc/oc_mqtt/oc_mqtt_tiny_v5/oc_mqtt_tiny.c ****     osal_free(cb->mqtt_para.default_pub_topic);
 1571              		.loc 1 551 28
 1572 006b 488B45E8 		movq	-24(%rbp), %rax
 1573 006f 488B80C0 		movq	192(%rax), %rax
 1573      000000
 1574              		.loc 1 551 5
 1575 0076 4889C7   		movq	%rax, %rdi
 1576 0079 E8000000 		call	osal_free@PLT
 1576      00
 552:/home/xingli/share/1205tiny/oc/oc_mqtt/oc_mqtt_tiny_v5/oc_mqtt_tiny.c ****     osal_free(cb->mqtt_para.default_sub_topic);
 1577              		.loc 1 552 28
 1578 007e 488B45E8 		movq	-24(%rbp), %rax
 1579 0082 488B80C8 		movq	200(%rax), %rax
 1579      000000
 1580              		.loc 1 552 5
 1581 0089 4889C7   		movq	%rax, %rdi
 1582 008c E8000000 		call	osal_free@PLT
 1582      00
 553:/home/xingli/share/1205tiny/oc/oc_mqtt/oc_mqtt_tiny_v5/oc_mqtt_tiny.c **** 
 554:/home/xingli/share/1205tiny/oc/oc_mqtt/oc_mqtt_tiny_v5/oc_mqtt_tiny.c ****     (void) memset(&cb->mqtt_para,0,sizeof(oc_mqtt_para_t));
 1583              		.loc 1 554 19
 1584 0091 488B45E8 		movq	-24(%rbp), %rax
GAS LISTING /tmp/cc7S055g.s 			page 45


 1585 0095 48059800 		addq	$152, %rax
 1585      0000
 1586              		.loc 1 554 12
 1587 009b BA480000 		movl	$72, %edx
 1587      00
 1588 00a0 BE000000 		movl	$0, %esi
 1588      00
 1589 00a5 4889C7   		movq	%rax, %rdi
 1590 00a8 E8000000 		call	memset@PLT
 1590      00
 555:/home/xingli/share/1205tiny/oc/oc_mqtt/oc_mqtt_tiny_v5/oc_mqtt_tiny.c **** 
 556:/home/xingli/share/1205tiny/oc/oc_mqtt/oc_mqtt_tiny_v5/oc_mqtt_tiny.c ****     return 0;
 1591              		.loc 1 556 12
 1592 00ad B8000000 		movl	$0, %eax
 1592      00
 557:/home/xingli/share/1205tiny/oc/oc_mqtt/oc_mqtt_tiny_v5/oc_mqtt_tiny.c **** }
 1593              		.loc 1 557 1
 1594 00b2 488B4DF8 		movq	-8(%rbp), %rcx
 1595 00b6 6448330C 		xorq	%fs:40, %rcx
 1595      25280000 
 1595      00
 1596 00bf 7405     		je	.L69
 1597 00c1 E8000000 		call	__stack_chk_fail@PLT
 1597      00
 1598              	.L69:
 1599 00c6 C9       		leave
 1600              	.LCFI23:
 1601              		.cfi_def_cfa 7, 8
 1602 00c7 C3       		ret
 1603              		.cfi_endproc
 1604              	.LFE13:
 1606              		.section	.rodata
 1607              	.LC11:
 1608 0134 25303464 		.string	"%04d%02d%02d%02d"
 1608      25303264 
 1608      25303264 
 1608      25303264 
 1608      00
 1609 0145 000000   		.align 8
 1610              	.LC12:
 1611 0148 246F632F 		.string	"$oc/devices/%s/sys/bootstrap/up"
 1611      64657669 
 1611      6365732F 
 1611      25732F73 
 1611      79732F62 
 1612              		.align 8
 1613              	.LC13:
 1614 0168 246F632F 		.string	"$oc/devices/%s/sys/bootstrap/down"
 1614      64657669 
 1614      6365732F 
 1614      25732F73 
 1614      79732F62 
 1615 018a 00000000 		.align 8
 1615      0000
 1616              	.LC14:
 1617 0190 246F632F 		.string	"$oc/devices/%s/sys/properties/report"
 1617      64657669 
GAS LISTING /tmp/cc7S055g.s 			page 46


 1617      6365732F 
 1617      25732F73 
 1617      79732F70 
 1618              	.LC15:
 1619 01b5 246F632F 		.string	"$oc/devices/%s/sys/commands/#"
 1619      64657669 
 1619      6365732F 
 1619      25732F73 
 1619      79732F63 
 1620              		.section	.text.oc_mqtt_para_gernerate,"ax",@progbits
 1622              	oc_mqtt_para_gernerate:
 1623              	.LFB14:
 558:/home/xingli/share/1205tiny/oc/oc_mqtt/oc_mqtt_tiny_v5/oc_mqtt_tiny.c **** 
 559:/home/xingli/share/1205tiny/oc/oc_mqtt/oc_mqtt_tiny_v5/oc_mqtt_tiny.c **** static int oc_mqtt_para_gernerate(oc_mqtt_tiny_cb_t *cb)
 560:/home/xingli/share/1205tiny/oc/oc_mqtt/oc_mqtt_tiny_v5/oc_mqtt_tiny.c **** {
 1624              		.loc 1 560 1
 1625              		.cfi_startproc
 1626 0000 F30F1EFA 		endbr64
 1627 0004 55       		pushq	%rbp
 1628              	.LCFI24:
 1629              		.cfi_def_cfa_offset 16
 1630              		.cfi_offset 6, -16
 1631 0005 4889E5   		movq	%rsp, %rbp
 1632              	.LCFI25:
 1633              		.cfi_def_cfa_register 6
 1634 0008 4154     		pushq	%r12
 1635 000a 53       		pushq	%rbx
 1636 000b 4883EC60 		subq	$96, %rsp
 1637              		.cfi_offset 12, -24
 1638              		.cfi_offset 3, -32
 1639 000f 48897D98 		movq	%rdi, -104(%rbp)
 1640              		.loc 1 560 1
 1641 0013 64488B04 		movq	%fs:40, %rax
 1641      25280000 
 1641      00
 1642 001c 488945E8 		movq	%rax, -24(%rbp)
 1643 0020 31C0     		xorl	%eax, %eax
 561:/home/xingli/share/1205tiny/oc/oc_mqtt/oc_mqtt_tiny_v5/oc_mqtt_tiny.c ****     int ret = (int)en_oc_mqtt_err_ok;
 1644              		.loc 1 561 9
 1645 0022 C745AC00 		movl	$0, -84(%rbp)
 1645      000000
 562:/home/xingli/share/1205tiny/oc/oc_mqtt/oc_mqtt_tiny_v5/oc_mqtt_tiny.c ****     int group_mode = 0;
 1646              		.loc 1 562 9
 1647 0029 C745A800 		movl	$0, -88(%rbp)
 1647      000000
 563:/home/xingli/share/1205tiny/oc/oc_mqtt/oc_mqtt_tiny_v5/oc_mqtt_tiny.c ****     uint8_t hmac[CN_HMAC_LEN] = {0};
 1648              		.loc 1 563 13
 1649 0030 48C745C0 		movq	$0, -64(%rbp)
 1649      00000000 
 1650 0038 48C745C8 		movq	$0, -56(%rbp)
 1650      00000000 
 1651 0040 48C745D0 		movq	$0, -48(%rbp)
 1651      00000000 
 1652 0048 48C745D8 		movq	$0, -40(%rbp)
 1652      00000000 
 564:/home/xingli/share/1205tiny/oc/oc_mqtt/oc_mqtt_tiny_v5/oc_mqtt_tiny.c ****     struct tm *date;
 565:/home/xingli/share/1205tiny/oc/oc_mqtt/oc_mqtt_tiny_v5/oc_mqtt_tiny.c ****     time_t time_now;
GAS LISTING /tmp/cc7S055g.s 			page 47


 566:/home/xingli/share/1205tiny/oc/oc_mqtt/oc_mqtt_tiny_v5/oc_mqtt_tiny.c **** 
 567:/home/xingli/share/1205tiny/oc/oc_mqtt/oc_mqtt_tiny_v5/oc_mqtt_tiny.c ****     time_now = osal_sys_time()/1000;
 1653              		.loc 1 567 16
 1654 0050 E8000000 		call	osal_sys_time@PLT
 1654      00
 1655              		.loc 1 567 31
 1656 0055 48C1E803 		shrq	$3, %rax
 1657 0059 48BACFF7 		movabsq	$2361183241434822607, %rdx
 1657      53E3A59B 
 1657      C420
 1658 0063 48F7E2   		mulq	%rdx
 1659 0066 4889D0   		movq	%rdx, %rax
 1660 0069 48C1E804 		shrq	$4, %rax
 1661              		.loc 1 567 14
 1662 006d 488945B0 		movq	%rax, -80(%rbp)
 568:/home/xingli/share/1205tiny/oc/oc_mqtt/oc_mqtt_tiny_v5/oc_mqtt_tiny.c ****     date = gmtime(&time_now);
 1663              		.loc 1 568 12
 1664 0071 488D45B0 		leaq	-80(%rbp), %rax
 1665 0075 4889C7   		movq	%rax, %rdi
 1666 0078 E8000000 		call	gmtime@PLT
 1666      00
 1667 007d 488945B8 		movq	%rax, -72(%rbp)
 569:/home/xingli/share/1205tiny/oc/oc_mqtt/oc_mqtt_tiny_v5/oc_mqtt_tiny.c ****     if(NULL == date)
 1668              		.loc 1 569 7
 1669 0081 48837DB8 		cmpq	$0, -72(%rbp)
 1669      00
 1670 0086 7508     		jne	.L71
 570:/home/xingli/share/1205tiny/oc/oc_mqtt/oc_mqtt_tiny_v5/oc_mqtt_tiny.c ****     {
 571:/home/xingli/share/1205tiny/oc/oc_mqtt/oc_mqtt_tiny_v5/oc_mqtt_tiny.c ****         return ret;
 1671              		.loc 1 571 16
 1672 0088 8B45AC   		movl	-84(%rbp), %eax
 1673 008b E9920300 		jmp	.L89
 1673      00
 1674              	.L71:
 572:/home/xingli/share/1205tiny/oc/oc_mqtt/oc_mqtt_tiny_v5/oc_mqtt_tiny.c ****     }
 573:/home/xingli/share/1205tiny/oc/oc_mqtt/oc_mqtt_tiny_v5/oc_mqtt_tiny.c **** 
 574:/home/xingli/share/1205tiny/oc/oc_mqtt/oc_mqtt_tiny_v5/oc_mqtt_tiny.c ****     (void) snprintf(cb->salt_time,11,"%04d%02d%02d%02d",date->tm_year+1900,\
 1675              		.loc 1 574 12
 1676 0090 488B45B8 		movq	-72(%rbp), %rax
 1677 0094 8B4808   		movl	8(%rax), %ecx
 1678 0097 488B45B8 		movq	-72(%rbp), %rax
 1679 009b 8B780C   		movl	12(%rax), %edi
 1680 009e 488B45B8 		movq	-72(%rbp), %rax
 1681 00a2 8B7010   		movl	16(%rax), %esi
 1682              		.loc 1 574 61
 1683 00a5 488B45B8 		movq	-72(%rbp), %rax
 1684 00a9 8B4014   		movl	20(%rax), %eax
 1685              		.loc 1 574 12
 1686 00ac 8D906C07 		leal	1900(%rax), %edx
 1686      0000
 1687              		.loc 1 574 23
 1688 00b2 488B4598 		movq	-104(%rbp), %rax
 1689 00b6 48050801 		addq	$264, %rax
 1689      0000
 1690              		.loc 1 574 12
 1691 00bc 4883EC08 		subq	$8, %rsp
 1692 00c0 51       		pushq	%rcx
GAS LISTING /tmp/cc7S055g.s 			page 48


 1693 00c1 4189F9   		movl	%edi, %r9d
 1694 00c4 4189F0   		movl	%esi, %r8d
 1695 00c7 89D1     		movl	%edx, %ecx
 1696 00c9 488D1500 		leaq	.LC11(%rip), %rdx
 1696      000000
 1697 00d0 BE0B0000 		movl	$11, %esi
 1697      00
 1698 00d5 4889C7   		movq	%rax, %rdi
 1699 00d8 B8000000 		movl	$0, %eax
 1699      00
 1700 00dd E8000000 		call	snprintf@PLT
 1700      00
 1701 00e2 4883C410 		addq	$16, %rsp
 575:/home/xingli/share/1205tiny/oc/oc_mqtt/oc_mqtt_tiny_v5/oc_mqtt_tiny.c ****             date->tm_mon,date->tm_mday,date->tm_hour);
 576:/home/xingli/share/1205tiny/oc/oc_mqtt/oc_mqtt_tiny_v5/oc_mqtt_tiny.c **** 
 577:/home/xingli/share/1205tiny/oc/oc_mqtt/oc_mqtt_tiny_v5/oc_mqtt_tiny.c ****     (void) oc_mqtt_para_release(cb);         ///< try to free all the resource we have built
 1702              		.loc 1 577 12
 1703 00e6 488B4598 		movq	-104(%rbp), %rax
 1704 00ea 4889C7   		movq	%rax, %rdi
 1705 00ed E8000000 		call	oc_mqtt_para_release
 1705      00
 578:/home/xingli/share/1205tiny/oc/oc_mqtt/oc_mqtt_tiny_v5/oc_mqtt_tiny.c **** 
 579:/home/xingli/share/1205tiny/oc/oc_mqtt/oc_mqtt_tiny_v5/oc_mqtt_tiny.c ****     cb->mqtt_para.mqtt_user = osal_strdup(cb->config.id);
 1706              		.loc 1 579 53
 1707 00f2 488B4598 		movq	-104(%rbp), %rax
 1708 00f6 488B4068 		movq	104(%rax), %rax
 1709              		.loc 1 579 31
 1710 00fa 4889C7   		movq	%rax, %rdi
 1711 00fd E8000000 		call	osal_strdup@PLT
 1711      00
 1712              		.loc 1 579 29
 1713 0102 488B5598 		movq	-104(%rbp), %rdx
 1714 0106 488982A0 		movq	%rax, 160(%rdx)
 1714      000000
 580:/home/xingli/share/1205tiny/oc/oc_mqtt/oc_mqtt_tiny_v5/oc_mqtt_tiny.c ****     if(NULL == cb->mqtt_para.mqtt_user)
 1715              		.loc 1 580 29
 1716 010d 488B4598 		movq	-104(%rbp), %rax
 1717 0111 488B80A0 		movq	160(%rax), %rax
 1717      000000
 1718              		.loc 1 580 7
 1719 0118 4885C0   		testq	%rax, %rax
 1720 011b 0F84DB02 		je	.L91
 1720      0000
 581:/home/xingli/share/1205tiny/oc/oc_mqtt/oc_mqtt_tiny_v5/oc_mqtt_tiny.c ****     {
 582:/home/xingli/share/1205tiny/oc/oc_mqtt/oc_mqtt_tiny_v5/oc_mqtt_tiny.c ****         goto EXIT_MEM;
 583:/home/xingli/share/1205tiny/oc/oc_mqtt/oc_mqtt_tiny_v5/oc_mqtt_tiny.c ****     }
 584:/home/xingli/share/1205tiny/oc/oc_mqtt/oc_mqtt_tiny_v5/oc_mqtt_tiny.c **** 
 585:/home/xingli/share/1205tiny/oc/oc_mqtt/oc_mqtt_tiny_v5/oc_mqtt_tiny.c ****     if(NULL != cb->config.pwd)
 1721              		.loc 1 585 26
 1722 0121 488B4598 		movq	-104(%rbp), %rax
 1723 0125 488B4070 		movq	112(%rax), %rax
 1724              		.loc 1 585 7
 1725 0129 4885C0   		testq	%rax, %rax
 1726 012c 0F849C00 		je	.L75
 1726      0000
 586:/home/xingli/share/1205tiny/oc/oc_mqtt/oc_mqtt_tiny_v5/oc_mqtt_tiny.c ****     {
 587:/home/xingli/share/1205tiny/oc/oc_mqtt/oc_mqtt_tiny_v5/oc_mqtt_tiny.c ****         (void) hmac_generate_passwd(cb->config.pwd,strlen(cb->config.pwd),\
GAS LISTING /tmp/cc7S055g.s 			page 49


 588:/home/xingli/share/1205tiny/oc/oc_mqtt/oc_mqtt_tiny_v5/oc_mqtt_tiny.c ****                 cb->salt_time,strlen(cb->salt_time),hmac,sizeof(hmac));
 1727              		.loc 1 588 40
 1728 0132 488B4598 		movq	-104(%rbp), %rax
 1729 0136 48050801 		addq	$264, %rax
 1729      0000
 1730              		.loc 1 588 31
 1731 013c 4889C7   		movq	%rax, %rdi
 1732 013f E8000000 		call	strlen@PLT
 1732      00
 587:/home/xingli/share/1205tiny/oc/oc_mqtt/oc_mqtt_tiny_v5/oc_mqtt_tiny.c ****                 cb->salt_time,strlen(cb->salt_time),hmac,sizeof(hmac));
 1733              		.loc 1 587 16
 1734 0144 4189C4   		movl	%eax, %r12d
 1735              		.loc 1 588 19
 1736 0147 488B4598 		movq	-104(%rbp), %rax
 1737 014b 488D9808 		leaq	264(%rax), %rbx
 1737      010000
 587:/home/xingli/share/1205tiny/oc/oc_mqtt/oc_mqtt_tiny_v5/oc_mqtt_tiny.c ****                 cb->salt_time,strlen(cb->salt_time),hmac,sizeof(hmac));
 1738              		.loc 1 587 69
 1739 0152 488B4598 		movq	-104(%rbp), %rax
 1740 0156 488B4070 		movq	112(%rax), %rax
 587:/home/xingli/share/1205tiny/oc/oc_mqtt/oc_mqtt_tiny_v5/oc_mqtt_tiny.c ****                 cb->salt_time,strlen(cb->salt_time),hmac,sizeof(hmac));
 1741              		.loc 1 587 52
 1742 015a 4889C7   		movq	%rax, %rdi
 1743 015d E8000000 		call	strlen@PLT
 1743      00
 587:/home/xingli/share/1205tiny/oc/oc_mqtt/oc_mqtt_tiny_v5/oc_mqtt_tiny.c ****                 cb->salt_time,strlen(cb->salt_time),hmac,sizeof(hmac));
 1744              		.loc 1 587 16
 1745 0162 89C6     		movl	%eax, %esi
 1746 0164 488B4598 		movq	-104(%rbp), %rax
 1747 0168 488B4070 		movq	112(%rax), %rax
 1748 016c 488D55C0 		leaq	-64(%rbp), %rdx
 1749 0170 41B92000 		movl	$32, %r9d
 1749      0000
 1750 0176 4989D0   		movq	%rdx, %r8
 1751 0179 4489E1   		movl	%r12d, %ecx
 1752 017c 4889DA   		movq	%rbx, %rdx
 1753 017f 4889C7   		movq	%rax, %rdi
 1754 0182 E8000000 		call	hmac_generate_passwd@PLT
 1754      00
 589:/home/xingli/share/1205tiny/oc/oc_mqtt/oc_mqtt_tiny_v5/oc_mqtt_tiny.c ****         cb->mqtt_para.mqtt_passwd = osal_malloc(CN_HMAC_LEN*2+1);
 1755              		.loc 1 589 37
 1756 0187 BF410000 		movl	$65, %edi
 1756      00
 1757 018c E8000000 		call	osal_malloc@PLT
 1757      00
 1758              		.loc 1 589 35
 1759 0191 488B5598 		movq	-104(%rbp), %rdx
 1760 0195 488982A8 		movq	%rax, 168(%rdx)
 1760      000000
 590:/home/xingli/share/1205tiny/oc/oc_mqtt/oc_mqtt_tiny_v5/oc_mqtt_tiny.c ****         if(NULL != cb->mqtt_para.mqtt_passwd)
 1761              		.loc 1 590 33
 1762 019c 488B4598 		movq	-104(%rbp), %rax
 1763 01a0 488B80A8 		movq	168(%rax), %rax
 1763      000000
 1764              		.loc 1 590 11
 1765 01a7 4885C0   		testq	%rax, %rax
 1766 01aa 0F844F02 		je	.L92
GAS LISTING /tmp/cc7S055g.s 			page 50


 1766      0000
 591:/home/xingli/share/1205tiny/oc/oc_mqtt/oc_mqtt_tiny_v5/oc_mqtt_tiny.c ****         {
 592:/home/xingli/share/1205tiny/oc/oc_mqtt/oc_mqtt_tiny_v5/oc_mqtt_tiny.c ****             (void)byte2hexstr(hmac,CN_HMAC_LEN,cb->mqtt_para.mqtt_passwd);
 1767              		.loc 1 592 19
 1768 01b0 488B4598 		movq	-104(%rbp), %rax
 1769 01b4 488B90A8 		movq	168(%rax), %rdx
 1769      000000
 1770 01bb 488D45C0 		leaq	-64(%rbp), %rax
 1771 01bf BE200000 		movl	$32, %esi
 1771      00
 1772 01c4 4889C7   		movq	%rax, %rdi
 1773 01c7 E8000000 		call	byte2hexstr@PLT
 1773      00
 1774 01cc EB0F     		jmp	.L77
 1775              	.L75:
 593:/home/xingli/share/1205tiny/oc/oc_mqtt/oc_mqtt_tiny_v5/oc_mqtt_tiny.c ****         }
 594:/home/xingli/share/1205tiny/oc/oc_mqtt/oc_mqtt_tiny_v5/oc_mqtt_tiny.c ****         else
 595:/home/xingli/share/1205tiny/oc/oc_mqtt/oc_mqtt_tiny_v5/oc_mqtt_tiny.c ****         {
 596:/home/xingli/share/1205tiny/oc/oc_mqtt/oc_mqtt_tiny_v5/oc_mqtt_tiny.c ****             goto EXIT_MEM;
 597:/home/xingli/share/1205tiny/oc/oc_mqtt/oc_mqtt_tiny_v5/oc_mqtt_tiny.c ****         }
 598:/home/xingli/share/1205tiny/oc/oc_mqtt/oc_mqtt_tiny_v5/oc_mqtt_tiny.c ****     }
 599:/home/xingli/share/1205tiny/oc/oc_mqtt/oc_mqtt_tiny_v5/oc_mqtt_tiny.c ****     else
 600:/home/xingli/share/1205tiny/oc/oc_mqtt/oc_mqtt_tiny_v5/oc_mqtt_tiny.c ****     {
 601:/home/xingli/share/1205tiny/oc/oc_mqtt/oc_mqtt_tiny_v5/oc_mqtt_tiny.c ****         cb->mqtt_para.mqtt_passwd = NULL;
 1776              		.loc 1 601 35
 1777 01ce 488B4598 		movq	-104(%rbp), %rax
 1778 01d2 48C780A8 		movq	$0, 168(%rax)
 1778      00000000 
 1778      000000
 1779              	.L77:
 602:/home/xingli/share/1205tiny/oc/oc_mqtt/oc_mqtt_tiny_v5/oc_mqtt_tiny.c ****     }
 603:/home/xingli/share/1205tiny/oc/oc_mqtt/oc_mqtt_tiny_v5/oc_mqtt_tiny.c **** 
 604:/home/xingli/share/1205tiny/oc/oc_mqtt/oc_mqtt_tiny_v5/oc_mqtt_tiny.c **** 
 605:/home/xingli/share/1205tiny/oc/oc_mqtt/oc_mqtt_tiny_v5/oc_mqtt_tiny.c ****     if(cb->flag.bits.bit_daemon_status == (int)en_daemon_status_bs_getaddr)
 1780              		.loc 1 605 40
 1781 01dd 488B4598 		movq	-104(%rbp), %rax
 1782 01e1 0FB680E0 		movzbl	224(%rax), %eax
 1782      000000
 1783 01e8 83E00E   		andl	$14, %eax
 1784              		.loc 1 605 7
 1785 01eb 3C02     		cmpb	$2, %al
 1786 01ed 0F859700 		jne	.L78
 1786      0000
 606:/home/xingli/share/1205tiny/oc/oc_mqtt/oc_mqtt_tiny_v5/oc_mqtt_tiny.c ****     {
 607:/home/xingli/share/1205tiny/oc/oc_mqtt/oc_mqtt_tiny_v5/oc_mqtt_tiny.c ****         if(NULL != cb->config.scope_id)
 1787              		.loc 1 607 30
 1788 01f3 488B4598 		movq	-104(%rbp), %rax
 1789 01f7 488B4078 		movq	120(%rax), %rax
 1790              		.loc 1 607 11
 1791 01fb 4885C0   		testq	%rax, %rax
 1792 01fe 7407     		je	.L79
 608:/home/xingli/share/1205tiny/oc/oc_mqtt/oc_mqtt_tiny_v5/oc_mqtt_tiny.c ****         {
 609:/home/xingli/share/1205tiny/oc/oc_mqtt/oc_mqtt_tiny_v5/oc_mqtt_tiny.c ****             group_mode = 1;
 1793              		.loc 1 609 24
 1794 0200 C745A801 		movl	$1, -88(%rbp)
 1794      000000
 1795              	.L79:
GAS LISTING /tmp/cc7S055g.s 			page 51


 610:/home/xingli/share/1205tiny/oc/oc_mqtt/oc_mqtt_tiny_v5/oc_mqtt_tiny.c ****         }
 611:/home/xingli/share/1205tiny/oc/oc_mqtt/oc_mqtt_tiny_v5/oc_mqtt_tiny.c ****         cb->mqtt_para.default_pub_topic = topic_fmt(CN_OC_BS_REPORT_TOPIC_FMT,(const char *)cb->con
 1796              		.loc 1 611 103
 1797 0207 488B4598 		movq	-104(%rbp), %rax
 1798 020b 488B4068 		movq	104(%rax), %rax
 1799              		.loc 1 611 43
 1800 020f 4889C6   		movq	%rax, %rsi
 1801 0212 488D3D00 		leaq	.LC12(%rip), %rdi
 1801      000000
 1802 0219 E8000000 		call	topic_fmt
 1802      00
 1803              		.loc 1 611 41
 1804 021e 488B5598 		movq	-104(%rbp), %rdx
 1805 0222 488982C0 		movq	%rax, 192(%rdx)
 1805      000000
 612:/home/xingli/share/1205tiny/oc/oc_mqtt/oc_mqtt_tiny_v5/oc_mqtt_tiny.c ****         cb->mqtt_para.default_sub_topic = topic_fmt(CN_OC_BS_CMD_TOPIC_FMT,(const char *)cb->config
 1806              		.loc 1 612 100
 1807 0229 488B4598 		movq	-104(%rbp), %rax
 1808 022d 488B4068 		movq	104(%rax), %rax
 1809              		.loc 1 612 43
 1810 0231 4889C6   		movq	%rax, %rsi
 1811 0234 488D3D00 		leaq	.LC13(%rip), %rdi
 1811      000000
 1812 023b E8000000 		call	topic_fmt
 1812      00
 1813              		.loc 1 612 41
 1814 0240 488B5598 		movq	-104(%rbp), %rdx
 1815 0244 488982C8 		movq	%rax, 200(%rdx)
 1815      000000
 613:/home/xingli/share/1205tiny/oc/oc_mqtt/oc_mqtt_tiny_v5/oc_mqtt_tiny.c ****         cb->mqtt_para.default_msg_deal = bs_msg_default_deal;
 1816              		.loc 1 613 40
 1817 024b 488B4598 		movq	-104(%rbp), %rax
 1818 024f 488D1500 		leaq	bs_msg_default_deal(%rip), %rdx
 1818      000000
 1819 0256 488990D0 		movq	%rdx, 208(%rax)
 1819      000000
 614:/home/xingli/share/1205tiny/oc/oc_mqtt/oc_mqtt_tiny_v5/oc_mqtt_tiny.c ****         if((NULL == cb->mqtt_para.default_pub_topic) || \
 1820              		.loc 1 614 34
 1821 025d 488B4598 		movq	-104(%rbp), %rax
 1822 0261 488B80C0 		movq	192(%rax), %rax
 1822      000000
 1823              		.loc 1 614 11
 1824 0268 4885C0   		testq	%rax, %rax
 1825 026b 0F849101 		je	.L93
 1825      0000
 615:/home/xingli/share/1205tiny/oc/oc_mqtt/oc_mqtt_tiny_v5/oc_mqtt_tiny.c ****                 (NULL == cb->mqtt_para.default_sub_topic))
 1826              		.loc 1 615 39 discriminator 1
 1827 0271 488B4598 		movq	-104(%rbp), %rax
 1828 0275 488B80C8 		movq	200(%rax), %rax
 1828      000000
 614:/home/xingli/share/1205tiny/oc/oc_mqtt/oc_mqtt_tiny_v5/oc_mqtt_tiny.c ****         if((NULL == cb->mqtt_para.default_pub_topic) || \
 1829              		.loc 1 614 54 discriminator 1
 1830 027c 4885C0   		testq	%rax, %rax
 1831 027f 0F858300 		jne	.L81
 1831      0000
 616:/home/xingli/share/1205tiny/oc/oc_mqtt/oc_mqtt_tiny_v5/oc_mqtt_tiny.c ****         {
 617:/home/xingli/share/1205tiny/oc/oc_mqtt/oc_mqtt_tiny_v5/oc_mqtt_tiny.c ****             goto EXIT_MEM;
GAS LISTING /tmp/cc7S055g.s 			page 52


 1832              		.loc 1 617 13
 1833 0285 E9780100 		jmp	.L93
 1833      00
 1834              	.L78:
 618:/home/xingli/share/1205tiny/oc/oc_mqtt/oc_mqtt_tiny_v5/oc_mqtt_tiny.c ****         }
 619:/home/xingli/share/1205tiny/oc/oc_mqtt/oc_mqtt_tiny_v5/oc_mqtt_tiny.c ****     }
 620:/home/xingli/share/1205tiny/oc/oc_mqtt/oc_mqtt_tiny_v5/oc_mqtt_tiny.c ****     else
 621:/home/xingli/share/1205tiny/oc/oc_mqtt/oc_mqtt_tiny_v5/oc_mqtt_tiny.c ****     {
 622:/home/xingli/share/1205tiny/oc/oc_mqtt/oc_mqtt_tiny_v5/oc_mqtt_tiny.c **** 
 623:/home/xingli/share/1205tiny/oc/oc_mqtt/oc_mqtt_tiny_v5/oc_mqtt_tiny.c ****         cb->mqtt_para.default_pub_topic = topic_fmt(CN_OC_HUB_PUBTOPIC_DEFAULT_FMT,(const char *)cb
 1835              		.loc 1 623 108
 1836 028a 488B4598 		movq	-104(%rbp), %rax
 1837 028e 488B4068 		movq	104(%rax), %rax
 1838              		.loc 1 623 43
 1839 0292 4889C6   		movq	%rax, %rsi
 1840 0295 488D3D00 		leaq	.LC14(%rip), %rdi
 1840      000000
 1841 029c E8000000 		call	topic_fmt
 1841      00
 1842              		.loc 1 623 41
 1843 02a1 488B5598 		movq	-104(%rbp), %rdx
 1844 02a5 488982C0 		movq	%rax, 192(%rdx)
 1844      000000
 624:/home/xingli/share/1205tiny/oc/oc_mqtt/oc_mqtt_tiny_v5/oc_mqtt_tiny.c ****         cb->mqtt_para.default_sub_topic = topic_fmt(CN_OC_HUB_SUBTOPIC_DEFAULT_FMT,(const char *)cb
 1845              		.loc 1 624 108
 1846 02ac 488B4598 		movq	-104(%rbp), %rax
 1847 02b0 488B4068 		movq	104(%rax), %rax
 1848              		.loc 1 624 43
 1849 02b4 4889C6   		movq	%rax, %rsi
 1850 02b7 488D3D00 		leaq	.LC15(%rip), %rdi
 1850      000000
 1851 02be E8000000 		call	topic_fmt
 1851      00
 1852              		.loc 1 624 41
 1853 02c3 488B5598 		movq	-104(%rbp), %rdx
 1854 02c7 488982C8 		movq	%rax, 200(%rdx)
 1854      000000
 625:/home/xingli/share/1205tiny/oc/oc_mqtt/oc_mqtt_tiny_v5/oc_mqtt_tiny.c ****         cb->mqtt_para.default_msg_deal = hub_msg_default_deal;
 1855              		.loc 1 625 40
 1856 02ce 488B4598 		movq	-104(%rbp), %rax
 1857 02d2 488D1500 		leaq	hub_msg_default_deal(%rip), %rdx
 1857      000000
 1858 02d9 488990D0 		movq	%rdx, 208(%rax)
 1858      000000
 626:/home/xingli/share/1205tiny/oc/oc_mqtt/oc_mqtt_tiny_v5/oc_mqtt_tiny.c ****         if((NULL == cb->mqtt_para.default_pub_topic) || \
 1859              		.loc 1 626 34
 1860 02e0 488B4598 		movq	-104(%rbp), %rax
 1861 02e4 488B80C0 		movq	192(%rax), %rax
 1861      000000
 1862              		.loc 1 626 11
 1863 02eb 4885C0   		testq	%rax, %rax
 1864 02ee 0F841101 		je	.L94
 1864      0000
 627:/home/xingli/share/1205tiny/oc/oc_mqtt/oc_mqtt_tiny_v5/oc_mqtt_tiny.c ****                 (NULL == cb->mqtt_para.default_sub_topic))
 1865              		.loc 1 627 39 discriminator 1
 1866 02f4 488B4598 		movq	-104(%rbp), %rax
 1867 02f8 488B80C8 		movq	200(%rax), %rax
GAS LISTING /tmp/cc7S055g.s 			page 53


 1867      000000
 626:/home/xingli/share/1205tiny/oc/oc_mqtt/oc_mqtt_tiny_v5/oc_mqtt_tiny.c ****         if((NULL == cb->mqtt_para.default_pub_topic) || \
 1868              		.loc 1 626 54 discriminator 1
 1869 02ff 4885C0   		testq	%rax, %rax
 1870 0302 0F84FD00 		je	.L94
 1870      0000
 1871              	.L81:
 628:/home/xingli/share/1205tiny/oc/oc_mqtt/oc_mqtt_tiny_v5/oc_mqtt_tiny.c ****         {
 629:/home/xingli/share/1205tiny/oc/oc_mqtt/oc_mqtt_tiny_v5/oc_mqtt_tiny.c ****             goto EXIT_MEM;
 630:/home/xingli/share/1205tiny/oc/oc_mqtt/oc_mqtt_tiny_v5/oc_mqtt_tiny.c ****         }
 631:/home/xingli/share/1205tiny/oc/oc_mqtt/oc_mqtt_tiny_v5/oc_mqtt_tiny.c ****     }
 632:/home/xingli/share/1205tiny/oc/oc_mqtt/oc_mqtt_tiny_v5/oc_mqtt_tiny.c **** 
 633:/home/xingli/share/1205tiny/oc/oc_mqtt/oc_mqtt_tiny_v5/oc_mqtt_tiny.c ****     cb->mqtt_para.mqtt_clientid = clientid_fmt((const char *)cb->config.id,(const char *)cb->salt_t
 1872              		.loc 1 633 114
 1873 0308 488B4598 		movq	-104(%rbp), %rax
 1874 030c 488B5078 		movq	120(%rax), %rdx
 1875              		.loc 1 633 90
 1876 0310 488B4598 		movq	-104(%rbp), %rax
 1877 0314 488DB008 		leaq	264(%rax), %rsi
 1877      010000
 1878              		.loc 1 633 72
 1879 031b 488B4598 		movq	-104(%rbp), %rax
 1880 031f 488B4068 		movq	104(%rax), %rax
 1881              		.loc 1 633 35
 1882 0323 8B4DA8   		movl	-88(%rbp), %ecx
 1883 0326 4889C7   		movq	%rax, %rdi
 1884 0329 E8000000 		call	clientid_fmt
 1884      00
 1885              		.loc 1 633 33
 1886 032e 488B5598 		movq	-104(%rbp), %rdx
 1887 0332 48898298 		movq	%rax, 152(%rdx)
 1887      000000
 634:/home/xingli/share/1205tiny/oc/oc_mqtt/oc_mqtt_tiny_v5/oc_mqtt_tiny.c ****     if(NULL == cb->mqtt_para.mqtt_clientid)
 1888              		.loc 1 634 29
 1889 0339 488B4598 		movq	-104(%rbp), %rax
 1890 033d 488B8098 		movq	152(%rax), %rax
 1890      000000
 1891              		.loc 1 634 7
 1892 0344 4885C0   		testq	%rax, %rax
 1893 0347 0F84BB00 		je	.L95
 1893      0000
 635:/home/xingli/share/1205tiny/oc/oc_mqtt/oc_mqtt_tiny_v5/oc_mqtt_tiny.c ****     {
 636:/home/xingli/share/1205tiny/oc/oc_mqtt/oc_mqtt_tiny_v5/oc_mqtt_tiny.c ****         goto EXIT_MEM;
 637:/home/xingli/share/1205tiny/oc/oc_mqtt/oc_mqtt_tiny_v5/oc_mqtt_tiny.c ****     }
 638:/home/xingli/share/1205tiny/oc/oc_mqtt/oc_mqtt_tiny_v5/oc_mqtt_tiny.c **** 
 639:/home/xingli/share/1205tiny/oc/oc_mqtt/oc_mqtt_tiny_v5/oc_mqtt_tiny.c ****     if(cb->flag.bits.bit_bs_enable && ((cb->flag.bits.bit_daemon_status == (int)en_daemon_status_hu
 1894              		.loc 1 639 8
 1895 034d 488B4598 		movq	-104(%rbp), %rax
 1896 0351 0FB680E0 		movzbl	224(%rax), %eax
 1896      000000
 1897 0358 83E001   		andl	$1, %eax
 1898              		.loc 1 639 7
 1899 035b 84C0     		testb	%al, %al
 1900 035d 7452     		je	.L84
 1901              		.loc 1 639 73 discriminator 1
 1902 035f 488B4598 		movq	-104(%rbp), %rax
 1903 0363 0FB680E0 		movzbl	224(%rax), %eax
GAS LISTING /tmp/cc7S055g.s 			page 54


 1903      000000
 1904 036a 83E00E   		andl	$14, %eax
 1905              		.loc 1 639 36 discriminator 1
 1906 036d 3C06     		cmpb	$6, %al
 1907 036f 7412     		je	.L85
 640:/home/xingli/share/1205tiny/oc/oc_mqtt/oc_mqtt_tiny_v5/oc_mqtt_tiny.c ****             (cb->flag.bits.bit_daemon_status == (int)en_daemon_status_dmp_connecting)))
 1908              		.loc 1 640 46 discriminator 2
 1909 0371 488B4598 		movq	-104(%rbp), %rax
 1910 0375 0FB680E0 		movzbl	224(%rax), %eax
 1910      000000
 1911 037c 83E00E   		andl	$14, %eax
 639:/home/xingli/share/1205tiny/oc/oc_mqtt/oc_mqtt_tiny_v5/oc_mqtt_tiny.c ****             (cb->flag.bits.bit_daemon_status == (int)en_daemon_status_dmp_connecting)))
 1912              		.loc 1 639 107 discriminator 2
 1913 037f 3C04     		cmpb	$4, %al
 1914 0381 752E     		jne	.L84
 1915              	.L85:
 641:/home/xingli/share/1205tiny/oc/oc_mqtt/oc_mqtt_tiny_v5/oc_mqtt_tiny.c ****     {
 642:/home/xingli/share/1205tiny/oc/oc_mqtt/oc_mqtt_tiny_v5/oc_mqtt_tiny.c ****         cb->mqtt_para.server_addr = cb->bs_cb.hubserver_addr;
 1916              		.loc 1 642 46
 1917 0383 488B4598 		movq	-104(%rbp), %rax
 1918 0387 488B90E8 		movq	232(%rax), %rdx
 1918      000000
 1919              		.loc 1 642 35
 1920 038e 488B4598 		movq	-104(%rbp), %rax
 1921 0392 488990B0 		movq	%rdx, 176(%rax)
 1921      000000
 643:/home/xingli/share/1205tiny/oc/oc_mqtt/oc_mqtt_tiny_v5/oc_mqtt_tiny.c ****         cb->mqtt_para.server_port = cb->bs_cb.hubserver_port;
 1922              		.loc 1 643 46
 1923 0399 488B4598 		movq	-104(%rbp), %rax
 1924 039d 488B90F0 		movq	240(%rax), %rdx
 1924      000000
 1925              		.loc 1 643 35
 1926 03a4 488B4598 		movq	-104(%rbp), %rax
 1927 03a8 488990B8 		movq	%rdx, 184(%rax)
 1927      000000
 1928 03af EB26     		jmp	.L86
 1929              	.L84:
 644:/home/xingli/share/1205tiny/oc/oc_mqtt/oc_mqtt_tiny_v5/oc_mqtt_tiny.c ****     }
 645:/home/xingli/share/1205tiny/oc/oc_mqtt/oc_mqtt_tiny_v5/oc_mqtt_tiny.c ****     else
 646:/home/xingli/share/1205tiny/oc/oc_mqtt/oc_mqtt_tiny_v5/oc_mqtt_tiny.c ****     {
 647:/home/xingli/share/1205tiny/oc/oc_mqtt/oc_mqtt_tiny_v5/oc_mqtt_tiny.c ****         cb->mqtt_para.server_addr = cb->config.server_addr;
 1930              		.loc 1 647 47
 1931 03b1 488B4598 		movq	-104(%rbp), %rax
 1932 03b5 488B5018 		movq	24(%rax), %rdx
 1933              		.loc 1 647 35
 1934 03b9 488B4598 		movq	-104(%rbp), %rax
 1935 03bd 488990B0 		movq	%rdx, 176(%rax)
 1935      000000
 648:/home/xingli/share/1205tiny/oc/oc_mqtt/oc_mqtt_tiny_v5/oc_mqtt_tiny.c ****         cb->mqtt_para.server_port = cb->config.server_port;
 1936              		.loc 1 648 47
 1937 03c4 488B4598 		movq	-104(%rbp), %rax
 1938 03c8 488B5020 		movq	32(%rax), %rdx
 1939              		.loc 1 648 35
 1940 03cc 488B4598 		movq	-104(%rbp), %rax
 1941 03d0 488990B8 		movq	%rdx, 184(%rax)
 1941      000000
 1942              	.L86:
GAS LISTING /tmp/cc7S055g.s 			page 55


 649:/home/xingli/share/1205tiny/oc/oc_mqtt/oc_mqtt_tiny_v5/oc_mqtt_tiny.c ****     }
 650:/home/xingli/share/1205tiny/oc/oc_mqtt/oc_mqtt_tiny_v5/oc_mqtt_tiny.c ****     if((NULL == cb->mqtt_para.server_addr ) || \
 1943              		.loc 1 650 30
 1944 03d7 488B4598 		movq	-104(%rbp), %rax
 1945 03db 488B80B0 		movq	176(%rax), %rax
 1945      000000
 1946              		.loc 1 650 7
 1947 03e2 4885C0   		testq	%rax, %rax
 1948 03e5 7424     		je	.L96
 651:/home/xingli/share/1205tiny/oc/oc_mqtt/oc_mqtt_tiny_v5/oc_mqtt_tiny.c ****        (NULL == cb->mqtt_para.server_port ))
 1949              		.loc 1 651 30 discriminator 1
 1950 03e7 488B4598 		movq	-104(%rbp), %rax
 1951 03eb 488B80B8 		movq	184(%rax), %rax
 1951      000000
 650:/home/xingli/share/1205tiny/oc/oc_mqtt/oc_mqtt_tiny_v5/oc_mqtt_tiny.c ****        (NULL == cb->mqtt_para.server_port ))
 1952              		.loc 1 650 45 discriminator 1
 1953 03f2 4885C0   		testq	%rax, %rax
 1954 03f5 7414     		je	.L96
 652:/home/xingli/share/1205tiny/oc/oc_mqtt/oc_mqtt_tiny_v5/oc_mqtt_tiny.c ****     {
 653:/home/xingli/share/1205tiny/oc/oc_mqtt/oc_mqtt_tiny_v5/oc_mqtt_tiny.c ****         goto EXIT_MEM;
 654:/home/xingli/share/1205tiny/oc/oc_mqtt/oc_mqtt_tiny_v5/oc_mqtt_tiny.c ****     }
 655:/home/xingli/share/1205tiny/oc/oc_mqtt/oc_mqtt_tiny_v5/oc_mqtt_tiny.c ****     return ret;
 1955              		.loc 1 655 12
 1956 03f7 8B45AC   		movl	-84(%rbp), %eax
 1957 03fa EB26     		jmp	.L89
 1958              	.L91:
 582:/home/xingli/share/1205tiny/oc/oc_mqtt/oc_mqtt_tiny_v5/oc_mqtt_tiny.c ****     }
 1959              		.loc 1 582 9
 1960 03fc 90       		nop
 1961 03fd EB0D     		jmp	.L74
 1962              	.L92:
 596:/home/xingli/share/1205tiny/oc/oc_mqtt/oc_mqtt_tiny_v5/oc_mqtt_tiny.c ****         }
 1963              		.loc 1 596 13
 1964 03ff 90       		nop
 1965 0400 EB0A     		jmp	.L74
 1966              	.L93:
 617:/home/xingli/share/1205tiny/oc/oc_mqtt/oc_mqtt_tiny_v5/oc_mqtt_tiny.c ****         }
 1967              		.loc 1 617 13
 1968 0402 90       		nop
 1969 0403 EB07     		jmp	.L74
 1970              	.L94:
 629:/home/xingli/share/1205tiny/oc/oc_mqtt/oc_mqtt_tiny_v5/oc_mqtt_tiny.c ****         }
 1971              		.loc 1 629 13
 1972 0405 90       		nop
 1973 0406 EB04     		jmp	.L74
 1974              	.L95:
 636:/home/xingli/share/1205tiny/oc/oc_mqtt/oc_mqtt_tiny_v5/oc_mqtt_tiny.c ****     }
 1975              		.loc 1 636 9
 1976 0408 90       		nop
 1977 0409 EB01     		jmp	.L74
 1978              	.L96:
 653:/home/xingli/share/1205tiny/oc/oc_mqtt/oc_mqtt_tiny_v5/oc_mqtt_tiny.c ****     }
 1979              		.loc 1 653 9
 1980 040b 90       		nop
 1981              	.L74:
 656:/home/xingli/share/1205tiny/oc/oc_mqtt/oc_mqtt_tiny_v5/oc_mqtt_tiny.c **** 
 657:/home/xingli/share/1205tiny/oc/oc_mqtt/oc_mqtt_tiny_v5/oc_mqtt_tiny.c **** EXIT_MEM:
GAS LISTING /tmp/cc7S055g.s 			page 56


 658:/home/xingli/share/1205tiny/oc/oc_mqtt/oc_mqtt_tiny_v5/oc_mqtt_tiny.c ****     (void) oc_mqtt_para_release(cb);
 1982              		.loc 1 658 12
 1983 040c 488B4598 		movq	-104(%rbp), %rax
 1984 0410 4889C7   		movq	%rax, %rdi
 1985 0413 E8000000 		call	oc_mqtt_para_release
 1985      00
 659:/home/xingli/share/1205tiny/oc/oc_mqtt/oc_mqtt_tiny_v5/oc_mqtt_tiny.c ****     ret = (int)en_oc_mqtt_err_sysmem;
 1986              		.loc 1 659 9
 1987 0418 C745AC0F 		movl	$15, -84(%rbp)
 1987      000000
 660:/home/xingli/share/1205tiny/oc/oc_mqtt/oc_mqtt_tiny_v5/oc_mqtt_tiny.c ****     return ret;
 1988              		.loc 1 660 12
 1989 041f 8B45AC   		movl	-84(%rbp), %eax
 1990              	.L89:
 661:/home/xingli/share/1205tiny/oc/oc_mqtt/oc_mqtt_tiny_v5/oc_mqtt_tiny.c **** }
 1991              		.loc 1 661 1 discriminator 1
 1992 0422 488B5DE8 		movq	-24(%rbp), %rbx
 1993 0426 6448331C 		xorq	%fs:40, %rbx
 1993      25280000 
 1993      00
 1994 042f 7405     		je	.L90
 1995              		.loc 1 661 1 is_stmt 0
 1996 0431 E8000000 		call	__stack_chk_fail@PLT
 1996      00
 1997              	.L90:
 1998 0436 488D65F0 		leaq	-16(%rbp), %rsp
 1999 043a 5B       		popq	%rbx
 2000 043b 415C     		popq	%r12
 2001 043d 5D       		popq	%rbp
 2002              	.LCFI26:
 2003              		.cfi_def_cfa 7, 8
 2004 043e C3       		ret
 2005              		.cfi_endproc
 2006              	.LFE14:
 2008              		.section	.rodata
 2009 01d3 00000000 		.align 8
 2009      00
 2010              	.LC16:
 2011 01d8 5B25735D 		.string	"[%s][%u][%s] oc_mqtt_connect:server:%s port:%s\r\n"
 2011      5B25755D 
 2011      5B25735D 
 2011      206F635F 
 2011      6D717474 
 2012 0209 00000000 		.align 8
 2012      000000
 2013              	.LC17:
 2014 0210 5B25735D 		.string	"[%s][%u][%s] oc_mqtt_connect:client_id:%s\r\n"
 2014      5B25755D 
 2014      5B25735D 
 2014      206F635F 
 2014      6D717474 
 2015              	.LC18:
 2016 023c 4E554C4C 		.string	"NULL"
 2016      00
 2017 0241 00000000 		.align 8
 2017      000000
 2018              	.LC19:
GAS LISTING /tmp/cc7S055g.s 			page 57


 2019 0248 5B25735D 		.string	"[%s][%u][%s] oc_mqtt_connect:user:%s passwd:%s\r\n"
 2019      5B25755D 
 2019      5B25735D 
 2019      206F635F 
 2019      6D717474 
 2020              	.LC20:
 2021 0279 53554343 		.string	"SUCCESS"
 2021      45535300 
 2022              	.LC21:
 2023 0281 4641494C 		.string	"FAILED"
 2023      454400
 2024              		.align 8
 2025              	.LC22:
 2026 0288 5B25735D 		.string	"[%s][%u][%s] oc_mqtt_connect:recode:%d :%s\r\n"
 2026      5B25755D 
 2026      5B25735D 
 2026      206F635F 
 2026      6D717474 
 2027              		.section	.text.dmp_connect,"ax",@progbits
 2029              	dmp_connect:
 2030              	.LFB15:
 662:/home/xingli/share/1205tiny/oc/oc_mqtt/oc_mqtt_tiny_v5/oc_mqtt_tiny.c **** 
 663:/home/xingli/share/1205tiny/oc/oc_mqtt/oc_mqtt_tiny_v5/oc_mqtt_tiny.c **** 
 664:/home/xingli/share/1205tiny/oc/oc_mqtt/oc_mqtt_tiny_v5/oc_mqtt_tiny.c **** ///< return the reason code defined by the mqtt_al.h
 665:/home/xingli/share/1205tiny/oc/oc_mqtt/oc_mqtt_tiny_v5/oc_mqtt_tiny.c **** static int dmp_connect(oc_mqtt_tiny_cb_t *cb)
 666:/home/xingli/share/1205tiny/oc/oc_mqtt/oc_mqtt_tiny_v5/oc_mqtt_tiny.c **** {
 2031              		.loc 1 666 1 is_stmt 1
 2032              		.cfi_startproc
 2033 0000 F30F1EFA 		endbr64
 2034 0004 55       		pushq	%rbp
 2035              	.LCFI27:
 2036              		.cfi_def_cfa_offset 16
 2037              		.cfi_offset 6, -16
 2038 0005 4889E5   		movq	%rsp, %rbp
 2039              	.LCFI28:
 2040              		.cfi_def_cfa_register 6
 2041 0008 4155     		pushq	%r13
 2042 000a 4154     		pushq	%r12
 2043 000c 53       		pushq	%rbx
 2044 000d 4881ECA8 		subq	$168, %rsp
 2044      000000
 2045              		.cfi_offset 13, -24
 2046              		.cfi_offset 12, -32
 2047              		.cfi_offset 3, -40
 2048 0014 4889BD48 		movq	%rdi, -184(%rbp)
 2048      FFFFFF
 2049              		.loc 1 666 1
 2050 001b 64488B04 		movq	%fs:40, %rax
 2050      25280000 
 2050      00
 2051 0024 488945D8 		movq	%rax, -40(%rbp)
 2052 0028 31C0     		xorl	%eax, %eax
 667:/home/xingli/share/1205tiny/oc/oc_mqtt/oc_mqtt_tiny_v5/oc_mqtt_tiny.c ****     int  ret = (int)en_oc_mqtt_err_system;
 2053              		.loc 1 667 10
 2054 002a C7855CFF 		movl	$16, -164(%rbp)
 2054      FFFF1000 
 2054      0000
GAS LISTING /tmp/cc7S055g.s 			page 58


 668:/home/xingli/share/1205tiny/oc/oc_mqtt/oc_mqtt_tiny_v5/oc_mqtt_tiny.c **** 
 669:/home/xingli/share/1205tiny/oc/oc_mqtt/oc_mqtt_tiny_v5/oc_mqtt_tiny.c ****     mqtt_al_conpara_t conpara;
 670:/home/xingli/share/1205tiny/oc/oc_mqtt/oc_mqtt_tiny_v5/oc_mqtt_tiny.c **** 
 671:/home/xingli/share/1205tiny/oc/oc_mqtt/oc_mqtt_tiny_v5/oc_mqtt_tiny.c ****     (void) memset(&conpara,0,sizeof(conpara));
 2055              		.loc 1 671 12
 2056 0034 488D8560 		leaq	-160(%rbp), %rax
 2056      FFFFFF
 2057 003b BA700000 		movl	$112, %edx
 2057      00
 2058 0040 BE000000 		movl	$0, %esi
 2058      00
 2059 0045 4889C7   		movq	%rax, %rdi
 2060 0048 E8000000 		call	memset@PLT
 2060      00
 672:/home/xingli/share/1205tiny/oc/oc_mqtt/oc_mqtt_tiny_v5/oc_mqtt_tiny.c **** 
 673:/home/xingli/share/1205tiny/oc/oc_mqtt/oc_mqtt_tiny_v5/oc_mqtt_tiny.c ****     conpara.clientid.data = cb->mqtt_para.mqtt_clientid;
 2061              		.loc 1 673 42
 2062 004d 488B8548 		movq	-184(%rbp), %rax
 2062      FFFFFF
 2063 0054 488B8098 		movq	152(%rax), %rax
 2063      000000
 2064              		.loc 1 673 27
 2065 005b 48894588 		movq	%rax, -120(%rbp)
 674:/home/xingli/share/1205tiny/oc/oc_mqtt/oc_mqtt_tiny_v5/oc_mqtt_tiny.c ****     conpara.clientid.len = strlen(conpara.clientid.data);
 2066              		.loc 1 674 51
 2067 005f 488B4588 		movq	-120(%rbp), %rax
 2068              		.loc 1 674 28
 2069 0063 4889C7   		movq	%rax, %rdi
 2070 0066 E8000000 		call	strlen@PLT
 2070      00
 2071              		.loc 1 674 26
 2072 006b 894590   		movl	%eax, -112(%rbp)
 675:/home/xingli/share/1205tiny/oc/oc_mqtt/oc_mqtt_tiny_v5/oc_mqtt_tiny.c **** 
 676:/home/xingli/share/1205tiny/oc/oc_mqtt/oc_mqtt_tiny_v5/oc_mqtt_tiny.c ****     conpara.user.data =  cb->mqtt_para.mqtt_user;
 2073              		.loc 1 676 39
 2074 006e 488B8548 		movq	-184(%rbp), %rax
 2074      FFFFFF
 2075 0075 488B80A0 		movq	160(%rax), %rax
 2075      000000
 2076              		.loc 1 676 23
 2077 007c 48894598 		movq	%rax, -104(%rbp)
 677:/home/xingli/share/1205tiny/oc/oc_mqtt/oc_mqtt_tiny_v5/oc_mqtt_tiny.c ****     conpara.user.len = strlen(conpara.user.data);
 2078              		.loc 1 677 43
 2079 0080 488B4598 		movq	-104(%rbp), %rax
 2080              		.loc 1 677 24
 2081 0084 4889C7   		movq	%rax, %rdi
 2082 0087 E8000000 		call	strlen@PLT
 2082      00
 2083              		.loc 1 677 22
 2084 008c 8945A0   		movl	%eax, -96(%rbp)
 678:/home/xingli/share/1205tiny/oc/oc_mqtt/oc_mqtt_tiny_v5/oc_mqtt_tiny.c **** 
 679:/home/xingli/share/1205tiny/oc/oc_mqtt/oc_mqtt_tiny_v5/oc_mqtt_tiny.c ****     conpara.passwd.data = cb->mqtt_para.mqtt_passwd;
 2085              		.loc 1 679 40
 2086 008f 488B8548 		movq	-184(%rbp), %rax
 2086      FFFFFF
 2087 0096 488B80A8 		movq	168(%rax), %rax
 2087      000000
GAS LISTING /tmp/cc7S055g.s 			page 59


 2088              		.loc 1 679 25
 2089 009d 488945A8 		movq	%rax, -88(%rbp)
 680:/home/xingli/share/1205tiny/oc/oc_mqtt/oc_mqtt_tiny_v5/oc_mqtt_tiny.c ****     if(NULL != cb->mqtt_para.mqtt_passwd)
 2090              		.loc 1 680 29
 2091 00a1 488B8548 		movq	-184(%rbp), %rax
 2091      FFFFFF
 2092 00a8 488B80A8 		movq	168(%rax), %rax
 2092      000000
 2093              		.loc 1 680 7
 2094 00af 4885C0   		testq	%rax, %rax
 2095 00b2 740F     		je	.L98
 681:/home/xingli/share/1205tiny/oc/oc_mqtt/oc_mqtt_tiny_v5/oc_mqtt_tiny.c ****     {
 682:/home/xingli/share/1205tiny/oc/oc_mqtt/oc_mqtt_tiny_v5/oc_mqtt_tiny.c ****         conpara.passwd.len = strlen(conpara.passwd.data);
 2096              		.loc 1 682 51
 2097 00b4 488B45A8 		movq	-88(%rbp), %rax
 2098              		.loc 1 682 30
 2099 00b8 4889C7   		movq	%rax, %rdi
 2100 00bb E8000000 		call	strlen@PLT
 2100      00
 2101              		.loc 1 682 28
 2102 00c0 8945B0   		movl	%eax, -80(%rbp)
 2103              	.L98:
 683:/home/xingli/share/1205tiny/oc/oc_mqtt/oc_mqtt_tiny_v5/oc_mqtt_tiny.c ****     }
 684:/home/xingli/share/1205tiny/oc/oc_mqtt/oc_mqtt_tiny_v5/oc_mqtt_tiny.c **** 
 685:/home/xingli/share/1205tiny/oc/oc_mqtt/oc_mqtt_tiny_v5/oc_mqtt_tiny.c ****     conpara.cleansession = 1;
 2104              		.loc 1 685 26
 2105 00c3 C745B801 		movl	$1, -72(%rbp)
 2105      000000
 686:/home/xingli/share/1205tiny/oc/oc_mqtt/oc_mqtt_tiny_v5/oc_mqtt_tiny.c ****     conpara.keepalivetime = cb->config.lifetime;
 2106              		.loc 1 686 39
 2107 00ca 488B8548 		movq	-184(%rbp), %rax
 2107      FFFFFF
 2108 00d1 0FB74014 		movzwl	20(%rax), %eax
 2109              		.loc 1 686 27
 2110 00d5 668945C8 		movw	%ax, -56(%rbp)
 687:/home/xingli/share/1205tiny/oc/oc_mqtt/oc_mqtt_tiny_v5/oc_mqtt_tiny.c ****     conpara.security = &cb->config.security;
 2111              		.loc 1 687 24
 2112 00d9 488B8548 		movq	-184(%rbp), %rax
 2112      FFFFFF
 2113 00e0 4883C028 		addq	$40, %rax
 2114              		.loc 1 687 22
 2115 00e4 48898578 		movq	%rax, -136(%rbp)
 2115      FFFFFF
 688:/home/xingli/share/1205tiny/oc/oc_mqtt/oc_mqtt_tiny_v5/oc_mqtt_tiny.c ****     conpara.serveraddr.data = (char *)cb->mqtt_para.server_addr;
 2116              		.loc 1 688 31
 2117 00eb 488B8548 		movq	-184(%rbp), %rax
 2117      FFFFFF
 2118 00f2 488B80B0 		movq	176(%rax), %rax
 2118      000000
 2119              		.loc 1 688 29
 2120 00f9 48898560 		movq	%rax, -160(%rbp)
 2120      FFFFFF
 689:/home/xingli/share/1205tiny/oc/oc_mqtt/oc_mqtt_tiny_v5/oc_mqtt_tiny.c ****     conpara.serveraddr.len = strlen(conpara.serveraddr.data);
 2121              		.loc 1 689 55
 2122 0100 488B8560 		movq	-160(%rbp), %rax
 2122      FFFFFF
 2123              		.loc 1 689 30
GAS LISTING /tmp/cc7S055g.s 			page 60


 2124 0107 4889C7   		movq	%rax, %rdi
 2125 010a E8000000 		call	strlen@PLT
 2125      00
 2126              		.loc 1 689 28
 2127 010f 898568FF 		movl	%eax, -152(%rbp)
 2127      FFFF
 690:/home/xingli/share/1205tiny/oc/oc_mqtt/oc_mqtt_tiny_v5/oc_mqtt_tiny.c ****     conpara.serverport = atoi(cb->mqtt_para.server_port);
 2128              		.loc 1 690 44
 2129 0115 488B8548 		movq	-184(%rbp), %rax
 2129      FFFFFF
 2130 011c 488B80B8 		movq	184(%rax), %rax
 2130      000000
 2131              		.loc 1 690 26
 2132 0123 4889C7   		movq	%rax, %rdi
 2133 0126 E8000000 		call	atoi@PLT
 2133      00
 2134              		.loc 1 690 24
 2135 012b 898570FF 		movl	%eax, -144(%rbp)
 2135      FFFF
 691:/home/xingli/share/1205tiny/oc/oc_mqtt/oc_mqtt_tiny_v5/oc_mqtt_tiny.c ****     conpara.timeout = CN_OC_MQTT_TIMEOUT;
 2136              		.loc 1 691 21
 2137 0131 C745CC10 		movl	$10000, -52(%rbp)
 2137      270000
 692:/home/xingli/share/1205tiny/oc/oc_mqtt/oc_mqtt_tiny_v5/oc_mqtt_tiny.c ****     conpara.version = en_mqtt_al_version_3_1_1;
 2138              		.loc 1 692 21
 2139 0138 C7458001 		movl	$1, -128(%rbp)
 2139      000000
 693:/home/xingli/share/1205tiny/oc/oc_mqtt/oc_mqtt_tiny_v5/oc_mqtt_tiny.c ****     conpara.willmsg = NULL;
 2140              		.loc 1 693 21
 2141 013f 48C745C0 		movq	$0, -64(%rbp)
 2141      00000000 
 694:/home/xingli/share/1205tiny/oc/oc_mqtt/oc_mqtt_tiny_v5/oc_mqtt_tiny.c **** 
 695:/home/xingli/share/1205tiny/oc/oc_mqtt/oc_mqtt_tiny_v5/oc_mqtt_tiny.c ****     LINK_LOG_DEBUG("oc_mqtt_connect:server:%s port:%s",cb->mqtt_para.server_addr,cb->mqtt_para.serv
 2142              		.loc 1 695 5
 2143 0147 E8000000 		call	link_log_level_get@PLT
 2143      00
 2144 014c 83F801   		cmpl	$1, %eax
 2145 014f 7761     		ja	.L99
 2146              		.loc 1 695 5 is_stmt 0 discriminator 1
 2147 0151 488B8548 		movq	-184(%rbp), %rax
 2147      FFFFFF
 2148 0158 4C8BA0B8 		movq	184(%rax), %r12
 2148      000000
 2149 015f 488B8548 		movq	-184(%rbp), %rax
 2149      FFFFFF
 2150 0166 488B98B0 		movq	176(%rax), %rbx
 2150      000000
 2151 016d E8000000 		call	osal_sys_time@PLT
 2151      00
 2152 0172 4189C5   		movl	%eax, %r13d
 2153 0175 BF010000 		movl	$1, %edi
 2153      00
 2154 017a E8000000 		call	link_log_level_name@PLT
 2154      00
 2155 017f 4D89E1   		movq	%r12, %r9
 2156 0182 4989D8   		movq	%rbx, %r8
 2157 0185 488D0D00 		leaq	__FUNCTION__.4022(%rip), %rcx
GAS LISTING /tmp/cc7S055g.s 			page 61


 2157      000000
 2158 018c 4489EA   		movl	%r13d, %edx
 2159 018f 4889C6   		movq	%rax, %rsi
 2160 0192 488D3D00 		leaq	.LC16(%rip), %rdi
 2160      000000
 2161 0199 B8000000 		movl	$0, %eax
 2161      00
 2162 019e E8000000 		call	printf@PLT
 2162      00
 2163 01a3 488B0500 		movq	stdout(%rip), %rax
 2163      000000
 2164 01aa 4889C7   		movq	%rax, %rdi
 2165 01ad E8000000 		call	fflush@PLT
 2165      00
 2166              	.L99:
 696:/home/xingli/share/1205tiny/oc/oc_mqtt/oc_mqtt_tiny_v5/oc_mqtt_tiny.c ****     LINK_LOG_DEBUG("oc_mqtt_connect:client_id:%s",cb->mqtt_para.mqtt_clientid);
 2167              		.loc 1 696 5 is_stmt 1
 2168 01b2 E8000000 		call	link_log_level_get@PLT
 2168      00
 2169 01b7 83F801   		cmpl	$1, %eax
 2170 01ba 7750     		ja	.L100
 2171              		.loc 1 696 5 is_stmt 0 discriminator 1
 2172 01bc 488B8548 		movq	-184(%rbp), %rax
 2172      FFFFFF
 2173 01c3 488B9898 		movq	152(%rax), %rbx
 2173      000000
 2174 01ca E8000000 		call	osal_sys_time@PLT
 2174      00
 2175 01cf 4189C4   		movl	%eax, %r12d
 2176 01d2 BF010000 		movl	$1, %edi
 2176      00
 2177 01d7 E8000000 		call	link_log_level_name@PLT
 2177      00
 2178 01dc 4989D8   		movq	%rbx, %r8
 2179 01df 488D0D00 		leaq	__FUNCTION__.4022(%rip), %rcx
 2179      000000
 2180 01e6 4489E2   		movl	%r12d, %edx
 2181 01e9 4889C6   		movq	%rax, %rsi
 2182 01ec 488D3D00 		leaq	.LC17(%rip), %rdi
 2182      000000
 2183 01f3 B8000000 		movl	$0, %eax
 2183      00
 2184 01f8 E8000000 		call	printf@PLT
 2184      00
 2185 01fd 488B0500 		movq	stdout(%rip), %rax
 2185      000000
 2186 0204 4889C7   		movq	%rax, %rdi
 2187 0207 E8000000 		call	fflush@PLT
 2187      00
 2188              	.L100:
 697:/home/xingli/share/1205tiny/oc/oc_mqtt/oc_mqtt_tiny_v5/oc_mqtt_tiny.c ****     LINK_LOG_DEBUG("oc_mqtt_connect:user:%s passwd:%s",cb->mqtt_para.mqtt_user,(cb->mqtt_para.mqtt_
 2189              		.loc 1 697 5 is_stmt 1
 2190 020c E8000000 		call	link_log_level_get@PLT
 2190      00
 2191 0211 83F801   		cmpl	$1, %eax
 2192 0214 777D     		ja	.L101
 2193              		.loc 1 697 5 is_stmt 0 discriminator 1
GAS LISTING /tmp/cc7S055g.s 			page 62


 2194 0216 488B8548 		movq	-184(%rbp), %rax
 2194      FFFFFF
 2195 021d 488B80A8 		movq	168(%rax), %rax
 2195      000000
 2196 0224 4885C0   		testq	%rax, %rax
 2197 0227 7410     		je	.L102
 2198              		.loc 1 697 5 discriminator 2
 2199 0229 488B8548 		movq	-184(%rbp), %rax
 2199      FFFFFF
 2200 0230 488B98A8 		movq	168(%rax), %rbx
 2200      000000
 2201 0237 EB07     		jmp	.L103
 2202              	.L102:
 2203              		.loc 1 697 5 discriminator 3
 2204 0239 488D1D00 		leaq	.LC18(%rip), %rbx
 2204      000000
 2205              	.L103:
 2206              		.loc 1 697 5 discriminator 5
 2207 0240 488B8548 		movq	-184(%rbp), %rax
 2207      FFFFFF
 2208 0247 4C8BA0A0 		movq	160(%rax), %r12
 2208      000000
 2209 024e E8000000 		call	osal_sys_time@PLT
 2209      00
 2210 0253 4189C5   		movl	%eax, %r13d
 2211 0256 BF010000 		movl	$1, %edi
 2211      00
 2212 025b E8000000 		call	link_log_level_name@PLT
 2212      00
 2213 0260 4989D9   		movq	%rbx, %r9
 2214 0263 4D89E0   		movq	%r12, %r8
 2215 0266 488D0D00 		leaq	__FUNCTION__.4022(%rip), %rcx
 2215      000000
 2216 026d 4489EA   		movl	%r13d, %edx
 2217 0270 4889C6   		movq	%rax, %rsi
 2218 0273 488D3D00 		leaq	.LC19(%rip), %rdi
 2218      000000
 2219 027a B8000000 		movl	$0, %eax
 2219      00
 2220 027f E8000000 		call	printf@PLT
 2220      00
 2221 0284 488B0500 		movq	stdout(%rip), %rax
 2221      000000
 2222 028b 4889C7   		movq	%rax, %rdi
 2223 028e E8000000 		call	fflush@PLT
 2223      00
 2224              	.L101:
 698:/home/xingli/share/1205tiny/oc/oc_mqtt/oc_mqtt_tiny_v5/oc_mqtt_tiny.c ****     cb->mqtt_para.mqtt_handle = mqtt_al_connect(&conpara);
 2225              		.loc 1 698 33 is_stmt 1
 2226 0293 488D8560 		leaq	-160(%rbp), %rax
 2226      FFFFFF
 2227 029a 4889C7   		movq	%rax, %rdi
 2228 029d E8000000 		call	mqtt_al_connect@PLT
 2228      00
 2229              		.loc 1 698 31
 2230 02a2 488B9548 		movq	-184(%rbp), %rdx
 2230      FFFFFF
GAS LISTING /tmp/cc7S055g.s 			page 63


 2231 02a9 488982D8 		movq	%rax, 216(%rdx)
 2231      000000
 699:/home/xingli/share/1205tiny/oc/oc_mqtt/oc_mqtt_tiny_v5/oc_mqtt_tiny.c **** 
 700:/home/xingli/share/1205tiny/oc/oc_mqtt/oc_mqtt_tiny_v5/oc_mqtt_tiny.c ****     if(NULL != cb->mqtt_para.mqtt_handle)
 2232              		.loc 1 700 29
 2233 02b0 488B8548 		movq	-184(%rbp), %rax
 2233      FFFFFF
 2234 02b7 488B80D8 		movq	216(%rax), %rax
 2234      000000
 2235              		.loc 1 700 7
 2236 02be 4885C0   		testq	%rax, %rax
 2237 02c1 740C     		je	.L104
 701:/home/xingli/share/1205tiny/oc/oc_mqtt/oc_mqtt_tiny_v5/oc_mqtt_tiny.c ****     {
 702:/home/xingli/share/1205tiny/oc/oc_mqtt/oc_mqtt_tiny_v5/oc_mqtt_tiny.c ****         ret = (int)en_oc_mqtt_err_ok;
 2238              		.loc 1 702 13
 2239 02c3 C7855CFF 		movl	$0, -164(%rbp)
 2239      FFFF0000 
 2239      0000
 2240 02cd EB5A     		jmp	.L105
 2241              	.L104:
 703:/home/xingli/share/1205tiny/oc/oc_mqtt/oc_mqtt_tiny_v5/oc_mqtt_tiny.c ****     }
 704:/home/xingli/share/1205tiny/oc/oc_mqtt/oc_mqtt_tiny_v5/oc_mqtt_tiny.c ****     else
 705:/home/xingli/share/1205tiny/oc/oc_mqtt/oc_mqtt_tiny_v5/oc_mqtt_tiny.c ****     {
 706:/home/xingli/share/1205tiny/oc/oc_mqtt/oc_mqtt_tiny_v5/oc_mqtt_tiny.c ****         if(cn_mqtt_al_con_code_err_clientID == conpara.conret)
 2242              		.loc 1 706 55
 2243 02cf 0FB645CA 		movzbl	-54(%rbp), %eax
 2244              		.loc 1 706 11
 2245 02d3 3C02     		cmpb	$2, %al
 2246 02d5 750C     		jne	.L106
 707:/home/xingli/share/1205tiny/oc/oc_mqtt/oc_mqtt_tiny_v5/oc_mqtt_tiny.c ****         {
 708:/home/xingli/share/1205tiny/oc/oc_mqtt/oc_mqtt_tiny_v5/oc_mqtt_tiny.c ****             ret = (int)en_oc_mqtt_err_conclientid;
 2247              		.loc 1 708 17
 2248 02d7 C7855CFF 		movl	$4, -164(%rbp)
 2248      FFFF0400 
 2248      0000
 2249 02e1 EB46     		jmp	.L105
 2250              	.L106:
 709:/home/xingli/share/1205tiny/oc/oc_mqtt/oc_mqtt_tiny_v5/oc_mqtt_tiny.c ****         }
 710:/home/xingli/share/1205tiny/oc/oc_mqtt/oc_mqtt_tiny_v5/oc_mqtt_tiny.c ****         else if(cn_mqtt_al_con_code_err_netrefuse == conpara.conret)
 2251              		.loc 1 710 61
 2252 02e3 0FB645CA 		movzbl	-54(%rbp), %eax
 2253              		.loc 1 710 16
 2254 02e7 3C03     		cmpb	$3, %al
 2255 02e9 750C     		jne	.L107
 711:/home/xingli/share/1205tiny/oc/oc_mqtt/oc_mqtt_tiny_v5/oc_mqtt_tiny.c ****         {
 712:/home/xingli/share/1205tiny/oc/oc_mqtt/oc_mqtt_tiny_v5/oc_mqtt_tiny.c ****             ret = (int)en_oc_mqtt_err_conserver;
 2256              		.loc 1 712 17
 2257 02eb C7855CFF 		movl	$5, -164(%rbp)
 2257      FFFF0500 
 2257      0000
 2258 02f5 EB32     		jmp	.L105
 2259              	.L107:
 713:/home/xingli/share/1205tiny/oc/oc_mqtt/oc_mqtt_tiny_v5/oc_mqtt_tiny.c ****         }
 714:/home/xingli/share/1205tiny/oc/oc_mqtt/oc_mqtt_tiny_v5/oc_mqtt_tiny.c ****         else if(cn_mqtt_al_con_code_err_u_p == conpara.conret)
 2260              		.loc 1 714 55
 2261 02f7 0FB645CA 		movzbl	-54(%rbp), %eax
 2262              		.loc 1 714 16
GAS LISTING /tmp/cc7S055g.s 			page 64


 2263 02fb 3C04     		cmpb	$4, %al
 2264 02fd 750C     		jne	.L108
 715:/home/xingli/share/1205tiny/oc/oc_mqtt/oc_mqtt_tiny_v5/oc_mqtt_tiny.c ****         {
 716:/home/xingli/share/1205tiny/oc/oc_mqtt/oc_mqtt_tiny_v5/oc_mqtt_tiny.c ****             ret = (int)en_oc_mqtt_err_conuserpwd;
 2265              		.loc 1 716 17
 2266 02ff C7855CFF 		movl	$6, -164(%rbp)
 2266      FFFF0600 
 2266      0000
 2267 0309 EB1E     		jmp	.L105
 2268              	.L108:
 717:/home/xingli/share/1205tiny/oc/oc_mqtt/oc_mqtt_tiny_v5/oc_mqtt_tiny.c ****         }
 718:/home/xingli/share/1205tiny/oc/oc_mqtt/oc_mqtt_tiny_v5/oc_mqtt_tiny.c ****         else if(cn_mqtt_al_con_code_err_auth == conpara.conret)
 2269              		.loc 1 718 56
 2270 030b 0FB645CA 		movzbl	-54(%rbp), %eax
 2271              		.loc 1 718 16
 2272 030f 3C05     		cmpb	$5, %al
 2273 0311 750C     		jne	.L109
 719:/home/xingli/share/1205tiny/oc/oc_mqtt/oc_mqtt_tiny_v5/oc_mqtt_tiny.c ****         {
 720:/home/xingli/share/1205tiny/oc/oc_mqtt/oc_mqtt_tiny_v5/oc_mqtt_tiny.c ****             ret = (int)en_oc_mqtt_err_conclient;
 2274              		.loc 1 720 17
 2275 0313 C7855CFF 		movl	$7, -164(%rbp)
 2275      FFFF0700 
 2275      0000
 2276 031d EB0A     		jmp	.L105
 2277              	.L109:
 721:/home/xingli/share/1205tiny/oc/oc_mqtt/oc_mqtt_tiny_v5/oc_mqtt_tiny.c ****         }
 722:/home/xingli/share/1205tiny/oc/oc_mqtt/oc_mqtt_tiny_v5/oc_mqtt_tiny.c ****         else
 723:/home/xingli/share/1205tiny/oc/oc_mqtt/oc_mqtt_tiny_v5/oc_mqtt_tiny.c ****         {
 724:/home/xingli/share/1205tiny/oc/oc_mqtt/oc_mqtt_tiny_v5/oc_mqtt_tiny.c ****             ret = (int)en_oc_mqtt_err_network;
 2278              		.loc 1 724 17
 2279 031f C7855CFF 		movl	$2, -164(%rbp)
 2279      FFFF0200 
 2279      0000
 2280              	.L105:
 725:/home/xingli/share/1205tiny/oc/oc_mqtt/oc_mqtt_tiny_v5/oc_mqtt_tiny.c ****         }
 726:/home/xingli/share/1205tiny/oc/oc_mqtt/oc_mqtt_tiny_v5/oc_mqtt_tiny.c ****     }
 727:/home/xingli/share/1205tiny/oc/oc_mqtt/oc_mqtt_tiny_v5/oc_mqtt_tiny.c **** 
 728:/home/xingli/share/1205tiny/oc/oc_mqtt/oc_mqtt_tiny_v5/oc_mqtt_tiny.c ****     LINK_LOG_DEBUG("oc_mqtt_connect:recode:%d :%s",ret,ret==(int)en_oc_mqtt_err_ok?"SUCCESS":"FAILE
 2281              		.loc 1 728 5
 2282 0329 E8000000 		call	link_log_level_get@PLT
 2282      00
 2283 032e 83F801   		cmpl	$1, %eax
 2284 0331 7764     		ja	.L110
 2285              		.loc 1 728 5 is_stmt 0 discriminator 1
 2286 0333 83BD5CFF 		cmpl	$0, -164(%rbp)
 2286      FFFF00
 2287 033a 7509     		jne	.L111
 2288              		.loc 1 728 5 discriminator 2
 2289 033c 488D1D00 		leaq	.LC20(%rip), %rbx
 2289      000000
 2290 0343 EB07     		jmp	.L112
 2291              	.L111:
 2292              		.loc 1 728 5 discriminator 3
 2293 0345 488D1D00 		leaq	.LC21(%rip), %rbx
 2293      000000
 2294              	.L112:
 2295              		.loc 1 728 5 discriminator 5
GAS LISTING /tmp/cc7S055g.s 			page 65


 2296 034c E8000000 		call	osal_sys_time@PLT
 2296      00
 2297 0351 4189C4   		movl	%eax, %r12d
 2298 0354 BF010000 		movl	$1, %edi
 2298      00
 2299 0359 E8000000 		call	link_log_level_name@PLT
 2299      00
 2300 035e 8B955CFF 		movl	-164(%rbp), %edx
 2300      FFFF
 2301 0364 4989D9   		movq	%rbx, %r9
 2302 0367 4189D0   		movl	%edx, %r8d
 2303 036a 488D0D00 		leaq	__FUNCTION__.4022(%rip), %rcx
 2303      000000
 2304 0371 4489E2   		movl	%r12d, %edx
 2305 0374 4889C6   		movq	%rax, %rsi
 2306 0377 488D3D00 		leaq	.LC22(%rip), %rdi
 2306      000000
 2307 037e B8000000 		movl	$0, %eax
 2307      00
 2308 0383 E8000000 		call	printf@PLT
 2308      00
 2309 0388 488B0500 		movq	stdout(%rip), %rax
 2309      000000
 2310 038f 4889C7   		movq	%rax, %rdi
 2311 0392 E8000000 		call	fflush@PLT
 2311      00
 2312              	.L110:
 729:/home/xingli/share/1205tiny/oc/oc_mqtt/oc_mqtt_tiny_v5/oc_mqtt_tiny.c **** 
 730:/home/xingli/share/1205tiny/oc/oc_mqtt/oc_mqtt_tiny_v5/oc_mqtt_tiny.c ****     return ret;
 2313              		.loc 1 730 12 is_stmt 1
 2314 0397 8B855CFF 		movl	-164(%rbp), %eax
 2314      FFFF
 731:/home/xingli/share/1205tiny/oc/oc_mqtt/oc_mqtt_tiny_v5/oc_mqtt_tiny.c **** 
 732:/home/xingli/share/1205tiny/oc/oc_mqtt/oc_mqtt_tiny_v5/oc_mqtt_tiny.c **** }
 2315              		.loc 1 732 1
 2316 039d 488B4DD8 		movq	-40(%rbp), %rcx
 2317 03a1 6448330C 		xorq	%fs:40, %rcx
 2317      25280000 
 2317      00
 2318 03aa 7405     		je	.L114
 2319 03ac E8000000 		call	__stack_chk_fail@PLT
 2319      00
 2320              	.L114:
 2321 03b1 4881C4A8 		addq	$168, %rsp
 2321      000000
 2322 03b8 5B       		popq	%rbx
 2323 03b9 415C     		popq	%r12
 2324 03bb 415D     		popq	%r13
 2325 03bd 5D       		popq	%rbp
 2326              	.LCFI29:
 2327              		.cfi_def_cfa 7, 8
 2328 03be C3       		ret
 2329              		.cfi_endproc
 2330              	.LFE15:
 2332              		.section	.rodata
 2333 02b5 000000   		.align 8
 2334              	.LC23:
GAS LISTING /tmp/cc7S055g.s 			page 66


 2335 02b8 5B25735D 		.string	"[%s][%u][%s] oc_mqtt_subscribe:start\r\n"
 2335      5B25755D 
 2335      5B25735D 
 2335      206F635F 
 2335      6D717474 
 2336 02df 00       		.align 8
 2337              	.LC24:
 2338 02e0 5B25735D 		.string	"[%s][%u][%s] oc_mqtt_default_subscribe:topic:%s\r\n"
 2338      5B25755D 
 2338      5B25735D 
 2338      206F635F 
 2338      6D717474 
 2339 0312 00000000 		.align 8
 2339      0000
 2340              	.LC25:
 2341 0318 5B25735D 		.string	"[%s][%u][%s] oc_mqtt_default_subscribe:retcode:%d:%s\r\n"
 2341      5B25755D 
 2341      5B25735D 
 2341      206F635F 
 2341      6D717474 
 2342 034f 00       		.align 8
 2343              	.LC26:
 2344 0350 5B25735D 		.string	"[%s][%u][%s] oc_mqtt_subscribe:topic:%s\r\n"
 2344      5B25755D 
 2344      5B25735D 
 2344      206F635F 
 2344      6D717474 
 2345 037a 00000000 		.align 8
 2345      0000
 2346              	.LC27:
 2347 0380 5B25735D 		.string	"[%s][%u][%s] oc_mqtt_subscribe:retcode:%d:%s\r\n"
 2347      5B25755D 
 2347      5B25735D 
 2347      206F635F 
 2347      6D717474 
 2348 03af 00       		.align 8
 2349              	.LC28:
 2350 03b0 5B25735D 		.string	"[%s][%u][%s] oc_mqtt_subscribe:retcode:%d:%s\n\r\r\n"
 2350      5B25755D 
 2350      5B25735D 
 2350      206F635F 
 2350      6D717474 
 2351              		.section	.text.dmp_subscribe,"ax",@progbits
 2353              	dmp_subscribe:
 2354              	.LFB16:
 733:/home/xingli/share/1205tiny/oc/oc_mqtt/oc_mqtt_tiny_v5/oc_mqtt_tiny.c **** 
 734:/home/xingli/share/1205tiny/oc/oc_mqtt/oc_mqtt_tiny_v5/oc_mqtt_tiny.c **** static int dmp_subscribe(oc_mqtt_tiny_cb_t *cb)
 735:/home/xingli/share/1205tiny/oc/oc_mqtt/oc_mqtt_tiny_v5/oc_mqtt_tiny.c **** {
 2355              		.loc 1 735 1
 2356              		.cfi_startproc
 2357 0000 F30F1EFA 		endbr64
 2358 0004 55       		pushq	%rbp
 2359              	.LCFI30:
 2360              		.cfi_def_cfa_offset 16
 2361              		.cfi_offset 6, -16
 2362 0005 4889E5   		movq	%rsp, %rbp
 2363              	.LCFI31:
GAS LISTING /tmp/cc7S055g.s 			page 67


 2364              		.cfi_def_cfa_register 6
 2365 0008 4154     		pushq	%r12
 2366 000a 53       		pushq	%rbx
 2367 000b 4883EC60 		subq	$96, %rsp
 2368              		.cfi_offset 12, -24
 2369              		.cfi_offset 3, -32
 2370 000f 48897D98 		movq	%rdi, -104(%rbp)
 2371              		.loc 1 735 1
 2372 0013 64488B04 		movq	%fs:40, %rax
 2372      25280000 
 2372      00
 2373 001c 488945E8 		movq	%rax, -24(%rbp)
 2374 0020 31C0     		xorl	%eax, %eax
 736:/home/xingli/share/1205tiny/oc/oc_mqtt/oc_mqtt_tiny_v5/oc_mqtt_tiny.c ****     int  ret = (int)en_oc_mqtt_err_system;
 2375              		.loc 1 736 10
 2376 0022 C745A010 		movl	$16, -96(%rbp)
 2376      000000
 737:/home/xingli/share/1205tiny/oc/oc_mqtt/oc_mqtt_tiny_v5/oc_mqtt_tiny.c ****     mqtt_al_subpara_t   subpara;
 738:/home/xingli/share/1205tiny/oc/oc_mqtt/oc_mqtt_tiny_v5/oc_mqtt_tiny.c **** 
 739:/home/xingli/share/1205tiny/oc/oc_mqtt/oc_mqtt_tiny_v5/oc_mqtt_tiny.c ****     LINK_LOG_DEBUG("oc_mqtt_subscribe:start");
 2377              		.loc 1 739 5
 2378 0029 E8000000 		call	link_log_level_get@PLT
 2378      00
 2379 002e 83F801   		cmpl	$1, %eax
 2380 0031 773D     		ja	.L116
 2381              		.loc 1 739 5 is_stmt 0 discriminator 1
 2382 0033 E8000000 		call	osal_sys_time@PLT
 2382      00
 2383 0038 89C3     		movl	%eax, %ebx
 2384 003a BF010000 		movl	$1, %edi
 2384      00
 2385 003f E8000000 		call	link_log_level_name@PLT
 2385      00
 2386 0044 488D0D00 		leaq	__FUNCTION__.4028(%rip), %rcx
 2386      000000
 2387 004b 89DA     		movl	%ebx, %edx
 2388 004d 4889C6   		movq	%rax, %rsi
 2389 0050 488D3D00 		leaq	.LC23(%rip), %rdi
 2389      000000
 2390 0057 B8000000 		movl	$0, %eax
 2390      00
 2391 005c E8000000 		call	printf@PLT
 2391      00
 2392 0061 488B0500 		movq	stdout(%rip), %rax
 2392      000000
 2393 0068 4889C7   		movq	%rax, %rdi
 2394 006b E8000000 		call	fflush@PLT
 2394      00
 2395              	.L116:
 740:/home/xingli/share/1205tiny/oc/oc_mqtt/oc_mqtt_tiny_v5/oc_mqtt_tiny.c **** 
 741:/home/xingli/share/1205tiny/oc/oc_mqtt/oc_mqtt_tiny_v5/oc_mqtt_tiny.c ****     if(NULL == cb->mqtt_para.mqtt_handle)
 2396              		.loc 1 741 29 is_stmt 1
 2397 0070 488B4598 		movq	-104(%rbp), %rax
 2398 0074 488B80D8 		movq	216(%rax), %rax
 2398      000000
 2399              		.loc 1 741 7
 2400 007b 4885C0   		testq	%rax, %rax
GAS LISTING /tmp/cc7S055g.s 			page 68


 2401 007e 750F     		jne	.L117
 742:/home/xingli/share/1205tiny/oc/oc_mqtt/oc_mqtt_tiny_v5/oc_mqtt_tiny.c ****     {
 743:/home/xingli/share/1205tiny/oc/oc_mqtt/oc_mqtt_tiny_v5/oc_mqtt_tiny.c ****         ret = (int)en_oc_mqtt_err_noconected;
 2402              		.loc 1 743 13
 2403 0080 C745A00D 		movl	$13, -96(%rbp)
 2403      000000
 744:/home/xingli/share/1205tiny/oc/oc_mqtt/oc_mqtt_tiny_v5/oc_mqtt_tiny.c ****         return ret;
 2404              		.loc 1 744 16
 2405 0087 8B45A0   		movl	-96(%rbp), %eax
 2406 008a E9D40300 		jmp	.L136
 2406      00
 2407              	.L117:
 745:/home/xingli/share/1205tiny/oc/oc_mqtt/oc_mqtt_tiny_v5/oc_mqtt_tiny.c ****     }
 746:/home/xingli/share/1205tiny/oc/oc_mqtt/oc_mqtt_tiny_v5/oc_mqtt_tiny.c ****     (void) memset(&subpara,0,sizeof(subpara));
 2408              		.loc 1 746 12
 2409 008f 488D45B0 		leaq	-80(%rbp), %rax
 2410 0093 BA300000 		movl	$48, %edx
 2410      00
 2411 0098 BE000000 		movl	$0, %esi
 2411      00
 2412 009d 4889C7   		movq	%rax, %rdi
 2413 00a0 E8000000 		call	memset@PLT
 2413      00
 747:/home/xingli/share/1205tiny/oc/oc_mqtt/oc_mqtt_tiny_v5/oc_mqtt_tiny.c **** 
 748:/home/xingli/share/1205tiny/oc/oc_mqtt/oc_mqtt_tiny_v5/oc_mqtt_tiny.c ****     if(cb->flag.bits.bit_daemon_status == (int)en_daemon_status_bs_getaddr)
 2414              		.loc 1 748 40
 2415 00a5 488B4598 		movq	-104(%rbp), %rax
 2416 00a9 0FB680E0 		movzbl	224(%rax), %eax
 2416      000000
 2417 00b0 83E00E   		andl	$14, %eax
 2418              		.loc 1 748 7
 2419 00b3 3C02     		cmpb	$2, %al
 2420 00b5 750D     		jne	.L119
 749:/home/xingli/share/1205tiny/oc/oc_mqtt/oc_mqtt_tiny_v5/oc_mqtt_tiny.c ****     {
 750:/home/xingli/share/1205tiny/oc/oc_mqtt/oc_mqtt_tiny_v5/oc_mqtt_tiny.c ****         subpara.dealer = bs_msg_default_deal;
 2421              		.loc 1 750 24
 2422 00b7 488D0500 		leaq	bs_msg_default_deal(%rip), %rax
 2422      000000
 2423 00be 488945C8 		movq	%rax, -56(%rbp)
 2424 00c2 EB0B     		jmp	.L120
 2425              	.L119:
 751:/home/xingli/share/1205tiny/oc/oc_mqtt/oc_mqtt_tiny_v5/oc_mqtt_tiny.c ****     }
 752:/home/xingli/share/1205tiny/oc/oc_mqtt/oc_mqtt_tiny_v5/oc_mqtt_tiny.c ****     else
 753:/home/xingli/share/1205tiny/oc/oc_mqtt/oc_mqtt_tiny_v5/oc_mqtt_tiny.c ****     {
 754:/home/xingli/share/1205tiny/oc/oc_mqtt/oc_mqtt_tiny_v5/oc_mqtt_tiny.c ****         subpara.dealer = hub_msg_default_deal;
 2426              		.loc 1 754 24
 2427 00c4 488D0500 		leaq	hub_msg_default_deal(%rip), %rax
 2427      000000
 2428 00cb 488945C8 		movq	%rax, -56(%rbp)
 2429              	.L120:
 755:/home/xingli/share/1205tiny/oc/oc_mqtt/oc_mqtt_tiny_v5/oc_mqtt_tiny.c ****     }
 756:/home/xingli/share/1205tiny/oc/oc_mqtt/oc_mqtt_tiny_v5/oc_mqtt_tiny.c **** 
 757:/home/xingli/share/1205tiny/oc/oc_mqtt/oc_mqtt_tiny_v5/oc_mqtt_tiny.c ****     subpara.arg = cb;
 2430              		.loc 1 757 17
 2431 00cf 488B4598 		movq	-104(%rbp), %rax
 2432 00d3 488945D0 		movq	%rax, -48(%rbp)
 758:/home/xingli/share/1205tiny/oc/oc_mqtt/oc_mqtt_tiny_v5/oc_mqtt_tiny.c ****     subpara.qos = en_mqtt_al_qos_1;
GAS LISTING /tmp/cc7S055g.s 			page 69


 2433              		.loc 1 758 17
 2434 00d7 C745C001 		movl	$1, -64(%rbp)
 2434      000000
 759:/home/xingli/share/1205tiny/oc/oc_mqtt/oc_mqtt_tiny_v5/oc_mqtt_tiny.c ****     subpara.topic.data = cb->mqtt_para.default_sub_topic ;
 2435              		.loc 1 759 39
 2436 00de 488B4598 		movq	-104(%rbp), %rax
 2437 00e2 488B80C8 		movq	200(%rax), %rax
 2437      000000
 2438              		.loc 1 759 24
 2439 00e9 488945B0 		movq	%rax, -80(%rbp)
 760:/home/xingli/share/1205tiny/oc/oc_mqtt/oc_mqtt_tiny_v5/oc_mqtt_tiny.c ****     subpara.topic.len = strlen(subpara.topic.data );
 2440              		.loc 1 760 45
 2441 00ed 488B45B0 		movq	-80(%rbp), %rax
 2442              		.loc 1 760 25
 2443 00f1 4889C7   		movq	%rax, %rdi
 2444 00f4 E8000000 		call	strlen@PLT
 2444      00
 2445              		.loc 1 760 23
 2446 00f9 8945B8   		movl	%eax, -72(%rbp)
 761:/home/xingli/share/1205tiny/oc/oc_mqtt/oc_mqtt_tiny_v5/oc_mqtt_tiny.c ****     subpara.timeout = CN_OC_MQTT_TIMEOUT;
 2447              		.loc 1 761 21
 2448 00fc C745DC10 		movl	$10000, -36(%rbp)
 2448      270000
 762:/home/xingli/share/1205tiny/oc/oc_mqtt/oc_mqtt_tiny_v5/oc_mqtt_tiny.c **** 
 763:/home/xingli/share/1205tiny/oc/oc_mqtt/oc_mqtt_tiny_v5/oc_mqtt_tiny.c **** 
 764:/home/xingli/share/1205tiny/oc/oc_mqtt/oc_mqtt_tiny_v5/oc_mqtt_tiny.c ****     LINK_LOG_DEBUG("oc_mqtt_default_subscribe:topic:%s",subpara.topic.data);
 2449              		.loc 1 764 5
 2450 0103 E8000000 		call	link_log_level_get@PLT
 2450      00
 2451 0108 83F801   		cmpl	$1, %eax
 2452 010b 7746     		ja	.L121
 2453              		.loc 1 764 5 is_stmt 0 discriminator 1
 2454 010d 488B5DB0 		movq	-80(%rbp), %rbx
 2455 0111 E8000000 		call	osal_sys_time@PLT
 2455      00
 2456 0116 4189C4   		movl	%eax, %r12d
 2457 0119 BF010000 		movl	$1, %edi
 2457      00
 2458 011e E8000000 		call	link_log_level_name@PLT
 2458      00
 2459 0123 4989D8   		movq	%rbx, %r8
 2460 0126 488D0D00 		leaq	__FUNCTION__.4028(%rip), %rcx
 2460      000000
 2461 012d 4489E2   		movl	%r12d, %edx
 2462 0130 4889C6   		movq	%rax, %rsi
 2463 0133 488D3D00 		leaq	.LC24(%rip), %rdi
 2463      000000
 2464 013a B8000000 		movl	$0, %eax
 2464      00
 2465 013f E8000000 		call	printf@PLT
 2465      00
 2466 0144 488B0500 		movq	stdout(%rip), %rax
 2466      000000
 2467 014b 4889C7   		movq	%rax, %rdi
 2468 014e E8000000 		call	fflush@PLT
 2468      00
 2469              	.L121:
GAS LISTING /tmp/cc7S055g.s 			page 70


 765:/home/xingli/share/1205tiny/oc/oc_mqtt/oc_mqtt_tiny_v5/oc_mqtt_tiny.c **** 
 766:/home/xingli/share/1205tiny/oc/oc_mqtt/oc_mqtt_tiny_v5/oc_mqtt_tiny.c ****     ret = mqtt_al_subscribe(cb->mqtt_para.mqtt_handle,&subpara);
 2470              		.loc 1 766 11 is_stmt 1
 2471 0153 488B4598 		movq	-104(%rbp), %rax
 2472 0157 488B80D8 		movq	216(%rax), %rax
 2472      000000
 2473 015e 488D55B0 		leaq	-80(%rbp), %rdx
 2474 0162 4889D6   		movq	%rdx, %rsi
 2475 0165 4889C7   		movq	%rax, %rdi
 2476 0168 E8000000 		call	mqtt_al_subscribe@PLT
 2476      00
 2477 016d 8945A0   		movl	%eax, -96(%rbp)
 767:/home/xingli/share/1205tiny/oc/oc_mqtt/oc_mqtt_tiny_v5/oc_mqtt_tiny.c ****     if(0 != ret)
 2478              		.loc 1 767 7
 2479 0170 837DA000 		cmpl	$0, -96(%rbp)
 2480 0174 7407     		je	.L122
 768:/home/xingli/share/1205tiny/oc/oc_mqtt/oc_mqtt_tiny_v5/oc_mqtt_tiny.c ****     {
 769:/home/xingli/share/1205tiny/oc/oc_mqtt/oc_mqtt_tiny_v5/oc_mqtt_tiny.c ****         ret = (int)en_oc_mqtt_err_subscribe;
 2481              		.loc 1 769 13
 2482 0176 C745A008 		movl	$8, -96(%rbp)
 2482      000000
 2483              	.L122:
 770:/home/xingli/share/1205tiny/oc/oc_mqtt/oc_mqtt_tiny_v5/oc_mqtt_tiny.c ****     }
 771:/home/xingli/share/1205tiny/oc/oc_mqtt/oc_mqtt_tiny_v5/oc_mqtt_tiny.c **** 
 772:/home/xingli/share/1205tiny/oc/oc_mqtt/oc_mqtt_tiny_v5/oc_mqtt_tiny.c ****     LINK_LOG_DEBUG("oc_mqtt_default_subscribe:retcode:%d:%s",ret,oc_mqtt_err(ret));
 2484              		.loc 1 772 5
 2485 017d E8000000 		call	link_log_level_get@PLT
 2485      00
 2486 0182 83F801   		cmpl	$1, %eax
 2487 0185 7755     		ja	.L123
 2488              		.loc 1 772 5 is_stmt 0 discriminator 1
 2489 0187 8B45A0   		movl	-96(%rbp), %eax
 2490 018a 89C7     		movl	%eax, %edi
 2491 018c E8000000 		call	oc_mqtt_err@PLT
 2491      00
 2492 0191 4889C3   		movq	%rax, %rbx
 2493 0194 E8000000 		call	osal_sys_time@PLT
 2493      00
 2494 0199 4189C4   		movl	%eax, %r12d
 2495 019c BF010000 		movl	$1, %edi
 2495      00
 2496 01a1 E8000000 		call	link_log_level_name@PLT
 2496      00
 2497 01a6 8B55A0   		movl	-96(%rbp), %edx
 2498 01a9 4989D9   		movq	%rbx, %r9
 2499 01ac 4189D0   		movl	%edx, %r8d
 2500 01af 488D0D00 		leaq	__FUNCTION__.4028(%rip), %rcx
 2500      000000
 2501 01b6 4489E2   		movl	%r12d, %edx
 2502 01b9 4889C6   		movq	%rax, %rsi
 2503 01bc 488D3D00 		leaq	.LC25(%rip), %rdi
 2503      000000
 2504 01c3 B8000000 		movl	$0, %eax
 2504      00
 2505 01c8 E8000000 		call	printf@PLT
 2505      00
 2506 01cd 488B0500 		movq	stdout(%rip), %rax
GAS LISTING /tmp/cc7S055g.s 			page 71


 2506      000000
 2507 01d4 4889C7   		movq	%rax, %rdi
 2508 01d7 E8000000 		call	fflush@PLT
 2508      00
 2509              	.L123:
 773:/home/xingli/share/1205tiny/oc/oc_mqtt/oc_mqtt_tiny_v5/oc_mqtt_tiny.c **** 
 774:/home/xingli/share/1205tiny/oc/oc_mqtt/oc_mqtt_tiny_v5/oc_mqtt_tiny.c ****     ///if not the bs mode, then subscribe all the other topic
 775:/home/xingli/share/1205tiny/oc/oc_mqtt/oc_mqtt_tiny_v5/oc_mqtt_tiny.c ****     if(cb->flag.bits.bit_daemon_status != (int)en_daemon_status_bs_getaddr)
 2510              		.loc 1 775 40 is_stmt 1
 2511 01dc 488B4598 		movq	-104(%rbp), %rax
 2512 01e0 0FB680E0 		movzbl	224(%rax), %eax
 2512      000000
 2513 01e7 83E00E   		andl	$14, %eax
 2514              		.loc 1 775 7
 2515 01ea 3C02     		cmpb	$2, %al
 2516 01ec 0F846E02 		je	.L124
 2516      0000
 2517              	.LBB2:
 776:/home/xingli/share/1205tiny/oc/oc_mqtt/oc_mqtt_tiny_v5/oc_mqtt_tiny.c ****     {
 777:/home/xingli/share/1205tiny/oc/oc_mqtt/oc_mqtt_tiny_v5/oc_mqtt_tiny.c ****         int i = 0;
 2518              		.loc 1 777 13
 2519 01f2 C745A400 		movl	$0, -92(%rbp)
 2519      000000
 778:/home/xingli/share/1205tiny/oc/oc_mqtt/oc_mqtt_tiny_v5/oc_mqtt_tiny.c ****         for(i =0;i<(int)CN_NEW_TOPIC_NUM;i++)
 2520              		.loc 1 778 15
 2521 01f9 C745A400 		movl	$0, -92(%rbp)
 2521      000000
 2522              		.loc 1 778 9
 2523 0200 E91B0100 		jmp	.L125
 2523      00
 2524              	.L130:
 779:/home/xingli/share/1205tiny/oc/oc_mqtt/oc_mqtt_tiny_v5/oc_mqtt_tiny.c ****         {
 780:/home/xingli/share/1205tiny/oc/oc_mqtt/oc_mqtt_tiny_v5/oc_mqtt_tiny.c ****             subpara.arg = cb;
 2525              		.loc 1 780 25
 2526 0205 488B4598 		movq	-104(%rbp), %rax
 2527 0209 488945D0 		movq	%rax, -48(%rbp)
 781:/home/xingli/share/1205tiny/oc/oc_mqtt/oc_mqtt_tiny_v5/oc_mqtt_tiny.c ****             subpara.qos = en_mqtt_al_qos_1;
 2528              		.loc 1 781 25
 2529 020d C745C001 		movl	$1, -64(%rbp)
 2529      000000
 782:/home/xingli/share/1205tiny/oc/oc_mqtt/oc_mqtt_tiny_v5/oc_mqtt_tiny.c ****             subpara.topic.data = cb->hub_sub_topic[i] ;
 2530              		.loc 1 782 51
 2531 0214 488B4598 		movq	-104(%rbp), %rax
 2532 0218 8B55A4   		movl	-92(%rbp), %edx
 2533 021b 4863D2   		movslq	%edx, %rdx
 2534 021e 4883C222 		addq	$34, %rdx
 2535 0222 488B44D0 		movq	8(%rax,%rdx,8), %rax
 2535      08
 2536              		.loc 1 782 32
 2537 0227 488945B0 		movq	%rax, -80(%rbp)
 783:/home/xingli/share/1205tiny/oc/oc_mqtt/oc_mqtt_tiny_v5/oc_mqtt_tiny.c ****             subpara.topic.len = strlen(subpara.topic.data );
 2538              		.loc 1 783 53
 2539 022b 488B45B0 		movq	-80(%rbp), %rax
 2540              		.loc 1 783 33
 2541 022f 4889C7   		movq	%rax, %rdi
 2542 0232 E8000000 		call	strlen@PLT
 2542      00
GAS LISTING /tmp/cc7S055g.s 			page 72


 2543              		.loc 1 783 31
 2544 0237 8945B8   		movl	%eax, -72(%rbp)
 784:/home/xingli/share/1205tiny/oc/oc_mqtt/oc_mqtt_tiny_v5/oc_mqtt_tiny.c ****             subpara.timeout = CN_OC_MQTT_TIMEOUT;
 2545              		.loc 1 784 29
 2546 023a C745DC10 		movl	$10000, -36(%rbp)
 2546      270000
 785:/home/xingli/share/1205tiny/oc/oc_mqtt/oc_mqtt_tiny_v5/oc_mqtt_tiny.c **** 
 786:/home/xingli/share/1205tiny/oc/oc_mqtt/oc_mqtt_tiny_v5/oc_mqtt_tiny.c ****             LINK_LOG_DEBUG("oc_mqtt_subscribe:topic:%s",subpara.topic.data);
 2547              		.loc 1 786 13
 2548 0241 E8000000 		call	link_log_level_get@PLT
 2548      00
 2549 0246 83F801   		cmpl	$1, %eax
 2550 0249 7746     		ja	.L126
 2551              		.loc 1 786 13 is_stmt 0 discriminator 1
 2552 024b 488B5DB0 		movq	-80(%rbp), %rbx
 2553 024f E8000000 		call	osal_sys_time@PLT
 2553      00
 2554 0254 4189C4   		movl	%eax, %r12d
 2555 0257 BF010000 		movl	$1, %edi
 2555      00
 2556 025c E8000000 		call	link_log_level_name@PLT
 2556      00
 2557 0261 4989D8   		movq	%rbx, %r8
 2558 0264 488D0D00 		leaq	__FUNCTION__.4028(%rip), %rcx
 2558      000000
 2559 026b 4489E2   		movl	%r12d, %edx
 2560 026e 4889C6   		movq	%rax, %rsi
 2561 0271 488D3D00 		leaq	.LC26(%rip), %rdi
 2561      000000
 2562 0278 B8000000 		movl	$0, %eax
 2562      00
 2563 027d E8000000 		call	printf@PLT
 2563      00
 2564 0282 488B0500 		movq	stdout(%rip), %rax
 2564      000000
 2565 0289 4889C7   		movq	%rax, %rdi
 2566 028c E8000000 		call	fflush@PLT
 2566      00
 2567              	.L126:
 787:/home/xingli/share/1205tiny/oc/oc_mqtt/oc_mqtt_tiny_v5/oc_mqtt_tiny.c **** 
 788:/home/xingli/share/1205tiny/oc/oc_mqtt/oc_mqtt_tiny_v5/oc_mqtt_tiny.c ****             ret = mqtt_al_subscribe(cb->mqtt_para.mqtt_handle,&subpara);
 2568              		.loc 1 788 19 is_stmt 1
 2569 0291 488B4598 		movq	-104(%rbp), %rax
 2570 0295 488B80D8 		movq	216(%rax), %rax
 2570      000000
 2571 029c 488D55B0 		leaq	-80(%rbp), %rdx
 2572 02a0 4889D6   		movq	%rdx, %rsi
 2573 02a3 4889C7   		movq	%rax, %rdi
 2574 02a6 E8000000 		call	mqtt_al_subscribe@PLT
 2574      00
 2575 02ab 8945A0   		movl	%eax, -96(%rbp)
 789:/home/xingli/share/1205tiny/oc/oc_mqtt/oc_mqtt_tiny_v5/oc_mqtt_tiny.c **** 
 790:/home/xingli/share/1205tiny/oc/oc_mqtt/oc_mqtt_tiny_v5/oc_mqtt_tiny.c ****             LINK_LOG_DEBUG("oc_mqtt_subscribe:retcode:%d:%s",ret,oc_mqtt_err(ret));
 2576              		.loc 1 790 13
 2577 02ae E8000000 		call	link_log_level_get@PLT
 2577      00
 2578 02b3 83F801   		cmpl	$1, %eax
GAS LISTING /tmp/cc7S055g.s 			page 73


 2579 02b6 7755     		ja	.L127
 2580              		.loc 1 790 13 is_stmt 0 discriminator 1
 2581 02b8 8B45A0   		movl	-96(%rbp), %eax
 2582 02bb 89C7     		movl	%eax, %edi
 2583 02bd E8000000 		call	oc_mqtt_err@PLT
 2583      00
 2584 02c2 4889C3   		movq	%rax, %rbx
 2585 02c5 E8000000 		call	osal_sys_time@PLT
 2585      00
 2586 02ca 4189C4   		movl	%eax, %r12d
 2587 02cd BF010000 		movl	$1, %edi
 2587      00
 2588 02d2 E8000000 		call	link_log_level_name@PLT
 2588      00
 2589 02d7 8B55A0   		movl	-96(%rbp), %edx
 2590 02da 4989D9   		movq	%rbx, %r9
 2591 02dd 4189D0   		movl	%edx, %r8d
 2592 02e0 488D0D00 		leaq	__FUNCTION__.4028(%rip), %rcx
 2592      000000
 2593 02e7 4489E2   		movl	%r12d, %edx
 2594 02ea 4889C6   		movq	%rax, %rsi
 2595 02ed 488D3D00 		leaq	.LC27(%rip), %rdi
 2595      000000
 2596 02f4 B8000000 		movl	$0, %eax
 2596      00
 2597 02f9 E8000000 		call	printf@PLT
 2597      00
 2598 02fe 488B0500 		movq	stdout(%rip), %rax
 2598      000000
 2599 0305 4889C7   		movq	%rax, %rdi
 2600 0308 E8000000 		call	fflush@PLT
 2600      00
 2601              	.L127:
 791:/home/xingli/share/1205tiny/oc/oc_mqtt/oc_mqtt_tiny_v5/oc_mqtt_tiny.c ****             if(0 != ret)
 2602              		.loc 1 791 15 is_stmt 1
 2603 030d 837DA000 		cmpl	$0, -96(%rbp)
 2604 0311 7409     		je	.L128
 792:/home/xingli/share/1205tiny/oc/oc_mqtt/oc_mqtt_tiny_v5/oc_mqtt_tiny.c ****             {
 793:/home/xingli/share/1205tiny/oc/oc_mqtt/oc_mqtt_tiny_v5/oc_mqtt_tiny.c ****                  ret = (int)en_oc_mqtt_err_subscribe;
 2605              		.loc 1 793 22
 2606 0313 C745A008 		movl	$8, -96(%rbp)
 2606      000000
 794:/home/xingli/share/1205tiny/oc/oc_mqtt/oc_mqtt_tiny_v5/oc_mqtt_tiny.c ****                  break;
 2607              		.loc 1 794 18
 2608 031a EB0E     		jmp	.L129
 2609              	.L128:
 778:/home/xingli/share/1205tiny/oc/oc_mqtt/oc_mqtt_tiny_v5/oc_mqtt_tiny.c ****         {
 2610              		.loc 1 778 43 discriminator 2
 2611 031c 8345A401 		addl	$1, -92(%rbp)
 2612              	.L125:
 778:/home/xingli/share/1205tiny/oc/oc_mqtt/oc_mqtt_tiny_v5/oc_mqtt_tiny.c ****         {
 2613              		.loc 1 778 9 discriminator 1
 2614 0320 837DA404 		cmpl	$4, -92(%rbp)
 2615 0324 0F8EDBFE 		jle	.L130
 2615      FFFF
 2616              	.L129:
 795:/home/xingli/share/1205tiny/oc/oc_mqtt/oc_mqtt_tiny_v5/oc_mqtt_tiny.c ****             }
GAS LISTING /tmp/cc7S055g.s 			page 74


 796:/home/xingli/share/1205tiny/oc/oc_mqtt/oc_mqtt_tiny_v5/oc_mqtt_tiny.c ****         }
 797:/home/xingli/share/1205tiny/oc/oc_mqtt/oc_mqtt_tiny_v5/oc_mqtt_tiny.c **** 
 798:/home/xingli/share/1205tiny/oc/oc_mqtt/oc_mqtt_tiny_v5/oc_mqtt_tiny.c ****         ///< subscribe the user topic
 799:/home/xingli/share/1205tiny/oc/oc_mqtt/oc_mqtt_tiny_v5/oc_mqtt_tiny.c ****         tiny_topic_sub_t  *topic_sub;
 800:/home/xingli/share/1205tiny/oc/oc_mqtt/oc_mqtt_tiny_v5/oc_mqtt_tiny.c ****         topic_sub = cb->subscribe_lst;
 2617              		.loc 1 800 19
 2618 032a 488B4598 		movq	-104(%rbp), %rax
 2619 032e 488B8040 		movq	320(%rax), %rax
 2619      010000
 2620 0335 488945A8 		movq	%rax, -88(%rbp)
 801:/home/xingli/share/1205tiny/oc/oc_mqtt/oc_mqtt_tiny_v5/oc_mqtt_tiny.c ****         while(NULL != topic_sub)
 2621              		.loc 1 801 14
 2622 0339 E9170100 		jmp	.L131
 2622      00
 2623              	.L135:
 802:/home/xingli/share/1205tiny/oc/oc_mqtt/oc_mqtt_tiny_v5/oc_mqtt_tiny.c ****         {
 803:/home/xingli/share/1205tiny/oc/oc_mqtt/oc_mqtt_tiny_v5/oc_mqtt_tiny.c ****             subpara.arg = cb;
 2624              		.loc 1 803 25
 2625 033e 488B4598 		movq	-104(%rbp), %rax
 2626 0342 488945D0 		movq	%rax, -48(%rbp)
 804:/home/xingli/share/1205tiny/oc/oc_mqtt/oc_mqtt_tiny_v5/oc_mqtt_tiny.c ****             subpara.qos = en_mqtt_al_qos_1;
 2627              		.loc 1 804 25
 2628 0346 C745C001 		movl	$1, -64(%rbp)
 2628      000000
 805:/home/xingli/share/1205tiny/oc/oc_mqtt/oc_mqtt_tiny_v5/oc_mqtt_tiny.c ****             subpara.topic.data = topic_sub->topic ;
 2629              		.loc 1 805 43
 2630 034d 488B45A8 		movq	-88(%rbp), %rax
 2631 0351 488B4008 		movq	8(%rax), %rax
 2632              		.loc 1 805 32
 2633 0355 488945B0 		movq	%rax, -80(%rbp)
 806:/home/xingli/share/1205tiny/oc/oc_mqtt/oc_mqtt_tiny_v5/oc_mqtt_tiny.c ****             subpara.topic.len = strlen(subpara.topic.data );
 2634              		.loc 1 806 53
 2635 0359 488B45B0 		movq	-80(%rbp), %rax
 2636              		.loc 1 806 33
 2637 035d 4889C7   		movq	%rax, %rdi
 2638 0360 E8000000 		call	strlen@PLT
 2638      00
 2639              		.loc 1 806 31
 2640 0365 8945B8   		movl	%eax, -72(%rbp)
 807:/home/xingli/share/1205tiny/oc/oc_mqtt/oc_mqtt_tiny_v5/oc_mqtt_tiny.c ****             subpara.timeout = CN_OC_MQTT_TIMEOUT;
 2641              		.loc 1 807 29
 2642 0368 C745DC10 		movl	$10000, -36(%rbp)
 2642      270000
 808:/home/xingli/share/1205tiny/oc/oc_mqtt/oc_mqtt_tiny_v5/oc_mqtt_tiny.c **** 
 809:/home/xingli/share/1205tiny/oc/oc_mqtt/oc_mqtt_tiny_v5/oc_mqtt_tiny.c ****             LINK_LOG_DEBUG("oc_mqtt_subscribe:topic:%s",subpara.topic.data);
 2643              		.loc 1 809 13
 2644 036f E8000000 		call	link_log_level_get@PLT
 2644      00
 2645 0374 83F801   		cmpl	$1, %eax
 2646 0377 7746     		ja	.L132
 2647              		.loc 1 809 13 is_stmt 0 discriminator 1
 2648 0379 488B5DB0 		movq	-80(%rbp), %rbx
 2649 037d E8000000 		call	osal_sys_time@PLT
 2649      00
 2650 0382 4189C4   		movl	%eax, %r12d
 2651 0385 BF010000 		movl	$1, %edi
 2651      00
GAS LISTING /tmp/cc7S055g.s 			page 75


 2652 038a E8000000 		call	link_log_level_name@PLT
 2652      00
 2653 038f 4989D8   		movq	%rbx, %r8
 2654 0392 488D0D00 		leaq	__FUNCTION__.4028(%rip), %rcx
 2654      000000
 2655 0399 4489E2   		movl	%r12d, %edx
 2656 039c 4889C6   		movq	%rax, %rsi
 2657 039f 488D3D00 		leaq	.LC26(%rip), %rdi
 2657      000000
 2658 03a6 B8000000 		movl	$0, %eax
 2658      00
 2659 03ab E8000000 		call	printf@PLT
 2659      00
 2660 03b0 488B0500 		movq	stdout(%rip), %rax
 2660      000000
 2661 03b7 4889C7   		movq	%rax, %rdi
 2662 03ba E8000000 		call	fflush@PLT
 2662      00
 2663              	.L132:
 810:/home/xingli/share/1205tiny/oc/oc_mqtt/oc_mqtt_tiny_v5/oc_mqtt_tiny.c **** 
 811:/home/xingli/share/1205tiny/oc/oc_mqtt/oc_mqtt_tiny_v5/oc_mqtt_tiny.c ****             ret = mqtt_al_subscribe(cb->mqtt_para.mqtt_handle,&subpara);
 2664              		.loc 1 811 19 is_stmt 1
 2665 03bf 488B4598 		movq	-104(%rbp), %rax
 2666 03c3 488B80D8 		movq	216(%rax), %rax
 2666      000000
 2667 03ca 488D55B0 		leaq	-80(%rbp), %rdx
 2668 03ce 4889D6   		movq	%rdx, %rsi
 2669 03d1 4889C7   		movq	%rax, %rdi
 2670 03d4 E8000000 		call	mqtt_al_subscribe@PLT
 2670      00
 2671 03d9 8945A0   		movl	%eax, -96(%rbp)
 812:/home/xingli/share/1205tiny/oc/oc_mqtt/oc_mqtt_tiny_v5/oc_mqtt_tiny.c **** 
 813:/home/xingli/share/1205tiny/oc/oc_mqtt/oc_mqtt_tiny_v5/oc_mqtt_tiny.c ****             LINK_LOG_DEBUG("oc_mqtt_subscribe:retcode:%d:%s\n\r",ret,oc_mqtt_err(ret));
 2672              		.loc 1 813 13
 2673 03dc E8000000 		call	link_log_level_get@PLT
 2673      00
 2674 03e1 83F801   		cmpl	$1, %eax
 2675 03e4 7755     		ja	.L133
 2676              		.loc 1 813 13 is_stmt 0 discriminator 1
 2677 03e6 8B45A0   		movl	-96(%rbp), %eax
 2678 03e9 89C7     		movl	%eax, %edi
 2679 03eb E8000000 		call	oc_mqtt_err@PLT
 2679      00
 2680 03f0 4889C3   		movq	%rax, %rbx
 2681 03f3 E8000000 		call	osal_sys_time@PLT
 2681      00
 2682 03f8 4189C4   		movl	%eax, %r12d
 2683 03fb BF010000 		movl	$1, %edi
 2683      00
 2684 0400 E8000000 		call	link_log_level_name@PLT
 2684      00
 2685 0405 8B55A0   		movl	-96(%rbp), %edx
 2686 0408 4989D9   		movq	%rbx, %r9
 2687 040b 4189D0   		movl	%edx, %r8d
 2688 040e 488D0D00 		leaq	__FUNCTION__.4028(%rip), %rcx
 2688      000000
 2689 0415 4489E2   		movl	%r12d, %edx
GAS LISTING /tmp/cc7S055g.s 			page 76


 2690 0418 4889C6   		movq	%rax, %rsi
 2691 041b 488D3D00 		leaq	.LC28(%rip), %rdi
 2691      000000
 2692 0422 B8000000 		movl	$0, %eax
 2692      00
 2693 0427 E8000000 		call	printf@PLT
 2693      00
 2694 042c 488B0500 		movq	stdout(%rip), %rax
 2694      000000
 2695 0433 4889C7   		movq	%rax, %rdi
 2696 0436 E8000000 		call	fflush@PLT
 2696      00
 2697              	.L133:
 814:/home/xingli/share/1205tiny/oc/oc_mqtt/oc_mqtt_tiny_v5/oc_mqtt_tiny.c ****             if(0 != ret)
 2698              		.loc 1 814 15 is_stmt 1
 2699 043b 837DA000 		cmpl	$0, -96(%rbp)
 2700 043f 7409     		je	.L134
 815:/home/xingli/share/1205tiny/oc/oc_mqtt/oc_mqtt_tiny_v5/oc_mqtt_tiny.c ****             {
 816:/home/xingli/share/1205tiny/oc/oc_mqtt/oc_mqtt_tiny_v5/oc_mqtt_tiny.c ****                  ret = (int)en_oc_mqtt_err_subscribe;
 2701              		.loc 1 816 22
 2702 0441 C745A008 		movl	$8, -96(%rbp)
 2702      000000
 817:/home/xingli/share/1205tiny/oc/oc_mqtt/oc_mqtt_tiny_v5/oc_mqtt_tiny.c ****                  break;
 2703              		.loc 1 817 18
 2704 0448 EB16     		jmp	.L124
 2705              	.L134:
 818:/home/xingli/share/1205tiny/oc/oc_mqtt/oc_mqtt_tiny_v5/oc_mqtt_tiny.c ****             }
 819:/home/xingli/share/1205tiny/oc/oc_mqtt/oc_mqtt_tiny_v5/oc_mqtt_tiny.c ****             topic_sub = topic_sub->nxt;
 2706              		.loc 1 819 23
 2707 044a 488B45A8 		movq	-88(%rbp), %rax
 2708 044e 488B00   		movq	(%rax), %rax
 2709 0451 488945A8 		movq	%rax, -88(%rbp)
 2710              	.L131:
 801:/home/xingli/share/1205tiny/oc/oc_mqtt/oc_mqtt_tiny_v5/oc_mqtt_tiny.c ****         {
 2711              		.loc 1 801 14
 2712 0455 48837DA8 		cmpq	$0, -88(%rbp)
 2712      00
 2713 045a 0F85DEFE 		jne	.L135
 2713      FFFF
 2714              	.L124:
 2715              	.LBE2:
 820:/home/xingli/share/1205tiny/oc/oc_mqtt/oc_mqtt_tiny_v5/oc_mqtt_tiny.c ****         }
 821:/home/xingli/share/1205tiny/oc/oc_mqtt/oc_mqtt_tiny_v5/oc_mqtt_tiny.c ****     }
 822:/home/xingli/share/1205tiny/oc/oc_mqtt/oc_mqtt_tiny_v5/oc_mqtt_tiny.c **** 
 823:/home/xingli/share/1205tiny/oc/oc_mqtt/oc_mqtt_tiny_v5/oc_mqtt_tiny.c ****     return ret;
 2716              		.loc 1 823 12
 2717 0460 8B45A0   		movl	-96(%rbp), %eax
 2718              	.L136:
 824:/home/xingli/share/1205tiny/oc/oc_mqtt/oc_mqtt_tiny_v5/oc_mqtt_tiny.c **** }
 2719              		.loc 1 824 1 discriminator 1
 2720 0463 488B4DE8 		movq	-24(%rbp), %rcx
 2721 0467 6448330C 		xorq	%fs:40, %rcx
 2721      25280000 
 2721      00
 2722 0470 7405     		je	.L137
 2723              		.loc 1 824 1 is_stmt 0
 2724 0472 E8000000 		call	__stack_chk_fail@PLT
GAS LISTING /tmp/cc7S055g.s 			page 77


 2724      00
 2725              	.L137:
 2726 0477 4883C460 		addq	$96, %rsp
 2727 047b 5B       		popq	%rbx
 2728 047c 415C     		popq	%r12
 2729 047e 5D       		popq	%rbp
 2730              	.LCFI32:
 2731              		.cfi_def_cfa 7, 8
 2732 047f C3       		ret
 2733              		.cfi_endproc
 2734              	.LFE16:
 2736              		.section	.text.dmp_publish,"ax",@progbits
 2738              	dmp_publish:
 2739              	.LFB17:
 825:/home/xingli/share/1205tiny/oc/oc_mqtt/oc_mqtt_tiny_v5/oc_mqtt_tiny.c **** 
 826:/home/xingli/share/1205tiny/oc/oc_mqtt/oc_mqtt_tiny_v5/oc_mqtt_tiny.c **** static int dmp_publish(oc_mqtt_tiny_cb_t *cb,char *topic, uint8_t *msg, int len, int qos)
 827:/home/xingli/share/1205tiny/oc/oc_mqtt/oc_mqtt_tiny_v5/oc_mqtt_tiny.c **** {
 2740              		.loc 1 827 1 is_stmt 1
 2741              		.cfi_startproc
 2742 0000 F30F1EFA 		endbr64
 2743 0004 55       		pushq	%rbp
 2744              	.LCFI33:
 2745              		.cfi_def_cfa_offset 16
 2746              		.cfi_offset 6, -16
 2747 0005 4889E5   		movq	%rsp, %rbp
 2748              	.LCFI34:
 2749              		.cfi_def_cfa_register 6
 2750 0008 4883EC70 		subq	$112, %rsp
 2751 000c 48897DA8 		movq	%rdi, -88(%rbp)
 2752 0010 488975A0 		movq	%rsi, -96(%rbp)
 2753 0014 48895598 		movq	%rdx, -104(%rbp)
 2754 0018 894D94   		movl	%ecx, -108(%rbp)
 2755 001b 44894590 		movl	%r8d, -112(%rbp)
 2756              		.loc 1 827 1
 2757 001f 64488B04 		movq	%fs:40, %rax
 2757      25280000 
 2757      00
 2758 0028 488945F8 		movq	%rax, -8(%rbp)
 2759 002c 31C0     		xorl	%eax, %eax
 828:/home/xingli/share/1205tiny/oc/oc_mqtt/oc_mqtt_tiny_v5/oc_mqtt_tiny.c ****     int  ret = (int)en_oc_mqtt_err_system;
 2760              		.loc 1 828 10
 2761 002e C745BC10 		movl	$16, -68(%rbp)
 2761      000000
 829:/home/xingli/share/1205tiny/oc/oc_mqtt/oc_mqtt_tiny_v5/oc_mqtt_tiny.c ****     mqtt_al_pubpara_t pubpara;
 830:/home/xingli/share/1205tiny/oc/oc_mqtt/oc_mqtt_tiny_v5/oc_mqtt_tiny.c **** 
 831:/home/xingli/share/1205tiny/oc/oc_mqtt/oc_mqtt_tiny_v5/oc_mqtt_tiny.c **** 
 832:/home/xingli/share/1205tiny/oc/oc_mqtt/oc_mqtt_tiny_v5/oc_mqtt_tiny.c ****     ///< pub the mqtt request
 833:/home/xingli/share/1205tiny/oc/oc_mqtt/oc_mqtt_tiny_v5/oc_mqtt_tiny.c ****     (void) memset(&pubpara, 0, sizeof(pubpara));
 2762              		.loc 1 833 12
 2763 0035 488D45C0 		leaq	-64(%rbp), %rax
 2764 0039 BA300000 		movl	$48, %edx
 2764      00
 2765 003e BE000000 		movl	$0, %esi
 2765      00
 2766 0043 4889C7   		movq	%rax, %rdi
 2767 0046 E8000000 		call	memset@PLT
 2767      00
GAS LISTING /tmp/cc7S055g.s 			page 78


 834:/home/xingli/share/1205tiny/oc/oc_mqtt/oc_mqtt_tiny_v5/oc_mqtt_tiny.c ****     pubpara.qos = (en_mqtt_al_qos_t)qos;
 2768              		.loc 1 834 19
 2769 004b 8B4590   		movl	-112(%rbp), %eax
 2770              		.loc 1 834 17
 2771 004e 8945E0   		movl	%eax, -32(%rbp)
 835:/home/xingli/share/1205tiny/oc/oc_mqtt/oc_mqtt_tiny_v5/oc_mqtt_tiny.c ****     pubpara.retain = 0;
 2772              		.loc 1 835 20
 2773 0051 C745E400 		movl	$0, -28(%rbp)
 2773      000000
 836:/home/xingli/share/1205tiny/oc/oc_mqtt/oc_mqtt_tiny_v5/oc_mqtt_tiny.c ****     pubpara.timeout = 1000;
 2774              		.loc 1 836 21
 2775 0058 C745E8E8 		movl	$1000, -24(%rbp)
 2775      030000
 837:/home/xingli/share/1205tiny/oc/oc_mqtt/oc_mqtt_tiny_v5/oc_mqtt_tiny.c **** 
 838:/home/xingli/share/1205tiny/oc/oc_mqtt/oc_mqtt_tiny_v5/oc_mqtt_tiny.c ****     if(NULL == topic)
 2776              		.loc 1 838 7
 2777 005f 48837DA0 		cmpq	$0, -96(%rbp)
 2777      00
 2778 0064 750F     		jne	.L139
 839:/home/xingli/share/1205tiny/oc/oc_mqtt/oc_mqtt_tiny_v5/oc_mqtt_tiny.c ****     {
 840:/home/xingli/share/1205tiny/oc/oc_mqtt/oc_mqtt_tiny_v5/oc_mqtt_tiny.c ****         topic = cb->mqtt_para.default_pub_topic;
 2779              		.loc 1 840 15
 2780 0066 488B45A8 		movq	-88(%rbp), %rax
 2781 006a 488B80C0 		movq	192(%rax), %rax
 2781      000000
 2782 0071 488945A0 		movq	%rax, -96(%rbp)
 2783              	.L139:
 841:/home/xingli/share/1205tiny/oc/oc_mqtt/oc_mqtt_tiny_v5/oc_mqtt_tiny.c ****     }
 842:/home/xingli/share/1205tiny/oc/oc_mqtt/oc_mqtt_tiny_v5/oc_mqtt_tiny.c **** 
 843:/home/xingli/share/1205tiny/oc/oc_mqtt/oc_mqtt_tiny_v5/oc_mqtt_tiny.c ****     pubpara.topic.data = topic;
 2784              		.loc 1 843 24
 2785 0075 488B45A0 		movq	-96(%rbp), %rax
 2786 0079 488945C0 		movq	%rax, -64(%rbp)
 844:/home/xingli/share/1205tiny/oc/oc_mqtt/oc_mqtt_tiny_v5/oc_mqtt_tiny.c ****     pubpara.topic.len =strlen(pubpara.topic.data );
 2787              		.loc 1 844 44
 2788 007d 488B45C0 		movq	-64(%rbp), %rax
 2789              		.loc 1 844 24
 2790 0081 4889C7   		movq	%rax, %rdi
 2791 0084 E8000000 		call	strlen@PLT
 2791      00
 2792              		.loc 1 844 23
 2793 0089 8945C8   		movl	%eax, -56(%rbp)
 845:/home/xingli/share/1205tiny/oc/oc_mqtt/oc_mqtt_tiny_v5/oc_mqtt_tiny.c ****     pubpara.msg.data = (char *)msg;
 2794              		.loc 1 845 22
 2795 008c 488B4598 		movq	-104(%rbp), %rax
 2796 0090 488945D0 		movq	%rax, -48(%rbp)
 846:/home/xingli/share/1205tiny/oc/oc_mqtt/oc_mqtt_tiny_v5/oc_mqtt_tiny.c ****     pubpara.msg.len = len;
 2797              		.loc 1 846 21
 2798 0094 8B4594   		movl	-108(%rbp), %eax
 2799 0097 8945D8   		movl	%eax, -40(%rbp)
 847:/home/xingli/share/1205tiny/oc/oc_mqtt/oc_mqtt_tiny_v5/oc_mqtt_tiny.c ****     ret = mqtt_al_publish(cb->mqtt_para.mqtt_handle, &pubpara);
 2800              		.loc 1 847 11
 2801 009a 488B45A8 		movq	-88(%rbp), %rax
 2802 009e 488B80D8 		movq	216(%rax), %rax
 2802      000000
 2803 00a5 488D55C0 		leaq	-64(%rbp), %rdx
 2804 00a9 4889D6   		movq	%rdx, %rsi
GAS LISTING /tmp/cc7S055g.s 			page 79


 2805 00ac 4889C7   		movq	%rax, %rdi
 2806 00af E8000000 		call	mqtt_al_publish@PLT
 2806      00
 2807 00b4 8945BC   		movl	%eax, -68(%rbp)
 848:/home/xingli/share/1205tiny/oc/oc_mqtt/oc_mqtt_tiny_v5/oc_mqtt_tiny.c ****     if(ret != 0)
 2808              		.loc 1 848 7
 2809 00b7 837DBC00 		cmpl	$0, -68(%rbp)
 2810 00bb 7407     		je	.L140
 849:/home/xingli/share/1205tiny/oc/oc_mqtt/oc_mqtt_tiny_v5/oc_mqtt_tiny.c ****     {
 850:/home/xingli/share/1205tiny/oc/oc_mqtt/oc_mqtt_tiny_v5/oc_mqtt_tiny.c ****         ret = (int)en_oc_mqtt_err_publish;
 2811              		.loc 1 850 13
 2812 00bd C745BC0A 		movl	$10, -68(%rbp)
 2812      000000
 2813              	.L140:
 851:/home/xingli/share/1205tiny/oc/oc_mqtt/oc_mqtt_tiny_v5/oc_mqtt_tiny.c ****     }
 852:/home/xingli/share/1205tiny/oc/oc_mqtt/oc_mqtt_tiny_v5/oc_mqtt_tiny.c ****     return ret;
 2814              		.loc 1 852 12
 2815 00c4 8B45BC   		movl	-68(%rbp), %eax
 853:/home/xingli/share/1205tiny/oc/oc_mqtt/oc_mqtt_tiny_v5/oc_mqtt_tiny.c **** }
 2816              		.loc 1 853 1
 2817 00c7 488B4DF8 		movq	-8(%rbp), %rcx
 2818 00cb 6448330C 		xorq	%fs:40, %rcx
 2818      25280000 
 2818      00
 2819 00d4 7405     		je	.L142
 2820 00d6 E8000000 		call	__stack_chk_fail@PLT
 2820      00
 2821              	.L142:
 2822 00db C9       		leave
 2823              	.LCFI35:
 2824              		.cfi_def_cfa 7, 8
 2825 00dc C3       		ret
 2826              		.cfi_endproc
 2827              	.LFE17:
 2829              		.section	.rodata
 2830              	.LC29:
 2831 03e1 5B25735D 		.string	"[%s][%u][%s] %s:enter\r\n"
 2831      5B25755D 
 2831      5B25735D 
 2831      2025733A 
 2831      656E7465 
 2832              	.LC30:
 2833 03f9 5B25735D 		.string	"[%s][%u][%s] %s:ok exit\r\n"
 2833      5B25755D 
 2833      5B25735D 
 2833      2025733A 
 2833      6F6B2065 
 2834              	.LC31:
 2835 0413 5B25735D 		.string	"[%s][%u][%s] %s:err:%d\r\n"
 2835      5B25755D 
 2835      5B25735D 
 2835      2025733A 
 2835      6572723A 
 2836              		.section	.text.hub_step,"ax",@progbits
 2838              	hub_step:
 2839              	.LFB18:
 854:/home/xingli/share/1205tiny/oc/oc_mqtt/oc_mqtt_tiny_v5/oc_mqtt_tiny.c **** static int hub_step(oc_mqtt_tiny_cb_t  *cb)
GAS LISTING /tmp/cc7S055g.s 			page 80


 855:/home/xingli/share/1205tiny/oc/oc_mqtt/oc_mqtt_tiny_v5/oc_mqtt_tiny.c **** {
 2840              		.loc 1 855 1
 2841              		.cfi_startproc
 2842 0000 F30F1EFA 		endbr64
 2843 0004 55       		pushq	%rbp
 2844              	.LCFI36:
 2845              		.cfi_def_cfa_offset 16
 2846              		.cfi_offset 6, -16
 2847 0005 4889E5   		movq	%rsp, %rbp
 2848              	.LCFI37:
 2849              		.cfi_def_cfa_register 6
 2850 0008 53       		pushq	%rbx
 2851 0009 4883EC28 		subq	$40, %rsp
 2852              		.cfi_offset 3, -24
 2853 000d 48897DD8 		movq	%rdi, -40(%rbp)
 2854              		.loc 1 855 1
 2855 0011 64488B04 		movq	%fs:40, %rax
 2855      25280000 
 2855      00
 2856 001a 488945E8 		movq	%rax, -24(%rbp)
 2857 001e 31C0     		xorl	%eax, %eax
 856:/home/xingli/share/1205tiny/oc/oc_mqtt/oc_mqtt_tiny_v5/oc_mqtt_tiny.c ****     int ret = (int)en_oc_mqtt_err_system;
 2858              		.loc 1 856 9
 2859 0020 C745E410 		movl	$16, -28(%rbp)
 2859      000000
 857:/home/xingli/share/1205tiny/oc/oc_mqtt/oc_mqtt_tiny_v5/oc_mqtt_tiny.c **** 
 858:/home/xingli/share/1205tiny/oc/oc_mqtt/oc_mqtt_tiny_v5/oc_mqtt_tiny.c ****     LINK_LOG_DEBUG("%s:enter",__FUNCTION__);
 2860              		.loc 1 858 5
 2861 0027 E8000000 		call	link_log_level_get@PLT
 2861      00
 2862 002c 83F801   		cmpl	$1, %eax
 2863 002f 7744     		ja	.L144
 2864              		.loc 1 858 5 is_stmt 0 discriminator 1
 2865 0031 E8000000 		call	osal_sys_time@PLT
 2865      00
 2866 0036 89C3     		movl	%eax, %ebx
 2867 0038 BF010000 		movl	$1, %edi
 2867      00
 2868 003d E8000000 		call	link_log_level_name@PLT
 2868      00
 2869 0042 4C8D0500 		leaq	__FUNCTION__.4050(%rip), %r8
 2869      000000
 2870 0049 488D0D00 		leaq	__FUNCTION__.4050(%rip), %rcx
 2870      000000
 2871 0050 89DA     		movl	%ebx, %edx
 2872 0052 4889C6   		movq	%rax, %rsi
 2873 0055 488D3D00 		leaq	.LC29(%rip), %rdi
 2873      000000
 2874 005c B8000000 		movl	$0, %eax
 2874      00
 2875 0061 E8000000 		call	printf@PLT
 2875      00
 2876 0066 488B0500 		movq	stdout(%rip), %rax
 2876      000000
 2877 006d 4889C7   		movq	%rax, %rdi
 2878 0070 E8000000 		call	fflush@PLT
 2878      00
GAS LISTING /tmp/cc7S055g.s 			page 81


 2879              	.L144:
 859:/home/xingli/share/1205tiny/oc/oc_mqtt/oc_mqtt_tiny_v5/oc_mqtt_tiny.c ****     if((int)en_oc_mqtt_err_ok != oc_mqtt_para_gernerate(cb))
 2880              		.loc 1 859 34 is_stmt 1
 2881 0075 488B45D8 		movq	-40(%rbp), %rax
 2882 0079 4889C7   		movq	%rax, %rdi
 2883 007c E8000000 		call	oc_mqtt_para_gernerate
 2883      00
 2884              		.loc 1 859 7
 2885 0081 85C0     		testl	%eax, %eax
 2886 0083 0F85BB00 		jne	.L154
 2886      0000
 860:/home/xingli/share/1205tiny/oc/oc_mqtt/oc_mqtt_tiny_v5/oc_mqtt_tiny.c ****     {
 861:/home/xingli/share/1205tiny/oc/oc_mqtt/oc_mqtt_tiny_v5/oc_mqtt_tiny.c ****         goto EXIT_ERR;
 862:/home/xingli/share/1205tiny/oc/oc_mqtt/oc_mqtt_tiny_v5/oc_mqtt_tiny.c ****     }
 863:/home/xingli/share/1205tiny/oc/oc_mqtt/oc_mqtt_tiny_v5/oc_mqtt_tiny.c **** 
 864:/home/xingli/share/1205tiny/oc/oc_mqtt/oc_mqtt_tiny_v5/oc_mqtt_tiny.c ****     ret = dmp_connect(cb);
 2887              		.loc 1 864 11
 2888 0089 488B45D8 		movq	-40(%rbp), %rax
 2889 008d 4889C7   		movq	%rax, %rdi
 2890 0090 E8000000 		call	dmp_connect
 2890      00
 2891 0095 8945E4   		movl	%eax, -28(%rbp)
 865:/home/xingli/share/1205tiny/oc/oc_mqtt/oc_mqtt_tiny_v5/oc_mqtt_tiny.c ****     if((int)en_oc_mqtt_err_ok != ret)
 2892              		.loc 1 865 7
 2893 0098 837DE400 		cmpl	$0, -28(%rbp)
 2894 009c 0F85A500 		jne	.L155
 2894      0000
 866:/home/xingli/share/1205tiny/oc/oc_mqtt/oc_mqtt_tiny_v5/oc_mqtt_tiny.c ****     {
 867:/home/xingli/share/1205tiny/oc/oc_mqtt/oc_mqtt_tiny_v5/oc_mqtt_tiny.c ****        goto EXIT_ERR;
 868:/home/xingli/share/1205tiny/oc/oc_mqtt/oc_mqtt_tiny_v5/oc_mqtt_tiny.c ****     }
 869:/home/xingli/share/1205tiny/oc/oc_mqtt/oc_mqtt_tiny_v5/oc_mqtt_tiny.c ****     ///< subscribe the topic here
 870:/home/xingli/share/1205tiny/oc/oc_mqtt/oc_mqtt_tiny_v5/oc_mqtt_tiny.c ****     ret = dmp_subscribe(cb);
 2895              		.loc 1 870 11
 2896 00a2 488B45D8 		movq	-40(%rbp), %rax
 2897 00a6 4889C7   		movq	%rax, %rdi
 2898 00a9 E8000000 		call	dmp_subscribe
 2898      00
 2899 00ae 8945E4   		movl	%eax, -28(%rbp)
 871:/home/xingli/share/1205tiny/oc/oc_mqtt/oc_mqtt_tiny_v5/oc_mqtt_tiny.c ****     if(ret  != (int)en_oc_mqtt_err_ok)
 2900              		.loc 1 871 7
 2901 00b1 837DE400 		cmpl	$0, -28(%rbp)
 2902 00b5 0F858F00 		jne	.L156
 2902      0000
 872:/home/xingli/share/1205tiny/oc/oc_mqtt/oc_mqtt_tiny_v5/oc_mqtt_tiny.c ****     {
 873:/home/xingli/share/1205tiny/oc/oc_mqtt/oc_mqtt_tiny_v5/oc_mqtt_tiny.c ****         goto EXIT_ERR;
 874:/home/xingli/share/1205tiny/oc/oc_mqtt/oc_mqtt_tiny_v5/oc_mqtt_tiny.c ****     }
 875:/home/xingli/share/1205tiny/oc/oc_mqtt/oc_mqtt_tiny_v5/oc_mqtt_tiny.c ****     else
 876:/home/xingli/share/1205tiny/oc/oc_mqtt/oc_mqtt_tiny_v5/oc_mqtt_tiny.c ****     {
 877:/home/xingli/share/1205tiny/oc/oc_mqtt/oc_mqtt_tiny_v5/oc_mqtt_tiny.c ****         if(NULL != cb->config.log_dealer)
 2903              		.loc 1 877 30
 2904 00bb 488B45D8 		movq	-40(%rbp), %rax
 2905 00bf 488B8090 		movq	144(%rax), %rax
 2905      000000
 2906              		.loc 1 877 11
 2907 00c6 4885C0   		testq	%rax, %rax
 2908 00c9 7426     		je	.L149
 878:/home/xingli/share/1205tiny/oc/oc_mqtt/oc_mqtt_tiny_v5/oc_mqtt_tiny.c ****         {
GAS LISTING /tmp/cc7S055g.s 			page 82


 879:/home/xingli/share/1205tiny/oc/oc_mqtt/oc_mqtt_tiny_v5/oc_mqtt_tiny.c ****             cb->flag.bits.bit_do_reportdisconnect = 0;
 2909              		.loc 1 879 51
 2910 00cb 488B45D8 		movq	-40(%rbp), %rax
 2911 00cf 0FB690E0 		movzbl	224(%rax), %edx
 2911      000000
 2912 00d6 83E2BF   		andl	$-65, %edx
 2913 00d9 8890E000 		movb	%dl, 224(%rax)
 2913      0000
 880:/home/xingli/share/1205tiny/oc/oc_mqtt/oc_mqtt_tiny_v5/oc_mqtt_tiny.c ****             cb->config.log_dealer(en_oc_mqtt_log_connected);
 2914              		.loc 1 880 23
 2915 00df 488B45D8 		movq	-40(%rbp), %rax
 2916 00e3 488B8090 		movq	144(%rax), %rax
 2916      000000
 2917              		.loc 1 880 13
 2918 00ea BF000000 		movl	$0, %edi
 2918      00
 2919 00ef FFD0     		call	*%rax
 2920              	.LVL2:
 2921              	.L149:
 881:/home/xingli/share/1205tiny/oc/oc_mqtt/oc_mqtt_tiny_v5/oc_mqtt_tiny.c ****         }
 882:/home/xingli/share/1205tiny/oc/oc_mqtt/oc_mqtt_tiny_v5/oc_mqtt_tiny.c ****     }
 883:/home/xingli/share/1205tiny/oc/oc_mqtt/oc_mqtt_tiny_v5/oc_mqtt_tiny.c **** 
 884:/home/xingli/share/1205tiny/oc/oc_mqtt/oc_mqtt_tiny_v5/oc_mqtt_tiny.c ****     LINK_LOG_DEBUG("%s:ok exit",__FUNCTION__);
 2922              		.loc 1 884 5
 2923 00f1 E8000000 		call	link_log_level_get@PLT
 2923      00
 2924 00f6 83F801   		cmpl	$1, %eax
 2925 00f9 7744     		ja	.L150
 2926              		.loc 1 884 5 is_stmt 0 discriminator 1
 2927 00fb E8000000 		call	osal_sys_time@PLT
 2927      00
 2928 0100 89C3     		movl	%eax, %ebx
 2929 0102 BF010000 		movl	$1, %edi
 2929      00
 2930 0107 E8000000 		call	link_log_level_name@PLT
 2930      00
 2931 010c 4C8D0500 		leaq	__FUNCTION__.4050(%rip), %r8
 2931      000000
 2932 0113 488D0D00 		leaq	__FUNCTION__.4050(%rip), %rcx
 2932      000000
 2933 011a 89DA     		movl	%ebx, %edx
 2934 011c 4889C6   		movq	%rax, %rsi
 2935 011f 488D3D00 		leaq	.LC30(%rip), %rdi
 2935      000000
 2936 0126 B8000000 		movl	$0, %eax
 2936      00
 2937 012b E8000000 		call	printf@PLT
 2937      00
 2938 0130 488B0500 		movq	stdout(%rip), %rax
 2938      000000
 2939 0137 4889C7   		movq	%rax, %rdi
 2940 013a E8000000 		call	fflush@PLT
 2940      00
 2941              	.L150:
 885:/home/xingli/share/1205tiny/oc/oc_mqtt/oc_mqtt_tiny_v5/oc_mqtt_tiny.c ****     return ret;
 2942              		.loc 1 885 12 is_stmt 1
 2943 013f 8B45E4   		movl	-28(%rbp), %eax
GAS LISTING /tmp/cc7S055g.s 			page 83


 2944 0142 EB6A     		jmp	.L151
 2945              	.L154:
 861:/home/xingli/share/1205tiny/oc/oc_mqtt/oc_mqtt_tiny_v5/oc_mqtt_tiny.c ****     }
 2946              		.loc 1 861 9
 2947 0144 90       		nop
 2948 0145 EB04     		jmp	.L146
 2949              	.L155:
 867:/home/xingli/share/1205tiny/oc/oc_mqtt/oc_mqtt_tiny_v5/oc_mqtt_tiny.c ****     }
 2950              		.loc 1 867 8
 2951 0147 90       		nop
 2952 0148 EB01     		jmp	.L146
 2953              	.L156:
 873:/home/xingli/share/1205tiny/oc/oc_mqtt/oc_mqtt_tiny_v5/oc_mqtt_tiny.c ****     }
 2954              		.loc 1 873 9
 2955 014a 90       		nop
 2956              	.L146:
 886:/home/xingli/share/1205tiny/oc/oc_mqtt/oc_mqtt_tiny_v5/oc_mqtt_tiny.c **** 
 887:/home/xingli/share/1205tiny/oc/oc_mqtt/oc_mqtt_tiny_v5/oc_mqtt_tiny.c **** EXIT_ERR:
 888:/home/xingli/share/1205tiny/oc/oc_mqtt/oc_mqtt_tiny_v5/oc_mqtt_tiny.c ****     (void) oc_mqtt_para_release(cb);
 2957              		.loc 1 888 12
 2958 014b 488B45D8 		movq	-40(%rbp), %rax
 2959 014f 4889C7   		movq	%rax, %rdi
 2960 0152 E8000000 		call	oc_mqtt_para_release
 2960      00
 889:/home/xingli/share/1205tiny/oc/oc_mqtt/oc_mqtt_tiny_v5/oc_mqtt_tiny.c ****     LINK_LOG_DEBUG("%s:err:%d",__FUNCTION__,ret);
 2961              		.loc 1 889 5
 2962 0157 E8000000 		call	link_log_level_get@PLT
 2962      00
 2963 015c 83F801   		cmpl	$1, %eax
 2964 015f 774A     		ja	.L152
 2965              		.loc 1 889 5 is_stmt 0 discriminator 1
 2966 0161 E8000000 		call	osal_sys_time@PLT
 2966      00
 2967 0166 89C3     		movl	%eax, %ebx
 2968 0168 BF010000 		movl	$1, %edi
 2968      00
 2969 016d E8000000 		call	link_log_level_name@PLT
 2969      00
 2970 0172 8B55E4   		movl	-28(%rbp), %edx
 2971 0175 4189D1   		movl	%edx, %r9d
 2972 0178 4C8D0500 		leaq	__FUNCTION__.4050(%rip), %r8
 2972      000000
 2973 017f 488D0D00 		leaq	__FUNCTION__.4050(%rip), %rcx
 2973      000000
 2974 0186 89DA     		movl	%ebx, %edx
 2975 0188 4889C6   		movq	%rax, %rsi
 2976 018b 488D3D00 		leaq	.LC31(%rip), %rdi
 2976      000000
 2977 0192 B8000000 		movl	$0, %eax
 2977      00
 2978 0197 E8000000 		call	printf@PLT
 2978      00
 2979 019c 488B0500 		movq	stdout(%rip), %rax
 2979      000000
 2980 01a3 4889C7   		movq	%rax, %rdi
 2981 01a6 E8000000 		call	fflush@PLT
 2981      00
GAS LISTING /tmp/cc7S055g.s 			page 84


 2982              	.L152:
 890:/home/xingli/share/1205tiny/oc/oc_mqtt/oc_mqtt_tiny_v5/oc_mqtt_tiny.c ****     return ret;
 2983              		.loc 1 890 12 is_stmt 1
 2984 01ab 8B45E4   		movl	-28(%rbp), %eax
 2985              	.L151:
 891:/home/xingli/share/1205tiny/oc/oc_mqtt/oc_mqtt_tiny_v5/oc_mqtt_tiny.c **** 
 892:/home/xingli/share/1205tiny/oc/oc_mqtt/oc_mqtt_tiny_v5/oc_mqtt_tiny.c **** }
 2986              		.loc 1 892 1
 2987 01ae 488B4DE8 		movq	-24(%rbp), %rcx
 2988 01b2 6448330C 		xorq	%fs:40, %rcx
 2988      25280000 
 2988      00
 2989 01bb 7405     		je	.L153
 2990 01bd E8000000 		call	__stack_chk_fail@PLT
 2990      00
 2991              	.L153:
 2992 01c2 4883C428 		addq	$40, %rsp
 2993 01c6 5B       		popq	%rbx
 2994 01c7 5D       		popq	%rbp
 2995              	.LCFI38:
 2996              		.cfi_def_cfa 7, 8
 2997 01c8 C3       		ret
 2998              		.cfi_endproc
 2999              	.LFE18:
 3001              		.section	.rodata
 3002              	.LC32:
 3003 042c 5B25735D 		.string	"[%s][%u][%s] %s:exit ret:%d\r\n"
 3003      5B25755D 
 3003      5B25735D 
 3003      2025733A 
 3003      65786974 
 3004              		.section	.text.bs_step,"ax",@progbits
 3006              	bs_step:
 3007              	.LFB19:
 893:/home/xingli/share/1205tiny/oc/oc_mqtt/oc_mqtt_tiny_v5/oc_mqtt_tiny.c **** 
 894:/home/xingli/share/1205tiny/oc/oc_mqtt/oc_mqtt_tiny_v5/oc_mqtt_tiny.c **** ///< this is the hub connect subscribe
 895:/home/xingli/share/1205tiny/oc/oc_mqtt/oc_mqtt_tiny_v5/oc_mqtt_tiny.c **** static int bs_step(oc_mqtt_tiny_cb_t  *cb)
 896:/home/xingli/share/1205tiny/oc/oc_mqtt/oc_mqtt_tiny_v5/oc_mqtt_tiny.c **** {
 3008              		.loc 1 896 1
 3009              		.cfi_startproc
 3010 0000 F30F1EFA 		endbr64
 3011 0004 55       		pushq	%rbp
 3012              	.LCFI39:
 3013              		.cfi_def_cfa_offset 16
 3014              		.cfi_offset 6, -16
 3015 0005 4889E5   		movq	%rsp, %rbp
 3016              	.LCFI40:
 3017              		.cfi_def_cfa_register 6
 3018 0008 53       		pushq	%rbx
 3019 0009 4883EC28 		subq	$40, %rsp
 3020              		.cfi_offset 3, -24
 3021 000d 48897DD8 		movq	%rdi, -40(%rbp)
 3022              		.loc 1 896 1
 3023 0011 64488B04 		movq	%fs:40, %rax
 3023      25280000 
 3023      00
 3024 001a 488945E8 		movq	%rax, -24(%rbp)
GAS LISTING /tmp/cc7S055g.s 			page 85


 3025 001e 31C0     		xorl	%eax, %eax
 897:/home/xingli/share/1205tiny/oc/oc_mqtt/oc_mqtt_tiny_v5/oc_mqtt_tiny.c ****     int ret = (int)en_oc_mqtt_err_system;
 3026              		.loc 1 897 9
 3027 0020 C745E010 		movl	$16, -32(%rbp)
 3027      000000
 898:/home/xingli/share/1205tiny/oc/oc_mqtt/oc_mqtt_tiny_v5/oc_mqtt_tiny.c ****     int wait_times = CN_CON_BACKOFF_MAXTIMES;
 3028              		.loc 1 898 9
 3029 0027 C745E428 		movl	$40, -28(%rbp)
 3029      000000
 899:/home/xingli/share/1205tiny/oc/oc_mqtt/oc_mqtt_tiny_v5/oc_mqtt_tiny.c **** 
 900:/home/xingli/share/1205tiny/oc/oc_mqtt/oc_mqtt_tiny_v5/oc_mqtt_tiny.c ****     LINK_LOG_DEBUG("%s:enter",__FUNCTION__);
 3030              		.loc 1 900 5
 3031 002e E8000000 		call	link_log_level_get@PLT
 3031      00
 3032 0033 83F801   		cmpl	$1, %eax
 3033 0036 7744     		ja	.L158
 3034              		.loc 1 900 5 is_stmt 0 discriminator 1
 3035 0038 E8000000 		call	osal_sys_time@PLT
 3035      00
 3036 003d 89C3     		movl	%eax, %ebx
 3037 003f BF010000 		movl	$1, %edi
 3037      00
 3038 0044 E8000000 		call	link_log_level_name@PLT
 3038      00
 3039 0049 4C8D0500 		leaq	__FUNCTION__.4057(%rip), %r8
 3039      000000
 3040 0050 488D0D00 		leaq	__FUNCTION__.4057(%rip), %rcx
 3040      000000
 3041 0057 89DA     		movl	%ebx, %edx
 3042 0059 4889C6   		movq	%rax, %rsi
 3043 005c 488D3D00 		leaq	.LC29(%rip), %rdi
 3043      000000
 3044 0063 B8000000 		movl	$0, %eax
 3044      00
 3045 0068 E8000000 		call	printf@PLT
 3045      00
 3046 006d 488B0500 		movq	stdout(%rip), %rax
 3046      000000
 3047 0074 4889C7   		movq	%rax, %rdi
 3048 0077 E8000000 		call	fflush@PLT
 3048      00
 3049              	.L158:
 901:/home/xingli/share/1205tiny/oc/oc_mqtt/oc_mqtt_tiny_v5/oc_mqtt_tiny.c ****     cb->flag.bits.bit_get_hubaddr = 0;
 3050              		.loc 1 901 35 is_stmt 1
 3051 007c 488B45D8 		movq	-40(%rbp), %rax
 3052 0080 0FB690E0 		movzbl	224(%rax), %edx
 3052      000000
 3053 0087 83E2EF   		andl	$-17, %edx
 3054 008a 8890E000 		movb	%dl, 224(%rax)
 3054      0000
 902:/home/xingli/share/1205tiny/oc/oc_mqtt/oc_mqtt_tiny_v5/oc_mqtt_tiny.c **** 
 903:/home/xingli/share/1205tiny/oc/oc_mqtt/oc_mqtt_tiny_v5/oc_mqtt_tiny.c ****     if((int)en_oc_mqtt_err_ok != oc_mqtt_para_gernerate(cb))
 3055              		.loc 1 903 34
 3056 0090 488B45D8 		movq	-40(%rbp), %rax
 3057 0094 4889C7   		movq	%rax, %rdi
 3058 0097 E8000000 		call	oc_mqtt_para_gernerate
 3058      00
GAS LISTING /tmp/cc7S055g.s 			page 86


 3059              		.loc 1 903 7
 3060 009c 85C0     		testl	%eax, %eax
 3061 009e 0F85A300 		jne	.L171
 3061      0000
 904:/home/xingli/share/1205tiny/oc/oc_mqtt/oc_mqtt_tiny_v5/oc_mqtt_tiny.c ****     {
 905:/home/xingli/share/1205tiny/oc/oc_mqtt/oc_mqtt_tiny_v5/oc_mqtt_tiny.c ****         goto EXIT_ERR;
 906:/home/xingli/share/1205tiny/oc/oc_mqtt/oc_mqtt_tiny_v5/oc_mqtt_tiny.c ****     }
 907:/home/xingli/share/1205tiny/oc/oc_mqtt/oc_mqtt_tiny_v5/oc_mqtt_tiny.c **** 
 908:/home/xingli/share/1205tiny/oc/oc_mqtt/oc_mqtt_tiny_v5/oc_mqtt_tiny.c ****     ret = dmp_connect(cb);
 3062              		.loc 1 908 11
 3063 00a4 488B45D8 		movq	-40(%rbp), %rax
 3064 00a8 4889C7   		movq	%rax, %rdi
 3065 00ab E8000000 		call	dmp_connect
 3065      00
 3066 00b0 8945E0   		movl	%eax, -32(%rbp)
 909:/home/xingli/share/1205tiny/oc/oc_mqtt/oc_mqtt_tiny_v5/oc_mqtt_tiny.c ****     if((int)en_oc_mqtt_err_ok != ret)
 3067              		.loc 1 909 7
 3068 00b3 837DE000 		cmpl	$0, -32(%rbp)
 3069 00b7 0F858D00 		jne	.L172
 3069      0000
 910:/home/xingli/share/1205tiny/oc/oc_mqtt/oc_mqtt_tiny_v5/oc_mqtt_tiny.c ****     {
 911:/home/xingli/share/1205tiny/oc/oc_mqtt/oc_mqtt_tiny_v5/oc_mqtt_tiny.c ****        goto EXIT_ERR;
 912:/home/xingli/share/1205tiny/oc/oc_mqtt/oc_mqtt_tiny_v5/oc_mqtt_tiny.c ****     }
 913:/home/xingli/share/1205tiny/oc/oc_mqtt/oc_mqtt_tiny_v5/oc_mqtt_tiny.c ****     ///< subscribe the topic here
 914:/home/xingli/share/1205tiny/oc/oc_mqtt/oc_mqtt_tiny_v5/oc_mqtt_tiny.c ****     ret = dmp_subscribe(cb);
 3070              		.loc 1 914 11
 3071 00bd 488B45D8 		movq	-40(%rbp), %rax
 3072 00c1 4889C7   		movq	%rax, %rdi
 3073 00c4 E8000000 		call	dmp_subscribe
 3073      00
 3074 00c9 8945E0   		movl	%eax, -32(%rbp)
 915:/home/xingli/share/1205tiny/oc/oc_mqtt/oc_mqtt_tiny_v5/oc_mqtt_tiny.c ****     if(ret  != (int)en_oc_mqtt_err_ok)
 3075              		.loc 1 915 7
 3076 00cc 837DE000 		cmpl	$0, -32(%rbp)
 3077 00d0 757B     		jne	.L173
 916:/home/xingli/share/1205tiny/oc/oc_mqtt/oc_mqtt_tiny_v5/oc_mqtt_tiny.c ****     {
 917:/home/xingli/share/1205tiny/oc/oc_mqtt/oc_mqtt_tiny_v5/oc_mqtt_tiny.c ****        goto EXIT_ERR;
 918:/home/xingli/share/1205tiny/oc/oc_mqtt/oc_mqtt_tiny_v5/oc_mqtt_tiny.c ****     }
 919:/home/xingli/share/1205tiny/oc/oc_mqtt/oc_mqtt_tiny_v5/oc_mqtt_tiny.c **** 
 920:/home/xingli/share/1205tiny/oc/oc_mqtt/oc_mqtt_tiny_v5/oc_mqtt_tiny.c ****     ///< pub the mqtt request
 921:/home/xingli/share/1205tiny/oc/oc_mqtt/oc_mqtt_tiny_v5/oc_mqtt_tiny.c ****     if(ret != dmp_publish(cb,NULL,NULL,0,1))
 3078              		.loc 1 921 15
 3079 00d2 488B45D8 		movq	-40(%rbp), %rax
 3080 00d6 41B80100 		movl	$1, %r8d
 3080      0000
 3081 00dc B9000000 		movl	$0, %ecx
 3081      00
 3082 00e1 BA000000 		movl	$0, %edx
 3082      00
 3083 00e6 BE000000 		movl	$0, %esi
 3083      00
 3084 00eb 4889C7   		movq	%rax, %rdi
 3085 00ee E8000000 		call	dmp_publish
 3085      00
 3086              		.loc 1 921 7
 3087 00f3 3945E0   		cmpl	%eax, -32(%rbp)
 3088 00f6 7558     		jne	.L174
GAS LISTING /tmp/cc7S055g.s 			page 87


 922:/home/xingli/share/1205tiny/oc/oc_mqtt/oc_mqtt_tiny_v5/oc_mqtt_tiny.c ****     {
 923:/home/xingli/share/1205tiny/oc/oc_mqtt/oc_mqtt_tiny_v5/oc_mqtt_tiny.c ****         goto EXIT_ERR;
 924:/home/xingli/share/1205tiny/oc/oc_mqtt/oc_mqtt_tiny_v5/oc_mqtt_tiny.c ****     }
 925:/home/xingli/share/1205tiny/oc/oc_mqtt/oc_mqtt_tiny_v5/oc_mqtt_tiny.c ****     ///< do the wait for the new address until timeout
 926:/home/xingli/share/1205tiny/oc/oc_mqtt/oc_mqtt_tiny_v5/oc_mqtt_tiny.c ****     while((0 == cb->flag.bits.bit_get_hubaddr) && (wait_times-- > 0))
 3089              		.loc 1 926 10
 3090 00f8 EB0A     		jmp	.L164
 3091              	.L166:
 927:/home/xingli/share/1205tiny/oc/oc_mqtt/oc_mqtt_tiny_v5/oc_mqtt_tiny.c ****     {
 928:/home/xingli/share/1205tiny/oc/oc_mqtt/oc_mqtt_tiny_v5/oc_mqtt_tiny.c ****         osal_task_sleep(CN_CON_BACKOFF_TIME);
 3092              		.loc 1 928 9
 3093 00fa BFE80300 		movl	$1000, %edi
 3093      00
 3094 00ff E8000000 		call	osal_task_sleep@PLT
 3094      00
 3095              	.L164:
 926:/home/xingli/share/1205tiny/oc/oc_mqtt/oc_mqtt_tiny_v5/oc_mqtt_tiny.c ****     {
 3096              		.loc 1 926 14
 3097 0104 488B45D8 		movq	-40(%rbp), %rax
 3098 0108 0FB680E0 		movzbl	224(%rax), %eax
 3098      000000
 3099 010f 83E010   		andl	$16, %eax
 926:/home/xingli/share/1205tiny/oc/oc_mqtt/oc_mqtt_tiny_v5/oc_mqtt_tiny.c ****     {
 3100              		.loc 1 926 10
 3101 0112 84C0     		testb	%al, %al
 3102 0114 750D     		jne	.L165
 926:/home/xingli/share/1205tiny/oc/oc_mqtt/oc_mqtt_tiny_v5/oc_mqtt_tiny.c ****     {
 3103              		.loc 1 926 62 discriminator 1
 3104 0116 8B45E4   		movl	-28(%rbp), %eax
 3105 0119 8D50FF   		leal	-1(%rax), %edx
 3106 011c 8955E4   		movl	%edx, -28(%rbp)
 926:/home/xingli/share/1205tiny/oc/oc_mqtt/oc_mqtt_tiny_v5/oc_mqtt_tiny.c ****     {
 3107              		.loc 1 926 48 discriminator 1
 3108 011f 85C0     		testl	%eax, %eax
 3109 0121 7FD7     		jg	.L166
 3110              	.L165:
 929:/home/xingli/share/1205tiny/oc/oc_mqtt/oc_mqtt_tiny_v5/oc_mqtt_tiny.c ****     }
 930:/home/xingli/share/1205tiny/oc/oc_mqtt/oc_mqtt_tiny_v5/oc_mqtt_tiny.c **** 
 931:/home/xingli/share/1205tiny/oc/oc_mqtt/oc_mqtt_tiny_v5/oc_mqtt_tiny.c ****     if(cb->flag.bits.bit_get_hubaddr)
 3111              		.loc 1 931 8
 3112 0123 488B45D8 		movq	-40(%rbp), %rax
 3113 0127 0FB680E0 		movzbl	224(%rax), %eax
 3113      000000
 3114 012e 83E010   		andl	$16, %eax
 3115              		.loc 1 931 7
 3116 0131 84C0     		testb	%al, %al
 3117 0133 7409     		je	.L167
 932:/home/xingli/share/1205tiny/oc/oc_mqtt/oc_mqtt_tiny_v5/oc_mqtt_tiny.c ****     {
 933:/home/xingli/share/1205tiny/oc/oc_mqtt/oc_mqtt_tiny_v5/oc_mqtt_tiny.c ****         ret = (int)en_oc_mqtt_err_ok;
 3118              		.loc 1 933 13
 3119 0135 C745E000 		movl	$0, -32(%rbp)
 3119      000000
 3120 013c EB13     		jmp	.L160
 3121              	.L167:
 934:/home/xingli/share/1205tiny/oc/oc_mqtt/oc_mqtt_tiny_v5/oc_mqtt_tiny.c ****     }
 935:/home/xingli/share/1205tiny/oc/oc_mqtt/oc_mqtt_tiny_v5/oc_mqtt_tiny.c ****     else
 936:/home/xingli/share/1205tiny/oc/oc_mqtt/oc_mqtt_tiny_v5/oc_mqtt_tiny.c ****     {
GAS LISTING /tmp/cc7S055g.s 			page 88


 937:/home/xingli/share/1205tiny/oc/oc_mqtt/oc_mqtt_tiny_v5/oc_mqtt_tiny.c ****         ret = (int)en_oc_mqtt_err_gethubaddrtimeout;
 3122              		.loc 1 937 13
 3123 013e C745E00E 		movl	$14, -32(%rbp)
 3123      000000
 3124 0145 EB0A     		jmp	.L160
 3125              	.L171:
 905:/home/xingli/share/1205tiny/oc/oc_mqtt/oc_mqtt_tiny_v5/oc_mqtt_tiny.c ****     }
 3126              		.loc 1 905 9
 3127 0147 90       		nop
 3128 0148 EB07     		jmp	.L160
 3129              	.L172:
 911:/home/xingli/share/1205tiny/oc/oc_mqtt/oc_mqtt_tiny_v5/oc_mqtt_tiny.c ****     }
 3130              		.loc 1 911 8
 3131 014a 90       		nop
 3132 014b EB04     		jmp	.L160
 3133              	.L173:
 917:/home/xingli/share/1205tiny/oc/oc_mqtt/oc_mqtt_tiny_v5/oc_mqtt_tiny.c ****     }
 3134              		.loc 1 917 8
 3135 014d 90       		nop
 3136 014e EB01     		jmp	.L160
 3137              	.L174:
 923:/home/xingli/share/1205tiny/oc/oc_mqtt/oc_mqtt_tiny_v5/oc_mqtt_tiny.c ****     }
 3138              		.loc 1 923 9
 3139 0150 90       		nop
 3140              	.L160:
 938:/home/xingli/share/1205tiny/oc/oc_mqtt/oc_mqtt_tiny_v5/oc_mqtt_tiny.c ****     }
 939:/home/xingli/share/1205tiny/oc/oc_mqtt/oc_mqtt_tiny_v5/oc_mqtt_tiny.c **** 
 940:/home/xingli/share/1205tiny/oc/oc_mqtt/oc_mqtt_tiny_v5/oc_mqtt_tiny.c **** 
 941:/home/xingli/share/1205tiny/oc/oc_mqtt/oc_mqtt_tiny_v5/oc_mqtt_tiny.c **** 
 942:/home/xingli/share/1205tiny/oc/oc_mqtt/oc_mqtt_tiny_v5/oc_mqtt_tiny.c **** EXIT_ERR:
 943:/home/xingli/share/1205tiny/oc/oc_mqtt/oc_mqtt_tiny_v5/oc_mqtt_tiny.c ****     (void) oc_mqtt_para_release(cb);
 3141              		.loc 1 943 12
 3142 0151 488B45D8 		movq	-40(%rbp), %rax
 3143 0155 4889C7   		movq	%rax, %rdi
 3144 0158 E8000000 		call	oc_mqtt_para_release
 3144      00
 944:/home/xingli/share/1205tiny/oc/oc_mqtt/oc_mqtt_tiny_v5/oc_mqtt_tiny.c ****     LINK_LOG_DEBUG("%s:exit ret:%d",__FUNCTION__,ret);
 3145              		.loc 1 944 5
 3146 015d E8000000 		call	link_log_level_get@PLT
 3146      00
 3147 0162 83F801   		cmpl	$1, %eax
 3148 0165 774A     		ja	.L168
 3149              		.loc 1 944 5 is_stmt 0 discriminator 1
 3150 0167 E8000000 		call	osal_sys_time@PLT
 3150      00
 3151 016c 89C3     		movl	%eax, %ebx
 3152 016e BF010000 		movl	$1, %edi
 3152      00
 3153 0173 E8000000 		call	link_log_level_name@PLT
 3153      00
 3154 0178 8B55E0   		movl	-32(%rbp), %edx
 3155 017b 4189D1   		movl	%edx, %r9d
 3156 017e 4C8D0500 		leaq	__FUNCTION__.4057(%rip), %r8
 3156      000000
 3157 0185 488D0D00 		leaq	__FUNCTION__.4057(%rip), %rcx
 3157      000000
 3158 018c 89DA     		movl	%ebx, %edx
GAS LISTING /tmp/cc7S055g.s 			page 89


 3159 018e 4889C6   		movq	%rax, %rsi
 3160 0191 488D3D00 		leaq	.LC32(%rip), %rdi
 3160      000000
 3161 0198 B8000000 		movl	$0, %eax
 3161      00
 3162 019d E8000000 		call	printf@PLT
 3162      00
 3163 01a2 488B0500 		movq	stdout(%rip), %rax
 3163      000000
 3164 01a9 4889C7   		movq	%rax, %rdi
 3165 01ac E8000000 		call	fflush@PLT
 3165      00
