GAS LISTING /tmp/ccFaOvob.s 			page 1


   1              		.file	"bignum.c"
   2              		.text
   3              	.Ltext0:
   4              		.section	.text.mbedtls_mpi_zeroize,"ax",@progbits
   6              	mbedtls_mpi_zeroize:
   7              	.LFB6:
   8              		.file 1 "/home/xingli/share/1205tiny/network/dtls/mbedtls/mbedtls-2.16.2/library/bignum.c"
   1:/home/xingli/share/1205tiny/network/dtls/mbedtls/mbedtls-2.16.2/library/bignum.c **** /*
   2:/home/xingli/share/1205tiny/network/dtls/mbedtls/mbedtls-2.16.2/library/bignum.c ****  *  Multi-precision integer library
   3:/home/xingli/share/1205tiny/network/dtls/mbedtls/mbedtls-2.16.2/library/bignum.c ****  *
   4:/home/xingli/share/1205tiny/network/dtls/mbedtls/mbedtls-2.16.2/library/bignum.c ****  *  Copyright (C) 2006-2015, ARM Limited, All Rights Reserved
   5:/home/xingli/share/1205tiny/network/dtls/mbedtls/mbedtls-2.16.2/library/bignum.c ****  *  SPDX-License-Identifier: Apache-2.0
   6:/home/xingli/share/1205tiny/network/dtls/mbedtls/mbedtls-2.16.2/library/bignum.c ****  *
   7:/home/xingli/share/1205tiny/network/dtls/mbedtls/mbedtls-2.16.2/library/bignum.c ****  *  Licensed under the Apache License, Version 2.0 (the "License"); you may
   8:/home/xingli/share/1205tiny/network/dtls/mbedtls/mbedtls-2.16.2/library/bignum.c ****  *  not use this file except in compliance with the License.
   9:/home/xingli/share/1205tiny/network/dtls/mbedtls/mbedtls-2.16.2/library/bignum.c ****  *  You may obtain a copy of the License at
  10:/home/xingli/share/1205tiny/network/dtls/mbedtls/mbedtls-2.16.2/library/bignum.c ****  *
  11:/home/xingli/share/1205tiny/network/dtls/mbedtls/mbedtls-2.16.2/library/bignum.c ****  *  http://www.apache.org/licenses/LICENSE-2.0
  12:/home/xingli/share/1205tiny/network/dtls/mbedtls/mbedtls-2.16.2/library/bignum.c ****  *
  13:/home/xingli/share/1205tiny/network/dtls/mbedtls/mbedtls-2.16.2/library/bignum.c ****  *  Unless required by applicable law or agreed to in writing, software
  14:/home/xingli/share/1205tiny/network/dtls/mbedtls/mbedtls-2.16.2/library/bignum.c ****  *  distributed under the License is distributed on an "AS IS" BASIS, WITHOUT
  15:/home/xingli/share/1205tiny/network/dtls/mbedtls/mbedtls-2.16.2/library/bignum.c ****  *  WARRANTIES OR CONDITIONS OF ANY KIND, either express or implied.
  16:/home/xingli/share/1205tiny/network/dtls/mbedtls/mbedtls-2.16.2/library/bignum.c ****  *  See the License for the specific language governing permissions and
  17:/home/xingli/share/1205tiny/network/dtls/mbedtls/mbedtls-2.16.2/library/bignum.c ****  *  limitations under the License.
  18:/home/xingli/share/1205tiny/network/dtls/mbedtls/mbedtls-2.16.2/library/bignum.c ****  *
  19:/home/xingli/share/1205tiny/network/dtls/mbedtls/mbedtls-2.16.2/library/bignum.c ****  *  This file is part of mbed TLS (https://tls.mbed.org)
  20:/home/xingli/share/1205tiny/network/dtls/mbedtls/mbedtls-2.16.2/library/bignum.c ****  */
  21:/home/xingli/share/1205tiny/network/dtls/mbedtls/mbedtls-2.16.2/library/bignum.c **** 
  22:/home/xingli/share/1205tiny/network/dtls/mbedtls/mbedtls-2.16.2/library/bignum.c **** /*
  23:/home/xingli/share/1205tiny/network/dtls/mbedtls/mbedtls-2.16.2/library/bignum.c ****  *  The following sources were referenced in the design of this Multi-precision
  24:/home/xingli/share/1205tiny/network/dtls/mbedtls/mbedtls-2.16.2/library/bignum.c ****  *  Integer library:
  25:/home/xingli/share/1205tiny/network/dtls/mbedtls/mbedtls-2.16.2/library/bignum.c ****  *
  26:/home/xingli/share/1205tiny/network/dtls/mbedtls/mbedtls-2.16.2/library/bignum.c ****  *  [1] Handbook of Applied Cryptography - 1997
  27:/home/xingli/share/1205tiny/network/dtls/mbedtls/mbedtls-2.16.2/library/bignum.c ****  *      Menezes, van Oorschot and Vanstone
  28:/home/xingli/share/1205tiny/network/dtls/mbedtls/mbedtls-2.16.2/library/bignum.c ****  *
  29:/home/xingli/share/1205tiny/network/dtls/mbedtls/mbedtls-2.16.2/library/bignum.c ****  *  [2] Multi-Precision Math
  30:/home/xingli/share/1205tiny/network/dtls/mbedtls/mbedtls-2.16.2/library/bignum.c ****  *      Tom St Denis
  31:/home/xingli/share/1205tiny/network/dtls/mbedtls/mbedtls-2.16.2/library/bignum.c ****  *      https://github.com/libtom/libtommath/blob/develop/tommath.pdf
  32:/home/xingli/share/1205tiny/network/dtls/mbedtls/mbedtls-2.16.2/library/bignum.c ****  *
  33:/home/xingli/share/1205tiny/network/dtls/mbedtls/mbedtls-2.16.2/library/bignum.c ****  *  [3] GNU Multi-Precision Arithmetic Library
  34:/home/xingli/share/1205tiny/network/dtls/mbedtls/mbedtls-2.16.2/library/bignum.c ****  *      https://gmplib.org/manual/index.html
  35:/home/xingli/share/1205tiny/network/dtls/mbedtls/mbedtls-2.16.2/library/bignum.c ****  *
  36:/home/xingli/share/1205tiny/network/dtls/mbedtls/mbedtls-2.16.2/library/bignum.c ****  */
  37:/home/xingli/share/1205tiny/network/dtls/mbedtls/mbedtls-2.16.2/library/bignum.c **** 
  38:/home/xingli/share/1205tiny/network/dtls/mbedtls/mbedtls-2.16.2/library/bignum.c **** #if !defined(MBEDTLS_CONFIG_FILE)
  39:/home/xingli/share/1205tiny/network/dtls/mbedtls/mbedtls-2.16.2/library/bignum.c **** #include "mbedtls/config.h"
  40:/home/xingli/share/1205tiny/network/dtls/mbedtls/mbedtls-2.16.2/library/bignum.c **** #else
  41:/home/xingli/share/1205tiny/network/dtls/mbedtls/mbedtls-2.16.2/library/bignum.c **** #include MBEDTLS_CONFIG_FILE
  42:/home/xingli/share/1205tiny/network/dtls/mbedtls/mbedtls-2.16.2/library/bignum.c **** #endif
  43:/home/xingli/share/1205tiny/network/dtls/mbedtls/mbedtls-2.16.2/library/bignum.c **** 
  44:/home/xingli/share/1205tiny/network/dtls/mbedtls/mbedtls-2.16.2/library/bignum.c **** #if defined(MBEDTLS_BIGNUM_C)
  45:/home/xingli/share/1205tiny/network/dtls/mbedtls/mbedtls-2.16.2/library/bignum.c **** 
  46:/home/xingli/share/1205tiny/network/dtls/mbedtls/mbedtls-2.16.2/library/bignum.c **** #include "mbedtls/bignum.h"
  47:/home/xingli/share/1205tiny/network/dtls/mbedtls/mbedtls-2.16.2/library/bignum.c **** #include "mbedtls/bn_mul.h"
  48:/home/xingli/share/1205tiny/network/dtls/mbedtls/mbedtls-2.16.2/library/bignum.c **** #include "mbedtls/platform_util.h"
  49:/home/xingli/share/1205tiny/network/dtls/mbedtls/mbedtls-2.16.2/library/bignum.c **** 
  50:/home/xingli/share/1205tiny/network/dtls/mbedtls/mbedtls-2.16.2/library/bignum.c **** #include <string.h>
GAS LISTING /tmp/ccFaOvob.s 			page 2


  51:/home/xingli/share/1205tiny/network/dtls/mbedtls/mbedtls-2.16.2/library/bignum.c **** 
  52:/home/xingli/share/1205tiny/network/dtls/mbedtls/mbedtls-2.16.2/library/bignum.c **** #if defined(MBEDTLS_PLATFORM_C)
  53:/home/xingli/share/1205tiny/network/dtls/mbedtls/mbedtls-2.16.2/library/bignum.c **** #include "mbedtls/platform.h"
  54:/home/xingli/share/1205tiny/network/dtls/mbedtls/mbedtls-2.16.2/library/bignum.c **** #else
  55:/home/xingli/share/1205tiny/network/dtls/mbedtls/mbedtls-2.16.2/library/bignum.c **** #include <stdio.h>
  56:/home/xingli/share/1205tiny/network/dtls/mbedtls/mbedtls-2.16.2/library/bignum.c **** #include <stdlib.h>
  57:/home/xingli/share/1205tiny/network/dtls/mbedtls/mbedtls-2.16.2/library/bignum.c **** #define mbedtls_printf     printf
  58:/home/xingli/share/1205tiny/network/dtls/mbedtls/mbedtls-2.16.2/library/bignum.c **** #define mbedtls_calloc    calloc
  59:/home/xingli/share/1205tiny/network/dtls/mbedtls/mbedtls-2.16.2/library/bignum.c **** #define mbedtls_free       free
  60:/home/xingli/share/1205tiny/network/dtls/mbedtls/mbedtls-2.16.2/library/bignum.c **** #endif
  61:/home/xingli/share/1205tiny/network/dtls/mbedtls/mbedtls-2.16.2/library/bignum.c **** 
  62:/home/xingli/share/1205tiny/network/dtls/mbedtls/mbedtls-2.16.2/library/bignum.c **** #define MPI_VALIDATE_RET( cond )                                       \
  63:/home/xingli/share/1205tiny/network/dtls/mbedtls/mbedtls-2.16.2/library/bignum.c ****     MBEDTLS_INTERNAL_VALIDATE_RET( cond, MBEDTLS_ERR_MPI_BAD_INPUT_DATA )
  64:/home/xingli/share/1205tiny/network/dtls/mbedtls/mbedtls-2.16.2/library/bignum.c **** #define MPI_VALIDATE( cond )                                           \
  65:/home/xingli/share/1205tiny/network/dtls/mbedtls/mbedtls-2.16.2/library/bignum.c ****     MBEDTLS_INTERNAL_VALIDATE( cond )
  66:/home/xingli/share/1205tiny/network/dtls/mbedtls/mbedtls-2.16.2/library/bignum.c **** 
  67:/home/xingli/share/1205tiny/network/dtls/mbedtls/mbedtls-2.16.2/library/bignum.c **** #define ciL    (sizeof(mbedtls_mpi_uint))         /* chars in limb  */
  68:/home/xingli/share/1205tiny/network/dtls/mbedtls/mbedtls-2.16.2/library/bignum.c **** #define biL    (ciL << 3)               /* bits  in limb  */
  69:/home/xingli/share/1205tiny/network/dtls/mbedtls/mbedtls-2.16.2/library/bignum.c **** #define biH    (ciL << 2)               /* half limb size */
  70:/home/xingli/share/1205tiny/network/dtls/mbedtls/mbedtls-2.16.2/library/bignum.c **** 
  71:/home/xingli/share/1205tiny/network/dtls/mbedtls/mbedtls-2.16.2/library/bignum.c **** #define MPI_SIZE_T_MAX  ( (size_t) -1 ) /* SIZE_T_MAX is not standard */
  72:/home/xingli/share/1205tiny/network/dtls/mbedtls/mbedtls-2.16.2/library/bignum.c **** 
  73:/home/xingli/share/1205tiny/network/dtls/mbedtls/mbedtls-2.16.2/library/bignum.c **** /*
  74:/home/xingli/share/1205tiny/network/dtls/mbedtls/mbedtls-2.16.2/library/bignum.c ****  * Convert between bits/chars and number of limbs
  75:/home/xingli/share/1205tiny/network/dtls/mbedtls/mbedtls-2.16.2/library/bignum.c ****  * Divide first in order to avoid potential overflows
  76:/home/xingli/share/1205tiny/network/dtls/mbedtls/mbedtls-2.16.2/library/bignum.c ****  */
  77:/home/xingli/share/1205tiny/network/dtls/mbedtls/mbedtls-2.16.2/library/bignum.c **** #define BITS_TO_LIMBS(i)  ( (i) / biL + ( (i) % biL != 0 ) )
  78:/home/xingli/share/1205tiny/network/dtls/mbedtls/mbedtls-2.16.2/library/bignum.c **** #define CHARS_TO_LIMBS(i) ( (i) / ciL + ( (i) % ciL != 0 ) )
  79:/home/xingli/share/1205tiny/network/dtls/mbedtls/mbedtls-2.16.2/library/bignum.c **** 
  80:/home/xingli/share/1205tiny/network/dtls/mbedtls/mbedtls-2.16.2/library/bignum.c **** /* Implementation that should never be optimized out by the compiler */
  81:/home/xingli/share/1205tiny/network/dtls/mbedtls/mbedtls-2.16.2/library/bignum.c **** static void mbedtls_mpi_zeroize( mbedtls_mpi_uint *v, size_t n )
  82:/home/xingli/share/1205tiny/network/dtls/mbedtls/mbedtls-2.16.2/library/bignum.c **** {
   9              		.loc 1 82 1
  10              		.cfi_startproc
  11 0000 F30F1EFA 		endbr64
  12 0004 55       		pushq	%rbp
  13              	.LCFI0:
  14              		.cfi_def_cfa_offset 16
  15              		.cfi_offset 6, -16
  16 0005 4889E5   		movq	%rsp, %rbp
  17              	.LCFI1:
  18              		.cfi_def_cfa_register 6
  19 0008 4883EC20 		subq	$32, %rsp
  20 000c 48897DE8 		movq	%rdi, -24(%rbp)
  21 0010 488975E0 		movq	%rsi, -32(%rbp)
  22              		.loc 1 82 1
  23 0014 64488B04 		movq	%fs:40, %rax
  23      25280000 
  23      00
  24 001d 488945F8 		movq	%rax, -8(%rbp)
  25 0021 31C0     		xorl	%eax, %eax
  83:/home/xingli/share/1205tiny/network/dtls/mbedtls/mbedtls-2.16.2/library/bignum.c ****     mbedtls_platform_zeroize( v, ciL * n );
  26              		.loc 1 83 5
  27 0023 488B45E0 		movq	-32(%rbp), %rax
  28 0027 488D14C5 		leaq	0(,%rax,8), %rdx
  28      00000000 
  29 002f 488B45E8 		movq	-24(%rbp), %rax
GAS LISTING /tmp/ccFaOvob.s 			page 3


  30 0033 4889D6   		movq	%rdx, %rsi
  31 0036 4889C7   		movq	%rax, %rdi
  32 0039 E8000000 		call	mbedtls_platform_zeroize@PLT
  32      00
  84:/home/xingli/share/1205tiny/network/dtls/mbedtls/mbedtls-2.16.2/library/bignum.c **** }
  33              		.loc 1 84 1
  34 003e 90       		nop
  35 003f 488B45F8 		movq	-8(%rbp), %rax
  36 0043 64483304 		xorq	%fs:40, %rax
  36      25280000 
  36      00
  37 004c 7405     		je	.L2
  38 004e E8000000 		call	__stack_chk_fail@PLT
  38      00
  39              	.L2:
  40 0053 C9       		leave
  41              	.LCFI2:
  42              		.cfi_def_cfa 7, 8
  43 0054 C3       		ret
  44              		.cfi_endproc
  45              	.LFE6:
  47              		.section	.text.mbedtls_mpi_init,"ax",@progbits
  48              		.globl	mbedtls_mpi_init
  50              	mbedtls_mpi_init:
  51              	.LFB7:
  85:/home/xingli/share/1205tiny/network/dtls/mbedtls/mbedtls-2.16.2/library/bignum.c **** 
  86:/home/xingli/share/1205tiny/network/dtls/mbedtls/mbedtls-2.16.2/library/bignum.c **** /*
  87:/home/xingli/share/1205tiny/network/dtls/mbedtls/mbedtls-2.16.2/library/bignum.c ****  * Initialize one MPI
  88:/home/xingli/share/1205tiny/network/dtls/mbedtls/mbedtls-2.16.2/library/bignum.c ****  */
  89:/home/xingli/share/1205tiny/network/dtls/mbedtls/mbedtls-2.16.2/library/bignum.c **** void mbedtls_mpi_init( mbedtls_mpi *X )
  90:/home/xingli/share/1205tiny/network/dtls/mbedtls/mbedtls-2.16.2/library/bignum.c **** {
  52              		.loc 1 90 1
  53              		.cfi_startproc
  54 0000 F30F1EFA 		endbr64
  55 0004 55       		pushq	%rbp
  56              	.LCFI3:
  57              		.cfi_def_cfa_offset 16
  58              		.cfi_offset 6, -16
  59 0005 4889E5   		movq	%rsp, %rbp
  60              	.LCFI4:
  61              		.cfi_def_cfa_register 6
  62 0008 4883EC20 		subq	$32, %rsp
  63 000c 48897DE8 		movq	%rdi, -24(%rbp)
  64              		.loc 1 90 1
  65 0010 64488B04 		movq	%fs:40, %rax
  65      25280000 
  65      00
  66 0019 488945F8 		movq	%rax, -8(%rbp)
  67 001d 31C0     		xorl	%eax, %eax
  91:/home/xingli/share/1205tiny/network/dtls/mbedtls/mbedtls-2.16.2/library/bignum.c ****     MPI_VALIDATE( X != NULL );
  92:/home/xingli/share/1205tiny/network/dtls/mbedtls/mbedtls-2.16.2/library/bignum.c **** 
  93:/home/xingli/share/1205tiny/network/dtls/mbedtls/mbedtls-2.16.2/library/bignum.c ****     X->s = 1;
  68              		.loc 1 93 10
  69 001f 488B45E8 		movq	-24(%rbp), %rax
  70 0023 C7000100 		movl	$1, (%rax)
  70      0000
  94:/home/xingli/share/1205tiny/network/dtls/mbedtls/mbedtls-2.16.2/library/bignum.c ****     X->n = 0;
GAS LISTING /tmp/ccFaOvob.s 			page 4


  71              		.loc 1 94 10
  72 0029 488B45E8 		movq	-24(%rbp), %rax
  73 002d 48C74008 		movq	$0, 8(%rax)
  73      00000000 
  95:/home/xingli/share/1205tiny/network/dtls/mbedtls/mbedtls-2.16.2/library/bignum.c ****     X->p = NULL;
  74              		.loc 1 95 10
  75 0035 488B45E8 		movq	-24(%rbp), %rax
  76 0039 48C74010 		movq	$0, 16(%rax)
  76      00000000 
  96:/home/xingli/share/1205tiny/network/dtls/mbedtls/mbedtls-2.16.2/library/bignum.c **** }
  77              		.loc 1 96 1
  78 0041 90       		nop
  79 0042 488B45F8 		movq	-8(%rbp), %rax
  80 0046 64483304 		xorq	%fs:40, %rax
  80      25280000 
  80      00
  81 004f 7405     		je	.L4
  82 0051 E8000000 		call	__stack_chk_fail@PLT
  82      00
  83              	.L4:
  84 0056 C9       		leave
  85              	.LCFI5:
  86              		.cfi_def_cfa 7, 8
  87 0057 C3       		ret
  88              		.cfi_endproc
  89              	.LFE7:
  91              		.section	.text.mbedtls_mpi_free,"ax",@progbits
  92              		.globl	mbedtls_mpi_free
  94              	mbedtls_mpi_free:
  95              	.LFB8:
  97:/home/xingli/share/1205tiny/network/dtls/mbedtls/mbedtls-2.16.2/library/bignum.c **** 
  98:/home/xingli/share/1205tiny/network/dtls/mbedtls/mbedtls-2.16.2/library/bignum.c **** /*
  99:/home/xingli/share/1205tiny/network/dtls/mbedtls/mbedtls-2.16.2/library/bignum.c ****  * Unallocate one MPI
 100:/home/xingli/share/1205tiny/network/dtls/mbedtls/mbedtls-2.16.2/library/bignum.c ****  */
 101:/home/xingli/share/1205tiny/network/dtls/mbedtls/mbedtls-2.16.2/library/bignum.c **** void mbedtls_mpi_free( mbedtls_mpi *X )
 102:/home/xingli/share/1205tiny/network/dtls/mbedtls/mbedtls-2.16.2/library/bignum.c **** {
  96              		.loc 1 102 1
  97              		.cfi_startproc
  98 0000 F30F1EFA 		endbr64
  99 0004 55       		pushq	%rbp
 100              	.LCFI6:
 101              		.cfi_def_cfa_offset 16
 102              		.cfi_offset 6, -16
 103 0005 4889E5   		movq	%rsp, %rbp
 104              	.LCFI7:
 105              		.cfi_def_cfa_register 6
 106 0008 4883EC20 		subq	$32, %rsp
 107 000c 48897DE8 		movq	%rdi, -24(%rbp)
 108              		.loc 1 102 1
 109 0010 64488B04 		movq	%fs:40, %rax
 109      25280000 
 109      00
 110 0019 488945F8 		movq	%rax, -8(%rbp)
 111 001d 31C0     		xorl	%eax, %eax
 103:/home/xingli/share/1205tiny/network/dtls/mbedtls/mbedtls-2.16.2/library/bignum.c ****     if( X == NULL )
 112              		.loc 1 103 7
 113 001f 48837DE8 		cmpq	$0, -24(%rbp)
GAS LISTING /tmp/ccFaOvob.s 			page 5


 113      00
 114 0024 745C     		je	.L10
 104:/home/xingli/share/1205tiny/network/dtls/mbedtls/mbedtls-2.16.2/library/bignum.c ****         return;
 105:/home/xingli/share/1205tiny/network/dtls/mbedtls/mbedtls-2.16.2/library/bignum.c **** 
 106:/home/xingli/share/1205tiny/network/dtls/mbedtls/mbedtls-2.16.2/library/bignum.c ****     if( X->p != NULL )
 115              		.loc 1 106 10
 116 0026 488B45E8 		movq	-24(%rbp), %rax
 117 002a 488B4010 		movq	16(%rax), %rax
 118              		.loc 1 106 7
 119 002e 4885C0   		testq	%rax, %rax
 120 0031 742B     		je	.L8
 107:/home/xingli/share/1205tiny/network/dtls/mbedtls/mbedtls-2.16.2/library/bignum.c ****     {
 108:/home/xingli/share/1205tiny/network/dtls/mbedtls/mbedtls-2.16.2/library/bignum.c ****         mbedtls_mpi_zeroize( X->p, X->n );
 121              		.loc 1 108 9
 122 0033 488B45E8 		movq	-24(%rbp), %rax
 123 0037 488B5008 		movq	8(%rax), %rdx
 124 003b 488B45E8 		movq	-24(%rbp), %rax
 125 003f 488B4010 		movq	16(%rax), %rax
 126 0043 4889D6   		movq	%rdx, %rsi
 127 0046 4889C7   		movq	%rax, %rdi
 128 0049 E8000000 		call	mbedtls_mpi_zeroize
 128      00
 109:/home/xingli/share/1205tiny/network/dtls/mbedtls/mbedtls-2.16.2/library/bignum.c ****         mbedtls_free( X->p );
 129              		.loc 1 109 24
 130 004e 488B45E8 		movq	-24(%rbp), %rax
 131 0052 488B4010 		movq	16(%rax), %rax
 132              		.loc 1 109 9
 133 0056 4889C7   		movq	%rax, %rdi
 134 0059 E8000000 		call	mbedtls_free@PLT
 134      00
 135              	.L8:
 110:/home/xingli/share/1205tiny/network/dtls/mbedtls/mbedtls-2.16.2/library/bignum.c ****     }
 111:/home/xingli/share/1205tiny/network/dtls/mbedtls/mbedtls-2.16.2/library/bignum.c **** 
 112:/home/xingli/share/1205tiny/network/dtls/mbedtls/mbedtls-2.16.2/library/bignum.c ****     X->s = 1;
 136              		.loc 1 112 10
 137 005e 488B45E8 		movq	-24(%rbp), %rax
 138 0062 C7000100 		movl	$1, (%rax)
 138      0000
 113:/home/xingli/share/1205tiny/network/dtls/mbedtls/mbedtls-2.16.2/library/bignum.c ****     X->n = 0;
 139              		.loc 1 113 10
 140 0068 488B45E8 		movq	-24(%rbp), %rax
 141 006c 48C74008 		movq	$0, 8(%rax)
 141      00000000 
 114:/home/xingli/share/1205tiny/network/dtls/mbedtls/mbedtls-2.16.2/library/bignum.c ****     X->p = NULL;
 142              		.loc 1 114 10
 143 0074 488B45E8 		movq	-24(%rbp), %rax
 144 0078 48C74010 		movq	$0, 16(%rax)
 144      00000000 
 145 0080 EB01     		jmp	.L5
 146              	.L10:
 104:/home/xingli/share/1205tiny/network/dtls/mbedtls/mbedtls-2.16.2/library/bignum.c **** 
 147              		.loc 1 104 9
 148 0082 90       		nop
 149              	.L5:
 115:/home/xingli/share/1205tiny/network/dtls/mbedtls/mbedtls-2.16.2/library/bignum.c **** }
 150              		.loc 1 115 1
 151 0083 488B45F8 		movq	-8(%rbp), %rax
GAS LISTING /tmp/ccFaOvob.s 			page 6


 152 0087 64483304 		xorq	%fs:40, %rax
 152      25280000 
 152      00
 153 0090 7405     		je	.L9
 154 0092 E8000000 		call	__stack_chk_fail@PLT
 154      00
 155              	.L9:
 156 0097 C9       		leave
 157              	.LCFI8:
 158              		.cfi_def_cfa 7, 8
 159 0098 C3       		ret
 160              		.cfi_endproc
 161              	.LFE8:
 163              		.section	.text.mbedtls_mpi_grow,"ax",@progbits
 164              		.globl	mbedtls_mpi_grow
 166              	mbedtls_mpi_grow:
 167              	.LFB9:
 116:/home/xingli/share/1205tiny/network/dtls/mbedtls/mbedtls-2.16.2/library/bignum.c **** 
 117:/home/xingli/share/1205tiny/network/dtls/mbedtls/mbedtls-2.16.2/library/bignum.c **** /*
 118:/home/xingli/share/1205tiny/network/dtls/mbedtls/mbedtls-2.16.2/library/bignum.c ****  * Enlarge to the specified number of limbs
 119:/home/xingli/share/1205tiny/network/dtls/mbedtls/mbedtls-2.16.2/library/bignum.c ****  */
 120:/home/xingli/share/1205tiny/network/dtls/mbedtls/mbedtls-2.16.2/library/bignum.c **** int mbedtls_mpi_grow( mbedtls_mpi *X, size_t nblimbs )
 121:/home/xingli/share/1205tiny/network/dtls/mbedtls/mbedtls-2.16.2/library/bignum.c **** {
 168              		.loc 1 121 1
 169              		.cfi_startproc
 170 0000 F30F1EFA 		endbr64
 171 0004 55       		pushq	%rbp
 172              	.LCFI9:
 173              		.cfi_def_cfa_offset 16
 174              		.cfi_offset 6, -16
 175 0005 4889E5   		movq	%rsp, %rbp
 176              	.LCFI10:
 177              		.cfi_def_cfa_register 6
 178 0008 4883EC20 		subq	$32, %rsp
 179 000c 48897DE8 		movq	%rdi, -24(%rbp)
 180 0010 488975E0 		movq	%rsi, -32(%rbp)
 181              		.loc 1 121 1
 182 0014 64488B04 		movq	%fs:40, %rax
 182      25280000 
 182      00
 183 001d 488945F8 		movq	%rax, -8(%rbp)
 184 0021 31C0     		xorl	%eax, %eax
 122:/home/xingli/share/1205tiny/network/dtls/mbedtls/mbedtls-2.16.2/library/bignum.c ****     mbedtls_mpi_uint *p;
 123:/home/xingli/share/1205tiny/network/dtls/mbedtls/mbedtls-2.16.2/library/bignum.c ****     MPI_VALIDATE_RET( X != NULL );
 124:/home/xingli/share/1205tiny/network/dtls/mbedtls/mbedtls-2.16.2/library/bignum.c **** 
 125:/home/xingli/share/1205tiny/network/dtls/mbedtls/mbedtls-2.16.2/library/bignum.c ****     if( nblimbs > MBEDTLS_MPI_MAX_LIMBS )
 185              		.loc 1 125 7
 186 0023 48817DE0 		cmpq	$10000, -32(%rbp)
 186      10270000 
 187 002b 760A     		jbe	.L12
 126:/home/xingli/share/1205tiny/network/dtls/mbedtls/mbedtls-2.16.2/library/bignum.c ****         return( MBEDTLS_ERR_MPI_ALLOC_FAILED );
 188              		.loc 1 126 15
 189 002d B8F0FFFF 		movl	$-16, %eax
 189      FF
 190 0032 E9B10000 		jmp	.L13
 190      00
 191              	.L12:
GAS LISTING /tmp/ccFaOvob.s 			page 7


 127:/home/xingli/share/1205tiny/network/dtls/mbedtls/mbedtls-2.16.2/library/bignum.c **** 
 128:/home/xingli/share/1205tiny/network/dtls/mbedtls/mbedtls-2.16.2/library/bignum.c ****     if( X->n < nblimbs )
 192              		.loc 1 128 10
 193 0037 488B45E8 		movq	-24(%rbp), %rax
 194 003b 488B4008 		movq	8(%rax), %rax
 195              		.loc 1 128 7
 196 003f 483945E0 		cmpq	%rax, -32(%rbp)
 197 0043 0F869A00 		jbe	.L14
 197      0000
 129:/home/xingli/share/1205tiny/network/dtls/mbedtls/mbedtls-2.16.2/library/bignum.c ****     {
 130:/home/xingli/share/1205tiny/network/dtls/mbedtls/mbedtls-2.16.2/library/bignum.c ****         if( ( p = (mbedtls_mpi_uint*)mbedtls_calloc( nblimbs, ciL ) ) == NULL )
 198              		.loc 1 130 38
 199 0049 488B45E0 		movq	-32(%rbp), %rax
 200 004d BE080000 		movl	$8, %esi
 200      00
 201 0052 4889C7   		movq	%rax, %rdi
 202 0055 E8000000 		call	mbedtls_calloc@PLT
 202      00
 203 005a 488945F0 		movq	%rax, -16(%rbp)
 204              		.loc 1 130 11
 205 005e 48837DF0 		cmpq	$0, -16(%rbp)
 205      00
 206 0063 7507     		jne	.L15
 131:/home/xingli/share/1205tiny/network/dtls/mbedtls/mbedtls-2.16.2/library/bignum.c ****             return( MBEDTLS_ERR_MPI_ALLOC_FAILED );
 207              		.loc 1 131 19
 208 0065 B8F0FFFF 		movl	$-16, %eax
 208      FF
 209 006a EB7C     		jmp	.L13
 210              	.L15:
 132:/home/xingli/share/1205tiny/network/dtls/mbedtls/mbedtls-2.16.2/library/bignum.c **** 
 133:/home/xingli/share/1205tiny/network/dtls/mbedtls/mbedtls-2.16.2/library/bignum.c ****         if( X->p != NULL )
 211              		.loc 1 133 14
 212 006c 488B45E8 		movq	-24(%rbp), %rax
 213 0070 488B4010 		movq	16(%rax), %rax
 214              		.loc 1 133 11
 215 0074 4885C0   		testq	%rax, %rax
 216 0077 7452     		je	.L16
 134:/home/xingli/share/1205tiny/network/dtls/mbedtls/mbedtls-2.16.2/library/bignum.c ****         {
 135:/home/xingli/share/1205tiny/network/dtls/mbedtls/mbedtls-2.16.2/library/bignum.c ****             memcpy( p, X->p, X->n * ciL );
 217              		.loc 1 135 31
 218 0079 488B45E8 		movq	-24(%rbp), %rax
 219 007d 488B4008 		movq	8(%rax), %rax
 220              		.loc 1 135 13
 221 0081 488D14C5 		leaq	0(,%rax,8), %rdx
 221      00000000 
 222              		.loc 1 135 25
 223 0089 488B45E8 		movq	-24(%rbp), %rax
 224 008d 488B4810 		movq	16(%rax), %rcx
 225              		.loc 1 135 13
 226 0091 488B45F0 		movq	-16(%rbp), %rax
 227 0095 4889CE   		movq	%rcx, %rsi
 228 0098 4889C7   		movq	%rax, %rdi
 229 009b E8000000 		call	memcpy@PLT
 229      00
 136:/home/xingli/share/1205tiny/network/dtls/mbedtls/mbedtls-2.16.2/library/bignum.c ****             mbedtls_mpi_zeroize( X->p, X->n );
 230              		.loc 1 136 13
 231 00a0 488B45E8 		movq	-24(%rbp), %rax
GAS LISTING /tmp/ccFaOvob.s 			page 8


 232 00a4 488B5008 		movq	8(%rax), %rdx
 233 00a8 488B45E8 		movq	-24(%rbp), %rax
 234 00ac 488B4010 		movq	16(%rax), %rax
 235 00b0 4889D6   		movq	%rdx, %rsi
 236 00b3 4889C7   		movq	%rax, %rdi
 237 00b6 E8000000 		call	mbedtls_mpi_zeroize
 237      00
 137:/home/xingli/share/1205tiny/network/dtls/mbedtls/mbedtls-2.16.2/library/bignum.c ****             mbedtls_free( X->p );
 238              		.loc 1 137 28
 239 00bb 488B45E8 		movq	-24(%rbp), %rax
 240 00bf 488B4010 		movq	16(%rax), %rax
 241              		.loc 1 137 13
 242 00c3 4889C7   		movq	%rax, %rdi
 243 00c6 E8000000 		call	mbedtls_free@PLT
 243      00
 244              	.L16:
 138:/home/xingli/share/1205tiny/network/dtls/mbedtls/mbedtls-2.16.2/library/bignum.c ****         }
 139:/home/xingli/share/1205tiny/network/dtls/mbedtls/mbedtls-2.16.2/library/bignum.c **** 
 140:/home/xingli/share/1205tiny/network/dtls/mbedtls/mbedtls-2.16.2/library/bignum.c ****         X->n = nblimbs;
 245              		.loc 1 140 14
 246 00cb 488B45E8 		movq	-24(%rbp), %rax
 247 00cf 488B55E0 		movq	-32(%rbp), %rdx
 248 00d3 48895008 		movq	%rdx, 8(%rax)
 141:/home/xingli/share/1205tiny/network/dtls/mbedtls/mbedtls-2.16.2/library/bignum.c ****         X->p = p;
 249              		.loc 1 141 14
 250 00d7 488B45E8 		movq	-24(%rbp), %rax
 251 00db 488B55F0 		movq	-16(%rbp), %rdx
 252 00df 48895010 		movq	%rdx, 16(%rax)
 253              	.L14:
 142:/home/xingli/share/1205tiny/network/dtls/mbedtls/mbedtls-2.16.2/library/bignum.c ****     }
 143:/home/xingli/share/1205tiny/network/dtls/mbedtls/mbedtls-2.16.2/library/bignum.c **** 
 144:/home/xingli/share/1205tiny/network/dtls/mbedtls/mbedtls-2.16.2/library/bignum.c ****     return( 0 );
 254              		.loc 1 144 11
 255 00e3 B8000000 		movl	$0, %eax
 255      00
 256              	.L13:
 145:/home/xingli/share/1205tiny/network/dtls/mbedtls/mbedtls-2.16.2/library/bignum.c **** }
 257              		.loc 1 145 1
 258 00e8 488B4DF8 		movq	-8(%rbp), %rcx
 259 00ec 6448330C 		xorq	%fs:40, %rcx
 259      25280000 
 259      00
 260 00f5 7405     		je	.L17
 261 00f7 E8000000 		call	__stack_chk_fail@PLT
 261      00
 262              	.L17:
 263 00fc C9       		leave
 264              	.LCFI11:
 265              		.cfi_def_cfa 7, 8
 266 00fd C3       		ret
 267              		.cfi_endproc
 268              	.LFE9:
 270              		.section	.text.mbedtls_mpi_shrink,"ax",@progbits
 271              		.globl	mbedtls_mpi_shrink
 273              	mbedtls_mpi_shrink:
 274              	.LFB10:
 146:/home/xingli/share/1205tiny/network/dtls/mbedtls/mbedtls-2.16.2/library/bignum.c **** 
GAS LISTING /tmp/ccFaOvob.s 			page 9


 147:/home/xingli/share/1205tiny/network/dtls/mbedtls/mbedtls-2.16.2/library/bignum.c **** /*
 148:/home/xingli/share/1205tiny/network/dtls/mbedtls/mbedtls-2.16.2/library/bignum.c ****  * Resize down as much as possible,
 149:/home/xingli/share/1205tiny/network/dtls/mbedtls/mbedtls-2.16.2/library/bignum.c ****  * while keeping at least the specified number of limbs
 150:/home/xingli/share/1205tiny/network/dtls/mbedtls/mbedtls-2.16.2/library/bignum.c ****  */
 151:/home/xingli/share/1205tiny/network/dtls/mbedtls/mbedtls-2.16.2/library/bignum.c **** int mbedtls_mpi_shrink( mbedtls_mpi *X, size_t nblimbs )
 152:/home/xingli/share/1205tiny/network/dtls/mbedtls/mbedtls-2.16.2/library/bignum.c **** {
 275              		.loc 1 152 1
 276              		.cfi_startproc
 277 0000 F30F1EFA 		endbr64
 278 0004 55       		pushq	%rbp
 279              	.LCFI12:
 280              		.cfi_def_cfa_offset 16
 281              		.cfi_offset 6, -16
 282 0005 4889E5   		movq	%rsp, %rbp
 283              	.LCFI13:
 284              		.cfi_def_cfa_register 6
 285 0008 4883EC30 		subq	$48, %rsp
 286 000c 48897DD8 		movq	%rdi, -40(%rbp)
 287 0010 488975D0 		movq	%rsi, -48(%rbp)
 288              		.loc 1 152 1
 289 0014 64488B04 		movq	%fs:40, %rax
 289      25280000 
 289      00
 290 001d 488945F8 		movq	%rax, -8(%rbp)
 291 0021 31C0     		xorl	%eax, %eax
 153:/home/xingli/share/1205tiny/network/dtls/mbedtls/mbedtls-2.16.2/library/bignum.c ****     mbedtls_mpi_uint *p;
 154:/home/xingli/share/1205tiny/network/dtls/mbedtls/mbedtls-2.16.2/library/bignum.c ****     size_t i;
 155:/home/xingli/share/1205tiny/network/dtls/mbedtls/mbedtls-2.16.2/library/bignum.c ****     MPI_VALIDATE_RET( X != NULL );
 156:/home/xingli/share/1205tiny/network/dtls/mbedtls/mbedtls-2.16.2/library/bignum.c **** 
 157:/home/xingli/share/1205tiny/network/dtls/mbedtls/mbedtls-2.16.2/library/bignum.c ****     if( nblimbs > MBEDTLS_MPI_MAX_LIMBS )
 292              		.loc 1 157 7
 293 0023 48817DD0 		cmpq	$10000, -48(%rbp)
 293      10270000 
 294 002b 760A     		jbe	.L19
 158:/home/xingli/share/1205tiny/network/dtls/mbedtls/mbedtls-2.16.2/library/bignum.c ****         return( MBEDTLS_ERR_MPI_ALLOC_FAILED );
 295              		.loc 1 158 15
 296 002d B8F0FFFF 		movl	$-16, %eax
 296      FF
 297 0032 E9140100 		jmp	.L20
 297      00
 298              	.L19:
 159:/home/xingli/share/1205tiny/network/dtls/mbedtls/mbedtls-2.16.2/library/bignum.c **** 
 160:/home/xingli/share/1205tiny/network/dtls/mbedtls/mbedtls-2.16.2/library/bignum.c ****     /* Actually resize up in this case */
 161:/home/xingli/share/1205tiny/network/dtls/mbedtls/mbedtls-2.16.2/library/bignum.c ****     if( X->n <= nblimbs )
 299              		.loc 1 161 10
 300 0037 488B45D8 		movq	-40(%rbp), %rax
 301 003b 488B4008 		movq	8(%rax), %rax
 302              		.loc 1 161 7
 303 003f 483945D0 		cmpq	%rax, -48(%rbp)
 304 0043 7218     		jb	.L21
 162:/home/xingli/share/1205tiny/network/dtls/mbedtls/mbedtls-2.16.2/library/bignum.c ****         return( mbedtls_mpi_grow( X, nblimbs ) );
 305              		.loc 1 162 17
 306 0045 488B55D0 		movq	-48(%rbp), %rdx
 307 0049 488B45D8 		movq	-40(%rbp), %rax
 308 004d 4889D6   		movq	%rdx, %rsi
 309 0050 4889C7   		movq	%rax, %rdi
 310 0053 E8000000 		call	mbedtls_mpi_grow
GAS LISTING /tmp/ccFaOvob.s 			page 10


 310      00
 311 0058 E9EE0000 		jmp	.L20
 311      00
 312              	.L21:
 163:/home/xingli/share/1205tiny/network/dtls/mbedtls/mbedtls-2.16.2/library/bignum.c **** 
 164:/home/xingli/share/1205tiny/network/dtls/mbedtls/mbedtls-2.16.2/library/bignum.c ****     for( i = X->n - 1; i > 0; i-- )
 313              		.loc 1 164 15
 314 005d 488B45D8 		movq	-40(%rbp), %rax
 315 0061 488B4008 		movq	8(%rax), %rax
 316              		.loc 1 164 12
 317 0065 4883E801 		subq	$1, %rax
 318 0069 488945E8 		movq	%rax, -24(%rbp)
 319              		.loc 1 164 5
 320 006d EB20     		jmp	.L22
 321              	.L25:
 165:/home/xingli/share/1205tiny/network/dtls/mbedtls/mbedtls-2.16.2/library/bignum.c ****         if( X->p[i] != 0 )
 322              		.loc 1 165 14
 323 006f 488B45D8 		movq	-40(%rbp), %rax
 324 0073 488B4010 		movq	16(%rax), %rax
 325              		.loc 1 165 17
 326 0077 488B55E8 		movq	-24(%rbp), %rdx
 327 007b 48C1E203 		salq	$3, %rdx
 328 007f 4801D0   		addq	%rdx, %rax
 329 0082 488B00   		movq	(%rax), %rax
 330              		.loc 1 165 11
 331 0085 4885C0   		testq	%rax, %rax
 332 0088 750E     		jne	.L30
 164:/home/xingli/share/1205tiny/network/dtls/mbedtls/mbedtls-2.16.2/library/bignum.c ****         if( X->p[i] != 0 )
 333              		.loc 1 164 32 discriminator 2
 334 008a 48836DE8 		subq	$1, -24(%rbp)
 334      01
 335              	.L22:
 164:/home/xingli/share/1205tiny/network/dtls/mbedtls/mbedtls-2.16.2/library/bignum.c ****         if( X->p[i] != 0 )
 336              		.loc 1 164 5 discriminator 1
 337 008f 48837DE8 		cmpq	$0, -24(%rbp)
 337      00
 338 0094 75D9     		jne	.L25
 339 0096 EB01     		jmp	.L24
 340              	.L30:
 166:/home/xingli/share/1205tiny/network/dtls/mbedtls/mbedtls-2.16.2/library/bignum.c ****             break;
 341              		.loc 1 166 13
 342 0098 90       		nop
 343              	.L24:
 167:/home/xingli/share/1205tiny/network/dtls/mbedtls/mbedtls-2.16.2/library/bignum.c ****     i++;
 344              		.loc 1 167 6
 345 0099 488345E8 		addq	$1, -24(%rbp)
 345      01
 168:/home/xingli/share/1205tiny/network/dtls/mbedtls/mbedtls-2.16.2/library/bignum.c **** 
 169:/home/xingli/share/1205tiny/network/dtls/mbedtls/mbedtls-2.16.2/library/bignum.c ****     if( i < nblimbs )
 346              		.loc 1 169 7
 347 009e 488B45E8 		movq	-24(%rbp), %rax
 348 00a2 483B45D0 		cmpq	-48(%rbp), %rax
 349 00a6 7308     		jnb	.L26
 170:/home/xingli/share/1205tiny/network/dtls/mbedtls/mbedtls-2.16.2/library/bignum.c ****         i = nblimbs;
 350              		.loc 1 170 11
 351 00a8 488B45D0 		movq	-48(%rbp), %rax
 352 00ac 488945E8 		movq	%rax, -24(%rbp)
GAS LISTING /tmp/ccFaOvob.s 			page 11


 353              	.L26:
 171:/home/xingli/share/1205tiny/network/dtls/mbedtls/mbedtls-2.16.2/library/bignum.c **** 
 172:/home/xingli/share/1205tiny/network/dtls/mbedtls/mbedtls-2.16.2/library/bignum.c ****     if( ( p = (mbedtls_mpi_uint*)mbedtls_calloc( i, ciL ) ) == NULL )
 354              		.loc 1 172 34
 355 00b0 488B45E8 		movq	-24(%rbp), %rax
 356 00b4 BE080000 		movl	$8, %esi
 356      00
 357 00b9 4889C7   		movq	%rax, %rdi
 358 00bc E8000000 		call	mbedtls_calloc@PLT
 358      00
 359 00c1 488945F0 		movq	%rax, -16(%rbp)
 360              		.loc 1 172 7
 361 00c5 48837DF0 		cmpq	$0, -16(%rbp)
 361      00
 362 00ca 7507     		jne	.L27
 173:/home/xingli/share/1205tiny/network/dtls/mbedtls/mbedtls-2.16.2/library/bignum.c ****         return( MBEDTLS_ERR_MPI_ALLOC_FAILED );
 363              		.loc 1 173 15
 364 00cc B8F0FFFF 		movl	$-16, %eax
 364      FF
 365 00d1 EB78     		jmp	.L20
 366              	.L27:
 174:/home/xingli/share/1205tiny/network/dtls/mbedtls/mbedtls-2.16.2/library/bignum.c **** 
 175:/home/xingli/share/1205tiny/network/dtls/mbedtls/mbedtls-2.16.2/library/bignum.c ****     if( X->p != NULL )
 367              		.loc 1 175 10
 368 00d3 488B45D8 		movq	-40(%rbp), %rax
 369 00d7 488B4010 		movq	16(%rax), %rax
 370              		.loc 1 175 7
 371 00db 4885C0   		testq	%rax, %rax
 372 00de 744E     		je	.L28
 176:/home/xingli/share/1205tiny/network/dtls/mbedtls/mbedtls-2.16.2/library/bignum.c ****     {
 177:/home/xingli/share/1205tiny/network/dtls/mbedtls/mbedtls-2.16.2/library/bignum.c ****         memcpy( p, X->p, i * ciL );
 373              		.loc 1 177 9
 374 00e0 488B45E8 		movq	-24(%rbp), %rax
 375 00e4 488D14C5 		leaq	0(,%rax,8), %rdx
 375      00000000 
 376              		.loc 1 177 21
 377 00ec 488B45D8 		movq	-40(%rbp), %rax
 378 00f0 488B4810 		movq	16(%rax), %rcx
 379              		.loc 1 177 9
 380 00f4 488B45F0 		movq	-16(%rbp), %rax
 381 00f8 4889CE   		movq	%rcx, %rsi
 382 00fb 4889C7   		movq	%rax, %rdi
 383 00fe E8000000 		call	memcpy@PLT
 383      00
 178:/home/xingli/share/1205tiny/network/dtls/mbedtls/mbedtls-2.16.2/library/bignum.c ****         mbedtls_mpi_zeroize( X->p, X->n );
 384              		.loc 1 178 9
 385 0103 488B45D8 		movq	-40(%rbp), %rax
 386 0107 488B5008 		movq	8(%rax), %rdx
 387 010b 488B45D8 		movq	-40(%rbp), %rax
 388 010f 488B4010 		movq	16(%rax), %rax
 389 0113 4889D6   		movq	%rdx, %rsi
 390 0116 4889C7   		movq	%rax, %rdi
 391 0119 E8000000 		call	mbedtls_mpi_zeroize
 391      00
 179:/home/xingli/share/1205tiny/network/dtls/mbedtls/mbedtls-2.16.2/library/bignum.c ****         mbedtls_free( X->p );
 392              		.loc 1 179 24
 393 011e 488B45D8 		movq	-40(%rbp), %rax
GAS LISTING /tmp/ccFaOvob.s 			page 12


 394 0122 488B4010 		movq	16(%rax), %rax
 395              		.loc 1 179 9
 396 0126 4889C7   		movq	%rax, %rdi
 397 0129 E8000000 		call	mbedtls_free@PLT
 397      00
 398              	.L28:
 180:/home/xingli/share/1205tiny/network/dtls/mbedtls/mbedtls-2.16.2/library/bignum.c ****     }
 181:/home/xingli/share/1205tiny/network/dtls/mbedtls/mbedtls-2.16.2/library/bignum.c **** 
 182:/home/xingli/share/1205tiny/network/dtls/mbedtls/mbedtls-2.16.2/library/bignum.c ****     X->n = i;
 399              		.loc 1 182 10
 400 012e 488B45D8 		movq	-40(%rbp), %rax
 401 0132 488B55E8 		movq	-24(%rbp), %rdx
 402 0136 48895008 		movq	%rdx, 8(%rax)
 183:/home/xingli/share/1205tiny/network/dtls/mbedtls/mbedtls-2.16.2/library/bignum.c ****     X->p = p;
 403              		.loc 1 183 10
 404 013a 488B45D8 		movq	-40(%rbp), %rax
 405 013e 488B55F0 		movq	-16(%rbp), %rdx
 406 0142 48895010 		movq	%rdx, 16(%rax)
 184:/home/xingli/share/1205tiny/network/dtls/mbedtls/mbedtls-2.16.2/library/bignum.c **** 
 185:/home/xingli/share/1205tiny/network/dtls/mbedtls/mbedtls-2.16.2/library/bignum.c ****     return( 0 );
 407              		.loc 1 185 11
 408 0146 B8000000 		movl	$0, %eax
 408      00
 409              	.L20:
 186:/home/xingli/share/1205tiny/network/dtls/mbedtls/mbedtls-2.16.2/library/bignum.c **** }
 410              		.loc 1 186 1
 411 014b 488B4DF8 		movq	-8(%rbp), %rcx
 412 014f 6448330C 		xorq	%fs:40, %rcx
 412      25280000 
 412      00
 413 0158 7405     		je	.L29
 414 015a E8000000 		call	__stack_chk_fail@PLT
 414      00
 415              	.L29:
 416 015f C9       		leave
 417              	.LCFI14:
 418              		.cfi_def_cfa 7, 8
 419 0160 C3       		ret
 420              		.cfi_endproc
 421              	.LFE10:
 423              		.section	.text.mbedtls_mpi_copy,"ax",@progbits
 424              		.globl	mbedtls_mpi_copy
 426              	mbedtls_mpi_copy:
 427              	.LFB11:
 187:/home/xingli/share/1205tiny/network/dtls/mbedtls/mbedtls-2.16.2/library/bignum.c **** 
 188:/home/xingli/share/1205tiny/network/dtls/mbedtls/mbedtls-2.16.2/library/bignum.c **** /*
 189:/home/xingli/share/1205tiny/network/dtls/mbedtls/mbedtls-2.16.2/library/bignum.c ****  * Copy the contents of Y into X
 190:/home/xingli/share/1205tiny/network/dtls/mbedtls/mbedtls-2.16.2/library/bignum.c ****  */
 191:/home/xingli/share/1205tiny/network/dtls/mbedtls/mbedtls-2.16.2/library/bignum.c **** int mbedtls_mpi_copy( mbedtls_mpi *X, const mbedtls_mpi *Y )
 192:/home/xingli/share/1205tiny/network/dtls/mbedtls/mbedtls-2.16.2/library/bignum.c **** {
 428              		.loc 1 192 1
 429              		.cfi_startproc
 430 0000 F30F1EFA 		endbr64
 431 0004 55       		pushq	%rbp
 432              	.LCFI15:
 433              		.cfi_def_cfa_offset 16
 434              		.cfi_offset 6, -16
GAS LISTING /tmp/ccFaOvob.s 			page 13


 435 0005 4889E5   		movq	%rsp, %rbp
 436              	.LCFI16:
 437              		.cfi_def_cfa_register 6
 438 0008 4883EC30 		subq	$48, %rsp
 439 000c 48897DD8 		movq	%rdi, -40(%rbp)
 440 0010 488975D0 		movq	%rsi, -48(%rbp)
 441              		.loc 1 192 1
 442 0014 64488B04 		movq	%fs:40, %rax
 442      25280000 
 442      00
 443 001d 488945F8 		movq	%rax, -8(%rbp)
 444 0021 31C0     		xorl	%eax, %eax
 193:/home/xingli/share/1205tiny/network/dtls/mbedtls/mbedtls-2.16.2/library/bignum.c ****     int ret = 0;
 445              		.loc 1 193 9
 446 0023 C745EC00 		movl	$0, -20(%rbp)
 446      000000
 194:/home/xingli/share/1205tiny/network/dtls/mbedtls/mbedtls-2.16.2/library/bignum.c ****     size_t i;
 195:/home/xingli/share/1205tiny/network/dtls/mbedtls/mbedtls-2.16.2/library/bignum.c ****     MPI_VALIDATE_RET( X != NULL );
 196:/home/xingli/share/1205tiny/network/dtls/mbedtls/mbedtls-2.16.2/library/bignum.c ****     MPI_VALIDATE_RET( Y != NULL );
 197:/home/xingli/share/1205tiny/network/dtls/mbedtls/mbedtls-2.16.2/library/bignum.c **** 
 198:/home/xingli/share/1205tiny/network/dtls/mbedtls/mbedtls-2.16.2/library/bignum.c ****     if( X == Y )
 447              		.loc 1 198 7
 448 002a 488B45D8 		movq	-40(%rbp), %rax
 449 002e 483B45D0 		cmpq	-48(%rbp), %rax
 450 0032 750A     		jne	.L32
 199:/home/xingli/share/1205tiny/network/dtls/mbedtls/mbedtls-2.16.2/library/bignum.c ****         return( 0 );
 451              		.loc 1 199 15
 452 0034 B8000000 		movl	$0, %eax
 452      00
 453 0039 E9FA0000 		jmp	.L33
 453      00
 454              	.L32:
 200:/home/xingli/share/1205tiny/network/dtls/mbedtls/mbedtls-2.16.2/library/bignum.c **** 
 201:/home/xingli/share/1205tiny/network/dtls/mbedtls/mbedtls-2.16.2/library/bignum.c ****     if( Y->p == NULL )
 455              		.loc 1 201 10
 456 003e 488B45D0 		movq	-48(%rbp), %rax
 457 0042 488B4010 		movq	16(%rax), %rax
 458              		.loc 1 201 7
 459 0046 4885C0   		testq	%rax, %rax
 460 0049 7516     		jne	.L34
 202:/home/xingli/share/1205tiny/network/dtls/mbedtls/mbedtls-2.16.2/library/bignum.c ****     {
 203:/home/xingli/share/1205tiny/network/dtls/mbedtls/mbedtls-2.16.2/library/bignum.c ****         mbedtls_mpi_free( X );
 461              		.loc 1 203 9
 462 004b 488B45D8 		movq	-40(%rbp), %rax
 463 004f 4889C7   		movq	%rax, %rdi
 464 0052 E8000000 		call	mbedtls_mpi_free
 464      00
 204:/home/xingli/share/1205tiny/network/dtls/mbedtls/mbedtls-2.16.2/library/bignum.c ****         return( 0 );
 465              		.loc 1 204 15
 466 0057 B8000000 		movl	$0, %eax
 466      00
 467 005c E9D70000 		jmp	.L33
 467      00
 468              	.L34:
 205:/home/xingli/share/1205tiny/network/dtls/mbedtls/mbedtls-2.16.2/library/bignum.c ****     }
 206:/home/xingli/share/1205tiny/network/dtls/mbedtls/mbedtls-2.16.2/library/bignum.c **** 
 207:/home/xingli/share/1205tiny/network/dtls/mbedtls/mbedtls-2.16.2/library/bignum.c ****     for( i = Y->n - 1; i > 0; i-- )
GAS LISTING /tmp/ccFaOvob.s 			page 14


 469              		.loc 1 207 15
 470 0061 488B45D0 		movq	-48(%rbp), %rax
 471 0065 488B4008 		movq	8(%rax), %rax
 472              		.loc 1 207 12
 473 0069 4883E801 		subq	$1, %rax
 474 006d 488945F0 		movq	%rax, -16(%rbp)
 475              		.loc 1 207 5
 476 0071 EB20     		jmp	.L35
 477              	.L38:
 208:/home/xingli/share/1205tiny/network/dtls/mbedtls/mbedtls-2.16.2/library/bignum.c ****         if( Y->p[i] != 0 )
 478              		.loc 1 208 14
 479 0073 488B45D0 		movq	-48(%rbp), %rax
 480 0077 488B4010 		movq	16(%rax), %rax
 481              		.loc 1 208 17
 482 007b 488B55F0 		movq	-16(%rbp), %rdx
 483 007f 48C1E203 		salq	$3, %rdx
 484 0083 4801D0   		addq	%rdx, %rax
 485 0086 488B00   		movq	(%rax), %rax
 486              		.loc 1 208 11
 487 0089 4885C0   		testq	%rax, %rax
 488 008c 750E     		jne	.L43
 207:/home/xingli/share/1205tiny/network/dtls/mbedtls/mbedtls-2.16.2/library/bignum.c ****         if( Y->p[i] != 0 )
 489              		.loc 1 207 32 discriminator 2
 490 008e 48836DF0 		subq	$1, -16(%rbp)
 490      01
 491              	.L35:
 207:/home/xingli/share/1205tiny/network/dtls/mbedtls/mbedtls-2.16.2/library/bignum.c ****         if( Y->p[i] != 0 )
 492              		.loc 1 207 5 discriminator 1
 493 0093 48837DF0 		cmpq	$0, -16(%rbp)
 493      00
 494 0098 75D9     		jne	.L38
 495 009a EB01     		jmp	.L37
 496              	.L43:
 209:/home/xingli/share/1205tiny/network/dtls/mbedtls/mbedtls-2.16.2/library/bignum.c ****             break;
 497              		.loc 1 209 13
 498 009c 90       		nop
 499              	.L37:
 210:/home/xingli/share/1205tiny/network/dtls/mbedtls/mbedtls-2.16.2/library/bignum.c ****     i++;
 500              		.loc 1 210 6
 501 009d 488345F0 		addq	$1, -16(%rbp)
 501      01
 211:/home/xingli/share/1205tiny/network/dtls/mbedtls/mbedtls-2.16.2/library/bignum.c **** 
 212:/home/xingli/share/1205tiny/network/dtls/mbedtls/mbedtls-2.16.2/library/bignum.c ****     X->s = Y->s;
 502              		.loc 1 212 13
 503 00a2 488B45D0 		movq	-48(%rbp), %rax
 504 00a6 8B10     		movl	(%rax), %edx
 505              		.loc 1 212 10
 506 00a8 488B45D8 		movq	-40(%rbp), %rax
 507 00ac 8910     		movl	%edx, (%rax)
 213:/home/xingli/share/1205tiny/network/dtls/mbedtls/mbedtls-2.16.2/library/bignum.c **** 
 214:/home/xingli/share/1205tiny/network/dtls/mbedtls/mbedtls-2.16.2/library/bignum.c ****     if( X->n < i )
 508              		.loc 1 214 10
 509 00ae 488B45D8 		movq	-40(%rbp), %rax
 510 00b2 488B4008 		movq	8(%rax), %rax
 511              		.loc 1 214 7
 512 00b6 483945F0 		cmpq	%rax, -16(%rbp)
 513 00ba 761E     		jbe	.L39
GAS LISTING /tmp/ccFaOvob.s 			page 15


 215:/home/xingli/share/1205tiny/network/dtls/mbedtls/mbedtls-2.16.2/library/bignum.c ****     {
 216:/home/xingli/share/1205tiny/network/dtls/mbedtls/mbedtls-2.16.2/library/bignum.c ****         MBEDTLS_MPI_CHK( mbedtls_mpi_grow( X, i ) );
 514              		.loc 1 216 9
 515 00bc 488B55F0 		movq	-16(%rbp), %rdx
 516 00c0 488B45D8 		movq	-40(%rbp), %rax
 517 00c4 4889D6   		movq	%rdx, %rsi
 518 00c7 4889C7   		movq	%rax, %rdi
 519 00ca E8000000 		call	mbedtls_mpi_grow
 519      00
 520 00cf 8945EC   		movl	%eax, -20(%rbp)
 521 00d2 837DEC00 		cmpl	$0, -20(%rbp)
 522 00d6 7436     		je	.L40
 523 00d8 EB5B     		jmp	.L41
 524              	.L39:
 217:/home/xingli/share/1205tiny/network/dtls/mbedtls/mbedtls-2.16.2/library/bignum.c ****     }
 218:/home/xingli/share/1205tiny/network/dtls/mbedtls/mbedtls-2.16.2/library/bignum.c ****     else
 219:/home/xingli/share/1205tiny/network/dtls/mbedtls/mbedtls-2.16.2/library/bignum.c ****     {
 220:/home/xingli/share/1205tiny/network/dtls/mbedtls/mbedtls-2.16.2/library/bignum.c ****         memset( X->p + i, 0, ( X->n - i ) * ciL );
 525              		.loc 1 220 33
 526 00da 488B45D8 		movq	-40(%rbp), %rax
 527 00de 488B4008 		movq	8(%rax), %rax
 528              		.loc 1 220 37
 529 00e2 482B45F0 		subq	-16(%rbp), %rax
 530              		.loc 1 220 9
 531 00e6 488D14C5 		leaq	0(,%rax,8), %rdx
 531      00000000 
 532              		.loc 1 220 18
 533 00ee 488B45D8 		movq	-40(%rbp), %rax
 534 00f2 488B4010 		movq	16(%rax), %rax
 535              		.loc 1 220 22
 536 00f6 488B4DF0 		movq	-16(%rbp), %rcx
 537 00fa 48C1E103 		salq	$3, %rcx
 538 00fe 4801C8   		addq	%rcx, %rax
 539              		.loc 1 220 9
 540 0101 BE000000 		movl	$0, %esi
 540      00
 541 0106 4889C7   		movq	%rax, %rdi
 542 0109 E8000000 		call	memset@PLT
 542      00
 543              	.L40:
 221:/home/xingli/share/1205tiny/network/dtls/mbedtls/mbedtls-2.16.2/library/bignum.c ****     }
 222:/home/xingli/share/1205tiny/network/dtls/mbedtls/mbedtls-2.16.2/library/bignum.c **** 
 223:/home/xingli/share/1205tiny/network/dtls/mbedtls/mbedtls-2.16.2/library/bignum.c ****     memcpy( X->p, Y->p, i * ciL );
 544              		.loc 1 223 5
 545 010e 488B45F0 		movq	-16(%rbp), %rax
 546 0112 488D14C5 		leaq	0(,%rax,8), %rdx
 546      00000000 
 547              		.loc 1 223 20
 548 011a 488B45D0 		movq	-48(%rbp), %rax
 549 011e 488B4810 		movq	16(%rax), %rcx
 550              		.loc 1 223 14
 551 0122 488B45D8 		movq	-40(%rbp), %rax
 552 0126 488B4010 		movq	16(%rax), %rax
 553              		.loc 1 223 5
 554 012a 4889CE   		movq	%rcx, %rsi
 555 012d 4889C7   		movq	%rax, %rdi
 556 0130 E8000000 		call	memcpy@PLT
GAS LISTING /tmp/ccFaOvob.s 			page 16


 556      00
 557              	.L41:
 224:/home/xingli/share/1205tiny/network/dtls/mbedtls/mbedtls-2.16.2/library/bignum.c **** 
 225:/home/xingli/share/1205tiny/network/dtls/mbedtls/mbedtls-2.16.2/library/bignum.c **** cleanup:
 226:/home/xingli/share/1205tiny/network/dtls/mbedtls/mbedtls-2.16.2/library/bignum.c **** 
 227:/home/xingli/share/1205tiny/network/dtls/mbedtls/mbedtls-2.16.2/library/bignum.c ****     return( ret );
 558              		.loc 1 227 11
 559 0135 8B45EC   		movl	-20(%rbp), %eax
 560              	.L33:
 228:/home/xingli/share/1205tiny/network/dtls/mbedtls/mbedtls-2.16.2/library/bignum.c **** }
 561              		.loc 1 228 1
 562 0138 488B75F8 		movq	-8(%rbp), %rsi
 563 013c 64483334 		xorq	%fs:40, %rsi
 563      25280000 
 563      00
 564 0145 7405     		je	.L42
 565 0147 E8000000 		call	__stack_chk_fail@PLT
 565      00
 566              	.L42:
 567 014c C9       		leave
 568              	.LCFI17:
 569              		.cfi_def_cfa 7, 8
 570 014d C3       		ret
 571              		.cfi_endproc
 572              	.LFE11:
 574              		.section	.text.mbedtls_mpi_swap,"ax",@progbits
 575              		.globl	mbedtls_mpi_swap
 577              	mbedtls_mpi_swap:
 578              	.LFB12:
 229:/home/xingli/share/1205tiny/network/dtls/mbedtls/mbedtls-2.16.2/library/bignum.c **** 
 230:/home/xingli/share/1205tiny/network/dtls/mbedtls/mbedtls-2.16.2/library/bignum.c **** /*
 231:/home/xingli/share/1205tiny/network/dtls/mbedtls/mbedtls-2.16.2/library/bignum.c ****  * Swap the contents of X and Y
 232:/home/xingli/share/1205tiny/network/dtls/mbedtls/mbedtls-2.16.2/library/bignum.c ****  */
 233:/home/xingli/share/1205tiny/network/dtls/mbedtls/mbedtls-2.16.2/library/bignum.c **** void mbedtls_mpi_swap( mbedtls_mpi *X, mbedtls_mpi *Y )
 234:/home/xingli/share/1205tiny/network/dtls/mbedtls/mbedtls-2.16.2/library/bignum.c **** {
 579              		.loc 1 234 1
 580              		.cfi_startproc
 581 0000 F30F1EFA 		endbr64
 582 0004 55       		pushq	%rbp
 583              	.LCFI18:
 584              		.cfi_def_cfa_offset 16
 585              		.cfi_offset 6, -16
 586 0005 4889E5   		movq	%rsp, %rbp
 587              	.LCFI19:
 588              		.cfi_def_cfa_register 6
 589 0008 4883EC30 		subq	$48, %rsp
 590 000c 48897DD8 		movq	%rdi, -40(%rbp)
 591 0010 488975D0 		movq	%rsi, -48(%rbp)
 592              		.loc 1 234 1
 593 0014 64488B04 		movq	%fs:40, %rax
 593      25280000 
 593      00
 594 001d 488945F8 		movq	%rax, -8(%rbp)
 595 0021 31C0     		xorl	%eax, %eax
 235:/home/xingli/share/1205tiny/network/dtls/mbedtls/mbedtls-2.16.2/library/bignum.c ****     mbedtls_mpi T;
 236:/home/xingli/share/1205tiny/network/dtls/mbedtls/mbedtls-2.16.2/library/bignum.c ****     MPI_VALIDATE( X != NULL );
 237:/home/xingli/share/1205tiny/network/dtls/mbedtls/mbedtls-2.16.2/library/bignum.c ****     MPI_VALIDATE( Y != NULL );
GAS LISTING /tmp/ccFaOvob.s 			page 17


 238:/home/xingli/share/1205tiny/network/dtls/mbedtls/mbedtls-2.16.2/library/bignum.c **** 
 239:/home/xingli/share/1205tiny/network/dtls/mbedtls/mbedtls-2.16.2/library/bignum.c ****     memcpy( &T,  X, sizeof( mbedtls_mpi ) );
 596              		.loc 1 239 5
 597 0023 488B4DD8 		movq	-40(%rbp), %rcx
 598 0027 488D45E0 		leaq	-32(%rbp), %rax
 599 002b BA180000 		movl	$24, %edx
 599      00
 600 0030 4889CE   		movq	%rcx, %rsi
 601 0033 4889C7   		movq	%rax, %rdi
 602 0036 E8000000 		call	memcpy@PLT
 602      00
 240:/home/xingli/share/1205tiny/network/dtls/mbedtls/mbedtls-2.16.2/library/bignum.c ****     memcpy(  X,  Y, sizeof( mbedtls_mpi ) );
 603              		.loc 1 240 5
 604 003b 488B4DD0 		movq	-48(%rbp), %rcx
 605 003f 488B45D8 		movq	-40(%rbp), %rax
 606 0043 BA180000 		movl	$24, %edx
 606      00
 607 0048 4889CE   		movq	%rcx, %rsi
 608 004b 4889C7   		movq	%rax, %rdi
 609 004e E8000000 		call	memcpy@PLT
 609      00
 241:/home/xingli/share/1205tiny/network/dtls/mbedtls/mbedtls-2.16.2/library/bignum.c ****     memcpy(  Y, &T, sizeof( mbedtls_mpi ) );
 610              		.loc 1 241 5
 611 0053 488D4DE0 		leaq	-32(%rbp), %rcx
 612 0057 488B45D0 		movq	-48(%rbp), %rax
 613 005b BA180000 		movl	$24, %edx
 613      00
 614 0060 4889CE   		movq	%rcx, %rsi
 615 0063 4889C7   		movq	%rax, %rdi
 616 0066 E8000000 		call	memcpy@PLT
 616      00
 242:/home/xingli/share/1205tiny/network/dtls/mbedtls/mbedtls-2.16.2/library/bignum.c **** }
 617              		.loc 1 242 1
 618 006b 90       		nop
 619 006c 488B45F8 		movq	-8(%rbp), %rax
 620 0070 64483304 		xorq	%fs:40, %rax
 620      25280000 
 620      00
 621 0079 7405     		je	.L45
 622 007b E8000000 		call	__stack_chk_fail@PLT
 622      00
 623              	.L45:
 624 0080 C9       		leave
 625              	.LCFI20:
 626              		.cfi_def_cfa 7, 8
 627 0081 C3       		ret
 628              		.cfi_endproc
 629              	.LFE12:
 631              		.section	.text.mbedtls_mpi_safe_cond_assign,"ax",@progbits
 632              		.globl	mbedtls_mpi_safe_cond_assign
 634              	mbedtls_mpi_safe_cond_assign:
 635              	.LFB13:
 243:/home/xingli/share/1205tiny/network/dtls/mbedtls/mbedtls-2.16.2/library/bignum.c **** 
 244:/home/xingli/share/1205tiny/network/dtls/mbedtls/mbedtls-2.16.2/library/bignum.c **** /*
 245:/home/xingli/share/1205tiny/network/dtls/mbedtls/mbedtls-2.16.2/library/bignum.c ****  * Conditionally assign X = Y, without leaking information
 246:/home/xingli/share/1205tiny/network/dtls/mbedtls/mbedtls-2.16.2/library/bignum.c ****  * about whether the assignment was made or not.
 247:/home/xingli/share/1205tiny/network/dtls/mbedtls/mbedtls-2.16.2/library/bignum.c ****  * (Leaking information about the respective sizes of X and Y is ok however.)
GAS LISTING /tmp/ccFaOvob.s 			page 18


 248:/home/xingli/share/1205tiny/network/dtls/mbedtls/mbedtls-2.16.2/library/bignum.c ****  */
 249:/home/xingli/share/1205tiny/network/dtls/mbedtls/mbedtls-2.16.2/library/bignum.c **** int mbedtls_mpi_safe_cond_assign( mbedtls_mpi *X, const mbedtls_mpi *Y, unsigned char assign )
 250:/home/xingli/share/1205tiny/network/dtls/mbedtls/mbedtls-2.16.2/library/bignum.c **** {
 636              		.loc 1 250 1
 637              		.cfi_startproc
 638 0000 F30F1EFA 		endbr64
 639 0004 55       		pushq	%rbp
 640              	.LCFI21:
 641              		.cfi_def_cfa_offset 16
 642              		.cfi_offset 6, -16
 643 0005 4889E5   		movq	%rsp, %rbp
 644              	.LCFI22:
 645              		.cfi_def_cfa_register 6
 646 0008 4883EC40 		subq	$64, %rsp
 647 000c 48897DD8 		movq	%rdi, -40(%rbp)
 648 0010 488975D0 		movq	%rsi, -48(%rbp)
 649 0014 89D0     		movl	%edx, %eax
 650 0016 8845CC   		movb	%al, -52(%rbp)
 651              		.loc 1 250 1
 652 0019 64488B04 		movq	%fs:40, %rax
 652      25280000 
 652      00
 653 0022 488945F8 		movq	%rax, -8(%rbp)
 654 0026 31C0     		xorl	%eax, %eax
 251:/home/xingli/share/1205tiny/network/dtls/mbedtls/mbedtls-2.16.2/library/bignum.c ****     int ret = 0;
 655              		.loc 1 251 9
 656 0028 C745EC00 		movl	$0, -20(%rbp)
 656      000000
 252:/home/xingli/share/1205tiny/network/dtls/mbedtls/mbedtls-2.16.2/library/bignum.c ****     size_t i;
 253:/home/xingli/share/1205tiny/network/dtls/mbedtls/mbedtls-2.16.2/library/bignum.c ****     MPI_VALIDATE_RET( X != NULL );
 254:/home/xingli/share/1205tiny/network/dtls/mbedtls/mbedtls-2.16.2/library/bignum.c ****     MPI_VALIDATE_RET( Y != NULL );
 255:/home/xingli/share/1205tiny/network/dtls/mbedtls/mbedtls-2.16.2/library/bignum.c **** 
 256:/home/xingli/share/1205tiny/network/dtls/mbedtls/mbedtls-2.16.2/library/bignum.c ****     /* make sure assign is 0 or 1 in a time-constant manner */
 257:/home/xingli/share/1205tiny/network/dtls/mbedtls/mbedtls-2.16.2/library/bignum.c ****     assign = (assign | (unsigned char)-assign) >> 7;
 657              		.loc 1 257 24
 658 002f 0FB645CC 		movzbl	-52(%rbp), %eax
 659 0033 F7D8     		negl	%eax
 660              		.loc 1 257 12
 661 0035 0A45CC   		orb	-52(%rbp), %al
 662 0038 C0E807   		shrb	$7, %al
 663 003b 8845CC   		movb	%al, -52(%rbp)
 258:/home/xingli/share/1205tiny/network/dtls/mbedtls/mbedtls-2.16.2/library/bignum.c **** 
 259:/home/xingli/share/1205tiny/network/dtls/mbedtls/mbedtls-2.16.2/library/bignum.c ****     MBEDTLS_MPI_CHK( mbedtls_mpi_grow( X, Y->n ) );
 664              		.loc 1 259 5
 665 003e 488B45D0 		movq	-48(%rbp), %rax
 666 0042 488B5008 		movq	8(%rax), %rdx
 667 0046 488B45D8 		movq	-40(%rbp), %rax
 668 004a 4889D6   		movq	%rdx, %rsi
 669 004d 4889C7   		movq	%rax, %rdi
 670 0050 E8000000 		call	mbedtls_mpi_grow
 670      00
 671 0055 8945EC   		movl	%eax, -20(%rbp)
 672 0058 837DEC00 		cmpl	$0, -20(%rbp)
 673 005c 0F850501 		jne	.L55
 673      0000
 260:/home/xingli/share/1205tiny/network/dtls/mbedtls/mbedtls-2.16.2/library/bignum.c **** 
 261:/home/xingli/share/1205tiny/network/dtls/mbedtls/mbedtls-2.16.2/library/bignum.c ****     X->s = X->s * ( 1 - assign ) + Y->s * assign;
GAS LISTING /tmp/ccFaOvob.s 			page 19


 674              		.loc 1 261 13
 675 0062 488B45D8 		movq	-40(%rbp), %rax
 676 0066 8B00     		movl	(%rax), %eax
 677              		.loc 1 261 23
 678 0068 0FB655CC 		movzbl	-52(%rbp), %edx
 679 006c B9010000 		movl	$1, %ecx
 679      00
 680 0071 29D1     		subl	%edx, %ecx
 681 0073 89CA     		movl	%ecx, %edx
 682              		.loc 1 261 17
 683 0075 0FAFD0   		imull	%eax, %edx
 684              		.loc 1 261 37
 685 0078 488B45D0 		movq	-48(%rbp), %rax
 686 007c 8B08     		movl	(%rax), %ecx
 687              		.loc 1 261 41
 688 007e 0FB645CC 		movzbl	-52(%rbp), %eax
 689 0082 0FAFC1   		imull	%ecx, %eax
 690              		.loc 1 261 34
 691 0085 01C2     		addl	%eax, %edx
 692              		.loc 1 261 10
 693 0087 488B45D8 		movq	-40(%rbp), %rax
 694 008b 8910     		movl	%edx, (%rax)
 262:/home/xingli/share/1205tiny/network/dtls/mbedtls/mbedtls-2.16.2/library/bignum.c **** 
 263:/home/xingli/share/1205tiny/network/dtls/mbedtls/mbedtls-2.16.2/library/bignum.c ****     for( i = 0; i < Y->n; i++ )
 695              		.loc 1 263 12
 696 008d 48C745F0 		movq	$0, -16(%rbp)
 696      00000000 
 697              		.loc 1 263 5
 698 0095 EB68     		jmp	.L49
 699              	.L50:
 264:/home/xingli/share/1205tiny/network/dtls/mbedtls/mbedtls-2.16.2/library/bignum.c ****         X->p[i] = X->p[i] * ( 1 - assign ) + Y->p[i] * assign;
 700              		.loc 1 264 20 discriminator 3
 701 0097 488B45D8 		movq	-40(%rbp), %rax
 702 009b 488B4010 		movq	16(%rax), %rax
 703              		.loc 1 264 23 discriminator 3
 704 009f 488B55F0 		movq	-16(%rbp), %rdx
 705 00a3 48C1E203 		salq	$3, %rdx
 706 00a7 4801D0   		addq	%rdx, %rax
 707 00aa 488B10   		movq	(%rax), %rdx
 708              		.loc 1 264 33 discriminator 3
 709 00ad 0FB645CC 		movzbl	-52(%rbp), %eax
 710 00b1 B9010000 		movl	$1, %ecx
 710      00
 711 00b6 29C1     		subl	%eax, %ecx
 712 00b8 89C8     		movl	%ecx, %eax
 713 00ba 4898     		cltq
 714              		.loc 1 264 27 discriminator 3
 715 00bc 4889D1   		movq	%rdx, %rcx
 716 00bf 480FAFC8 		imulq	%rax, %rcx
 717              		.loc 1 264 47 discriminator 3
 718 00c3 488B45D0 		movq	-48(%rbp), %rax
 719 00c7 488B4010 		movq	16(%rax), %rax
 720              		.loc 1 264 50 discriminator 3
 721 00cb 488B55F0 		movq	-16(%rbp), %rdx
 722 00cf 48C1E203 		salq	$3, %rdx
 723 00d3 4801D0   		addq	%rdx, %rax
 724 00d6 488B10   		movq	(%rax), %rdx
GAS LISTING /tmp/ccFaOvob.s 			page 20


 725              		.loc 1 264 54 discriminator 3
 726 00d9 0FB645CC 		movzbl	-52(%rbp), %eax
 727 00dd 480FAFD0 		imulq	%rax, %rdx
 728              		.loc 1 264 10 discriminator 3
 729 00e1 488B45D8 		movq	-40(%rbp), %rax
 730 00e5 488B4010 		movq	16(%rax), %rax
 731              		.loc 1 264 13 discriminator 3
 732 00e9 488B75F0 		movq	-16(%rbp), %rsi
 733 00ed 48C1E603 		salq	$3, %rsi
 734 00f1 4801F0   		addq	%rsi, %rax
 735              		.loc 1 264 44 discriminator 3
 736 00f4 4801CA   		addq	%rcx, %rdx
 737              		.loc 1 264 17 discriminator 3
 738 00f7 488910   		movq	%rdx, (%rax)
 263:/home/xingli/share/1205tiny/network/dtls/mbedtls/mbedtls-2.16.2/library/bignum.c ****         X->p[i] = X->p[i] * ( 1 - assign ) + Y->p[i] * assign;
 739              		.loc 1 263 28 discriminator 3
 740 00fa 488345F0 		addq	$1, -16(%rbp)
 740      01
 741              	.L49:
 263:/home/xingli/share/1205tiny/network/dtls/mbedtls/mbedtls-2.16.2/library/bignum.c ****         X->p[i] = X->p[i] * ( 1 - assign ) + Y->p[i] * assign;
 742              		.loc 1 263 22 discriminator 1
 743 00ff 488B45D0 		movq	-48(%rbp), %rax
 744 0103 488B4008 		movq	8(%rax), %rax
 263:/home/xingli/share/1205tiny/network/dtls/mbedtls/mbedtls-2.16.2/library/bignum.c ****         X->p[i] = X->p[i] * ( 1 - assign ) + Y->p[i] * assign;
 745              		.loc 1 263 5 discriminator 1
 746 0107 483945F0 		cmpq	%rax, -16(%rbp)
 747 010b 728A     		jb	.L50
 265:/home/xingli/share/1205tiny/network/dtls/mbedtls/mbedtls-2.16.2/library/bignum.c **** 
 266:/home/xingli/share/1205tiny/network/dtls/mbedtls/mbedtls-2.16.2/library/bignum.c ****     for( ; i < X->n; i++ )
 748              		.loc 1 266 5
 749 010d EB48     		jmp	.L51
 750              	.L52:
 267:/home/xingli/share/1205tiny/network/dtls/mbedtls/mbedtls-2.16.2/library/bignum.c ****         X->p[i] *= ( 1 - assign );
 751              		.loc 1 267 10 discriminator 2
 752 010f 488B45D8 		movq	-40(%rbp), %rax
 753 0113 488B4010 		movq	16(%rax), %rax
 754              		.loc 1 267 17 discriminator 2
 755 0117 488B55F0 		movq	-16(%rbp), %rdx
 756 011b 48C1E203 		salq	$3, %rdx
 757 011f 4801D0   		addq	%rdx, %rax
 758 0122 488B30   		movq	(%rax), %rsi
 759              		.loc 1 267 24 discriminator 2
 760 0125 0FB645CC 		movzbl	-52(%rbp), %eax
 761 0129 BA010000 		movl	$1, %edx
 761      00
 762 012e 29C2     		subl	%eax, %edx
 763 0130 89D0     		movl	%edx, %eax
 764 0132 4863C8   		movslq	%eax, %rcx
 765              		.loc 1 267 10 discriminator 2
 766 0135 488B45D8 		movq	-40(%rbp), %rax
 767 0139 488B4010 		movq	16(%rax), %rax
 768              		.loc 1 267 17 discriminator 2
 769 013d 488B55F0 		movq	-16(%rbp), %rdx
 770 0141 48C1E203 		salq	$3, %rdx
 771 0145 4801C2   		addq	%rax, %rdx
 772 0148 4889F0   		movq	%rsi, %rax
 773 014b 480FAFC1 		imulq	%rcx, %rax
GAS LISTING /tmp/ccFaOvob.s 			page 21


 774 014f 488902   		movq	%rax, (%rdx)
 266:/home/xingli/share/1205tiny/network/dtls/mbedtls/mbedtls-2.16.2/library/bignum.c ****         X->p[i] *= ( 1 - assign );
 775              		.loc 1 266 23 discriminator 2
 776 0152 488345F0 		addq	$1, -16(%rbp)
 776      01
 777              	.L51:
 266:/home/xingli/share/1205tiny/network/dtls/mbedtls/mbedtls-2.16.2/library/bignum.c ****         X->p[i] *= ( 1 - assign );
 778              		.loc 1 266 17 discriminator 1
 779 0157 488B45D8 		movq	-40(%rbp), %rax
 780 015b 488B4008 		movq	8(%rax), %rax
 266:/home/xingli/share/1205tiny/network/dtls/mbedtls/mbedtls-2.16.2/library/bignum.c ****         X->p[i] *= ( 1 - assign );
 781              		.loc 1 266 5 discriminator 1
 782 015f 483945F0 		cmpq	%rax, -16(%rbp)
 783 0163 72AA     		jb	.L52
 268:/home/xingli/share/1205tiny/network/dtls/mbedtls/mbedtls-2.16.2/library/bignum.c **** 
 269:/home/xingli/share/1205tiny/network/dtls/mbedtls/mbedtls-2.16.2/library/bignum.c **** cleanup:
 784              		.loc 1 269 1
 785 0165 EB01     		jmp	.L48
 786              	.L55:
 259:/home/xingli/share/1205tiny/network/dtls/mbedtls/mbedtls-2.16.2/library/bignum.c **** 
 787              		.loc 1 259 5
 788 0167 90       		nop
 789              	.L48:
 270:/home/xingli/share/1205tiny/network/dtls/mbedtls/mbedtls-2.16.2/library/bignum.c ****     return( ret );
 790              		.loc 1 270 11
 791 0168 8B45EC   		movl	-20(%rbp), %eax
 271:/home/xingli/share/1205tiny/network/dtls/mbedtls/mbedtls-2.16.2/library/bignum.c **** }
 792              		.loc 1 271 1
 793 016b 488B7DF8 		movq	-8(%rbp), %rdi
 794 016f 6448333C 		xorq	%fs:40, %rdi
 794      25280000 
 794      00
 795 0178 7405     		je	.L54
 796 017a E8000000 		call	__stack_chk_fail@PLT
 796      00
 797              	.L54:
 798 017f C9       		leave
 799              	.LCFI23:
 800              		.cfi_def_cfa 7, 8
 801 0180 C3       		ret
 802              		.cfi_endproc
 803              	.LFE13:
 805              		.section	.text.mbedtls_mpi_safe_cond_swap,"ax",@progbits
 806              		.globl	mbedtls_mpi_safe_cond_swap
 808              	mbedtls_mpi_safe_cond_swap:
 809              	.LFB14:
 272:/home/xingli/share/1205tiny/network/dtls/mbedtls/mbedtls-2.16.2/library/bignum.c **** 
 273:/home/xingli/share/1205tiny/network/dtls/mbedtls/mbedtls-2.16.2/library/bignum.c **** /*
 274:/home/xingli/share/1205tiny/network/dtls/mbedtls/mbedtls-2.16.2/library/bignum.c ****  * Conditionally swap X and Y, without leaking information
 275:/home/xingli/share/1205tiny/network/dtls/mbedtls/mbedtls-2.16.2/library/bignum.c ****  * about whether the swap was made or not.
 276:/home/xingli/share/1205tiny/network/dtls/mbedtls/mbedtls-2.16.2/library/bignum.c ****  * Here it is not ok to simply swap the pointers, which whould lead to
 277:/home/xingli/share/1205tiny/network/dtls/mbedtls/mbedtls-2.16.2/library/bignum.c ****  * different memory access patterns when X and Y are used afterwards.
 278:/home/xingli/share/1205tiny/network/dtls/mbedtls/mbedtls-2.16.2/library/bignum.c ****  */
 279:/home/xingli/share/1205tiny/network/dtls/mbedtls/mbedtls-2.16.2/library/bignum.c **** int mbedtls_mpi_safe_cond_swap( mbedtls_mpi *X, mbedtls_mpi *Y, unsigned char swap )
 280:/home/xingli/share/1205tiny/network/dtls/mbedtls/mbedtls-2.16.2/library/bignum.c **** {
 810              		.loc 1 280 1
 811              		.cfi_startproc
GAS LISTING /tmp/ccFaOvob.s 			page 22


 812 0000 F30F1EFA 		endbr64
 813 0004 55       		pushq	%rbp
 814              	.LCFI24:
 815              		.cfi_def_cfa_offset 16
 816              		.cfi_offset 6, -16
 817 0005 4889E5   		movq	%rsp, %rbp
 818              	.LCFI25:
 819              		.cfi_def_cfa_register 6
 820 0008 4883EC40 		subq	$64, %rsp
 821 000c 48897DD8 		movq	%rdi, -40(%rbp)
 822 0010 488975D0 		movq	%rsi, -48(%rbp)
 823 0014 89D0     		movl	%edx, %eax
 824 0016 8845CC   		movb	%al, -52(%rbp)
 825              		.loc 1 280 1
 826 0019 64488B04 		movq	%fs:40, %rax
 826      25280000 
 826      00
 827 0022 488945F8 		movq	%rax, -8(%rbp)
 828 0026 31C0     		xorl	%eax, %eax
 281:/home/xingli/share/1205tiny/network/dtls/mbedtls/mbedtls-2.16.2/library/bignum.c ****     int ret, s;
 282:/home/xingli/share/1205tiny/network/dtls/mbedtls/mbedtls-2.16.2/library/bignum.c ****     size_t i;
 283:/home/xingli/share/1205tiny/network/dtls/mbedtls/mbedtls-2.16.2/library/bignum.c ****     mbedtls_mpi_uint tmp;
 284:/home/xingli/share/1205tiny/network/dtls/mbedtls/mbedtls-2.16.2/library/bignum.c ****     MPI_VALIDATE_RET( X != NULL );
 285:/home/xingli/share/1205tiny/network/dtls/mbedtls/mbedtls-2.16.2/library/bignum.c ****     MPI_VALIDATE_RET( Y != NULL );
 286:/home/xingli/share/1205tiny/network/dtls/mbedtls/mbedtls-2.16.2/library/bignum.c **** 
 287:/home/xingli/share/1205tiny/network/dtls/mbedtls/mbedtls-2.16.2/library/bignum.c ****     if( X == Y )
 829              		.loc 1 287 7
 830 0028 488B45D8 		movq	-40(%rbp), %rax
 831 002c 483B45D0 		cmpq	-48(%rbp), %rax
 832 0030 750A     		jne	.L57
 288:/home/xingli/share/1205tiny/network/dtls/mbedtls/mbedtls-2.16.2/library/bignum.c ****         return( 0 );
 833              		.loc 1 288 15
 834 0032 B8000000 		movl	$0, %eax
 834      00
 835 0037 E9AC0100 		jmp	.L58
 835      00
 836              	.L57:
 289:/home/xingli/share/1205tiny/network/dtls/mbedtls/mbedtls-2.16.2/library/bignum.c **** 
 290:/home/xingli/share/1205tiny/network/dtls/mbedtls/mbedtls-2.16.2/library/bignum.c ****     /* make sure swap is 0 or 1 in a time-constant manner */
 291:/home/xingli/share/1205tiny/network/dtls/mbedtls/mbedtls-2.16.2/library/bignum.c ****     swap = (swap | (unsigned char)-swap) >> 7;
 837              		.loc 1 291 20
 838 003c 0FB645CC 		movzbl	-52(%rbp), %eax
 839 0040 F7D8     		negl	%eax
 840              		.loc 1 291 10
 841 0042 0A45CC   		orb	-52(%rbp), %al
 842 0045 C0E807   		shrb	$7, %al
 843 0048 8845CC   		movb	%al, -52(%rbp)
 292:/home/xingli/share/1205tiny/network/dtls/mbedtls/mbedtls-2.16.2/library/bignum.c **** 
 293:/home/xingli/share/1205tiny/network/dtls/mbedtls/mbedtls-2.16.2/library/bignum.c ****     MBEDTLS_MPI_CHK( mbedtls_mpi_grow( X, Y->n ) );
 844              		.loc 1 293 5
 845 004b 488B45D0 		movq	-48(%rbp), %rax
 846 004f 488B5008 		movq	8(%rax), %rdx
 847 0053 488B45D8 		movq	-40(%rbp), %rax
 848 0057 4889D6   		movq	%rdx, %rsi
 849 005a 4889C7   		movq	%rax, %rdi
 850 005d E8000000 		call	mbedtls_mpi_grow
 850      00
GAS LISTING /tmp/ccFaOvob.s 			page 23


 851 0062 8945E0   		movl	%eax, -32(%rbp)
 852 0065 837DE000 		cmpl	$0, -32(%rbp)
 853 0069 0F857201 		jne	.L65
 853      0000
 294:/home/xingli/share/1205tiny/network/dtls/mbedtls/mbedtls-2.16.2/library/bignum.c ****     MBEDTLS_MPI_CHK( mbedtls_mpi_grow( Y, X->n ) );
 854              		.loc 1 294 5
 855 006f 488B45D8 		movq	-40(%rbp), %rax
 856 0073 488B5008 		movq	8(%rax), %rdx
 857 0077 488B45D0 		movq	-48(%rbp), %rax
 858 007b 4889D6   		movq	%rdx, %rsi
 859 007e 4889C7   		movq	%rax, %rdi
 860 0081 E8000000 		call	mbedtls_mpi_grow
 860      00
 861 0086 8945E0   		movl	%eax, -32(%rbp)
 862 0089 837DE000 		cmpl	$0, -32(%rbp)
 863 008d 0F855101 		jne	.L66
 863      0000
 295:/home/xingli/share/1205tiny/network/dtls/mbedtls/mbedtls-2.16.2/library/bignum.c **** 
 296:/home/xingli/share/1205tiny/network/dtls/mbedtls/mbedtls-2.16.2/library/bignum.c ****     s = X->s;
 864              		.loc 1 296 7
 865 0093 488B45D8 		movq	-40(%rbp), %rax
 866 0097 8B00     		movl	(%rax), %eax
 867 0099 8945E4   		movl	%eax, -28(%rbp)
 297:/home/xingli/share/1205tiny/network/dtls/mbedtls/mbedtls-2.16.2/library/bignum.c ****     X->s = X->s * ( 1 - swap ) + Y->s * swap;
 868              		.loc 1 297 13
 869 009c 488B45D8 		movq	-40(%rbp), %rax
 870 00a0 8B00     		movl	(%rax), %eax
 871              		.loc 1 297 23
 872 00a2 0FB655CC 		movzbl	-52(%rbp), %edx
 873 00a6 B9010000 		movl	$1, %ecx
 873      00
 874 00ab 29D1     		subl	%edx, %ecx
 875 00ad 89CA     		movl	%ecx, %edx
 876              		.loc 1 297 17
 877 00af 0FAFD0   		imull	%eax, %edx
 878              		.loc 1 297 35
 879 00b2 488B45D0 		movq	-48(%rbp), %rax
 880 00b6 8B08     		movl	(%rax), %ecx
 881              		.loc 1 297 39
 882 00b8 0FB645CC 		movzbl	-52(%rbp), %eax
 883 00bc 0FAFC1   		imull	%ecx, %eax
 884              		.loc 1 297 32
 885 00bf 01C2     		addl	%eax, %edx
 886              		.loc 1 297 10
 887 00c1 488B45D8 		movq	-40(%rbp), %rax
 888 00c5 8910     		movl	%edx, (%rax)
 298:/home/xingli/share/1205tiny/network/dtls/mbedtls/mbedtls-2.16.2/library/bignum.c ****     Y->s = Y->s * ( 1 - swap ) +    s * swap;
 889              		.loc 1 298 13
 890 00c7 488B45D0 		movq	-48(%rbp), %rax
 891 00cb 8B00     		movl	(%rax), %eax
 892              		.loc 1 298 23
 893 00cd 0FB655CC 		movzbl	-52(%rbp), %edx
 894 00d1 B9010000 		movl	$1, %ecx
 894      00
 895 00d6 29D1     		subl	%edx, %ecx
 896 00d8 89CA     		movl	%ecx, %edx
 897              		.loc 1 298 17
GAS LISTING /tmp/ccFaOvob.s 			page 24


 898 00da 0FAFD0   		imull	%eax, %edx
 899              		.loc 1 298 39
 900 00dd 0FB645CC 		movzbl	-52(%rbp), %eax
 901 00e1 0FAF45E4 		imull	-28(%rbp), %eax
 902              		.loc 1 298 32
 903 00e5 01C2     		addl	%eax, %edx
 904              		.loc 1 298 10
 905 00e7 488B45D0 		movq	-48(%rbp), %rax
 906 00eb 8910     		movl	%edx, (%rax)
 299:/home/xingli/share/1205tiny/network/dtls/mbedtls/mbedtls-2.16.2/library/bignum.c **** 
 300:/home/xingli/share/1205tiny/network/dtls/mbedtls/mbedtls-2.16.2/library/bignum.c **** 
 301:/home/xingli/share/1205tiny/network/dtls/mbedtls/mbedtls-2.16.2/library/bignum.c ****     for( i = 0; i < X->n; i++ )
 907              		.loc 1 301 12
 908 00ed 48C745E8 		movq	$0, -24(%rbp)
 908      00000000 
 909              		.loc 1 301 5
 910 00f5 E9D30000 		jmp	.L62
 910      00
 911              	.L63:
 302:/home/xingli/share/1205tiny/network/dtls/mbedtls/mbedtls-2.16.2/library/bignum.c ****     {
 303:/home/xingli/share/1205tiny/network/dtls/mbedtls/mbedtls-2.16.2/library/bignum.c ****         tmp = X->p[i];
 912              		.loc 1 303 16 discriminator 3
 913 00fa 488B45D8 		movq	-40(%rbp), %rax
 914 00fe 488B4010 		movq	16(%rax), %rax
 915              		.loc 1 303 19 discriminator 3
 916 0102 488B55E8 		movq	-24(%rbp), %rdx
 917 0106 48C1E203 		salq	$3, %rdx
 918 010a 4801D0   		addq	%rdx, %rax
 919              		.loc 1 303 13 discriminator 3
 920 010d 488B00   		movq	(%rax), %rax
 921 0110 488945F0 		movq	%rax, -16(%rbp)
 304:/home/xingli/share/1205tiny/network/dtls/mbedtls/mbedtls-2.16.2/library/bignum.c ****         X->p[i] = X->p[i] * ( 1 - swap ) + Y->p[i] * swap;
 922              		.loc 1 304 20 discriminator 3
 923 0114 488B45D8 		movq	-40(%rbp), %rax
 924 0118 488B4010 		movq	16(%rax), %rax
 925              		.loc 1 304 23 discriminator 3
 926 011c 488B55E8 		movq	-24(%rbp), %rdx
 927 0120 48C1E203 		salq	$3, %rdx
 928 0124 4801D0   		addq	%rdx, %rax
 929 0127 488B10   		movq	(%rax), %rdx
 930              		.loc 1 304 33 discriminator 3
 931 012a 0FB645CC 		movzbl	-52(%rbp), %eax
 932 012e B9010000 		movl	$1, %ecx
 932      00
 933 0133 29C1     		subl	%eax, %ecx
 934 0135 89C8     		movl	%ecx, %eax
 935 0137 4898     		cltq
 936              		.loc 1 304 27 discriminator 3
 937 0139 4889D1   		movq	%rdx, %rcx
 938 013c 480FAFC8 		imulq	%rax, %rcx
 939              		.loc 1 304 45 discriminator 3
 940 0140 488B45D0 		movq	-48(%rbp), %rax
 941 0144 488B4010 		movq	16(%rax), %rax
 942              		.loc 1 304 48 discriminator 3
 943 0148 488B55E8 		movq	-24(%rbp), %rdx
 944 014c 48C1E203 		salq	$3, %rdx
 945 0150 4801D0   		addq	%rdx, %rax
GAS LISTING /tmp/ccFaOvob.s 			page 25


 946 0153 488B10   		movq	(%rax), %rdx
 947              		.loc 1 304 52 discriminator 3
 948 0156 0FB645CC 		movzbl	-52(%rbp), %eax
 949 015a 480FAFD0 		imulq	%rax, %rdx
 950              		.loc 1 304 10 discriminator 3
 951 015e 488B45D8 		movq	-40(%rbp), %rax
 952 0162 488B4010 		movq	16(%rax), %rax
 953              		.loc 1 304 13 discriminator 3
 954 0166 488B75E8 		movq	-24(%rbp), %rsi
 955 016a 48C1E603 		salq	$3, %rsi
 956 016e 4801F0   		addq	%rsi, %rax
 957              		.loc 1 304 42 discriminator 3
 958 0171 4801CA   		addq	%rcx, %rdx
 959              		.loc 1 304 17 discriminator 3
 960 0174 488910   		movq	%rdx, (%rax)
 305:/home/xingli/share/1205tiny/network/dtls/mbedtls/mbedtls-2.16.2/library/bignum.c ****         Y->p[i] = Y->p[i] * ( 1 - swap ) +     tmp * swap;
 961              		.loc 1 305 20 discriminator 3
 962 0177 488B45D0 		movq	-48(%rbp), %rax
 963 017b 488B4010 		movq	16(%rax), %rax
 964              		.loc 1 305 23 discriminator 3
 965 017f 488B55E8 		movq	-24(%rbp), %rdx
 966 0183 48C1E203 		salq	$3, %rdx
 967 0187 4801D0   		addq	%rdx, %rax
 968 018a 488B10   		movq	(%rax), %rdx
 969              		.loc 1 305 33 discriminator 3
 970 018d 0FB645CC 		movzbl	-52(%rbp), %eax
 971 0191 B9010000 		movl	$1, %ecx
 971      00
 972 0196 29C1     		subl	%eax, %ecx
 973 0198 89C8     		movl	%ecx, %eax
 974 019a 4898     		cltq
 975              		.loc 1 305 27 discriminator 3
 976 019c 4889D1   		movq	%rdx, %rcx
 977 019f 480FAFC8 		imulq	%rax, %rcx
 978              		.loc 1 305 52 discriminator 3
 979 01a3 0FB645CC 		movzbl	-52(%rbp), %eax
 980 01a7 480FAF45 		imulq	-16(%rbp), %rax
 980      F0
 981 01ac 4889C2   		movq	%rax, %rdx
 982              		.loc 1 305 10 discriminator 3
 983 01af 488B45D0 		movq	-48(%rbp), %rax
 984 01b3 488B4010 		movq	16(%rax), %rax
 985              		.loc 1 305 13 discriminator 3
 986 01b7 488B75E8 		movq	-24(%rbp), %rsi
 987 01bb 48C1E603 		salq	$3, %rsi
 988 01bf 4801F0   		addq	%rsi, %rax
 989              		.loc 1 305 42 discriminator 3
 990 01c2 4801CA   		addq	%rcx, %rdx
 991              		.loc 1 305 17 discriminator 3
 992 01c5 488910   		movq	%rdx, (%rax)
 301:/home/xingli/share/1205tiny/network/dtls/mbedtls/mbedtls-2.16.2/library/bignum.c ****     {
 993              		.loc 1 301 28 discriminator 3
 994 01c8 488345E8 		addq	$1, -24(%rbp)
 994      01
 995              	.L62:
 301:/home/xingli/share/1205tiny/network/dtls/mbedtls/mbedtls-2.16.2/library/bignum.c ****     {
 996              		.loc 1 301 22 discriminator 1
GAS LISTING /tmp/ccFaOvob.s 			page 26


 997 01cd 488B45D8 		movq	-40(%rbp), %rax
 998 01d1 488B4008 		movq	8(%rax), %rax
 301:/home/xingli/share/1205tiny/network/dtls/mbedtls/mbedtls-2.16.2/library/bignum.c ****     {
 999              		.loc 1 301 5 discriminator 1
 1000 01d5 483945E8 		cmpq	%rax, -24(%rbp)
 1001 01d9 0F821BFF 		jb	.L63
 1001      FFFF
 306:/home/xingli/share/1205tiny/network/dtls/mbedtls/mbedtls-2.16.2/library/bignum.c ****     }
 307:/home/xingli/share/1205tiny/network/dtls/mbedtls/mbedtls-2.16.2/library/bignum.c **** 
 308:/home/xingli/share/1205tiny/network/dtls/mbedtls/mbedtls-2.16.2/library/bignum.c **** cleanup:
 1002              		.loc 1 308 1
 1003 01df EB04     		jmp	.L60
 1004              	.L65:
 293:/home/xingli/share/1205tiny/network/dtls/mbedtls/mbedtls-2.16.2/library/bignum.c ****     MBEDTLS_MPI_CHK( mbedtls_mpi_grow( Y, X->n ) );
 1005              		.loc 1 293 5
 1006 01e1 90       		nop
 1007 01e2 EB01     		jmp	.L60
 1008              	.L66:
 294:/home/xingli/share/1205tiny/network/dtls/mbedtls/mbedtls-2.16.2/library/bignum.c **** 
 1009              		.loc 1 294 5
 1010 01e4 90       		nop
 1011              	.L60:
 309:/home/xingli/share/1205tiny/network/dtls/mbedtls/mbedtls-2.16.2/library/bignum.c ****     return( ret );
 1012              		.loc 1 309 11
 1013 01e5 8B45E0   		movl	-32(%rbp), %eax
 1014              	.L58:
 310:/home/xingli/share/1205tiny/network/dtls/mbedtls/mbedtls-2.16.2/library/bignum.c **** }
 1015              		.loc 1 310 1
 1016 01e8 488B7DF8 		movq	-8(%rbp), %rdi
 1017 01ec 6448333C 		xorq	%fs:40, %rdi
 1017      25280000 
 1017      00
 1018 01f5 7405     		je	.L64
 1019 01f7 E8000000 		call	__stack_chk_fail@PLT
 1019      00
 1020              	.L64:
 1021 01fc C9       		leave
 1022              	.LCFI26:
 1023              		.cfi_def_cfa 7, 8
 1024 01fd C3       		ret
 1025              		.cfi_endproc
 1026              	.LFE14:
 1028              		.section	.text.mbedtls_mpi_lset,"ax",@progbits
 1029              		.globl	mbedtls_mpi_lset
 1031              	mbedtls_mpi_lset:
 1032              	.LFB15:
 311:/home/xingli/share/1205tiny/network/dtls/mbedtls/mbedtls-2.16.2/library/bignum.c **** 
 312:/home/xingli/share/1205tiny/network/dtls/mbedtls/mbedtls-2.16.2/library/bignum.c **** /*
 313:/home/xingli/share/1205tiny/network/dtls/mbedtls/mbedtls-2.16.2/library/bignum.c ****  * Set value from integer
 314:/home/xingli/share/1205tiny/network/dtls/mbedtls/mbedtls-2.16.2/library/bignum.c ****  */
 315:/home/xingli/share/1205tiny/network/dtls/mbedtls/mbedtls-2.16.2/library/bignum.c **** int mbedtls_mpi_lset( mbedtls_mpi *X, mbedtls_mpi_sint z )
 316:/home/xingli/share/1205tiny/network/dtls/mbedtls/mbedtls-2.16.2/library/bignum.c **** {
 1033              		.loc 1 316 1
 1034              		.cfi_startproc
 1035 0000 F30F1EFA 		endbr64
 1036 0004 55       		pushq	%rbp
 1037              	.LCFI27:
GAS LISTING /tmp/ccFaOvob.s 			page 27


 1038              		.cfi_def_cfa_offset 16
 1039              		.cfi_offset 6, -16
 1040 0005 4889E5   		movq	%rsp, %rbp
 1041              	.LCFI28:
 1042              		.cfi_def_cfa_register 6
 1043 0008 4883EC20 		subq	$32, %rsp
 1044 000c 48897DE8 		movq	%rdi, -24(%rbp)
 1045 0010 488975E0 		movq	%rsi, -32(%rbp)
 1046              		.loc 1 316 1
 1047 0014 64488B04 		movq	%fs:40, %rax
 1047      25280000 
 1047      00
 1048 001d 488945F8 		movq	%rax, -8(%rbp)
 1049 0021 31C0     		xorl	%eax, %eax
 317:/home/xingli/share/1205tiny/network/dtls/mbedtls/mbedtls-2.16.2/library/bignum.c ****     int ret;
 318:/home/xingli/share/1205tiny/network/dtls/mbedtls/mbedtls-2.16.2/library/bignum.c ****     MPI_VALIDATE_RET( X != NULL );
 319:/home/xingli/share/1205tiny/network/dtls/mbedtls/mbedtls-2.16.2/library/bignum.c **** 
 320:/home/xingli/share/1205tiny/network/dtls/mbedtls/mbedtls-2.16.2/library/bignum.c ****     MBEDTLS_MPI_CHK( mbedtls_mpi_grow( X, 1 ) );
 1050              		.loc 1 320 5
 1051 0023 488B45E8 		movq	-24(%rbp), %rax
 1052 0027 BE010000 		movl	$1, %esi
 1052      00
 1053 002c 4889C7   		movq	%rax, %rdi
 1054 002f E8000000 		call	mbedtls_mpi_grow
 1054      00
 1055 0034 8945F4   		movl	%eax, -12(%rbp)
 1056 0037 837DF400 		cmpl	$0, -12(%rbp)
 1057 003b 755B     		jne	.L74
 321:/home/xingli/share/1205tiny/network/dtls/mbedtls/mbedtls-2.16.2/library/bignum.c ****     memset( X->p, 0, X->n * ciL );
 1058              		.loc 1 321 23
 1059 003d 488B45E8 		movq	-24(%rbp), %rax
 1060 0041 488B4008 		movq	8(%rax), %rax
 1061              		.loc 1 321 5
 1062 0045 488D14C5 		leaq	0(,%rax,8), %rdx
 1062      00000000 
 1063              		.loc 1 321 14
 1064 004d 488B45E8 		movq	-24(%rbp), %rax
 1065 0051 488B4010 		movq	16(%rax), %rax
 1066              		.loc 1 321 5
 1067 0055 BE000000 		movl	$0, %esi
 1067      00
 1068 005a 4889C7   		movq	%rax, %rdi
 1069 005d E8000000 		call	memset@PLT
 1069      00
 322:/home/xingli/share/1205tiny/network/dtls/mbedtls/mbedtls-2.16.2/library/bignum.c **** 
 323:/home/xingli/share/1205tiny/network/dtls/mbedtls/mbedtls-2.16.2/library/bignum.c ****     X->p[0] = ( z < 0 ) ? -z : z;
 1070              		.loc 1 323 30
 1071 0062 488B45E0 		movq	-32(%rbp), %rax
 1072 0066 4899     		cqto
 1073 0068 4889D0   		movq	%rdx, %rax
 1074 006b 483345E0 		xorq	-32(%rbp), %rax
 1075 006f 4829D0   		subq	%rdx, %rax
 1076              		.loc 1 323 6
 1077 0072 488B55E8 		movq	-24(%rbp), %rdx
 1078 0076 488B5210 		movq	16(%rdx), %rdx
 1079              		.loc 1 323 13
 1080 007a 488902   		movq	%rax, (%rdx)
GAS LISTING /tmp/ccFaOvob.s 			page 28


 324:/home/xingli/share/1205tiny/network/dtls/mbedtls/mbedtls-2.16.2/library/bignum.c ****     X->s    = ( z < 0 ) ? -1 : 1;
 1081              		.loc 1 324 30
 1082 007d 48837DE0 		cmpq	$0, -32(%rbp)
 1082      00
 1083 0082 7907     		jns	.L70
 1084              		.loc 1 324 30 is_stmt 0 discriminator 1
 1085 0084 BAFFFFFF 		movl	$-1, %edx
 1085      FF
 1086 0089 EB05     		jmp	.L71
 1087              	.L70:
 1088              		.loc 1 324 30 discriminator 2
 1089 008b BA010000 		movl	$1, %edx
 1089      00
 1090              	.L71:
 1091              		.loc 1 324 13 is_stmt 1 discriminator 4
 1092 0090 488B45E8 		movq	-24(%rbp), %rax
 1093 0094 8910     		movl	%edx, (%rax)
 1094 0096 EB01     		jmp	.L69
 1095              	.L74:
 320:/home/xingli/share/1205tiny/network/dtls/mbedtls/mbedtls-2.16.2/library/bignum.c ****     memset( X->p, 0, X->n * ciL );
 1096              		.loc 1 320 5
 1097 0098 90       		nop
 1098              	.L69:
 325:/home/xingli/share/1205tiny/network/dtls/mbedtls/mbedtls-2.16.2/library/bignum.c **** 
 326:/home/xingli/share/1205tiny/network/dtls/mbedtls/mbedtls-2.16.2/library/bignum.c **** cleanup:
 327:/home/xingli/share/1205tiny/network/dtls/mbedtls/mbedtls-2.16.2/library/bignum.c **** 
 328:/home/xingli/share/1205tiny/network/dtls/mbedtls/mbedtls-2.16.2/library/bignum.c ****     return( ret );
 1099              		.loc 1 328 11
 1100 0099 8B45F4   		movl	-12(%rbp), %eax
 329:/home/xingli/share/1205tiny/network/dtls/mbedtls/mbedtls-2.16.2/library/bignum.c **** }
 1101              		.loc 1 329 1
 1102 009c 488B4DF8 		movq	-8(%rbp), %rcx
 1103 00a0 6448330C 		xorq	%fs:40, %rcx
 1103      25280000 
 1103      00
 1104 00a9 7405     		je	.L73
 1105 00ab E8000000 		call	__stack_chk_fail@PLT
 1105      00
 1106              	.L73:
 1107 00b0 C9       		leave
 1108              	.LCFI29:
 1109              		.cfi_def_cfa 7, 8
 1110 00b1 C3       		ret
 1111              		.cfi_endproc
 1112              	.LFE15:
 1114              		.section	.text.mbedtls_mpi_get_bit,"ax",@progbits
 1115              		.globl	mbedtls_mpi_get_bit
 1117              	mbedtls_mpi_get_bit:
 1118              	.LFB16:
 330:/home/xingli/share/1205tiny/network/dtls/mbedtls/mbedtls-2.16.2/library/bignum.c **** 
 331:/home/xingli/share/1205tiny/network/dtls/mbedtls/mbedtls-2.16.2/library/bignum.c **** /*
 332:/home/xingli/share/1205tiny/network/dtls/mbedtls/mbedtls-2.16.2/library/bignum.c ****  * Get a specific bit
 333:/home/xingli/share/1205tiny/network/dtls/mbedtls/mbedtls-2.16.2/library/bignum.c ****  */
 334:/home/xingli/share/1205tiny/network/dtls/mbedtls/mbedtls-2.16.2/library/bignum.c **** int mbedtls_mpi_get_bit( const mbedtls_mpi *X, size_t pos )
 335:/home/xingli/share/1205tiny/network/dtls/mbedtls/mbedtls-2.16.2/library/bignum.c **** {
 1119              		.loc 1 335 1
 1120              		.cfi_startproc
GAS LISTING /tmp/ccFaOvob.s 			page 29


 1121 0000 F30F1EFA 		endbr64
 1122 0004 55       		pushq	%rbp
 1123              	.LCFI30:
 1124              		.cfi_def_cfa_offset 16
 1125              		.cfi_offset 6, -16
 1126 0005 4889E5   		movq	%rsp, %rbp
 1127              	.LCFI31:
 1128              		.cfi_def_cfa_register 6
 1129 0008 4883EC20 		subq	$32, %rsp
 1130 000c 48897DE8 		movq	%rdi, -24(%rbp)
 1131 0010 488975E0 		movq	%rsi, -32(%rbp)
 1132              		.loc 1 335 1
 1133 0014 64488B04 		movq	%fs:40, %rax
 1133      25280000 
 1133      00
 1134 001d 488945F8 		movq	%rax, -8(%rbp)
 1135 0021 31C0     		xorl	%eax, %eax
 336:/home/xingli/share/1205tiny/network/dtls/mbedtls/mbedtls-2.16.2/library/bignum.c ****     MPI_VALIDATE_RET( X != NULL );
 337:/home/xingli/share/1205tiny/network/dtls/mbedtls/mbedtls-2.16.2/library/bignum.c **** 
 338:/home/xingli/share/1205tiny/network/dtls/mbedtls/mbedtls-2.16.2/library/bignum.c ****     if( X->n * biL <= pos )
 1136              		.loc 1 338 10
 1137 0023 488B45E8 		movq	-24(%rbp), %rax
 1138 0027 488B4008 		movq	8(%rax), %rax
 1139              		.loc 1 338 14
 1140 002b 48C1E006 		salq	$6, %rax
 1141              		.loc 1 338 7
 1142 002f 483945E0 		cmpq	%rax, -32(%rbp)
 1143 0033 7207     		jb	.L76
 339:/home/xingli/share/1205tiny/network/dtls/mbedtls/mbedtls-2.16.2/library/bignum.c ****         return( 0 );
 1144              		.loc 1 339 15
 1145 0035 B8000000 		movl	$0, %eax
 1145      00
 1146 003a EB2C     		jmp	.L77
 1147              	.L76:
 340:/home/xingli/share/1205tiny/network/dtls/mbedtls/mbedtls-2.16.2/library/bignum.c **** 
 341:/home/xingli/share/1205tiny/network/dtls/mbedtls/mbedtls-2.16.2/library/bignum.c ****     return( ( X->p[pos / biL] >> ( pos % biL ) ) & 0x01 );
 1148              		.loc 1 341 16
 1149 003c 488B45E8 		movq	-24(%rbp), %rax
 1150 0040 488B4010 		movq	16(%rax), %rax
 1151              		.loc 1 341 24
 1152 0044 488B55E0 		movq	-32(%rbp), %rdx
 1153 0048 48C1EA06 		shrq	$6, %rdx
 1154              		.loc 1 341 19
 1155 004c 48C1E203 		salq	$3, %rdx
 1156 0050 4801D0   		addq	%rdx, %rax
 1157 0053 488B10   		movq	(%rax), %rdx
 1158              		.loc 1 341 40
 1159 0056 488B45E0 		movq	-32(%rbp), %rax
 1160 005a 83E03F   		andl	$63, %eax
 1161              		.loc 1 341 31
 1162 005d 89C1     		movl	%eax, %ecx
 1163 005f 48D3EA   		shrq	%cl, %rdx
 1164 0062 4889D0   		movq	%rdx, %rax
 1165              		.loc 1 341 50
 1166 0065 83E001   		andl	$1, %eax
 1167              	.L77:
 342:/home/xingli/share/1205tiny/network/dtls/mbedtls/mbedtls-2.16.2/library/bignum.c **** }
GAS LISTING /tmp/ccFaOvob.s 			page 30


 1168              		.loc 1 342 1
 1169 0068 488B75F8 		movq	-8(%rbp), %rsi
 1170 006c 64483334 		xorq	%fs:40, %rsi
 1170      25280000 
 1170      00
 1171 0075 7405     		je	.L78
 1172 0077 E8000000 		call	__stack_chk_fail@PLT
 1172      00
 1173              	.L78:
 1174 007c C9       		leave
 1175              	.LCFI32:
 1176              		.cfi_def_cfa 7, 8
 1177 007d C3       		ret
 1178              		.cfi_endproc
 1179              	.LFE16:
 1181              		.section	.text.mbedtls_mpi_set_bit,"ax",@progbits
 1182              		.globl	mbedtls_mpi_set_bit
 1184              	mbedtls_mpi_set_bit:
 1185              	.LFB17:
 343:/home/xingli/share/1205tiny/network/dtls/mbedtls/mbedtls-2.16.2/library/bignum.c **** 
 344:/home/xingli/share/1205tiny/network/dtls/mbedtls/mbedtls-2.16.2/library/bignum.c **** /* Get a specific byte, without range checks. */
 345:/home/xingli/share/1205tiny/network/dtls/mbedtls/mbedtls-2.16.2/library/bignum.c **** #define GET_BYTE( X, i )                                \
 346:/home/xingli/share/1205tiny/network/dtls/mbedtls/mbedtls-2.16.2/library/bignum.c ****     ( ( ( X )->p[( i ) / ciL] >> ( ( ( i ) % ciL ) * 8 ) ) & 0xff )
 347:/home/xingli/share/1205tiny/network/dtls/mbedtls/mbedtls-2.16.2/library/bignum.c **** 
 348:/home/xingli/share/1205tiny/network/dtls/mbedtls/mbedtls-2.16.2/library/bignum.c **** /*
 349:/home/xingli/share/1205tiny/network/dtls/mbedtls/mbedtls-2.16.2/library/bignum.c ****  * Set a bit to a specific value of 0 or 1
 350:/home/xingli/share/1205tiny/network/dtls/mbedtls/mbedtls-2.16.2/library/bignum.c ****  */
 351:/home/xingli/share/1205tiny/network/dtls/mbedtls/mbedtls-2.16.2/library/bignum.c **** int mbedtls_mpi_set_bit( mbedtls_mpi *X, size_t pos, unsigned char val )
 352:/home/xingli/share/1205tiny/network/dtls/mbedtls/mbedtls-2.16.2/library/bignum.c **** {
 1186              		.loc 1 352 1
 1187              		.cfi_startproc
 1188 0000 F30F1EFA 		endbr64
 1189 0004 55       		pushq	%rbp
 1190              	.LCFI33:
 1191              		.cfi_def_cfa_offset 16
 1192              		.cfi_offset 6, -16
 1193 0005 4889E5   		movq	%rsp, %rbp
 1194              	.LCFI34:
 1195              		.cfi_def_cfa_register 6
 1196 0008 4883EC40 		subq	$64, %rsp
 1197 000c 48897DD8 		movq	%rdi, -40(%rbp)
 1198 0010 488975D0 		movq	%rsi, -48(%rbp)
 1199 0014 89D0     		movl	%edx, %eax
 1200 0016 8845CC   		movb	%al, -52(%rbp)
 1201              		.loc 1 352 1
 1202 0019 64488B04 		movq	%fs:40, %rax
 1202      25280000 
 1202      00
 1203 0022 488945F8 		movq	%rax, -8(%rbp)
 1204 0026 31C0     		xorl	%eax, %eax
 353:/home/xingli/share/1205tiny/network/dtls/mbedtls/mbedtls-2.16.2/library/bignum.c ****     int ret = 0;
 1205              		.loc 1 353 9
 1206 0028 C745E400 		movl	$0, -28(%rbp)
 1206      000000
 354:/home/xingli/share/1205tiny/network/dtls/mbedtls/mbedtls-2.16.2/library/bignum.c ****     size_t off = pos / biL;
 1207              		.loc 1 354 12
 1208 002f 488B45D0 		movq	-48(%rbp), %rax
GAS LISTING /tmp/ccFaOvob.s 			page 31


 1209 0033 48C1E806 		shrq	$6, %rax
 1210 0037 488945E8 		movq	%rax, -24(%rbp)
 355:/home/xingli/share/1205tiny/network/dtls/mbedtls/mbedtls-2.16.2/library/bignum.c ****     size_t idx = pos % biL;
 1211              		.loc 1 355 12
 1212 003b 488B45D0 		movq	-48(%rbp), %rax
 1213 003f 83E03F   		andl	$63, %eax
 1214 0042 488945F0 		movq	%rax, -16(%rbp)
 356:/home/xingli/share/1205tiny/network/dtls/mbedtls/mbedtls-2.16.2/library/bignum.c ****     MPI_VALIDATE_RET( X != NULL );
 357:/home/xingli/share/1205tiny/network/dtls/mbedtls/mbedtls-2.16.2/library/bignum.c **** 
 358:/home/xingli/share/1205tiny/network/dtls/mbedtls/mbedtls-2.16.2/library/bignum.c ****     if( val != 0 && val != 1 )
 1215              		.loc 1 358 7
 1216 0046 807DCC00 		cmpb	$0, -52(%rbp)
 1217 004a 7410     		je	.L80
 1218              		.loc 1 358 18 discriminator 1
 1219 004c 807DCC01 		cmpb	$1, -52(%rbp)
 1220 0050 740A     		je	.L80
 359:/home/xingli/share/1205tiny/network/dtls/mbedtls/mbedtls-2.16.2/library/bignum.c ****         return( MBEDTLS_ERR_MPI_BAD_INPUT_DATA );
 1221              		.loc 1 359 15
 1222 0052 B8FCFFFF 		movl	$-4, %eax
 1222      FF
 1223 0057 E9CF0000 		jmp	.L81
 1223      00
 1224              	.L80:
 360:/home/xingli/share/1205tiny/network/dtls/mbedtls/mbedtls-2.16.2/library/bignum.c **** 
 361:/home/xingli/share/1205tiny/network/dtls/mbedtls/mbedtls-2.16.2/library/bignum.c ****     if( X->n * biL <= pos )
 1225              		.loc 1 361 10
 1226 005c 488B45D8 		movq	-40(%rbp), %rax
 1227 0060 488B4008 		movq	8(%rax), %rax
 1228              		.loc 1 361 14
 1229 0064 48C1E006 		salq	$6, %rax
 1230              		.loc 1 361 7
 1231 0068 483945D0 		cmpq	%rax, -48(%rbp)
 1232 006c 7234     		jb	.L82
 362:/home/xingli/share/1205tiny/network/dtls/mbedtls/mbedtls-2.16.2/library/bignum.c ****     {
 363:/home/xingli/share/1205tiny/network/dtls/mbedtls/mbedtls-2.16.2/library/bignum.c ****         if( val == 0 )
 1233              		.loc 1 363 11
 1234 006e 807DCC00 		cmpb	$0, -52(%rbp)
 1235 0072 750A     		jne	.L83
 364:/home/xingli/share/1205tiny/network/dtls/mbedtls/mbedtls-2.16.2/library/bignum.c ****             return( 0 );
 1236              		.loc 1 364 19
 1237 0074 B8000000 		movl	$0, %eax
 1237      00
 1238 0079 E9AD0000 		jmp	.L81
 1238      00
 1239              	.L83:
 365:/home/xingli/share/1205tiny/network/dtls/mbedtls/mbedtls-2.16.2/library/bignum.c **** 
 366:/home/xingli/share/1205tiny/network/dtls/mbedtls/mbedtls-2.16.2/library/bignum.c ****         MBEDTLS_MPI_CHK( mbedtls_mpi_grow( X, off + 1 ) );
 1240              		.loc 1 366 9
 1241 007e 488B45E8 		movq	-24(%rbp), %rax
 1242 0082 488D5001 		leaq	1(%rax), %rdx
 1243 0086 488B45D8 		movq	-40(%rbp), %rax
 1244 008a 4889D6   		movq	%rdx, %rsi
 1245 008d 4889C7   		movq	%rax, %rdi
 1246 0090 E8000000 		call	mbedtls_mpi_grow
 1246      00
 1247 0095 8945E4   		movl	%eax, -28(%rbp)
 1248 0098 837DE400 		cmpl	$0, -28(%rbp)
GAS LISTING /tmp/ccFaOvob.s 			page 32


 1249 009c 0F858500 		jne	.L86
 1249      0000
 1250              	.L82:
 367:/home/xingli/share/1205tiny/network/dtls/mbedtls/mbedtls-2.16.2/library/bignum.c ****     }
 368:/home/xingli/share/1205tiny/network/dtls/mbedtls/mbedtls-2.16.2/library/bignum.c **** 
 369:/home/xingli/share/1205tiny/network/dtls/mbedtls/mbedtls-2.16.2/library/bignum.c ****     X->p[off] &= ~( (mbedtls_mpi_uint) 0x01 << idx );
 1251              		.loc 1 369 6
 1252 00a2 488B45D8 		movq	-40(%rbp), %rax
 1253 00a6 488B4010 		movq	16(%rax), %rax
 1254              		.loc 1 369 15
 1255 00aa 488B55E8 		movq	-24(%rbp), %rdx
 1256 00ae 48C1E203 		salq	$3, %rdx
 1257 00b2 4801D0   		addq	%rdx, %rax
 1258 00b5 488B10   		movq	(%rax), %rdx
 1259              		.loc 1 369 45
 1260 00b8 488B45F0 		movq	-16(%rbp), %rax
 1261 00bc BE010000 		movl	$1, %esi
 1261      00
 1262 00c1 89C1     		movl	%eax, %ecx
 1263 00c3 48D3E6   		salq	%cl, %rsi
 1264 00c6 4889F0   		movq	%rsi, %rax
 1265              		.loc 1 369 18
 1266 00c9 48F7D0   		notq	%rax
 1267 00cc 4889C6   		movq	%rax, %rsi
 1268              		.loc 1 369 6
 1269 00cf 488B45D8 		movq	-40(%rbp), %rax
 1270 00d3 488B4010 		movq	16(%rax), %rax
 1271              		.loc 1 369 15
 1272 00d7 488B4DE8 		movq	-24(%rbp), %rcx
 1273 00db 48C1E103 		salq	$3, %rcx
 1274 00df 4801C8   		addq	%rcx, %rax
 1275 00e2 4821F2   		andq	%rsi, %rdx
 1276 00e5 488910   		movq	%rdx, (%rax)
 370:/home/xingli/share/1205tiny/network/dtls/mbedtls/mbedtls-2.16.2/library/bignum.c ****     X->p[off] |= (mbedtls_mpi_uint) val << idx;
 1277              		.loc 1 370 6
 1278 00e8 488B45D8 		movq	-40(%rbp), %rax
 1279 00ec 488B4010 		movq	16(%rax), %rax
 1280              		.loc 1 370 15
 1281 00f0 488B55E8 		movq	-24(%rbp), %rdx
 1282 00f4 48C1E203 		salq	$3, %rdx
 1283 00f8 4801D0   		addq	%rdx, %rax
 1284 00fb 488B10   		movq	(%rax), %rdx
 1285              		.loc 1 370 18
 1286 00fe 0FB645CC 		movzbl	-52(%rbp), %eax
 1287              		.loc 1 370 41
 1288 0102 488B4DF0 		movq	-16(%rbp), %rcx
 1289 0106 48D3E0   		salq	%cl, %rax
 1290 0109 4889C6   		movq	%rax, %rsi
 1291              		.loc 1 370 6
 1292 010c 488B45D8 		movq	-40(%rbp), %rax
 1293 0110 488B4010 		movq	16(%rax), %rax
 1294              		.loc 1 370 15
 1295 0114 488B4DE8 		movq	-24(%rbp), %rcx
 1296 0118 48C1E103 		salq	$3, %rcx
 1297 011c 4801C8   		addq	%rcx, %rax
 1298 011f 4809F2   		orq	%rsi, %rdx
 1299 0122 488910   		movq	%rdx, (%rax)
GAS LISTING /tmp/ccFaOvob.s 			page 33


 1300 0125 EB01     		jmp	.L84
 1301              	.L86:
 366:/home/xingli/share/1205tiny/network/dtls/mbedtls/mbedtls-2.16.2/library/bignum.c ****     }
 1302              		.loc 1 366 9
 1303 0127 90       		nop
 1304              	.L84:
 371:/home/xingli/share/1205tiny/network/dtls/mbedtls/mbedtls-2.16.2/library/bignum.c **** 
 372:/home/xingli/share/1205tiny/network/dtls/mbedtls/mbedtls-2.16.2/library/bignum.c **** cleanup:
 373:/home/xingli/share/1205tiny/network/dtls/mbedtls/mbedtls-2.16.2/library/bignum.c **** 
 374:/home/xingli/share/1205tiny/network/dtls/mbedtls/mbedtls-2.16.2/library/bignum.c ****     return( ret );
 1305              		.loc 1 374 11
 1306 0128 8B45E4   		movl	-28(%rbp), %eax
 1307              	.L81:
 375:/home/xingli/share/1205tiny/network/dtls/mbedtls/mbedtls-2.16.2/library/bignum.c **** }
 1308              		.loc 1 375 1
 1309 012b 488B7DF8 		movq	-8(%rbp), %rdi
 1310 012f 6448333C 		xorq	%fs:40, %rdi
 1310      25280000 
 1310      00
 1311 0138 7405     		je	.L85
 1312 013a E8000000 		call	__stack_chk_fail@PLT
 1312      00
 1313              	.L85:
 1314 013f C9       		leave
 1315              	.LCFI35:
 1316              		.cfi_def_cfa 7, 8
 1317 0140 C3       		ret
 1318              		.cfi_endproc
 1319              	.LFE17:
 1321              		.section	.text.mbedtls_mpi_lsb,"ax",@progbits
 1322              		.globl	mbedtls_mpi_lsb
 1324              	mbedtls_mpi_lsb:
 1325              	.LFB18:
 376:/home/xingli/share/1205tiny/network/dtls/mbedtls/mbedtls-2.16.2/library/bignum.c **** 
 377:/home/xingli/share/1205tiny/network/dtls/mbedtls/mbedtls-2.16.2/library/bignum.c **** /*
 378:/home/xingli/share/1205tiny/network/dtls/mbedtls/mbedtls-2.16.2/library/bignum.c ****  * Return the number of less significant zero-bits
 379:/home/xingli/share/1205tiny/network/dtls/mbedtls/mbedtls-2.16.2/library/bignum.c ****  */
 380:/home/xingli/share/1205tiny/network/dtls/mbedtls/mbedtls-2.16.2/library/bignum.c **** size_t mbedtls_mpi_lsb( const mbedtls_mpi *X )
 381:/home/xingli/share/1205tiny/network/dtls/mbedtls/mbedtls-2.16.2/library/bignum.c **** {
 1326              		.loc 1 381 1
 1327              		.cfi_startproc
 1328 0000 F30F1EFA 		endbr64
 1329 0004 55       		pushq	%rbp
 1330              	.LCFI36:
 1331              		.cfi_def_cfa_offset 16
 1332              		.cfi_offset 6, -16
 1333 0005 4889E5   		movq	%rsp, %rbp
 1334              	.LCFI37:
 1335              		.cfi_def_cfa_register 6
 1336 0008 4883EC30 		subq	$48, %rsp
 1337 000c 48897DD8 		movq	%rdi, -40(%rbp)
 1338              		.loc 1 381 1
 1339 0010 64488B04 		movq	%fs:40, %rax
 1339      25280000 
 1339      00
 1340 0019 488945F8 		movq	%rax, -8(%rbp)
 1341 001d 31C0     		xorl	%eax, %eax
GAS LISTING /tmp/ccFaOvob.s 			page 34


 382:/home/xingli/share/1205tiny/network/dtls/mbedtls/mbedtls-2.16.2/library/bignum.c ****     size_t i, j, count = 0;
 1342              		.loc 1 382 18
 1343 001f 48C745F0 		movq	$0, -16(%rbp)
 1343      00000000 
 383:/home/xingli/share/1205tiny/network/dtls/mbedtls/mbedtls-2.16.2/library/bignum.c ****     MBEDTLS_INTERNAL_VALIDATE_RET( X != NULL, 0 );
 384:/home/xingli/share/1205tiny/network/dtls/mbedtls/mbedtls-2.16.2/library/bignum.c **** 
 385:/home/xingli/share/1205tiny/network/dtls/mbedtls/mbedtls-2.16.2/library/bignum.c ****     for( i = 0; i < X->n; i++ )
 1344              		.loc 1 385 12
 1345 0027 48C745E0 		movq	$0, -32(%rbp)
 1345      00000000 
 1346              		.loc 1 385 5
 1347 002f EB4D     		jmp	.L88
 1348              	.L93:
 386:/home/xingli/share/1205tiny/network/dtls/mbedtls/mbedtls-2.16.2/library/bignum.c ****         for( j = 0; j < biL; j++, count++ )
 1349              		.loc 1 386 16
 1350 0031 48C745E8 		movq	$0, -24(%rbp)
 1350      00000000 
 1351              		.loc 1 386 9
 1352 0039 EB37     		jmp	.L89
 1353              	.L92:
 387:/home/xingli/share/1205tiny/network/dtls/mbedtls/mbedtls-2.16.2/library/bignum.c ****             if( ( ( X->p[i] >> j ) & 1 ) != 0 )
 1354              		.loc 1 387 22
 1355 003b 488B45D8 		movq	-40(%rbp), %rax
 1356 003f 488B4010 		movq	16(%rax), %rax
 1357              		.loc 1 387 25
 1358 0043 488B55E0 		movq	-32(%rbp), %rdx
 1359 0047 48C1E203 		salq	$3, %rdx
 1360 004b 4801D0   		addq	%rdx, %rax
 1361 004e 488B00   		movq	(%rax), %rax
 1362              		.loc 1 387 29
 1363 0051 488B55E8 		movq	-24(%rbp), %rdx
 1364 0055 89D1     		movl	%edx, %ecx
 1365 0057 48D3E8   		shrq	%cl, %rax
 1366              		.loc 1 387 36
 1367 005a 83E001   		andl	$1, %eax
 1368              		.loc 1 387 15
 1369 005d 4885C0   		testq	%rax, %rax
 1370 0060 7406     		je	.L90
 388:/home/xingli/share/1205tiny/network/dtls/mbedtls/mbedtls-2.16.2/library/bignum.c ****                 return( count );
 1371              		.loc 1 388 23
 1372 0062 488B45F0 		movq	-16(%rbp), %rax
 1373 0066 EB29     		jmp	.L91
 1374              	.L90:
 386:/home/xingli/share/1205tiny/network/dtls/mbedtls/mbedtls-2.16.2/library/bignum.c ****         for( j = 0; j < biL; j++, count++ )
 1375              		.loc 1 386 31 discriminator 2
 1376 0068 488345E8 		addq	$1, -24(%rbp)
 1376      01
 386:/home/xingli/share/1205tiny/network/dtls/mbedtls/mbedtls-2.16.2/library/bignum.c ****         for( j = 0; j < biL; j++, count++ )
 1377              		.loc 1 386 40 discriminator 2
 1378 006d 488345F0 		addq	$1, -16(%rbp)
 1378      01
 1379              	.L89:
 386:/home/xingli/share/1205tiny/network/dtls/mbedtls/mbedtls-2.16.2/library/bignum.c ****         for( j = 0; j < biL; j++, count++ )
 1380              		.loc 1 386 9 discriminator 1
 1381 0072 48837DE8 		cmpq	$63, -24(%rbp)
 1381      3F
 1382 0077 76C2     		jbe	.L92
GAS LISTING /tmp/ccFaOvob.s 			page 35


 385:/home/xingli/share/1205tiny/network/dtls/mbedtls/mbedtls-2.16.2/library/bignum.c ****         for( j = 0; j < biL; j++, count++ )
 1383              		.loc 1 385 28 discriminator 2
 1384 0079 488345E0 		addq	$1, -32(%rbp)
 1384      01
 1385              	.L88:
 385:/home/xingli/share/1205tiny/network/dtls/mbedtls/mbedtls-2.16.2/library/bignum.c ****         for( j = 0; j < biL; j++, count++ )
 1386              		.loc 1 385 22 discriminator 1
 1387 007e 488B45D8 		movq	-40(%rbp), %rax
 1388 0082 488B4008 		movq	8(%rax), %rax
 385:/home/xingli/share/1205tiny/network/dtls/mbedtls/mbedtls-2.16.2/library/bignum.c ****         for( j = 0; j < biL; j++, count++ )
 1389              		.loc 1 385 5 discriminator 1
 1390 0086 483945E0 		cmpq	%rax, -32(%rbp)
 1391 008a 72A5     		jb	.L93
 389:/home/xingli/share/1205tiny/network/dtls/mbedtls/mbedtls-2.16.2/library/bignum.c **** 
 390:/home/xingli/share/1205tiny/network/dtls/mbedtls/mbedtls-2.16.2/library/bignum.c ****     return( 0 );
 1392              		.loc 1 390 11
 1393 008c B8000000 		movl	$0, %eax
 1393      00
 1394              	.L91:
 391:/home/xingli/share/1205tiny/network/dtls/mbedtls/mbedtls-2.16.2/library/bignum.c **** }
 1395              		.loc 1 391 1
 1396 0091 488B75F8 		movq	-8(%rbp), %rsi
 1397 0095 64483334 		xorq	%fs:40, %rsi
 1397      25280000 
 1397      00
 1398 009e 7405     		je	.L94
 1399 00a0 E8000000 		call	__stack_chk_fail@PLT
 1399      00
 1400              	.L94:
 1401 00a5 C9       		leave
 1402              	.LCFI38:
 1403              		.cfi_def_cfa 7, 8
 1404 00a6 C3       		ret
 1405              		.cfi_endproc
 1406              	.LFE18:
 1408              		.section	.text.mbedtls_clz,"ax",@progbits
 1410              	mbedtls_clz:
 1411              	.LFB19:
 392:/home/xingli/share/1205tiny/network/dtls/mbedtls/mbedtls-2.16.2/library/bignum.c **** 
 393:/home/xingli/share/1205tiny/network/dtls/mbedtls/mbedtls-2.16.2/library/bignum.c **** /*
 394:/home/xingli/share/1205tiny/network/dtls/mbedtls/mbedtls-2.16.2/library/bignum.c ****  * Count leading zero bits in a given integer
 395:/home/xingli/share/1205tiny/network/dtls/mbedtls/mbedtls-2.16.2/library/bignum.c ****  */
 396:/home/xingli/share/1205tiny/network/dtls/mbedtls/mbedtls-2.16.2/library/bignum.c **** static size_t mbedtls_clz( const mbedtls_mpi_uint x )
 397:/home/xingli/share/1205tiny/network/dtls/mbedtls/mbedtls-2.16.2/library/bignum.c **** {
 1412              		.loc 1 397 1
 1413              		.cfi_startproc
 1414 0000 F30F1EFA 		endbr64
 1415 0004 55       		pushq	%rbp
 1416              	.LCFI39:
 1417              		.cfi_def_cfa_offset 16
 1418              		.cfi_offset 6, -16
 1419 0005 4889E5   		movq	%rsp, %rbp
 1420              	.LCFI40:
 1421              		.cfi_def_cfa_register 6
 1422 0008 4883EC30 		subq	$48, %rsp
 1423 000c 48897DD8 		movq	%rdi, -40(%rbp)
 1424              		.loc 1 397 1
GAS LISTING /tmp/ccFaOvob.s 			page 36


 1425 0010 64488B04 		movq	%fs:40, %rax
 1425      25280000 
 1425      00
 1426 0019 488945F8 		movq	%rax, -8(%rbp)
 1427 001d 31C0     		xorl	%eax, %eax
 398:/home/xingli/share/1205tiny/network/dtls/mbedtls/mbedtls-2.16.2/library/bignum.c ****     size_t j;
 399:/home/xingli/share/1205tiny/network/dtls/mbedtls/mbedtls-2.16.2/library/bignum.c ****     mbedtls_mpi_uint mask = (mbedtls_mpi_uint) 1 << (biL - 1);
 1428              		.loc 1 399 22
 1429 001f 48B80000 		movabsq	$-9223372036854775808, %rax
 1429      00000000 
 1429      0080
 1430 0029 488945F0 		movq	%rax, -16(%rbp)
 400:/home/xingli/share/1205tiny/network/dtls/mbedtls/mbedtls-2.16.2/library/bignum.c **** 
 401:/home/xingli/share/1205tiny/network/dtls/mbedtls/mbedtls-2.16.2/library/bignum.c ****     for( j = 0; j < biL; j++ )
 1431              		.loc 1 401 12
 1432 002d 48C745E8 		movq	$0, -24(%rbp)
 1432      00000000 
 1433              		.loc 1 401 5
 1434 0035 EB16     		jmp	.L96
 1435              	.L99:
 402:/home/xingli/share/1205tiny/network/dtls/mbedtls/mbedtls-2.16.2/library/bignum.c ****     {
 403:/home/xingli/share/1205tiny/network/dtls/mbedtls/mbedtls-2.16.2/library/bignum.c ****         if( x & mask ) break;
 1436              		.loc 1 403 15
 1437 0037 488B45D8 		movq	-40(%rbp), %rax
 1438 003b 482345F0 		andq	-16(%rbp), %rax
 1439              		.loc 1 403 11
 1440 003f 4885C0   		testq	%rax, %rax
 1441 0042 7512     		jne	.L102
 404:/home/xingli/share/1205tiny/network/dtls/mbedtls/mbedtls-2.16.2/library/bignum.c **** 
 405:/home/xingli/share/1205tiny/network/dtls/mbedtls/mbedtls-2.16.2/library/bignum.c ****         mask >>= 1;
 1442              		.loc 1 405 14 discriminator 2
 1443 0044 48D16DF0 		shrq	-16(%rbp)
 401:/home/xingli/share/1205tiny/network/dtls/mbedtls/mbedtls-2.16.2/library/bignum.c ****     {
 1444              		.loc 1 401 27 discriminator 2
 1445 0048 488345E8 		addq	$1, -24(%rbp)
 1445      01
 1446              	.L96:
 401:/home/xingli/share/1205tiny/network/dtls/mbedtls/mbedtls-2.16.2/library/bignum.c ****     {
 1447              		.loc 1 401 5 discriminator 1
 1448 004d 48837DE8 		cmpq	$63, -24(%rbp)
 1448      3F
 1449 0052 76E3     		jbe	.L99
 1450 0054 EB01     		jmp	.L98
 1451              	.L102:
 403:/home/xingli/share/1205tiny/network/dtls/mbedtls/mbedtls-2.16.2/library/bignum.c **** 
 1452              		.loc 1 403 9
 1453 0056 90       		nop
 1454              	.L98:
 406:/home/xingli/share/1205tiny/network/dtls/mbedtls/mbedtls-2.16.2/library/bignum.c ****     }
 407:/home/xingli/share/1205tiny/network/dtls/mbedtls/mbedtls-2.16.2/library/bignum.c **** 
 408:/home/xingli/share/1205tiny/network/dtls/mbedtls/mbedtls-2.16.2/library/bignum.c ****     return j;
 1455              		.loc 1 408 12
 1456 0057 488B45E8 		movq	-24(%rbp), %rax
 409:/home/xingli/share/1205tiny/network/dtls/mbedtls/mbedtls-2.16.2/library/bignum.c **** }
 1457              		.loc 1 409 1
 1458 005b 488B55F8 		movq	-8(%rbp), %rdx
 1459 005f 64483314 		xorq	%fs:40, %rdx
GAS LISTING /tmp/ccFaOvob.s 			page 37


 1459      25280000 
 1459      00
 1460 0068 7405     		je	.L101
 1461 006a E8000000 		call	__stack_chk_fail@PLT
 1461      00
 1462              	.L101:
 1463 006f C9       		leave
 1464              	.LCFI41:
 1465              		.cfi_def_cfa 7, 8
 1466 0070 C3       		ret
 1467              		.cfi_endproc
 1468              	.LFE19:
 1470              		.section	.text.mbedtls_mpi_bitlen,"ax",@progbits
 1471              		.globl	mbedtls_mpi_bitlen
 1473              	mbedtls_mpi_bitlen:
 1474              	.LFB20:
 410:/home/xingli/share/1205tiny/network/dtls/mbedtls/mbedtls-2.16.2/library/bignum.c **** 
 411:/home/xingli/share/1205tiny/network/dtls/mbedtls/mbedtls-2.16.2/library/bignum.c **** /*
 412:/home/xingli/share/1205tiny/network/dtls/mbedtls/mbedtls-2.16.2/library/bignum.c ****  * Return the number of bits
 413:/home/xingli/share/1205tiny/network/dtls/mbedtls/mbedtls-2.16.2/library/bignum.c ****  */
 414:/home/xingli/share/1205tiny/network/dtls/mbedtls/mbedtls-2.16.2/library/bignum.c **** size_t mbedtls_mpi_bitlen( const mbedtls_mpi *X )
 415:/home/xingli/share/1205tiny/network/dtls/mbedtls/mbedtls-2.16.2/library/bignum.c **** {
 1475              		.loc 1 415 1
 1476              		.cfi_startproc
 1477 0000 F30F1EFA 		endbr64
 1478 0004 55       		pushq	%rbp
 1479              	.LCFI42:
 1480              		.cfi_def_cfa_offset 16
 1481              		.cfi_offset 6, -16
 1482 0005 4889E5   		movq	%rsp, %rbp
 1483              	.LCFI43:
 1484              		.cfi_def_cfa_register 6
 1485 0008 4883EC30 		subq	$48, %rsp
 1486 000c 48897DD8 		movq	%rdi, -40(%rbp)
 1487              		.loc 1 415 1
 1488 0010 64488B04 		movq	%fs:40, %rax
 1488      25280000 
 1488      00
 1489 0019 488945F8 		movq	%rax, -8(%rbp)
 1490 001d 31C0     		xorl	%eax, %eax
 416:/home/xingli/share/1205tiny/network/dtls/mbedtls/mbedtls-2.16.2/library/bignum.c ****     size_t i, j;
 417:/home/xingli/share/1205tiny/network/dtls/mbedtls/mbedtls-2.16.2/library/bignum.c **** 
 418:/home/xingli/share/1205tiny/network/dtls/mbedtls/mbedtls-2.16.2/library/bignum.c ****     if( X->n == 0 )
 1491              		.loc 1 418 10
 1492 001f 488B45D8 		movq	-40(%rbp), %rax
 1493 0023 488B4008 		movq	8(%rax), %rax
 1494              		.loc 1 418 7
 1495 0027 4885C0   		testq	%rax, %rax
 1496 002a 7507     		jne	.L104
 419:/home/xingli/share/1205tiny/network/dtls/mbedtls/mbedtls-2.16.2/library/bignum.c ****         return( 0 );
 1497              		.loc 1 419 15
 1498 002c B8000000 		movl	$0, %eax
 1498      00
 1499 0031 EB7B     		jmp	.L105
 1500              	.L104:
 420:/home/xingli/share/1205tiny/network/dtls/mbedtls/mbedtls-2.16.2/library/bignum.c **** 
 421:/home/xingli/share/1205tiny/network/dtls/mbedtls/mbedtls-2.16.2/library/bignum.c ****     for( i = X->n - 1; i > 0; i-- )
GAS LISTING /tmp/ccFaOvob.s 			page 38


 1501              		.loc 1 421 15
 1502 0033 488B45D8 		movq	-40(%rbp), %rax
 1503 0037 488B4008 		movq	8(%rax), %rax
 1504              		.loc 1 421 12
 1505 003b 4883E801 		subq	$1, %rax
 1506 003f 488945E8 		movq	%rax, -24(%rbp)
 1507              		.loc 1 421 5
 1508 0043 EB20     		jmp	.L106
 1509              	.L109:
 422:/home/xingli/share/1205tiny/network/dtls/mbedtls/mbedtls-2.16.2/library/bignum.c ****         if( X->p[i] != 0 )
 1510              		.loc 1 422 14
 1511 0045 488B45D8 		movq	-40(%rbp), %rax
 1512 0049 488B4010 		movq	16(%rax), %rax
 1513              		.loc 1 422 17
 1514 004d 488B55E8 		movq	-24(%rbp), %rdx
 1515 0051 48C1E203 		salq	$3, %rdx
 1516 0055 4801D0   		addq	%rdx, %rax
 1517 0058 488B00   		movq	(%rax), %rax
 1518              		.loc 1 422 11
 1519 005b 4885C0   		testq	%rax, %rax
 1520 005e 750E     		jne	.L111
 421:/home/xingli/share/1205tiny/network/dtls/mbedtls/mbedtls-2.16.2/library/bignum.c ****         if( X->p[i] != 0 )
 1521              		.loc 1 421 32 discriminator 2
 1522 0060 48836DE8 		subq	$1, -24(%rbp)
 1522      01
 1523              	.L106:
 421:/home/xingli/share/1205tiny/network/dtls/mbedtls/mbedtls-2.16.2/library/bignum.c ****         if( X->p[i] != 0 )
 1524              		.loc 1 421 5 discriminator 1
 1525 0065 48837DE8 		cmpq	$0, -24(%rbp)
 1525      00
 1526 006a 75D9     		jne	.L109
 1527 006c EB01     		jmp	.L108
 1528              	.L111:
 423:/home/xingli/share/1205tiny/network/dtls/mbedtls/mbedtls-2.16.2/library/bignum.c ****             break;
 1529              		.loc 1 423 13
 1530 006e 90       		nop
 1531              	.L108:
 424:/home/xingli/share/1205tiny/network/dtls/mbedtls/mbedtls-2.16.2/library/bignum.c **** 
 425:/home/xingli/share/1205tiny/network/dtls/mbedtls/mbedtls-2.16.2/library/bignum.c ****     j = biL - mbedtls_clz( X->p[i] );
 1532              		.loc 1 425 29
 1533 006f 488B45D8 		movq	-40(%rbp), %rax
 1534 0073 488B4010 		movq	16(%rax), %rax
 1535              		.loc 1 425 32
 1536 0077 488B55E8 		movq	-24(%rbp), %rdx
 1537 007b 48C1E203 		salq	$3, %rdx
 1538 007f 4801D0   		addq	%rdx, %rax
 1539              		.loc 1 425 15
 1540 0082 488B00   		movq	(%rax), %rax
 1541 0085 4889C7   		movq	%rax, %rdi
 1542 0088 E8000000 		call	mbedtls_clz
 1542      00
 1543              		.loc 1 425 7
 1544 008d BA400000 		movl	$64, %edx
 1544      00
 1545 0092 4829C2   		subq	%rax, %rdx
 1546 0095 4889D0   		movq	%rdx, %rax
 1547 0098 488945F0 		movq	%rax, -16(%rbp)
GAS LISTING /tmp/ccFaOvob.s 			page 39


 426:/home/xingli/share/1205tiny/network/dtls/mbedtls/mbedtls-2.16.2/library/bignum.c **** 
 427:/home/xingli/share/1205tiny/network/dtls/mbedtls/mbedtls-2.16.2/library/bignum.c ****     return( ( i * biL ) + j );
 1548              		.loc 1 427 17
 1549 009c 488B45E8 		movq	-24(%rbp), %rax
 1550 00a0 48C1E006 		salq	$6, %rax
 1551 00a4 4889C2   		movq	%rax, %rdx
 1552              		.loc 1 427 25
 1553 00a7 488B45F0 		movq	-16(%rbp), %rax
 1554 00ab 4801D0   		addq	%rdx, %rax
 1555              	.L105:
 428:/home/xingli/share/1205tiny/network/dtls/mbedtls/mbedtls-2.16.2/library/bignum.c **** }
 1556              		.loc 1 428 1
 1557 00ae 488B4DF8 		movq	-8(%rbp), %rcx
 1558 00b2 6448330C 		xorq	%fs:40, %rcx
 1558      25280000 
 1558      00
 1559 00bb 7405     		je	.L110
 1560 00bd E8000000 		call	__stack_chk_fail@PLT
 1560      00
 1561              	.L110:
 1562 00c2 C9       		leave
 1563              	.LCFI44:
 1564              		.cfi_def_cfa 7, 8
 1565 00c3 C3       		ret
 1566              		.cfi_endproc
 1567              	.LFE20:
 1569              		.section	.text.mbedtls_mpi_size,"ax",@progbits
 1570              		.globl	mbedtls_mpi_size
 1572              	mbedtls_mpi_size:
 1573              	.LFB21:
 429:/home/xingli/share/1205tiny/network/dtls/mbedtls/mbedtls-2.16.2/library/bignum.c **** 
 430:/home/xingli/share/1205tiny/network/dtls/mbedtls/mbedtls-2.16.2/library/bignum.c **** /*
 431:/home/xingli/share/1205tiny/network/dtls/mbedtls/mbedtls-2.16.2/library/bignum.c ****  * Return the total size in bytes
 432:/home/xingli/share/1205tiny/network/dtls/mbedtls/mbedtls-2.16.2/library/bignum.c ****  */
 433:/home/xingli/share/1205tiny/network/dtls/mbedtls/mbedtls-2.16.2/library/bignum.c **** size_t mbedtls_mpi_size( const mbedtls_mpi *X )
 434:/home/xingli/share/1205tiny/network/dtls/mbedtls/mbedtls-2.16.2/library/bignum.c **** {
 1574              		.loc 1 434 1
 1575              		.cfi_startproc
 1576 0000 F30F1EFA 		endbr64
 1577 0004 55       		pushq	%rbp
 1578              	.LCFI45:
 1579              		.cfi_def_cfa_offset 16
 1580              		.cfi_offset 6, -16
 1581 0005 4889E5   		movq	%rsp, %rbp
 1582              	.LCFI46:
 1583              		.cfi_def_cfa_register 6
 1584 0008 4883EC20 		subq	$32, %rsp
 1585 000c 48897DE8 		movq	%rdi, -24(%rbp)
 1586              		.loc 1 434 1
 1587 0010 64488B04 		movq	%fs:40, %rax
 1587      25280000 
 1587      00
 1588 0019 488945F8 		movq	%rax, -8(%rbp)
 1589 001d 31C0     		xorl	%eax, %eax
 435:/home/xingli/share/1205tiny/network/dtls/mbedtls/mbedtls-2.16.2/library/bignum.c ****     return( ( mbedtls_mpi_bitlen( X ) + 7 ) >> 3 );
 1590              		.loc 1 435 15
 1591 001f 488B45E8 		movq	-24(%rbp), %rax
GAS LISTING /tmp/ccFaOvob.s 			page 40


 1592 0023 4889C7   		movq	%rax, %rdi
 1593 0026 E8000000 		call	mbedtls_mpi_bitlen
 1593      00
 1594              		.loc 1 435 39
 1595 002b 4883C007 		addq	$7, %rax
 1596              		.loc 1 435 45
 1597 002f 48C1E803 		shrq	$3, %rax
 436:/home/xingli/share/1205tiny/network/dtls/mbedtls/mbedtls-2.16.2/library/bignum.c **** }
 1598              		.loc 1 436 1
 1599 0033 488B55F8 		movq	-8(%rbp), %rdx
 1600 0037 64483314 		xorq	%fs:40, %rdx
 1600      25280000 
 1600      00
 1601 0040 7405     		je	.L114
 1602 0042 E8000000 		call	__stack_chk_fail@PLT
 1602      00
 1603              	.L114:
 1604 0047 C9       		leave
 1605              	.LCFI47:
 1606              		.cfi_def_cfa 7, 8
 1607 0048 C3       		ret
 1608              		.cfi_endproc
 1609              	.LFE21:
 1611              		.section	.text.mpi_get_digit,"ax",@progbits
 1613              	mpi_get_digit:
 1614              	.LFB22:
 437:/home/xingli/share/1205tiny/network/dtls/mbedtls/mbedtls-2.16.2/library/bignum.c **** 
 438:/home/xingli/share/1205tiny/network/dtls/mbedtls/mbedtls-2.16.2/library/bignum.c **** /*
 439:/home/xingli/share/1205tiny/network/dtls/mbedtls/mbedtls-2.16.2/library/bignum.c ****  * Convert an ASCII character to digit value
 440:/home/xingli/share/1205tiny/network/dtls/mbedtls/mbedtls-2.16.2/library/bignum.c ****  */
 441:/home/xingli/share/1205tiny/network/dtls/mbedtls/mbedtls-2.16.2/library/bignum.c **** static int mpi_get_digit( mbedtls_mpi_uint *d, int radix, char c )
 442:/home/xingli/share/1205tiny/network/dtls/mbedtls/mbedtls-2.16.2/library/bignum.c **** {
 1615              		.loc 1 442 1
 1616              		.cfi_startproc
 1617 0000 F30F1EFA 		endbr64
 1618 0004 55       		pushq	%rbp
 1619              	.LCFI48:
 1620              		.cfi_def_cfa_offset 16
 1621              		.cfi_offset 6, -16
 1622 0005 4889E5   		movq	%rsp, %rbp
 1623              	.LCFI49:
 1624              		.cfi_def_cfa_register 6
 1625 0008 4883EC20 		subq	$32, %rsp
 1626 000c 48897DE8 		movq	%rdi, -24(%rbp)
 1627 0010 8975E4   		movl	%esi, -28(%rbp)
 1628 0013 89D0     		movl	%edx, %eax
 1629 0015 8845E0   		movb	%al, -32(%rbp)
 1630              		.loc 1 442 1
 1631 0018 64488B04 		movq	%fs:40, %rax
 1631      25280000 
 1631      00
 1632 0021 488945F8 		movq	%rax, -8(%rbp)
 1633 0025 31C0     		xorl	%eax, %eax
 443:/home/xingli/share/1205tiny/network/dtls/mbedtls/mbedtls-2.16.2/library/bignum.c ****     *d = 255;
 1634              		.loc 1 443 8
 1635 0027 488B45E8 		movq	-24(%rbp), %rax
 1636 002b 48C700FF 		movq	$255, (%rax)
GAS LISTING /tmp/ccFaOvob.s 			page 41


 1636      000000
 444:/home/xingli/share/1205tiny/network/dtls/mbedtls/mbedtls-2.16.2/library/bignum.c **** 
 445:/home/xingli/share/1205tiny/network/dtls/mbedtls/mbedtls-2.16.2/library/bignum.c ****     if( c >= 0x30 && c <= 0x39 ) *d = c - 0x30;
 1637              		.loc 1 445 7
 1638 0032 807DE02F 		cmpb	$47, -32(%rbp)
 1639 0036 7E17     		jle	.L116
 1640              		.loc 1 445 19 discriminator 1
 1641 0038 807DE039 		cmpb	$57, -32(%rbp)
 1642 003c 7F11     		jg	.L116
 1643              		.loc 1 445 41 discriminator 2
 1644 003e 0FBE45E0 		movsbl	-32(%rbp), %eax
 1645 0042 83E830   		subl	$48, %eax
 1646 0045 4863D0   		movslq	%eax, %rdx
 1647              		.loc 1 445 37 discriminator 2
 1648 0048 488B45E8 		movq	-24(%rbp), %rax
 1649 004c 488910   		movq	%rdx, (%rax)
 1650              	.L116:
 446:/home/xingli/share/1205tiny/network/dtls/mbedtls/mbedtls-2.16.2/library/bignum.c ****     if( c >= 0x41 && c <= 0x46 ) *d = c - 0x37;
 1651              		.loc 1 446 7
 1652 004f 807DE040 		cmpb	$64, -32(%rbp)
 1653 0053 7E17     		jle	.L117
 1654              		.loc 1 446 19 discriminator 1
 1655 0055 807DE046 		cmpb	$70, -32(%rbp)
 1656 0059 7F11     		jg	.L117
 1657              		.loc 1 446 41 discriminator 2
 1658 005b 0FBE45E0 		movsbl	-32(%rbp), %eax
 1659 005f 83E837   		subl	$55, %eax
 1660 0062 4863D0   		movslq	%eax, %rdx
 1661              		.loc 1 446 37 discriminator 2
 1662 0065 488B45E8 		movq	-24(%rbp), %rax
 1663 0069 488910   		movq	%rdx, (%rax)
 1664              	.L117:
 447:/home/xingli/share/1205tiny/network/dtls/mbedtls/mbedtls-2.16.2/library/bignum.c ****     if( c >= 0x61 && c <= 0x66 ) *d = c - 0x57;
 1665              		.loc 1 447 7
 1666 006c 807DE060 		cmpb	$96, -32(%rbp)
 1667 0070 7E17     		jle	.L118
 1668              		.loc 1 447 19 discriminator 1
 1669 0072 807DE066 		cmpb	$102, -32(%rbp)
 1670 0076 7F11     		jg	.L118
 1671              		.loc 1 447 41 discriminator 2
 1672 0078 0FBE45E0 		movsbl	-32(%rbp), %eax
 1673 007c 83E857   		subl	$87, %eax
 1674 007f 4863D0   		movslq	%eax, %rdx
 1675              		.loc 1 447 37 discriminator 2
 1676 0082 488B45E8 		movq	-24(%rbp), %rax
 1677 0086 488910   		movq	%rdx, (%rax)
 1678              	.L118:
 448:/home/xingli/share/1205tiny/network/dtls/mbedtls/mbedtls-2.16.2/library/bignum.c **** 
 449:/home/xingli/share/1205tiny/network/dtls/mbedtls/mbedtls-2.16.2/library/bignum.c ****     if( *d >= (mbedtls_mpi_uint) radix )
 1679              		.loc 1 449 9
 1680 0089 488B45E8 		movq	-24(%rbp), %rax
 1681 008d 488B10   		movq	(%rax), %rdx
 1682              		.loc 1 449 12
 1683 0090 8B45E4   		movl	-28(%rbp), %eax
 1684 0093 4898     		cltq
 1685              		.loc 1 449 7
 1686 0095 4839C2   		cmpq	%rax, %rdx
GAS LISTING /tmp/ccFaOvob.s 			page 42


 1687 0098 7207     		jb	.L119
 450:/home/xingli/share/1205tiny/network/dtls/mbedtls/mbedtls-2.16.2/library/bignum.c ****         return( MBEDTLS_ERR_MPI_INVALID_CHARACTER );
 1688              		.loc 1 450 15
 1689 009a B8FAFFFF 		movl	$-6, %eax
 1689      FF
 1690 009f EB05     		jmp	.L120
 1691              	.L119:
 451:/home/xingli/share/1205tiny/network/dtls/mbedtls/mbedtls-2.16.2/library/bignum.c **** 
 452:/home/xingli/share/1205tiny/network/dtls/mbedtls/mbedtls-2.16.2/library/bignum.c ****     return( 0 );
 1692              		.loc 1 452 11
 1693 00a1 B8000000 		movl	$0, %eax
 1693      00
 1694              	.L120:
 453:/home/xingli/share/1205tiny/network/dtls/mbedtls/mbedtls-2.16.2/library/bignum.c **** }
 1695              		.loc 1 453 1
 1696 00a6 488B4DF8 		movq	-8(%rbp), %rcx
 1697 00aa 6448330C 		xorq	%fs:40, %rcx
 1697      25280000 
 1697      00
 1698 00b3 7405     		je	.L121
 1699 00b5 E8000000 		call	__stack_chk_fail@PLT
 1699      00
 1700              	.L121:
 1701 00ba C9       		leave
 1702              	.LCFI50:
 1703              		.cfi_def_cfa 7, 8
 1704 00bb C3       		ret
 1705              		.cfi_endproc
 1706              	.LFE22:
 1708              		.section	.text.mbedtls_mpi_read_string,"ax",@progbits
 1709              		.globl	mbedtls_mpi_read_string
 1711              	mbedtls_mpi_read_string:
 1712              	.LFB23:
 454:/home/xingli/share/1205tiny/network/dtls/mbedtls/mbedtls-2.16.2/library/bignum.c **** 
 455:/home/xingli/share/1205tiny/network/dtls/mbedtls/mbedtls-2.16.2/library/bignum.c **** /*
 456:/home/xingli/share/1205tiny/network/dtls/mbedtls/mbedtls-2.16.2/library/bignum.c ****  * Import from an ASCII string
 457:/home/xingli/share/1205tiny/network/dtls/mbedtls/mbedtls-2.16.2/library/bignum.c ****  */
 458:/home/xingli/share/1205tiny/network/dtls/mbedtls/mbedtls-2.16.2/library/bignum.c **** int mbedtls_mpi_read_string( mbedtls_mpi *X, int radix, const char *s )
 459:/home/xingli/share/1205tiny/network/dtls/mbedtls/mbedtls-2.16.2/library/bignum.c **** {
 1713              		.loc 1 459 1
 1714              		.cfi_startproc
 1715 0000 F30F1EFA 		endbr64
 1716 0004 55       		pushq	%rbp
 1717              	.LCFI51:
 1718              		.cfi_def_cfa_offset 16
 1719              		.cfi_offset 6, -16
 1720 0005 4889E5   		movq	%rsp, %rbp
 1721              	.LCFI52:
 1722              		.cfi_def_cfa_register 6
 1723 0008 4883EC70 		subq	$112, %rsp
 1724 000c 48897DA8 		movq	%rdi, -88(%rbp)
 1725 0010 8975A4   		movl	%esi, -92(%rbp)
 1726 0013 48895598 		movq	%rdx, -104(%rbp)
 1727              		.loc 1 459 1
 1728 0017 64488B04 		movq	%fs:40, %rax
 1728      25280000 
 1728      00
GAS LISTING /tmp/ccFaOvob.s 			page 43


 1729 0020 488945F8 		movq	%rax, -8(%rbp)
 1730 0024 31C0     		xorl	%eax, %eax
 460:/home/xingli/share/1205tiny/network/dtls/mbedtls/mbedtls-2.16.2/library/bignum.c ****     int ret;
 461:/home/xingli/share/1205tiny/network/dtls/mbedtls/mbedtls-2.16.2/library/bignum.c ****     size_t i, j, slen, n;
 462:/home/xingli/share/1205tiny/network/dtls/mbedtls/mbedtls-2.16.2/library/bignum.c ****     mbedtls_mpi_uint d;
 463:/home/xingli/share/1205tiny/network/dtls/mbedtls/mbedtls-2.16.2/library/bignum.c ****     mbedtls_mpi T;
 464:/home/xingli/share/1205tiny/network/dtls/mbedtls/mbedtls-2.16.2/library/bignum.c ****     MPI_VALIDATE_RET( X != NULL );
 465:/home/xingli/share/1205tiny/network/dtls/mbedtls/mbedtls-2.16.2/library/bignum.c ****     MPI_VALIDATE_RET( s != NULL );
 466:/home/xingli/share/1205tiny/network/dtls/mbedtls/mbedtls-2.16.2/library/bignum.c **** 
 467:/home/xingli/share/1205tiny/network/dtls/mbedtls/mbedtls-2.16.2/library/bignum.c ****     if( radix < 2 || radix > 16 )
 1731              		.loc 1 467 7
 1732 0026 837DA401 		cmpl	$1, -92(%rbp)
 1733 002a 7E06     		jle	.L123
 1734              		.loc 1 467 19 discriminator 1
 1735 002c 837DA410 		cmpl	$16, -92(%rbp)
 1736 0030 7E0A     		jle	.L124
 1737              	.L123:
 468:/home/xingli/share/1205tiny/network/dtls/mbedtls/mbedtls-2.16.2/library/bignum.c ****         return( MBEDTLS_ERR_MPI_BAD_INPUT_DATA );
 1738              		.loc 1 468 15
 1739 0032 B8FCFFFF 		movl	$-4, %eax
 1739      FF
 1740 0037 E9B00200 		jmp	.L144
 1740      00
 1741              	.L124:
 469:/home/xingli/share/1205tiny/network/dtls/mbedtls/mbedtls-2.16.2/library/bignum.c **** 
 470:/home/xingli/share/1205tiny/network/dtls/mbedtls/mbedtls-2.16.2/library/bignum.c ****     mbedtls_mpi_init( &T );
 1742              		.loc 1 470 5
 1743 003c 488D45E0 		leaq	-32(%rbp), %rax
 1744 0040 4889C7   		movq	%rax, %rdi
 1745 0043 E8000000 		call	mbedtls_mpi_init
 1745      00
 471:/home/xingli/share/1205tiny/network/dtls/mbedtls/mbedtls-2.16.2/library/bignum.c **** 
 472:/home/xingli/share/1205tiny/network/dtls/mbedtls/mbedtls-2.16.2/library/bignum.c ****     slen = strlen( s );
 1746              		.loc 1 472 12
 1747 0048 488B4598 		movq	-104(%rbp), %rax
 1748 004c 4889C7   		movq	%rax, %rdi
 1749 004f E8000000 		call	strlen@PLT
 1749      00
 1750 0054 488945D0 		movq	%rax, -48(%rbp)
 473:/home/xingli/share/1205tiny/network/dtls/mbedtls/mbedtls-2.16.2/library/bignum.c **** 
 474:/home/xingli/share/1205tiny/network/dtls/mbedtls/mbedtls-2.16.2/library/bignum.c ****     if( radix == 16 )
 1751              		.loc 1 474 7
 1752 0058 837DA410 		cmpl	$16, -92(%rbp)
 1753 005c 0F855C01 		jne	.L126
 1753      0000
 475:/home/xingli/share/1205tiny/network/dtls/mbedtls/mbedtls-2.16.2/library/bignum.c ****     {
 476:/home/xingli/share/1205tiny/network/dtls/mbedtls/mbedtls-2.16.2/library/bignum.c ****         if( slen > MPI_SIZE_T_MAX >> 2 )
 1754              		.loc 1 476 11
 1755 0062 48B8FFFF 		movabsq	$4611686018427387903, %rax
 1755      FFFFFFFF 
 1755      FF3F
 1756 006c 483945D0 		cmpq	%rax, -48(%rbp)
 1757 0070 760A     		jbe	.L127
 477:/home/xingli/share/1205tiny/network/dtls/mbedtls/mbedtls-2.16.2/library/bignum.c ****             return( MBEDTLS_ERR_MPI_BAD_INPUT_DATA );
 1758              		.loc 1 477 19
 1759 0072 B8FCFFFF 		movl	$-4, %eax
 1759      FF
GAS LISTING /tmp/ccFaOvob.s 			page 44


 1760 0077 E9700200 		jmp	.L144
 1760      00
 1761              	.L127:
 478:/home/xingli/share/1205tiny/network/dtls/mbedtls/mbedtls-2.16.2/library/bignum.c **** 
 479:/home/xingli/share/1205tiny/network/dtls/mbedtls/mbedtls-2.16.2/library/bignum.c ****         n = BITS_TO_LIMBS( slen << 2 );
 1762              		.loc 1 479 13
 1763 007c 488B45D0 		movq	-48(%rbp), %rax
 1764 0080 48C1E002 		salq	$2, %rax
 1765 0084 48C1E806 		shrq	$6, %rax
 1766 0088 4889C2   		movq	%rax, %rdx
 1767 008b 488B45D0 		movq	-48(%rbp), %rax
 1768 008f 48C1E002 		salq	$2, %rax
 1769 0093 83E03F   		andl	$63, %eax
 1770 0096 4885C0   		testq	%rax, %rax
 1771 0099 0F95C0   		setne	%al
 1772 009c 0FB6C0   		movzbl	%al, %eax
 1773              		.loc 1 479 11
 1774 009f 4801D0   		addq	%rdx, %rax
 1775 00a2 488945D8 		movq	%rax, -40(%rbp)
 480:/home/xingli/share/1205tiny/network/dtls/mbedtls/mbedtls-2.16.2/library/bignum.c **** 
 481:/home/xingli/share/1205tiny/network/dtls/mbedtls/mbedtls-2.16.2/library/bignum.c ****         MBEDTLS_MPI_CHK( mbedtls_mpi_grow( X, n ) );
 1776              		.loc 1 481 9
 1777 00a6 488B55D8 		movq	-40(%rbp), %rdx
 1778 00aa 488B45A8 		movq	-88(%rbp), %rax
 1779 00ae 4889D6   		movq	%rdx, %rsi
 1780 00b1 4889C7   		movq	%rax, %rdi
 1781 00b4 E8000000 		call	mbedtls_mpi_grow
 1781      00
 1782 00b9 8945B4   		movl	%eax, -76(%rbp)
 1783 00bc 837DB400 		cmpl	$0, -76(%rbp)
 1784 00c0 0F850402 		jne	.L146
 1784      0000
 482:/home/xingli/share/1205tiny/network/dtls/mbedtls/mbedtls-2.16.2/library/bignum.c ****         MBEDTLS_MPI_CHK( mbedtls_mpi_lset( X, 0 ) );
 1785              		.loc 1 482 9
 1786 00c6 488B45A8 		movq	-88(%rbp), %rax
 1787 00ca BE000000 		movl	$0, %esi
 1787      00
 1788 00cf 4889C7   		movq	%rax, %rdi
 1789 00d2 E8000000 		call	mbedtls_mpi_lset
 1789      00
 1790 00d7 8945B4   		movl	%eax, -76(%rbp)
 1791 00da 837DB400 		cmpl	$0, -76(%rbp)
 1792 00de 0F85E901 		jne	.L147
 1792      0000
 483:/home/xingli/share/1205tiny/network/dtls/mbedtls/mbedtls-2.16.2/library/bignum.c **** 
 484:/home/xingli/share/1205tiny/network/dtls/mbedtls/mbedtls-2.16.2/library/bignum.c ****         for( i = slen, j = 0; i > 0; i--, j++ )
 1793              		.loc 1 484 16
 1794 00e4 488B45D0 		movq	-48(%rbp), %rax
 1795 00e8 488945C0 		movq	%rax, -64(%rbp)
 1796              		.loc 1 484 26
 1797 00ec 48C745C8 		movq	$0, -56(%rbp)
 1797      00000000 
 1798              		.loc 1 484 9
 1799 00f4 E9B50000 		jmp	.L131
 1799      00
 1800              	.L135:
 485:/home/xingli/share/1205tiny/network/dtls/mbedtls/mbedtls-2.16.2/library/bignum.c ****         {
GAS LISTING /tmp/ccFaOvob.s 			page 45


 486:/home/xingli/share/1205tiny/network/dtls/mbedtls/mbedtls-2.16.2/library/bignum.c ****             if( i == 1 && s[i - 1] == '-' )
 1801              		.loc 1 486 15
 1802 00f9 48837DC0 		cmpq	$1, -64(%rbp)
 1802      01
 1803 00fe 7525     		jne	.L132
 1804              		.loc 1 486 28 discriminator 1
 1805 0100 488B45C0 		movq	-64(%rbp), %rax
 1806 0104 488D50FF 		leaq	-1(%rax), %rdx
 1807 0108 488B4598 		movq	-104(%rbp), %rax
 1808 010c 4801D0   		addq	%rdx, %rax
 1809 010f 0FB600   		movzbl	(%rax), %eax
 1810              		.loc 1 486 24 discriminator 1
 1811 0112 3C2D     		cmpb	$45, %al
 1812 0114 750F     		jne	.L132
 487:/home/xingli/share/1205tiny/network/dtls/mbedtls/mbedtls-2.16.2/library/bignum.c ****             {
 488:/home/xingli/share/1205tiny/network/dtls/mbedtls/mbedtls-2.16.2/library/bignum.c ****                 X->s = -1;
 1813              		.loc 1 488 22
 1814 0116 488B45A8 		movq	-88(%rbp), %rax
 1815 011a C700FFFF 		movl	$-1, (%rax)
 1815      FFFF
 489:/home/xingli/share/1205tiny/network/dtls/mbedtls/mbedtls-2.16.2/library/bignum.c ****                 break;
 1816              		.loc 1 489 17
 1817 0120 E9B80100 		jmp	.L129
 1817      00
 1818              	.L132:
 490:/home/xingli/share/1205tiny/network/dtls/mbedtls/mbedtls-2.16.2/library/bignum.c ****             }
 491:/home/xingli/share/1205tiny/network/dtls/mbedtls/mbedtls-2.16.2/library/bignum.c **** 
 492:/home/xingli/share/1205tiny/network/dtls/mbedtls/mbedtls-2.16.2/library/bignum.c ****             MBEDTLS_MPI_CHK( mpi_get_digit( &d, radix, s[i - 1] ) );
 1819              		.loc 1 492 13
 1820 0125 488B45C0 		movq	-64(%rbp), %rax
 1821 0129 488D50FF 		leaq	-1(%rax), %rdx
 1822 012d 488B4598 		movq	-104(%rbp), %rax
 1823 0131 4801D0   		addq	%rdx, %rax
 1824 0134 0FB600   		movzbl	(%rax), %eax
 1825 0137 0FBED0   		movsbl	%al, %edx
 1826 013a 8B4DA4   		movl	-92(%rbp), %ecx
 1827 013d 488D45B8 		leaq	-72(%rbp), %rax
 1828 0141 89CE     		movl	%ecx, %esi
 1829 0143 4889C7   		movq	%rax, %rdi
 1830 0146 E8000000 		call	mpi_get_digit
 1830      00
 1831 014b 8945B4   		movl	%eax, -76(%rbp)
 1832 014e 837DB400 		cmpl	$0, -76(%rbp)
 1833 0152 0F857801 		jne	.L148
 1833      0000
 493:/home/xingli/share/1205tiny/network/dtls/mbedtls/mbedtls-2.16.2/library/bignum.c ****             X->p[j / ( 2 * ciL )] |= d << ( ( j % ( 2 * ciL ) ) << 2 );
 1834              		.loc 1 493 14 discriminator 2
 1835 0158 488B45A8 		movq	-88(%rbp), %rax
 1836 015c 488B4810 		movq	16(%rax), %rcx
 1837              		.loc 1 493 20 discriminator 2
 1838 0160 488B45C8 		movq	-56(%rbp), %rax
 1839 0164 48C1E804 		shrq	$4, %rax
 1840              		.loc 1 493 35 discriminator 2
 1841 0168 488D14C5 		leaq	0(,%rax,8), %rdx
 1841      00000000 
 1842 0170 4801CA   		addq	%rcx, %rdx
 1843 0173 488B32   		movq	(%rdx), %rsi
GAS LISTING /tmp/ccFaOvob.s 			page 46


 1844              		.loc 1 493 40 discriminator 2
 1845 0176 488B7DB8 		movq	-72(%rbp), %rdi
 1846              		.loc 1 493 65 discriminator 2
 1847 017a 488B55C8 		movq	-56(%rbp), %rdx
 1848 017e C1E202   		sall	$2, %edx
 1849 0181 83E23C   		andl	$60, %edx
 1850              		.loc 1 493 40 discriminator 2
 1851 0184 89D1     		movl	%edx, %ecx
 1852 0186 48D3E7   		salq	%cl, %rdi
 1853 0189 4889F9   		movq	%rdi, %rcx
 1854              		.loc 1 493 14 discriminator 2
 1855 018c 488B55A8 		movq	-88(%rbp), %rdx
 1856 0190 488B5210 		movq	16(%rdx), %rdx
 1857              		.loc 1 493 35 discriminator 2
 1858 0194 48C1E003 		salq	$3, %rax
 1859 0198 4801D0   		addq	%rdx, %rax
 1860 019b 4809CE   		orq	%rcx, %rsi
 1861 019e 4889F2   		movq	%rsi, %rdx
 1862 01a1 488910   		movq	%rdx, (%rax)
 484:/home/xingli/share/1205tiny/network/dtls/mbedtls/mbedtls-2.16.2/library/bignum.c ****         {
 1863              		.loc 1 484 39 discriminator 2
 1864 01a4 48836DC0 		subq	$1, -64(%rbp)
 1864      01
 484:/home/xingli/share/1205tiny/network/dtls/mbedtls/mbedtls-2.16.2/library/bignum.c ****         {
 1865              		.loc 1 484 44 discriminator 2
 1866 01a9 488345C8 		addq	$1, -56(%rbp)
 1866      01
 1867              	.L131:
 484:/home/xingli/share/1205tiny/network/dtls/mbedtls/mbedtls-2.16.2/library/bignum.c ****         {
 1868              		.loc 1 484 9 discriminator 1
 1869 01ae 48837DC0 		cmpq	$0, -64(%rbp)
 1869      00
 1870 01b3 0F8540FF 		jne	.L135
 1870      FFFF
 1871 01b9 E91F0100 		jmp	.L129
 1871      00
 1872              	.L126:
 494:/home/xingli/share/1205tiny/network/dtls/mbedtls/mbedtls-2.16.2/library/bignum.c ****         }
 495:/home/xingli/share/1205tiny/network/dtls/mbedtls/mbedtls-2.16.2/library/bignum.c ****     }
 496:/home/xingli/share/1205tiny/network/dtls/mbedtls/mbedtls-2.16.2/library/bignum.c ****     else
 497:/home/xingli/share/1205tiny/network/dtls/mbedtls/mbedtls-2.16.2/library/bignum.c ****     {
 498:/home/xingli/share/1205tiny/network/dtls/mbedtls/mbedtls-2.16.2/library/bignum.c ****         MBEDTLS_MPI_CHK( mbedtls_mpi_lset( X, 0 ) );
 1873              		.loc 1 498 9
 1874 01be 488B45A8 		movq	-88(%rbp), %rax
 1875 01c2 BE000000 		movl	$0, %esi
 1875      00
 1876 01c7 4889C7   		movq	%rax, %rdi
 1877 01ca E8000000 		call	mbedtls_mpi_lset
 1877      00
 1878 01cf 8945B4   		movl	%eax, -76(%rbp)
 1879 01d2 837DB400 		cmpl	$0, -76(%rbp)
 1880 01d6 0F85F700 		jne	.L149
 1880      0000
 499:/home/xingli/share/1205tiny/network/dtls/mbedtls/mbedtls-2.16.2/library/bignum.c **** 
 500:/home/xingli/share/1205tiny/network/dtls/mbedtls/mbedtls-2.16.2/library/bignum.c ****         for( i = 0; i < slen; i++ )
 1881              		.loc 1 500 16
 1882 01dc 48C745C0 		movq	$0, -64(%rbp)
GAS LISTING /tmp/ccFaOvob.s 			page 47


 1882      00000000 
 1883              		.loc 1 500 9
 1884 01e4 E9D10000 		jmp	.L137
 1884      00
 1885              	.L143:
 501:/home/xingli/share/1205tiny/network/dtls/mbedtls/mbedtls-2.16.2/library/bignum.c ****         {
 502:/home/xingli/share/1205tiny/network/dtls/mbedtls/mbedtls-2.16.2/library/bignum.c ****             if( i == 0 && s[i] == '-' )
 1886              		.loc 1 502 15
 1887 01e9 48837DC0 		cmpq	$0, -64(%rbp)
 1887      00
 1888 01ee 7521     		jne	.L138
 1889              		.loc 1 502 28 discriminator 1
 1890 01f0 488B5598 		movq	-104(%rbp), %rdx
 1891 01f4 488B45C0 		movq	-64(%rbp), %rax
 1892 01f8 4801D0   		addq	%rdx, %rax
 1893 01fb 0FB600   		movzbl	(%rax), %eax
 1894              		.loc 1 502 24 discriminator 1
 1895 01fe 3C2D     		cmpb	$45, %al
 1896 0200 750F     		jne	.L138
 503:/home/xingli/share/1205tiny/network/dtls/mbedtls/mbedtls-2.16.2/library/bignum.c ****             {
 504:/home/xingli/share/1205tiny/network/dtls/mbedtls/mbedtls-2.16.2/library/bignum.c ****                 X->s = -1;
 1897              		.loc 1 504 22
 1898 0202 488B45A8 		movq	-88(%rbp), %rax
 1899 0206 C700FFFF 		movl	$-1, (%rax)
 1899      FFFF
 505:/home/xingli/share/1205tiny/network/dtls/mbedtls/mbedtls-2.16.2/library/bignum.c ****                 continue;
 1900              		.loc 1 505 17
 1901 020c E9A40000 		jmp	.L139
 1901      00
 1902              	.L138:
 506:/home/xingli/share/1205tiny/network/dtls/mbedtls/mbedtls-2.16.2/library/bignum.c ****             }
 507:/home/xingli/share/1205tiny/network/dtls/mbedtls/mbedtls-2.16.2/library/bignum.c **** 
 508:/home/xingli/share/1205tiny/network/dtls/mbedtls/mbedtls-2.16.2/library/bignum.c ****             MBEDTLS_MPI_CHK( mpi_get_digit( &d, radix, s[i] ) );
 1903              		.loc 1 508 13
 1904 0211 488B5598 		movq	-104(%rbp), %rdx
 1905 0215 488B45C0 		movq	-64(%rbp), %rax
 1906 0219 4801D0   		addq	%rdx, %rax
 1907 021c 0FB600   		movzbl	(%rax), %eax
 1908 021f 0FBED0   		movsbl	%al, %edx
 1909 0222 8B4DA4   		movl	-92(%rbp), %ecx
 1910 0225 488D45B8 		leaq	-72(%rbp), %rax
 1911 0229 89CE     		movl	%ecx, %esi
 1912 022b 4889C7   		movq	%rax, %rdi
 1913 022e E8000000 		call	mpi_get_digit
 1913      00
 1914 0233 8945B4   		movl	%eax, -76(%rbp)
 1915 0236 837DB400 		cmpl	$0, -76(%rbp)
 1916 023a 0F859600 		jne	.L150
 1916      0000
 509:/home/xingli/share/1205tiny/network/dtls/mbedtls/mbedtls-2.16.2/library/bignum.c ****             MBEDTLS_MPI_CHK( mbedtls_mpi_mul_int( &T, X, radix ) );
 1917              		.loc 1 509 13
 1918 0240 8B45A4   		movl	-92(%rbp), %eax
 1919 0243 4863D0   		movslq	%eax, %rdx
 1920 0246 488B4DA8 		movq	-88(%rbp), %rcx
 1921 024a 488D45E0 		leaq	-32(%rbp), %rax
 1922 024e 4889CE   		movq	%rcx, %rsi
 1923 0251 4889C7   		movq	%rax, %rdi
GAS LISTING /tmp/ccFaOvob.s 			page 48


 1924 0254 E8000000 		call	mbedtls_mpi_mul_int
 1924      00
 1925 0259 8945B4   		movl	%eax, -76(%rbp)
 1926 025c 837DB400 		cmpl	$0, -76(%rbp)
 1927 0260 7577     		jne	.L151
 510:/home/xingli/share/1205tiny/network/dtls/mbedtls/mbedtls-2.16.2/library/bignum.c **** 
 511:/home/xingli/share/1205tiny/network/dtls/mbedtls/mbedtls-2.16.2/library/bignum.c ****             if( X->s == 1 )
 1928              		.loc 1 511 18
 1929 0262 488B45A8 		movq	-88(%rbp), %rax
 1930 0266 8B00     		movl	(%rax), %eax
 1931              		.loc 1 511 15
 1932 0268 83F801   		cmpl	$1, %eax
 1933 026b 7525     		jne	.L142
 512:/home/xingli/share/1205tiny/network/dtls/mbedtls/mbedtls-2.16.2/library/bignum.c ****             {
 513:/home/xingli/share/1205tiny/network/dtls/mbedtls/mbedtls-2.16.2/library/bignum.c ****                 MBEDTLS_MPI_CHK( mbedtls_mpi_add_int( X, &T, d ) );
 1934              		.loc 1 513 17
 1935 026d 488B45B8 		movq	-72(%rbp), %rax
 1936 0271 4889C2   		movq	%rax, %rdx
 1937 0274 488D4DE0 		leaq	-32(%rbp), %rcx
 1938 0278 488B45A8 		movq	-88(%rbp), %rax
 1939 027c 4889CE   		movq	%rcx, %rsi
 1940 027f 4889C7   		movq	%rax, %rdi
 1941 0282 E8000000 		call	mbedtls_mpi_add_int
 1941      00
 1942 0287 8945B4   		movl	%eax, -76(%rbp)
 1943 028a 837DB400 		cmpl	$0, -76(%rbp)
 1944 028e 7425     		je	.L139
 1945 0290 EB4B     		jmp	.L129
 1946              	.L142:
 514:/home/xingli/share/1205tiny/network/dtls/mbedtls/mbedtls-2.16.2/library/bignum.c ****             }
 515:/home/xingli/share/1205tiny/network/dtls/mbedtls/mbedtls-2.16.2/library/bignum.c ****             else
 516:/home/xingli/share/1205tiny/network/dtls/mbedtls/mbedtls-2.16.2/library/bignum.c ****             {
 517:/home/xingli/share/1205tiny/network/dtls/mbedtls/mbedtls-2.16.2/library/bignum.c ****                 MBEDTLS_MPI_CHK( mbedtls_mpi_sub_int( X, &T, d ) );
 1947              		.loc 1 517 17
 1948 0292 488B45B8 		movq	-72(%rbp), %rax
 1949 0296 4889C2   		movq	%rax, %rdx
 1950 0299 488D4DE0 		leaq	-32(%rbp), %rcx
 1951 029d 488B45A8 		movq	-88(%rbp), %rax
 1952 02a1 4889CE   		movq	%rcx, %rsi
 1953 02a4 4889C7   		movq	%rax, %rdi
 1954 02a7 E8000000 		call	mbedtls_mpi_sub_int
 1954      00
 1955 02ac 8945B4   		movl	%eax, -76(%rbp)
 1956 02af 837DB400 		cmpl	$0, -76(%rbp)
 1957 02b3 7527     		jne	.L152
 1958              	.L139:
 500:/home/xingli/share/1205tiny/network/dtls/mbedtls/mbedtls-2.16.2/library/bignum.c ****         {
 1959              		.loc 1 500 32 discriminator 2
 1960 02b5 488345C0 		addq	$1, -64(%rbp)
 1960      01
 1961              	.L137:
 500:/home/xingli/share/1205tiny/network/dtls/mbedtls/mbedtls-2.16.2/library/bignum.c ****         {
 1962              		.loc 1 500 9 discriminator 1
 1963 02ba 488B45C0 		movq	-64(%rbp), %rax
 1964 02be 483B45D0 		cmpq	-48(%rbp), %rax
 1965 02c2 0F8221FF 		jb	.L143
 1965      FFFF
GAS LISTING /tmp/ccFaOvob.s 			page 49


 518:/home/xingli/share/1205tiny/network/dtls/mbedtls/mbedtls-2.16.2/library/bignum.c ****             }
 519:/home/xingli/share/1205tiny/network/dtls/mbedtls/mbedtls-2.16.2/library/bignum.c ****         }
 520:/home/xingli/share/1205tiny/network/dtls/mbedtls/mbedtls-2.16.2/library/bignum.c ****     }
 521:/home/xingli/share/1205tiny/network/dtls/mbedtls/mbedtls-2.16.2/library/bignum.c **** 
 522:/home/xingli/share/1205tiny/network/dtls/mbedtls/mbedtls-2.16.2/library/bignum.c **** cleanup:
 1966              		.loc 1 522 1
 1967 02c8 EB13     		jmp	.L129
 1968              	.L146:
 481:/home/xingli/share/1205tiny/network/dtls/mbedtls/mbedtls-2.16.2/library/bignum.c ****         MBEDTLS_MPI_CHK( mbedtls_mpi_lset( X, 0 ) );
 1969              		.loc 1 481 9
 1970 02ca 90       		nop
 1971 02cb EB10     		jmp	.L129
 1972              	.L147:
 482:/home/xingli/share/1205tiny/network/dtls/mbedtls/mbedtls-2.16.2/library/bignum.c **** 
 1973              		.loc 1 482 9
 1974 02cd 90       		nop
 1975 02ce EB0D     		jmp	.L129
 1976              	.L148:
 492:/home/xingli/share/1205tiny/network/dtls/mbedtls/mbedtls-2.16.2/library/bignum.c ****             X->p[j / ( 2 * ciL )] |= d << ( ( j % ( 2 * ciL ) ) << 2 );
 1977              		.loc 1 492 13
 1978 02d0 90       		nop
 1979 02d1 EB0A     		jmp	.L129
 1980              	.L149:
 498:/home/xingli/share/1205tiny/network/dtls/mbedtls/mbedtls-2.16.2/library/bignum.c **** 
 1981              		.loc 1 498 9
 1982 02d3 90       		nop
 1983 02d4 EB07     		jmp	.L129
 1984              	.L150:
 508:/home/xingli/share/1205tiny/network/dtls/mbedtls/mbedtls-2.16.2/library/bignum.c ****             MBEDTLS_MPI_CHK( mbedtls_mpi_mul_int( &T, X, radix ) );
 1985              		.loc 1 508 13
 1986 02d6 90       		nop
 1987 02d7 EB04     		jmp	.L129
 1988              	.L151:
 509:/home/xingli/share/1205tiny/network/dtls/mbedtls/mbedtls-2.16.2/library/bignum.c **** 
 1989              		.loc 1 509 13
 1990 02d9 90       		nop
 1991 02da EB01     		jmp	.L129
 1992              	.L152:
 517:/home/xingli/share/1205tiny/network/dtls/mbedtls/mbedtls-2.16.2/library/bignum.c ****             }
 1993              		.loc 1 517 17
 1994 02dc 90       		nop
 1995              	.L129:
 523:/home/xingli/share/1205tiny/network/dtls/mbedtls/mbedtls-2.16.2/library/bignum.c **** 
 524:/home/xingli/share/1205tiny/network/dtls/mbedtls/mbedtls-2.16.2/library/bignum.c ****     mbedtls_mpi_free( &T );
 1996              		.loc 1 524 5
 1997 02dd 488D45E0 		leaq	-32(%rbp), %rax
 1998 02e1 4889C7   		movq	%rax, %rdi
 1999 02e4 E8000000 		call	mbedtls_mpi_free
 1999      00
 525:/home/xingli/share/1205tiny/network/dtls/mbedtls/mbedtls-2.16.2/library/bignum.c **** 
 526:/home/xingli/share/1205tiny/network/dtls/mbedtls/mbedtls-2.16.2/library/bignum.c ****     return( ret );
 2000              		.loc 1 526 11
 2001 02e9 8B45B4   		movl	-76(%rbp), %eax
 2002              	.L144:
 527:/home/xingli/share/1205tiny/network/dtls/mbedtls/mbedtls-2.16.2/library/bignum.c **** }
 2003              		.loc 1 527 1 discriminator 1
 2004 02ec 488B75F8 		movq	-8(%rbp), %rsi
GAS LISTING /tmp/ccFaOvob.s 			page 50


 2005 02f0 64483334 		xorq	%fs:40, %rsi
 2005      25280000 
 2005      00
 2006 02f9 7405     		je	.L145
 2007              		.loc 1 527 1 is_stmt 0
 2008 02fb E8000000 		call	__stack_chk_fail@PLT
 2008      00
 2009              	.L145:
 2010 0300 C9       		leave
 2011              	.LCFI53:
 2012              		.cfi_def_cfa 7, 8
 2013 0301 C3       		ret
 2014              		.cfi_endproc
 2015              	.LFE23:
 2017              		.section	.text.mpi_write_hlp,"ax",@progbits
 2019              	mpi_write_hlp:
 2020              	.LFB24:
 528:/home/xingli/share/1205tiny/network/dtls/mbedtls/mbedtls-2.16.2/library/bignum.c **** 
 529:/home/xingli/share/1205tiny/network/dtls/mbedtls/mbedtls-2.16.2/library/bignum.c **** /*
 530:/home/xingli/share/1205tiny/network/dtls/mbedtls/mbedtls-2.16.2/library/bignum.c ****  * Helper to write the digits high-order first.
 531:/home/xingli/share/1205tiny/network/dtls/mbedtls/mbedtls-2.16.2/library/bignum.c ****  */
 532:/home/xingli/share/1205tiny/network/dtls/mbedtls/mbedtls-2.16.2/library/bignum.c **** static int mpi_write_hlp( mbedtls_mpi *X, int radix,
 533:/home/xingli/share/1205tiny/network/dtls/mbedtls/mbedtls-2.16.2/library/bignum.c ****                           char **p, const size_t buflen )
 534:/home/xingli/share/1205tiny/network/dtls/mbedtls/mbedtls-2.16.2/library/bignum.c **** {
 2021              		.loc 1 534 1 is_stmt 1
 2022              		.cfi_startproc
 2023 0000 F30F1EFA 		endbr64
 2024 0004 55       		pushq	%rbp
 2025              	.LCFI54:
 2026              		.cfi_def_cfa_offset 16
 2027              		.cfi_offset 6, -16
 2028 0005 4889E5   		movq	%rsp, %rbp
 2029              	.LCFI55:
 2030              		.cfi_def_cfa_register 6
 2031 0008 4883EC50 		subq	$80, %rsp
 2032 000c 48897DC8 		movq	%rdi, -56(%rbp)
 2033 0010 8975C4   		movl	%esi, -60(%rbp)
 2034 0013 488955B8 		movq	%rdx, -72(%rbp)
 2035 0017 48894DB0 		movq	%rcx, -80(%rbp)
 2036              		.loc 1 534 1
 2037 001b 64488B04 		movq	%fs:40, %rax
 2037      25280000 
 2037      00
 2038 0024 488945F8 		movq	%rax, -8(%rbp)
 2039 0028 31C0     		xorl	%eax, %eax
 535:/home/xingli/share/1205tiny/network/dtls/mbedtls/mbedtls-2.16.2/library/bignum.c ****     int ret;
 536:/home/xingli/share/1205tiny/network/dtls/mbedtls/mbedtls-2.16.2/library/bignum.c ****     mbedtls_mpi_uint r;
 537:/home/xingli/share/1205tiny/network/dtls/mbedtls/mbedtls-2.16.2/library/bignum.c ****     size_t length = 0;
 2040              		.loc 1 537 12
 2041 002a 48C745E8 		movq	$0, -24(%rbp)
 2041      00000000 
 538:/home/xingli/share/1205tiny/network/dtls/mbedtls/mbedtls-2.16.2/library/bignum.c ****     char *p_end = *p + buflen;
 2042              		.loc 1 538 19
 2043 0032 488B45B8 		movq	-72(%rbp), %rax
 2044 0036 488B10   		movq	(%rax), %rdx
 2045              		.loc 1 538 11
 2046 0039 488B45B0 		movq	-80(%rbp), %rax
GAS LISTING /tmp/ccFaOvob.s 			page 51


 2047 003d 4801D0   		addq	%rdx, %rax
 2048 0040 488945F0 		movq	%rax, -16(%rbp)
 2049              	.L161:
 539:/home/xingli/share/1205tiny/network/dtls/mbedtls/mbedtls-2.16.2/library/bignum.c **** 
 540:/home/xingli/share/1205tiny/network/dtls/mbedtls/mbedtls-2.16.2/library/bignum.c ****     do
 541:/home/xingli/share/1205tiny/network/dtls/mbedtls/mbedtls-2.16.2/library/bignum.c ****     {
 542:/home/xingli/share/1205tiny/network/dtls/mbedtls/mbedtls-2.16.2/library/bignum.c ****         if( length >= buflen )
 2050              		.loc 1 542 11
 2051 0044 488B45E8 		movq	-24(%rbp), %rax
 2052 0048 483B45B0 		cmpq	-80(%rbp), %rax
 2053 004c 720A     		jb	.L154
 543:/home/xingli/share/1205tiny/network/dtls/mbedtls/mbedtls-2.16.2/library/bignum.c ****         {
 544:/home/xingli/share/1205tiny/network/dtls/mbedtls/mbedtls-2.16.2/library/bignum.c ****             return( MBEDTLS_ERR_MPI_BUFFER_TOO_SMALL );
 2054              		.loc 1 544 19
 2055 004e B8F8FFFF 		movl	$-8, %eax
 2055      FF
 2056 0053 E9D80000 		jmp	.L162
 2056      00
 2057              	.L154:
 545:/home/xingli/share/1205tiny/network/dtls/mbedtls/mbedtls-2.16.2/library/bignum.c ****         }
 546:/home/xingli/share/1205tiny/network/dtls/mbedtls/mbedtls-2.16.2/library/bignum.c **** 
 547:/home/xingli/share/1205tiny/network/dtls/mbedtls/mbedtls-2.16.2/library/bignum.c ****         MBEDTLS_MPI_CHK( mbedtls_mpi_mod_int( &r, X, radix ) );
 2058              		.loc 1 547 9
 2059 0058 8B45C4   		movl	-60(%rbp), %eax
 2060 005b 4863D0   		movslq	%eax, %rdx
 2061 005e 488B4DC8 		movq	-56(%rbp), %rcx
 2062 0062 488D45E0 		leaq	-32(%rbp), %rax
 2063 0066 4889CE   		movq	%rcx, %rsi
 2064 0069 4889C7   		movq	%rax, %rdi
 2065 006c E8000000 		call	mbedtls_mpi_mod_int
 2065      00
 2066 0071 8945DC   		movl	%eax, -36(%rbp)
 2067 0074 837DDC00 		cmpl	$0, -36(%rbp)
 2068 0078 0F85AB00 		jne	.L164
 2068      0000
 548:/home/xingli/share/1205tiny/network/dtls/mbedtls/mbedtls-2.16.2/library/bignum.c ****         MBEDTLS_MPI_CHK( mbedtls_mpi_div_int( X, NULL, X, radix ) );
 2069              		.loc 1 548 9
 2070 007e 8B45C4   		movl	-60(%rbp), %eax
 2071 0081 4863C8   		movslq	%eax, %rcx
 2072 0084 488B55C8 		movq	-56(%rbp), %rdx
 2073 0088 488B45C8 		movq	-56(%rbp), %rax
 2074 008c BE000000 		movl	$0, %esi
 2074      00
 2075 0091 4889C7   		movq	%rax, %rdi
 2076 0094 E8000000 		call	mbedtls_mpi_div_int
 2076      00
 2077 0099 8945DC   		movl	%eax, -36(%rbp)
 2078 009c 837DDC00 		cmpl	$0, -36(%rbp)
 2079 00a0 0F858600 		jne	.L165
 2079      0000
 549:/home/xingli/share/1205tiny/network/dtls/mbedtls/mbedtls-2.16.2/library/bignum.c ****         /*
 550:/home/xingli/share/1205tiny/network/dtls/mbedtls/mbedtls-2.16.2/library/bignum.c ****          * Write the residue in the current position, as an ASCII character.
 551:/home/xingli/share/1205tiny/network/dtls/mbedtls/mbedtls-2.16.2/library/bignum.c ****          */
 552:/home/xingli/share/1205tiny/network/dtls/mbedtls/mbedtls-2.16.2/library/bignum.c ****         if( r < 0xA )
 2080              		.loc 1 552 15
 2081 00a6 488B45E0 		movq	-32(%rbp), %rax
 2082              		.loc 1 552 11
GAS LISTING /tmp/ccFaOvob.s 			page 52


 2083 00aa 4883F809 		cmpq	$9, %rax
 2084 00ae 7716     		ja	.L159
 553:/home/xingli/share/1205tiny/network/dtls/mbedtls/mbedtls-2.16.2/library/bignum.c ****             *(--p_end) = (char)( '0' + r );
 2085              		.loc 1 553 38
 2086 00b0 488B45E0 		movq	-32(%rbp), %rax
 2087 00b4 83C030   		addl	$48, %eax
 2088              		.loc 1 553 24
 2089 00b7 48836DF0 		subq	$1, -16(%rbp)
 2089      01
 2090              		.loc 1 553 26
 2091 00bc 89C2     		movl	%eax, %edx
 2092              		.loc 1 553 24
 2093 00be 488B45F0 		movq	-16(%rbp), %rax
 2094 00c2 8810     		movb	%dl, (%rax)
 2095 00c4 EB14     		jmp	.L160
 2096              	.L159:
 554:/home/xingli/share/1205tiny/network/dtls/mbedtls/mbedtls-2.16.2/library/bignum.c ****         else
 555:/home/xingli/share/1205tiny/network/dtls/mbedtls/mbedtls-2.16.2/library/bignum.c ****             *(--p_end) = (char)( 'A' + ( r - 0xA ) );
 2097              		.loc 1 555 38
 2098 00c6 488B45E0 		movq	-32(%rbp), %rax
 2099 00ca 83C037   		addl	$55, %eax
 2100              		.loc 1 555 24
 2101 00cd 48836DF0 		subq	$1, -16(%rbp)
 2101      01
 2102              		.loc 1 555 26
 2103 00d2 89C2     		movl	%eax, %edx
 2104              		.loc 1 555 24
 2105 00d4 488B45F0 		movq	-16(%rbp), %rax
 2106 00d8 8810     		movb	%dl, (%rax)
 2107              	.L160:
 556:/home/xingli/share/1205tiny/network/dtls/mbedtls/mbedtls-2.16.2/library/bignum.c **** 
 557:/home/xingli/share/1205tiny/network/dtls/mbedtls/mbedtls-2.16.2/library/bignum.c ****         length++;
 2108              		.loc 1 557 15
 2109 00da 488345E8 		addq	$1, -24(%rbp)
 2109      01
 558:/home/xingli/share/1205tiny/network/dtls/mbedtls/mbedtls-2.16.2/library/bignum.c ****     } while( mbedtls_mpi_cmp_int( X, 0 ) != 0 );
 2110              		.loc 1 558 14
 2111 00df 488B45C8 		movq	-56(%rbp), %rax
 2112 00e3 BE000000 		movl	$0, %esi
 2112      00
 2113 00e8 4889C7   		movq	%rax, %rdi
 2114 00eb E8000000 		call	mbedtls_mpi_cmp_int
 2114      00
 2115              		.loc 1 558 5
 2116 00f0 85C0     		testl	%eax, %eax
 2117 00f2 0F854CFF 		jne	.L161
 2117      FFFF
 559:/home/xingli/share/1205tiny/network/dtls/mbedtls/mbedtls-2.16.2/library/bignum.c **** 
 560:/home/xingli/share/1205tiny/network/dtls/mbedtls/mbedtls-2.16.2/library/bignum.c ****     memmove( *p, p_end, length );
 2118              		.loc 1 560 5
 2119 00f8 488B45B8 		movq	-72(%rbp), %rax
 2120 00fc 488B00   		movq	(%rax), %rax
 2121 00ff 488B55E8 		movq	-24(%rbp), %rdx
 2122 0103 488B4DF0 		movq	-16(%rbp), %rcx
 2123 0107 4889CE   		movq	%rcx, %rsi
 2124 010a 4889C7   		movq	%rax, %rdi
 2125 010d E8000000 		call	memmove@PLT
GAS LISTING /tmp/ccFaOvob.s 			page 53


 2125      00
 561:/home/xingli/share/1205tiny/network/dtls/mbedtls/mbedtls-2.16.2/library/bignum.c ****     *p += length;
 2126              		.loc 1 561 8
 2127 0112 488B45B8 		movq	-72(%rbp), %rax
 2128 0116 488B10   		movq	(%rax), %rdx
 2129 0119 488B45E8 		movq	-24(%rbp), %rax
 2130 011d 4801C2   		addq	%rax, %rdx
 2131 0120 488B45B8 		movq	-72(%rbp), %rax
 2132 0124 488910   		movq	%rdx, (%rax)
 2133 0127 EB04     		jmp	.L157
 2134              	.L164:
 547:/home/xingli/share/1205tiny/network/dtls/mbedtls/mbedtls-2.16.2/library/bignum.c ****         MBEDTLS_MPI_CHK( mbedtls_mpi_div_int( X, NULL, X, radix ) );
 2135              		.loc 1 547 9
 2136 0129 90       		nop
 2137 012a EB01     		jmp	.L157
 2138              	.L165:
 548:/home/xingli/share/1205tiny/network/dtls/mbedtls/mbedtls-2.16.2/library/bignum.c ****         /*
 2139              		.loc 1 548 9
 2140 012c 90       		nop
 2141              	.L157:
 562:/home/xingli/share/1205tiny/network/dtls/mbedtls/mbedtls-2.16.2/library/bignum.c **** 
 563:/home/xingli/share/1205tiny/network/dtls/mbedtls/mbedtls-2.16.2/library/bignum.c **** cleanup:
 564:/home/xingli/share/1205tiny/network/dtls/mbedtls/mbedtls-2.16.2/library/bignum.c **** 
 565:/home/xingli/share/1205tiny/network/dtls/mbedtls/mbedtls-2.16.2/library/bignum.c ****     return( ret );
 2142              		.loc 1 565 11
 2143 012d 8B45DC   		movl	-36(%rbp), %eax
 2144              	.L162:
 566:/home/xingli/share/1205tiny/network/dtls/mbedtls/mbedtls-2.16.2/library/bignum.c **** }
 2145              		.loc 1 566 1 discriminator 1
 2146 0130 488B75F8 		movq	-8(%rbp), %rsi
 2147 0134 64483334 		xorq	%fs:40, %rsi
 2147      25280000 
 2147      00
 2148 013d 7405     		je	.L163
 2149              		.loc 1 566 1 is_stmt 0
 2150 013f E8000000 		call	__stack_chk_fail@PLT
 2150      00
 2151              	.L163:
 2152 0144 C9       		leave
 2153              	.LCFI56:
 2154              		.cfi_def_cfa 7, 8
 2155 0145 C3       		ret
 2156              		.cfi_endproc
 2157              	.LFE24:
 2159              		.section	.rodata
 2160              	.LC0:
 2161 0000 30313233 		.string	"0123456789ABCDEF"
 2161      34353637 
 2161      38394142 
 2161      43444546 
 2161      00
 2162              		.section	.text.mbedtls_mpi_write_string,"ax",@progbits
 2163              		.globl	mbedtls_mpi_write_string
 2165              	mbedtls_mpi_write_string:
 2166              	.LFB25:
 567:/home/xingli/share/1205tiny/network/dtls/mbedtls/mbedtls-2.16.2/library/bignum.c **** 
 568:/home/xingli/share/1205tiny/network/dtls/mbedtls/mbedtls-2.16.2/library/bignum.c **** /*
GAS LISTING /tmp/ccFaOvob.s 			page 54


 569:/home/xingli/share/1205tiny/network/dtls/mbedtls/mbedtls-2.16.2/library/bignum.c ****  * Export into an ASCII string
 570:/home/xingli/share/1205tiny/network/dtls/mbedtls/mbedtls-2.16.2/library/bignum.c ****  */
 571:/home/xingli/share/1205tiny/network/dtls/mbedtls/mbedtls-2.16.2/library/bignum.c **** int mbedtls_mpi_write_string( const mbedtls_mpi *X, int radix,
 572:/home/xingli/share/1205tiny/network/dtls/mbedtls/mbedtls-2.16.2/library/bignum.c ****                               char *buf, size_t buflen, size_t *olen )
 573:/home/xingli/share/1205tiny/network/dtls/mbedtls/mbedtls-2.16.2/library/bignum.c **** {
 2167              		.loc 1 573 1 is_stmt 1
 2168              		.cfi_startproc
 2169 0000 F30F1EFA 		endbr64
 2170 0004 55       		pushq	%rbp
 2171              	.LCFI57:
 2172              		.cfi_def_cfa_offset 16
 2173              		.cfi_offset 6, -16
 2174 0005 4889E5   		movq	%rsp, %rbp
 2175              	.LCFI58:
 2176              		.cfi_def_cfa_register 6
 2177 0008 4883C480 		addq	$-128, %rsp
 2178 000c 48897DA8 		movq	%rdi, -88(%rbp)
 2179 0010 8975A4   		movl	%esi, -92(%rbp)
 2180 0013 48895598 		movq	%rdx, -104(%rbp)
 2181 0017 48894D90 		movq	%rcx, -112(%rbp)
 2182 001b 4C894588 		movq	%r8, -120(%rbp)
 2183              		.loc 1 573 1
 2184 001f 64488B04 		movq	%fs:40, %rax
 2184      25280000 
 2184      00
 2185 0028 488945F8 		movq	%rax, -8(%rbp)
 2186 002c 31C0     		xorl	%eax, %eax
 574:/home/xingli/share/1205tiny/network/dtls/mbedtls/mbedtls-2.16.2/library/bignum.c ****     int ret = 0;
 2187              		.loc 1 574 9
 2188 002e C745B000 		movl	$0, -80(%rbp)
 2188      000000
 575:/home/xingli/share/1205tiny/network/dtls/mbedtls/mbedtls-2.16.2/library/bignum.c ****     size_t n;
 576:/home/xingli/share/1205tiny/network/dtls/mbedtls/mbedtls-2.16.2/library/bignum.c ****     char *p;
 577:/home/xingli/share/1205tiny/network/dtls/mbedtls/mbedtls-2.16.2/library/bignum.c ****     mbedtls_mpi T;
 578:/home/xingli/share/1205tiny/network/dtls/mbedtls/mbedtls-2.16.2/library/bignum.c ****     MPI_VALIDATE_RET( X    != NULL );
 579:/home/xingli/share/1205tiny/network/dtls/mbedtls/mbedtls-2.16.2/library/bignum.c ****     MPI_VALIDATE_RET( olen != NULL );
 580:/home/xingli/share/1205tiny/network/dtls/mbedtls/mbedtls-2.16.2/library/bignum.c ****     MPI_VALIDATE_RET( buflen == 0 || buf != NULL );
 581:/home/xingli/share/1205tiny/network/dtls/mbedtls/mbedtls-2.16.2/library/bignum.c **** 
 582:/home/xingli/share/1205tiny/network/dtls/mbedtls/mbedtls-2.16.2/library/bignum.c ****     if( radix < 2 || radix > 16 )
 2189              		.loc 1 582 7
 2190 0035 837DA401 		cmpl	$1, -92(%rbp)
 2191 0039 7E06     		jle	.L167
 2192              		.loc 1 582 19 discriminator 1
 2193 003b 837DA410 		cmpl	$16, -92(%rbp)
 2194 003f 7E0A     		jle	.L168
 2195              	.L167:
 583:/home/xingli/share/1205tiny/network/dtls/mbedtls/mbedtls-2.16.2/library/bignum.c ****         return( MBEDTLS_ERR_MPI_BAD_INPUT_DATA );
 2196              		.loc 1 583 15
 2197 0041 B8FCFFFF 		movl	$-4, %eax
 2197      FF
 2198 0046 E91D0200 		jmp	.L185
 2198      00
 2199              	.L168:
 584:/home/xingli/share/1205tiny/network/dtls/mbedtls/mbedtls-2.16.2/library/bignum.c **** 
 585:/home/xingli/share/1205tiny/network/dtls/mbedtls/mbedtls-2.16.2/library/bignum.c ****     n = mbedtls_mpi_bitlen( X ); /* Number of bits necessary to present `n`. */
 2200              		.loc 1 585 9
 2201 004b 488B45A8 		movq	-88(%rbp), %rax
GAS LISTING /tmp/ccFaOvob.s 			page 55


 2202 004f 4889C7   		movq	%rax, %rdi
 2203 0052 E8000000 		call	mbedtls_mpi_bitlen
 2203      00
 2204 0057 488945C0 		movq	%rax, -64(%rbp)
 586:/home/xingli/share/1205tiny/network/dtls/mbedtls/mbedtls-2.16.2/library/bignum.c ****     if( radix >=  4 ) n >>= 1;   /* Number of 4-adic digits necessary to present
 2205              		.loc 1 586 7
 2206 005b 837DA403 		cmpl	$3, -92(%rbp)
 2207 005f 7E04     		jle	.L170
 2208              		.loc 1 586 25 discriminator 1
 2209 0061 48D16DC0 		shrq	-64(%rbp)
 2210              	.L170:
 587:/home/xingli/share/1205tiny/network/dtls/mbedtls/mbedtls-2.16.2/library/bignum.c ****                                   * `n`. If radix > 4, this might be a strict
 588:/home/xingli/share/1205tiny/network/dtls/mbedtls/mbedtls-2.16.2/library/bignum.c ****                                   * overapproximation of the number of
 589:/home/xingli/share/1205tiny/network/dtls/mbedtls/mbedtls-2.16.2/library/bignum.c ****                                   * radix-adic digits needed to present `n`. */
 590:/home/xingli/share/1205tiny/network/dtls/mbedtls/mbedtls-2.16.2/library/bignum.c ****     if( radix >= 16 ) n >>= 1;   /* Number of hexadecimal digits necessary to
 2211              		.loc 1 590 7
 2212 0065 837DA40F 		cmpl	$15, -92(%rbp)
 2213 0069 7E04     		jle	.L171
 2214              		.loc 1 590 25 discriminator 1
 2215 006b 48D16DC0 		shrq	-64(%rbp)
 2216              	.L171:
 591:/home/xingli/share/1205tiny/network/dtls/mbedtls/mbedtls-2.16.2/library/bignum.c ****                                   * present `n`. */
 592:/home/xingli/share/1205tiny/network/dtls/mbedtls/mbedtls-2.16.2/library/bignum.c **** 
 593:/home/xingli/share/1205tiny/network/dtls/mbedtls/mbedtls-2.16.2/library/bignum.c ****     n += 1; /* Terminating null byte */
 2217              		.loc 1 593 7
 2218 006f 488345C0 		addq	$1, -64(%rbp)
 2218      01
 594:/home/xingli/share/1205tiny/network/dtls/mbedtls/mbedtls-2.16.2/library/bignum.c ****     n += 1; /* Compensate for the divisions above, which round down `n`
 2219              		.loc 1 594 7
 2220 0074 488345C0 		addq	$1, -64(%rbp)
 2220      01
 595:/home/xingli/share/1205tiny/network/dtls/mbedtls/mbedtls-2.16.2/library/bignum.c ****              * in case it's not even. */
 596:/home/xingli/share/1205tiny/network/dtls/mbedtls/mbedtls-2.16.2/library/bignum.c ****     n += 1; /* Potential '-'-sign. */
 2221              		.loc 1 596 7
 2222 0079 488345C0 		addq	$1, -64(%rbp)
 2222      01
 597:/home/xingli/share/1205tiny/network/dtls/mbedtls/mbedtls-2.16.2/library/bignum.c ****     n += ( n & 1 ); /* Make n even to have enough space for hexadecimal writing,
 2223              		.loc 1 597 7
 2224 007e 488B45C0 		movq	-64(%rbp), %rax
 2225 0082 4883C001 		addq	$1, %rax
 2226 0086 4883E0FE 		andq	$-2, %rax
 2227 008a 488945C0 		movq	%rax, -64(%rbp)
 598:/home/xingli/share/1205tiny/network/dtls/mbedtls/mbedtls-2.16.2/library/bignum.c ****                      * which always uses an even number of hex-digits. */
 599:/home/xingli/share/1205tiny/network/dtls/mbedtls/mbedtls-2.16.2/library/bignum.c **** 
 600:/home/xingli/share/1205tiny/network/dtls/mbedtls/mbedtls-2.16.2/library/bignum.c ****     if( buflen < n )
 2228              		.loc 1 600 7
 2229 008e 488B4590 		movq	-112(%rbp), %rax
 2230 0092 483B45C0 		cmpq	-64(%rbp), %rax
 2231 0096 7315     		jnb	.L172
 601:/home/xingli/share/1205tiny/network/dtls/mbedtls/mbedtls-2.16.2/library/bignum.c ****     {
 602:/home/xingli/share/1205tiny/network/dtls/mbedtls/mbedtls-2.16.2/library/bignum.c ****         *olen = n;
 2232              		.loc 1 602 15
 2233 0098 488B4588 		movq	-120(%rbp), %rax
 2234 009c 488B55C0 		movq	-64(%rbp), %rdx
 2235 00a0 488910   		movq	%rdx, (%rax)
 603:/home/xingli/share/1205tiny/network/dtls/mbedtls/mbedtls-2.16.2/library/bignum.c ****         return( MBEDTLS_ERR_MPI_BUFFER_TOO_SMALL );
 2236              		.loc 1 603 15
GAS LISTING /tmp/ccFaOvob.s 			page 56


 2237 00a3 B8F8FFFF 		movl	$-8, %eax
 2237      FF
 2238 00a8 E9BB0100 		jmp	.L185
 2238      00
 2239              	.L172:
 604:/home/xingli/share/1205tiny/network/dtls/mbedtls/mbedtls-2.16.2/library/bignum.c ****     }
 605:/home/xingli/share/1205tiny/network/dtls/mbedtls/mbedtls-2.16.2/library/bignum.c **** 
 606:/home/xingli/share/1205tiny/network/dtls/mbedtls/mbedtls-2.16.2/library/bignum.c ****     p = buf;
 2240              		.loc 1 606 7
 2241 00ad 488B4598 		movq	-104(%rbp), %rax
 2242 00b1 488945B8 		movq	%rax, -72(%rbp)
 607:/home/xingli/share/1205tiny/network/dtls/mbedtls/mbedtls-2.16.2/library/bignum.c ****     mbedtls_mpi_init( &T );
 2243              		.loc 1 607 5
 2244 00b5 488D45E0 		leaq	-32(%rbp), %rax
 2245 00b9 4889C7   		movq	%rax, %rdi
 2246 00bc E8000000 		call	mbedtls_mpi_init
 2246      00
 608:/home/xingli/share/1205tiny/network/dtls/mbedtls/mbedtls-2.16.2/library/bignum.c **** 
 609:/home/xingli/share/1205tiny/network/dtls/mbedtls/mbedtls-2.16.2/library/bignum.c ****     if( X->s == -1 )
 2247              		.loc 1 609 10
 2248 00c1 488B45A8 		movq	-88(%rbp), %rax
 2249 00c5 8B00     		movl	(%rax), %eax
 2250              		.loc 1 609 7
 2251 00c7 83F8FF   		cmpl	$-1, %eax
 2252 00ca 7514     		jne	.L173
 610:/home/xingli/share/1205tiny/network/dtls/mbedtls/mbedtls-2.16.2/library/bignum.c ****     {
 611:/home/xingli/share/1205tiny/network/dtls/mbedtls/mbedtls-2.16.2/library/bignum.c ****         *p++ = '-';
 2253              		.loc 1 611 11
 2254 00cc 488B45B8 		movq	-72(%rbp), %rax
 2255 00d0 488D5001 		leaq	1(%rax), %rdx
 2256 00d4 488955B8 		movq	%rdx, -72(%rbp)
 2257              		.loc 1 611 14
 2258 00d8 C6002D   		movb	$45, (%rax)
 612:/home/xingli/share/1205tiny/network/dtls/mbedtls/mbedtls-2.16.2/library/bignum.c ****         buflen--;
 2259              		.loc 1 612 15
 2260 00db 48836D90 		subq	$1, -112(%rbp)
 2260      01
 2261              	.L173:
 613:/home/xingli/share/1205tiny/network/dtls/mbedtls/mbedtls-2.16.2/library/bignum.c ****     }
 614:/home/xingli/share/1205tiny/network/dtls/mbedtls/mbedtls-2.16.2/library/bignum.c **** 
 615:/home/xingli/share/1205tiny/network/dtls/mbedtls/mbedtls-2.16.2/library/bignum.c ****     if( radix == 16 )
 2262              		.loc 1 615 7
 2263 00e0 837DA410 		cmpl	$16, -92(%rbp)
 2264 00e4 0F85FD00 		jne	.L174
 2264      0000
 2265              	.LBB2:
 616:/home/xingli/share/1205tiny/network/dtls/mbedtls/mbedtls-2.16.2/library/bignum.c ****     {
 617:/home/xingli/share/1205tiny/network/dtls/mbedtls/mbedtls-2.16.2/library/bignum.c ****         int c;
 618:/home/xingli/share/1205tiny/network/dtls/mbedtls/mbedtls-2.16.2/library/bignum.c ****         size_t i, j, k;
 619:/home/xingli/share/1205tiny/network/dtls/mbedtls/mbedtls-2.16.2/library/bignum.c **** 
 620:/home/xingli/share/1205tiny/network/dtls/mbedtls/mbedtls-2.16.2/library/bignum.c ****         for( i = X->n, k = 0; i > 0; i-- )
 2266              		.loc 1 620 16
 2267 00ea 488B45A8 		movq	-88(%rbp), %rax
 2268 00ee 488B4008 		movq	8(%rax), %rax
 2269 00f2 488945C8 		movq	%rax, -56(%rbp)
 2270              		.loc 1 620 26
 2271 00f6 48C745D8 		movq	$0, -40(%rbp)
GAS LISTING /tmp/ccFaOvob.s 			page 57


 2271      00000000 
 2272              		.loc 1 620 9
 2273 00fe E9D70000 		jmp	.L175
 2273      00
 2274              	.L180:
 621:/home/xingli/share/1205tiny/network/dtls/mbedtls/mbedtls-2.16.2/library/bignum.c ****         {
 622:/home/xingli/share/1205tiny/network/dtls/mbedtls/mbedtls-2.16.2/library/bignum.c ****             for( j = ciL; j > 0; j-- )
 2275              		.loc 1 622 20
 2276 0103 48C745D0 		movq	$8, -48(%rbp)
 2276      08000000 
 2277              		.loc 1 622 13
 2278 010b E9BA0000 		jmp	.L176
 2278      00
 2279              	.L179:
 623:/home/xingli/share/1205tiny/network/dtls/mbedtls/mbedtls-2.16.2/library/bignum.c ****             {
 624:/home/xingli/share/1205tiny/network/dtls/mbedtls/mbedtls-2.16.2/library/bignum.c ****                 c = ( X->p[i - 1] >> ( ( j - 1 ) << 3) ) & 0xFF;
 2280              		.loc 1 624 24
 2281 0110 488B45A8 		movq	-88(%rbp), %rax
 2282 0114 488B4010 		movq	16(%rax), %rax
 2283              		.loc 1 624 27
 2284 0118 488B55C8 		movq	-56(%rbp), %rdx
 2285 011c 48C1E203 		salq	$3, %rdx
 2286 0120 4883EA08 		subq	$8, %rdx
 2287 0124 4801D0   		addq	%rdx, %rax
 2288 0127 488B10   		movq	(%rax), %rdx
 2289              		.loc 1 624 44
 2290 012a 488B45D0 		movq	-48(%rbp), %rax
 2291 012e 83E801   		subl	$1, %eax
 2292              		.loc 1 624 50
 2293 0131 C1E003   		sall	$3, %eax
 2294              		.loc 1 624 35
 2295 0134 89C1     		movl	%eax, %ecx
 2296 0136 48D3EA   		shrq	%cl, %rdx
 2297 0139 4889D0   		movq	%rdx, %rax
 2298              		.loc 1 624 19
 2299 013c 25FF0000 		andl	$255, %eax
 2299      00
 2300 0141 8945B4   		movl	%eax, -76(%rbp)
 625:/home/xingli/share/1205tiny/network/dtls/mbedtls/mbedtls-2.16.2/library/bignum.c **** 
 626:/home/xingli/share/1205tiny/network/dtls/mbedtls/mbedtls-2.16.2/library/bignum.c ****                 if( c == 0 && k == 0 && ( i + j ) != 2 )
 2301              		.loc 1 626 19
 2302 0144 837DB400 		cmpl	$0, -76(%rbp)
 2303 0148 7518     		jne	.L177
 2304              		.loc 1 626 28 discriminator 1
 2305 014a 48837DD8 		cmpq	$0, -40(%rbp)
 2305      00
 2306 014f 7511     		jne	.L177
 2307              		.loc 1 626 45 discriminator 2
 2308 0151 488B55C8 		movq	-56(%rbp), %rdx
 2309 0155 488B45D0 		movq	-48(%rbp), %rax
 2310 0159 4801D0   		addq	%rdx, %rax
 2311              		.loc 1 626 38 discriminator 2
 2312 015c 4883F802 		cmpq	$2, %rax
 2313 0160 7562     		jne	.L187
 2314              	.L177:
 627:/home/xingli/share/1205tiny/network/dtls/mbedtls/mbedtls-2.16.2/library/bignum.c ****                     continue;
 628:/home/xingli/share/1205tiny/network/dtls/mbedtls/mbedtls-2.16.2/library/bignum.c **** 
GAS LISTING /tmp/ccFaOvob.s 			page 58


 629:/home/xingli/share/1205tiny/network/dtls/mbedtls/mbedtls-2.16.2/library/bignum.c ****                 *(p++) = "0123456789ABCDEF" [c / 16];
 2315              		.loc 1 629 48
 2316 0162 8B45B4   		movl	-76(%rbp), %eax
 2317 0165 8D500F   		leal	15(%rax), %edx
 2318 0168 85C0     		testl	%eax, %eax
 2319 016a 0F48C2   		cmovs	%edx, %eax
 2320 016d C1F804   		sarl	$4, %eax
 2321 0170 89C1     		movl	%eax, %ecx
 2322              		.loc 1 629 20
 2323 0172 488B45B8 		movq	-72(%rbp), %rax
 2324 0176 488D5001 		leaq	1(%rax), %rdx
 2325 017a 488955B8 		movq	%rdx, -72(%rbp)
 2326              		.loc 1 629 45
 2327 017e 4863D1   		movslq	%ecx, %rdx
 2328 0181 488D0D00 		leaq	.LC0(%rip), %rcx
 2328      000000
 2329 0188 0FB6140A 		movzbl	(%rdx,%rcx), %edx
 2330              		.loc 1 629 24
 2331 018c 8810     		movb	%dl, (%rax)
 630:/home/xingli/share/1205tiny/network/dtls/mbedtls/mbedtls-2.16.2/library/bignum.c ****                 *(p++) = "0123456789ABCDEF" [c % 16];
 2332              		.loc 1 630 48
 2333 018e 8B45B4   		movl	-76(%rbp), %eax
 2334 0191 99       		cltd
 2335 0192 C1EA1C   		shrl	$28, %edx
 2336 0195 01D0     		addl	%edx, %eax
 2337 0197 83E00F   		andl	$15, %eax
 2338 019a 29D0     		subl	%edx, %eax
 2339 019c 89C1     		movl	%eax, %ecx
 2340              		.loc 1 630 20
 2341 019e 488B45B8 		movq	-72(%rbp), %rax
 2342 01a2 488D5001 		leaq	1(%rax), %rdx
 2343 01a6 488955B8 		movq	%rdx, -72(%rbp)
 2344              		.loc 1 630 45
 2345 01aa 4863D1   		movslq	%ecx, %rdx
 2346 01ad 488D0D00 		leaq	.LC0(%rip), %rcx
 2346      000000
 2347 01b4 0FB6140A 		movzbl	(%rdx,%rcx), %edx
 2348              		.loc 1 630 24
 2349 01b8 8810     		movb	%dl, (%rax)
 631:/home/xingli/share/1205tiny/network/dtls/mbedtls/mbedtls-2.16.2/library/bignum.c ****                 k = 1;
 2350              		.loc 1 631 19
 2351 01ba 48C745D8 		movq	$1, -40(%rbp)
 2351      01000000 
 2352 01c2 EB01     		jmp	.L178
 2353              	.L187:
 627:/home/xingli/share/1205tiny/network/dtls/mbedtls/mbedtls-2.16.2/library/bignum.c ****                     continue;
 2354              		.loc 1 627 21
 2355 01c4 90       		nop
 2356              	.L178:
 622:/home/xingli/share/1205tiny/network/dtls/mbedtls/mbedtls-2.16.2/library/bignum.c ****             {
 2357              		.loc 1 622 35 discriminator 2
 2358 01c5 48836DD0 		subq	$1, -48(%rbp)
 2358      01
 2359              	.L176:
 622:/home/xingli/share/1205tiny/network/dtls/mbedtls/mbedtls-2.16.2/library/bignum.c ****             {
 2360              		.loc 1 622 13 discriminator 1
 2361 01ca 48837DD0 		cmpq	$0, -48(%rbp)
GAS LISTING /tmp/ccFaOvob.s 			page 59


 2361      00
 2362 01cf 0F853BFF 		jne	.L179
 2362      FFFF
 620:/home/xingli/share/1205tiny/network/dtls/mbedtls/mbedtls-2.16.2/library/bignum.c ****         {
 2363              		.loc 1 620 39 discriminator 2
 2364 01d5 48836DC8 		subq	$1, -56(%rbp)
 2364      01
 2365              	.L175:
 620:/home/xingli/share/1205tiny/network/dtls/mbedtls/mbedtls-2.16.2/library/bignum.c ****         {
 2366              		.loc 1 620 9 discriminator 1
 2367 01da 48837DC8 		cmpq	$0, -56(%rbp)
 2367      00
 2368 01df 0F851EFF 		jne	.L180
 2368      FFFF
 2369 01e5 EB4B     		jmp	.L181
 2370              	.L174:
 2371              	.LBE2:
 632:/home/xingli/share/1205tiny/network/dtls/mbedtls/mbedtls-2.16.2/library/bignum.c ****             }
 633:/home/xingli/share/1205tiny/network/dtls/mbedtls/mbedtls-2.16.2/library/bignum.c ****         }
 634:/home/xingli/share/1205tiny/network/dtls/mbedtls/mbedtls-2.16.2/library/bignum.c ****     }
 635:/home/xingli/share/1205tiny/network/dtls/mbedtls/mbedtls-2.16.2/library/bignum.c ****     else
 636:/home/xingli/share/1205tiny/network/dtls/mbedtls/mbedtls-2.16.2/library/bignum.c ****     {
 637:/home/xingli/share/1205tiny/network/dtls/mbedtls/mbedtls-2.16.2/library/bignum.c ****         MBEDTLS_MPI_CHK( mbedtls_mpi_copy( &T, X ) );
 2372              		.loc 1 637 9
 2373 01e7 488B55A8 		movq	-88(%rbp), %rdx
 2374 01eb 488D45E0 		leaq	-32(%rbp), %rax
 2375 01ef 4889D6   		movq	%rdx, %rsi
 2376 01f2 4889C7   		movq	%rax, %rdi
 2377 01f5 E8000000 		call	mbedtls_mpi_copy
 2377      00
 2378 01fa 8945B0   		movl	%eax, -80(%rbp)
 2379 01fd 837DB000 		cmpl	$0, -80(%rbp)
 2380 0201 7552     		jne	.L188
 638:/home/xingli/share/1205tiny/network/dtls/mbedtls/mbedtls-2.16.2/library/bignum.c **** 
 639:/home/xingli/share/1205tiny/network/dtls/mbedtls/mbedtls-2.16.2/library/bignum.c ****         if( T.s == -1 )
 2381              		.loc 1 639 14
 2382 0203 8B45E0   		movl	-32(%rbp), %eax
 2383              		.loc 1 639 11
 2384 0206 83F8FF   		cmpl	$-1, %eax
 2385 0209 7507     		jne	.L184
 640:/home/xingli/share/1205tiny/network/dtls/mbedtls/mbedtls-2.16.2/library/bignum.c ****             T.s = 1;
 2386              		.loc 1 640 17
 2387 020b C745E001 		movl	$1, -32(%rbp)
 2387      000000
 2388              	.L184:
 641:/home/xingli/share/1205tiny/network/dtls/mbedtls/mbedtls-2.16.2/library/bignum.c **** 
 642:/home/xingli/share/1205tiny/network/dtls/mbedtls/mbedtls-2.16.2/library/bignum.c ****         MBEDTLS_MPI_CHK( mpi_write_hlp( &T, radix, &p, buflen ) );
 2389              		.loc 1 642 9
 2390 0212 488B4D90 		movq	-112(%rbp), %rcx
 2391 0216 488D55B8 		leaq	-72(%rbp), %rdx
 2392 021a 8B75A4   		movl	-92(%rbp), %esi
 2393 021d 488D45E0 		leaq	-32(%rbp), %rax
 2394 0221 4889C7   		movq	%rax, %rdi
 2395 0224 E8000000 		call	mpi_write_hlp
 2395      00
 2396 0229 8945B0   		movl	%eax, -80(%rbp)
 2397 022c 837DB000 		cmpl	$0, -80(%rbp)
GAS LISTING /tmp/ccFaOvob.s 			page 60


 2398 0230 7526     		jne	.L189
 2399              	.L181:
 643:/home/xingli/share/1205tiny/network/dtls/mbedtls/mbedtls-2.16.2/library/bignum.c ****     }
 644:/home/xingli/share/1205tiny/network/dtls/mbedtls/mbedtls-2.16.2/library/bignum.c **** 
 645:/home/xingli/share/1205tiny/network/dtls/mbedtls/mbedtls-2.16.2/library/bignum.c ****     *p++ = '\0';
 2400              		.loc 1 645 7
 2401 0232 488B45B8 		movq	-72(%rbp), %rax
 2402 0236 488D5001 		leaq	1(%rax), %rdx
 2403 023a 488955B8 		movq	%rdx, -72(%rbp)
 2404              		.loc 1 645 10
 2405 023e C60000   		movb	$0, (%rax)
 646:/home/xingli/share/1205tiny/network/dtls/mbedtls/mbedtls-2.16.2/library/bignum.c ****     *olen = p - buf;
 2406              		.loc 1 646 15
 2407 0241 488B45B8 		movq	-72(%rbp), %rax
 2408 0245 482B4598 		subq	-104(%rbp), %rax
 2409 0249 4889C2   		movq	%rax, %rdx
 2410              		.loc 1 646 11
 2411 024c 488B4588 		movq	-120(%rbp), %rax
 2412 0250 488910   		movq	%rdx, (%rax)
 2413 0253 EB04     		jmp	.L183
 2414              	.L188:
 637:/home/xingli/share/1205tiny/network/dtls/mbedtls/mbedtls-2.16.2/library/bignum.c **** 
 2415              		.loc 1 637 9
 2416 0255 90       		nop
 2417 0256 EB01     		jmp	.L183
 2418              	.L189:
 642:/home/xingli/share/1205tiny/network/dtls/mbedtls/mbedtls-2.16.2/library/bignum.c ****     }
 2419              		.loc 1 642 9
 2420 0258 90       		nop
 2421              	.L183:
 647:/home/xingli/share/1205tiny/network/dtls/mbedtls/mbedtls-2.16.2/library/bignum.c **** 
 648:/home/xingli/share/1205tiny/network/dtls/mbedtls/mbedtls-2.16.2/library/bignum.c **** cleanup:
 649:/home/xingli/share/1205tiny/network/dtls/mbedtls/mbedtls-2.16.2/library/bignum.c **** 
 650:/home/xingli/share/1205tiny/network/dtls/mbedtls/mbedtls-2.16.2/library/bignum.c ****     mbedtls_mpi_free( &T );
 2422              		.loc 1 650 5
 2423 0259 488D45E0 		leaq	-32(%rbp), %rax
 2424 025d 4889C7   		movq	%rax, %rdi
 2425 0260 E8000000 		call	mbedtls_mpi_free
 2425      00
 651:/home/xingli/share/1205tiny/network/dtls/mbedtls/mbedtls-2.16.2/library/bignum.c **** 
 652:/home/xingli/share/1205tiny/network/dtls/mbedtls/mbedtls-2.16.2/library/bignum.c ****     return( ret );
 2426              		.loc 1 652 11
 2427 0265 8B45B0   		movl	-80(%rbp), %eax
 2428              	.L185:
 653:/home/xingli/share/1205tiny/network/dtls/mbedtls/mbedtls-2.16.2/library/bignum.c **** }
 2429              		.loc 1 653 1 discriminator 1
 2430 0268 488B75F8 		movq	-8(%rbp), %rsi
 2431 026c 64483334 		xorq	%fs:40, %rsi
 2431      25280000 
 2431      00
 2432 0275 7405     		je	.L186
 2433              		.loc 1 653 1 is_stmt 0
 2434 0277 E8000000 		call	__stack_chk_fail@PLT
 2434      00
 2435              	.L186:
 2436 027c C9       		leave
 2437              	.LCFI59:
GAS LISTING /tmp/ccFaOvob.s 			page 61


 2438              		.cfi_def_cfa 7, 8
 2439 027d C3       		ret
 2440              		.cfi_endproc
 2441              	.LFE25:
 2443              		.section	.text.mpi_uint_bigendian_to_host_c,"ax",@progbits
 2445              	mpi_uint_bigendian_to_host_c:
 2446              	.LFB26:
 654:/home/xingli/share/1205tiny/network/dtls/mbedtls/mbedtls-2.16.2/library/bignum.c **** 
 655:/home/xingli/share/1205tiny/network/dtls/mbedtls/mbedtls-2.16.2/library/bignum.c **** #if defined(MBEDTLS_FS_IO)
 656:/home/xingli/share/1205tiny/network/dtls/mbedtls/mbedtls-2.16.2/library/bignum.c **** /*
 657:/home/xingli/share/1205tiny/network/dtls/mbedtls/mbedtls-2.16.2/library/bignum.c ****  * Read X from an opened file
 658:/home/xingli/share/1205tiny/network/dtls/mbedtls/mbedtls-2.16.2/library/bignum.c ****  */
 659:/home/xingli/share/1205tiny/network/dtls/mbedtls/mbedtls-2.16.2/library/bignum.c **** int mbedtls_mpi_read_file( mbedtls_mpi *X, int radix, FILE *fin )
 660:/home/xingli/share/1205tiny/network/dtls/mbedtls/mbedtls-2.16.2/library/bignum.c **** {
 661:/home/xingli/share/1205tiny/network/dtls/mbedtls/mbedtls-2.16.2/library/bignum.c ****     mbedtls_mpi_uint d;
 662:/home/xingli/share/1205tiny/network/dtls/mbedtls/mbedtls-2.16.2/library/bignum.c ****     size_t slen;
 663:/home/xingli/share/1205tiny/network/dtls/mbedtls/mbedtls-2.16.2/library/bignum.c ****     char *p;
 664:/home/xingli/share/1205tiny/network/dtls/mbedtls/mbedtls-2.16.2/library/bignum.c ****     /*
 665:/home/xingli/share/1205tiny/network/dtls/mbedtls/mbedtls-2.16.2/library/bignum.c ****      * Buffer should have space for (short) label and decimal formatted MPI,
 666:/home/xingli/share/1205tiny/network/dtls/mbedtls/mbedtls-2.16.2/library/bignum.c ****      * newline characters and '\0'
 667:/home/xingli/share/1205tiny/network/dtls/mbedtls/mbedtls-2.16.2/library/bignum.c ****      */
 668:/home/xingli/share/1205tiny/network/dtls/mbedtls/mbedtls-2.16.2/library/bignum.c ****     char s[ MBEDTLS_MPI_RW_BUFFER_SIZE ];
 669:/home/xingli/share/1205tiny/network/dtls/mbedtls/mbedtls-2.16.2/library/bignum.c **** 
 670:/home/xingli/share/1205tiny/network/dtls/mbedtls/mbedtls-2.16.2/library/bignum.c ****     MPI_VALIDATE_RET( X   != NULL );
 671:/home/xingli/share/1205tiny/network/dtls/mbedtls/mbedtls-2.16.2/library/bignum.c ****     MPI_VALIDATE_RET( fin != NULL );
 672:/home/xingli/share/1205tiny/network/dtls/mbedtls/mbedtls-2.16.2/library/bignum.c **** 
 673:/home/xingli/share/1205tiny/network/dtls/mbedtls/mbedtls-2.16.2/library/bignum.c ****     if( radix < 2 || radix > 16 )
 674:/home/xingli/share/1205tiny/network/dtls/mbedtls/mbedtls-2.16.2/library/bignum.c ****         return( MBEDTLS_ERR_MPI_BAD_INPUT_DATA );
 675:/home/xingli/share/1205tiny/network/dtls/mbedtls/mbedtls-2.16.2/library/bignum.c **** 
 676:/home/xingli/share/1205tiny/network/dtls/mbedtls/mbedtls-2.16.2/library/bignum.c ****     memset( s, 0, sizeof( s ) );
 677:/home/xingli/share/1205tiny/network/dtls/mbedtls/mbedtls-2.16.2/library/bignum.c ****     if( fgets( s, sizeof( s ) - 1, fin ) == NULL )
 678:/home/xingli/share/1205tiny/network/dtls/mbedtls/mbedtls-2.16.2/library/bignum.c ****         return( MBEDTLS_ERR_MPI_FILE_IO_ERROR );
 679:/home/xingli/share/1205tiny/network/dtls/mbedtls/mbedtls-2.16.2/library/bignum.c **** 
 680:/home/xingli/share/1205tiny/network/dtls/mbedtls/mbedtls-2.16.2/library/bignum.c ****     slen = strlen( s );
 681:/home/xingli/share/1205tiny/network/dtls/mbedtls/mbedtls-2.16.2/library/bignum.c ****     if( slen == sizeof( s ) - 2 )
 682:/home/xingli/share/1205tiny/network/dtls/mbedtls/mbedtls-2.16.2/library/bignum.c ****         return( MBEDTLS_ERR_MPI_BUFFER_TOO_SMALL );
 683:/home/xingli/share/1205tiny/network/dtls/mbedtls/mbedtls-2.16.2/library/bignum.c **** 
 684:/home/xingli/share/1205tiny/network/dtls/mbedtls/mbedtls-2.16.2/library/bignum.c ****     if( slen > 0 && s[slen - 1] == '\n' ) { slen--; s[slen] = '\0'; }
 685:/home/xingli/share/1205tiny/network/dtls/mbedtls/mbedtls-2.16.2/library/bignum.c ****     if( slen > 0 && s[slen - 1] == '\r' ) { slen--; s[slen] = '\0'; }
 686:/home/xingli/share/1205tiny/network/dtls/mbedtls/mbedtls-2.16.2/library/bignum.c **** 
 687:/home/xingli/share/1205tiny/network/dtls/mbedtls/mbedtls-2.16.2/library/bignum.c ****     p = s + slen;
 688:/home/xingli/share/1205tiny/network/dtls/mbedtls/mbedtls-2.16.2/library/bignum.c ****     while( p-- > s )
 689:/home/xingli/share/1205tiny/network/dtls/mbedtls/mbedtls-2.16.2/library/bignum.c ****         if( mpi_get_digit( &d, radix, *p ) != 0 )
 690:/home/xingli/share/1205tiny/network/dtls/mbedtls/mbedtls-2.16.2/library/bignum.c ****             break;
 691:/home/xingli/share/1205tiny/network/dtls/mbedtls/mbedtls-2.16.2/library/bignum.c **** 
 692:/home/xingli/share/1205tiny/network/dtls/mbedtls/mbedtls-2.16.2/library/bignum.c ****     return( mbedtls_mpi_read_string( X, radix, p + 1 ) );
 693:/home/xingli/share/1205tiny/network/dtls/mbedtls/mbedtls-2.16.2/library/bignum.c **** }
 694:/home/xingli/share/1205tiny/network/dtls/mbedtls/mbedtls-2.16.2/library/bignum.c **** 
 695:/home/xingli/share/1205tiny/network/dtls/mbedtls/mbedtls-2.16.2/library/bignum.c **** /*
 696:/home/xingli/share/1205tiny/network/dtls/mbedtls/mbedtls-2.16.2/library/bignum.c ****  * Write X into an opened file (or stdout if fout == NULL)
 697:/home/xingli/share/1205tiny/network/dtls/mbedtls/mbedtls-2.16.2/library/bignum.c ****  */
 698:/home/xingli/share/1205tiny/network/dtls/mbedtls/mbedtls-2.16.2/library/bignum.c **** int mbedtls_mpi_write_file( const char *p, const mbedtls_mpi *X, int radix, FILE *fout )
 699:/home/xingli/share/1205tiny/network/dtls/mbedtls/mbedtls-2.16.2/library/bignum.c **** {
 700:/home/xingli/share/1205tiny/network/dtls/mbedtls/mbedtls-2.16.2/library/bignum.c ****     int ret;
 701:/home/xingli/share/1205tiny/network/dtls/mbedtls/mbedtls-2.16.2/library/bignum.c ****     size_t n, slen, plen;
 702:/home/xingli/share/1205tiny/network/dtls/mbedtls/mbedtls-2.16.2/library/bignum.c ****     /*
 703:/home/xingli/share/1205tiny/network/dtls/mbedtls/mbedtls-2.16.2/library/bignum.c ****      * Buffer should have space for (short) label and decimal formatted MPI,
GAS LISTING /tmp/ccFaOvob.s 			page 62


 704:/home/xingli/share/1205tiny/network/dtls/mbedtls/mbedtls-2.16.2/library/bignum.c ****      * newline characters and '\0'
 705:/home/xingli/share/1205tiny/network/dtls/mbedtls/mbedtls-2.16.2/library/bignum.c ****      */
 706:/home/xingli/share/1205tiny/network/dtls/mbedtls/mbedtls-2.16.2/library/bignum.c ****     char s[ MBEDTLS_MPI_RW_BUFFER_SIZE ];
 707:/home/xingli/share/1205tiny/network/dtls/mbedtls/mbedtls-2.16.2/library/bignum.c ****     MPI_VALIDATE_RET( X != NULL );
 708:/home/xingli/share/1205tiny/network/dtls/mbedtls/mbedtls-2.16.2/library/bignum.c **** 
 709:/home/xingli/share/1205tiny/network/dtls/mbedtls/mbedtls-2.16.2/library/bignum.c ****     if( radix < 2 || radix > 16 )
 710:/home/xingli/share/1205tiny/network/dtls/mbedtls/mbedtls-2.16.2/library/bignum.c ****         return( MBEDTLS_ERR_MPI_BAD_INPUT_DATA );
 711:/home/xingli/share/1205tiny/network/dtls/mbedtls/mbedtls-2.16.2/library/bignum.c **** 
 712:/home/xingli/share/1205tiny/network/dtls/mbedtls/mbedtls-2.16.2/library/bignum.c ****     memset( s, 0, sizeof( s ) );
 713:/home/xingli/share/1205tiny/network/dtls/mbedtls/mbedtls-2.16.2/library/bignum.c **** 
 714:/home/xingli/share/1205tiny/network/dtls/mbedtls/mbedtls-2.16.2/library/bignum.c ****     MBEDTLS_MPI_CHK( mbedtls_mpi_write_string( X, radix, s, sizeof( s ) - 2, &n ) );
 715:/home/xingli/share/1205tiny/network/dtls/mbedtls/mbedtls-2.16.2/library/bignum.c **** 
 716:/home/xingli/share/1205tiny/network/dtls/mbedtls/mbedtls-2.16.2/library/bignum.c ****     if( p == NULL ) p = "";
 717:/home/xingli/share/1205tiny/network/dtls/mbedtls/mbedtls-2.16.2/library/bignum.c **** 
 718:/home/xingli/share/1205tiny/network/dtls/mbedtls/mbedtls-2.16.2/library/bignum.c ****     plen = strlen( p );
 719:/home/xingli/share/1205tiny/network/dtls/mbedtls/mbedtls-2.16.2/library/bignum.c ****     slen = strlen( s );
 720:/home/xingli/share/1205tiny/network/dtls/mbedtls/mbedtls-2.16.2/library/bignum.c ****     s[slen++] = '\r';
 721:/home/xingli/share/1205tiny/network/dtls/mbedtls/mbedtls-2.16.2/library/bignum.c ****     s[slen++] = '\n';
 722:/home/xingli/share/1205tiny/network/dtls/mbedtls/mbedtls-2.16.2/library/bignum.c **** 
 723:/home/xingli/share/1205tiny/network/dtls/mbedtls/mbedtls-2.16.2/library/bignum.c ****     if( fout != NULL )
 724:/home/xingli/share/1205tiny/network/dtls/mbedtls/mbedtls-2.16.2/library/bignum.c ****     {
 725:/home/xingli/share/1205tiny/network/dtls/mbedtls/mbedtls-2.16.2/library/bignum.c ****         if( fwrite( p, 1, plen, fout ) != plen ||
 726:/home/xingli/share/1205tiny/network/dtls/mbedtls/mbedtls-2.16.2/library/bignum.c ****             fwrite( s, 1, slen, fout ) != slen )
 727:/home/xingli/share/1205tiny/network/dtls/mbedtls/mbedtls-2.16.2/library/bignum.c ****             return( MBEDTLS_ERR_MPI_FILE_IO_ERROR );
 728:/home/xingli/share/1205tiny/network/dtls/mbedtls/mbedtls-2.16.2/library/bignum.c ****     }
 729:/home/xingli/share/1205tiny/network/dtls/mbedtls/mbedtls-2.16.2/library/bignum.c ****     else
 730:/home/xingli/share/1205tiny/network/dtls/mbedtls/mbedtls-2.16.2/library/bignum.c ****         mbedtls_printf( "%s%s", p, s );
 731:/home/xingli/share/1205tiny/network/dtls/mbedtls/mbedtls-2.16.2/library/bignum.c **** 
 732:/home/xingli/share/1205tiny/network/dtls/mbedtls/mbedtls-2.16.2/library/bignum.c **** cleanup:
 733:/home/xingli/share/1205tiny/network/dtls/mbedtls/mbedtls-2.16.2/library/bignum.c **** 
 734:/home/xingli/share/1205tiny/network/dtls/mbedtls/mbedtls-2.16.2/library/bignum.c ****     return( ret );
 735:/home/xingli/share/1205tiny/network/dtls/mbedtls/mbedtls-2.16.2/library/bignum.c **** }
 736:/home/xingli/share/1205tiny/network/dtls/mbedtls/mbedtls-2.16.2/library/bignum.c **** #endif /* MBEDTLS_FS_IO */
 737:/home/xingli/share/1205tiny/network/dtls/mbedtls/mbedtls-2.16.2/library/bignum.c **** 
 738:/home/xingli/share/1205tiny/network/dtls/mbedtls/mbedtls-2.16.2/library/bignum.c **** 
 739:/home/xingli/share/1205tiny/network/dtls/mbedtls/mbedtls-2.16.2/library/bignum.c **** /* Convert a big-endian byte array aligned to the size of mbedtls_mpi_uint
 740:/home/xingli/share/1205tiny/network/dtls/mbedtls/mbedtls-2.16.2/library/bignum.c ****  * into the storage form used by mbedtls_mpi. */
 741:/home/xingli/share/1205tiny/network/dtls/mbedtls/mbedtls-2.16.2/library/bignum.c **** 
 742:/home/xingli/share/1205tiny/network/dtls/mbedtls/mbedtls-2.16.2/library/bignum.c **** static mbedtls_mpi_uint mpi_uint_bigendian_to_host_c( mbedtls_mpi_uint x )
 743:/home/xingli/share/1205tiny/network/dtls/mbedtls/mbedtls-2.16.2/library/bignum.c **** {
 2447              		.loc 1 743 1 is_stmt 1
 2448              		.cfi_startproc
 2449 0000 F30F1EFA 		endbr64
 2450 0004 55       		pushq	%rbp
 2451              	.LCFI60:
 2452              		.cfi_def_cfa_offset 16
 2453              		.cfi_offset 6, -16
 2454 0005 4889E5   		movq	%rsp, %rbp
 2455              	.LCFI61:
 2456              		.cfi_def_cfa_register 6
 2457 0008 4883EC30 		subq	$48, %rsp
 2458 000c 48897DD8 		movq	%rdi, -40(%rbp)
 2459              		.loc 1 743 1
 2460 0010 64488B04 		movq	%fs:40, %rax
 2460      25280000 
 2460      00
 2461 0019 488945F8 		movq	%rax, -8(%rbp)
GAS LISTING /tmp/ccFaOvob.s 			page 63


 2462 001d 31C0     		xorl	%eax, %eax
 744:/home/xingli/share/1205tiny/network/dtls/mbedtls/mbedtls-2.16.2/library/bignum.c ****     uint8_t i;
 745:/home/xingli/share/1205tiny/network/dtls/mbedtls/mbedtls-2.16.2/library/bignum.c ****     mbedtls_mpi_uint tmp = 0;
 2463              		.loc 1 745 22
 2464 001f 48C745F0 		movq	$0, -16(%rbp)
 2464      00000000 
 746:/home/xingli/share/1205tiny/network/dtls/mbedtls/mbedtls-2.16.2/library/bignum.c ****     /* This works regardless of the endianness. */
 747:/home/xingli/share/1205tiny/network/dtls/mbedtls/mbedtls-2.16.2/library/bignum.c ****     for( i = 0; i < ciL; i++, x >>= 8 )
 2465              		.loc 1 747 12
 2466 0027 C645EF00 		movb	$0, -17(%rbp)
 2467              		.loc 1 747 5
 2468 002b EB32     		jmp	.L191
 2469              	.L192:
 748:/home/xingli/share/1205tiny/network/dtls/mbedtls/mbedtls-2.16.2/library/bignum.c ****         tmp |= ( x & 0xFF ) << ( ( ciL - 1 - i ) << 3 );
 2470              		.loc 1 748 20 discriminator 3
 2471 002d 488B45D8 		movq	-40(%rbp), %rax
 2472 0031 0FB6D0   		movzbl	%al, %edx
 2473              		.loc 1 748 44 discriminator 3
 2474 0034 0FB645EF 		movzbl	-17(%rbp), %eax
 2475 0038 B9070000 		movl	$7, %ecx
 2475      00
 2476 003d 29C1     		subl	%eax, %ecx
 2477 003f 89C8     		movl	%ecx, %eax
 2478              		.loc 1 748 50 discriminator 3
 2479 0041 C1E003   		sall	$3, %eax
 2480              		.loc 1 748 29 discriminator 3
 2481 0044 89C1     		movl	%eax, %ecx
 2482 0046 48D3E2   		salq	%cl, %rdx
 2483 0049 4889D0   		movq	%rdx, %rax
 2484              		.loc 1 748 13 discriminator 3
 2485 004c 480945F0 		orq	%rax, -16(%rbp)
 747:/home/xingli/share/1205tiny/network/dtls/mbedtls/mbedtls-2.16.2/library/bignum.c ****         tmp |= ( x & 0xFF ) << ( ( ciL - 1 - i ) << 3 );
 2486              		.loc 1 747 27 discriminator 3
 2487 0050 0FB645EF 		movzbl	-17(%rbp), %eax
 2488 0054 83C001   		addl	$1, %eax
 2489 0057 8845EF   		movb	%al, -17(%rbp)
 747:/home/xingli/share/1205tiny/network/dtls/mbedtls/mbedtls-2.16.2/library/bignum.c ****         tmp |= ( x & 0xFF ) << ( ( ciL - 1 - i ) << 3 );
 2490              		.loc 1 747 33 discriminator 3
 2491 005a 48C16DD8 		shrq	$8, -40(%rbp)
 2491      08
 2492              	.L191:
 747:/home/xingli/share/1205tiny/network/dtls/mbedtls/mbedtls-2.16.2/library/bignum.c ****         tmp |= ( x & 0xFF ) << ( ( ciL - 1 - i ) << 3 );
 2493              		.loc 1 747 5 discriminator 1
 2494 005f 807DEF07 		cmpb	$7, -17(%rbp)
 2495 0063 76C8     		jbe	.L192
 749:/home/xingli/share/1205tiny/network/dtls/mbedtls/mbedtls-2.16.2/library/bignum.c ****     return( tmp );
 2496              		.loc 1 749 11
 2497 0065 488B45F0 		movq	-16(%rbp), %rax
 750:/home/xingli/share/1205tiny/network/dtls/mbedtls/mbedtls-2.16.2/library/bignum.c **** }
 2498              		.loc 1 750 1
 2499 0069 488B75F8 		movq	-8(%rbp), %rsi
 2500 006d 64483334 		xorq	%fs:40, %rsi
 2500      25280000 
 2500      00
 2501 0076 7405     		je	.L194
 2502 0078 E8000000 		call	__stack_chk_fail@PLT
 2502      00
GAS LISTING /tmp/ccFaOvob.s 			page 64


 2503              	.L194:
 2504 007d C9       		leave
 2505              	.LCFI62:
 2506              		.cfi_def_cfa 7, 8
 2507 007e C3       		ret
 2508              		.cfi_endproc
 2509              	.LFE26:
 2511              		.section	.text.mpi_uint_bigendian_to_host,"ax",@progbits
 2513              	mpi_uint_bigendian_to_host:
 2514              	.LFB27:
 751:/home/xingli/share/1205tiny/network/dtls/mbedtls/mbedtls-2.16.2/library/bignum.c **** 
 752:/home/xingli/share/1205tiny/network/dtls/mbedtls/mbedtls-2.16.2/library/bignum.c **** static mbedtls_mpi_uint mpi_uint_bigendian_to_host( mbedtls_mpi_uint x )
 753:/home/xingli/share/1205tiny/network/dtls/mbedtls/mbedtls-2.16.2/library/bignum.c **** {
 2515              		.loc 1 753 1
 2516              		.cfi_startproc
 2517 0000 F30F1EFA 		endbr64
 2518 0004 55       		pushq	%rbp
 2519              	.LCFI63:
 2520              		.cfi_def_cfa_offset 16
 2521              		.cfi_offset 6, -16
 2522 0005 4889E5   		movq	%rsp, %rbp
 2523              	.LCFI64:
 2524              		.cfi_def_cfa_register 6
 2525 0008 4883EC20 		subq	$32, %rsp
 2526 000c 48897DE8 		movq	%rdi, -24(%rbp)
 2527              		.loc 1 753 1
 2528 0010 64488B04 		movq	%fs:40, %rax
 2528      25280000 
 2528      00
 2529 0019 488945F8 		movq	%rax, -8(%rbp)
 2530 001d 31C0     		xorl	%eax, %eax
 754:/home/xingli/share/1205tiny/network/dtls/mbedtls/mbedtls-2.16.2/library/bignum.c **** #if defined(__BYTE_ORDER__)
 755:/home/xingli/share/1205tiny/network/dtls/mbedtls/mbedtls-2.16.2/library/bignum.c **** 
 756:/home/xingli/share/1205tiny/network/dtls/mbedtls/mbedtls-2.16.2/library/bignum.c **** /* Nothing to do on bigendian systems. */
 757:/home/xingli/share/1205tiny/network/dtls/mbedtls/mbedtls-2.16.2/library/bignum.c **** #if ( __BYTE_ORDER__ == __ORDER_BIG_ENDIAN__ )
 758:/home/xingli/share/1205tiny/network/dtls/mbedtls/mbedtls-2.16.2/library/bignum.c ****     return( x );
 759:/home/xingli/share/1205tiny/network/dtls/mbedtls/mbedtls-2.16.2/library/bignum.c **** #endif /* __BYTE_ORDER__ == __ORDER_BIG_ENDIAN__ */
 760:/home/xingli/share/1205tiny/network/dtls/mbedtls/mbedtls-2.16.2/library/bignum.c **** 
 761:/home/xingli/share/1205tiny/network/dtls/mbedtls/mbedtls-2.16.2/library/bignum.c **** #if ( __BYTE_ORDER__ == __ORDER_LITTLE_ENDIAN__ )
 762:/home/xingli/share/1205tiny/network/dtls/mbedtls/mbedtls-2.16.2/library/bignum.c **** 
 763:/home/xingli/share/1205tiny/network/dtls/mbedtls/mbedtls-2.16.2/library/bignum.c **** /* For GCC and Clang, have builtins for byte swapping. */
 764:/home/xingli/share/1205tiny/network/dtls/mbedtls/mbedtls-2.16.2/library/bignum.c **** #if defined(__GNUC__) && defined(__GNUC_PREREQ)
 765:/home/xingli/share/1205tiny/network/dtls/mbedtls/mbedtls-2.16.2/library/bignum.c **** #if __GNUC_PREREQ(4,3)
 766:/home/xingli/share/1205tiny/network/dtls/mbedtls/mbedtls-2.16.2/library/bignum.c **** #define have_bswap
 767:/home/xingli/share/1205tiny/network/dtls/mbedtls/mbedtls-2.16.2/library/bignum.c **** #endif
 768:/home/xingli/share/1205tiny/network/dtls/mbedtls/mbedtls-2.16.2/library/bignum.c **** #endif
 769:/home/xingli/share/1205tiny/network/dtls/mbedtls/mbedtls-2.16.2/library/bignum.c **** 
 770:/home/xingli/share/1205tiny/network/dtls/mbedtls/mbedtls-2.16.2/library/bignum.c **** #if defined(__clang__) && defined(__has_builtin)
 771:/home/xingli/share/1205tiny/network/dtls/mbedtls/mbedtls-2.16.2/library/bignum.c **** #if __has_builtin(__builtin_bswap32)  &&                 \
 772:/home/xingli/share/1205tiny/network/dtls/mbedtls/mbedtls-2.16.2/library/bignum.c ****     __has_builtin(__builtin_bswap64)
 773:/home/xingli/share/1205tiny/network/dtls/mbedtls/mbedtls-2.16.2/library/bignum.c **** #define have_bswap
 774:/home/xingli/share/1205tiny/network/dtls/mbedtls/mbedtls-2.16.2/library/bignum.c **** #endif
 775:/home/xingli/share/1205tiny/network/dtls/mbedtls/mbedtls-2.16.2/library/bignum.c **** #endif
 776:/home/xingli/share/1205tiny/network/dtls/mbedtls/mbedtls-2.16.2/library/bignum.c **** 
 777:/home/xingli/share/1205tiny/network/dtls/mbedtls/mbedtls-2.16.2/library/bignum.c **** #if defined(have_bswap)
 778:/home/xingli/share/1205tiny/network/dtls/mbedtls/mbedtls-2.16.2/library/bignum.c ****     /* The compiler is hopefully able to statically evaluate this! */
 779:/home/xingli/share/1205tiny/network/dtls/mbedtls/mbedtls-2.16.2/library/bignum.c ****     switch( sizeof(mbedtls_mpi_uint) )
GAS LISTING /tmp/ccFaOvob.s 			page 65


 780:/home/xingli/share/1205tiny/network/dtls/mbedtls/mbedtls-2.16.2/library/bignum.c ****     {
 781:/home/xingli/share/1205tiny/network/dtls/mbedtls/mbedtls-2.16.2/library/bignum.c ****         case 4:
 782:/home/xingli/share/1205tiny/network/dtls/mbedtls/mbedtls-2.16.2/library/bignum.c ****             return( __builtin_bswap32(x) );
 783:/home/xingli/share/1205tiny/network/dtls/mbedtls/mbedtls-2.16.2/library/bignum.c ****         case 8:
 784:/home/xingli/share/1205tiny/network/dtls/mbedtls/mbedtls-2.16.2/library/bignum.c ****             return( __builtin_bswap64(x) );
 2531              		.loc 1 784 21
 2532 001f 488B45E8 		movq	-24(%rbp), %rax
 2533 0023 480FC8   		bswap	%rax
 785:/home/xingli/share/1205tiny/network/dtls/mbedtls/mbedtls-2.16.2/library/bignum.c ****     }
 786:/home/xingli/share/1205tiny/network/dtls/mbedtls/mbedtls-2.16.2/library/bignum.c **** #endif
 787:/home/xingli/share/1205tiny/network/dtls/mbedtls/mbedtls-2.16.2/library/bignum.c **** #endif /* __BYTE_ORDER__ == __ORDER_LITTLE_ENDIAN__ */
 788:/home/xingli/share/1205tiny/network/dtls/mbedtls/mbedtls-2.16.2/library/bignum.c **** #endif /* __BYTE_ORDER__ */
 789:/home/xingli/share/1205tiny/network/dtls/mbedtls/mbedtls-2.16.2/library/bignum.c **** 
 790:/home/xingli/share/1205tiny/network/dtls/mbedtls/mbedtls-2.16.2/library/bignum.c ****     /* Fall back to C-based reordering if we don't know the byte order
 791:/home/xingli/share/1205tiny/network/dtls/mbedtls/mbedtls-2.16.2/library/bignum.c ****      * or we couldn't use a compiler-specific builtin. */
 792:/home/xingli/share/1205tiny/network/dtls/mbedtls/mbedtls-2.16.2/library/bignum.c ****     return( mpi_uint_bigendian_to_host_c( x ) );
 793:/home/xingli/share/1205tiny/network/dtls/mbedtls/mbedtls-2.16.2/library/bignum.c **** }
 2534              		.loc 1 793 1
 2535 0026 488B55F8 		movq	-8(%rbp), %rdx
 2536 002a 64483314 		xorq	%fs:40, %rdx
 2536      25280000 
 2536      00
 2537 0033 7405     		je	.L197
 2538 0035 E8000000 		call	__stack_chk_fail@PLT
 2538      00
 2539              	.L197:
 2540 003a C9       		leave
 2541              	.LCFI65:
 2542              		.cfi_def_cfa 7, 8
 2543 003b C3       		ret
 2544              		.cfi_endproc
 2545              	.LFE27:
 2547              		.section	.text.mpi_bigendian_to_host,"ax",@progbits
 2549              	mpi_bigendian_to_host:
 2550              	.LFB28:
 794:/home/xingli/share/1205tiny/network/dtls/mbedtls/mbedtls-2.16.2/library/bignum.c **** 
 795:/home/xingli/share/1205tiny/network/dtls/mbedtls/mbedtls-2.16.2/library/bignum.c **** static void mpi_bigendian_to_host( mbedtls_mpi_uint * const p, size_t limbs )
 796:/home/xingli/share/1205tiny/network/dtls/mbedtls/mbedtls-2.16.2/library/bignum.c **** {
 2551              		.loc 1 796 1
 2552              		.cfi_startproc
 2553 0000 F30F1EFA 		endbr64
 2554 0004 55       		pushq	%rbp
 2555              	.LCFI66:
 2556              		.cfi_def_cfa_offset 16
 2557              		.cfi_offset 6, -16
 2558 0005 4889E5   		movq	%rsp, %rbp
 2559              	.LCFI67:
 2560              		.cfi_def_cfa_register 6
 2561 0008 4883EC30 		subq	$48, %rsp
 2562 000c 48897DD8 		movq	%rdi, -40(%rbp)
 2563 0010 488975D0 		movq	%rsi, -48(%rbp)
 2564              		.loc 1 796 1
 2565 0014 64488B04 		movq	%fs:40, %rax
 2565      25280000 
 2565      00
 2566 001d 488945F8 		movq	%rax, -8(%rbp)
 2567 0021 31C0     		xorl	%eax, %eax
GAS LISTING /tmp/ccFaOvob.s 			page 66


 797:/home/xingli/share/1205tiny/network/dtls/mbedtls/mbedtls-2.16.2/library/bignum.c ****     mbedtls_mpi_uint *cur_limb_left;
 798:/home/xingli/share/1205tiny/network/dtls/mbedtls/mbedtls-2.16.2/library/bignum.c ****     mbedtls_mpi_uint *cur_limb_right;
 799:/home/xingli/share/1205tiny/network/dtls/mbedtls/mbedtls-2.16.2/library/bignum.c ****     if( limbs == 0 )
 2568              		.loc 1 799 7
 2569 0023 48837DD0 		cmpq	$0, -48(%rbp)
 2569      00
 2570 0028 746B     		je	.L204
 800:/home/xingli/share/1205tiny/network/dtls/mbedtls/mbedtls-2.16.2/library/bignum.c ****         return;
 801:/home/xingli/share/1205tiny/network/dtls/mbedtls/mbedtls-2.16.2/library/bignum.c **** 
 802:/home/xingli/share/1205tiny/network/dtls/mbedtls/mbedtls-2.16.2/library/bignum.c ****     /*
 803:/home/xingli/share/1205tiny/network/dtls/mbedtls/mbedtls-2.16.2/library/bignum.c ****      * Traverse limbs and
 804:/home/xingli/share/1205tiny/network/dtls/mbedtls/mbedtls-2.16.2/library/bignum.c ****      * - adapt byte-order in each limb
 805:/home/xingli/share/1205tiny/network/dtls/mbedtls/mbedtls-2.16.2/library/bignum.c ****      * - swap the limbs themselves.
 806:/home/xingli/share/1205tiny/network/dtls/mbedtls/mbedtls-2.16.2/library/bignum.c ****      * For that, simultaneously traverse the limbs from left to right
 807:/home/xingli/share/1205tiny/network/dtls/mbedtls/mbedtls-2.16.2/library/bignum.c ****      * and from right to left, as long as the left index is not bigger
 808:/home/xingli/share/1205tiny/network/dtls/mbedtls/mbedtls-2.16.2/library/bignum.c ****      * than the right index (it's not a problem if limbs is odd and the
 809:/home/xingli/share/1205tiny/network/dtls/mbedtls/mbedtls-2.16.2/library/bignum.c ****      * indices coincide in the last iteration).
 810:/home/xingli/share/1205tiny/network/dtls/mbedtls/mbedtls-2.16.2/library/bignum.c ****      */
 811:/home/xingli/share/1205tiny/network/dtls/mbedtls/mbedtls-2.16.2/library/bignum.c ****     for( cur_limb_left = p, cur_limb_right = p + ( limbs - 1 );
 2571              		.loc 1 811 24
 2572 002a 488B45D8 		movq	-40(%rbp), %rax
 2573 002e 488945E0 		movq	%rax, -32(%rbp)
 2574              		.loc 1 811 48
 2575 0032 488B45D0 		movq	-48(%rbp), %rax
 2576 0036 48C1E003 		salq	$3, %rax
 2577 003a 488D50F8 		leaq	-8(%rax), %rdx
 2578              		.loc 1 811 44
 2579 003e 488B45D8 		movq	-40(%rbp), %rax
 2580 0042 4801D0   		addq	%rdx, %rax
 2581 0045 488945E8 		movq	%rax, -24(%rbp)
 2582              		.loc 1 811 5
 2583 0049 EB3E     		jmp	.L201
 2584              	.L202:
 2585              	.LBB3:
 812:/home/xingli/share/1205tiny/network/dtls/mbedtls/mbedtls-2.16.2/library/bignum.c ****          cur_limb_left <= cur_limb_right;
 813:/home/xingli/share/1205tiny/network/dtls/mbedtls/mbedtls-2.16.2/library/bignum.c ****          cur_limb_left++, cur_limb_right-- )
 814:/home/xingli/share/1205tiny/network/dtls/mbedtls/mbedtls-2.16.2/library/bignum.c ****     {
 815:/home/xingli/share/1205tiny/network/dtls/mbedtls/mbedtls-2.16.2/library/bignum.c ****         mbedtls_mpi_uint tmp;
 816:/home/xingli/share/1205tiny/network/dtls/mbedtls/mbedtls-2.16.2/library/bignum.c ****         /* Note that if cur_limb_left == cur_limb_right,
 817:/home/xingli/share/1205tiny/network/dtls/mbedtls/mbedtls-2.16.2/library/bignum.c ****          * this code effectively swaps the bytes only once. */
 818:/home/xingli/share/1205tiny/network/dtls/mbedtls/mbedtls-2.16.2/library/bignum.c ****         tmp             = mpi_uint_bigendian_to_host( *cur_limb_left  );
 2586              		.loc 1 818 27
 2587 004b 488B45E0 		movq	-32(%rbp), %rax
 2588 004f 488B00   		movq	(%rax), %rax
 2589 0052 4889C7   		movq	%rax, %rdi
 2590 0055 E8000000 		call	mpi_uint_bigendian_to_host
 2590      00
 2591 005a 488945F0 		movq	%rax, -16(%rbp)
 819:/home/xingli/share/1205tiny/network/dtls/mbedtls/mbedtls-2.16.2/library/bignum.c ****         *cur_limb_left  = mpi_uint_bigendian_to_host( *cur_limb_right );
 2592              		.loc 1 819 27
 2593 005e 488B45E8 		movq	-24(%rbp), %rax
 2594 0062 488B00   		movq	(%rax), %rax
 2595 0065 4889C7   		movq	%rax, %rdi
 2596 0068 E8000000 		call	mpi_uint_bigendian_to_host
 2596      00
 2597              		.loc 1 819 25
 2598 006d 488B55E0 		movq	-32(%rbp), %rdx
GAS LISTING /tmp/ccFaOvob.s 			page 67


 2599 0071 488902   		movq	%rax, (%rdx)
 820:/home/xingli/share/1205tiny/network/dtls/mbedtls/mbedtls-2.16.2/library/bignum.c ****         *cur_limb_right = tmp;
 2600              		.loc 1 820 25
 2601 0074 488B45E8 		movq	-24(%rbp), %rax
 2602 0078 488B55F0 		movq	-16(%rbp), %rdx
 2603 007c 488910   		movq	%rdx, (%rax)
 2604              	.LBE3:
 813:/home/xingli/share/1205tiny/network/dtls/mbedtls/mbedtls-2.16.2/library/bignum.c ****     {
 2605              		.loc 1 813 23
 2606 007f 488345E0 		addq	$8, -32(%rbp)
 2606      08
 813:/home/xingli/share/1205tiny/network/dtls/mbedtls/mbedtls-2.16.2/library/bignum.c ****     {
 2607              		.loc 1 813 41
 2608 0084 48836DE8 		subq	$8, -24(%rbp)
 2608      08
 2609              	.L201:
 811:/home/xingli/share/1205tiny/network/dtls/mbedtls/mbedtls-2.16.2/library/bignum.c ****          cur_limb_left <= cur_limb_right;
 2610              		.loc 1 811 5 discriminator 1
 2611 0089 488B45E0 		movq	-32(%rbp), %rax
 2612 008d 483B45E8 		cmpq	-24(%rbp), %rax
 2613 0091 76B8     		jbe	.L202
 2614 0093 EB01     		jmp	.L198
 2615              	.L204:
 800:/home/xingli/share/1205tiny/network/dtls/mbedtls/mbedtls-2.16.2/library/bignum.c **** 
 2616              		.loc 1 800 9
 2617 0095 90       		nop
 2618              	.L198:
 821:/home/xingli/share/1205tiny/network/dtls/mbedtls/mbedtls-2.16.2/library/bignum.c ****     }
 822:/home/xingli/share/1205tiny/network/dtls/mbedtls/mbedtls-2.16.2/library/bignum.c **** }
 2619              		.loc 1 822 1
 2620 0096 488B45F8 		movq	-8(%rbp), %rax
 2621 009a 64483304 		xorq	%fs:40, %rax
 2621      25280000 
 2621      00
 2622 00a3 7405     		je	.L203
 2623 00a5 E8000000 		call	__stack_chk_fail@PLT
 2623      00
 2624              	.L203:
 2625 00aa C9       		leave
 2626              	.LCFI68:
 2627              		.cfi_def_cfa 7, 8
 2628 00ab C3       		ret
 2629              		.cfi_endproc
 2630              	.LFE28:
 2632              		.section	.text.mbedtls_mpi_read_binary,"ax",@progbits
 2633              		.globl	mbedtls_mpi_read_binary
 2635              	mbedtls_mpi_read_binary:
 2636              	.LFB29:
 823:/home/xingli/share/1205tiny/network/dtls/mbedtls/mbedtls-2.16.2/library/bignum.c **** 
 824:/home/xingli/share/1205tiny/network/dtls/mbedtls/mbedtls-2.16.2/library/bignum.c **** /*
 825:/home/xingli/share/1205tiny/network/dtls/mbedtls/mbedtls-2.16.2/library/bignum.c ****  * Import X from unsigned binary data, big endian
 826:/home/xingli/share/1205tiny/network/dtls/mbedtls/mbedtls-2.16.2/library/bignum.c ****  */
 827:/home/xingli/share/1205tiny/network/dtls/mbedtls/mbedtls-2.16.2/library/bignum.c **** int mbedtls_mpi_read_binary( mbedtls_mpi *X, const unsigned char *buf, size_t buflen )
 828:/home/xingli/share/1205tiny/network/dtls/mbedtls/mbedtls-2.16.2/library/bignum.c **** {
 2637              		.loc 1 828 1
 2638              		.cfi_startproc
 2639 0000 F30F1EFA 		endbr64
GAS LISTING /tmp/ccFaOvob.s 			page 68


 2640 0004 55       		pushq	%rbp
 2641              	.LCFI69:
 2642              		.cfi_def_cfa_offset 16
 2643              		.cfi_offset 6, -16
 2644 0005 4889E5   		movq	%rsp, %rbp
 2645              	.LCFI70:
 2646              		.cfi_def_cfa_register 6
 2647 0008 4883EC50 		subq	$80, %rsp
 2648 000c 48897DC8 		movq	%rdi, -56(%rbp)
 2649 0010 488975C0 		movq	%rsi, -64(%rbp)
 2650 0014 488955B8 		movq	%rdx, -72(%rbp)
 2651              		.loc 1 828 1
 2652 0018 64488B04 		movq	%fs:40, %rax
 2652      25280000 
 2652      00
 2653 0021 488945F8 		movq	%rax, -8(%rbp)
 2654 0025 31C0     		xorl	%eax, %eax
 829:/home/xingli/share/1205tiny/network/dtls/mbedtls/mbedtls-2.16.2/library/bignum.c ****     int ret;
 830:/home/xingli/share/1205tiny/network/dtls/mbedtls/mbedtls-2.16.2/library/bignum.c ****     size_t const limbs    = CHARS_TO_LIMBS( buflen );
 2655              		.loc 1 830 29
 2656 0027 488B45B8 		movq	-72(%rbp), %rax
 2657 002b 48C1E803 		shrq	$3, %rax
 2658 002f 4889C2   		movq	%rax, %rdx
 2659 0032 488B45B8 		movq	-72(%rbp), %rax
 2660 0036 83E007   		andl	$7, %eax
 2661 0039 4885C0   		testq	%rax, %rax
 2662 003c 0F95C0   		setne	%al
 2663 003f 0FB6C0   		movzbl	%al, %eax
 2664              		.loc 1 830 18
 2665 0042 4801D0   		addq	%rdx, %rax
 2666 0045 488945E0 		movq	%rax, -32(%rbp)
 831:/home/xingli/share/1205tiny/network/dtls/mbedtls/mbedtls-2.16.2/library/bignum.c ****     size_t const overhead = ( limbs * ciL ) - buflen;
 2667              		.loc 1 831 37
 2668 0049 488B45E0 		movq	-32(%rbp), %rax
 2669 004d 48C1E003 		salq	$3, %rax
 2670              		.loc 1 831 18
 2671 0051 482B45B8 		subq	-72(%rbp), %rax
 2672 0055 488945E8 		movq	%rax, -24(%rbp)
 832:/home/xingli/share/1205tiny/network/dtls/mbedtls/mbedtls-2.16.2/library/bignum.c ****     unsigned char *Xp;
 833:/home/xingli/share/1205tiny/network/dtls/mbedtls/mbedtls-2.16.2/library/bignum.c **** 
 834:/home/xingli/share/1205tiny/network/dtls/mbedtls/mbedtls-2.16.2/library/bignum.c ****     MPI_VALIDATE_RET( X != NULL );
 835:/home/xingli/share/1205tiny/network/dtls/mbedtls/mbedtls-2.16.2/library/bignum.c ****     MPI_VALIDATE_RET( buflen == 0 || buf != NULL );
 836:/home/xingli/share/1205tiny/network/dtls/mbedtls/mbedtls-2.16.2/library/bignum.c **** 
 837:/home/xingli/share/1205tiny/network/dtls/mbedtls/mbedtls-2.16.2/library/bignum.c ****     /* Ensure that target MPI has exactly the necessary number of limbs */
 838:/home/xingli/share/1205tiny/network/dtls/mbedtls/mbedtls-2.16.2/library/bignum.c ****     if( X->n != limbs )
 2673              		.loc 1 838 10
 2674 0059 488B45C8 		movq	-56(%rbp), %rax
 2675 005d 488B4008 		movq	8(%rax), %rax
 2676              		.loc 1 838 7
 2677 0061 483945E0 		cmpq	%rax, -32(%rbp)
 2678 0065 7434     		je	.L206
 839:/home/xingli/share/1205tiny/network/dtls/mbedtls/mbedtls-2.16.2/library/bignum.c ****     {
 840:/home/xingli/share/1205tiny/network/dtls/mbedtls/mbedtls-2.16.2/library/bignum.c ****         mbedtls_mpi_free( X );
 2679              		.loc 1 840 9
 2680 0067 488B45C8 		movq	-56(%rbp), %rax
 2681 006b 4889C7   		movq	%rax, %rdi
 2682 006e E8000000 		call	mbedtls_mpi_free
GAS LISTING /tmp/ccFaOvob.s 			page 69


 2682      00
 841:/home/xingli/share/1205tiny/network/dtls/mbedtls/mbedtls-2.16.2/library/bignum.c ****         mbedtls_mpi_init( X );
 2683              		.loc 1 841 9
 2684 0073 488B45C8 		movq	-56(%rbp), %rax
 2685 0077 4889C7   		movq	%rax, %rdi
 2686 007a E8000000 		call	mbedtls_mpi_init
 2686      00
 842:/home/xingli/share/1205tiny/network/dtls/mbedtls/mbedtls-2.16.2/library/bignum.c ****         MBEDTLS_MPI_CHK( mbedtls_mpi_grow( X, limbs ) );
 2687              		.loc 1 842 9
 2688 007f 488B55E0 		movq	-32(%rbp), %rdx
 2689 0083 488B45C8 		movq	-56(%rbp), %rax
 2690 0087 4889D6   		movq	%rdx, %rsi
 2691 008a 4889C7   		movq	%rax, %rdi
 2692 008d E8000000 		call	mbedtls_mpi_grow
 2692      00
 2693 0092 8945DC   		movl	%eax, -36(%rbp)
 2694 0095 837DDC00 		cmpl	$0, -36(%rbp)
 2695 0099 7565     		jne	.L211
 2696              	.L206:
 843:/home/xingli/share/1205tiny/network/dtls/mbedtls/mbedtls-2.16.2/library/bignum.c ****     }
 844:/home/xingli/share/1205tiny/network/dtls/mbedtls/mbedtls-2.16.2/library/bignum.c ****     MBEDTLS_MPI_CHK( mbedtls_mpi_lset( X, 0 ) );
 2697              		.loc 1 844 5
 2698 009b 488B45C8 		movq	-56(%rbp), %rax
 2699 009f BE000000 		movl	$0, %esi
 2699      00
 2700 00a4 4889C7   		movq	%rax, %rdi
 2701 00a7 E8000000 		call	mbedtls_mpi_lset
 2701      00
 2702 00ac 8945DC   		movl	%eax, -36(%rbp)
 2703 00af 837DDC00 		cmpl	$0, -36(%rbp)
 2704 00b3 754E     		jne	.L212
 845:/home/xingli/share/1205tiny/network/dtls/mbedtls/mbedtls-2.16.2/library/bignum.c **** 
 846:/home/xingli/share/1205tiny/network/dtls/mbedtls/mbedtls-2.16.2/library/bignum.c ****     /* Avoid calling `memcpy` with NULL source argument,
 847:/home/xingli/share/1205tiny/network/dtls/mbedtls/mbedtls-2.16.2/library/bignum.c ****      * even if buflen is 0. */
 848:/home/xingli/share/1205tiny/network/dtls/mbedtls/mbedtls-2.16.2/library/bignum.c ****     if( buf != NULL )
 2705              		.loc 1 848 7
 2706 00b5 48837DC0 		cmpq	$0, -64(%rbp)
 2706      00
 2707 00ba 744A     		je	.L213
 849:/home/xingli/share/1205tiny/network/dtls/mbedtls/mbedtls-2.16.2/library/bignum.c ****     {
 850:/home/xingli/share/1205tiny/network/dtls/mbedtls/mbedtls-2.16.2/library/bignum.c ****         Xp = (unsigned char*) X->p;
 2708              		.loc 1 850 12
 2709 00bc 488B45C8 		movq	-56(%rbp), %rax
 2710 00c0 488B4010 		movq	16(%rax), %rax
 2711 00c4 488945F0 		movq	%rax, -16(%rbp)
 851:/home/xingli/share/1205tiny/network/dtls/mbedtls/mbedtls-2.16.2/library/bignum.c ****         memcpy( Xp + overhead, buf, buflen );
 2712              		.loc 1 851 20
 2713 00c8 488B55F0 		movq	-16(%rbp), %rdx
 2714 00cc 488B45E8 		movq	-24(%rbp), %rax
 2715 00d0 488D0C02 		leaq	(%rdx,%rax), %rcx
 2716              		.loc 1 851 9
 2717 00d4 488B55B8 		movq	-72(%rbp), %rdx
 2718 00d8 488B45C0 		movq	-64(%rbp), %rax
 2719 00dc 4889C6   		movq	%rax, %rsi
 2720 00df 4889CF   		movq	%rcx, %rdi
 2721 00e2 E8000000 		call	memcpy@PLT
 2721      00
GAS LISTING /tmp/ccFaOvob.s 			page 70


 852:/home/xingli/share/1205tiny/network/dtls/mbedtls/mbedtls-2.16.2/library/bignum.c **** 
 853:/home/xingli/share/1205tiny/network/dtls/mbedtls/mbedtls-2.16.2/library/bignum.c ****         mpi_bigendian_to_host( X->p, limbs );
 2722              		.loc 1 853 9
 2723 00e7 488B45C8 		movq	-56(%rbp), %rax
 2724 00eb 488B4010 		movq	16(%rax), %rax
 2725 00ef 488B55E0 		movq	-32(%rbp), %rdx
 2726 00f3 4889D6   		movq	%rdx, %rsi
 2727 00f6 4889C7   		movq	%rax, %rdi
 2728 00f9 E8000000 		call	mpi_bigendian_to_host
 2728      00
 2729 00fe EB07     		jmp	.L207
 2730              	.L211:
 842:/home/xingli/share/1205tiny/network/dtls/mbedtls/mbedtls-2.16.2/library/bignum.c ****     }
 2731              		.loc 1 842 9
 2732 0100 90       		nop
 2733 0101 EB04     		jmp	.L207
 2734              	.L212:
 844:/home/xingli/share/1205tiny/network/dtls/mbedtls/mbedtls-2.16.2/library/bignum.c **** 
 2735              		.loc 1 844 5
 2736 0103 90       		nop
 2737 0104 EB01     		jmp	.L207
 2738              	.L213:
 854:/home/xingli/share/1205tiny/network/dtls/mbedtls/mbedtls-2.16.2/library/bignum.c ****     }
 855:/home/xingli/share/1205tiny/network/dtls/mbedtls/mbedtls-2.16.2/library/bignum.c **** 
 856:/home/xingli/share/1205tiny/network/dtls/mbedtls/mbedtls-2.16.2/library/bignum.c **** cleanup:
 2739              		.loc 1 856 1
 2740 0106 90       		nop
 2741              	.L207:
 857:/home/xingli/share/1205tiny/network/dtls/mbedtls/mbedtls-2.16.2/library/bignum.c **** 
 858:/home/xingli/share/1205tiny/network/dtls/mbedtls/mbedtls-2.16.2/library/bignum.c ****     return( ret );
 2742              		.loc 1 858 11
 2743 0107 8B45DC   		movl	-36(%rbp), %eax
 859:/home/xingli/share/1205tiny/network/dtls/mbedtls/mbedtls-2.16.2/library/bignum.c **** }
 2744              		.loc 1 859 1
 2745 010a 488B4DF8 		movq	-8(%rbp), %rcx
 2746 010e 6448330C 		xorq	%fs:40, %rcx
 2746      25280000 
 2746      00
 2747 0117 7405     		je	.L210
 2748 0119 E8000000 		call	__stack_chk_fail@PLT
 2748      00
 2749              	.L210:
 2750 011e C9       		leave
 2751              	.LCFI71:
 2752              		.cfi_def_cfa 7, 8
 2753 011f C3       		ret
 2754              		.cfi_endproc
 2755              	.LFE29:
 2757              		.section	.text.mbedtls_mpi_write_binary,"ax",@progbits
 2758              		.globl	mbedtls_mpi_write_binary
 2760              	mbedtls_mpi_write_binary:
 2761              	.LFB30:
 860:/home/xingli/share/1205tiny/network/dtls/mbedtls/mbedtls-2.16.2/library/bignum.c **** 
 861:/home/xingli/share/1205tiny/network/dtls/mbedtls/mbedtls-2.16.2/library/bignum.c **** /*
 862:/home/xingli/share/1205tiny/network/dtls/mbedtls/mbedtls-2.16.2/library/bignum.c ****  * Export X into unsigned binary data, big endian
 863:/home/xingli/share/1205tiny/network/dtls/mbedtls/mbedtls-2.16.2/library/bignum.c ****  */
 864:/home/xingli/share/1205tiny/network/dtls/mbedtls/mbedtls-2.16.2/library/bignum.c **** int mbedtls_mpi_write_binary( const mbedtls_mpi *X,
GAS LISTING /tmp/ccFaOvob.s 			page 71


 865:/home/xingli/share/1205tiny/network/dtls/mbedtls/mbedtls-2.16.2/library/bignum.c ****                               unsigned char *buf, size_t buflen )
 866:/home/xingli/share/1205tiny/network/dtls/mbedtls/mbedtls-2.16.2/library/bignum.c **** {
 2762              		.loc 1 866 1
 2763              		.cfi_startproc
 2764 0000 F30F1EFA 		endbr64
 2765 0004 55       		pushq	%rbp
 2766              	.LCFI72:
 2767              		.cfi_def_cfa_offset 16
 2768              		.cfi_offset 6, -16
 2769 0005 4889E5   		movq	%rsp, %rbp
 2770              	.LCFI73:
 2771              		.cfi_def_cfa_register 6
 2772 0008 4883EC50 		subq	$80, %rsp
 2773 000c 48897DC8 		movq	%rdi, -56(%rbp)
 2774 0010 488975C0 		movq	%rsi, -64(%rbp)
 2775 0014 488955B8 		movq	%rdx, -72(%rbp)
 2776              		.loc 1 866 1
 2777 0018 64488B04 		movq	%fs:40, %rax
 2777      25280000 
 2777      00
 2778 0021 488945F8 		movq	%rax, -8(%rbp)
 2779 0025 31C0     		xorl	%eax, %eax
 867:/home/xingli/share/1205tiny/network/dtls/mbedtls/mbedtls-2.16.2/library/bignum.c ****     size_t stored_bytes;
 868:/home/xingli/share/1205tiny/network/dtls/mbedtls/mbedtls-2.16.2/library/bignum.c ****     size_t bytes_to_copy;
 869:/home/xingli/share/1205tiny/network/dtls/mbedtls/mbedtls-2.16.2/library/bignum.c ****     unsigned char *p;
 870:/home/xingli/share/1205tiny/network/dtls/mbedtls/mbedtls-2.16.2/library/bignum.c ****     size_t i;
 871:/home/xingli/share/1205tiny/network/dtls/mbedtls/mbedtls-2.16.2/library/bignum.c **** 
 872:/home/xingli/share/1205tiny/network/dtls/mbedtls/mbedtls-2.16.2/library/bignum.c ****     MPI_VALIDATE_RET( X != NULL );
 873:/home/xingli/share/1205tiny/network/dtls/mbedtls/mbedtls-2.16.2/library/bignum.c ****     MPI_VALIDATE_RET( buflen == 0 || buf != NULL );
 874:/home/xingli/share/1205tiny/network/dtls/mbedtls/mbedtls-2.16.2/library/bignum.c **** 
 875:/home/xingli/share/1205tiny/network/dtls/mbedtls/mbedtls-2.16.2/library/bignum.c ****     stored_bytes = X->n * ciL;
 2780              		.loc 1 875 21
 2781 0027 488B45C8 		movq	-56(%rbp), %rax
 2782 002b 488B4008 		movq	8(%rax), %rax
 2783              		.loc 1 875 18
 2784 002f 48C1E003 		salq	$3, %rax
 2785 0033 488945F0 		movq	%rax, -16(%rbp)
 876:/home/xingli/share/1205tiny/network/dtls/mbedtls/mbedtls-2.16.2/library/bignum.c **** 
 877:/home/xingli/share/1205tiny/network/dtls/mbedtls/mbedtls-2.16.2/library/bignum.c ****     if( stored_bytes < buflen )
 2786              		.loc 1 877 7
 2787 0037 488B45F0 		movq	-16(%rbp), %rax
 2788 003b 483B45B8 		cmpq	-72(%rbp), %rax
 2789 003f 733C     		jnb	.L215
 878:/home/xingli/share/1205tiny/network/dtls/mbedtls/mbedtls-2.16.2/library/bignum.c ****     {
 879:/home/xingli/share/1205tiny/network/dtls/mbedtls/mbedtls-2.16.2/library/bignum.c ****         /* There is enough space in the output buffer. Write initial
 880:/home/xingli/share/1205tiny/network/dtls/mbedtls/mbedtls-2.16.2/library/bignum.c ****          * null bytes and record the position at which to start
 881:/home/xingli/share/1205tiny/network/dtls/mbedtls/mbedtls-2.16.2/library/bignum.c ****          * writing the significant bytes. In this case, the execution
 882:/home/xingli/share/1205tiny/network/dtls/mbedtls/mbedtls-2.16.2/library/bignum.c ****          * trace of this function does not depend on the value of the
 883:/home/xingli/share/1205tiny/network/dtls/mbedtls/mbedtls-2.16.2/library/bignum.c ****          * number. */
 884:/home/xingli/share/1205tiny/network/dtls/mbedtls/mbedtls-2.16.2/library/bignum.c ****         bytes_to_copy = stored_bytes;
 2790              		.loc 1 884 23
 2791 0041 488B45F0 		movq	-16(%rbp), %rax
 2792 0045 488945D8 		movq	%rax, -40(%rbp)
 885:/home/xingli/share/1205tiny/network/dtls/mbedtls/mbedtls-2.16.2/library/bignum.c ****         p = buf + buflen - stored_bytes;
 2793              		.loc 1 885 26
 2794 0049 488B45B8 		movq	-72(%rbp), %rax
 2795 004d 482B45F0 		subq	-16(%rbp), %rax
GAS LISTING /tmp/ccFaOvob.s 			page 72


 2796 0051 4889C2   		movq	%rax, %rdx
 2797              		.loc 1 885 11
 2798 0054 488B45C0 		movq	-64(%rbp), %rax
 2799 0058 4801D0   		addq	%rdx, %rax
 2800 005b 488945E0 		movq	%rax, -32(%rbp)
 886:/home/xingli/share/1205tiny/network/dtls/mbedtls/mbedtls-2.16.2/library/bignum.c ****         memset( buf, 0, buflen - stored_bytes );
 2801              		.loc 1 886 9
 2802 005f 488B45B8 		movq	-72(%rbp), %rax
 2803 0063 482B45F0 		subq	-16(%rbp), %rax
 2804 0067 4889C2   		movq	%rax, %rdx
 2805 006a 488B45C0 		movq	-64(%rbp), %rax
 2806 006e BE000000 		movl	$0, %esi
 2806      00
 2807 0073 4889C7   		movq	%rax, %rdi
 2808 0076 E8000000 		call	memset@PLT
 2808      00
 2809 007b EB60     		jmp	.L216
 2810              	.L215:
 887:/home/xingli/share/1205tiny/network/dtls/mbedtls/mbedtls-2.16.2/library/bignum.c ****     }
 888:/home/xingli/share/1205tiny/network/dtls/mbedtls/mbedtls-2.16.2/library/bignum.c ****     else
 889:/home/xingli/share/1205tiny/network/dtls/mbedtls/mbedtls-2.16.2/library/bignum.c ****     {
 890:/home/xingli/share/1205tiny/network/dtls/mbedtls/mbedtls-2.16.2/library/bignum.c ****         /* The output buffer is smaller than the allocated size of X.
 891:/home/xingli/share/1205tiny/network/dtls/mbedtls/mbedtls-2.16.2/library/bignum.c ****          * However X may fit if its leading bytes are zero. */
 892:/home/xingli/share/1205tiny/network/dtls/mbedtls/mbedtls-2.16.2/library/bignum.c ****         bytes_to_copy = buflen;
 2811              		.loc 1 892 23
 2812 007d 488B45B8 		movq	-72(%rbp), %rax
 2813 0081 488945D8 		movq	%rax, -40(%rbp)
 893:/home/xingli/share/1205tiny/network/dtls/mbedtls/mbedtls-2.16.2/library/bignum.c ****         p = buf;
 2814              		.loc 1 893 11
 2815 0085 488B45C0 		movq	-64(%rbp), %rax
 2816 0089 488945E0 		movq	%rax, -32(%rbp)
 894:/home/xingli/share/1205tiny/network/dtls/mbedtls/mbedtls-2.16.2/library/bignum.c ****         for( i = bytes_to_copy; i < stored_bytes; i++ )
 2817              		.loc 1 894 16
 2818 008d 488B45D8 		movq	-40(%rbp), %rax
 2819 0091 488945E8 		movq	%rax, -24(%rbp)
 2820              		.loc 1 894 9
 2821 0095 EB3C     		jmp	.L217
 2822              	.L220:
 895:/home/xingli/share/1205tiny/network/dtls/mbedtls/mbedtls-2.16.2/library/bignum.c ****         {
 896:/home/xingli/share/1205tiny/network/dtls/mbedtls/mbedtls-2.16.2/library/bignum.c ****             if( GET_BYTE( X, i ) != 0 )
 2823              		.loc 1 896 17
 2824 0097 488B45C8 		movq	-56(%rbp), %rax
 2825 009b 488B4010 		movq	16(%rax), %rax
 2826 009f 488B55E8 		movq	-24(%rbp), %rdx
 2827 00a3 4883E2F8 		andq	$-8, %rdx
 2828 00a7 4801D0   		addq	%rdx, %rax
 2829 00aa 488B10   		movq	(%rax), %rdx
 2830 00ad 488B45E8 		movq	-24(%rbp), %rax
 2831 00b1 83E007   		andl	$7, %eax
 2832 00b4 C1E003   		sall	$3, %eax
 2833 00b7 89C1     		movl	%eax, %ecx
 2834 00b9 48D3EA   		shrq	%cl, %rdx
 2835 00bc 4889D0   		movq	%rdx, %rax
 2836 00bf 0FB6C0   		movzbl	%al, %eax
 2837              		.loc 1 896 15
 2838 00c2 4885C0   		testq	%rax, %rax
 2839 00c5 7407     		je	.L218
GAS LISTING /tmp/ccFaOvob.s 			page 73


 897:/home/xingli/share/1205tiny/network/dtls/mbedtls/mbedtls-2.16.2/library/bignum.c ****                 return( MBEDTLS_ERR_MPI_BUFFER_TOO_SMALL );
 2840              		.loc 1 897 23
 2841 00c7 B8F8FFFF 		movl	$-8, %eax
 2841      FF
 2842 00cc EB6C     		jmp	.L219
 2843              	.L218:
 894:/home/xingli/share/1205tiny/network/dtls/mbedtls/mbedtls-2.16.2/library/bignum.c ****         for( i = bytes_to_copy; i < stored_bytes; i++ )
 2844              		.loc 1 894 52 discriminator 2
 2845 00ce 488345E8 		addq	$1, -24(%rbp)
 2845      01
 2846              	.L217:
 894:/home/xingli/share/1205tiny/network/dtls/mbedtls/mbedtls-2.16.2/library/bignum.c ****         for( i = bytes_to_copy; i < stored_bytes; i++ )
 2847              		.loc 1 894 9 discriminator 1
 2848 00d3 488B45E8 		movq	-24(%rbp), %rax
 2849 00d7 483B45F0 		cmpq	-16(%rbp), %rax
 2850 00db 72BA     		jb	.L220
 2851              	.L216:
 898:/home/xingli/share/1205tiny/network/dtls/mbedtls/mbedtls-2.16.2/library/bignum.c ****         }
 899:/home/xingli/share/1205tiny/network/dtls/mbedtls/mbedtls-2.16.2/library/bignum.c ****     }
 900:/home/xingli/share/1205tiny/network/dtls/mbedtls/mbedtls-2.16.2/library/bignum.c **** 
 901:/home/xingli/share/1205tiny/network/dtls/mbedtls/mbedtls-2.16.2/library/bignum.c ****     for( i = 0; i < bytes_to_copy; i++ )
 2852              		.loc 1 901 12
 2853 00dd 48C745E8 		movq	$0, -24(%rbp)
 2853      00000000 
 2854              		.loc 1 901 5
 2855 00e5 EB44     		jmp	.L221
 2856              	.L222:
 902:/home/xingli/share/1205tiny/network/dtls/mbedtls/mbedtls-2.16.2/library/bignum.c ****         p[bytes_to_copy - i - 1] = GET_BYTE( X, i );
 2857              		.loc 1 902 36 discriminator 3
 2858 00e7 488B45C8 		movq	-56(%rbp), %rax
 2859 00eb 488B4010 		movq	16(%rax), %rax
 2860 00ef 488B55E8 		movq	-24(%rbp), %rdx
 2861 00f3 4883E2F8 		andq	$-8, %rdx
 2862 00f7 4801D0   		addq	%rdx, %rax
 2863 00fa 488B10   		movq	(%rax), %rdx
 2864 00fd 488B45E8 		movq	-24(%rbp), %rax
 2865 0101 83E007   		andl	$7, %eax
 2866 0104 C1E003   		sall	$3, %eax
 2867 0107 89C1     		movl	%eax, %ecx
 2868 0109 48D3EA   		shrq	%cl, %rdx
 2869 010c 4889D1   		movq	%rdx, %rcx
 2870              		.loc 1 902 25 discriminator 3
 2871 010f 488B45D8 		movq	-40(%rbp), %rax
 2872 0113 482B45E8 		subq	-24(%rbp), %rax
 2873              		.loc 1 902 10 discriminator 3
 2874 0117 488D50FF 		leaq	-1(%rax), %rdx
 2875 011b 488B45E0 		movq	-32(%rbp), %rax
 2876 011f 4801D0   		addq	%rdx, %rax
 2877              		.loc 1 902 34 discriminator 3
 2878 0122 89CA     		movl	%ecx, %edx
 2879 0124 8810     		movb	%dl, (%rax)
 901:/home/xingli/share/1205tiny/network/dtls/mbedtls/mbedtls-2.16.2/library/bignum.c ****         p[bytes_to_copy - i - 1] = GET_BYTE( X, i );
 2880              		.loc 1 901 37 discriminator 3
 2881 0126 488345E8 		addq	$1, -24(%rbp)
 2881      01
 2882              	.L221:
 901:/home/xingli/share/1205tiny/network/dtls/mbedtls/mbedtls-2.16.2/library/bignum.c ****         p[bytes_to_copy - i - 1] = GET_BYTE( X, i );
GAS LISTING /tmp/ccFaOvob.s 			page 74


 2883              		.loc 1 901 5 discriminator 1
 2884 012b 488B45E8 		movq	-24(%rbp), %rax
 2885 012f 483B45D8 		cmpq	-40(%rbp), %rax
 2886 0133 72B2     		jb	.L222
 903:/home/xingli/share/1205tiny/network/dtls/mbedtls/mbedtls-2.16.2/library/bignum.c **** 
 904:/home/xingli/share/1205tiny/network/dtls/mbedtls/mbedtls-2.16.2/library/bignum.c ****     return( 0 );
 2887              		.loc 1 904 11
 2888 0135 B8000000 		movl	$0, %eax
 2888      00
 2889              	.L219:
 905:/home/xingli/share/1205tiny/network/dtls/mbedtls/mbedtls-2.16.2/library/bignum.c **** }
 2890              		.loc 1 905 1
 2891 013a 488B75F8 		movq	-8(%rbp), %rsi
 2892 013e 64483334 		xorq	%fs:40, %rsi
 2892      25280000 
 2892      00
 2893 0147 7405     		je	.L223
 2894 0149 E8000000 		call	__stack_chk_fail@PLT
 2894      00
 2895              	.L223:
 2896 014e C9       		leave
 2897              	.LCFI74:
 2898              		.cfi_def_cfa 7, 8
 2899 014f C3       		ret
 2900              		.cfi_endproc
 2901              	.LFE30:
 2903              		.section	.text.mbedtls_mpi_shift_l,"ax",@progbits
 2904              		.globl	mbedtls_mpi_shift_l
 2906              	mbedtls_mpi_shift_l:
 2907              	.LFB31:
 906:/home/xingli/share/1205tiny/network/dtls/mbedtls/mbedtls-2.16.2/library/bignum.c **** 
 907:/home/xingli/share/1205tiny/network/dtls/mbedtls/mbedtls-2.16.2/library/bignum.c **** /*
 908:/home/xingli/share/1205tiny/network/dtls/mbedtls/mbedtls-2.16.2/library/bignum.c ****  * Left-shift: X <<= count
 909:/home/xingli/share/1205tiny/network/dtls/mbedtls/mbedtls-2.16.2/library/bignum.c ****  */
 910:/home/xingli/share/1205tiny/network/dtls/mbedtls/mbedtls-2.16.2/library/bignum.c **** int mbedtls_mpi_shift_l( mbedtls_mpi *X, size_t count )
 911:/home/xingli/share/1205tiny/network/dtls/mbedtls/mbedtls-2.16.2/library/bignum.c **** {
 2908              		.loc 1 911 1
 2909              		.cfi_startproc
 2910 0000 F30F1EFA 		endbr64
 2911 0004 55       		pushq	%rbp
 2912              	.LCFI75:
 2913              		.cfi_def_cfa_offset 16
 2914              		.cfi_offset 6, -16
 2915 0005 4889E5   		movq	%rsp, %rbp
 2916              	.LCFI76:
 2917              		.cfi_def_cfa_register 6
 2918 0008 4883EC50 		subq	$80, %rsp
 2919 000c 48897DB8 		movq	%rdi, -72(%rbp)
 2920 0010 488975B0 		movq	%rsi, -80(%rbp)
 2921              		.loc 1 911 1
 2922 0014 64488B04 		movq	%fs:40, %rax
 2922      25280000 
 2922      00
 2923 001d 488945F8 		movq	%rax, -8(%rbp)
 2924 0021 31C0     		xorl	%eax, %eax
 912:/home/xingli/share/1205tiny/network/dtls/mbedtls/mbedtls-2.16.2/library/bignum.c ****     int ret;
 913:/home/xingli/share/1205tiny/network/dtls/mbedtls/mbedtls-2.16.2/library/bignum.c ****     size_t i, v0, t1;
GAS LISTING /tmp/ccFaOvob.s 			page 75


 914:/home/xingli/share/1205tiny/network/dtls/mbedtls/mbedtls-2.16.2/library/bignum.c ****     mbedtls_mpi_uint r0 = 0, r1;
 2925              		.loc 1 914 22
 2926 0023 48C745D8 		movq	$0, -40(%rbp)
 2926      00000000 
 915:/home/xingli/share/1205tiny/network/dtls/mbedtls/mbedtls-2.16.2/library/bignum.c ****     MPI_VALIDATE_RET( X != NULL );
 916:/home/xingli/share/1205tiny/network/dtls/mbedtls/mbedtls-2.16.2/library/bignum.c **** 
 917:/home/xingli/share/1205tiny/network/dtls/mbedtls/mbedtls-2.16.2/library/bignum.c ****     v0 = count / (biL    );
 2927              		.loc 1 917 8
 2928 002b 488B45B0 		movq	-80(%rbp), %rax
 2929 002f 48C1E806 		shrq	$6, %rax
 2930 0033 488945E0 		movq	%rax, -32(%rbp)
 918:/home/xingli/share/1205tiny/network/dtls/mbedtls/mbedtls-2.16.2/library/bignum.c ****     t1 = count & (biL - 1);
 2931              		.loc 1 918 8
 2932 0037 488B45B0 		movq	-80(%rbp), %rax
 2933 003b 83E03F   		andl	$63, %eax
 2934 003e 488945E8 		movq	%rax, -24(%rbp)
 919:/home/xingli/share/1205tiny/network/dtls/mbedtls/mbedtls-2.16.2/library/bignum.c **** 
 920:/home/xingli/share/1205tiny/network/dtls/mbedtls/mbedtls-2.16.2/library/bignum.c ****     i = mbedtls_mpi_bitlen( X ) + count;
 2935              		.loc 1 920 9
 2936 0042 488B45B8 		movq	-72(%rbp), %rax
 2937 0046 4889C7   		movq	%rax, %rdi
 2938 0049 E8000000 		call	mbedtls_mpi_bitlen
 2938      00
 2939              		.loc 1 920 7
 2940 004e 488B55B0 		movq	-80(%rbp), %rdx
 2941 0052 4801D0   		addq	%rdx, %rax
 2942 0055 488945D0 		movq	%rax, -48(%rbp)
 921:/home/xingli/share/1205tiny/network/dtls/mbedtls/mbedtls-2.16.2/library/bignum.c **** 
 922:/home/xingli/share/1205tiny/network/dtls/mbedtls/mbedtls-2.16.2/library/bignum.c ****     if( X->n * biL < i )
 2943              		.loc 1 922 10
 2944 0059 488B45B8 		movq	-72(%rbp), %rax
 2945 005d 488B4008 		movq	8(%rax), %rax
 2946              		.loc 1 922 14
 2947 0061 48C1E006 		salq	$6, %rax
 2948              		.loc 1 922 7
 2949 0065 483945D0 		cmpq	%rax, -48(%rbp)
 2950 0069 763A     		jbe	.L225
 923:/home/xingli/share/1205tiny/network/dtls/mbedtls/mbedtls-2.16.2/library/bignum.c ****         MBEDTLS_MPI_CHK( mbedtls_mpi_grow( X, BITS_TO_LIMBS( i ) ) );
 2951              		.loc 1 923 9
 2952 006b 488B45D0 		movq	-48(%rbp), %rax
 2953 006f 48C1E806 		shrq	$6, %rax
 2954 0073 4889C2   		movq	%rax, %rdx
 2955 0076 488B45D0 		movq	-48(%rbp), %rax
 2956 007a 83E03F   		andl	$63, %eax
 2957 007d 4885C0   		testq	%rax, %rax
 2958 0080 0F95C0   		setne	%al
 2959 0083 0FB6C0   		movzbl	%al, %eax
 2960 0086 4801C2   		addq	%rax, %rdx
 2961 0089 488B45B8 		movq	-72(%rbp), %rax
 2962 008d 4889D6   		movq	%rdx, %rsi
 2963 0090 4889C7   		movq	%rax, %rdi
 2964 0093 E8000000 		call	mbedtls_mpi_grow
 2964      00
 2965 0098 8945CC   		movl	%eax, -52(%rbp)
 2966 009b 837DCC00 		cmpl	$0, -52(%rbp)
 2967 009f 0F856301 		jne	.L236
 2967      0000
GAS LISTING /tmp/ccFaOvob.s 			page 76


 2968              	.L225:
 924:/home/xingli/share/1205tiny/network/dtls/mbedtls/mbedtls-2.16.2/library/bignum.c **** 
 925:/home/xingli/share/1205tiny/network/dtls/mbedtls/mbedtls-2.16.2/library/bignum.c ****     ret = 0;
 2969              		.loc 1 925 9
 2970 00a5 C745CC00 		movl	$0, -52(%rbp)
 2970      000000
 926:/home/xingli/share/1205tiny/network/dtls/mbedtls/mbedtls-2.16.2/library/bignum.c **** 
 927:/home/xingli/share/1205tiny/network/dtls/mbedtls/mbedtls-2.16.2/library/bignum.c ****     /*
 928:/home/xingli/share/1205tiny/network/dtls/mbedtls/mbedtls-2.16.2/library/bignum.c ****      * shift by count / limb_size
 929:/home/xingli/share/1205tiny/network/dtls/mbedtls/mbedtls-2.16.2/library/bignum.c ****      */
 930:/home/xingli/share/1205tiny/network/dtls/mbedtls/mbedtls-2.16.2/library/bignum.c ****     if( v0 > 0 )
 2971              		.loc 1 930 7
 2972 00ac 48837DE0 		cmpq	$0, -32(%rbp)
 2972      00
 2973 00b1 0F848200 		je	.L227
 2973      0000
 931:/home/xingli/share/1205tiny/network/dtls/mbedtls/mbedtls-2.16.2/library/bignum.c ****     {
 932:/home/xingli/share/1205tiny/network/dtls/mbedtls/mbedtls-2.16.2/library/bignum.c ****         for( i = X->n; i > v0; i-- )
 2974              		.loc 1 932 16
 2975 00b7 488B45B8 		movq	-72(%rbp), %rax
 2976 00bb 488B4008 		movq	8(%rax), %rax
 2977 00bf 488945D0 		movq	%rax, -48(%rbp)
 2978              		.loc 1 932 9
 2979 00c3 EB3E     		jmp	.L228
 2980              	.L229:
 933:/home/xingli/share/1205tiny/network/dtls/mbedtls/mbedtls-2.16.2/library/bignum.c ****             X->p[i - 1] = X->p[i - v0 - 1];
 2981              		.loc 1 933 28 discriminator 3
 2982 00c5 488B45B8 		movq	-72(%rbp), %rax
 2983 00c9 488B5010 		movq	16(%rax), %rdx
 2984              		.loc 1 933 34 discriminator 3
 2985 00cd 488B45D0 		movq	-48(%rbp), %rax
 2986 00d1 482B45E0 		subq	-32(%rbp), %rax
 2987              		.loc 1 933 31 discriminator 3
 2988 00d5 48C1E003 		salq	$3, %rax
 2989 00d9 4883E808 		subq	$8, %rax
 2990 00dd 488D0C02 		leaq	(%rdx,%rax), %rcx
 2991              		.loc 1 933 14 discriminator 3
 2992 00e1 488B45B8 		movq	-72(%rbp), %rax
 2993 00e5 488B4010 		movq	16(%rax), %rax
 2994              		.loc 1 933 17 discriminator 3
 2995 00e9 488B55D0 		movq	-48(%rbp), %rdx
 2996 00ed 48C1E203 		salq	$3, %rdx
 2997 00f1 4883EA08 		subq	$8, %rdx
 2998 00f5 4801C2   		addq	%rax, %rdx
 2999              		.loc 1 933 31 discriminator 3
 3000 00f8 488B01   		movq	(%rcx), %rax
 3001              		.loc 1 933 25 discriminator 3
 3002 00fb 488902   		movq	%rax, (%rdx)
 932:/home/xingli/share/1205tiny/network/dtls/mbedtls/mbedtls-2.16.2/library/bignum.c ****             X->p[i - 1] = X->p[i - v0 - 1];
 3003              		.loc 1 932 33 discriminator 3
 3004 00fe 48836DD0 		subq	$1, -48(%rbp)
 3004      01
 3005              	.L228:
 932:/home/xingli/share/1205tiny/network/dtls/mbedtls/mbedtls-2.16.2/library/bignum.c ****             X->p[i - 1] = X->p[i - v0 - 1];
 3006              		.loc 1 932 9 discriminator 1
 3007 0103 488B45D0 		movq	-48(%rbp), %rax
 3008 0107 483B45E0 		cmpq	-32(%rbp), %rax
GAS LISTING /tmp/ccFaOvob.s 			page 77


 3009 010b 77B8     		ja	.L229
 934:/home/xingli/share/1205tiny/network/dtls/mbedtls/mbedtls-2.16.2/library/bignum.c **** 
 935:/home/xingli/share/1205tiny/network/dtls/mbedtls/mbedtls-2.16.2/library/bignum.c ****         for( ; i > 0; i-- )
 3010              		.loc 1 935 9
 3011 010d EB23     		jmp	.L230
 3012              	.L231:
 936:/home/xingli/share/1205tiny/network/dtls/mbedtls/mbedtls-2.16.2/library/bignum.c ****             X->p[i - 1] = 0;
 3013              		.loc 1 936 14 discriminator 2
 3014 010f 488B45B8 		movq	-72(%rbp), %rax
 3015 0113 488B4010 		movq	16(%rax), %rax
 3016              		.loc 1 936 17 discriminator 2
 3017 0117 488B55D0 		movq	-48(%rbp), %rdx
 3018 011b 48C1E203 		salq	$3, %rdx
 3019 011f 4883EA08 		subq	$8, %rdx
 3020 0123 4801D0   		addq	%rdx, %rax
 3021              		.loc 1 936 25 discriminator 2
 3022 0126 48C70000 		movq	$0, (%rax)
 3022      000000
 935:/home/xingli/share/1205tiny/network/dtls/mbedtls/mbedtls-2.16.2/library/bignum.c ****             X->p[i - 1] = 0;
 3023              		.loc 1 935 24 discriminator 2
 3024 012d 48836DD0 		subq	$1, -48(%rbp)
 3024      01
 3025              	.L230:
 935:/home/xingli/share/1205tiny/network/dtls/mbedtls/mbedtls-2.16.2/library/bignum.c ****             X->p[i - 1] = 0;
 3026              		.loc 1 935 9 discriminator 1
 3027 0132 48837DD0 		cmpq	$0, -48(%rbp)
 3027      00
 3028 0137 75D6     		jne	.L231
 3029              	.L227:
 937:/home/xingli/share/1205tiny/network/dtls/mbedtls/mbedtls-2.16.2/library/bignum.c ****     }
 938:/home/xingli/share/1205tiny/network/dtls/mbedtls/mbedtls-2.16.2/library/bignum.c **** 
 939:/home/xingli/share/1205tiny/network/dtls/mbedtls/mbedtls-2.16.2/library/bignum.c ****     /*
 940:/home/xingli/share/1205tiny/network/dtls/mbedtls/mbedtls-2.16.2/library/bignum.c ****      * shift by count % limb_size
 941:/home/xingli/share/1205tiny/network/dtls/mbedtls/mbedtls-2.16.2/library/bignum.c ****      */
 942:/home/xingli/share/1205tiny/network/dtls/mbedtls/mbedtls-2.16.2/library/bignum.c ****     if( t1 > 0 )
 3030              		.loc 1 942 7
 3031 0139 48837DE8 		cmpq	$0, -24(%rbp)
 3031      00
 3032 013e 0F84C700 		je	.L237
 3032      0000
 943:/home/xingli/share/1205tiny/network/dtls/mbedtls/mbedtls-2.16.2/library/bignum.c ****     {
 944:/home/xingli/share/1205tiny/network/dtls/mbedtls/mbedtls-2.16.2/library/bignum.c ****         for( i = v0; i < X->n; i++ )
 3033              		.loc 1 944 16
 3034 0144 488B45E0 		movq	-32(%rbp), %rax
 3035 0148 488945D0 		movq	%rax, -48(%rbp)
 3036              		.loc 1 944 9
 3037 014c E9A30000 		jmp	.L232
 3037      00
 3038              	.L233:
 945:/home/xingli/share/1205tiny/network/dtls/mbedtls/mbedtls-2.16.2/library/bignum.c ****         {
 946:/home/xingli/share/1205tiny/network/dtls/mbedtls/mbedtls-2.16.2/library/bignum.c ****             r1 = X->p[i] >> (biL - t1);
 3039              		.loc 1 946 19 discriminator 3
 3040 0151 488B45B8 		movq	-72(%rbp), %rax
 3041 0155 488B4010 		movq	16(%rax), %rax
 3042              		.loc 1 946 22 discriminator 3
 3043 0159 488B55D0 		movq	-48(%rbp), %rdx
 3044 015d 48C1E203 		salq	$3, %rdx
GAS LISTING /tmp/ccFaOvob.s 			page 78


 3045 0161 4801D0   		addq	%rdx, %rax
 3046 0164 488B10   		movq	(%rax), %rdx
 3047              		.loc 1 946 34 discriminator 3
 3048 0167 488B45E8 		movq	-24(%rbp), %rax
 3049 016b B9400000 		movl	$64, %ecx
 3049      00
 3050 0170 29C1     		subl	%eax, %ecx
 3051 0172 89C8     		movl	%ecx, %eax
 3052              		.loc 1 946 16 discriminator 3
 3053 0174 89C1     		movl	%eax, %ecx
 3054 0176 48D3EA   		shrq	%cl, %rdx
 3055 0179 4889D0   		movq	%rdx, %rax
 3056 017c 488945F0 		movq	%rax, -16(%rbp)
 947:/home/xingli/share/1205tiny/network/dtls/mbedtls/mbedtls-2.16.2/library/bignum.c ****             X->p[i] <<= t1;
 3057              		.loc 1 947 14 discriminator 3
 3058 0180 488B45B8 		movq	-72(%rbp), %rax
 3059 0184 488B4010 		movq	16(%rax), %rax
 3060              		.loc 1 947 21 discriminator 3
 3061 0188 488B55D0 		movq	-48(%rbp), %rdx
 3062 018c 48C1E203 		salq	$3, %rdx
 3063 0190 4801D0   		addq	%rdx, %rax
 3064 0193 488B10   		movq	(%rax), %rdx
 3065 0196 488B45E8 		movq	-24(%rbp), %rax
 3066 019a 89C6     		movl	%eax, %esi
 3067              		.loc 1 947 14 discriminator 3
 3068 019c 488B45B8 		movq	-72(%rbp), %rax
 3069 01a0 488B4010 		movq	16(%rax), %rax
 3070              		.loc 1 947 21 discriminator 3
 3071 01a4 488B4DD0 		movq	-48(%rbp), %rcx
 3072 01a8 48C1E103 		salq	$3, %rcx
 3073 01ac 4801C8   		addq	%rcx, %rax
 3074 01af 89F1     		movl	%esi, %ecx
 3075 01b1 48D3E2   		salq	%cl, %rdx
 3076 01b4 488910   		movq	%rdx, (%rax)
 948:/home/xingli/share/1205tiny/network/dtls/mbedtls/mbedtls-2.16.2/library/bignum.c ****             X->p[i] |= r0;
 3077              		.loc 1 948 14 discriminator 3
 3078 01b7 488B45B8 		movq	-72(%rbp), %rax
 3079 01bb 488B4010 		movq	16(%rax), %rax
 3080              		.loc 1 948 21 discriminator 3
 3081 01bf 488B55D0 		movq	-48(%rbp), %rdx
 3082 01c3 48C1E203 		salq	$3, %rdx
 3083 01c7 4801D0   		addq	%rdx, %rax
 3084 01ca 488B00   		movq	(%rax), %rax
 3085              		.loc 1 948 14 discriminator 3
 3086 01cd 488B55B8 		movq	-72(%rbp), %rdx
 3087 01d1 488B5210 		movq	16(%rdx), %rdx
 3088              		.loc 1 948 21 discriminator 3
 3089 01d5 488B4DD0 		movq	-48(%rbp), %rcx
 3090 01d9 48C1E103 		salq	$3, %rcx
 3091 01dd 4801CA   		addq	%rcx, %rdx
 3092 01e0 480B45D8 		orq	-40(%rbp), %rax
 3093 01e4 488902   		movq	%rax, (%rdx)
 949:/home/xingli/share/1205tiny/network/dtls/mbedtls/mbedtls-2.16.2/library/bignum.c ****             r0 = r1;
 3094              		.loc 1 949 16 discriminator 3
 3095 01e7 488B45F0 		movq	-16(%rbp), %rax
 3096 01eb 488945D8 		movq	%rax, -40(%rbp)
 944:/home/xingli/share/1205tiny/network/dtls/mbedtls/mbedtls-2.16.2/library/bignum.c ****         {
GAS LISTING /tmp/ccFaOvob.s 			page 79


 3097              		.loc 1 944 33 discriminator 3
 3098 01ef 488345D0 		addq	$1, -48(%rbp)
 3098      01
 3099              	.L232:
 944:/home/xingli/share/1205tiny/network/dtls/mbedtls/mbedtls-2.16.2/library/bignum.c ****         {
 3100              		.loc 1 944 27 discriminator 1
 3101 01f4 488B45B8 		movq	-72(%rbp), %rax
 3102 01f8 488B4008 		movq	8(%rax), %rax
 944:/home/xingli/share/1205tiny/network/dtls/mbedtls/mbedtls-2.16.2/library/bignum.c ****         {
 3103              		.loc 1 944 9 discriminator 1
 3104 01fc 483945D0 		cmpq	%rax, -48(%rbp)
 3105 0200 0F824BFF 		jb	.L233
 3105      FFFF
 950:/home/xingli/share/1205tiny/network/dtls/mbedtls/mbedtls-2.16.2/library/bignum.c ****         }
 951:/home/xingli/share/1205tiny/network/dtls/mbedtls/mbedtls-2.16.2/library/bignum.c ****     }
 952:/home/xingli/share/1205tiny/network/dtls/mbedtls/mbedtls-2.16.2/library/bignum.c **** 
 953:/home/xingli/share/1205tiny/network/dtls/mbedtls/mbedtls-2.16.2/library/bignum.c **** cleanup:
 3106              		.loc 1 953 1
 3107 0206 EB03     		jmp	.L237
 3108              	.L236:
 923:/home/xingli/share/1205tiny/network/dtls/mbedtls/mbedtls-2.16.2/library/bignum.c **** 
 3109              		.loc 1 923 9
 3110 0208 90       		nop
 3111 0209 EB01     		jmp	.L226
 3112              	.L237:
 3113              		.loc 1 953 1
 3114 020b 90       		nop
 3115              	.L226:
 954:/home/xingli/share/1205tiny/network/dtls/mbedtls/mbedtls-2.16.2/library/bignum.c **** 
 955:/home/xingli/share/1205tiny/network/dtls/mbedtls/mbedtls-2.16.2/library/bignum.c ****     return( ret );
 3116              		.loc 1 955 11
 3117 020c 8B45CC   		movl	-52(%rbp), %eax
 956:/home/xingli/share/1205tiny/network/dtls/mbedtls/mbedtls-2.16.2/library/bignum.c **** }
 3118              		.loc 1 956 1
 3119 020f 488B7DF8 		movq	-8(%rbp), %rdi
 3120 0213 6448333C 		xorq	%fs:40, %rdi
 3120      25280000 
 3120      00
 3121 021c 7405     		je	.L235
 3122 021e E8000000 		call	__stack_chk_fail@PLT
 3122      00
 3123              	.L235:
 3124 0223 C9       		leave
 3125              	.LCFI77:
 3126              		.cfi_def_cfa 7, 8
 3127 0224 C3       		ret
 3128              		.cfi_endproc
 3129              	.LFE31:
 3131              		.section	.text.mbedtls_mpi_shift_r,"ax",@progbits
 3132              		.globl	mbedtls_mpi_shift_r
 3134              	mbedtls_mpi_shift_r:
 3135              	.LFB32:
 957:/home/xingli/share/1205tiny/network/dtls/mbedtls/mbedtls-2.16.2/library/bignum.c **** 
 958:/home/xingli/share/1205tiny/network/dtls/mbedtls/mbedtls-2.16.2/library/bignum.c **** /*
 959:/home/xingli/share/1205tiny/network/dtls/mbedtls/mbedtls-2.16.2/library/bignum.c ****  * Right-shift: X >>= count
 960:/home/xingli/share/1205tiny/network/dtls/mbedtls/mbedtls-2.16.2/library/bignum.c ****  */
 961:/home/xingli/share/1205tiny/network/dtls/mbedtls/mbedtls-2.16.2/library/bignum.c **** int mbedtls_mpi_shift_r( mbedtls_mpi *X, size_t count )
GAS LISTING /tmp/ccFaOvob.s 			page 80


 962:/home/xingli/share/1205tiny/network/dtls/mbedtls/mbedtls-2.16.2/library/bignum.c **** {
 3136              		.loc 1 962 1
 3137              		.cfi_startproc
 3138 0000 F30F1EFA 		endbr64
 3139 0004 55       		pushq	%rbp
 3140              	.LCFI78:
 3141              		.cfi_def_cfa_offset 16
 3142              		.cfi_offset 6, -16
 3143 0005 4889E5   		movq	%rsp, %rbp
 3144              	.LCFI79:
 3145              		.cfi_def_cfa_register 6
 3146 0008 4883EC40 		subq	$64, %rsp
 3147 000c 48897DC8 		movq	%rdi, -56(%rbp)
 3148 0010 488975C0 		movq	%rsi, -64(%rbp)
 3149              		.loc 1 962 1
 3150 0014 64488B04 		movq	%fs:40, %rax
 3150      25280000 
 3150      00
 3151 001d 488945F8 		movq	%rax, -8(%rbp)
 3152 0021 31C0     		xorl	%eax, %eax
 963:/home/xingli/share/1205tiny/network/dtls/mbedtls/mbedtls-2.16.2/library/bignum.c ****     size_t i, v0, v1;
 964:/home/xingli/share/1205tiny/network/dtls/mbedtls/mbedtls-2.16.2/library/bignum.c ****     mbedtls_mpi_uint r0 = 0, r1;
 3153              		.loc 1 964 22
 3154 0023 48C745D8 		movq	$0, -40(%rbp)
 3154      00000000 
 965:/home/xingli/share/1205tiny/network/dtls/mbedtls/mbedtls-2.16.2/library/bignum.c ****     MPI_VALIDATE_RET( X != NULL );
 966:/home/xingli/share/1205tiny/network/dtls/mbedtls/mbedtls-2.16.2/library/bignum.c **** 
 967:/home/xingli/share/1205tiny/network/dtls/mbedtls/mbedtls-2.16.2/library/bignum.c ****     v0 = count /  biL;
 3155              		.loc 1 967 8
 3156 002b 488B45C0 		movq	-64(%rbp), %rax
 3157 002f 48C1E806 		shrq	$6, %rax
 3158 0033 488945E0 		movq	%rax, -32(%rbp)
 968:/home/xingli/share/1205tiny/network/dtls/mbedtls/mbedtls-2.16.2/library/bignum.c ****     v1 = count & (biL - 1);
 3159              		.loc 1 968 8
 3160 0037 488B45C0 		movq	-64(%rbp), %rax
 3161 003b 83E03F   		andl	$63, %eax
 3162 003e 488945E8 		movq	%rax, -24(%rbp)
 969:/home/xingli/share/1205tiny/network/dtls/mbedtls/mbedtls-2.16.2/library/bignum.c **** 
 970:/home/xingli/share/1205tiny/network/dtls/mbedtls/mbedtls-2.16.2/library/bignum.c ****     if( v0 > X->n || ( v0 == X->n && v1 > 0 ) )
 3163              		.loc 1 970 15
 3164 0042 488B45C8 		movq	-56(%rbp), %rax
 3165 0046 488B4008 		movq	8(%rax), %rax
 3166              		.loc 1 970 7
 3167 004a 483945E0 		cmpq	%rax, -32(%rbp)
 3168 004e 7715     		ja	.L239
 3169              		.loc 1 970 31 discriminator 1
 3170 0050 488B45C8 		movq	-56(%rbp), %rax
 3171 0054 488B4008 		movq	8(%rax), %rax
 3172              		.loc 1 970 19 discriminator 1
 3173 0058 483945E0 		cmpq	%rax, -32(%rbp)
 3174 005c 751D     		jne	.L240
 3175              		.loc 1 970 35 discriminator 2
 3176 005e 48837DE8 		cmpq	$0, -24(%rbp)
 3176      00
 3177 0063 7416     		je	.L240
 3178              	.L239:
 971:/home/xingli/share/1205tiny/network/dtls/mbedtls/mbedtls-2.16.2/library/bignum.c ****         return mbedtls_mpi_lset( X, 0 );
GAS LISTING /tmp/ccFaOvob.s 			page 81


 3179              		.loc 1 971 16
 3180 0065 488B45C8 		movq	-56(%rbp), %rax
 3181 0069 BE000000 		movl	$0, %esi
 3181      00
 3182 006e 4889C7   		movq	%rax, %rdi
 3183 0071 E8000000 		call	mbedtls_mpi_lset
 3183      00
 3184 0076 E9720100 		jmp	.L241
 3184      00
 3185              	.L240:
 972:/home/xingli/share/1205tiny/network/dtls/mbedtls/mbedtls-2.16.2/library/bignum.c **** 
 973:/home/xingli/share/1205tiny/network/dtls/mbedtls/mbedtls-2.16.2/library/bignum.c ****     /*
 974:/home/xingli/share/1205tiny/network/dtls/mbedtls/mbedtls-2.16.2/library/bignum.c ****      * shift by count / limb_size
 975:/home/xingli/share/1205tiny/network/dtls/mbedtls/mbedtls-2.16.2/library/bignum.c ****      */
 976:/home/xingli/share/1205tiny/network/dtls/mbedtls/mbedtls-2.16.2/library/bignum.c ****     if( v0 > 0 )
 3186              		.loc 1 976 7
 3187 007b 48837DE0 		cmpq	$0, -32(%rbp)
 3187      00
 3188 0080 0F848400 		je	.L242
 3188      0000
 977:/home/xingli/share/1205tiny/network/dtls/mbedtls/mbedtls-2.16.2/library/bignum.c ****     {
 978:/home/xingli/share/1205tiny/network/dtls/mbedtls/mbedtls-2.16.2/library/bignum.c ****         for( i = 0; i < X->n - v0; i++ )
 3189              		.loc 1 978 16
 3190 0086 48C745D0 		movq	$0, -48(%rbp)
 3190      00000000 
 3191              		.loc 1 978 9
 3192 008e EB39     		jmp	.L243
 3193              	.L244:
 979:/home/xingli/share/1205tiny/network/dtls/mbedtls/mbedtls-2.16.2/library/bignum.c ****             X->p[i] = X->p[i + v0];
 3194              		.loc 1 979 24 discriminator 3
 3195 0090 488B45C8 		movq	-56(%rbp), %rax
 3196 0094 488B4010 		movq	16(%rax), %rax
 3197              		.loc 1 979 30 discriminator 3
 3198 0098 488B4DD0 		movq	-48(%rbp), %rcx
 3199 009c 488B55E0 		movq	-32(%rbp), %rdx
 3200 00a0 4801CA   		addq	%rcx, %rdx
 3201              		.loc 1 979 27 discriminator 3
 3202 00a3 48C1E203 		salq	$3, %rdx
 3203 00a7 488D0C10 		leaq	(%rax,%rdx), %rcx
 3204              		.loc 1 979 14 discriminator 3
 3205 00ab 488B45C8 		movq	-56(%rbp), %rax
 3206 00af 488B4010 		movq	16(%rax), %rax
 3207              		.loc 1 979 17 discriminator 3
 3208 00b3 488B55D0 		movq	-48(%rbp), %rdx
 3209 00b7 48C1E203 		salq	$3, %rdx
 3210 00bb 4801C2   		addq	%rax, %rdx
 3211              		.loc 1 979 27 discriminator 3
 3212 00be 488B01   		movq	(%rcx), %rax
 3213              		.loc 1 979 21 discriminator 3
 3214 00c1 488902   		movq	%rax, (%rdx)
 978:/home/xingli/share/1205tiny/network/dtls/mbedtls/mbedtls-2.16.2/library/bignum.c ****             X->p[i] = X->p[i + v0];
 3215              		.loc 1 978 37 discriminator 3
 3216 00c4 488345D0 		addq	$1, -48(%rbp)
 3216      01
 3217              	.L243:
 978:/home/xingli/share/1205tiny/network/dtls/mbedtls/mbedtls-2.16.2/library/bignum.c ****             X->p[i] = X->p[i + v0];
 3218              		.loc 1 978 26 discriminator 1
GAS LISTING /tmp/ccFaOvob.s 			page 82


 3219 00c9 488B45C8 		movq	-56(%rbp), %rax
 3220 00cd 488B4008 		movq	8(%rax), %rax
 978:/home/xingli/share/1205tiny/network/dtls/mbedtls/mbedtls-2.16.2/library/bignum.c ****             X->p[i] = X->p[i + v0];
 3221              		.loc 1 978 30 discriminator 1
 3222 00d1 482B45E0 		subq	-32(%rbp), %rax
 978:/home/xingli/share/1205tiny/network/dtls/mbedtls/mbedtls-2.16.2/library/bignum.c ****             X->p[i] = X->p[i + v0];
 3223              		.loc 1 978 9 discriminator 1
 3224 00d5 483945D0 		cmpq	%rax, -48(%rbp)
 3225 00d9 72B5     		jb	.L244
 980:/home/xingli/share/1205tiny/network/dtls/mbedtls/mbedtls-2.16.2/library/bignum.c **** 
 981:/home/xingli/share/1205tiny/network/dtls/mbedtls/mbedtls-2.16.2/library/bignum.c ****         for( ; i < X->n; i++ )
 3226              		.loc 1 981 9
 3227 00db EB1F     		jmp	.L245
 3228              	.L246:
 982:/home/xingli/share/1205tiny/network/dtls/mbedtls/mbedtls-2.16.2/library/bignum.c ****             X->p[i] = 0;
 3229              		.loc 1 982 14 discriminator 2
 3230 00dd 488B45C8 		movq	-56(%rbp), %rax
 3231 00e1 488B4010 		movq	16(%rax), %rax
 3232              		.loc 1 982 17 discriminator 2
 3233 00e5 488B55D0 		movq	-48(%rbp), %rdx
 3234 00e9 48C1E203 		salq	$3, %rdx
 3235 00ed 4801D0   		addq	%rdx, %rax
 3236              		.loc 1 982 21 discriminator 2
 3237 00f0 48C70000 		movq	$0, (%rax)
 3237      000000
 981:/home/xingli/share/1205tiny/network/dtls/mbedtls/mbedtls-2.16.2/library/bignum.c ****             X->p[i] = 0;
 3238              		.loc 1 981 27 discriminator 2
 3239 00f7 488345D0 		addq	$1, -48(%rbp)
 3239      01
 3240              	.L245:
 981:/home/xingli/share/1205tiny/network/dtls/mbedtls/mbedtls-2.16.2/library/bignum.c ****             X->p[i] = 0;
 3241              		.loc 1 981 21 discriminator 1
 3242 00fc 488B45C8 		movq	-56(%rbp), %rax
 3243 0100 488B4008 		movq	8(%rax), %rax
 981:/home/xingli/share/1205tiny/network/dtls/mbedtls/mbedtls-2.16.2/library/bignum.c ****             X->p[i] = 0;
 3244              		.loc 1 981 9 discriminator 1
 3245 0104 483945D0 		cmpq	%rax, -48(%rbp)
 3246 0108 72D3     		jb	.L246
 3247              	.L242:
 983:/home/xingli/share/1205tiny/network/dtls/mbedtls/mbedtls-2.16.2/library/bignum.c ****     }
 984:/home/xingli/share/1205tiny/network/dtls/mbedtls/mbedtls-2.16.2/library/bignum.c **** 
 985:/home/xingli/share/1205tiny/network/dtls/mbedtls/mbedtls-2.16.2/library/bignum.c ****     /*
 986:/home/xingli/share/1205tiny/network/dtls/mbedtls/mbedtls-2.16.2/library/bignum.c ****      * shift by count % limb_size
 987:/home/xingli/share/1205tiny/network/dtls/mbedtls/mbedtls-2.16.2/library/bignum.c ****      */
 988:/home/xingli/share/1205tiny/network/dtls/mbedtls/mbedtls-2.16.2/library/bignum.c ****     if( v1 > 0 )
 3248              		.loc 1 988 7
 3249 010a 48837DE8 		cmpq	$0, -24(%rbp)
 3249      00
 3250 010f 0F84D300 		je	.L247
 3250      0000
 989:/home/xingli/share/1205tiny/network/dtls/mbedtls/mbedtls-2.16.2/library/bignum.c ****     {
 990:/home/xingli/share/1205tiny/network/dtls/mbedtls/mbedtls-2.16.2/library/bignum.c ****         for( i = X->n; i > 0; i-- )
 3251              		.loc 1 990 16
 3252 0115 488B45C8 		movq	-56(%rbp), %rax
 3253 0119 488B4008 		movq	8(%rax), %rax
 3254 011d 488945D0 		movq	%rax, -48(%rbp)
 3255              		.loc 1 990 9
GAS LISTING /tmp/ccFaOvob.s 			page 83


 3256 0121 E9B70000 		jmp	.L248
 3256      00
 3257              	.L249:
 991:/home/xingli/share/1205tiny/network/dtls/mbedtls/mbedtls-2.16.2/library/bignum.c ****         {
 992:/home/xingli/share/1205tiny/network/dtls/mbedtls/mbedtls-2.16.2/library/bignum.c ****             r1 = X->p[i - 1] << (biL - v1);
 3258              		.loc 1 992 19 discriminator 3
 3259 0126 488B45C8 		movq	-56(%rbp), %rax
 3260 012a 488B4010 		movq	16(%rax), %rax
 3261              		.loc 1 992 22 discriminator 3
 3262 012e 488B55D0 		movq	-48(%rbp), %rdx
 3263 0132 48C1E203 		salq	$3, %rdx
 3264 0136 4883EA08 		subq	$8, %rdx
 3265 013a 4801D0   		addq	%rdx, %rax
 3266 013d 488B10   		movq	(%rax), %rdx
 3267              		.loc 1 992 38 discriminator 3
 3268 0140 488B45E8 		movq	-24(%rbp), %rax
 3269 0144 B9400000 		movl	$64, %ecx
 3269      00
 3270 0149 29C1     		subl	%eax, %ecx
 3271 014b 89C8     		movl	%ecx, %eax
 3272              		.loc 1 992 16 discriminator 3
 3273 014d 89C1     		movl	%eax, %ecx
 3274 014f 48D3E2   		salq	%cl, %rdx
 3275 0152 4889D0   		movq	%rdx, %rax
 3276 0155 488945F0 		movq	%rax, -16(%rbp)
 993:/home/xingli/share/1205tiny/network/dtls/mbedtls/mbedtls-2.16.2/library/bignum.c ****             X->p[i - 1] >>= v1;
 3277              		.loc 1 993 14 discriminator 3
 3278 0159 488B45C8 		movq	-56(%rbp), %rax
 3279 015d 488B4010 		movq	16(%rax), %rax
 3280              		.loc 1 993 25 discriminator 3
 3281 0161 488B55D0 		movq	-48(%rbp), %rdx
 3282 0165 48C1E203 		salq	$3, %rdx
 3283 0169 4883EA08 		subq	$8, %rdx
 3284 016d 4801D0   		addq	%rdx, %rax
 3285 0170 488B10   		movq	(%rax), %rdx
 3286 0173 488B45E8 		movq	-24(%rbp), %rax
 3287 0177 89C6     		movl	%eax, %esi
 3288              		.loc 1 993 14 discriminator 3
 3289 0179 488B45C8 		movq	-56(%rbp), %rax
 3290 017d 488B4010 		movq	16(%rax), %rax
 3291              		.loc 1 993 25 discriminator 3
 3292 0181 488B4DD0 		movq	-48(%rbp), %rcx
 3293 0185 48C1E103 		salq	$3, %rcx
 3294 0189 4883E908 		subq	$8, %rcx
 3295 018d 4801C8   		addq	%rcx, %rax
 3296 0190 89F1     		movl	%esi, %ecx
 3297 0192 48D3EA   		shrq	%cl, %rdx
 3298 0195 488910   		movq	%rdx, (%rax)
 994:/home/xingli/share/1205tiny/network/dtls/mbedtls/mbedtls-2.16.2/library/bignum.c ****             X->p[i - 1] |= r0;
 3299              		.loc 1 994 14 discriminator 3
 3300 0198 488B45C8 		movq	-56(%rbp), %rax
 3301 019c 488B4010 		movq	16(%rax), %rax
 3302              		.loc 1 994 25 discriminator 3
 3303 01a0 488B55D0 		movq	-48(%rbp), %rdx
 3304 01a4 48C1E203 		salq	$3, %rdx
 3305 01a8 4883EA08 		subq	$8, %rdx
 3306 01ac 4801D0   		addq	%rdx, %rax
GAS LISTING /tmp/ccFaOvob.s 			page 84


 3307 01af 488B00   		movq	(%rax), %rax
 3308              		.loc 1 994 14 discriminator 3
 3309 01b2 488B55C8 		movq	-56(%rbp), %rdx
 3310 01b6 488B5210 		movq	16(%rdx), %rdx
 3311              		.loc 1 994 25 discriminator 3
 3312 01ba 488B4DD0 		movq	-48(%rbp), %rcx
 3313 01be 48C1E103 		salq	$3, %rcx
 3314 01c2 4883E908 		subq	$8, %rcx
 3315 01c6 4801CA   		addq	%rcx, %rdx
 3316 01c9 480B45D8 		orq	-40(%rbp), %rax
 3317 01cd 488902   		movq	%rax, (%rdx)
 995:/home/xingli/share/1205tiny/network/dtls/mbedtls/mbedtls-2.16.2/library/bignum.c ****             r0 = r1;
 3318              		.loc 1 995 16 discriminator 3
 3319 01d0 488B45F0 		movq	-16(%rbp), %rax
 3320 01d4 488945D8 		movq	%rax, -40(%rbp)
 990:/home/xingli/share/1205tiny/network/dtls/mbedtls/mbedtls-2.16.2/library/bignum.c ****         {
 3321              		.loc 1 990 32 discriminator 3
 3322 01d8 48836DD0 		subq	$1, -48(%rbp)
 3322      01
 3323              	.L248:
 990:/home/xingli/share/1205tiny/network/dtls/mbedtls/mbedtls-2.16.2/library/bignum.c ****         {
 3324              		.loc 1 990 9 discriminator 1
 3325 01dd 48837DD0 		cmpq	$0, -48(%rbp)
 3325      00
 3326 01e2 0F853EFF 		jne	.L249
 3326      FFFF
 3327              	.L247:
 996:/home/xingli/share/1205tiny/network/dtls/mbedtls/mbedtls-2.16.2/library/bignum.c ****         }
 997:/home/xingli/share/1205tiny/network/dtls/mbedtls/mbedtls-2.16.2/library/bignum.c ****     }
 998:/home/xingli/share/1205tiny/network/dtls/mbedtls/mbedtls-2.16.2/library/bignum.c **** 
 999:/home/xingli/share/1205tiny/network/dtls/mbedtls/mbedtls-2.16.2/library/bignum.c ****     return( 0 );
 3328              		.loc 1 999 11
 3329 01e8 B8000000 		movl	$0, %eax
 3329      00
 3330              	.L241:
1000:/home/xingli/share/1205tiny/network/dtls/mbedtls/mbedtls-2.16.2/library/bignum.c **** }
 3331              		.loc 1 1000 1
 3332 01ed 488B7DF8 		movq	-8(%rbp), %rdi
 3333 01f1 6448333C 		xorq	%fs:40, %rdi
 3333      25280000 
 3333      00
 3334 01fa 7405     		je	.L250
 3335 01fc E8000000 		call	__stack_chk_fail@PLT
 3335      00
 3336              	.L250:
 3337 0201 C9       		leave
 3338              	.LCFI80:
 3339              		.cfi_def_cfa 7, 8
 3340 0202 C3       		ret
 3341              		.cfi_endproc
 3342              	.LFE32:
 3344              		.section	.text.mbedtls_mpi_cmp_abs,"ax",@progbits
 3345              		.globl	mbedtls_mpi_cmp_abs
 3347              	mbedtls_mpi_cmp_abs:
 3348              	.LFB33:
1001:/home/xingli/share/1205tiny/network/dtls/mbedtls/mbedtls-2.16.2/library/bignum.c **** 
1002:/home/xingli/share/1205tiny/network/dtls/mbedtls/mbedtls-2.16.2/library/bignum.c **** /*
GAS LISTING /tmp/ccFaOvob.s 			page 85


1003:/home/xingli/share/1205tiny/network/dtls/mbedtls/mbedtls-2.16.2/library/bignum.c ****  * Compare unsigned values
1004:/home/xingli/share/1205tiny/network/dtls/mbedtls/mbedtls-2.16.2/library/bignum.c ****  */
1005:/home/xingli/share/1205tiny/network/dtls/mbedtls/mbedtls-2.16.2/library/bignum.c **** int mbedtls_mpi_cmp_abs( const mbedtls_mpi *X, const mbedtls_mpi *Y )
1006:/home/xingli/share/1205tiny/network/dtls/mbedtls/mbedtls-2.16.2/library/bignum.c **** {
 3349              		.loc 1 1006 1
 3350              		.cfi_startproc
 3351 0000 F30F1EFA 		endbr64
 3352 0004 55       		pushq	%rbp
 3353              	.LCFI81:
 3354              		.cfi_def_cfa_offset 16
 3355              		.cfi_offset 6, -16
 3356 0005 4889E5   		movq	%rsp, %rbp
 3357              	.LCFI82:
 3358              		.cfi_def_cfa_register 6
 3359 0008 4883EC30 		subq	$48, %rsp
 3360 000c 48897DD8 		movq	%rdi, -40(%rbp)
 3361 0010 488975D0 		movq	%rsi, -48(%rbp)
 3362              		.loc 1 1006 1
 3363 0014 64488B04 		movq	%fs:40, %rax
 3363      25280000 
 3363      00
 3364 001d 488945F8 		movq	%rax, -8(%rbp)
 3365 0021 31C0     		xorl	%eax, %eax
1007:/home/xingli/share/1205tiny/network/dtls/mbedtls/mbedtls-2.16.2/library/bignum.c ****     size_t i, j;
1008:/home/xingli/share/1205tiny/network/dtls/mbedtls/mbedtls-2.16.2/library/bignum.c ****     MPI_VALIDATE_RET( X != NULL );
1009:/home/xingli/share/1205tiny/network/dtls/mbedtls/mbedtls-2.16.2/library/bignum.c ****     MPI_VALIDATE_RET( Y != NULL );
1010:/home/xingli/share/1205tiny/network/dtls/mbedtls/mbedtls-2.16.2/library/bignum.c **** 
1011:/home/xingli/share/1205tiny/network/dtls/mbedtls/mbedtls-2.16.2/library/bignum.c ****     for( i = X->n; i > 0; i-- )
 3366              		.loc 1 1011 12
 3367 0023 488B45D8 		movq	-40(%rbp), %rax
 3368 0027 488B4008 		movq	8(%rax), %rax
 3369 002b 488945E8 		movq	%rax, -24(%rbp)
 3370              		.loc 1 1011 5
 3371 002f EB24     		jmp	.L252
 3372              	.L255:
1012:/home/xingli/share/1205tiny/network/dtls/mbedtls/mbedtls-2.16.2/library/bignum.c ****         if( X->p[i - 1] != 0 )
 3373              		.loc 1 1012 14
 3374 0031 488B45D8 		movq	-40(%rbp), %rax
 3375 0035 488B4010 		movq	16(%rax), %rax
 3376              		.loc 1 1012 17
 3377 0039 488B55E8 		movq	-24(%rbp), %rdx
 3378 003d 48C1E203 		salq	$3, %rdx
 3379 0041 4883EA08 		subq	$8, %rdx
 3380 0045 4801D0   		addq	%rdx, %rax
 3381 0048 488B00   		movq	(%rax), %rax
 3382              		.loc 1 1012 11
 3383 004b 4885C0   		testq	%rax, %rax
 3384 004e 750E     		jne	.L269
1011:/home/xingli/share/1205tiny/network/dtls/mbedtls/mbedtls-2.16.2/library/bignum.c ****         if( X->p[i - 1] != 0 )
 3385              		.loc 1 1011 28 discriminator 2
 3386 0050 48836DE8 		subq	$1, -24(%rbp)
 3386      01
 3387              	.L252:
1011:/home/xingli/share/1205tiny/network/dtls/mbedtls/mbedtls-2.16.2/library/bignum.c ****         if( X->p[i - 1] != 0 )
 3388              		.loc 1 1011 5 discriminator 1
 3389 0055 48837DE8 		cmpq	$0, -24(%rbp)
 3389      00
GAS LISTING /tmp/ccFaOvob.s 			page 86


 3390 005a 75D5     		jne	.L255
 3391 005c EB01     		jmp	.L254
 3392              	.L269:
1013:/home/xingli/share/1205tiny/network/dtls/mbedtls/mbedtls-2.16.2/library/bignum.c ****             break;
 3393              		.loc 1 1013 13
 3394 005e 90       		nop
 3395              	.L254:
1014:/home/xingli/share/1205tiny/network/dtls/mbedtls/mbedtls-2.16.2/library/bignum.c **** 
1015:/home/xingli/share/1205tiny/network/dtls/mbedtls/mbedtls-2.16.2/library/bignum.c ****     for( j = Y->n; j > 0; j-- )
 3396              		.loc 1 1015 12
 3397 005f 488B45D0 		movq	-48(%rbp), %rax
 3398 0063 488B4008 		movq	8(%rax), %rax
 3399 0067 488945F0 		movq	%rax, -16(%rbp)
 3400              		.loc 1 1015 5
 3401 006b EB24     		jmp	.L256
 3402              	.L259:
1016:/home/xingli/share/1205tiny/network/dtls/mbedtls/mbedtls-2.16.2/library/bignum.c ****         if( Y->p[j - 1] != 0 )
 3403              		.loc 1 1016 14
 3404 006d 488B45D0 		movq	-48(%rbp), %rax
 3405 0071 488B4010 		movq	16(%rax), %rax
 3406              		.loc 1 1016 17
 3407 0075 488B55F0 		movq	-16(%rbp), %rdx
 3408 0079 48C1E203 		salq	$3, %rdx
 3409 007d 4883EA08 		subq	$8, %rdx
 3410 0081 4801D0   		addq	%rdx, %rax
 3411 0084 488B00   		movq	(%rax), %rax
 3412              		.loc 1 1016 11
 3413 0087 4885C0   		testq	%rax, %rax
 3414 008a 750E     		jne	.L270
1015:/home/xingli/share/1205tiny/network/dtls/mbedtls/mbedtls-2.16.2/library/bignum.c ****         if( Y->p[j - 1] != 0 )
 3415              		.loc 1 1015 28 discriminator 2
 3416 008c 48836DF0 		subq	$1, -16(%rbp)
 3416      01
 3417              	.L256:
1015:/home/xingli/share/1205tiny/network/dtls/mbedtls/mbedtls-2.16.2/library/bignum.c ****         if( Y->p[j - 1] != 0 )
 3418              		.loc 1 1015 5 discriminator 1
 3419 0091 48837DF0 		cmpq	$0, -16(%rbp)
 3419      00
 3420 0096 75D5     		jne	.L259
 3421 0098 EB01     		jmp	.L258
 3422              	.L270:
1017:/home/xingli/share/1205tiny/network/dtls/mbedtls/mbedtls-2.16.2/library/bignum.c ****             break;
 3423              		.loc 1 1017 13
 3424 009a 90       		nop
 3425              	.L258:
1018:/home/xingli/share/1205tiny/network/dtls/mbedtls/mbedtls-2.16.2/library/bignum.c **** 
1019:/home/xingli/share/1205tiny/network/dtls/mbedtls/mbedtls-2.16.2/library/bignum.c ****     if( i == 0 && j == 0 )
 3426              		.loc 1 1019 7
 3427 009b 48837DE8 		cmpq	$0, -24(%rbp)
 3427      00
 3428 00a0 7511     		jne	.L260
 3429              		.loc 1 1019 16 discriminator 1
 3430 00a2 48837DF0 		cmpq	$0, -16(%rbp)
 3430      00
 3431 00a7 750A     		jne	.L260
1020:/home/xingli/share/1205tiny/network/dtls/mbedtls/mbedtls-2.16.2/library/bignum.c ****         return( 0 );
 3432              		.loc 1 1020 15
GAS LISTING /tmp/ccFaOvob.s 			page 87


 3433 00a9 B8000000 		movl	$0, %eax
 3433      00
 3434 00ae E9C10000 		jmp	.L261
 3434      00
 3435              	.L260:
1021:/home/xingli/share/1205tiny/network/dtls/mbedtls/mbedtls-2.16.2/library/bignum.c **** 
1022:/home/xingli/share/1205tiny/network/dtls/mbedtls/mbedtls-2.16.2/library/bignum.c ****     if( i > j ) return(  1 );
 3436              		.loc 1 1022 7
 3437 00b3 488B45E8 		movq	-24(%rbp), %rax
 3438 00b7 483B45F0 		cmpq	-16(%rbp), %rax
 3439 00bb 760A     		jbe	.L262
 3440              		.loc 1 1022 23 discriminator 1
 3441 00bd B8010000 		movl	$1, %eax
 3441      00
 3442 00c2 E9AD0000 		jmp	.L261
 3442      00
 3443              	.L262:
1023:/home/xingli/share/1205tiny/network/dtls/mbedtls/mbedtls-2.16.2/library/bignum.c ****     if( j > i ) return( -1 );
 3444              		.loc 1 1023 7
 3445 00c7 488B45F0 		movq	-16(%rbp), %rax
 3446 00cb 483B45E8 		cmpq	-24(%rbp), %rax
 3447 00cf 0F868F00 		jbe	.L264
 3447      0000
 3448              		.loc 1 1023 23 discriminator 1
 3449 00d5 B8FFFFFF 		movl	$-1, %eax
 3449      FF
 3450 00da E9950000 		jmp	.L261
 3450      00
 3451              	.L267:
1024:/home/xingli/share/1205tiny/network/dtls/mbedtls/mbedtls-2.16.2/library/bignum.c **** 
1025:/home/xingli/share/1205tiny/network/dtls/mbedtls/mbedtls-2.16.2/library/bignum.c ****     for( ; i > 0; i-- )
1026:/home/xingli/share/1205tiny/network/dtls/mbedtls/mbedtls-2.16.2/library/bignum.c ****     {
1027:/home/xingli/share/1205tiny/network/dtls/mbedtls/mbedtls-2.16.2/library/bignum.c ****         if( X->p[i - 1] > Y->p[i - 1] ) return(  1 );
 3452              		.loc 1 1027 14
 3453 00df 488B45D8 		movq	-40(%rbp), %rax
 3454 00e3 488B4010 		movq	16(%rax), %rax
 3455              		.loc 1 1027 17
 3456 00e7 488B55E8 		movq	-24(%rbp), %rdx
 3457 00eb 48C1E203 		salq	$3, %rdx
 3458 00ef 4883EA08 		subq	$8, %rdx
 3459 00f3 4801D0   		addq	%rdx, %rax
 3460 00f6 488B10   		movq	(%rax), %rdx
 3461              		.loc 1 1027 28
 3462 00f9 488B45D0 		movq	-48(%rbp), %rax
 3463 00fd 488B4010 		movq	16(%rax), %rax
 3464              		.loc 1 1027 31
 3465 0101 488B4DE8 		movq	-24(%rbp), %rcx
 3466 0105 48C1E103 		salq	$3, %rcx
 3467 0109 4883E908 		subq	$8, %rcx
 3468 010d 4801C8   		addq	%rcx, %rax
 3469 0110 488B00   		movq	(%rax), %rax
 3470              		.loc 1 1027 11
 3471 0113 4839C2   		cmpq	%rax, %rdx
 3472 0116 7607     		jbe	.L265
 3473              		.loc 1 1027 47 discriminator 1
 3474 0118 B8010000 		movl	$1, %eax
 3474      00
GAS LISTING /tmp/ccFaOvob.s 			page 88


 3475 011d EB55     		jmp	.L261
 3476              	.L265:
1028:/home/xingli/share/1205tiny/network/dtls/mbedtls/mbedtls-2.16.2/library/bignum.c ****         if( X->p[i - 1] < Y->p[i - 1] ) return( -1 );
 3477              		.loc 1 1028 14
 3478 011f 488B45D8 		movq	-40(%rbp), %rax
 3479 0123 488B4010 		movq	16(%rax), %rax
 3480              		.loc 1 1028 17
 3481 0127 488B55E8 		movq	-24(%rbp), %rdx
 3482 012b 48C1E203 		salq	$3, %rdx
 3483 012f 4883EA08 		subq	$8, %rdx
 3484 0133 4801D0   		addq	%rdx, %rax
 3485 0136 488B10   		movq	(%rax), %rdx
 3486              		.loc 1 1028 28
 3487 0139 488B45D0 		movq	-48(%rbp), %rax
 3488 013d 488B4010 		movq	16(%rax), %rax
 3489              		.loc 1 1028 31
 3490 0141 488B4DE8 		movq	-24(%rbp), %rcx
 3491 0145 48C1E103 		salq	$3, %rcx
 3492 0149 4883E908 		subq	$8, %rcx
 3493 014d 4801C8   		addq	%rcx, %rax
 3494 0150 488B00   		movq	(%rax), %rax
 3495              		.loc 1 1028 11
 3496 0153 4839C2   		cmpq	%rax, %rdx
 3497 0156 7307     		jnb	.L266
 3498              		.loc 1 1028 47 discriminator 1
 3499 0158 B8FFFFFF 		movl	$-1, %eax
 3499      FF
 3500 015d EB15     		jmp	.L261
 3501              	.L266:
1025:/home/xingli/share/1205tiny/network/dtls/mbedtls/mbedtls-2.16.2/library/bignum.c ****     {
 3502              		.loc 1 1025 20
 3503 015f 48836DE8 		subq	$1, -24(%rbp)
 3503      01
 3504              	.L264:
1025:/home/xingli/share/1205tiny/network/dtls/mbedtls/mbedtls-2.16.2/library/bignum.c ****     {
 3505              		.loc 1 1025 5 discriminator 1
 3506 0164 48837DE8 		cmpq	$0, -24(%rbp)
 3506      00
 3507 0169 0F8570FF 		jne	.L267
 3507      FFFF
1029:/home/xingli/share/1205tiny/network/dtls/mbedtls/mbedtls-2.16.2/library/bignum.c ****     }
1030:/home/xingli/share/1205tiny/network/dtls/mbedtls/mbedtls-2.16.2/library/bignum.c **** 
1031:/home/xingli/share/1205tiny/network/dtls/mbedtls/mbedtls-2.16.2/library/bignum.c ****     return( 0 );
 3508              		.loc 1 1031 11
 3509 016f B8000000 		movl	$0, %eax
 3509      00
 3510              	.L261:
1032:/home/xingli/share/1205tiny/network/dtls/mbedtls/mbedtls-2.16.2/library/bignum.c **** }
 3511              		.loc 1 1032 1
 3512 0174 488B75F8 		movq	-8(%rbp), %rsi
 3513 0178 64483334 		xorq	%fs:40, %rsi
 3513      25280000 
 3513      00
 3514 0181 7405     		je	.L268
 3515 0183 E8000000 		call	__stack_chk_fail@PLT
 3515      00
 3516              	.L268:
GAS LISTING /tmp/ccFaOvob.s 			page 89


 3517 0188 C9       		leave
 3518              	.LCFI83:
 3519              		.cfi_def_cfa 7, 8
 3520 0189 C3       		ret
 3521              		.cfi_endproc
 3522              	.LFE33:
 3524              		.section	.text.mbedtls_mpi_cmp_mpi,"ax",@progbits
 3525              		.globl	mbedtls_mpi_cmp_mpi
 3527              	mbedtls_mpi_cmp_mpi:
 3528              	.LFB34:
1033:/home/xingli/share/1205tiny/network/dtls/mbedtls/mbedtls-2.16.2/library/bignum.c **** 
1034:/home/xingli/share/1205tiny/network/dtls/mbedtls/mbedtls-2.16.2/library/bignum.c **** /*
1035:/home/xingli/share/1205tiny/network/dtls/mbedtls/mbedtls-2.16.2/library/bignum.c ****  * Compare signed values
1036:/home/xingli/share/1205tiny/network/dtls/mbedtls/mbedtls-2.16.2/library/bignum.c ****  */
1037:/home/xingli/share/1205tiny/network/dtls/mbedtls/mbedtls-2.16.2/library/bignum.c **** int mbedtls_mpi_cmp_mpi( const mbedtls_mpi *X, const mbedtls_mpi *Y )
1038:/home/xingli/share/1205tiny/network/dtls/mbedtls/mbedtls-2.16.2/library/bignum.c **** {
 3529              		.loc 1 1038 1
 3530              		.cfi_startproc
 3531 0000 F30F1EFA 		endbr64
 3532 0004 55       		pushq	%rbp
 3533              	.LCFI84:
 3534              		.cfi_def_cfa_offset 16
 3535              		.cfi_offset 6, -16
 3536 0005 4889E5   		movq	%rsp, %rbp
 3537              	.LCFI85:
 3538              		.cfi_def_cfa_register 6
 3539 0008 4883EC30 		subq	$48, %rsp
 3540 000c 48897DD8 		movq	%rdi, -40(%rbp)
 3541 0010 488975D0 		movq	%rsi, -48(%rbp)
 3542              		.loc 1 1038 1
 3543 0014 64488B04 		movq	%fs:40, %rax
 3543      25280000 
 3543      00
 3544 001d 488945F8 		movq	%rax, -8(%rbp)
 3545 0021 31C0     		xorl	%eax, %eax
1039:/home/xingli/share/1205tiny/network/dtls/mbedtls/mbedtls-2.16.2/library/bignum.c ****     size_t i, j;
1040:/home/xingli/share/1205tiny/network/dtls/mbedtls/mbedtls-2.16.2/library/bignum.c ****     MPI_VALIDATE_RET( X != NULL );
1041:/home/xingli/share/1205tiny/network/dtls/mbedtls/mbedtls-2.16.2/library/bignum.c ****     MPI_VALIDATE_RET( Y != NULL );
1042:/home/xingli/share/1205tiny/network/dtls/mbedtls/mbedtls-2.16.2/library/bignum.c **** 
1043:/home/xingli/share/1205tiny/network/dtls/mbedtls/mbedtls-2.16.2/library/bignum.c ****     for( i = X->n; i > 0; i-- )
 3546              		.loc 1 1043 12
 3547 0023 488B45D8 		movq	-40(%rbp), %rax
 3548 0027 488B4008 		movq	8(%rax), %rax
 3549 002b 488945E8 		movq	%rax, -24(%rbp)
 3550              		.loc 1 1043 5
 3551 002f EB24     		jmp	.L272
 3552              	.L275:
1044:/home/xingli/share/1205tiny/network/dtls/mbedtls/mbedtls-2.16.2/library/bignum.c ****         if( X->p[i - 1] != 0 )
 3553              		.loc 1 1044 14
 3554 0031 488B45D8 		movq	-40(%rbp), %rax
 3555 0035 488B4010 		movq	16(%rax), %rax
 3556              		.loc 1 1044 17
 3557 0039 488B55E8 		movq	-24(%rbp), %rdx
 3558 003d 48C1E203 		salq	$3, %rdx
 3559 0041 4883EA08 		subq	$8, %rdx
 3560 0045 4801D0   		addq	%rdx, %rax
 3561 0048 488B00   		movq	(%rax), %rax
GAS LISTING /tmp/ccFaOvob.s 			page 90


 3562              		.loc 1 1044 11
 3563 004b 4885C0   		testq	%rax, %rax
 3564 004e 750E     		jne	.L291
1043:/home/xingli/share/1205tiny/network/dtls/mbedtls/mbedtls-2.16.2/library/bignum.c ****         if( X->p[i - 1] != 0 )
 3565              		.loc 1 1043 28 discriminator 2
 3566 0050 48836DE8 		subq	$1, -24(%rbp)
 3566      01
 3567              	.L272:
1043:/home/xingli/share/1205tiny/network/dtls/mbedtls/mbedtls-2.16.2/library/bignum.c ****         if( X->p[i - 1] != 0 )
 3568              		.loc 1 1043 5 discriminator 1
 3569 0055 48837DE8 		cmpq	$0, -24(%rbp)
 3569      00
 3570 005a 75D5     		jne	.L275
 3571 005c EB01     		jmp	.L274
 3572              	.L291:
1045:/home/xingli/share/1205tiny/network/dtls/mbedtls/mbedtls-2.16.2/library/bignum.c ****             break;
 3573              		.loc 1 1045 13
 3574 005e 90       		nop
 3575              	.L274:
1046:/home/xingli/share/1205tiny/network/dtls/mbedtls/mbedtls-2.16.2/library/bignum.c **** 
1047:/home/xingli/share/1205tiny/network/dtls/mbedtls/mbedtls-2.16.2/library/bignum.c ****     for( j = Y->n; j > 0; j-- )
 3576              		.loc 1 1047 12
 3577 005f 488B45D0 		movq	-48(%rbp), %rax
 3578 0063 488B4008 		movq	8(%rax), %rax
 3579 0067 488945F0 		movq	%rax, -16(%rbp)
 3580              		.loc 1 1047 5
 3581 006b EB24     		jmp	.L276
 3582              	.L279:
1048:/home/xingli/share/1205tiny/network/dtls/mbedtls/mbedtls-2.16.2/library/bignum.c ****         if( Y->p[j - 1] != 0 )
 3583              		.loc 1 1048 14
 3584 006d 488B45D0 		movq	-48(%rbp), %rax
 3585 0071 488B4010 		movq	16(%rax), %rax
 3586              		.loc 1 1048 17
 3587 0075 488B55F0 		movq	-16(%rbp), %rdx
 3588 0079 48C1E203 		salq	$3, %rdx
 3589 007d 4883EA08 		subq	$8, %rdx
 3590 0081 4801D0   		addq	%rdx, %rax
 3591 0084 488B00   		movq	(%rax), %rax
 3592              		.loc 1 1048 11
 3593 0087 4885C0   		testq	%rax, %rax
 3594 008a 750E     		jne	.L292
1047:/home/xingli/share/1205tiny/network/dtls/mbedtls/mbedtls-2.16.2/library/bignum.c ****         if( Y->p[j - 1] != 0 )
 3595              		.loc 1 1047 28 discriminator 2
 3596 008c 48836DF0 		subq	$1, -16(%rbp)
 3596      01
 3597              	.L276:
1047:/home/xingli/share/1205tiny/network/dtls/mbedtls/mbedtls-2.16.2/library/bignum.c ****         if( Y->p[j - 1] != 0 )
 3598              		.loc 1 1047 5 discriminator 1
 3599 0091 48837DF0 		cmpq	$0, -16(%rbp)
 3599      00
 3600 0096 75D5     		jne	.L279
 3601 0098 EB01     		jmp	.L278
 3602              	.L292:
1049:/home/xingli/share/1205tiny/network/dtls/mbedtls/mbedtls-2.16.2/library/bignum.c ****             break;
 3603              		.loc 1 1049 13
 3604 009a 90       		nop
 3605              	.L278:
GAS LISTING /tmp/ccFaOvob.s 			page 91


1050:/home/xingli/share/1205tiny/network/dtls/mbedtls/mbedtls-2.16.2/library/bignum.c **** 
1051:/home/xingli/share/1205tiny/network/dtls/mbedtls/mbedtls-2.16.2/library/bignum.c ****     if( i == 0 && j == 0 )
 3606              		.loc 1 1051 7
 3607 009b 48837DE8 		cmpq	$0, -24(%rbp)
 3607      00
 3608 00a0 7511     		jne	.L280
 3609              		.loc 1 1051 16 discriminator 1
 3610 00a2 48837DF0 		cmpq	$0, -16(%rbp)
 3610      00
 3611 00a7 750A     		jne	.L280
1052:/home/xingli/share/1205tiny/network/dtls/mbedtls/mbedtls-2.16.2/library/bignum.c ****         return( 0 );
 3612              		.loc 1 1052 15
 3613 00a9 B8000000 		movl	$0, %eax
 3613      00
 3614 00ae E9090100 		jmp	.L281
 3614      00
 3615              	.L280:
1053:/home/xingli/share/1205tiny/network/dtls/mbedtls/mbedtls-2.16.2/library/bignum.c **** 
1054:/home/xingli/share/1205tiny/network/dtls/mbedtls/mbedtls-2.16.2/library/bignum.c ****     if( i > j ) return(  X->s );
 3616              		.loc 1 1054 7
 3617 00b3 488B45E8 		movq	-24(%rbp), %rax
 3618 00b7 483B45F0 		cmpq	-16(%rbp), %rax
 3619 00bb 760B     		jbe	.L282
 3620              		.loc 1 1054 27 discriminator 1
 3621 00bd 488B45D8 		movq	-40(%rbp), %rax
 3622 00c1 8B00     		movl	(%rax), %eax
 3623 00c3 E9F40000 		jmp	.L281
 3623      00
 3624              	.L282:
1055:/home/xingli/share/1205tiny/network/dtls/mbedtls/mbedtls-2.16.2/library/bignum.c ****     if( j > i ) return( -Y->s );
 3625              		.loc 1 1055 7
 3626 00c8 488B45F0 		movq	-16(%rbp), %rax
 3627 00cc 483B45E8 		cmpq	-24(%rbp), %rax
 3628 00d0 760D     		jbe	.L283
 3629              		.loc 1 1055 27 discriminator 1
 3630 00d2 488B45D0 		movq	-48(%rbp), %rax
 3631 00d6 8B00     		movl	(%rax), %eax
 3632              		.loc 1 1055 25 discriminator 1
 3633 00d8 F7D8     		negl	%eax
 3634 00da E9DD0000 		jmp	.L281
 3634      00
 3635              	.L283:
1056:/home/xingli/share/1205tiny/network/dtls/mbedtls/mbedtls-2.16.2/library/bignum.c **** 
1057:/home/xingli/share/1205tiny/network/dtls/mbedtls/mbedtls-2.16.2/library/bignum.c ****     if( X->s > 0 && Y->s < 0 ) return(  1 );
 3636              		.loc 1 1057 10
 3637 00df 488B45D8 		movq	-40(%rbp), %rax
 3638 00e3 8B00     		movl	(%rax), %eax
 3639              		.loc 1 1057 7
 3640 00e5 85C0     		testl	%eax, %eax
 3641 00e7 7E14     		jle	.L284
 3642              		.loc 1 1057 22 discriminator 1
 3643 00e9 488B45D0 		movq	-48(%rbp), %rax
 3644 00ed 8B00     		movl	(%rax), %eax
 3645              		.loc 1 1057 18 discriminator 1
 3646 00ef 85C0     		testl	%eax, %eax
 3647 00f1 790A     		jns	.L284
 3648              		.loc 1 1057 38 discriminator 2
GAS LISTING /tmp/ccFaOvob.s 			page 92


 3649 00f3 B8010000 		movl	$1, %eax
 3649      00
 3650 00f8 E9BF0000 		jmp	.L281
 3650      00
 3651              	.L284:
1058:/home/xingli/share/1205tiny/network/dtls/mbedtls/mbedtls-2.16.2/library/bignum.c ****     if( Y->s > 0 && X->s < 0 ) return( -1 );
 3652              		.loc 1 1058 10
 3653 00fd 488B45D0 		movq	-48(%rbp), %rax
 3654 0101 8B00     		movl	(%rax), %eax
 3655              		.loc 1 1058 7
 3656 0103 85C0     		testl	%eax, %eax
 3657 0105 0F8EA100 		jle	.L286
 3657      0000
 3658              		.loc 1 1058 22 discriminator 1
 3659 010b 488B45D8 		movq	-40(%rbp), %rax
 3660 010f 8B00     		movl	(%rax), %eax
 3661              		.loc 1 1058 18 discriminator 1
 3662 0111 85C0     		testl	%eax, %eax
 3663 0113 0F899300 		jns	.L286
 3663      0000
 3664              		.loc 1 1058 38 discriminator 2
 3665 0119 B8FFFFFF 		movl	$-1, %eax
 3665      FF
 3666 011e E9990000 		jmp	.L281
 3666      00
 3667              	.L289:
1059:/home/xingli/share/1205tiny/network/dtls/mbedtls/mbedtls-2.16.2/library/bignum.c **** 
1060:/home/xingli/share/1205tiny/network/dtls/mbedtls/mbedtls-2.16.2/library/bignum.c ****     for( ; i > 0; i-- )
1061:/home/xingli/share/1205tiny/network/dtls/mbedtls/mbedtls-2.16.2/library/bignum.c ****     {
1062:/home/xingli/share/1205tiny/network/dtls/mbedtls/mbedtls-2.16.2/library/bignum.c ****         if( X->p[i - 1] > Y->p[i - 1] ) return(  X->s );
 3668              		.loc 1 1062 14
 3669 0123 488B45D8 		movq	-40(%rbp), %rax
 3670 0127 488B4010 		movq	16(%rax), %rax
 3671              		.loc 1 1062 17
 3672 012b 488B55E8 		movq	-24(%rbp), %rdx
 3673 012f 48C1E203 		salq	$3, %rdx
 3674 0133 4883EA08 		subq	$8, %rdx
 3675 0137 4801D0   		addq	%rdx, %rax
 3676 013a 488B10   		movq	(%rax), %rdx
 3677              		.loc 1 1062 28
 3678 013d 488B45D0 		movq	-48(%rbp), %rax
 3679 0141 488B4010 		movq	16(%rax), %rax
 3680              		.loc 1 1062 31
 3681 0145 488B4DE8 		movq	-24(%rbp), %rcx
 3682 0149 48C1E103 		salq	$3, %rcx
 3683 014d 4883E908 		subq	$8, %rcx
 3684 0151 4801C8   		addq	%rcx, %rax
 3685 0154 488B00   		movq	(%rax), %rax
 3686              		.loc 1 1062 11
 3687 0157 4839C2   		cmpq	%rax, %rdx
 3688 015a 7608     		jbe	.L287
 3689              		.loc 1 1062 51 discriminator 1
 3690 015c 488B45D8 		movq	-40(%rbp), %rax
 3691 0160 8B00     		movl	(%rax), %eax
 3692 0162 EB58     		jmp	.L281
 3693              	.L287:
1063:/home/xingli/share/1205tiny/network/dtls/mbedtls/mbedtls-2.16.2/library/bignum.c ****         if( X->p[i - 1] < Y->p[i - 1] ) return( -X->s );
GAS LISTING /tmp/ccFaOvob.s 			page 93


 3694              		.loc 1 1063 14
 3695 0164 488B45D8 		movq	-40(%rbp), %rax
 3696 0168 488B4010 		movq	16(%rax), %rax
 3697              		.loc 1 1063 17
 3698 016c 488B55E8 		movq	-24(%rbp), %rdx
 3699 0170 48C1E203 		salq	$3, %rdx
 3700 0174 4883EA08 		subq	$8, %rdx
 3701 0178 4801D0   		addq	%rdx, %rax
 3702 017b 488B10   		movq	(%rax), %rdx
 3703              		.loc 1 1063 28
 3704 017e 488B45D0 		movq	-48(%rbp), %rax
 3705 0182 488B4010 		movq	16(%rax), %rax
 3706              		.loc 1 1063 31
 3707 0186 488B4DE8 		movq	-24(%rbp), %rcx
 3708 018a 48C1E103 		salq	$3, %rcx
 3709 018e 4883E908 		subq	$8, %rcx
 3710 0192 4801C8   		addq	%rcx, %rax
 3711 0195 488B00   		movq	(%rax), %rax
 3712              		.loc 1 1063 11
 3713 0198 4839C2   		cmpq	%rax, %rdx
 3714 019b 730A     		jnb	.L288
 3715              		.loc 1 1063 51 discriminator 1
 3716 019d 488B45D8 		movq	-40(%rbp), %rax
 3717 01a1 8B00     		movl	(%rax), %eax
 3718              		.loc 1 1063 49 discriminator 1
 3719 01a3 F7D8     		negl	%eax
 3720 01a5 EB15     		jmp	.L281
 3721              	.L288:
1060:/home/xingli/share/1205tiny/network/dtls/mbedtls/mbedtls-2.16.2/library/bignum.c ****     {
 3722              		.loc 1 1060 20
 3723 01a7 48836DE8 		subq	$1, -24(%rbp)
 3723      01
 3724              	.L286:
1060:/home/xingli/share/1205tiny/network/dtls/mbedtls/mbedtls-2.16.2/library/bignum.c ****     {
 3725              		.loc 1 1060 5 discriminator 1
 3726 01ac 48837DE8 		cmpq	$0, -24(%rbp)
 3726      00
 3727 01b1 0F856CFF 		jne	.L289
 3727      FFFF
1064:/home/xingli/share/1205tiny/network/dtls/mbedtls/mbedtls-2.16.2/library/bignum.c ****     }
1065:/home/xingli/share/1205tiny/network/dtls/mbedtls/mbedtls-2.16.2/library/bignum.c **** 
1066:/home/xingli/share/1205tiny/network/dtls/mbedtls/mbedtls-2.16.2/library/bignum.c ****     return( 0 );
 3728              		.loc 1 1066 11
 3729 01b7 B8000000 		movl	$0, %eax
 3729      00
 3730              	.L281:
1067:/home/xingli/share/1205tiny/network/dtls/mbedtls/mbedtls-2.16.2/library/bignum.c **** }
 3731              		.loc 1 1067 1
 3732 01bc 488B75F8 		movq	-8(%rbp), %rsi
 3733 01c0 64483334 		xorq	%fs:40, %rsi
 3733      25280000 
 3733      00
 3734 01c9 7405     		je	.L290
 3735 01cb E8000000 		call	__stack_chk_fail@PLT
 3735      00
 3736              	.L290:
 3737 01d0 C9       		leave
GAS LISTING /tmp/ccFaOvob.s 			page 94


 3738              	.LCFI86:
 3739              		.cfi_def_cfa 7, 8
 3740 01d1 C3       		ret
 3741              		.cfi_endproc
 3742              	.LFE34:
 3744              		.section	.text.mbedtls_mpi_cmp_int,"ax",@progbits
 3745              		.globl	mbedtls_mpi_cmp_int
 3747              	mbedtls_mpi_cmp_int:
 3748              	.LFB35:
1068:/home/xingli/share/1205tiny/network/dtls/mbedtls/mbedtls-2.16.2/library/bignum.c **** 
1069:/home/xingli/share/1205tiny/network/dtls/mbedtls/mbedtls-2.16.2/library/bignum.c **** /*
1070:/home/xingli/share/1205tiny/network/dtls/mbedtls/mbedtls-2.16.2/library/bignum.c ****  * Compare signed values
1071:/home/xingli/share/1205tiny/network/dtls/mbedtls/mbedtls-2.16.2/library/bignum.c ****  */
1072:/home/xingli/share/1205tiny/network/dtls/mbedtls/mbedtls-2.16.2/library/bignum.c **** int mbedtls_mpi_cmp_int( const mbedtls_mpi *X, mbedtls_mpi_sint z )
1073:/home/xingli/share/1205tiny/network/dtls/mbedtls/mbedtls-2.16.2/library/bignum.c **** {
 3749              		.loc 1 1073 1
 3750              		.cfi_startproc
 3751 0000 F30F1EFA 		endbr64
 3752 0004 55       		pushq	%rbp
 3753              	.LCFI87:
 3754              		.cfi_def_cfa_offset 16
 3755              		.cfi_offset 6, -16
 3756 0005 4889E5   		movq	%rsp, %rbp
 3757              	.LCFI88:
 3758              		.cfi_def_cfa_register 6
 3759 0008 4883EC40 		subq	$64, %rsp
 3760 000c 48897DC8 		movq	%rdi, -56(%rbp)
 3761 0010 488975C0 		movq	%rsi, -64(%rbp)
 3762              		.loc 1 1073 1
 3763 0014 64488B04 		movq	%fs:40, %rax
 3763      25280000 
 3763      00
 3764 001d 488945F8 		movq	%rax, -8(%rbp)
 3765 0021 31C0     		xorl	%eax, %eax
1074:/home/xingli/share/1205tiny/network/dtls/mbedtls/mbedtls-2.16.2/library/bignum.c ****     mbedtls_mpi Y;
1075:/home/xingli/share/1205tiny/network/dtls/mbedtls/mbedtls-2.16.2/library/bignum.c ****     mbedtls_mpi_uint p[1];
1076:/home/xingli/share/1205tiny/network/dtls/mbedtls/mbedtls-2.16.2/library/bignum.c ****     MPI_VALIDATE_RET( X != NULL );
1077:/home/xingli/share/1205tiny/network/dtls/mbedtls/mbedtls-2.16.2/library/bignum.c **** 
1078:/home/xingli/share/1205tiny/network/dtls/mbedtls/mbedtls-2.16.2/library/bignum.c ****     *p  = ( z < 0 ) ? -z : z;
 3766              		.loc 1 1078 26
 3767 0023 488B45C0 		movq	-64(%rbp), %rax
 3768 0027 4899     		cqto
 3769 0029 4889D0   		movq	%rdx, %rax
 3770 002c 483345C0 		xorq	-64(%rbp), %rax
 3771 0030 4829D0   		subq	%rdx, %rax
 3772              		.loc 1 1078 9
 3773 0033 488945F0 		movq	%rax, -16(%rbp)
1079:/home/xingli/share/1205tiny/network/dtls/mbedtls/mbedtls-2.16.2/library/bignum.c ****     Y.s = ( z < 0 ) ? -1 : 1;
 3774              		.loc 1 1079 26
 3775 0037 48837DC0 		cmpq	$0, -64(%rbp)
 3775      00
 3776 003c 7907     		jns	.L294
 3777              		.loc 1 1079 26 is_stmt 0 discriminator 1
 3778 003e B8FFFFFF 		movl	$-1, %eax
 3778      FF
 3779 0043 EB05     		jmp	.L295
 3780              	.L294:
GAS LISTING /tmp/ccFaOvob.s 			page 95


 3781              		.loc 1 1079 26 discriminator 2
 3782 0045 B8010000 		movl	$1, %eax
 3782      00
 3783              	.L295:
 3784              		.loc 1 1079 9 is_stmt 1 discriminator 4
 3785 004a 8945D0   		movl	%eax, -48(%rbp)
1080:/home/xingli/share/1205tiny/network/dtls/mbedtls/mbedtls-2.16.2/library/bignum.c ****     Y.n = 1;
 3786              		.loc 1 1080 9 discriminator 4
 3787 004d 48C745D8 		movq	$1, -40(%rbp)
 3787      01000000 
1081:/home/xingli/share/1205tiny/network/dtls/mbedtls/mbedtls-2.16.2/library/bignum.c ****     Y.p = p;
 3788              		.loc 1 1081 9 discriminator 4
 3789 0055 488D45F0 		leaq	-16(%rbp), %rax
 3790 0059 488945E0 		movq	%rax, -32(%rbp)
1082:/home/xingli/share/1205tiny/network/dtls/mbedtls/mbedtls-2.16.2/library/bignum.c **** 
1083:/home/xingli/share/1205tiny/network/dtls/mbedtls/mbedtls-2.16.2/library/bignum.c ****     return( mbedtls_mpi_cmp_mpi( X, &Y ) );
 3791              		.loc 1 1083 13 discriminator 4
 3792 005d 488D55D0 		leaq	-48(%rbp), %rdx
 3793 0061 488B45C8 		movq	-56(%rbp), %rax
 3794 0065 4889D6   		movq	%rdx, %rsi
 3795 0068 4889C7   		movq	%rax, %rdi
 3796 006b E8000000 		call	mbedtls_mpi_cmp_mpi
 3796      00
1084:/home/xingli/share/1205tiny/network/dtls/mbedtls/mbedtls-2.16.2/library/bignum.c **** }
 3797              		.loc 1 1084 1 discriminator 4
 3798 0070 488B4DF8 		movq	-8(%rbp), %rcx
 3799 0074 6448330C 		xorq	%fs:40, %rcx
 3799      25280000 
 3799      00
 3800 007d 7405     		je	.L297
 3801              		.loc 1 1084 1 is_stmt 0
 3802 007f E8000000 		call	__stack_chk_fail@PLT
 3802      00
 3803              	.L297:
 3804 0084 C9       		leave
 3805              	.LCFI89:
 3806              		.cfi_def_cfa 7, 8
 3807 0085 C3       		ret
 3808              		.cfi_endproc
 3809              	.LFE35:
 3811              		.section	.text.mbedtls_mpi_add_abs,"ax",@progbits
 3812              		.globl	mbedtls_mpi_add_abs
 3814              	mbedtls_mpi_add_abs:
 3815              	.LFB36:
1085:/home/xingli/share/1205tiny/network/dtls/mbedtls/mbedtls-2.16.2/library/bignum.c **** 
1086:/home/xingli/share/1205tiny/network/dtls/mbedtls/mbedtls-2.16.2/library/bignum.c **** /*
1087:/home/xingli/share/1205tiny/network/dtls/mbedtls/mbedtls-2.16.2/library/bignum.c ****  * Unsigned addition: X = |A| + |B|  (HAC 14.7)
1088:/home/xingli/share/1205tiny/network/dtls/mbedtls/mbedtls-2.16.2/library/bignum.c ****  */
1089:/home/xingli/share/1205tiny/network/dtls/mbedtls/mbedtls-2.16.2/library/bignum.c **** int mbedtls_mpi_add_abs( mbedtls_mpi *X, const mbedtls_mpi *A, const mbedtls_mpi *B )
1090:/home/xingli/share/1205tiny/network/dtls/mbedtls/mbedtls-2.16.2/library/bignum.c **** {
 3816              		.loc 1 1090 1 is_stmt 1
 3817              		.cfi_startproc
 3818 0000 F30F1EFA 		endbr64
 3819 0004 55       		pushq	%rbp
 3820              	.LCFI90:
 3821              		.cfi_def_cfa_offset 16
 3822              		.cfi_offset 6, -16
GAS LISTING /tmp/ccFaOvob.s 			page 96


 3823 0005 4889E5   		movq	%rsp, %rbp
 3824              	.LCFI91:
 3825              		.cfi_def_cfa_register 6
 3826 0008 4883EC70 		subq	$112, %rsp
 3827 000c 48897DA8 		movq	%rdi, -88(%rbp)
 3828 0010 488975A0 		movq	%rsi, -96(%rbp)
 3829 0014 48895598 		movq	%rdx, -104(%rbp)
 3830              		.loc 1 1090 1
 3831 0018 64488B04 		movq	%fs:40, %rax
 3831      25280000 
 3831      00
 3832 0021 488945F8 		movq	%rax, -8(%rbp)
 3833 0025 31C0     		xorl	%eax, %eax
1091:/home/xingli/share/1205tiny/network/dtls/mbedtls/mbedtls-2.16.2/library/bignum.c ****     int ret;
1092:/home/xingli/share/1205tiny/network/dtls/mbedtls/mbedtls-2.16.2/library/bignum.c ****     size_t i, j;
1093:/home/xingli/share/1205tiny/network/dtls/mbedtls/mbedtls-2.16.2/library/bignum.c ****     mbedtls_mpi_uint *o, *p, c, tmp;
1094:/home/xingli/share/1205tiny/network/dtls/mbedtls/mbedtls-2.16.2/library/bignum.c ****     MPI_VALIDATE_RET( X != NULL );
1095:/home/xingli/share/1205tiny/network/dtls/mbedtls/mbedtls-2.16.2/library/bignum.c ****     MPI_VALIDATE_RET( A != NULL );
1096:/home/xingli/share/1205tiny/network/dtls/mbedtls/mbedtls-2.16.2/library/bignum.c ****     MPI_VALIDATE_RET( B != NULL );
1097:/home/xingli/share/1205tiny/network/dtls/mbedtls/mbedtls-2.16.2/library/bignum.c **** 
1098:/home/xingli/share/1205tiny/network/dtls/mbedtls/mbedtls-2.16.2/library/bignum.c ****     if( X == B )
 3834              		.loc 1 1098 7
 3835 0027 488B45A8 		movq	-88(%rbp), %rax
 3836 002b 483B4598 		cmpq	-104(%rbp), %rax
 3837 002f 7518     		jne	.L299
 3838              	.LBB4:
1099:/home/xingli/share/1205tiny/network/dtls/mbedtls/mbedtls-2.16.2/library/bignum.c ****     {
1100:/home/xingli/share/1205tiny/network/dtls/mbedtls/mbedtls-2.16.2/library/bignum.c ****         const mbedtls_mpi *T = A; A = X; B = T;
 3839              		.loc 1 1100 28
 3840 0031 488B45A0 		movq	-96(%rbp), %rax
 3841 0035 488945E8 		movq	%rax, -24(%rbp)
 3842              		.loc 1 1100 37
 3843 0039 488B45A8 		movq	-88(%rbp), %rax
 3844 003d 488945A0 		movq	%rax, -96(%rbp)
 3845              		.loc 1 1100 44
 3846 0041 488B45E8 		movq	-24(%rbp), %rax
 3847 0045 48894598 		movq	%rax, -104(%rbp)
 3848              	.L299:
 3849              	.LBE4:
1101:/home/xingli/share/1205tiny/network/dtls/mbedtls/mbedtls-2.16.2/library/bignum.c ****     }
1102:/home/xingli/share/1205tiny/network/dtls/mbedtls/mbedtls-2.16.2/library/bignum.c **** 
1103:/home/xingli/share/1205tiny/network/dtls/mbedtls/mbedtls-2.16.2/library/bignum.c ****     if( X != A )
 3850              		.loc 1 1103 7
 3851 0049 488B45A8 		movq	-88(%rbp), %rax
 3852 004d 483B45A0 		cmpq	-96(%rbp), %rax
 3853 0051 7420     		je	.L300
1104:/home/xingli/share/1205tiny/network/dtls/mbedtls/mbedtls-2.16.2/library/bignum.c ****         MBEDTLS_MPI_CHK( mbedtls_mpi_copy( X, A ) );
 3854              		.loc 1 1104 9
 3855 0053 488B55A0 		movq	-96(%rbp), %rdx
 3856 0057 488B45A8 		movq	-88(%rbp), %rax
 3857 005b 4889D6   		movq	%rdx, %rsi
 3858 005e 4889C7   		movq	%rax, %rdi
 3859 0061 E8000000 		call	mbedtls_mpi_copy
 3859      00
 3860 0066 8945BC   		movl	%eax, -68(%rbp)
 3861 0069 837DBC00 		cmpl	$0, -68(%rbp)
 3862 006d 0F858C01 		jne	.L315
GAS LISTING /tmp/ccFaOvob.s 			page 97


 3862      0000
 3863              	.L300:
1105:/home/xingli/share/1205tiny/network/dtls/mbedtls/mbedtls-2.16.2/library/bignum.c **** 
1106:/home/xingli/share/1205tiny/network/dtls/mbedtls/mbedtls-2.16.2/library/bignum.c ****     /*
1107:/home/xingli/share/1205tiny/network/dtls/mbedtls/mbedtls-2.16.2/library/bignum.c ****      * X should always be positive as a result of unsigned additions.
1108:/home/xingli/share/1205tiny/network/dtls/mbedtls/mbedtls-2.16.2/library/bignum.c ****      */
1109:/home/xingli/share/1205tiny/network/dtls/mbedtls/mbedtls-2.16.2/library/bignum.c ****     X->s = 1;
 3864              		.loc 1 1109 10
 3865 0073 488B45A8 		movq	-88(%rbp), %rax
 3866 0077 C7000100 		movl	$1, (%rax)
 3866      0000
1110:/home/xingli/share/1205tiny/network/dtls/mbedtls/mbedtls-2.16.2/library/bignum.c **** 
1111:/home/xingli/share/1205tiny/network/dtls/mbedtls/mbedtls-2.16.2/library/bignum.c ****     for( j = B->n; j > 0; j-- )
 3867              		.loc 1 1111 12
 3868 007d 488B4598 		movq	-104(%rbp), %rax
 3869 0081 488B4008 		movq	8(%rax), %rax
 3870 0085 488945C8 		movq	%rax, -56(%rbp)
 3871              		.loc 1 1111 5
 3872 0089 EB24     		jmp	.L302
 3873              	.L305:
1112:/home/xingli/share/1205tiny/network/dtls/mbedtls/mbedtls-2.16.2/library/bignum.c ****         if( B->p[j - 1] != 0 )
 3874              		.loc 1 1112 14
 3875 008b 488B4598 		movq	-104(%rbp), %rax
 3876 008f 488B4010 		movq	16(%rax), %rax
 3877              		.loc 1 1112 17
 3878 0093 488B55C8 		movq	-56(%rbp), %rdx
 3879 0097 48C1E203 		salq	$3, %rdx
 3880 009b 4883EA08 		subq	$8, %rdx
 3881 009f 4801D0   		addq	%rdx, %rax
 3882 00a2 488B00   		movq	(%rax), %rax
 3883              		.loc 1 1112 11
 3884 00a5 4885C0   		testq	%rax, %rax
 3885 00a8 750E     		jne	.L316
1111:/home/xingli/share/1205tiny/network/dtls/mbedtls/mbedtls-2.16.2/library/bignum.c ****         if( B->p[j - 1] != 0 )
 3886              		.loc 1 1111 28 discriminator 2
 3887 00aa 48836DC8 		subq	$1, -56(%rbp)
 3887      01
 3888              	.L302:
1111:/home/xingli/share/1205tiny/network/dtls/mbedtls/mbedtls-2.16.2/library/bignum.c ****         if( B->p[j - 1] != 0 )
 3889              		.loc 1 1111 5 discriminator 1
 3890 00af 48837DC8 		cmpq	$0, -56(%rbp)
 3890      00
 3891 00b4 75D5     		jne	.L305
 3892 00b6 EB01     		jmp	.L304
 3893              	.L316:
1113:/home/xingli/share/1205tiny/network/dtls/mbedtls/mbedtls-2.16.2/library/bignum.c ****             break;
 3894              		.loc 1 1113 13
 3895 00b8 90       		nop
 3896              	.L304:
1114:/home/xingli/share/1205tiny/network/dtls/mbedtls/mbedtls-2.16.2/library/bignum.c **** 
1115:/home/xingli/share/1205tiny/network/dtls/mbedtls/mbedtls-2.16.2/library/bignum.c ****     MBEDTLS_MPI_CHK( mbedtls_mpi_grow( X, j ) );
 3897              		.loc 1 1115 5
 3898 00b9 488B55C8 		movq	-56(%rbp), %rdx
 3899 00bd 488B45A8 		movq	-88(%rbp), %rax
 3900 00c1 4889D6   		movq	%rdx, %rsi
 3901 00c4 4889C7   		movq	%rax, %rdi
 3902 00c7 E8000000 		call	mbedtls_mpi_grow
GAS LISTING /tmp/ccFaOvob.s 			page 98


 3902      00
 3903 00cc 8945BC   		movl	%eax, -68(%rbp)
 3904 00cf 837DBC00 		cmpl	$0, -68(%rbp)
 3905 00d3 0F852901 		jne	.L317
 3905      0000
1116:/home/xingli/share/1205tiny/network/dtls/mbedtls/mbedtls-2.16.2/library/bignum.c **** 
1117:/home/xingli/share/1205tiny/network/dtls/mbedtls/mbedtls-2.16.2/library/bignum.c ****     o = B->p; p = X->p; c = 0;
 3906              		.loc 1 1117 7
 3907 00d9 488B4598 		movq	-104(%rbp), %rax
 3908 00dd 488B4010 		movq	16(%rax), %rax
 3909 00e1 488945D0 		movq	%rax, -48(%rbp)
 3910              		.loc 1 1117 17
 3911 00e5 488B45A8 		movq	-88(%rbp), %rax
 3912 00e9 488B4010 		movq	16(%rax), %rax
 3913 00ed 488945D8 		movq	%rax, -40(%rbp)
 3914              		.loc 1 1117 27
 3915 00f1 48C745E0 		movq	$0, -32(%rbp)
 3915      00000000 
1118:/home/xingli/share/1205tiny/network/dtls/mbedtls/mbedtls-2.16.2/library/bignum.c **** 
1119:/home/xingli/share/1205tiny/network/dtls/mbedtls/mbedtls-2.16.2/library/bignum.c ****     /*
1120:/home/xingli/share/1205tiny/network/dtls/mbedtls/mbedtls-2.16.2/library/bignum.c ****      * tmp is used because it might happen that p == o
1121:/home/xingli/share/1205tiny/network/dtls/mbedtls/mbedtls-2.16.2/library/bignum.c ****      */
1122:/home/xingli/share/1205tiny/network/dtls/mbedtls/mbedtls-2.16.2/library/bignum.c ****     for( i = 0; i < j; i++, o++, p++ )
 3916              		.loc 1 1122 12
 3917 00f9 48C745C0 		movq	$0, -64(%rbp)
 3917      00000000 
 3918              		.loc 1 1122 5
 3919 0101 EB6E     		jmp	.L307
 3920              	.L308:
1123:/home/xingli/share/1205tiny/network/dtls/mbedtls/mbedtls-2.16.2/library/bignum.c ****     {
1124:/home/xingli/share/1205tiny/network/dtls/mbedtls/mbedtls-2.16.2/library/bignum.c ****         tmp= *o;
 3921              		.loc 1 1124 12 discriminator 3
 3922 0103 488B45D0 		movq	-48(%rbp), %rax
 3923 0107 488B00   		movq	(%rax), %rax
 3924 010a 488945F0 		movq	%rax, -16(%rbp)
1125:/home/xingli/share/1205tiny/network/dtls/mbedtls/mbedtls-2.16.2/library/bignum.c ****         *p +=  c; c  = ( *p <  c );
 3925              		.loc 1 1125 12 discriminator 3
 3926 010e 488B45D8 		movq	-40(%rbp), %rax
 3927 0112 488B10   		movq	(%rax), %rdx
 3928 0115 488B45E0 		movq	-32(%rbp), %rax
 3929 0119 4801C2   		addq	%rax, %rdx
 3930 011c 488B45D8 		movq	-40(%rbp), %rax
 3931 0120 488910   		movq	%rdx, (%rax)
 3932              		.loc 1 1125 26 discriminator 3
 3933 0123 488B45D8 		movq	-40(%rbp), %rax
 3934 0127 488B00   		movq	(%rax), %rax
 3935              		.loc 1 1125 29 discriminator 3
 3936 012a 483945E0 		cmpq	%rax, -32(%rbp)
 3937 012e 0F97C0   		seta	%al
 3938              		.loc 1 1125 22 discriminator 3
 3939 0131 0FB6C0   		movzbl	%al, %eax
 3940 0134 488945E0 		movq	%rax, -32(%rbp)
1126:/home/xingli/share/1205tiny/network/dtls/mbedtls/mbedtls-2.16.2/library/bignum.c ****         *p += tmp; c += ( *p < tmp );
 3941              		.loc 1 1126 12 discriminator 3
 3942 0138 488B45D8 		movq	-40(%rbp), %rax
 3943 013c 488B10   		movq	(%rax), %rdx
 3944 013f 488B45F0 		movq	-16(%rbp), %rax
GAS LISTING /tmp/ccFaOvob.s 			page 99


 3945 0143 4801C2   		addq	%rax, %rdx
 3946 0146 488B45D8 		movq	-40(%rbp), %rax
 3947 014a 488910   		movq	%rdx, (%rax)
 3948              		.loc 1 1126 27 discriminator 3
 3949 014d 488B45D8 		movq	-40(%rbp), %rax
 3950 0151 488B00   		movq	(%rax), %rax
 3951              		.loc 1 1126 30 discriminator 3
 3952 0154 483945F0 		cmpq	%rax, -16(%rbp)
 3953 0158 0F97C0   		seta	%al
 3954 015b 0FB6C0   		movzbl	%al, %eax
 3955              		.loc 1 1126 22 discriminator 3
 3956 015e 480145E0 		addq	%rax, -32(%rbp)
1122:/home/xingli/share/1205tiny/network/dtls/mbedtls/mbedtls-2.16.2/library/bignum.c ****     {
 3957              		.loc 1 1122 25 discriminator 3
 3958 0162 488345C0 		addq	$1, -64(%rbp)
 3958      01
1122:/home/xingli/share/1205tiny/network/dtls/mbedtls/mbedtls-2.16.2/library/bignum.c ****     {
 3959              		.loc 1 1122 30 discriminator 3
 3960 0167 488345D0 		addq	$8, -48(%rbp)
 3960      08
1122:/home/xingli/share/1205tiny/network/dtls/mbedtls/mbedtls-2.16.2/library/bignum.c ****     {
 3961              		.loc 1 1122 35 discriminator 3
 3962 016c 488345D8 		addq	$8, -40(%rbp)
 3962      08
 3963              	.L307:
1122:/home/xingli/share/1205tiny/network/dtls/mbedtls/mbedtls-2.16.2/library/bignum.c ****     {
 3964              		.loc 1 1122 5 discriminator 1
 3965 0171 488B45C0 		movq	-64(%rbp), %rax
 3966 0175 483B45C8 		cmpq	-56(%rbp), %rax
 3967 0179 7288     		jb	.L308
1127:/home/xingli/share/1205tiny/network/dtls/mbedtls/mbedtls-2.16.2/library/bignum.c ****     }
1128:/home/xingli/share/1205tiny/network/dtls/mbedtls/mbedtls-2.16.2/library/bignum.c **** 
1129:/home/xingli/share/1205tiny/network/dtls/mbedtls/mbedtls-2.16.2/library/bignum.c ****     while( c != 0 )
 3968              		.loc 1 1129 10
 3969 017b EB79     		jmp	.L309
 3970              	.L312:
1130:/home/xingli/share/1205tiny/network/dtls/mbedtls/mbedtls-2.16.2/library/bignum.c ****     {
1131:/home/xingli/share/1205tiny/network/dtls/mbedtls/mbedtls-2.16.2/library/bignum.c ****         if( i >= X->n )
 3971              		.loc 1 1131 19
 3972 017d 488B45A8 		movq	-88(%rbp), %rax
 3973 0181 488B4008 		movq	8(%rax), %rax
 3974              		.loc 1 1131 11
 3975 0185 483945C0 		cmpq	%rax, -64(%rbp)
 3976 0189 7237     		jb	.L310
1132:/home/xingli/share/1205tiny/network/dtls/mbedtls/mbedtls-2.16.2/library/bignum.c ****         {
1133:/home/xingli/share/1205tiny/network/dtls/mbedtls/mbedtls-2.16.2/library/bignum.c ****             MBEDTLS_MPI_CHK( mbedtls_mpi_grow( X, i + 1 ) );
 3977              		.loc 1 1133 13
 3978 018b 488B45C0 		movq	-64(%rbp), %rax
 3979 018f 488D5001 		leaq	1(%rax), %rdx
 3980 0193 488B45A8 		movq	-88(%rbp), %rax
 3981 0197 4889D6   		movq	%rdx, %rsi
 3982 019a 4889C7   		movq	%rax, %rdi
 3983 019d E8000000 		call	mbedtls_mpi_grow
 3983      00
 3984 01a2 8945BC   		movl	%eax, -68(%rbp)
 3985 01a5 837DBC00 		cmpl	$0, -68(%rbp)
 3986 01a9 755A     		jne	.L318
GAS LISTING /tmp/ccFaOvob.s 			page 100


1134:/home/xingli/share/1205tiny/network/dtls/mbedtls/mbedtls-2.16.2/library/bignum.c ****             p = X->p + i;
 3987              		.loc 1 1134 18
 3988 01ab 488B45A8 		movq	-88(%rbp), %rax
 3989 01af 488B4010 		movq	16(%rax), %rax
 3990              		.loc 1 1134 22
 3991 01b3 488B55C0 		movq	-64(%rbp), %rdx
 3992 01b7 48C1E203 		salq	$3, %rdx
 3993              		.loc 1 1134 15
 3994 01bb 4801D0   		addq	%rdx, %rax
 3995 01be 488945D8 		movq	%rax, -40(%rbp)
 3996              	.L310:
1135:/home/xingli/share/1205tiny/network/dtls/mbedtls/mbedtls-2.16.2/library/bignum.c ****         }
1136:/home/xingli/share/1205tiny/network/dtls/mbedtls/mbedtls-2.16.2/library/bignum.c **** 
1137:/home/xingli/share/1205tiny/network/dtls/mbedtls/mbedtls-2.16.2/library/bignum.c ****         *p += c; c = ( *p < c ); i++; p++;
 3997              		.loc 1 1137 12
 3998 01c2 488B45D8 		movq	-40(%rbp), %rax
 3999 01c6 488B10   		movq	(%rax), %rdx
 4000 01c9 488B45E0 		movq	-32(%rbp), %rax
 4001 01cd 4801C2   		addq	%rax, %rdx
 4002 01d0 488B45D8 		movq	-40(%rbp), %rax
 4003 01d4 488910   		movq	%rdx, (%rax)
 4004              		.loc 1 1137 24
 4005 01d7 488B45D8 		movq	-40(%rbp), %rax
 4006 01db 488B00   		movq	(%rax), %rax
 4007              		.loc 1 1137 27
 4008 01de 483945E0 		cmpq	%rax, -32(%rbp)
 4009 01e2 0F97C0   		seta	%al
 4010              		.loc 1 1137 20
 4011 01e5 0FB6C0   		movzbl	%al, %eax
 4012 01e8 488945E0 		movq	%rax, -32(%rbp)
 4013              		.loc 1 1137 35
 4014 01ec 488345C0 		addq	$1, -64(%rbp)
 4014      01
 4015              		.loc 1 1137 40
 4016 01f1 488345D8 		addq	$8, -40(%rbp)
 4016      08
 4017              	.L309:
1129:/home/xingli/share/1205tiny/network/dtls/mbedtls/mbedtls-2.16.2/library/bignum.c ****     {
 4018              		.loc 1 1129 10
 4019 01f6 48837DE0 		cmpq	$0, -32(%rbp)
 4019      00
 4020 01fb 7580     		jne	.L312
1138:/home/xingli/share/1205tiny/network/dtls/mbedtls/mbedtls-2.16.2/library/bignum.c ****     }
1139:/home/xingli/share/1205tiny/network/dtls/mbedtls/mbedtls-2.16.2/library/bignum.c **** 
1140:/home/xingli/share/1205tiny/network/dtls/mbedtls/mbedtls-2.16.2/library/bignum.c **** cleanup:
 4021              		.loc 1 1140 1
 4022 01fd EB07     		jmp	.L301
 4023              	.L315:
1104:/home/xingli/share/1205tiny/network/dtls/mbedtls/mbedtls-2.16.2/library/bignum.c **** 
 4024              		.loc 1 1104 9
 4025 01ff 90       		nop
 4026 0200 EB04     		jmp	.L301
 4027              	.L317:
1115:/home/xingli/share/1205tiny/network/dtls/mbedtls/mbedtls-2.16.2/library/bignum.c **** 
 4028              		.loc 1 1115 5
 4029 0202 90       		nop
 4030 0203 EB01     		jmp	.L301
GAS LISTING /tmp/ccFaOvob.s 			page 101


 4031              	.L318:
1133:/home/xingli/share/1205tiny/network/dtls/mbedtls/mbedtls-2.16.2/library/bignum.c ****             p = X->p + i;
 4032              		.loc 1 1133 13
 4033 0205 90       		nop
 4034              	.L301:
1141:/home/xingli/share/1205tiny/network/dtls/mbedtls/mbedtls-2.16.2/library/bignum.c **** 
1142:/home/xingli/share/1205tiny/network/dtls/mbedtls/mbedtls-2.16.2/library/bignum.c ****     return( ret );
 4035              		.loc 1 1142 11
 4036 0206 8B45BC   		movl	-68(%rbp), %eax
1143:/home/xingli/share/1205tiny/network/dtls/mbedtls/mbedtls-2.16.2/library/bignum.c **** }
 4037              		.loc 1 1143 1
 4038 0209 488B4DF8 		movq	-8(%rbp), %rcx
 4039 020d 6448330C 		xorq	%fs:40, %rcx
 4039      25280000 
 4039      00
 4040 0216 7405     		je	.L314
 4041 0218 E8000000 		call	__stack_chk_fail@PLT
 4041      00
 4042              	.L314:
 4043 021d C9       		leave
 4044              	.LCFI92:
 4045              		.cfi_def_cfa 7, 8
 4046 021e C3       		ret
 4047              		.cfi_endproc
 4048              	.LFE36:
 4050              		.section	.text.mpi_sub_hlp,"ax",@progbits
 4052              	mpi_sub_hlp:
 4053              	.LFB37:
1144:/home/xingli/share/1205tiny/network/dtls/mbedtls/mbedtls-2.16.2/library/bignum.c **** 
1145:/home/xingli/share/1205tiny/network/dtls/mbedtls/mbedtls-2.16.2/library/bignum.c **** /*
1146:/home/xingli/share/1205tiny/network/dtls/mbedtls/mbedtls-2.16.2/library/bignum.c ****  * Helper for mbedtls_mpi subtraction
1147:/home/xingli/share/1205tiny/network/dtls/mbedtls/mbedtls-2.16.2/library/bignum.c ****  */
1148:/home/xingli/share/1205tiny/network/dtls/mbedtls/mbedtls-2.16.2/library/bignum.c **** static void mpi_sub_hlp( size_t n, mbedtls_mpi_uint *s, mbedtls_mpi_uint *d )
1149:/home/xingli/share/1205tiny/network/dtls/mbedtls/mbedtls-2.16.2/library/bignum.c **** {
 4054              		.loc 1 1149 1
 4055              		.cfi_startproc
 4056 0000 F30F1EFA 		endbr64
 4057 0004 55       		pushq	%rbp
 4058              	.LCFI93:
 4059              		.cfi_def_cfa_offset 16
 4060              		.cfi_offset 6, -16
 4061 0005 4889E5   		movq	%rsp, %rbp
 4062              	.LCFI94:
 4063              		.cfi_def_cfa_register 6
 4064 0008 4883EC40 		subq	$64, %rsp
 4065 000c 48897DD8 		movq	%rdi, -40(%rbp)
 4066 0010 488975D0 		movq	%rsi, -48(%rbp)
 4067 0014 488955C8 		movq	%rdx, -56(%rbp)
 4068              		.loc 1 1149 1
 4069 0018 64488B04 		movq	%fs:40, %rax
 4069      25280000 
 4069      00
 4070 0021 488945F8 		movq	%rax, -8(%rbp)
 4071 0025 31C0     		xorl	%eax, %eax
1150:/home/xingli/share/1205tiny/network/dtls/mbedtls/mbedtls-2.16.2/library/bignum.c ****     size_t i;
1151:/home/xingli/share/1205tiny/network/dtls/mbedtls/mbedtls-2.16.2/library/bignum.c ****     mbedtls_mpi_uint c, z;
1152:/home/xingli/share/1205tiny/network/dtls/mbedtls/mbedtls-2.16.2/library/bignum.c **** 
GAS LISTING /tmp/ccFaOvob.s 			page 102


1153:/home/xingli/share/1205tiny/network/dtls/mbedtls/mbedtls-2.16.2/library/bignum.c ****     for( i = c = 0; i < n; i++, s++, d++ )
 4072              		.loc 1 1153 16
 4073 0027 48C745E8 		movq	$0, -24(%rbp)
 4073      00000000 
 4074              		.loc 1 1153 12
 4075 002f 488B45E8 		movq	-24(%rbp), %rax
 4076 0033 488945E0 		movq	%rax, -32(%rbp)
 4077              		.loc 1 1153 5
 4078 0037 EB73     		jmp	.L320
 4079              	.L321:
1154:/home/xingli/share/1205tiny/network/dtls/mbedtls/mbedtls-2.16.2/library/bignum.c ****     {
1155:/home/xingli/share/1205tiny/network/dtls/mbedtls/mbedtls-2.16.2/library/bignum.c ****         z = ( *d <  c );     *d -=  c;
 4080              		.loc 1 1155 15 discriminator 3
 4081 0039 488B45C8 		movq	-56(%rbp), %rax
 4082 003d 488B00   		movq	(%rax), %rax
 4083              		.loc 1 1155 18 discriminator 3
 4084 0040 483945E8 		cmpq	%rax, -24(%rbp)
 4085 0044 0F97C0   		seta	%al
 4086              		.loc 1 1155 11 discriminator 3
 4087 0047 0FB6C0   		movzbl	%al, %eax
 4088 004a 488945F0 		movq	%rax, -16(%rbp)
 4089              		.loc 1 1155 33 discriminator 3
 4090 004e 488B45C8 		movq	-56(%rbp), %rax
 4091 0052 488B00   		movq	(%rax), %rax
 4092 0055 482B45E8 		subq	-24(%rbp), %rax
 4093 0059 4889C2   		movq	%rax, %rdx
 4094 005c 488B45C8 		movq	-56(%rbp), %rax
 4095 0060 488910   		movq	%rdx, (%rax)
1156:/home/xingli/share/1205tiny/network/dtls/mbedtls/mbedtls-2.16.2/library/bignum.c ****         c = ( *d < *s ) + z; *d -= *s;
 4096              		.loc 1 1156 15 discriminator 3
 4097 0063 488B45C8 		movq	-56(%rbp), %rax
 4098 0067 488B10   		movq	(%rax), %rdx
 4099              		.loc 1 1156 20 discriminator 3
 4100 006a 488B45D0 		movq	-48(%rbp), %rax
 4101 006e 488B00   		movq	(%rax), %rax
 4102              		.loc 1 1156 18 discriminator 3
 4103 0071 4839C2   		cmpq	%rax, %rdx
 4104 0074 0F92C0   		setb	%al
 4105 0077 0FB6D0   		movzbl	%al, %edx
 4106              		.loc 1 1156 11 discriminator 3
 4107 007a 488B45F0 		movq	-16(%rbp), %rax
 4108 007e 4801D0   		addq	%rdx, %rax
 4109 0081 488945E8 		movq	%rax, -24(%rbp)
 4110              		.loc 1 1156 33 discriminator 3
 4111 0085 488B45C8 		movq	-56(%rbp), %rax
 4112 0089 488B10   		movq	(%rax), %rdx
 4113              		.loc 1 1156 36 discriminator 3
 4114 008c 488B45D0 		movq	-48(%rbp), %rax
 4115 0090 488B00   		movq	(%rax), %rax
 4116              		.loc 1 1156 33 discriminator 3
 4117 0093 4829C2   		subq	%rax, %rdx
 4118 0096 488B45C8 		movq	-56(%rbp), %rax
 4119 009a 488910   		movq	%rdx, (%rax)
1153:/home/xingli/share/1205tiny/network/dtls/mbedtls/mbedtls-2.16.2/library/bignum.c ****     {
 4120              		.loc 1 1153 29 discriminator 3
 4121 009d 488345E0 		addq	$1, -32(%rbp)
 4121      01
GAS LISTING /tmp/ccFaOvob.s 			page 103


1153:/home/xingli/share/1205tiny/network/dtls/mbedtls/mbedtls-2.16.2/library/bignum.c ****     {
 4122              		.loc 1 1153 34 discriminator 3
 4123 00a2 488345D0 		addq	$8, -48(%rbp)
 4123      08
1153:/home/xingli/share/1205tiny/network/dtls/mbedtls/mbedtls-2.16.2/library/bignum.c ****     {
 4124              		.loc 1 1153 39 discriminator 3
 4125 00a7 488345C8 		addq	$8, -56(%rbp)
 4125      08
 4126              	.L320:
1153:/home/xingli/share/1205tiny/network/dtls/mbedtls/mbedtls-2.16.2/library/bignum.c ****     {
 4127              		.loc 1 1153 5 discriminator 1
 4128 00ac 488B45E0 		movq	-32(%rbp), %rax
 4129 00b0 483B45D8 		cmpq	-40(%rbp), %rax
 4130 00b4 7283     		jb	.L321
1157:/home/xingli/share/1205tiny/network/dtls/mbedtls/mbedtls-2.16.2/library/bignum.c ****     }
1158:/home/xingli/share/1205tiny/network/dtls/mbedtls/mbedtls-2.16.2/library/bignum.c **** 
1159:/home/xingli/share/1205tiny/network/dtls/mbedtls/mbedtls-2.16.2/library/bignum.c ****     while( c != 0 )
 4131              		.loc 1 1159 10
 4132 00b6 EB37     		jmp	.L322
 4133              	.L323:
1160:/home/xingli/share/1205tiny/network/dtls/mbedtls/mbedtls-2.16.2/library/bignum.c ****     {
1161:/home/xingli/share/1205tiny/network/dtls/mbedtls/mbedtls-2.16.2/library/bignum.c ****         z = ( *d < c ); *d -= c;
 4134              		.loc 1 1161 15
 4135 00b8 488B45C8 		movq	-56(%rbp), %rax
 4136 00bc 488B00   		movq	(%rax), %rax
 4137              		.loc 1 1161 18
 4138 00bf 483945E8 		cmpq	%rax, -24(%rbp)
 4139 00c3 0F97C0   		seta	%al
 4140              		.loc 1 1161 11
 4141 00c6 0FB6C0   		movzbl	%al, %eax
 4142 00c9 488945F0 		movq	%rax, -16(%rbp)
 4143              		.loc 1 1161 28
 4144 00cd 488B45C8 		movq	-56(%rbp), %rax
 4145 00d1 488B00   		movq	(%rax), %rax
 4146 00d4 482B45E8 		subq	-24(%rbp), %rax
 4147 00d8 4889C2   		movq	%rax, %rdx
 4148 00db 488B45C8 		movq	-56(%rbp), %rax
 4149 00df 488910   		movq	%rdx, (%rax)
1162:/home/xingli/share/1205tiny/network/dtls/mbedtls/mbedtls-2.16.2/library/bignum.c ****         c = z; d++;
 4150              		.loc 1 1162 11
 4151 00e2 488B45F0 		movq	-16(%rbp), %rax
 4152 00e6 488945E8 		movq	%rax, -24(%rbp)
 4153              		.loc 1 1162 17
 4154 00ea 488345C8 		addq	$8, -56(%rbp)
 4154      08
 4155              	.L322:
1159:/home/xingli/share/1205tiny/network/dtls/mbedtls/mbedtls-2.16.2/library/bignum.c ****     {
 4156              		.loc 1 1159 10
 4157 00ef 48837DE8 		cmpq	$0, -24(%rbp)
 4157      00
 4158 00f4 75C2     		jne	.L323
1163:/home/xingli/share/1205tiny/network/dtls/mbedtls/mbedtls-2.16.2/library/bignum.c ****     }
1164:/home/xingli/share/1205tiny/network/dtls/mbedtls/mbedtls-2.16.2/library/bignum.c **** }
 4159              		.loc 1 1164 1
 4160 00f6 90       		nop
 4161 00f7 488B45F8 		movq	-8(%rbp), %rax
 4162 00fb 64483304 		xorq	%fs:40, %rax
GAS LISTING /tmp/ccFaOvob.s 			page 104


 4162      25280000 
 4162      00
 4163 0104 7405     		je	.L324
 4164 0106 E8000000 		call	__stack_chk_fail@PLT
 4164      00
 4165              	.L324:
 4166 010b C9       		leave
 4167              	.LCFI95:
 4168              		.cfi_def_cfa 7, 8
 4169 010c C3       		ret
 4170              		.cfi_endproc
 4171              	.LFE37:
 4173              		.section	.text.mbedtls_mpi_sub_abs,"ax",@progbits
 4174              		.globl	mbedtls_mpi_sub_abs
 4176              	mbedtls_mpi_sub_abs:
 4177              	.LFB38:
1165:/home/xingli/share/1205tiny/network/dtls/mbedtls/mbedtls-2.16.2/library/bignum.c **** 
1166:/home/xingli/share/1205tiny/network/dtls/mbedtls/mbedtls-2.16.2/library/bignum.c **** /*
1167:/home/xingli/share/1205tiny/network/dtls/mbedtls/mbedtls-2.16.2/library/bignum.c ****  * Unsigned subtraction: X = |A| - |B|  (HAC 14.9)
1168:/home/xingli/share/1205tiny/network/dtls/mbedtls/mbedtls-2.16.2/library/bignum.c ****  */
1169:/home/xingli/share/1205tiny/network/dtls/mbedtls/mbedtls-2.16.2/library/bignum.c **** int mbedtls_mpi_sub_abs( mbedtls_mpi *X, const mbedtls_mpi *A, const mbedtls_mpi *B )
1170:/home/xingli/share/1205tiny/network/dtls/mbedtls/mbedtls-2.16.2/library/bignum.c **** {
 4178              		.loc 1 1170 1
 4179              		.cfi_startproc
 4180 0000 F30F1EFA 		endbr64
 4181 0004 55       		pushq	%rbp
 4182              	.LCFI96:
 4183              		.cfi_def_cfa_offset 16
 4184              		.cfi_offset 6, -16
 4185 0005 4889E5   		movq	%rsp, %rbp
 4186              	.LCFI97:
 4187              		.cfi_def_cfa_register 6
 4188 0008 4883EC50 		subq	$80, %rsp
 4189 000c 48897DC8 		movq	%rdi, -56(%rbp)
 4190 0010 488975C0 		movq	%rsi, -64(%rbp)
 4191 0014 488955B8 		movq	%rdx, -72(%rbp)
 4192              		.loc 1 1170 1
 4193 0018 64488B04 		movq	%fs:40, %rax
 4193      25280000 
 4193      00
 4194 0021 488945F8 		movq	%rax, -8(%rbp)
 4195 0025 31C0     		xorl	%eax, %eax
1171:/home/xingli/share/1205tiny/network/dtls/mbedtls/mbedtls-2.16.2/library/bignum.c ****     mbedtls_mpi TB;
1172:/home/xingli/share/1205tiny/network/dtls/mbedtls/mbedtls-2.16.2/library/bignum.c ****     int ret;
1173:/home/xingli/share/1205tiny/network/dtls/mbedtls/mbedtls-2.16.2/library/bignum.c ****     size_t n;
1174:/home/xingli/share/1205tiny/network/dtls/mbedtls/mbedtls-2.16.2/library/bignum.c ****     MPI_VALIDATE_RET( X != NULL );
1175:/home/xingli/share/1205tiny/network/dtls/mbedtls/mbedtls-2.16.2/library/bignum.c ****     MPI_VALIDATE_RET( A != NULL );
1176:/home/xingli/share/1205tiny/network/dtls/mbedtls/mbedtls-2.16.2/library/bignum.c ****     MPI_VALIDATE_RET( B != NULL );
1177:/home/xingli/share/1205tiny/network/dtls/mbedtls/mbedtls-2.16.2/library/bignum.c **** 
1178:/home/xingli/share/1205tiny/network/dtls/mbedtls/mbedtls-2.16.2/library/bignum.c ****     if( mbedtls_mpi_cmp_abs( A, B ) < 0 )
 4196              		.loc 1 1178 9
 4197 0027 488B55B8 		movq	-72(%rbp), %rdx
 4198 002b 488B45C0 		movq	-64(%rbp), %rax
 4199 002f 4889D6   		movq	%rdx, %rsi
 4200 0032 4889C7   		movq	%rax, %rdi
 4201 0035 E8000000 		call	mbedtls_mpi_cmp_abs
 4201      00
GAS LISTING /tmp/ccFaOvob.s 			page 105


 4202              		.loc 1 1178 7
 4203 003a 85C0     		testl	%eax, %eax
 4204 003c 790A     		jns	.L326
1179:/home/xingli/share/1205tiny/network/dtls/mbedtls/mbedtls-2.16.2/library/bignum.c ****         return( MBEDTLS_ERR_MPI_NEGATIVE_VALUE );
 4205              		.loc 1 1179 15
 4206 003e B8F6FFFF 		movl	$-10, %eax
 4206      FF
 4207 0043 E9E50000 		jmp	.L336
 4207      00
 4208              	.L326:
1180:/home/xingli/share/1205tiny/network/dtls/mbedtls/mbedtls-2.16.2/library/bignum.c **** 
1181:/home/xingli/share/1205tiny/network/dtls/mbedtls/mbedtls-2.16.2/library/bignum.c ****     mbedtls_mpi_init( &TB );
 4209              		.loc 1 1181 5
 4210 0048 488D45E0 		leaq	-32(%rbp), %rax
 4211 004c 4889C7   		movq	%rax, %rdi
 4212 004f E8000000 		call	mbedtls_mpi_init
 4212      00
1182:/home/xingli/share/1205tiny/network/dtls/mbedtls/mbedtls-2.16.2/library/bignum.c **** 
1183:/home/xingli/share/1205tiny/network/dtls/mbedtls/mbedtls-2.16.2/library/bignum.c ****     if( X == B )
 4213              		.loc 1 1183 7
 4214 0054 488B45C8 		movq	-56(%rbp), %rax
 4215 0058 483B45B8 		cmpq	-72(%rbp), %rax
 4216 005c 7528     		jne	.L328
1184:/home/xingli/share/1205tiny/network/dtls/mbedtls/mbedtls-2.16.2/library/bignum.c ****     {
1185:/home/xingli/share/1205tiny/network/dtls/mbedtls/mbedtls-2.16.2/library/bignum.c ****         MBEDTLS_MPI_CHK( mbedtls_mpi_copy( &TB, B ) );
 4217              		.loc 1 1185 9
 4218 005e 488B55B8 		movq	-72(%rbp), %rdx
 4219 0062 488D45E0 		leaq	-32(%rbp), %rax
 4220 0066 4889D6   		movq	%rdx, %rsi
 4221 0069 4889C7   		movq	%rax, %rdi
 4222 006c E8000000 		call	mbedtls_mpi_copy
 4222      00
 4223 0071 8945D4   		movl	%eax, -44(%rbp)
 4224 0074 837DD400 		cmpl	$0, -44(%rbp)
 4225 0078 0F859C00 		jne	.L338
 4225      0000
1186:/home/xingli/share/1205tiny/network/dtls/mbedtls/mbedtls-2.16.2/library/bignum.c ****         B = &TB;
 4226              		.loc 1 1186 11
 4227 007e 488D45E0 		leaq	-32(%rbp), %rax
 4228 0082 488945B8 		movq	%rax, -72(%rbp)
 4229              	.L328:
1187:/home/xingli/share/1205tiny/network/dtls/mbedtls/mbedtls-2.16.2/library/bignum.c ****     }
1188:/home/xingli/share/1205tiny/network/dtls/mbedtls/mbedtls-2.16.2/library/bignum.c **** 
1189:/home/xingli/share/1205tiny/network/dtls/mbedtls/mbedtls-2.16.2/library/bignum.c ****     if( X != A )
 4230              		.loc 1 1189 7
 4231 0086 488B45C8 		movq	-56(%rbp), %rax
 4232 008a 483B45C0 		cmpq	-64(%rbp), %rax
 4233 008e 741C     		je	.L331
1190:/home/xingli/share/1205tiny/network/dtls/mbedtls/mbedtls-2.16.2/library/bignum.c ****         MBEDTLS_MPI_CHK( mbedtls_mpi_copy( X, A ) );
 4234              		.loc 1 1190 9
 4235 0090 488B55C0 		movq	-64(%rbp), %rdx
 4236 0094 488B45C8 		movq	-56(%rbp), %rax
 4237 0098 4889D6   		movq	%rdx, %rsi
 4238 009b 4889C7   		movq	%rax, %rdi
 4239 009e E8000000 		call	mbedtls_mpi_copy
 4239      00
 4240 00a3 8945D4   		movl	%eax, -44(%rbp)
GAS LISTING /tmp/ccFaOvob.s 			page 106


 4241 00a6 837DD400 		cmpl	$0, -44(%rbp)
 4242 00aa 7571     		jne	.L339
 4243              	.L331:
1191:/home/xingli/share/1205tiny/network/dtls/mbedtls/mbedtls-2.16.2/library/bignum.c **** 
1192:/home/xingli/share/1205tiny/network/dtls/mbedtls/mbedtls-2.16.2/library/bignum.c ****     /*
1193:/home/xingli/share/1205tiny/network/dtls/mbedtls/mbedtls-2.16.2/library/bignum.c ****      * X should always be positive as a result of unsigned subtractions.
1194:/home/xingli/share/1205tiny/network/dtls/mbedtls/mbedtls-2.16.2/library/bignum.c ****      */
1195:/home/xingli/share/1205tiny/network/dtls/mbedtls/mbedtls-2.16.2/library/bignum.c ****     X->s = 1;
 4244              		.loc 1 1195 10
 4245 00ac 488B45C8 		movq	-56(%rbp), %rax
 4246 00b0 C7000100 		movl	$1, (%rax)
 4246      0000
1196:/home/xingli/share/1205tiny/network/dtls/mbedtls/mbedtls-2.16.2/library/bignum.c **** 
1197:/home/xingli/share/1205tiny/network/dtls/mbedtls/mbedtls-2.16.2/library/bignum.c ****     ret = 0;
 4247              		.loc 1 1197 9
 4248 00b6 C745D400 		movl	$0, -44(%rbp)
 4248      000000
1198:/home/xingli/share/1205tiny/network/dtls/mbedtls/mbedtls-2.16.2/library/bignum.c **** 
1199:/home/xingli/share/1205tiny/network/dtls/mbedtls/mbedtls-2.16.2/library/bignum.c ****     for( n = B->n; n > 0; n-- )
 4249              		.loc 1 1199 12
 4250 00bd 488B45B8 		movq	-72(%rbp), %rax
 4251 00c1 488B4008 		movq	8(%rax), %rax
 4252 00c5 488945D8 		movq	%rax, -40(%rbp)
 4253              		.loc 1 1199 5
 4254 00c9 EB24     		jmp	.L332
 4255              	.L335:
1200:/home/xingli/share/1205tiny/network/dtls/mbedtls/mbedtls-2.16.2/library/bignum.c ****         if( B->p[n - 1] != 0 )
 4256              		.loc 1 1200 14
 4257 00cb 488B45B8 		movq	-72(%rbp), %rax
 4258 00cf 488B4010 		movq	16(%rax), %rax
 4259              		.loc 1 1200 17
 4260 00d3 488B55D8 		movq	-40(%rbp), %rdx
 4261 00d7 48C1E203 		salq	$3, %rdx
 4262 00db 4883EA08 		subq	$8, %rdx
 4263 00df 4801D0   		addq	%rdx, %rax
 4264 00e2 488B00   		movq	(%rax), %rax
 4265              		.loc 1 1200 11
 4266 00e5 4885C0   		testq	%rax, %rax
 4267 00e8 750E     		jne	.L340
1199:/home/xingli/share/1205tiny/network/dtls/mbedtls/mbedtls-2.16.2/library/bignum.c ****         if( B->p[n - 1] != 0 )
 4268              		.loc 1 1199 28 discriminator 2
 4269 00ea 48836DD8 		subq	$1, -40(%rbp)
 4269      01
 4270              	.L332:
1199:/home/xingli/share/1205tiny/network/dtls/mbedtls/mbedtls-2.16.2/library/bignum.c ****         if( B->p[n - 1] != 0 )
 4271              		.loc 1 1199 5 discriminator 1
 4272 00ef 48837DD8 		cmpq	$0, -40(%rbp)
 4272      00
 4273 00f4 75D5     		jne	.L335
 4274 00f6 EB01     		jmp	.L334
 4275              	.L340:
1201:/home/xingli/share/1205tiny/network/dtls/mbedtls/mbedtls-2.16.2/library/bignum.c ****             break;
 4276              		.loc 1 1201 13
 4277 00f8 90       		nop
 4278              	.L334:
1202:/home/xingli/share/1205tiny/network/dtls/mbedtls/mbedtls-2.16.2/library/bignum.c **** 
1203:/home/xingli/share/1205tiny/network/dtls/mbedtls/mbedtls-2.16.2/library/bignum.c ****     mpi_sub_hlp( n, B->p, X->p );
GAS LISTING /tmp/ccFaOvob.s 			page 107


 4279              		.loc 1 1203 5
 4280 00f9 488B45C8 		movq	-56(%rbp), %rax
 4281 00fd 488B5010 		movq	16(%rax), %rdx
 4282 0101 488B45B8 		movq	-72(%rbp), %rax
 4283 0105 488B4810 		movq	16(%rax), %rcx
 4284 0109 488B45D8 		movq	-40(%rbp), %rax
 4285 010d 4889CE   		movq	%rcx, %rsi
 4286 0110 4889C7   		movq	%rax, %rdi
 4287 0113 E8000000 		call	mpi_sub_hlp
 4287      00
 4288 0118 EB04     		jmp	.L330
 4289              	.L338:
1185:/home/xingli/share/1205tiny/network/dtls/mbedtls/mbedtls-2.16.2/library/bignum.c ****         B = &TB;
 4290              		.loc 1 1185 9
 4291 011a 90       		nop
 4292 011b EB01     		jmp	.L330
 4293              	.L339:
1190:/home/xingli/share/1205tiny/network/dtls/mbedtls/mbedtls-2.16.2/library/bignum.c **** 
 4294              		.loc 1 1190 9
 4295 011d 90       		nop
 4296              	.L330:
1204:/home/xingli/share/1205tiny/network/dtls/mbedtls/mbedtls-2.16.2/library/bignum.c **** 
1205:/home/xingli/share/1205tiny/network/dtls/mbedtls/mbedtls-2.16.2/library/bignum.c **** cleanup:
1206:/home/xingli/share/1205tiny/network/dtls/mbedtls/mbedtls-2.16.2/library/bignum.c **** 
1207:/home/xingli/share/1205tiny/network/dtls/mbedtls/mbedtls-2.16.2/library/bignum.c ****     mbedtls_mpi_free( &TB );
 4297              		.loc 1 1207 5
 4298 011e 488D45E0 		leaq	-32(%rbp), %rax
 4299 0122 4889C7   		movq	%rax, %rdi
 4300 0125 E8000000 		call	mbedtls_mpi_free
 4300      00
1208:/home/xingli/share/1205tiny/network/dtls/mbedtls/mbedtls-2.16.2/library/bignum.c **** 
1209:/home/xingli/share/1205tiny/network/dtls/mbedtls/mbedtls-2.16.2/library/bignum.c ****     return( ret );
 4301              		.loc 1 1209 11
 4302 012a 8B45D4   		movl	-44(%rbp), %eax
 4303              	.L336:
1210:/home/xingli/share/1205tiny/network/dtls/mbedtls/mbedtls-2.16.2/library/bignum.c **** }
 4304              		.loc 1 1210 1 discriminator 1
 4305 012d 488B4DF8 		movq	-8(%rbp), %rcx
 4306 0131 6448330C 		xorq	%fs:40, %rcx
 4306      25280000 
 4306      00
 4307 013a 7405     		je	.L337
 4308              		.loc 1 1210 1 is_stmt 0
 4309 013c E8000000 		call	__stack_chk_fail@PLT
 4309      00
 4310              	.L337:
 4311 0141 C9       		leave
 4312              	.LCFI98:
 4313              		.cfi_def_cfa 7, 8
 4314 0142 C3       		ret
 4315              		.cfi_endproc
 4316              	.LFE38:
 4318              		.section	.text.mbedtls_mpi_add_mpi,"ax",@progbits
 4319              		.globl	mbedtls_mpi_add_mpi
 4321              	mbedtls_mpi_add_mpi:
 4322              	.LFB39:
1211:/home/xingli/share/1205tiny/network/dtls/mbedtls/mbedtls-2.16.2/library/bignum.c **** 
GAS LISTING /tmp/ccFaOvob.s 			page 108


1212:/home/xingli/share/1205tiny/network/dtls/mbedtls/mbedtls-2.16.2/library/bignum.c **** /*
1213:/home/xingli/share/1205tiny/network/dtls/mbedtls/mbedtls-2.16.2/library/bignum.c ****  * Signed addition: X = A + B
1214:/home/xingli/share/1205tiny/network/dtls/mbedtls/mbedtls-2.16.2/library/bignum.c ****  */
1215:/home/xingli/share/1205tiny/network/dtls/mbedtls/mbedtls-2.16.2/library/bignum.c **** int mbedtls_mpi_add_mpi( mbedtls_mpi *X, const mbedtls_mpi *A, const mbedtls_mpi *B )
1216:/home/xingli/share/1205tiny/network/dtls/mbedtls/mbedtls-2.16.2/library/bignum.c **** {
 4323              		.loc 1 1216 1 is_stmt 1
 4324              		.cfi_startproc
 4325 0000 F30F1EFA 		endbr64
 4326 0004 55       		pushq	%rbp
 4327              	.LCFI99:
 4328              		.cfi_def_cfa_offset 16
 4329              		.cfi_offset 6, -16
 4330 0005 4889E5   		movq	%rsp, %rbp
 4331              	.LCFI100:
 4332              		.cfi_def_cfa_register 6
 4333 0008 4883EC30 		subq	$48, %rsp
 4334 000c 48897DE8 		movq	%rdi, -24(%rbp)
 4335 0010 488975E0 		movq	%rsi, -32(%rbp)
 4336 0014 488955D8 		movq	%rdx, -40(%rbp)
 4337              		.loc 1 1216 1
 4338 0018 64488B04 		movq	%fs:40, %rax
 4338      25280000 
 4338      00
 4339 0021 488945F8 		movq	%rax, -8(%rbp)
 4340 0025 31C0     		xorl	%eax, %eax
1217:/home/xingli/share/1205tiny/network/dtls/mbedtls/mbedtls-2.16.2/library/bignum.c ****     int ret, s;
1218:/home/xingli/share/1205tiny/network/dtls/mbedtls/mbedtls-2.16.2/library/bignum.c ****     MPI_VALIDATE_RET( X != NULL );
1219:/home/xingli/share/1205tiny/network/dtls/mbedtls/mbedtls-2.16.2/library/bignum.c ****     MPI_VALIDATE_RET( A != NULL );
1220:/home/xingli/share/1205tiny/network/dtls/mbedtls/mbedtls-2.16.2/library/bignum.c ****     MPI_VALIDATE_RET( B != NULL );
1221:/home/xingli/share/1205tiny/network/dtls/mbedtls/mbedtls-2.16.2/library/bignum.c **** 
1222:/home/xingli/share/1205tiny/network/dtls/mbedtls/mbedtls-2.16.2/library/bignum.c ****     s = A->s;
 4341              		.loc 1 1222 7
 4342 0027 488B45E0 		movq	-32(%rbp), %rax
 4343 002b 8B00     		movl	(%rax), %eax
 4344 002d 8945F4   		movl	%eax, -12(%rbp)
1223:/home/xingli/share/1205tiny/network/dtls/mbedtls/mbedtls-2.16.2/library/bignum.c ****     if( A->s * B->s < 0 )
 4345              		.loc 1 1223 10
 4346 0030 488B45E0 		movq	-32(%rbp), %rax
 4347 0034 8B10     		movl	(%rax), %edx
 4348              		.loc 1 1223 17
 4349 0036 488B45D8 		movq	-40(%rbp), %rax
 4350 003a 8B00     		movl	(%rax), %eax
 4351              		.loc 1 1223 14
 4352 003c 0FAFC2   		imull	%edx, %eax
 4353              		.loc 1 1223 7
 4354 003f 85C0     		testl	%eax, %eax
 4355 0041 7971     		jns	.L342
1224:/home/xingli/share/1205tiny/network/dtls/mbedtls/mbedtls-2.16.2/library/bignum.c ****     {
1225:/home/xingli/share/1205tiny/network/dtls/mbedtls/mbedtls-2.16.2/library/bignum.c ****         if( mbedtls_mpi_cmp_abs( A, B ) >= 0 )
 4356              		.loc 1 1225 13
 4357 0043 488B55D8 		movq	-40(%rbp), %rdx
 4358 0047 488B45E0 		movq	-32(%rbp), %rax
 4359 004b 4889D6   		movq	%rdx, %rsi
 4360 004e 4889C7   		movq	%rax, %rdi
 4361 0051 E8000000 		call	mbedtls_mpi_cmp_abs
 4361      00
 4362              		.loc 1 1225 11
GAS LISTING /tmp/ccFaOvob.s 			page 109


 4363 0056 85C0     		testl	%eax, %eax
 4364 0058 782B     		js	.L343
1226:/home/xingli/share/1205tiny/network/dtls/mbedtls/mbedtls-2.16.2/library/bignum.c ****         {
1227:/home/xingli/share/1205tiny/network/dtls/mbedtls/mbedtls-2.16.2/library/bignum.c ****             MBEDTLS_MPI_CHK( mbedtls_mpi_sub_abs( X, A, B ) );
 4365              		.loc 1 1227 13
 4366 005a 488B55D8 		movq	-40(%rbp), %rdx
 4367 005e 488B4DE0 		movq	-32(%rbp), %rcx
 4368 0062 488B45E8 		movq	-24(%rbp), %rax
 4369 0066 4889CE   		movq	%rcx, %rsi
 4370 0069 4889C7   		movq	%rax, %rdi
 4371 006c E8000000 		call	mbedtls_mpi_sub_abs
 4371      00
 4372 0071 8945F0   		movl	%eax, -16(%rbp)
 4373 0074 837DF000 		cmpl	$0, -16(%rbp)
 4374 0078 7565     		jne	.L350
1228:/home/xingli/share/1205tiny/network/dtls/mbedtls/mbedtls-2.16.2/library/bignum.c ****             X->s =  s;
 4375              		.loc 1 1228 18
 4376 007a 488B45E8 		movq	-24(%rbp), %rax
 4377 007e 8B55F4   		movl	-12(%rbp), %edx
 4378 0081 8910     		movl	%edx, (%rax)
 4379 0083 EB61     		jmp	.L345
 4380              	.L343:
1229:/home/xingli/share/1205tiny/network/dtls/mbedtls/mbedtls-2.16.2/library/bignum.c ****         }
1230:/home/xingli/share/1205tiny/network/dtls/mbedtls/mbedtls-2.16.2/library/bignum.c ****         else
1231:/home/xingli/share/1205tiny/network/dtls/mbedtls/mbedtls-2.16.2/library/bignum.c ****         {
1232:/home/xingli/share/1205tiny/network/dtls/mbedtls/mbedtls-2.16.2/library/bignum.c ****             MBEDTLS_MPI_CHK( mbedtls_mpi_sub_abs( X, B, A ) );
 4381              		.loc 1 1232 13
 4382 0085 488B55E0 		movq	-32(%rbp), %rdx
 4383 0089 488B4DD8 		movq	-40(%rbp), %rcx
 4384 008d 488B45E8 		movq	-24(%rbp), %rax
 4385 0091 4889CE   		movq	%rcx, %rsi
 4386 0094 4889C7   		movq	%rax, %rdi
 4387 0097 E8000000 		call	mbedtls_mpi_sub_abs
 4387      00
 4388 009c 8945F0   		movl	%eax, -16(%rbp)
 4389 009f 837DF000 		cmpl	$0, -16(%rbp)
 4390 00a3 753D     		jne	.L351
1233:/home/xingli/share/1205tiny/network/dtls/mbedtls/mbedtls-2.16.2/library/bignum.c ****             X->s = -s;
 4391              		.loc 1 1233 20
 4392 00a5 8B45F4   		movl	-12(%rbp), %eax
 4393 00a8 F7D8     		negl	%eax
 4394 00aa 89C2     		movl	%eax, %edx
 4395              		.loc 1 1233 18
 4396 00ac 488B45E8 		movq	-24(%rbp), %rax
 4397 00b0 8910     		movl	%edx, (%rax)
 4398 00b2 EB32     		jmp	.L345
 4399              	.L342:
1234:/home/xingli/share/1205tiny/network/dtls/mbedtls/mbedtls-2.16.2/library/bignum.c ****         }
1235:/home/xingli/share/1205tiny/network/dtls/mbedtls/mbedtls-2.16.2/library/bignum.c ****     }
1236:/home/xingli/share/1205tiny/network/dtls/mbedtls/mbedtls-2.16.2/library/bignum.c ****     else
1237:/home/xingli/share/1205tiny/network/dtls/mbedtls/mbedtls-2.16.2/library/bignum.c ****     {
1238:/home/xingli/share/1205tiny/network/dtls/mbedtls/mbedtls-2.16.2/library/bignum.c ****         MBEDTLS_MPI_CHK( mbedtls_mpi_add_abs( X, A, B ) );
 4400              		.loc 1 1238 9
 4401 00b4 488B55D8 		movq	-40(%rbp), %rdx
 4402 00b8 488B4DE0 		movq	-32(%rbp), %rcx
 4403 00bc 488B45E8 		movq	-24(%rbp), %rax
 4404 00c0 4889CE   		movq	%rcx, %rsi
GAS LISTING /tmp/ccFaOvob.s 			page 110


 4405 00c3 4889C7   		movq	%rax, %rdi
 4406 00c6 E8000000 		call	mbedtls_mpi_add_abs
 4406      00
 4407 00cb 8945F0   		movl	%eax, -16(%rbp)
 4408 00ce 837DF000 		cmpl	$0, -16(%rbp)
 4409 00d2 7511     		jne	.L352
1239:/home/xingli/share/1205tiny/network/dtls/mbedtls/mbedtls-2.16.2/library/bignum.c ****         X->s = s;
 4410              		.loc 1 1239 14
 4411 00d4 488B45E8 		movq	-24(%rbp), %rax
 4412 00d8 8B55F4   		movl	-12(%rbp), %edx
 4413 00db 8910     		movl	%edx, (%rax)
 4414 00dd EB07     		jmp	.L345
 4415              	.L350:
1227:/home/xingli/share/1205tiny/network/dtls/mbedtls/mbedtls-2.16.2/library/bignum.c ****             X->s =  s;
 4416              		.loc 1 1227 13
 4417 00df 90       		nop
 4418 00e0 EB04     		jmp	.L345
 4419              	.L351:
1232:/home/xingli/share/1205tiny/network/dtls/mbedtls/mbedtls-2.16.2/library/bignum.c ****             X->s = -s;
 4420              		.loc 1 1232 13
 4421 00e2 90       		nop
 4422 00e3 EB01     		jmp	.L345
 4423              	.L352:
1238:/home/xingli/share/1205tiny/network/dtls/mbedtls/mbedtls-2.16.2/library/bignum.c ****         X->s = s;
 4424              		.loc 1 1238 9
 4425 00e5 90       		nop
 4426              	.L345:
1240:/home/xingli/share/1205tiny/network/dtls/mbedtls/mbedtls-2.16.2/library/bignum.c ****     }
1241:/home/xingli/share/1205tiny/network/dtls/mbedtls/mbedtls-2.16.2/library/bignum.c **** 
1242:/home/xingli/share/1205tiny/network/dtls/mbedtls/mbedtls-2.16.2/library/bignum.c **** cleanup:
1243:/home/xingli/share/1205tiny/network/dtls/mbedtls/mbedtls-2.16.2/library/bignum.c **** 
1244:/home/xingli/share/1205tiny/network/dtls/mbedtls/mbedtls-2.16.2/library/bignum.c ****     return( ret );
 4427              		.loc 1 1244 11
 4428 00e6 8B45F0   		movl	-16(%rbp), %eax
1245:/home/xingli/share/1205tiny/network/dtls/mbedtls/mbedtls-2.16.2/library/bignum.c **** }
 4429              		.loc 1 1245 1
 4430 00e9 488B75F8 		movq	-8(%rbp), %rsi
 4431 00ed 64483334 		xorq	%fs:40, %rsi
 4431      25280000 
 4431      00
 4432 00f6 7405     		je	.L349
 4433 00f8 E8000000 		call	__stack_chk_fail@PLT
 4433      00
 4434              	.L349:
 4435 00fd C9       		leave
 4436              	.LCFI101:
 4437              		.cfi_def_cfa 7, 8
 4438 00fe C3       		ret
 4439              		.cfi_endproc
 4440              	.LFE39:
 4442              		.section	.text.mbedtls_mpi_sub_mpi,"ax",@progbits
 4443              		.globl	mbedtls_mpi_sub_mpi
 4445              	mbedtls_mpi_sub_mpi:
 4446              	.LFB40:
1246:/home/xingli/share/1205tiny/network/dtls/mbedtls/mbedtls-2.16.2/library/bignum.c **** 
1247:/home/xingli/share/1205tiny/network/dtls/mbedtls/mbedtls-2.16.2/library/bignum.c **** /*
1248:/home/xingli/share/1205tiny/network/dtls/mbedtls/mbedtls-2.16.2/library/bignum.c ****  * Signed subtraction: X = A - B
GAS LISTING /tmp/ccFaOvob.s 			page 111


1249:/home/xingli/share/1205tiny/network/dtls/mbedtls/mbedtls-2.16.2/library/bignum.c ****  */
1250:/home/xingli/share/1205tiny/network/dtls/mbedtls/mbedtls-2.16.2/library/bignum.c **** int mbedtls_mpi_sub_mpi( mbedtls_mpi *X, const mbedtls_mpi *A, const mbedtls_mpi *B )
1251:/home/xingli/share/1205tiny/network/dtls/mbedtls/mbedtls-2.16.2/library/bignum.c **** {
 4447              		.loc 1 1251 1
 4448              		.cfi_startproc
 4449 0000 F30F1EFA 		endbr64
 4450 0004 55       		pushq	%rbp
 4451              	.LCFI102:
 4452              		.cfi_def_cfa_offset 16
 4453              		.cfi_offset 6, -16
 4454 0005 4889E5   		movq	%rsp, %rbp
 4455              	.LCFI103:
 4456              		.cfi_def_cfa_register 6
 4457 0008 4883EC30 		subq	$48, %rsp
 4458 000c 48897DE8 		movq	%rdi, -24(%rbp)
 4459 0010 488975E0 		movq	%rsi, -32(%rbp)
 4460 0014 488955D8 		movq	%rdx, -40(%rbp)
 4461              		.loc 1 1251 1
 4462 0018 64488B04 		movq	%fs:40, %rax
 4462      25280000 
 4462      00
 4463 0021 488945F8 		movq	%rax, -8(%rbp)
 4464 0025 31C0     		xorl	%eax, %eax
1252:/home/xingli/share/1205tiny/network/dtls/mbedtls/mbedtls-2.16.2/library/bignum.c ****     int ret, s;
1253:/home/xingli/share/1205tiny/network/dtls/mbedtls/mbedtls-2.16.2/library/bignum.c ****     MPI_VALIDATE_RET( X != NULL );
1254:/home/xingli/share/1205tiny/network/dtls/mbedtls/mbedtls-2.16.2/library/bignum.c ****     MPI_VALIDATE_RET( A != NULL );
1255:/home/xingli/share/1205tiny/network/dtls/mbedtls/mbedtls-2.16.2/library/bignum.c ****     MPI_VALIDATE_RET( B != NULL );
1256:/home/xingli/share/1205tiny/network/dtls/mbedtls/mbedtls-2.16.2/library/bignum.c **** 
1257:/home/xingli/share/1205tiny/network/dtls/mbedtls/mbedtls-2.16.2/library/bignum.c ****     s = A->s;
 4465              		.loc 1 1257 7
 4466 0027 488B45E0 		movq	-32(%rbp), %rax
 4467 002b 8B00     		movl	(%rax), %eax
 4468 002d 8945F4   		movl	%eax, -12(%rbp)
1258:/home/xingli/share/1205tiny/network/dtls/mbedtls/mbedtls-2.16.2/library/bignum.c ****     if( A->s * B->s > 0 )
 4469              		.loc 1 1258 10
 4470 0030 488B45E0 		movq	-32(%rbp), %rax
 4471 0034 8B10     		movl	(%rax), %edx
 4472              		.loc 1 1258 17
 4473 0036 488B45D8 		movq	-40(%rbp), %rax
 4474 003a 8B00     		movl	(%rax), %eax
 4475              		.loc 1 1258 14
 4476 003c 0FAFC2   		imull	%edx, %eax
 4477              		.loc 1 1258 7
 4478 003f 85C0     		testl	%eax, %eax
 4479 0041 7E71     		jle	.L354
1259:/home/xingli/share/1205tiny/network/dtls/mbedtls/mbedtls-2.16.2/library/bignum.c ****     {
1260:/home/xingli/share/1205tiny/network/dtls/mbedtls/mbedtls-2.16.2/library/bignum.c ****         if( mbedtls_mpi_cmp_abs( A, B ) >= 0 )
 4480              		.loc 1 1260 13
 4481 0043 488B55D8 		movq	-40(%rbp), %rdx
 4482 0047 488B45E0 		movq	-32(%rbp), %rax
 4483 004b 4889D6   		movq	%rdx, %rsi
 4484 004e 4889C7   		movq	%rax, %rdi
 4485 0051 E8000000 		call	mbedtls_mpi_cmp_abs
 4485      00
 4486              		.loc 1 1260 11
 4487 0056 85C0     		testl	%eax, %eax
 4488 0058 782B     		js	.L355
GAS LISTING /tmp/ccFaOvob.s 			page 112


1261:/home/xingli/share/1205tiny/network/dtls/mbedtls/mbedtls-2.16.2/library/bignum.c ****         {
1262:/home/xingli/share/1205tiny/network/dtls/mbedtls/mbedtls-2.16.2/library/bignum.c ****             MBEDTLS_MPI_CHK( mbedtls_mpi_sub_abs( X, A, B ) );
 4489              		.loc 1 1262 13
 4490 005a 488B55D8 		movq	-40(%rbp), %rdx
 4491 005e 488B4DE0 		movq	-32(%rbp), %rcx
 4492 0062 488B45E8 		movq	-24(%rbp), %rax
 4493 0066 4889CE   		movq	%rcx, %rsi
 4494 0069 4889C7   		movq	%rax, %rdi
 4495 006c E8000000 		call	mbedtls_mpi_sub_abs
 4495      00
 4496 0071 8945F0   		movl	%eax, -16(%rbp)
 4497 0074 837DF000 		cmpl	$0, -16(%rbp)
 4498 0078 7565     		jne	.L362
1263:/home/xingli/share/1205tiny/network/dtls/mbedtls/mbedtls-2.16.2/library/bignum.c ****             X->s =  s;
 4499              		.loc 1 1263 18
 4500 007a 488B45E8 		movq	-24(%rbp), %rax
 4501 007e 8B55F4   		movl	-12(%rbp), %edx
 4502 0081 8910     		movl	%edx, (%rax)
 4503 0083 EB61     		jmp	.L357
 4504              	.L355:
1264:/home/xingli/share/1205tiny/network/dtls/mbedtls/mbedtls-2.16.2/library/bignum.c ****         }
1265:/home/xingli/share/1205tiny/network/dtls/mbedtls/mbedtls-2.16.2/library/bignum.c ****         else
1266:/home/xingli/share/1205tiny/network/dtls/mbedtls/mbedtls-2.16.2/library/bignum.c ****         {
1267:/home/xingli/share/1205tiny/network/dtls/mbedtls/mbedtls-2.16.2/library/bignum.c ****             MBEDTLS_MPI_CHK( mbedtls_mpi_sub_abs( X, B, A ) );
 4505              		.loc 1 1267 13
 4506 0085 488B55E0 		movq	-32(%rbp), %rdx
 4507 0089 488B4DD8 		movq	-40(%rbp), %rcx
 4508 008d 488B45E8 		movq	-24(%rbp), %rax
 4509 0091 4889CE   		movq	%rcx, %rsi
 4510 0094 4889C7   		movq	%rax, %rdi
 4511 0097 E8000000 		call	mbedtls_mpi_sub_abs
 4511      00
 4512 009c 8945F0   		movl	%eax, -16(%rbp)
 4513 009f 837DF000 		cmpl	$0, -16(%rbp)
 4514 00a3 753D     		jne	.L363
1268:/home/xingli/share/1205tiny/network/dtls/mbedtls/mbedtls-2.16.2/library/bignum.c ****             X->s = -s;
 4515              		.loc 1 1268 20
 4516 00a5 8B45F4   		movl	-12(%rbp), %eax
 4517 00a8 F7D8     		negl	%eax
 4518 00aa 89C2     		movl	%eax, %edx
 4519              		.loc 1 1268 18
 4520 00ac 488B45E8 		movq	-24(%rbp), %rax
 4521 00b0 8910     		movl	%edx, (%rax)
 4522 00b2 EB32     		jmp	.L357
 4523              	.L354:
1269:/home/xingli/share/1205tiny/network/dtls/mbedtls/mbedtls-2.16.2/library/bignum.c ****         }
1270:/home/xingli/share/1205tiny/network/dtls/mbedtls/mbedtls-2.16.2/library/bignum.c ****     }
1271:/home/xingli/share/1205tiny/network/dtls/mbedtls/mbedtls-2.16.2/library/bignum.c ****     else
1272:/home/xingli/share/1205tiny/network/dtls/mbedtls/mbedtls-2.16.2/library/bignum.c ****     {
1273:/home/xingli/share/1205tiny/network/dtls/mbedtls/mbedtls-2.16.2/library/bignum.c ****         MBEDTLS_MPI_CHK( mbedtls_mpi_add_abs( X, A, B ) );
 4524              		.loc 1 1273 9
 4525 00b4 488B55D8 		movq	-40(%rbp), %rdx
 4526 00b8 488B4DE0 		movq	-32(%rbp), %rcx
 4527 00bc 488B45E8 		movq	-24(%rbp), %rax
 4528 00c0 4889CE   		movq	%rcx, %rsi
 4529 00c3 4889C7   		movq	%rax, %rdi
 4530 00c6 E8000000 		call	mbedtls_mpi_add_abs
GAS LISTING /tmp/ccFaOvob.s 			page 113


 4530      00
 4531 00cb 8945F0   		movl	%eax, -16(%rbp)
 4532 00ce 837DF000 		cmpl	$0, -16(%rbp)
 4533 00d2 7511     		jne	.L364
1274:/home/xingli/share/1205tiny/network/dtls/mbedtls/mbedtls-2.16.2/library/bignum.c ****         X->s = s;
 4534              		.loc 1 1274 14
 4535 00d4 488B45E8 		movq	-24(%rbp), %rax
 4536 00d8 8B55F4   		movl	-12(%rbp), %edx
 4537 00db 8910     		movl	%edx, (%rax)
 4538 00dd EB07     		jmp	.L357
 4539              	.L362:
1262:/home/xingli/share/1205tiny/network/dtls/mbedtls/mbedtls-2.16.2/library/bignum.c ****             X->s =  s;
 4540              		.loc 1 1262 13
 4541 00df 90       		nop
 4542 00e0 EB04     		jmp	.L357
 4543              	.L363:
1267:/home/xingli/share/1205tiny/network/dtls/mbedtls/mbedtls-2.16.2/library/bignum.c ****             X->s = -s;
 4544              		.loc 1 1267 13
 4545 00e2 90       		nop
 4546 00e3 EB01     		jmp	.L357
 4547              	.L364:
1273:/home/xingli/share/1205tiny/network/dtls/mbedtls/mbedtls-2.16.2/library/bignum.c ****         X->s = s;
 4548              		.loc 1 1273 9
 4549 00e5 90       		nop
 4550              	.L357:
1275:/home/xingli/share/1205tiny/network/dtls/mbedtls/mbedtls-2.16.2/library/bignum.c ****     }
1276:/home/xingli/share/1205tiny/network/dtls/mbedtls/mbedtls-2.16.2/library/bignum.c **** 
1277:/home/xingli/share/1205tiny/network/dtls/mbedtls/mbedtls-2.16.2/library/bignum.c **** cleanup:
1278:/home/xingli/share/1205tiny/network/dtls/mbedtls/mbedtls-2.16.2/library/bignum.c **** 
1279:/home/xingli/share/1205tiny/network/dtls/mbedtls/mbedtls-2.16.2/library/bignum.c ****     return( ret );
 4551              		.loc 1 1279 11
 4552 00e6 8B45F0   		movl	-16(%rbp), %eax
1280:/home/xingli/share/1205tiny/network/dtls/mbedtls/mbedtls-2.16.2/library/bignum.c **** }
 4553              		.loc 1 1280 1
 4554 00e9 488B75F8 		movq	-8(%rbp), %rsi
 4555 00ed 64483334 		xorq	%fs:40, %rsi
 4555      25280000 
 4555      00
 4556 00f6 7405     		je	.L361
 4557 00f8 E8000000 		call	__stack_chk_fail@PLT
 4557      00
 4558              	.L361:
 4559 00fd C9       		leave
 4560              	.LCFI104:
 4561              		.cfi_def_cfa 7, 8
 4562 00fe C3       		ret
 4563              		.cfi_endproc
 4564              	.LFE40:
 4566              		.section	.text.mbedtls_mpi_add_int,"ax",@progbits
 4567              		.globl	mbedtls_mpi_add_int
 4569              	mbedtls_mpi_add_int:
 4570              	.LFB41:
1281:/home/xingli/share/1205tiny/network/dtls/mbedtls/mbedtls-2.16.2/library/bignum.c **** 
1282:/home/xingli/share/1205tiny/network/dtls/mbedtls/mbedtls-2.16.2/library/bignum.c **** /*
1283:/home/xingli/share/1205tiny/network/dtls/mbedtls/mbedtls-2.16.2/library/bignum.c ****  * Signed addition: X = A + b
1284:/home/xingli/share/1205tiny/network/dtls/mbedtls/mbedtls-2.16.2/library/bignum.c ****  */
1285:/home/xingli/share/1205tiny/network/dtls/mbedtls/mbedtls-2.16.2/library/bignum.c **** int mbedtls_mpi_add_int( mbedtls_mpi *X, const mbedtls_mpi *A, mbedtls_mpi_sint b )
GAS LISTING /tmp/ccFaOvob.s 			page 114


1286:/home/xingli/share/1205tiny/network/dtls/mbedtls/mbedtls-2.16.2/library/bignum.c **** {
 4571              		.loc 1 1286 1
 4572              		.cfi_startproc
 4573 0000 F30F1EFA 		endbr64
 4574 0004 55       		pushq	%rbp
 4575              	.LCFI105:
 4576              		.cfi_def_cfa_offset 16
 4577              		.cfi_offset 6, -16
 4578 0005 4889E5   		movq	%rsp, %rbp
 4579              	.LCFI106:
 4580              		.cfi_def_cfa_register 6
 4581 0008 4883EC50 		subq	$80, %rsp
 4582 000c 48897DC8 		movq	%rdi, -56(%rbp)
 4583 0010 488975C0 		movq	%rsi, -64(%rbp)
 4584 0014 488955B8 		movq	%rdx, -72(%rbp)
 4585              		.loc 1 1286 1
 4586 0018 64488B04 		movq	%fs:40, %rax
 4586      25280000 
 4586      00
 4587 0021 488945F8 		movq	%rax, -8(%rbp)
 4588 0025 31C0     		xorl	%eax, %eax
1287:/home/xingli/share/1205tiny/network/dtls/mbedtls/mbedtls-2.16.2/library/bignum.c ****     mbedtls_mpi _B;
1288:/home/xingli/share/1205tiny/network/dtls/mbedtls/mbedtls-2.16.2/library/bignum.c ****     mbedtls_mpi_uint p[1];
1289:/home/xingli/share/1205tiny/network/dtls/mbedtls/mbedtls-2.16.2/library/bignum.c ****     MPI_VALIDATE_RET( X != NULL );
1290:/home/xingli/share/1205tiny/network/dtls/mbedtls/mbedtls-2.16.2/library/bignum.c ****     MPI_VALIDATE_RET( A != NULL );
1291:/home/xingli/share/1205tiny/network/dtls/mbedtls/mbedtls-2.16.2/library/bignum.c **** 
1292:/home/xingli/share/1205tiny/network/dtls/mbedtls/mbedtls-2.16.2/library/bignum.c ****     p[0] = ( b < 0 ) ? -b : b;
 4589              		.loc 1 1292 27
 4590 0027 488B45B8 		movq	-72(%rbp), %rax
 4591 002b 4899     		cqto
 4592 002d 4889D0   		movq	%rdx, %rax
 4593 0030 483345B8 		xorq	-72(%rbp), %rax
 4594 0034 4829D0   		subq	%rdx, %rax
 4595              		.loc 1 1292 10
 4596 0037 488945F0 		movq	%rax, -16(%rbp)
1293:/home/xingli/share/1205tiny/network/dtls/mbedtls/mbedtls-2.16.2/library/bignum.c ****     _B.s = ( b < 0 ) ? -1 : 1;
 4597              		.loc 1 1293 27
 4598 003b 48837DB8 		cmpq	$0, -72(%rbp)
 4598      00
 4599 0040 7907     		jns	.L366
 4600              		.loc 1 1293 27 is_stmt 0 discriminator 1
 4601 0042 B8FFFFFF 		movl	$-1, %eax
 4601      FF
 4602 0047 EB05     		jmp	.L367
 4603              	.L366:
 4604              		.loc 1 1293 27 discriminator 2
 4605 0049 B8010000 		movl	$1, %eax
 4605      00
 4606              	.L367:
 4607              		.loc 1 1293 10 is_stmt 1 discriminator 4
 4608 004e 8945D0   		movl	%eax, -48(%rbp)
1294:/home/xingli/share/1205tiny/network/dtls/mbedtls/mbedtls-2.16.2/library/bignum.c ****     _B.n = 1;
 4609              		.loc 1 1294 10 discriminator 4
 4610 0051 48C745D8 		movq	$1, -40(%rbp)
 4610      01000000 
1295:/home/xingli/share/1205tiny/network/dtls/mbedtls/mbedtls-2.16.2/library/bignum.c ****     _B.p = p;
 4611              		.loc 1 1295 10 discriminator 4
GAS LISTING /tmp/ccFaOvob.s 			page 115


 4612 0059 488D45F0 		leaq	-16(%rbp), %rax
 4613 005d 488945E0 		movq	%rax, -32(%rbp)
1296:/home/xingli/share/1205tiny/network/dtls/mbedtls/mbedtls-2.16.2/library/bignum.c **** 
1297:/home/xingli/share/1205tiny/network/dtls/mbedtls/mbedtls-2.16.2/library/bignum.c ****     return( mbedtls_mpi_add_mpi( X, A, &_B ) );
 4614              		.loc 1 1297 13 discriminator 4
 4615 0061 488D55D0 		leaq	-48(%rbp), %rdx
 4616 0065 488B4DC0 		movq	-64(%rbp), %rcx
 4617 0069 488B45C8 		movq	-56(%rbp), %rax
 4618 006d 4889CE   		movq	%rcx, %rsi
 4619 0070 4889C7   		movq	%rax, %rdi
 4620 0073 E8000000 		call	mbedtls_mpi_add_mpi
 4620      00
1298:/home/xingli/share/1205tiny/network/dtls/mbedtls/mbedtls-2.16.2/library/bignum.c **** }
 4621              		.loc 1 1298 1 discriminator 4
 4622 0078 488B4DF8 		movq	-8(%rbp), %rcx
 4623 007c 6448330C 		xorq	%fs:40, %rcx
 4623      25280000 
 4623      00
 4624 0085 7405     		je	.L369
 4625              		.loc 1 1298 1 is_stmt 0
 4626 0087 E8000000 		call	__stack_chk_fail@PLT
 4626      00
 4627              	.L369:
 4628 008c C9       		leave
 4629              	.LCFI107:
 4630              		.cfi_def_cfa 7, 8
 4631 008d C3       		ret
 4632              		.cfi_endproc
 4633              	.LFE41:
 4635              		.section	.text.mbedtls_mpi_sub_int,"ax",@progbits
 4636              		.globl	mbedtls_mpi_sub_int
 4638              	mbedtls_mpi_sub_int:
 4639              	.LFB42:
1299:/home/xingli/share/1205tiny/network/dtls/mbedtls/mbedtls-2.16.2/library/bignum.c **** 
1300:/home/xingli/share/1205tiny/network/dtls/mbedtls/mbedtls-2.16.2/library/bignum.c **** /*
1301:/home/xingli/share/1205tiny/network/dtls/mbedtls/mbedtls-2.16.2/library/bignum.c ****  * Signed subtraction: X = A - b
1302:/home/xingli/share/1205tiny/network/dtls/mbedtls/mbedtls-2.16.2/library/bignum.c ****  */
1303:/home/xingli/share/1205tiny/network/dtls/mbedtls/mbedtls-2.16.2/library/bignum.c **** int mbedtls_mpi_sub_int( mbedtls_mpi *X, const mbedtls_mpi *A, mbedtls_mpi_sint b )
1304:/home/xingli/share/1205tiny/network/dtls/mbedtls/mbedtls-2.16.2/library/bignum.c **** {
 4640              		.loc 1 1304 1 is_stmt 1
 4641              		.cfi_startproc
 4642 0000 F30F1EFA 		endbr64
 4643 0004 55       		pushq	%rbp
 4644              	.LCFI108:
 4645              		.cfi_def_cfa_offset 16
 4646              		.cfi_offset 6, -16
 4647 0005 4889E5   		movq	%rsp, %rbp
 4648              	.LCFI109:
 4649              		.cfi_def_cfa_register 6
 4650 0008 4883EC50 		subq	$80, %rsp
 4651 000c 48897DC8 		movq	%rdi, -56(%rbp)
 4652 0010 488975C0 		movq	%rsi, -64(%rbp)
 4653 0014 488955B8 		movq	%rdx, -72(%rbp)
 4654              		.loc 1 1304 1
 4655 0018 64488B04 		movq	%fs:40, %rax
 4655      25280000 
 4655      00
GAS LISTING /tmp/ccFaOvob.s 			page 116


 4656 0021 488945F8 		movq	%rax, -8(%rbp)
 4657 0025 31C0     		xorl	%eax, %eax
1305:/home/xingli/share/1205tiny/network/dtls/mbedtls/mbedtls-2.16.2/library/bignum.c ****     mbedtls_mpi _B;
1306:/home/xingli/share/1205tiny/network/dtls/mbedtls/mbedtls-2.16.2/library/bignum.c ****     mbedtls_mpi_uint p[1];
1307:/home/xingli/share/1205tiny/network/dtls/mbedtls/mbedtls-2.16.2/library/bignum.c ****     MPI_VALIDATE_RET( X != NULL );
1308:/home/xingli/share/1205tiny/network/dtls/mbedtls/mbedtls-2.16.2/library/bignum.c ****     MPI_VALIDATE_RET( A != NULL );
1309:/home/xingli/share/1205tiny/network/dtls/mbedtls/mbedtls-2.16.2/library/bignum.c **** 
1310:/home/xingli/share/1205tiny/network/dtls/mbedtls/mbedtls-2.16.2/library/bignum.c ****     p[0] = ( b < 0 ) ? -b : b;
 4658              		.loc 1 1310 27
 4659 0027 488B45B8 		movq	-72(%rbp), %rax
 4660 002b 4899     		cqto
 4661 002d 4889D0   		movq	%rdx, %rax
 4662 0030 483345B8 		xorq	-72(%rbp), %rax
 4663 0034 4829D0   		subq	%rdx, %rax
 4664              		.loc 1 1310 10
 4665 0037 488945F0 		movq	%rax, -16(%rbp)
1311:/home/xingli/share/1205tiny/network/dtls/mbedtls/mbedtls-2.16.2/library/bignum.c ****     _B.s = ( b < 0 ) ? -1 : 1;
 4666              		.loc 1 1311 27
 4667 003b 48837DB8 		cmpq	$0, -72(%rbp)
 4667      00
 4668 0040 7907     		jns	.L371
 4669              		.loc 1 1311 27 is_stmt 0 discriminator 1
 4670 0042 B8FFFFFF 		movl	$-1, %eax
 4670      FF
 4671 0047 EB05     		jmp	.L372
 4672              	.L371:
 4673              		.loc 1 1311 27 discriminator 2
 4674 0049 B8010000 		movl	$1, %eax
 4674      00
 4675              	.L372:
 4676              		.loc 1 1311 10 is_stmt 1 discriminator 4
 4677 004e 8945D0   		movl	%eax, -48(%rbp)
1312:/home/xingli/share/1205tiny/network/dtls/mbedtls/mbedtls-2.16.2/library/bignum.c ****     _B.n = 1;
 4678              		.loc 1 1312 10 discriminator 4
 4679 0051 48C745D8 		movq	$1, -40(%rbp)
 4679      01000000 
1313:/home/xingli/share/1205tiny/network/dtls/mbedtls/mbedtls-2.16.2/library/bignum.c ****     _B.p = p;
 4680              		.loc 1 1313 10 discriminator 4
 4681 0059 488D45F0 		leaq	-16(%rbp), %rax
 4682 005d 488945E0 		movq	%rax, -32(%rbp)
1314:/home/xingli/share/1205tiny/network/dtls/mbedtls/mbedtls-2.16.2/library/bignum.c **** 
1315:/home/xingli/share/1205tiny/network/dtls/mbedtls/mbedtls-2.16.2/library/bignum.c ****     return( mbedtls_mpi_sub_mpi( X, A, &_B ) );
 4683              		.loc 1 1315 13 discriminator 4
 4684 0061 488D55D0 		leaq	-48(%rbp), %rdx
 4685 0065 488B4DC0 		movq	-64(%rbp), %rcx
 4686 0069 488B45C8 		movq	-56(%rbp), %rax
 4687 006d 4889CE   		movq	%rcx, %rsi
 4688 0070 4889C7   		movq	%rax, %rdi
 4689 0073 E8000000 		call	mbedtls_mpi_sub_mpi
 4689      00
1316:/home/xingli/share/1205tiny/network/dtls/mbedtls/mbedtls-2.16.2/library/bignum.c **** }
 4690              		.loc 1 1316 1 discriminator 4
 4691 0078 488B4DF8 		movq	-8(%rbp), %rcx
 4692 007c 6448330C 		xorq	%fs:40, %rcx
 4692      25280000 
 4692      00
 4693 0085 7405     		je	.L374
GAS LISTING /tmp/ccFaOvob.s 			page 117


 4694              		.loc 1 1316 1 is_stmt 0
 4695 0087 E8000000 		call	__stack_chk_fail@PLT
 4695      00
 4696              	.L374:
 4697 008c C9       		leave
 4698              	.LCFI110:
 4699              		.cfi_def_cfa 7, 8
 4700 008d C3       		ret
 4701              		.cfi_endproc
 4702              	.LFE42:
 4704              		.section	.text.mpi_mul_hlp,"ax",@progbits
 4706              	mpi_mul_hlp:
 4707              	.LFB43:
1317:/home/xingli/share/1205tiny/network/dtls/mbedtls/mbedtls-2.16.2/library/bignum.c **** 
1318:/home/xingli/share/1205tiny/network/dtls/mbedtls/mbedtls-2.16.2/library/bignum.c **** /*
1319:/home/xingli/share/1205tiny/network/dtls/mbedtls/mbedtls-2.16.2/library/bignum.c ****  * Helper for mbedtls_mpi multiplication
1320:/home/xingli/share/1205tiny/network/dtls/mbedtls/mbedtls-2.16.2/library/bignum.c ****  */
1321:/home/xingli/share/1205tiny/network/dtls/mbedtls/mbedtls-2.16.2/library/bignum.c **** static
1322:/home/xingli/share/1205tiny/network/dtls/mbedtls/mbedtls-2.16.2/library/bignum.c **** #if defined(__APPLE__) && defined(__arm__)
1323:/home/xingli/share/1205tiny/network/dtls/mbedtls/mbedtls-2.16.2/library/bignum.c **** /*
1324:/home/xingli/share/1205tiny/network/dtls/mbedtls/mbedtls-2.16.2/library/bignum.c ****  * Apple LLVM version 4.2 (clang-425.0.24) (based on LLVM 3.2svn)
1325:/home/xingli/share/1205tiny/network/dtls/mbedtls/mbedtls-2.16.2/library/bignum.c ****  * appears to need this to prevent bad ARM code generation at -O3.
1326:/home/xingli/share/1205tiny/network/dtls/mbedtls/mbedtls-2.16.2/library/bignum.c ****  */
1327:/home/xingli/share/1205tiny/network/dtls/mbedtls/mbedtls-2.16.2/library/bignum.c **** __attribute__ ((noinline))
1328:/home/xingli/share/1205tiny/network/dtls/mbedtls/mbedtls-2.16.2/library/bignum.c **** #endif
1329:/home/xingli/share/1205tiny/network/dtls/mbedtls/mbedtls-2.16.2/library/bignum.c **** void mpi_mul_hlp( size_t i, mbedtls_mpi_uint *s, mbedtls_mpi_uint *d, mbedtls_mpi_uint b )
1330:/home/xingli/share/1205tiny/network/dtls/mbedtls/mbedtls-2.16.2/library/bignum.c **** {
 4708              		.loc 1 1330 1 is_stmt 1
 4709              		.cfi_startproc
 4710 0000 F30F1EFA 		endbr64
 4711 0004 55       		pushq	%rbp
 4712              	.LCFI111:
 4713              		.cfi_def_cfa_offset 16
 4714              		.cfi_offset 6, -16
 4715 0005 4889E5   		movq	%rsp, %rbp
 4716              	.LCFI112:
 4717              		.cfi_def_cfa_register 6
 4718 0008 4157     		pushq	%r15
 4719 000a 4156     		pushq	%r14
 4720 000c 4155     		pushq	%r13
 4721 000e 4154     		pushq	%r12
 4722 0010 53       		pushq	%rbx
 4723 0011 4881EC88 		subq	$904, %rsp
 4723      030000
 4724              		.cfi_offset 15, -24
 4725              		.cfi_offset 14, -32
 4726              		.cfi_offset 13, -40
 4727              		.cfi_offset 12, -48
 4728              		.cfi_offset 3, -56
 4729 0018 4889BD48 		movq	%rdi, -184(%rbp)
 4729      FFFFFF
 4730 001f 4889B540 		movq	%rsi, -192(%rbp)
 4730      FFFFFF
 4731 0026 48899538 		movq	%rdx, -200(%rbp)
 4731      FFFFFF
 4732 002d 48898D30 		movq	%rcx, -208(%rbp)
 4732      FFFFFF
GAS LISTING /tmp/ccFaOvob.s 			page 118


 4733              		.loc 1 1330 1
 4734 0034 64488B04 		movq	%fs:40, %rax
 4734      25280000 
 4734      00
 4735 003d 488945C8 		movq	%rax, -56(%rbp)
 4736 0041 31C0     		xorl	%eax, %eax
1331:/home/xingli/share/1205tiny/network/dtls/mbedtls/mbedtls-2.16.2/library/bignum.c ****     mbedtls_mpi_uint c = 0, t = 0;
 4737              		.loc 1 1331 22
 4738 0043 48C78550 		movq	$0, -176(%rbp)
 4738      FFFFFF00 
 4738      000000
 4739              		.loc 1 1331 29
 4740 004e 48C78558 		movq	$0, -168(%rbp)
 4740      FFFFFF00 
 4740      000000
1332:/home/xingli/share/1205tiny/network/dtls/mbedtls/mbedtls-2.16.2/library/bignum.c **** 
1333:/home/xingli/share/1205tiny/network/dtls/mbedtls/mbedtls-2.16.2/library/bignum.c **** #if defined(MULADDC_HUIT)
1334:/home/xingli/share/1205tiny/network/dtls/mbedtls/mbedtls-2.16.2/library/bignum.c ****     for( ; i >= 8; i -= 8 )
1335:/home/xingli/share/1205tiny/network/dtls/mbedtls/mbedtls-2.16.2/library/bignum.c ****     {
1336:/home/xingli/share/1205tiny/network/dtls/mbedtls/mbedtls-2.16.2/library/bignum.c ****         MULADDC_INIT
1337:/home/xingli/share/1205tiny/network/dtls/mbedtls/mbedtls-2.16.2/library/bignum.c ****         MULADDC_HUIT
1338:/home/xingli/share/1205tiny/network/dtls/mbedtls/mbedtls-2.16.2/library/bignum.c ****         MULADDC_STOP
1339:/home/xingli/share/1205tiny/network/dtls/mbedtls/mbedtls-2.16.2/library/bignum.c ****     }
1340:/home/xingli/share/1205tiny/network/dtls/mbedtls/mbedtls-2.16.2/library/bignum.c **** 
1341:/home/xingli/share/1205tiny/network/dtls/mbedtls/mbedtls-2.16.2/library/bignum.c ****     for( ; i > 0; i-- )
1342:/home/xingli/share/1205tiny/network/dtls/mbedtls/mbedtls-2.16.2/library/bignum.c ****     {
1343:/home/xingli/share/1205tiny/network/dtls/mbedtls/mbedtls-2.16.2/library/bignum.c ****         MULADDC_INIT
1344:/home/xingli/share/1205tiny/network/dtls/mbedtls/mbedtls-2.16.2/library/bignum.c ****         MULADDC_CORE
1345:/home/xingli/share/1205tiny/network/dtls/mbedtls/mbedtls-2.16.2/library/bignum.c ****         MULADDC_STOP
1346:/home/xingli/share/1205tiny/network/dtls/mbedtls/mbedtls-2.16.2/library/bignum.c ****     }
1347:/home/xingli/share/1205tiny/network/dtls/mbedtls/mbedtls-2.16.2/library/bignum.c **** #else /* MULADDC_HUIT */
1348:/home/xingli/share/1205tiny/network/dtls/mbedtls/mbedtls-2.16.2/library/bignum.c ****     for( ; i >= 16; i -= 16 )
 4741              		.loc 1 1348 5
 4742 0059 E9741000 		jmp	.L376
 4742      00
 4743              	.L377:
 4744              	.LBB5:
1349:/home/xingli/share/1205tiny/network/dtls/mbedtls/mbedtls-2.16.2/library/bignum.c ****     {
1350:/home/xingli/share/1205tiny/network/dtls/mbedtls/mbedtls-2.16.2/library/bignum.c ****         MULADDC_INIT
1351:/home/xingli/share/1205tiny/network/dtls/mbedtls/mbedtls-2.16.2/library/bignum.c ****         MULADDC_CORE   MULADDC_CORE
 4745              		.loc 1 1351 9 discriminator 2
 4746 005e 488B9540 		movq	-192(%rbp), %rdx
 4746      FFFFFF
 4747 0065 488D4208 		leaq	8(%rdx), %rax
 4748 0069 48898540 		movq	%rax, -192(%rbp)
 4748      FFFFFF
 4749 0070 488B02   		movq	(%rdx), %rax
 4750 0073 48898540 		movq	%rax, -448(%rbp)
 4750      FEFFFF
 4751 007a 48C78548 		movq	$0, -440(%rbp)
 4751      FEFFFF00 
 4751      000000
 4752 0085 488B8530 		movq	-208(%rbp), %rax
 4752      FFFFFF
 4753 008c 48898520 		movq	%rax, -224(%rbp)
 4753      FFFFFF
 4754 0093 48C78528 		movq	$0, -216(%rbp)
GAS LISTING /tmp/ccFaOvob.s 			page 119


 4754      FFFFFF00 
 4754      000000
 4755 009e 488B9D40 		movq	-448(%rbp), %rbx
 4755      FEFFFF
 4756 00a5 488BB548 		movq	-440(%rbp), %rsi
 4756      FEFFFF
 4757 00ac 4889F2   		movq	%rsi, %rdx
 4758 00af 480FAF95 		imulq	-224(%rbp), %rdx
 4758      20FFFFFF 
 4759 00b7 488B8528 		movq	-216(%rbp), %rax
 4759      FFFFFF
 4760 00be 480FAFC3 		imulq	%rbx, %rax
 4761 00c2 488D0C02 		leaq	(%rdx,%rax), %rcx
 4762 00c6 4889D8   		movq	%rbx, %rax
 4763 00c9 48F7A520 		mulq	-224(%rbp)
 4763      FFFFFF
 4764 00d0 4801D1   		addq	%rdx, %rcx
 4765 00d3 4889CA   		movq	%rcx, %rdx
 4766 00d6 488945B0 		movq	%rax, -80(%rbp)
 4767 00da 488955B8 		movq	%rdx, -72(%rbp)
 4768 00de 488945B0 		movq	%rax, -80(%rbp)
 4769 00e2 488955B8 		movq	%rdx, -72(%rbp)
 4770 00e6 488B45B0 		movq	-80(%rbp), %rax
 4771 00ea 48894580 		movq	%rax, -128(%rbp)
 4772 00ee 488B45B0 		movq	-80(%rbp), %rax
 4773 00f2 488B55B8 		movq	-72(%rbp), %rdx
 4774 00f6 4889D0   		movq	%rdx, %rax
 4775 00f9 31D2     		xorl	%edx, %edx
 4776 00fb 48894588 		movq	%rax, -120(%rbp)
 4777 00ff 488B8550 		movq	-176(%rbp), %rax
 4777      FFFFFF
 4778 0106 48014580 		addq	%rax, -128(%rbp)
 4779 010a 488B4580 		movq	-128(%rbp), %rax
 4780 010e 483B8550 		cmpq	-176(%rbp), %rax
 4780      FFFFFF
 4781 0115 0F92C0   		setb	%al
 4782 0118 0FB6C0   		movzbl	%al, %eax
 4783 011b 48014588 		addq	%rax, -120(%rbp)
 4784 011f 488B8538 		movq	-200(%rbp), %rax
 4784      FFFFFF
 4785 0126 488B00   		movq	(%rax), %rax
 4786 0129 48014580 		addq	%rax, -128(%rbp)
 4787 012d 488B8538 		movq	-200(%rbp), %rax
 4787      FFFFFF
 4788 0134 488B00   		movq	(%rax), %rax
 4789 0137 48394580 		cmpq	%rax, -128(%rbp)
 4790 013b 0F92C0   		setb	%al
 4791 013e 0FB6C0   		movzbl	%al, %eax
 4792 0141 48014588 		addq	%rax, -120(%rbp)
 4793 0145 488B4588 		movq	-120(%rbp), %rax
 4794 0149 48898550 		movq	%rax, -176(%rbp)
 4794      FFFFFF
 4795 0150 488B9538 		movq	-200(%rbp), %rdx
 4795      FFFFFF
 4796 0157 488D4208 		leaq	8(%rdx), %rax
 4797 015b 48898538 		movq	%rax, -200(%rbp)
 4797      FFFFFF
GAS LISTING /tmp/ccFaOvob.s 			page 120


 4798 0162 488B4580 		movq	-128(%rbp), %rax
 4799 0166 488902   		movq	%rax, (%rdx)
 4800              		.loc 1 1351 24 discriminator 2
 4801 0169 488B9540 		movq	-192(%rbp), %rdx
 4801      FFFFFF
 4802 0170 488D4208 		leaq	8(%rdx), %rax
 4803 0174 48898540 		movq	%rax, -192(%rbp)
 4803      FFFFFF
 4804 017b 488B02   		movq	(%rdx), %rax
 4805 017e 48898530 		movq	%rax, -464(%rbp)
 4805      FEFFFF
 4806 0185 48C78538 		movq	$0, -456(%rbp)
 4806      FEFFFF00 
 4806      000000
 4807 0190 488B8530 		movq	-208(%rbp), %rax
 4807      FFFFFF
 4808 0197 48898510 		movq	%rax, -240(%rbp)
 4808      FFFFFF
 4809 019e 48C78518 		movq	$0, -232(%rbp)
 4809      FFFFFF00 
 4809      000000
 4810 01a9 488B9D30 		movq	-464(%rbp), %rbx
 4810      FEFFFF
 4811 01b0 488BB538 		movq	-456(%rbp), %rsi
 4811      FEFFFF
 4812 01b7 4889F2   		movq	%rsi, %rdx
 4813 01ba 480FAF95 		imulq	-240(%rbp), %rdx
 4813      10FFFFFF 
 4814 01c2 488B8518 		movq	-232(%rbp), %rax
 4814      FFFFFF
 4815 01c9 480FAFC3 		imulq	%rbx, %rax
 4816 01cd 488D0C02 		leaq	(%rdx,%rax), %rcx
 4817 01d1 4889D8   		movq	%rbx, %rax
 4818 01d4 48F7A510 		mulq	-240(%rbp)
 4818      FFFFFF
 4819 01db 4801D1   		addq	%rdx, %rcx
 4820 01de 4889CA   		movq	%rcx, %rdx
 4821 01e1 488945B0 		movq	%rax, -80(%rbp)
 4822 01e5 488955B8 		movq	%rdx, -72(%rbp)
 4823 01e9 488945B0 		movq	%rax, -80(%rbp)
 4824 01ed 488955B8 		movq	%rdx, -72(%rbp)
 4825 01f1 488B45B0 		movq	-80(%rbp), %rax
 4826 01f5 48894580 		movq	%rax, -128(%rbp)
 4827 01f9 488B45B0 		movq	-80(%rbp), %rax
 4828 01fd 488B55B8 		movq	-72(%rbp), %rdx
 4829 0201 4889D0   		movq	%rdx, %rax
 4830 0204 31D2     		xorl	%edx, %edx
 4831 0206 48894588 		movq	%rax, -120(%rbp)
 4832 020a 488B8550 		movq	-176(%rbp), %rax
 4832      FFFFFF
 4833 0211 48014580 		addq	%rax, -128(%rbp)
 4834 0215 488B4580 		movq	-128(%rbp), %rax
 4835 0219 483B8550 		cmpq	-176(%rbp), %rax
 4835      FFFFFF
 4836 0220 0F92C0   		setb	%al
 4837 0223 0FB6C0   		movzbl	%al, %eax
 4838 0226 48014588 		addq	%rax, -120(%rbp)
GAS LISTING /tmp/ccFaOvob.s 			page 121


 4839 022a 488B8538 		movq	-200(%rbp), %rax
 4839      FFFFFF
 4840 0231 488B00   		movq	(%rax), %rax
 4841 0234 48014580 		addq	%rax, -128(%rbp)
 4842 0238 488B8538 		movq	-200(%rbp), %rax
 4842      FFFFFF
 4843 023f 488B00   		movq	(%rax), %rax
 4844 0242 48394580 		cmpq	%rax, -128(%rbp)
 4845 0246 0F92C0   		setb	%al
 4846 0249 0FB6C0   		movzbl	%al, %eax
 4847 024c 48014588 		addq	%rax, -120(%rbp)
 4848 0250 488B4588 		movq	-120(%rbp), %rax
 4849 0254 48898550 		movq	%rax, -176(%rbp)
 4849      FFFFFF
 4850 025b 488B9538 		movq	-200(%rbp), %rdx
 4850      FFFFFF
 4851 0262 488D4208 		leaq	8(%rdx), %rax
 4852 0266 48898538 		movq	%rax, -200(%rbp)
 4852      FFFFFF
 4853 026d 488B4580 		movq	-128(%rbp), %rax
 4854 0271 488902   		movq	%rax, (%rdx)
1352:/home/xingli/share/1205tiny/network/dtls/mbedtls/mbedtls-2.16.2/library/bignum.c ****         MULADDC_CORE   MULADDC_CORE
 4855              		.loc 1 1352 9 discriminator 2
 4856 0274 488B9540 		movq	-192(%rbp), %rdx
 4856      FFFFFF
 4857 027b 488D4208 		leaq	8(%rdx), %rax
 4858 027f 48898540 		movq	%rax, -192(%rbp)
 4858      FFFFFF
 4859 0286 488B02   		movq	(%rdx), %rax
 4860 0289 48898520 		movq	%rax, -480(%rbp)
 4860      FEFFFF
 4861 0290 48C78528 		movq	$0, -472(%rbp)
 4861      FEFFFF00 
 4861      000000
 4862 029b 488B8530 		movq	-208(%rbp), %rax
 4862      FFFFFF
 4863 02a2 48898500 		movq	%rax, -256(%rbp)
 4863      FFFFFF
 4864 02a9 48C78508 		movq	$0, -248(%rbp)
 4864      FFFFFF00 
 4864      000000
 4865 02b4 488B9D20 		movq	-480(%rbp), %rbx
 4865      FEFFFF
 4866 02bb 488BB528 		movq	-472(%rbp), %rsi
 4866      FEFFFF
 4867 02c2 4889F2   		movq	%rsi, %rdx
 4868 02c5 480FAF95 		imulq	-256(%rbp), %rdx
 4868      00FFFFFF 
 4869 02cd 488B8508 		movq	-248(%rbp), %rax
 4869      FFFFFF
 4870 02d4 480FAFC3 		imulq	%rbx, %rax
 4871 02d8 488D0C02 		leaq	(%rdx,%rax), %rcx
 4872 02dc 4889D8   		movq	%rbx, %rax
 4873 02df 48F7A500 		mulq	-256(%rbp)
 4873      FFFFFF
 4874 02e6 4801D1   		addq	%rdx, %rcx
 4875 02e9 4889CA   		movq	%rcx, %rdx
GAS LISTING /tmp/ccFaOvob.s 			page 122


 4876 02ec 488945B0 		movq	%rax, -80(%rbp)
 4877 02f0 488955B8 		movq	%rdx, -72(%rbp)
 4878 02f4 488945B0 		movq	%rax, -80(%rbp)
 4879 02f8 488955B8 		movq	%rdx, -72(%rbp)
 4880 02fc 488B45B0 		movq	-80(%rbp), %rax
 4881 0300 48894580 		movq	%rax, -128(%rbp)
 4882 0304 488B45B0 		movq	-80(%rbp), %rax
 4883 0308 488B55B8 		movq	-72(%rbp), %rdx
 4884 030c 4889D0   		movq	%rdx, %rax
 4885 030f 31D2     		xorl	%edx, %edx
 4886 0311 48894588 		movq	%rax, -120(%rbp)
 4887 0315 488B8550 		movq	-176(%rbp), %rax
 4887      FFFFFF
 4888 031c 48014580 		addq	%rax, -128(%rbp)
 4889 0320 488B4580 		movq	-128(%rbp), %rax
 4890 0324 483B8550 		cmpq	-176(%rbp), %rax
 4890      FFFFFF
 4891 032b 0F92C0   		setb	%al
 4892 032e 0FB6C0   		movzbl	%al, %eax
 4893 0331 48014588 		addq	%rax, -120(%rbp)
 4894 0335 488B8538 		movq	-200(%rbp), %rax
 4894      FFFFFF
 4895 033c 488B00   		movq	(%rax), %rax
 4896 033f 48014580 		addq	%rax, -128(%rbp)
 4897 0343 488B8538 		movq	-200(%rbp), %rax
 4897      FFFFFF
 4898 034a 488B00   		movq	(%rax), %rax
 4899 034d 48394580 		cmpq	%rax, -128(%rbp)
 4900 0351 0F92C0   		setb	%al
 4901 0354 0FB6C0   		movzbl	%al, %eax
 4902 0357 48014588 		addq	%rax, -120(%rbp)
 4903 035b 488B4588 		movq	-120(%rbp), %rax
 4904 035f 48898550 		movq	%rax, -176(%rbp)
 4904      FFFFFF
 4905 0366 488B9538 		movq	-200(%rbp), %rdx
 4905      FFFFFF
 4906 036d 488D4208 		leaq	8(%rdx), %rax
 4907 0371 48898538 		movq	%rax, -200(%rbp)
 4907      FFFFFF
 4908 0378 488B4580 		movq	-128(%rbp), %rax
 4909 037c 488902   		movq	%rax, (%rdx)
 4910              		.loc 1 1352 24 discriminator 2
 4911 037f 488B9540 		movq	-192(%rbp), %rdx
 4911      FFFFFF
 4912 0386 488D4208 		leaq	8(%rdx), %rax
 4913 038a 48898540 		movq	%rax, -192(%rbp)
 4913      FFFFFF
 4914 0391 488B02   		movq	(%rdx), %rax
 4915 0394 48898510 		movq	%rax, -496(%rbp)
 4915      FEFFFF
 4916 039b 48C78518 		movq	$0, -488(%rbp)
 4916      FEFFFF00 
 4916      000000
 4917 03a6 488B8530 		movq	-208(%rbp), %rax
 4917      FFFFFF
 4918 03ad 488985F0 		movq	%rax, -272(%rbp)
 4918      FEFFFF
GAS LISTING /tmp/ccFaOvob.s 			page 123


 4919 03b4 48C785F8 		movq	$0, -264(%rbp)
 4919      FEFFFF00 
 4919      000000
 4920 03bf 488B9D10 		movq	-496(%rbp), %rbx
 4920      FEFFFF
 4921 03c6 488BB518 		movq	-488(%rbp), %rsi
 4921      FEFFFF
 4922 03cd 4889F2   		movq	%rsi, %rdx
 4923 03d0 480FAF95 		imulq	-272(%rbp), %rdx
 4923      F0FEFFFF 
 4924 03d8 488B85F8 		movq	-264(%rbp), %rax
 4924      FEFFFF
 4925 03df 480FAFC3 		imulq	%rbx, %rax
 4926 03e3 488D0C02 		leaq	(%rdx,%rax), %rcx
 4927 03e7 4889D8   		movq	%rbx, %rax
 4928 03ea 48F7A5F0 		mulq	-272(%rbp)
 4928      FEFFFF
 4929 03f1 4801D1   		addq	%rdx, %rcx
 4930 03f4 4889CA   		movq	%rcx, %rdx
 4931 03f7 488945B0 		movq	%rax, -80(%rbp)
 4932 03fb 488955B8 		movq	%rdx, -72(%rbp)
 4933 03ff 488945B0 		movq	%rax, -80(%rbp)
 4934 0403 488955B8 		movq	%rdx, -72(%rbp)
 4935 0407 488B45B0 		movq	-80(%rbp), %rax
 4936 040b 48894580 		movq	%rax, -128(%rbp)
 4937 040f 488B45B0 		movq	-80(%rbp), %rax
 4938 0413 488B55B8 		movq	-72(%rbp), %rdx
 4939 0417 4889D0   		movq	%rdx, %rax
 4940 041a 31D2     		xorl	%edx, %edx
 4941 041c 48894588 		movq	%rax, -120(%rbp)
 4942 0420 488B8550 		movq	-176(%rbp), %rax
 4942      FFFFFF
 4943 0427 48014580 		addq	%rax, -128(%rbp)
 4944 042b 488B4580 		movq	-128(%rbp), %rax
 4945 042f 483B8550 		cmpq	-176(%rbp), %rax
 4945      FFFFFF
 4946 0436 0F92C0   		setb	%al
 4947 0439 0FB6C0   		movzbl	%al, %eax
 4948 043c 48014588 		addq	%rax, -120(%rbp)
 4949 0440 488B8538 		movq	-200(%rbp), %rax
 4949      FFFFFF
 4950 0447 488B00   		movq	(%rax), %rax
 4951 044a 48014580 		addq	%rax, -128(%rbp)
 4952 044e 488B8538 		movq	-200(%rbp), %rax
 4952      FFFFFF
 4953 0455 488B00   		movq	(%rax), %rax
 4954 0458 48394580 		cmpq	%rax, -128(%rbp)
 4955 045c 0F92C0   		setb	%al
 4956 045f 0FB6C0   		movzbl	%al, %eax
 4957 0462 48014588 		addq	%rax, -120(%rbp)
 4958 0466 488B4588 		movq	-120(%rbp), %rax
 4959 046a 48898550 		movq	%rax, -176(%rbp)
 4959      FFFFFF
 4960 0471 488B9538 		movq	-200(%rbp), %rdx
 4960      FFFFFF
 4961 0478 488D4208 		leaq	8(%rdx), %rax
 4962 047c 48898538 		movq	%rax, -200(%rbp)
GAS LISTING /tmp/ccFaOvob.s 			page 124


 4962      FFFFFF
 4963 0483 488B4580 		movq	-128(%rbp), %rax
 4964 0487 488902   		movq	%rax, (%rdx)
1353:/home/xingli/share/1205tiny/network/dtls/mbedtls/mbedtls-2.16.2/library/bignum.c ****         MULADDC_CORE   MULADDC_CORE
 4965              		.loc 1 1353 9 discriminator 2
 4966 048a 488B9540 		movq	-192(%rbp), %rdx
 4966      FFFFFF
 4967 0491 488D4208 		leaq	8(%rdx), %rax
 4968 0495 48898540 		movq	%rax, -192(%rbp)
 4968      FFFFFF
 4969 049c 488B02   		movq	(%rdx), %rax
 4970 049f 48898500 		movq	%rax, -512(%rbp)
 4970      FEFFFF
 4971 04a6 48C78508 		movq	$0, -504(%rbp)
 4971      FEFFFF00 
 4971      000000
 4972 04b1 488B8530 		movq	-208(%rbp), %rax
 4972      FFFFFF
 4973 04b8 488985E0 		movq	%rax, -288(%rbp)
 4973      FEFFFF
 4974 04bf 48C785E8 		movq	$0, -280(%rbp)
 4974      FEFFFF00 
 4974      000000
 4975 04ca 488B9D00 		movq	-512(%rbp), %rbx
 4975      FEFFFF
 4976 04d1 488BB508 		movq	-504(%rbp), %rsi
 4976      FEFFFF
 4977 04d8 4889F2   		movq	%rsi, %rdx
 4978 04db 480FAF95 		imulq	-288(%rbp), %rdx
 4978      E0FEFFFF 
 4979 04e3 488B85E8 		movq	-280(%rbp), %rax
 4979      FEFFFF
 4980 04ea 480FAFC3 		imulq	%rbx, %rax
 4981 04ee 488D0C02 		leaq	(%rdx,%rax), %rcx
 4982 04f2 4889D8   		movq	%rbx, %rax
 4983 04f5 48F7A5E0 		mulq	-288(%rbp)
 4983      FEFFFF
 4984 04fc 4801D1   		addq	%rdx, %rcx
 4985 04ff 4889CA   		movq	%rcx, %rdx
 4986 0502 488945B0 		movq	%rax, -80(%rbp)
 4987 0506 488955B8 		movq	%rdx, -72(%rbp)
 4988 050a 488945B0 		movq	%rax, -80(%rbp)
 4989 050e 488955B8 		movq	%rdx, -72(%rbp)
 4990 0512 488B45B0 		movq	-80(%rbp), %rax
 4991 0516 48894580 		movq	%rax, -128(%rbp)
 4992 051a 488B45B0 		movq	-80(%rbp), %rax
 4993 051e 488B55B8 		movq	-72(%rbp), %rdx
 4994 0522 4889D0   		movq	%rdx, %rax
 4995 0525 31D2     		xorl	%edx, %edx
 4996 0527 48894588 		movq	%rax, -120(%rbp)
 4997 052b 488B8550 		movq	-176(%rbp), %rax
 4997      FFFFFF
 4998 0532 48014580 		addq	%rax, -128(%rbp)
 4999 0536 488B4580 		movq	-128(%rbp), %rax
 5000 053a 483B8550 		cmpq	-176(%rbp), %rax
 5000      FFFFFF
 5001 0541 0F92C0   		setb	%al
GAS LISTING /tmp/ccFaOvob.s 			page 125


 5002 0544 0FB6C0   		movzbl	%al, %eax
 5003 0547 48014588 		addq	%rax, -120(%rbp)
 5004 054b 488B8538 		movq	-200(%rbp), %rax
 5004      FFFFFF
 5005 0552 488B00   		movq	(%rax), %rax
 5006 0555 48014580 		addq	%rax, -128(%rbp)
 5007 0559 488B8538 		movq	-200(%rbp), %rax
 5007      FFFFFF
 5008 0560 488B00   		movq	(%rax), %rax
 5009 0563 48394580 		cmpq	%rax, -128(%rbp)
 5010 0567 0F92C0   		setb	%al
 5011 056a 0FB6C0   		movzbl	%al, %eax
 5012 056d 48014588 		addq	%rax, -120(%rbp)
 5013 0571 488B4588 		movq	-120(%rbp), %rax
 5014 0575 48898550 		movq	%rax, -176(%rbp)
 5014      FFFFFF
 5015 057c 488B9538 		movq	-200(%rbp), %rdx
 5015      FFFFFF
 5016 0583 488D4208 		leaq	8(%rdx), %rax
 5017 0587 48898538 		movq	%rax, -200(%rbp)
 5017      FFFFFF
 5018 058e 488B4580 		movq	-128(%rbp), %rax
 5019 0592 488902   		movq	%rax, (%rdx)
 5020              		.loc 1 1353 24 discriminator 2
 5021 0595 488B9540 		movq	-192(%rbp), %rdx
 5021      FFFFFF
 5022 059c 488D4208 		leaq	8(%rdx), %rax
 5023 05a0 48898540 		movq	%rax, -192(%rbp)
 5023      FFFFFF
 5024 05a7 488B02   		movq	(%rdx), %rax
 5025 05aa 488985F0 		movq	%rax, -528(%rbp)
 5025      FDFFFF
 5026 05b1 48C785F8 		movq	$0, -520(%rbp)
 5026      FDFFFF00 
 5026      000000
 5027 05bc 488B8530 		movq	-208(%rbp), %rax
 5027      FFFFFF
 5028 05c3 488985D0 		movq	%rax, -304(%rbp)
 5028      FEFFFF
 5029 05ca 48C785D8 		movq	$0, -296(%rbp)
 5029      FEFFFF00 
 5029      000000
 5030 05d5 488B9DF0 		movq	-528(%rbp), %rbx
 5030      FDFFFF
 5031 05dc 488BB5F8 		movq	-520(%rbp), %rsi
 5031      FDFFFF
 5032 05e3 4889F2   		movq	%rsi, %rdx
 5033 05e6 480FAF95 		imulq	-304(%rbp), %rdx
 5033      D0FEFFFF 
 5034 05ee 488B85D8 		movq	-296(%rbp), %rax
 5034      FEFFFF
 5035 05f5 480FAFC3 		imulq	%rbx, %rax
 5036 05f9 488D0C02 		leaq	(%rdx,%rax), %rcx
 5037 05fd 4889D8   		movq	%rbx, %rax
 5038 0600 48F7A5D0 		mulq	-304(%rbp)
 5038      FEFFFF
 5039 0607 4801D1   		addq	%rdx, %rcx
GAS LISTING /tmp/ccFaOvob.s 			page 126


 5040 060a 4889CA   		movq	%rcx, %rdx
 5041 060d 488945B0 		movq	%rax, -80(%rbp)
 5042 0611 488955B8 		movq	%rdx, -72(%rbp)
 5043 0615 488945B0 		movq	%rax, -80(%rbp)
 5044 0619 488955B8 		movq	%rdx, -72(%rbp)
 5045 061d 488B45B0 		movq	-80(%rbp), %rax
 5046 0621 48894580 		movq	%rax, -128(%rbp)
 5047 0625 488B45B0 		movq	-80(%rbp), %rax
 5048 0629 488B55B8 		movq	-72(%rbp), %rdx
 5049 062d 4889D0   		movq	%rdx, %rax
 5050 0630 31D2     		xorl	%edx, %edx
 5051 0632 48894588 		movq	%rax, -120(%rbp)
 5052 0636 488B8550 		movq	-176(%rbp), %rax
 5052      FFFFFF
 5053 063d 48014580 		addq	%rax, -128(%rbp)
 5054 0641 488B4580 		movq	-128(%rbp), %rax
 5055 0645 483B8550 		cmpq	-176(%rbp), %rax
 5055      FFFFFF
 5056 064c 0F92C0   		setb	%al
 5057 064f 0FB6C0   		movzbl	%al, %eax
 5058 0652 48014588 		addq	%rax, -120(%rbp)
 5059 0656 488B8538 		movq	-200(%rbp), %rax
 5059      FFFFFF
 5060 065d 488B00   		movq	(%rax), %rax
 5061 0660 48014580 		addq	%rax, -128(%rbp)
 5062 0664 488B8538 		movq	-200(%rbp), %rax
 5062      FFFFFF
 5063 066b 488B00   		movq	(%rax), %rax
 5064 066e 48394580 		cmpq	%rax, -128(%rbp)
 5065 0672 0F92C0   		setb	%al
 5066 0675 0FB6C0   		movzbl	%al, %eax
 5067 0678 48014588 		addq	%rax, -120(%rbp)
 5068 067c 488B4588 		movq	-120(%rbp), %rax
 5069 0680 48898550 		movq	%rax, -176(%rbp)
 5069      FFFFFF
 5070 0687 488B9538 		movq	-200(%rbp), %rdx
 5070      FFFFFF
 5071 068e 488D4208 		leaq	8(%rdx), %rax
 5072 0692 48898538 		movq	%rax, -200(%rbp)
 5072      FFFFFF
 5073 0699 488B4580 		movq	-128(%rbp), %rax
 5074 069d 488902   		movq	%rax, (%rdx)
1354:/home/xingli/share/1205tiny/network/dtls/mbedtls/mbedtls-2.16.2/library/bignum.c ****         MULADDC_CORE   MULADDC_CORE
 5075              		.loc 1 1354 9 discriminator 2
 5076 06a0 488B9540 		movq	-192(%rbp), %rdx
 5076      FFFFFF
 5077 06a7 488D4208 		leaq	8(%rdx), %rax
 5078 06ab 48898540 		movq	%rax, -192(%rbp)
 5078      FFFFFF
 5079 06b2 488B02   		movq	(%rdx), %rax
 5080 06b5 488985E0 		movq	%rax, -544(%rbp)
 5080      FDFFFF
 5081 06bc 48C785E8 		movq	$0, -536(%rbp)
 5081      FDFFFF00 
 5081      000000
 5082 06c7 488B8530 		movq	-208(%rbp), %rax
 5082      FFFFFF
GAS LISTING /tmp/ccFaOvob.s 			page 127


 5083 06ce 488985C0 		movq	%rax, -320(%rbp)
 5083      FEFFFF
 5084 06d5 48C785C8 		movq	$0, -312(%rbp)
 5084      FEFFFF00 
 5084      000000
 5085 06e0 488B9DE0 		movq	-544(%rbp), %rbx
 5085      FDFFFF
 5086 06e7 488BB5E8 		movq	-536(%rbp), %rsi
 5086      FDFFFF
 5087 06ee 4889F2   		movq	%rsi, %rdx
 5088 06f1 480FAF95 		imulq	-320(%rbp), %rdx
 5088      C0FEFFFF 
 5089 06f9 488B85C8 		movq	-312(%rbp), %rax
 5089      FEFFFF
 5090 0700 480FAFC3 		imulq	%rbx, %rax
 5091 0704 488D0C02 		leaq	(%rdx,%rax), %rcx
 5092 0708 4889D8   		movq	%rbx, %rax
 5093 070b 48F7A5C0 		mulq	-320(%rbp)
 5093      FEFFFF
 5094 0712 4801D1   		addq	%rdx, %rcx
 5095 0715 4889CA   		movq	%rcx, %rdx
 5096 0718 488945B0 		movq	%rax, -80(%rbp)
 5097 071c 488955B8 		movq	%rdx, -72(%rbp)
 5098 0720 488945B0 		movq	%rax, -80(%rbp)
 5099 0724 488955B8 		movq	%rdx, -72(%rbp)
 5100 0728 488B45B0 		movq	-80(%rbp), %rax
 5101 072c 48894580 		movq	%rax, -128(%rbp)
 5102 0730 488B45B0 		movq	-80(%rbp), %rax
 5103 0734 488B55B8 		movq	-72(%rbp), %rdx
 5104 0738 4889D0   		movq	%rdx, %rax
 5105 073b 31D2     		xorl	%edx, %edx
 5106 073d 48894588 		movq	%rax, -120(%rbp)
 5107 0741 488B8550 		movq	-176(%rbp), %rax
 5107      FFFFFF
 5108 0748 48014580 		addq	%rax, -128(%rbp)
 5109 074c 488B4580 		movq	-128(%rbp), %rax
 5110 0750 483B8550 		cmpq	-176(%rbp), %rax
 5110      FFFFFF
 5111 0757 0F92C0   		setb	%al
 5112 075a 0FB6C0   		movzbl	%al, %eax
 5113 075d 48014588 		addq	%rax, -120(%rbp)
 5114 0761 488B8538 		movq	-200(%rbp), %rax
 5114      FFFFFF
 5115 0768 488B00   		movq	(%rax), %rax
 5116 076b 48014580 		addq	%rax, -128(%rbp)
 5117 076f 488B8538 		movq	-200(%rbp), %rax
 5117      FFFFFF
 5118 0776 488B00   		movq	(%rax), %rax
 5119 0779 48394580 		cmpq	%rax, -128(%rbp)
 5120 077d 0F92C0   		setb	%al
 5121 0780 0FB6C0   		movzbl	%al, %eax
 5122 0783 48014588 		addq	%rax, -120(%rbp)
 5123 0787 488B4588 		movq	-120(%rbp), %rax
 5124 078b 48898550 		movq	%rax, -176(%rbp)
 5124      FFFFFF
 5125 0792 488B9538 		movq	-200(%rbp), %rdx
 5125      FFFFFF
GAS LISTING /tmp/ccFaOvob.s 			page 128


 5126 0799 488D4208 		leaq	8(%rdx), %rax
 5127 079d 48898538 		movq	%rax, -200(%rbp)
 5127      FFFFFF
 5128 07a4 488B4580 		movq	-128(%rbp), %rax
 5129 07a8 488902   		movq	%rax, (%rdx)
 5130              		.loc 1 1354 24 discriminator 2
 5131 07ab 488B9540 		movq	-192(%rbp), %rdx
 5131      FFFFFF
 5132 07b2 488D4208 		leaq	8(%rdx), %rax
 5133 07b6 48898540 		movq	%rax, -192(%rbp)
 5133      FFFFFF
 5134 07bd 488B02   		movq	(%rdx), %rax
 5135 07c0 488985D0 		movq	%rax, -560(%rbp)
 5135      FDFFFF
 5136 07c7 48C785D8 		movq	$0, -552(%rbp)
 5136      FDFFFF00 
 5136      000000
 5137 07d2 488B8530 		movq	-208(%rbp), %rax
 5137      FFFFFF
 5138 07d9 488985B0 		movq	%rax, -336(%rbp)
 5138      FEFFFF
 5139 07e0 48C785B8 		movq	$0, -328(%rbp)
 5139      FEFFFF00 
 5139      000000
 5140 07eb 488B9DD0 		movq	-560(%rbp), %rbx
 5140      FDFFFF
 5141 07f2 488BB5D8 		movq	-552(%rbp), %rsi
 5141      FDFFFF
 5142 07f9 4889F2   		movq	%rsi, %rdx
 5143 07fc 480FAF95 		imulq	-336(%rbp), %rdx
 5143      B0FEFFFF 
 5144 0804 488B85B8 		movq	-328(%rbp), %rax
 5144      FEFFFF
 5145 080b 480FAFC3 		imulq	%rbx, %rax
 5146 080f 488D0C02 		leaq	(%rdx,%rax), %rcx
 5147 0813 4889D8   		movq	%rbx, %rax
 5148 0816 48F7A5B0 		mulq	-336(%rbp)
 5148      FEFFFF
 5149 081d 4801D1   		addq	%rdx, %rcx
 5150 0820 4889CA   		movq	%rcx, %rdx
 5151 0823 488945B0 		movq	%rax, -80(%rbp)
 5152 0827 488955B8 		movq	%rdx, -72(%rbp)
 5153 082b 488945B0 		movq	%rax, -80(%rbp)
 5154 082f 488955B8 		movq	%rdx, -72(%rbp)
 5155 0833 488B45B0 		movq	-80(%rbp), %rax
 5156 0837 48894580 		movq	%rax, -128(%rbp)
 5157 083b 488B45B0 		movq	-80(%rbp), %rax
 5158 083f 488B55B8 		movq	-72(%rbp), %rdx
 5159 0843 4889D0   		movq	%rdx, %rax
 5160 0846 31D2     		xorl	%edx, %edx
 5161 0848 48894588 		movq	%rax, -120(%rbp)
 5162 084c 488B8550 		movq	-176(%rbp), %rax
 5162      FFFFFF
 5163 0853 48014580 		addq	%rax, -128(%rbp)
 5164 0857 488B4580 		movq	-128(%rbp), %rax
 5165 085b 483B8550 		cmpq	-176(%rbp), %rax
 5165      FFFFFF
GAS LISTING /tmp/ccFaOvob.s 			page 129


 5166 0862 0F92C0   		setb	%al
 5167 0865 0FB6C0   		movzbl	%al, %eax
 5168 0868 48014588 		addq	%rax, -120(%rbp)
 5169 086c 488B8538 		movq	-200(%rbp), %rax
 5169      FFFFFF
 5170 0873 488B00   		movq	(%rax), %rax
 5171 0876 48014580 		addq	%rax, -128(%rbp)
 5172 087a 488B8538 		movq	-200(%rbp), %rax
 5172      FFFFFF
 5173 0881 488B00   		movq	(%rax), %rax
 5174 0884 48394580 		cmpq	%rax, -128(%rbp)
 5175 0888 0F92C0   		setb	%al
 5176 088b 0FB6C0   		movzbl	%al, %eax
 5177 088e 48014588 		addq	%rax, -120(%rbp)
 5178 0892 488B4588 		movq	-120(%rbp), %rax
 5179 0896 48898550 		movq	%rax, -176(%rbp)
 5179      FFFFFF
 5180 089d 488B9538 		movq	-200(%rbp), %rdx
 5180      FFFFFF
 5181 08a4 488D4208 		leaq	8(%rdx), %rax
 5182 08a8 48898538 		movq	%rax, -200(%rbp)
 5182      FFFFFF
 5183 08af 488B4580 		movq	-128(%rbp), %rax
 5184 08b3 488902   		movq	%rax, (%rdx)
1355:/home/xingli/share/1205tiny/network/dtls/mbedtls/mbedtls-2.16.2/library/bignum.c **** 
1356:/home/xingli/share/1205tiny/network/dtls/mbedtls/mbedtls-2.16.2/library/bignum.c ****         MULADDC_CORE   MULADDC_CORE
 5185              		.loc 1 1356 9 discriminator 2
 5186 08b6 488B9540 		movq	-192(%rbp), %rdx
 5186      FFFFFF
 5187 08bd 488D4208 		leaq	8(%rdx), %rax
 5188 08c1 48898540 		movq	%rax, -192(%rbp)
 5188      FFFFFF
 5189 08c8 488B02   		movq	(%rdx), %rax
 5190 08cb 488985C0 		movq	%rax, -576(%rbp)
 5190      FDFFFF
 5191 08d2 48C785C8 		movq	$0, -568(%rbp)
 5191      FDFFFF00 
 5191      000000
 5192 08dd 488B8530 		movq	-208(%rbp), %rax
 5192      FFFFFF
 5193 08e4 488985A0 		movq	%rax, -352(%rbp)
 5193      FEFFFF
 5194 08eb 48C785A8 		movq	$0, -344(%rbp)
 5194      FEFFFF00 
 5194      000000
 5195 08f6 488B9DC0 		movq	-576(%rbp), %rbx
 5195      FDFFFF
 5196 08fd 488BB5C8 		movq	-568(%rbp), %rsi
 5196      FDFFFF
 5197 0904 4889F2   		movq	%rsi, %rdx
 5198 0907 480FAF95 		imulq	-352(%rbp), %rdx
 5198      A0FEFFFF 
 5199 090f 488B85A8 		movq	-344(%rbp), %rax
 5199      FEFFFF
 5200 0916 480FAFC3 		imulq	%rbx, %rax
 5201 091a 488D0C02 		leaq	(%rdx,%rax), %rcx
 5202 091e 4889D8   		movq	%rbx, %rax
GAS LISTING /tmp/ccFaOvob.s 			page 130


 5203 0921 48F7A5A0 		mulq	-352(%rbp)
 5203      FEFFFF
 5204 0928 4801D1   		addq	%rdx, %rcx
 5205 092b 4889CA   		movq	%rcx, %rdx
 5206 092e 488945B0 		movq	%rax, -80(%rbp)
 5207 0932 488955B8 		movq	%rdx, -72(%rbp)
 5208 0936 488945B0 		movq	%rax, -80(%rbp)
 5209 093a 488955B8 		movq	%rdx, -72(%rbp)
 5210 093e 488B45B0 		movq	-80(%rbp), %rax
 5211 0942 48894580 		movq	%rax, -128(%rbp)
 5212 0946 488B45B0 		movq	-80(%rbp), %rax
 5213 094a 488B55B8 		movq	-72(%rbp), %rdx
 5214 094e 4889D0   		movq	%rdx, %rax
 5215 0951 31D2     		xorl	%edx, %edx
 5216 0953 48894588 		movq	%rax, -120(%rbp)
 5217 0957 488B8550 		movq	-176(%rbp), %rax
 5217      FFFFFF
 5218 095e 48014580 		addq	%rax, -128(%rbp)
 5219 0962 488B4580 		movq	-128(%rbp), %rax
 5220 0966 483B8550 		cmpq	-176(%rbp), %rax
 5220      FFFFFF
 5221 096d 0F92C0   		setb	%al
 5222 0970 0FB6C0   		movzbl	%al, %eax
 5223 0973 48014588 		addq	%rax, -120(%rbp)
 5224 0977 488B8538 		movq	-200(%rbp), %rax
 5224      FFFFFF
 5225 097e 488B00   		movq	(%rax), %rax
 5226 0981 48014580 		addq	%rax, -128(%rbp)
 5227 0985 488B8538 		movq	-200(%rbp), %rax
 5227      FFFFFF
 5228 098c 488B00   		movq	(%rax), %rax
 5229 098f 48394580 		cmpq	%rax, -128(%rbp)
 5230 0993 0F92C0   		setb	%al
 5231 0996 0FB6C0   		movzbl	%al, %eax
 5232 0999 48014588 		addq	%rax, -120(%rbp)
 5233 099d 488B4588 		movq	-120(%rbp), %rax
 5234 09a1 48898550 		movq	%rax, -176(%rbp)
 5234      FFFFFF
 5235 09a8 488B9538 		movq	-200(%rbp), %rdx
 5235      FFFFFF
 5236 09af 488D4208 		leaq	8(%rdx), %rax
 5237 09b3 48898538 		movq	%rax, -200(%rbp)
 5237      FFFFFF
 5238 09ba 488B4580 		movq	-128(%rbp), %rax
 5239 09be 488902   		movq	%rax, (%rdx)
 5240              		.loc 1 1356 24 discriminator 2
 5241 09c1 488B9540 		movq	-192(%rbp), %rdx
 5241      FFFFFF
 5242 09c8 488D4208 		leaq	8(%rdx), %rax
 5243 09cc 48898540 		movq	%rax, -192(%rbp)
 5243      FFFFFF
 5244 09d3 488B02   		movq	(%rdx), %rax
 5245 09d6 488985B0 		movq	%rax, -592(%rbp)
 5245      FDFFFF
 5246 09dd 48C785B8 		movq	$0, -584(%rbp)
 5246      FDFFFF00 
 5246      000000
GAS LISTING /tmp/ccFaOvob.s 			page 131


 5247 09e8 488B8530 		movq	-208(%rbp), %rax
 5247      FFFFFF
 5248 09ef 48898590 		movq	%rax, -368(%rbp)
 5248      FEFFFF
 5249 09f6 48C78598 		movq	$0, -360(%rbp)
 5249      FEFFFF00 
 5249      000000
 5250 0a01 488B9DB0 		movq	-592(%rbp), %rbx
 5250      FDFFFF
 5251 0a08 488BB5B8 		movq	-584(%rbp), %rsi
 5251      FDFFFF
 5252 0a0f 4889F2   		movq	%rsi, %rdx
 5253 0a12 480FAF95 		imulq	-368(%rbp), %rdx
 5253      90FEFFFF 
 5254 0a1a 488B8598 		movq	-360(%rbp), %rax
 5254      FEFFFF
 5255 0a21 480FAFC3 		imulq	%rbx, %rax
 5256 0a25 488D0C02 		leaq	(%rdx,%rax), %rcx
 5257 0a29 4889D8   		movq	%rbx, %rax
 5258 0a2c 48F7A590 		mulq	-368(%rbp)
 5258      FEFFFF
 5259 0a33 4801D1   		addq	%rdx, %rcx
 5260 0a36 4889CA   		movq	%rcx, %rdx
 5261 0a39 488945B0 		movq	%rax, -80(%rbp)
 5262 0a3d 488955B8 		movq	%rdx, -72(%rbp)
 5263 0a41 488945B0 		movq	%rax, -80(%rbp)
 5264 0a45 488955B8 		movq	%rdx, -72(%rbp)
 5265 0a49 488B45B0 		movq	-80(%rbp), %rax
 5266 0a4d 48894580 		movq	%rax, -128(%rbp)
 5267 0a51 488B45B0 		movq	-80(%rbp), %rax
 5268 0a55 488B55B8 		movq	-72(%rbp), %rdx
 5269 0a59 4889D0   		movq	%rdx, %rax
 5270 0a5c 31D2     		xorl	%edx, %edx
 5271 0a5e 48894588 		movq	%rax, -120(%rbp)
 5272 0a62 488B8550 		movq	-176(%rbp), %rax
 5272      FFFFFF
 5273 0a69 48014580 		addq	%rax, -128(%rbp)
 5274 0a6d 488B4580 		movq	-128(%rbp), %rax
 5275 0a71 483B8550 		cmpq	-176(%rbp), %rax
 5275      FFFFFF
 5276 0a78 0F92C0   		setb	%al
 5277 0a7b 0FB6C0   		movzbl	%al, %eax
 5278 0a7e 48014588 		addq	%rax, -120(%rbp)
 5279 0a82 488B8538 		movq	-200(%rbp), %rax
 5279      FFFFFF
 5280 0a89 488B00   		movq	(%rax), %rax
 5281 0a8c 48014580 		addq	%rax, -128(%rbp)
 5282 0a90 488B8538 		movq	-200(%rbp), %rax
 5282      FFFFFF
 5283 0a97 488B00   		movq	(%rax), %rax
 5284 0a9a 48394580 		cmpq	%rax, -128(%rbp)
 5285 0a9e 0F92C0   		setb	%al
 5286 0aa1 0FB6C0   		movzbl	%al, %eax
 5287 0aa4 48014588 		addq	%rax, -120(%rbp)
 5288 0aa8 488B4588 		movq	-120(%rbp), %rax
 5289 0aac 48898550 		movq	%rax, -176(%rbp)
 5289      FFFFFF
GAS LISTING /tmp/ccFaOvob.s 			page 132


 5290 0ab3 488B9538 		movq	-200(%rbp), %rdx
 5290      FFFFFF
 5291 0aba 488D4208 		leaq	8(%rdx), %rax
 5292 0abe 48898538 		movq	%rax, -200(%rbp)
 5292      FFFFFF
 5293 0ac5 488B4580 		movq	-128(%rbp), %rax
 5294 0ac9 488902   		movq	%rax, (%rdx)
1357:/home/xingli/share/1205tiny/network/dtls/mbedtls/mbedtls-2.16.2/library/bignum.c ****         MULADDC_CORE   MULADDC_CORE
 5295              		.loc 1 1357 9 discriminator 2
 5296 0acc 488B9540 		movq	-192(%rbp), %rdx
 5296      FFFFFF
 5297 0ad3 488D4208 		leaq	8(%rdx), %rax
 5298 0ad7 48898540 		movq	%rax, -192(%rbp)
 5298      FFFFFF
 5299 0ade 488B02   		movq	(%rdx), %rax
 5300 0ae1 488985A0 		movq	%rax, -608(%rbp)
 5300      FDFFFF
 5301 0ae8 48C785A8 		movq	$0, -600(%rbp)
 5301      FDFFFF00 
 5301      000000
 5302 0af3 488B8530 		movq	-208(%rbp), %rax
 5302      FFFFFF
 5303 0afa 48898580 		movq	%rax, -384(%rbp)
 5303      FEFFFF
 5304 0b01 48C78588 		movq	$0, -376(%rbp)
 5304      FEFFFF00 
 5304      000000
 5305 0b0c 488B9DA0 		movq	-608(%rbp), %rbx
 5305      FDFFFF
 5306 0b13 488BB5A8 		movq	-600(%rbp), %rsi
 5306      FDFFFF
 5307 0b1a 4889F2   		movq	%rsi, %rdx
 5308 0b1d 480FAF95 		imulq	-384(%rbp), %rdx
 5308      80FEFFFF 
 5309 0b25 488B8588 		movq	-376(%rbp), %rax
 5309      FEFFFF
 5310 0b2c 480FAFC3 		imulq	%rbx, %rax
 5311 0b30 488D0C02 		leaq	(%rdx,%rax), %rcx
 5312 0b34 4889D8   		movq	%rbx, %rax
 5313 0b37 48F7A580 		mulq	-384(%rbp)
 5313      FEFFFF
 5314 0b3e 4801D1   		addq	%rdx, %rcx
 5315 0b41 4889CA   		movq	%rcx, %rdx
 5316 0b44 488945B0 		movq	%rax, -80(%rbp)
 5317 0b48 488955B8 		movq	%rdx, -72(%rbp)
 5318 0b4c 488945B0 		movq	%rax, -80(%rbp)
 5319 0b50 488955B8 		movq	%rdx, -72(%rbp)
 5320 0b54 488B45B0 		movq	-80(%rbp), %rax
 5321 0b58 48894580 		movq	%rax, -128(%rbp)
 5322 0b5c 488B45B0 		movq	-80(%rbp), %rax
 5323 0b60 488B55B8 		movq	-72(%rbp), %rdx
 5324 0b64 4889D0   		movq	%rdx, %rax
 5325 0b67 31D2     		xorl	%edx, %edx
 5326 0b69 48894588 		movq	%rax, -120(%rbp)
 5327 0b6d 488B8550 		movq	-176(%rbp), %rax
 5327      FFFFFF
 5328 0b74 48014580 		addq	%rax, -128(%rbp)
GAS LISTING /tmp/ccFaOvob.s 			page 133


 5329 0b78 488B4580 		movq	-128(%rbp), %rax
 5330 0b7c 483B8550 		cmpq	-176(%rbp), %rax
 5330      FFFFFF
 5331 0b83 0F92C0   		setb	%al
 5332 0b86 0FB6C0   		movzbl	%al, %eax
 5333 0b89 48014588 		addq	%rax, -120(%rbp)
 5334 0b8d 488B8538 		movq	-200(%rbp), %rax
 5334      FFFFFF
 5335 0b94 488B00   		movq	(%rax), %rax
 5336 0b97 48014580 		addq	%rax, -128(%rbp)
 5337 0b9b 488B8538 		movq	-200(%rbp), %rax
 5337      FFFFFF
 5338 0ba2 488B00   		movq	(%rax), %rax
 5339 0ba5 48394580 		cmpq	%rax, -128(%rbp)
 5340 0ba9 0F92C0   		setb	%al
 5341 0bac 0FB6C0   		movzbl	%al, %eax
 5342 0baf 48014588 		addq	%rax, -120(%rbp)
 5343 0bb3 488B4588 		movq	-120(%rbp), %rax
 5344 0bb7 48898550 		movq	%rax, -176(%rbp)
 5344      FFFFFF
 5345 0bbe 488B9538 		movq	-200(%rbp), %rdx
 5345      FFFFFF
 5346 0bc5 488D4208 		leaq	8(%rdx), %rax
 5347 0bc9 48898538 		movq	%rax, -200(%rbp)
 5347      FFFFFF
 5348 0bd0 488B4580 		movq	-128(%rbp), %rax
 5349 0bd4 488902   		movq	%rax, (%rdx)
 5350              		.loc 1 1357 24 discriminator 2
 5351 0bd7 488B9540 		movq	-192(%rbp), %rdx
 5351      FFFFFF
 5352 0bde 488D4208 		leaq	8(%rdx), %rax
 5353 0be2 48898540 		movq	%rax, -192(%rbp)
 5353      FFFFFF
 5354 0be9 488B02   		movq	(%rdx), %rax
 5355 0bec 48898590 		movq	%rax, -624(%rbp)
 5355      FDFFFF
 5356 0bf3 48C78598 		movq	$0, -616(%rbp)
 5356      FDFFFF00 
 5356      000000
 5357 0bfe 488B8530 		movq	-208(%rbp), %rax
 5357      FFFFFF
 5358 0c05 48898570 		movq	%rax, -400(%rbp)
 5358      FEFFFF
 5359 0c0c 48C78578 		movq	$0, -392(%rbp)
 5359      FEFFFF00 
 5359      000000
 5360 0c17 488B9D90 		movq	-624(%rbp), %rbx
 5360      FDFFFF
 5361 0c1e 488BB598 		movq	-616(%rbp), %rsi
 5361      FDFFFF
 5362 0c25 4889F2   		movq	%rsi, %rdx
 5363 0c28 480FAF95 		imulq	-400(%rbp), %rdx
 5363      70FEFFFF 
 5364 0c30 488B8578 		movq	-392(%rbp), %rax
 5364      FEFFFF
 5365 0c37 480FAFC3 		imulq	%rbx, %rax
 5366 0c3b 488D0C02 		leaq	(%rdx,%rax), %rcx
GAS LISTING /tmp/ccFaOvob.s 			page 134


 5367 0c3f 4889D8   		movq	%rbx, %rax
 5368 0c42 48F7A570 		mulq	-400(%rbp)
 5368      FEFFFF
 5369 0c49 4801D1   		addq	%rdx, %rcx
 5370 0c4c 4889CA   		movq	%rcx, %rdx
 5371 0c4f 488945B0 		movq	%rax, -80(%rbp)
 5372 0c53 488955B8 		movq	%rdx, -72(%rbp)
 5373 0c57 488945B0 		movq	%rax, -80(%rbp)
 5374 0c5b 488955B8 		movq	%rdx, -72(%rbp)
 5375 0c5f 488B45B0 		movq	-80(%rbp), %rax
 5376 0c63 48894580 		movq	%rax, -128(%rbp)
 5377 0c67 488B45B0 		movq	-80(%rbp), %rax
 5378 0c6b 488B55B8 		movq	-72(%rbp), %rdx
 5379 0c6f 4889D0   		movq	%rdx, %rax
 5380 0c72 31D2     		xorl	%edx, %edx
 5381 0c74 48894588 		movq	%rax, -120(%rbp)
 5382 0c78 488B8550 		movq	-176(%rbp), %rax
 5382      FFFFFF
 5383 0c7f 48014580 		addq	%rax, -128(%rbp)
 5384 0c83 488B4580 		movq	-128(%rbp), %rax
 5385 0c87 483B8550 		cmpq	-176(%rbp), %rax
 5385      FFFFFF
 5386 0c8e 0F92C0   		setb	%al
 5387 0c91 0FB6C0   		movzbl	%al, %eax
 5388 0c94 48014588 		addq	%rax, -120(%rbp)
 5389 0c98 488B8538 		movq	-200(%rbp), %rax
 5389      FFFFFF
 5390 0c9f 488B00   		movq	(%rax), %rax
 5391 0ca2 48014580 		addq	%rax, -128(%rbp)
 5392 0ca6 488B8538 		movq	-200(%rbp), %rax
 5392      FFFFFF
 5393 0cad 488B00   		movq	(%rax), %rax
 5394 0cb0 48394580 		cmpq	%rax, -128(%rbp)
 5395 0cb4 0F92C0   		setb	%al
 5396 0cb7 0FB6C0   		movzbl	%al, %eax
 5397 0cba 48014588 		addq	%rax, -120(%rbp)
 5398 0cbe 488B4588 		movq	-120(%rbp), %rax
 5399 0cc2 48898550 		movq	%rax, -176(%rbp)
 5399      FFFFFF
 5400 0cc9 488B9538 		movq	-200(%rbp), %rdx
 5400      FFFFFF
 5401 0cd0 488D4208 		leaq	8(%rdx), %rax
 5402 0cd4 48898538 		movq	%rax, -200(%rbp)
 5402      FFFFFF
 5403 0cdb 488B4580 		movq	-128(%rbp), %rax
 5404 0cdf 488902   		movq	%rax, (%rdx)
1358:/home/xingli/share/1205tiny/network/dtls/mbedtls/mbedtls-2.16.2/library/bignum.c ****         MULADDC_CORE   MULADDC_CORE
 5405              		.loc 1 1358 9 discriminator 2
 5406 0ce2 488B9540 		movq	-192(%rbp), %rdx
 5406      FFFFFF
 5407 0ce9 488D4208 		leaq	8(%rdx), %rax
 5408 0ced 48898540 		movq	%rax, -192(%rbp)
 5408      FFFFFF
 5409 0cf4 488B02   		movq	(%rdx), %rax
 5410 0cf7 48898580 		movq	%rax, -640(%rbp)
 5410      FDFFFF
 5411 0cfe 48C78588 		movq	$0, -632(%rbp)
GAS LISTING /tmp/ccFaOvob.s 			page 135


 5411      FDFFFF00 
 5411      000000
 5412 0d09 488B8530 		movq	-208(%rbp), %rax
 5412      FFFFFF
 5413 0d10 48898560 		movq	%rax, -416(%rbp)
 5413      FEFFFF
 5414 0d17 48C78568 		movq	$0, -408(%rbp)
 5414      FEFFFF00 
 5414      000000
 5415 0d22 488B9D80 		movq	-640(%rbp), %rbx
 5415      FDFFFF
 5416 0d29 488BB588 		movq	-632(%rbp), %rsi
 5416      FDFFFF
 5417 0d30 4889F2   		movq	%rsi, %rdx
 5418 0d33 480FAF95 		imulq	-416(%rbp), %rdx
 5418      60FEFFFF 
 5419 0d3b 488B8568 		movq	-408(%rbp), %rax
 5419      FEFFFF
 5420 0d42 480FAFC3 		imulq	%rbx, %rax
 5421 0d46 488D0C02 		leaq	(%rdx,%rax), %rcx
 5422 0d4a 4889D8   		movq	%rbx, %rax
 5423 0d4d 48F7A560 		mulq	-416(%rbp)
 5423      FEFFFF
 5424 0d54 4801D1   		addq	%rdx, %rcx
 5425 0d57 4889CA   		movq	%rcx, %rdx
 5426 0d5a 488945B0 		movq	%rax, -80(%rbp)
 5427 0d5e 488955B8 		movq	%rdx, -72(%rbp)
 5428 0d62 488945B0 		movq	%rax, -80(%rbp)
 5429 0d66 488955B8 		movq	%rdx, -72(%rbp)
 5430 0d6a 488B45B0 		movq	-80(%rbp), %rax
 5431 0d6e 48894580 		movq	%rax, -128(%rbp)
 5432 0d72 488B45B0 		movq	-80(%rbp), %rax
 5433 0d76 488B55B8 		movq	-72(%rbp), %rdx
 5434 0d7a 4889D0   		movq	%rdx, %rax
 5435 0d7d 31D2     		xorl	%edx, %edx
 5436 0d7f 48894588 		movq	%rax, -120(%rbp)
 5437 0d83 488B8550 		movq	-176(%rbp), %rax
 5437      FFFFFF
 5438 0d8a 48014580 		addq	%rax, -128(%rbp)
 5439 0d8e 488B4580 		movq	-128(%rbp), %rax
 5440 0d92 483B8550 		cmpq	-176(%rbp), %rax
 5440      FFFFFF
 5441 0d99 0F92C0   		setb	%al
 5442 0d9c 0FB6C0   		movzbl	%al, %eax
 5443 0d9f 48014588 		addq	%rax, -120(%rbp)
 5444 0da3 488B8538 		movq	-200(%rbp), %rax
 5444      FFFFFF
 5445 0daa 488B00   		movq	(%rax), %rax
 5446 0dad 48014580 		addq	%rax, -128(%rbp)
 5447 0db1 488B8538 		movq	-200(%rbp), %rax
 5447      FFFFFF
 5448 0db8 488B00   		movq	(%rax), %rax
 5449 0dbb 48394580 		cmpq	%rax, -128(%rbp)
 5450 0dbf 0F92C0   		setb	%al
 5451 0dc2 0FB6C0   		movzbl	%al, %eax
 5452 0dc5 48014588 		addq	%rax, -120(%rbp)
 5453 0dc9 488B4588 		movq	-120(%rbp), %rax
GAS LISTING /tmp/ccFaOvob.s 			page 136


 5454 0dcd 48898550 		movq	%rax, -176(%rbp)
 5454      FFFFFF
 5455 0dd4 488B9538 		movq	-200(%rbp), %rdx
 5455      FFFFFF
 5456 0ddb 488D4208 		leaq	8(%rdx), %rax
 5457 0ddf 48898538 		movq	%rax, -200(%rbp)
 5457      FFFFFF
 5458 0de6 488B4580 		movq	-128(%rbp), %rax
 5459 0dea 488902   		movq	%rax, (%rdx)
 5460              		.loc 1 1358 24 discriminator 2
 5461 0ded 488B9540 		movq	-192(%rbp), %rdx
 5461      FFFFFF
 5462 0df4 488D4208 		leaq	8(%rdx), %rax
 5463 0df8 48898540 		movq	%rax, -192(%rbp)
 5463      FFFFFF
 5464 0dff 488B02   		movq	(%rdx), %rax
 5465 0e02 48898570 		movq	%rax, -656(%rbp)
 5465      FDFFFF
 5466 0e09 48C78578 		movq	$0, -648(%rbp)
 5466      FDFFFF00 
 5466      000000
 5467 0e14 488B8530 		movq	-208(%rbp), %rax
 5467      FFFFFF
 5468 0e1b 48898550 		movq	%rax, -432(%rbp)
 5468      FEFFFF
 5469 0e22 48C78558 		movq	$0, -424(%rbp)
 5469      FEFFFF00 
 5469      000000
 5470 0e2d 488BB570 		movq	-656(%rbp), %rsi
 5470      FDFFFF
 5471 0e34 488BBD78 		movq	-648(%rbp), %rdi
 5471      FDFFFF
 5472 0e3b 4889FA   		movq	%rdi, %rdx
 5473 0e3e 488B8D50 		movq	-432(%rbp), %rcx
 5473      FEFFFF
 5474 0e45 488B9D58 		movq	-424(%rbp), %rbx
 5474      FEFFFF
 5475 0e4c 480FAFD1 		imulq	%rcx, %rdx
 5476 0e50 48898D50 		movq	%rcx, -432(%rbp)
 5476      FEFFFF
 5477 0e57 48899D58 		movq	%rbx, -424(%rbp)
 5477      FEFFFF
 5478 0e5e 4889D8   		movq	%rbx, %rax
 5479 0e61 480FAFC6 		imulq	%rsi, %rax
 5480 0e65 488D0C02 		leaq	(%rdx,%rax), %rcx
 5481 0e69 4889F0   		movq	%rsi, %rax
 5482 0e6c 48F7A550 		mulq	-432(%rbp)
 5482      FEFFFF
 5483 0e73 4801D1   		addq	%rdx, %rcx
 5484 0e76 4889CA   		movq	%rcx, %rdx
 5485 0e79 488945B0 		movq	%rax, -80(%rbp)
 5486 0e7d 488955B8 		movq	%rdx, -72(%rbp)
 5487 0e81 488945B0 		movq	%rax, -80(%rbp)
 5488 0e85 488955B8 		movq	%rdx, -72(%rbp)
 5489 0e89 488B45B0 		movq	-80(%rbp), %rax
 5490 0e8d 48894580 		movq	%rax, -128(%rbp)
 5491 0e91 488B45B0 		movq	-80(%rbp), %rax
GAS LISTING /tmp/ccFaOvob.s 			page 137


 5492 0e95 488B55B8 		movq	-72(%rbp), %rdx
 5493 0e99 4889D0   		movq	%rdx, %rax
 5494 0e9c 31D2     		xorl	%edx, %edx
 5495 0e9e 48894588 		movq	%rax, -120(%rbp)
 5496 0ea2 488B8550 		movq	-176(%rbp), %rax
 5496      FFFFFF
 5497 0ea9 48014580 		addq	%rax, -128(%rbp)
 5498 0ead 488B4580 		movq	-128(%rbp), %rax
 5499 0eb1 483B8550 		cmpq	-176(%rbp), %rax
 5499      FFFFFF
 5500 0eb8 0F92C0   		setb	%al
 5501 0ebb 0FB6C0   		movzbl	%al, %eax
 5502 0ebe 48014588 		addq	%rax, -120(%rbp)
 5503 0ec2 488B8538 		movq	-200(%rbp), %rax
 5503      FFFFFF
 5504 0ec9 488B00   		movq	(%rax), %rax
 5505 0ecc 48014580 		addq	%rax, -128(%rbp)
 5506 0ed0 488B8538 		movq	-200(%rbp), %rax
 5506      FFFFFF
 5507 0ed7 488B00   		movq	(%rax), %rax
 5508 0eda 48394580 		cmpq	%rax, -128(%rbp)
 5509 0ede 0F92C0   		setb	%al
 5510 0ee1 0FB6C0   		movzbl	%al, %eax
 5511 0ee4 48014588 		addq	%rax, -120(%rbp)
 5512 0ee8 488B4588 		movq	-120(%rbp), %rax
 5513 0eec 48898550 		movq	%rax, -176(%rbp)
 5513      FFFFFF
 5514 0ef3 488B9538 		movq	-200(%rbp), %rdx
 5514      FFFFFF
 5515 0efa 488D4208 		leaq	8(%rdx), %rax
 5516 0efe 48898538 		movq	%rax, -200(%rbp)
 5516      FFFFFF
 5517 0f05 488B4580 		movq	-128(%rbp), %rax
 5518 0f09 488902   		movq	%rax, (%rdx)
1359:/home/xingli/share/1205tiny/network/dtls/mbedtls/mbedtls-2.16.2/library/bignum.c ****         MULADDC_CORE   MULADDC_CORE
 5519              		.loc 1 1359 9 discriminator 2
 5520 0f0c 488B9540 		movq	-192(%rbp), %rdx
 5520      FFFFFF
 5521 0f13 488D4208 		leaq	8(%rdx), %rax
 5522 0f17 48898540 		movq	%rax, -192(%rbp)
 5522      FFFFFF
 5523 0f1e 488B02   		movq	(%rdx), %rax
 5524 0f21 4989C6   		movq	%rax, %r14
 5525 0f24 41BF0000 		movl	$0, %r15d
 5525      0000
 5526 0f2a 488B8530 		movq	-208(%rbp), %rax
 5526      FFFFFF
 5527 0f31 4989C4   		movq	%rax, %r12
 5528 0f34 41BD0000 		movl	$0, %r13d
 5528      0000
 5529 0f3a 4C89FA   		movq	%r15, %rdx
 5530 0f3d 490FAFD4 		imulq	%r12, %rdx
 5531 0f41 4C89E8   		movq	%r13, %rax
 5532 0f44 490FAFC6 		imulq	%r14, %rax
 5533 0f48 488D0C02 		leaq	(%rdx,%rax), %rcx
 5534 0f4c 4C89F0   		movq	%r14, %rax
 5535 0f4f 49F7E4   		mulq	%r12
GAS LISTING /tmp/ccFaOvob.s 			page 138


 5536 0f52 4801D1   		addq	%rdx, %rcx
 5537 0f55 4889CA   		movq	%rcx, %rdx
 5538 0f58 488945B0 		movq	%rax, -80(%rbp)
 5539 0f5c 488955B8 		movq	%rdx, -72(%rbp)
 5540 0f60 488945B0 		movq	%rax, -80(%rbp)
 5541 0f64 488955B8 		movq	%rdx, -72(%rbp)
 5542 0f68 488B45B0 		movq	-80(%rbp), %rax
 5543 0f6c 48894580 		movq	%rax, -128(%rbp)
 5544 0f70 488B45B0 		movq	-80(%rbp), %rax
 5545 0f74 488B55B8 		movq	-72(%rbp), %rdx
 5546 0f78 4889D0   		movq	%rdx, %rax
 5547 0f7b 31D2     		xorl	%edx, %edx
 5548 0f7d 48894588 		movq	%rax, -120(%rbp)
 5549 0f81 488B8550 		movq	-176(%rbp), %rax
 5549      FFFFFF
 5550 0f88 48014580 		addq	%rax, -128(%rbp)
 5551 0f8c 488B4580 		movq	-128(%rbp), %rax
 5552 0f90 483B8550 		cmpq	-176(%rbp), %rax
 5552      FFFFFF
 5553 0f97 0F92C0   		setb	%al
 5554 0f9a 0FB6C0   		movzbl	%al, %eax
 5555 0f9d 48014588 		addq	%rax, -120(%rbp)
 5556 0fa1 488B8538 		movq	-200(%rbp), %rax
 5556      FFFFFF
 5557 0fa8 488B00   		movq	(%rax), %rax
 5558 0fab 48014580 		addq	%rax, -128(%rbp)
 5559 0faf 488B8538 		movq	-200(%rbp), %rax
 5559      FFFFFF
 5560 0fb6 488B00   		movq	(%rax), %rax
 5561 0fb9 48394580 		cmpq	%rax, -128(%rbp)
 5562 0fbd 0F92C0   		setb	%al
 5563 0fc0 0FB6C0   		movzbl	%al, %eax
 5564 0fc3 48014588 		addq	%rax, -120(%rbp)
 5565 0fc7 488B4588 		movq	-120(%rbp), %rax
 5566 0fcb 48898550 		movq	%rax, -176(%rbp)
 5566      FFFFFF
 5567 0fd2 488B9538 		movq	-200(%rbp), %rdx
 5567      FFFFFF
 5568 0fd9 488D4208 		leaq	8(%rdx), %rax
 5569 0fdd 48898538 		movq	%rax, -200(%rbp)
 5569      FFFFFF
 5570 0fe4 488B4580 		movq	-128(%rbp), %rax
 5571 0fe8 488902   		movq	%rax, (%rdx)
 5572              		.loc 1 1359 24 discriminator 2
 5573 0feb 488B9540 		movq	-192(%rbp), %rdx
 5573      FFFFFF
 5574 0ff2 488D4208 		leaq	8(%rdx), %rax
 5575 0ff6 48898540 		movq	%rax, -192(%rbp)
 5575      FFFFFF
 5576 0ffd 488B02   		movq	(%rdx), %rax
 5577 1000 4989C2   		movq	%rax, %r10
 5578 1003 41BB0000 		movl	$0, %r11d
 5578      0000
 5579 1009 488B8530 		movq	-208(%rbp), %rax
 5579      FFFFFF
 5580 1010 4989C0   		movq	%rax, %r8
 5581 1013 41B90000 		movl	$0, %r9d
GAS LISTING /tmp/ccFaOvob.s 			page 139


 5581      0000
 5582 1019 4C89DA   		movq	%r11, %rdx
 5583 101c 490FAFD0 		imulq	%r8, %rdx
 5584 1020 4C89C8   		movq	%r9, %rax
 5585 1023 490FAFC2 		imulq	%r10, %rax
 5586 1027 488D0C02 		leaq	(%rdx,%rax), %rcx
 5587 102b 4C89D0   		movq	%r10, %rax
 5588 102e 49F7E0   		mulq	%r8
 5589 1031 4801D1   		addq	%rdx, %rcx
 5590 1034 4889CA   		movq	%rcx, %rdx
 5591 1037 488945B0 		movq	%rax, -80(%rbp)
 5592 103b 488955B8 		movq	%rdx, -72(%rbp)
 5593 103f 488945B0 		movq	%rax, -80(%rbp)
 5594 1043 488955B8 		movq	%rdx, -72(%rbp)
 5595 1047 488B45B0 		movq	-80(%rbp), %rax
 5596 104b 48894580 		movq	%rax, -128(%rbp)
 5597 104f 488B45B0 		movq	-80(%rbp), %rax
 5598 1053 488B55B8 		movq	-72(%rbp), %rdx
 5599 1057 4889D0   		movq	%rdx, %rax
 5600 105a 31D2     		xorl	%edx, %edx
 5601 105c 48894588 		movq	%rax, -120(%rbp)
 5602 1060 488B8550 		movq	-176(%rbp), %rax
 5602      FFFFFF
 5603 1067 48014580 		addq	%rax, -128(%rbp)
 5604 106b 488B4580 		movq	-128(%rbp), %rax
 5605 106f 483B8550 		cmpq	-176(%rbp), %rax
 5605      FFFFFF
 5606 1076 0F92C0   		setb	%al
 5607 1079 0FB6C0   		movzbl	%al, %eax
 5608 107c 48014588 		addq	%rax, -120(%rbp)
 5609 1080 488B8538 		movq	-200(%rbp), %rax
 5609      FFFFFF
 5610 1087 488B00   		movq	(%rax), %rax
 5611 108a 48014580 		addq	%rax, -128(%rbp)
 5612 108e 488B8538 		movq	-200(%rbp), %rax
 5612      FFFFFF
 5613 1095 488B00   		movq	(%rax), %rax
 5614 1098 48394580 		cmpq	%rax, -128(%rbp)
 5615 109c 0F92C0   		setb	%al
 5616 109f 0FB6C0   		movzbl	%al, %eax
 5617 10a2 48014588 		addq	%rax, -120(%rbp)
 5618 10a6 488B4588 		movq	-120(%rbp), %rax
 5619 10aa 48898550 		movq	%rax, -176(%rbp)
 5619      FFFFFF
 5620 10b1 488B9538 		movq	-200(%rbp), %rdx
 5620      FFFFFF
 5621 10b8 488D4208 		leaq	8(%rdx), %rax
 5622 10bc 48898538 		movq	%rax, -200(%rbp)
 5622      FFFFFF
 5623 10c3 488B4580 		movq	-128(%rbp), %rax
 5624 10c7 488902   		movq	%rax, (%rdx)
 5625              	.LBE5:
1348:/home/xingli/share/1205tiny/network/dtls/mbedtls/mbedtls-2.16.2/library/bignum.c ****     {
 5626              		.loc 1 1348 23 discriminator 2
 5627 10ca 4883AD48 		subq	$16, -184(%rbp)
 5627      FFFFFF10 
 5628              	.L376:
GAS LISTING /tmp/ccFaOvob.s 			page 140


1348:/home/xingli/share/1205tiny/network/dtls/mbedtls/mbedtls-2.16.2/library/bignum.c ****     {
 5629              		.loc 1 1348 5 discriminator 1
 5630 10d2 4883BD48 		cmpq	$15, -184(%rbp)
 5630      FFFFFF0F 
 5631 10da 0F877EEF 		ja	.L377
 5631      FFFF
1360:/home/xingli/share/1205tiny/network/dtls/mbedtls/mbedtls-2.16.2/library/bignum.c ****         MULADDC_STOP
1361:/home/xingli/share/1205tiny/network/dtls/mbedtls/mbedtls-2.16.2/library/bignum.c ****     }
1362:/home/xingli/share/1205tiny/network/dtls/mbedtls/mbedtls-2.16.2/library/bignum.c **** 
1363:/home/xingli/share/1205tiny/network/dtls/mbedtls/mbedtls-2.16.2/library/bignum.c ****     for( ; i >= 8; i -= 8 )
 5632              		.loc 1 1363 5
 5633 10e0 E9600900 		jmp	.L378
 5633      00
 5634              	.L379:
 5635              	.LBB6:
1364:/home/xingli/share/1205tiny/network/dtls/mbedtls/mbedtls-2.16.2/library/bignum.c ****     {
1365:/home/xingli/share/1205tiny/network/dtls/mbedtls/mbedtls-2.16.2/library/bignum.c ****         MULADDC_INIT
1366:/home/xingli/share/1205tiny/network/dtls/mbedtls/mbedtls-2.16.2/library/bignum.c ****         MULADDC_CORE   MULADDC_CORE
 5636              		.loc 1 1366 9 discriminator 2
 5637 10e5 488B9540 		movq	-192(%rbp), %rdx
 5637      FFFFFF
 5638 10ec 488D4208 		leaq	8(%rdx), %rax
 5639 10f0 48898540 		movq	%rax, -192(%rbp)
 5639      FFFFFF
 5640 10f7 488B02   		movq	(%rdx), %rax
 5641 10fa 48898560 		movq	%rax, -672(%rbp)
 5641      FDFFFF
 5642 1101 48C78568 		movq	$0, -664(%rbp)
 5642      FDFFFF00 
 5642      000000
 5643 110c 488B8530 		movq	-208(%rbp), %rax
 5643      FFFFFF
 5644 1113 48898550 		movq	%rax, -688(%rbp)
 5644      FDFFFF
 5645 111a 48C78558 		movq	$0, -680(%rbp)
 5645      FDFFFF00 
 5645      000000
 5646 1125 488B9D60 		movq	-672(%rbp), %rbx
 5646      FDFFFF
 5647 112c 488BB568 		movq	-664(%rbp), %rsi
 5647      FDFFFF
 5648 1133 4889F2   		movq	%rsi, %rdx
 5649 1136 4C8BB550 		movq	-688(%rbp), %r14
 5649      FDFFFF
 5650 113d 4C8BBD58 		movq	-680(%rbp), %r15
 5650      FDFFFF
 5651 1144 490FAFD6 		imulq	%r14, %rdx
 5652 1148 4C89F8   		movq	%r15, %rax
 5653 114b 480FAFC3 		imulq	%rbx, %rax
 5654 114f 488D0C02 		leaq	(%rdx,%rax), %rcx
 5655 1153 4889D8   		movq	%rbx, %rax
 5656 1156 49F7E6   		mulq	%r14
 5657 1159 4801D1   		addq	%rdx, %rcx
 5658 115c 4889CA   		movq	%rcx, %rdx
 5659 115f 488945A0 		movq	%rax, -96(%rbp)
 5660 1163 488955A8 		movq	%rdx, -88(%rbp)
 5661 1167 488945A0 		movq	%rax, -96(%rbp)
GAS LISTING /tmp/ccFaOvob.s 			page 141


 5662 116b 488955A8 		movq	%rdx, -88(%rbp)
 5663 116f 488B45A0 		movq	-96(%rbp), %rax
 5664 1173 48898570 		movq	%rax, -144(%rbp)
 5664      FFFFFF
 5665 117a 488B45A0 		movq	-96(%rbp), %rax
 5666 117e 488B55A8 		movq	-88(%rbp), %rdx
 5667 1182 4889D0   		movq	%rdx, %rax
 5668 1185 31D2     		xorl	%edx, %edx
 5669 1187 48898578 		movq	%rax, -136(%rbp)
 5669      FFFFFF
 5670 118e 488B8550 		movq	-176(%rbp), %rax
 5670      FFFFFF
 5671 1195 48018570 		addq	%rax, -144(%rbp)
 5671      FFFFFF
 5672 119c 488B8570 		movq	-144(%rbp), %rax
 5672      FFFFFF
 5673 11a3 483B8550 		cmpq	-176(%rbp), %rax
 5673      FFFFFF
 5674 11aa 0F92C0   		setb	%al
 5675 11ad 0FB6C0   		movzbl	%al, %eax
 5676 11b0 48018578 		addq	%rax, -136(%rbp)
 5676      FFFFFF
 5677 11b7 488B8538 		movq	-200(%rbp), %rax
 5677      FFFFFF
 5678 11be 488B00   		movq	(%rax), %rax
 5679 11c1 48018570 		addq	%rax, -144(%rbp)
 5679      FFFFFF
 5680 11c8 488B8538 		movq	-200(%rbp), %rax
 5680      FFFFFF
 5681 11cf 488B00   		movq	(%rax), %rax
 5682 11d2 48398570 		cmpq	%rax, -144(%rbp)
 5682      FFFFFF
 5683 11d9 0F92C0   		setb	%al
 5684 11dc 0FB6C0   		movzbl	%al, %eax
 5685 11df 48018578 		addq	%rax, -136(%rbp)
 5685      FFFFFF
 5686 11e6 488B8578 		movq	-136(%rbp), %rax
 5686      FFFFFF
 5687 11ed 48898550 		movq	%rax, -176(%rbp)
 5687      FFFFFF
 5688 11f4 488B9538 		movq	-200(%rbp), %rdx
 5688      FFFFFF
 5689 11fb 488D4208 		leaq	8(%rdx), %rax
 5690 11ff 48898538 		movq	%rax, -200(%rbp)
 5690      FFFFFF
 5691 1206 488B8570 		movq	-144(%rbp), %rax
 5691      FFFFFF
 5692 120d 488902   		movq	%rax, (%rdx)
 5693              		.loc 1 1366 24 discriminator 2
 5694 1210 488B9540 		movq	-192(%rbp), %rdx
 5694      FFFFFF
 5695 1217 488D4208 		leaq	8(%rdx), %rax
 5696 121b 48898540 		movq	%rax, -192(%rbp)
 5696      FFFFFF
 5697 1222 488B02   		movq	(%rdx), %rax
 5698 1225 48898540 		movq	%rax, -704(%rbp)
 5698      FDFFFF
GAS LISTING /tmp/ccFaOvob.s 			page 142


 5699 122c 48C78548 		movq	$0, -696(%rbp)
 5699      FDFFFF00 
 5699      000000
 5700 1237 488B8530 		movq	-208(%rbp), %rax
 5700      FFFFFF
 5701 123e 48898530 		movq	%rax, -720(%rbp)
 5701      FDFFFF
 5702 1245 48C78538 		movq	$0, -712(%rbp)
 5702      FDFFFF00 
 5702      000000
 5703 1250 488B9D40 		movq	-704(%rbp), %rbx
 5703      FDFFFF
 5704 1257 488BB548 		movq	-696(%rbp), %rsi
 5704      FDFFFF
 5705 125e 4889F2   		movq	%rsi, %rdx
 5706 1261 4C8B9530 		movq	-720(%rbp), %r10
 5706      FDFFFF
 5707 1268 4C8B9D38 		movq	-712(%rbp), %r11
 5707      FDFFFF
 5708 126f 490FAFD2 		imulq	%r10, %rdx
 5709 1273 4C89D8   		movq	%r11, %rax
 5710 1276 480FAFC3 		imulq	%rbx, %rax
 5711 127a 488D0C02 		leaq	(%rdx,%rax), %rcx
 5712 127e 4889D8   		movq	%rbx, %rax
 5713 1281 49F7E2   		mulq	%r10
 5714 1284 4801D1   		addq	%rdx, %rcx
 5715 1287 4889CA   		movq	%rcx, %rdx
 5716 128a 488945A0 		movq	%rax, -96(%rbp)
 5717 128e 488955A8 		movq	%rdx, -88(%rbp)
 5718 1292 488945A0 		movq	%rax, -96(%rbp)
 5719 1296 488955A8 		movq	%rdx, -88(%rbp)
 5720 129a 488B45A0 		movq	-96(%rbp), %rax
 5721 129e 48898570 		movq	%rax, -144(%rbp)
 5721      FFFFFF
 5722 12a5 488B45A0 		movq	-96(%rbp), %rax
 5723 12a9 488B55A8 		movq	-88(%rbp), %rdx
 5724 12ad 4889D0   		movq	%rdx, %rax
 5725 12b0 31D2     		xorl	%edx, %edx
 5726 12b2 48898578 		movq	%rax, -136(%rbp)
 5726      FFFFFF
 5727 12b9 488B8550 		movq	-176(%rbp), %rax
 5727      FFFFFF
 5728 12c0 48018570 		addq	%rax, -144(%rbp)
 5728      FFFFFF
 5729 12c7 488B8570 		movq	-144(%rbp), %rax
 5729      FFFFFF
 5730 12ce 483B8550 		cmpq	-176(%rbp), %rax
 5730      FFFFFF
 5731 12d5 0F92C0   		setb	%al
 5732 12d8 0FB6C0   		movzbl	%al, %eax
 5733 12db 48018578 		addq	%rax, -136(%rbp)
 5733      FFFFFF
 5734 12e2 488B8538 		movq	-200(%rbp), %rax
 5734      FFFFFF
 5735 12e9 488B00   		movq	(%rax), %rax
 5736 12ec 48018570 		addq	%rax, -144(%rbp)
 5736      FFFFFF
GAS LISTING /tmp/ccFaOvob.s 			page 143


 5737 12f3 488B8538 		movq	-200(%rbp), %rax
 5737      FFFFFF
 5738 12fa 488B00   		movq	(%rax), %rax
 5739 12fd 48398570 		cmpq	%rax, -144(%rbp)
 5739      FFFFFF
 5740 1304 0F92C0   		setb	%al
 5741 1307 0FB6C0   		movzbl	%al, %eax
 5742 130a 48018578 		addq	%rax, -136(%rbp)
 5742      FFFFFF
 5743 1311 488B8578 		movq	-136(%rbp), %rax
 5743      FFFFFF
 5744 1318 48898550 		movq	%rax, -176(%rbp)
 5744      FFFFFF
 5745 131f 488B9538 		movq	-200(%rbp), %rdx
 5745      FFFFFF
 5746 1326 488D4208 		leaq	8(%rdx), %rax
 5747 132a 48898538 		movq	%rax, -200(%rbp)
 5747      FFFFFF
 5748 1331 488B8570 		movq	-144(%rbp), %rax
 5748      FFFFFF
 5749 1338 488902   		movq	%rax, (%rdx)
1367:/home/xingli/share/1205tiny/network/dtls/mbedtls/mbedtls-2.16.2/library/bignum.c ****         MULADDC_CORE   MULADDC_CORE
 5750              		.loc 1 1367 9 discriminator 2
 5751 133b 488B9540 		movq	-192(%rbp), %rdx
 5751      FFFFFF
 5752 1342 488D4208 		leaq	8(%rdx), %rax
 5753 1346 48898540 		movq	%rax, -192(%rbp)
 5753      FFFFFF
 5754 134d 488B02   		movq	(%rdx), %rax
 5755 1350 48898520 		movq	%rax, -736(%rbp)
 5755      FDFFFF
 5756 1357 48C78528 		movq	$0, -728(%rbp)
 5756      FDFFFF00 
 5756      000000
 5757 1362 488B8530 		movq	-208(%rbp), %rax
 5757      FFFFFF
 5758 1369 48898510 		movq	%rax, -752(%rbp)
 5758      FDFFFF
 5759 1370 48C78518 		movq	$0, -744(%rbp)
 5759      FDFFFF00 
 5759      000000
 5760 137b 488B9D20 		movq	-736(%rbp), %rbx
 5760      FDFFFF
 5761 1382 488BB528 		movq	-728(%rbp), %rsi
 5761      FDFFFF
 5762 1389 4889F2   		movq	%rsi, %rdx
 5763 138c 4C8B8510 		movq	-752(%rbp), %r8
 5763      FDFFFF
 5764 1393 4C8B8D18 		movq	-744(%rbp), %r9
 5764      FDFFFF
 5765 139a 490FAFD0 		imulq	%r8, %rdx
 5766 139e 4C89C8   		movq	%r9, %rax
 5767 13a1 480FAFC3 		imulq	%rbx, %rax
 5768 13a5 488D0C02 		leaq	(%rdx,%rax), %rcx
 5769 13a9 4889D8   		movq	%rbx, %rax
 5770 13ac 49F7E0   		mulq	%r8
 5771 13af 4801D1   		addq	%rdx, %rcx
GAS LISTING /tmp/ccFaOvob.s 			page 144


 5772 13b2 4889CA   		movq	%rcx, %rdx
 5773 13b5 488945A0 		movq	%rax, -96(%rbp)
 5774 13b9 488955A8 		movq	%rdx, -88(%rbp)
 5775 13bd 488945A0 		movq	%rax, -96(%rbp)
 5776 13c1 488955A8 		movq	%rdx, -88(%rbp)
 5777 13c5 488B45A0 		movq	-96(%rbp), %rax
 5778 13c9 48898570 		movq	%rax, -144(%rbp)
 5778      FFFFFF
 5779 13d0 488B45A0 		movq	-96(%rbp), %rax
 5780 13d4 488B55A8 		movq	-88(%rbp), %rdx
 5781 13d8 4889D0   		movq	%rdx, %rax
 5782 13db 31D2     		xorl	%edx, %edx
 5783 13dd 48898578 		movq	%rax, -136(%rbp)
 5783      FFFFFF
 5784 13e4 488B8550 		movq	-176(%rbp), %rax
 5784      FFFFFF
 5785 13eb 48018570 		addq	%rax, -144(%rbp)
 5785      FFFFFF
 5786 13f2 488B8570 		movq	-144(%rbp), %rax
 5786      FFFFFF
 5787 13f9 483B8550 		cmpq	-176(%rbp), %rax
 5787      FFFFFF
 5788 1400 0F92C0   		setb	%al
 5789 1403 0FB6C0   		movzbl	%al, %eax
 5790 1406 48018578 		addq	%rax, -136(%rbp)
 5790      FFFFFF
 5791 140d 488B8538 		movq	-200(%rbp), %rax
 5791      FFFFFF
 5792 1414 488B00   		movq	(%rax), %rax
 5793 1417 48018570 		addq	%rax, -144(%rbp)
 5793      FFFFFF
 5794 141e 488B8538 		movq	-200(%rbp), %rax
 5794      FFFFFF
 5795 1425 488B00   		movq	(%rax), %rax
 5796 1428 48398570 		cmpq	%rax, -144(%rbp)
 5796      FFFFFF
 5797 142f 0F92C0   		setb	%al
 5798 1432 0FB6C0   		movzbl	%al, %eax
 5799 1435 48018578 		addq	%rax, -136(%rbp)
 5799      FFFFFF
 5800 143c 488B8578 		movq	-136(%rbp), %rax
 5800      FFFFFF
 5801 1443 48898550 		movq	%rax, -176(%rbp)
 5801      FFFFFF
 5802 144a 488B9538 		movq	-200(%rbp), %rdx
 5802      FFFFFF
 5803 1451 488D4208 		leaq	8(%rdx), %rax
 5804 1455 48898538 		movq	%rax, -200(%rbp)
 5804      FFFFFF
 5805 145c 488B8570 		movq	-144(%rbp), %rax
 5805      FFFFFF
 5806 1463 488902   		movq	%rax, (%rdx)
 5807              		.loc 1 1367 24 discriminator 2
 5808 1466 488B9540 		movq	-192(%rbp), %rdx
 5808      FFFFFF
 5809 146d 488D4208 		leaq	8(%rdx), %rax
 5810 1471 48898540 		movq	%rax, -192(%rbp)
GAS LISTING /tmp/ccFaOvob.s 			page 145


 5810      FFFFFF
 5811 1478 488B02   		movq	(%rdx), %rax
 5812 147b 48898500 		movq	%rax, -768(%rbp)
 5812      FDFFFF
 5813 1482 48C78508 		movq	$0, -760(%rbp)
 5813      FDFFFF00 
 5813      000000
 5814 148d 488B8530 		movq	-208(%rbp), %rax
 5814      FFFFFF
 5815 1494 488985F0 		movq	%rax, -784(%rbp)
 5815      FCFFFF
 5816 149b 48C785F8 		movq	$0, -776(%rbp)
 5816      FCFFFF00 
 5816      000000
 5817 14a6 488B9D00 		movq	-768(%rbp), %rbx
 5817      FDFFFF
 5818 14ad 488BB508 		movq	-760(%rbp), %rsi
 5818      FDFFFF
 5819 14b4 4889F2   		movq	%rsi, %rdx
 5820 14b7 4C8B9DF0 		movq	-784(%rbp), %r11
 5820      FCFFFF
 5821 14be 4C8BA5F8 		movq	-776(%rbp), %r12
 5821      FCFFFF
 5822 14c5 490FAFD3 		imulq	%r11, %rdx
 5823 14c9 4C89E0   		movq	%r12, %rax
 5824 14cc 480FAFC3 		imulq	%rbx, %rax
 5825 14d0 488D0C02 		leaq	(%rdx,%rax), %rcx
 5826 14d4 4889D8   		movq	%rbx, %rax
 5827 14d7 49F7E3   		mulq	%r11
 5828 14da 4801D1   		addq	%rdx, %rcx
 5829 14dd 4889CA   		movq	%rcx, %rdx
 5830 14e0 488945A0 		movq	%rax, -96(%rbp)
 5831 14e4 488955A8 		movq	%rdx, -88(%rbp)
 5832 14e8 488945A0 		movq	%rax, -96(%rbp)
 5833 14ec 488955A8 		movq	%rdx, -88(%rbp)
 5834 14f0 488B45A0 		movq	-96(%rbp), %rax
 5835 14f4 48898570 		movq	%rax, -144(%rbp)
 5835      FFFFFF
 5836 14fb 488B45A0 		movq	-96(%rbp), %rax
 5837 14ff 488B55A8 		movq	-88(%rbp), %rdx
 5838 1503 4889D0   		movq	%rdx, %rax
 5839 1506 31D2     		xorl	%edx, %edx
 5840 1508 48898578 		movq	%rax, -136(%rbp)
 5840      FFFFFF
 5841 150f 488B8550 		movq	-176(%rbp), %rax
 5841      FFFFFF
 5842 1516 48018570 		addq	%rax, -144(%rbp)
 5842      FFFFFF
 5843 151d 488B8570 		movq	-144(%rbp), %rax
 5843      FFFFFF
 5844 1524 483B8550 		cmpq	-176(%rbp), %rax
 5844      FFFFFF
 5845 152b 0F92C0   		setb	%al
 5846 152e 0FB6C0   		movzbl	%al, %eax
 5847 1531 48018578 		addq	%rax, -136(%rbp)
 5847      FFFFFF
 5848 1538 488B8538 		movq	-200(%rbp), %rax
GAS LISTING /tmp/ccFaOvob.s 			page 146


 5848      FFFFFF
 5849 153f 488B00   		movq	(%rax), %rax
 5850 1542 48018570 		addq	%rax, -144(%rbp)
 5850      FFFFFF
 5851 1549 488B8538 		movq	-200(%rbp), %rax
 5851      FFFFFF
 5852 1550 488B00   		movq	(%rax), %rax
 5853 1553 48398570 		cmpq	%rax, -144(%rbp)
 5853      FFFFFF
 5854 155a 0F92C0   		setb	%al
 5855 155d 0FB6C0   		movzbl	%al, %eax
 5856 1560 48018578 		addq	%rax, -136(%rbp)
 5856      FFFFFF
 5857 1567 488B8578 		movq	-136(%rbp), %rax
 5857      FFFFFF
 5858 156e 48898550 		movq	%rax, -176(%rbp)
 5858      FFFFFF
 5859 1575 488B9538 		movq	-200(%rbp), %rdx
 5859      FFFFFF
 5860 157c 488D4208 		leaq	8(%rdx), %rax
 5861 1580 48898538 		movq	%rax, -200(%rbp)
 5861      FFFFFF
 5862 1587 488B8570 		movq	-144(%rbp), %rax
 5862      FFFFFF
 5863 158e 488902   		movq	%rax, (%rdx)
1368:/home/xingli/share/1205tiny/network/dtls/mbedtls/mbedtls-2.16.2/library/bignum.c **** 
1369:/home/xingli/share/1205tiny/network/dtls/mbedtls/mbedtls-2.16.2/library/bignum.c ****         MULADDC_CORE   MULADDC_CORE
 5864              		.loc 1 1369 9 discriminator 2
 5865 1591 488B9540 		movq	-192(%rbp), %rdx
 5865      FFFFFF
 5866 1598 488D4208 		leaq	8(%rdx), %rax
 5867 159c 48898540 		movq	%rax, -192(%rbp)
 5867      FFFFFF
 5868 15a3 488B02   		movq	(%rdx), %rax
 5869 15a6 488985E0 		movq	%rax, -800(%rbp)
 5869      FCFFFF
 5870 15ad 48C785E8 		movq	$0, -792(%rbp)
 5870      FCFFFF00 
 5870      000000
 5871 15b8 488B8530 		movq	-208(%rbp), %rax
 5871      FFFFFF
 5872 15bf 488985D0 		movq	%rax, -816(%rbp)
 5872      FCFFFF
 5873 15c6 48C785D8 		movq	$0, -808(%rbp)
 5873      FCFFFF00 
 5873      000000
 5874 15d1 488B9DE0 		movq	-800(%rbp), %rbx
 5874      FCFFFF
 5875 15d8 488BB5E8 		movq	-792(%rbp), %rsi
 5875      FCFFFF
 5876 15df 4889F2   		movq	%rsi, %rdx
 5877 15e2 4C8BB5D0 		movq	-816(%rbp), %r14
 5877      FCFFFF
 5878 15e9 4C8BBDD8 		movq	-808(%rbp), %r15
 5878      FCFFFF
 5879 15f0 490FAFD6 		imulq	%r14, %rdx
 5880 15f4 4C89F8   		movq	%r15, %rax
GAS LISTING /tmp/ccFaOvob.s 			page 147


 5881 15f7 480FAFC3 		imulq	%rbx, %rax
 5882 15fb 488D0C02 		leaq	(%rdx,%rax), %rcx
 5883 15ff 4889D8   		movq	%rbx, %rax
 5884 1602 49F7E6   		mulq	%r14
 5885 1605 4801D1   		addq	%rdx, %rcx
 5886 1608 4889CA   		movq	%rcx, %rdx
 5887 160b 488945A0 		movq	%rax, -96(%rbp)
 5888 160f 488955A8 		movq	%rdx, -88(%rbp)
 5889 1613 488945A0 		movq	%rax, -96(%rbp)
 5890 1617 488955A8 		movq	%rdx, -88(%rbp)
 5891 161b 488B45A0 		movq	-96(%rbp), %rax
 5892 161f 48898570 		movq	%rax, -144(%rbp)
 5892      FFFFFF
 5893 1626 488B45A0 		movq	-96(%rbp), %rax
 5894 162a 488B55A8 		movq	-88(%rbp), %rdx
 5895 162e 4889D0   		movq	%rdx, %rax
 5896 1631 31D2     		xorl	%edx, %edx
 5897 1633 48898578 		movq	%rax, -136(%rbp)
 5897      FFFFFF
 5898 163a 488B8550 		movq	-176(%rbp), %rax
 5898      FFFFFF
 5899 1641 48018570 		addq	%rax, -144(%rbp)
 5899      FFFFFF
 5900 1648 488B8570 		movq	-144(%rbp), %rax
 5900      FFFFFF
 5901 164f 483B8550 		cmpq	-176(%rbp), %rax
 5901      FFFFFF
 5902 1656 0F92C0   		setb	%al
 5903 1659 0FB6C0   		movzbl	%al, %eax
 5904 165c 48018578 		addq	%rax, -136(%rbp)
 5904      FFFFFF
 5905 1663 488B8538 		movq	-200(%rbp), %rax
 5905      FFFFFF
 5906 166a 488B00   		movq	(%rax), %rax
 5907 166d 48018570 		addq	%rax, -144(%rbp)
 5907      FFFFFF
 5908 1674 488B8538 		movq	-200(%rbp), %rax
 5908      FFFFFF
 5909 167b 488B00   		movq	(%rax), %rax
 5910 167e 48398570 		cmpq	%rax, -144(%rbp)
 5910      FFFFFF
 5911 1685 0F92C0   		setb	%al
 5912 1688 0FB6C0   		movzbl	%al, %eax
 5913 168b 48018578 		addq	%rax, -136(%rbp)
 5913      FFFFFF
 5914 1692 488B8578 		movq	-136(%rbp), %rax
 5914      FFFFFF
 5915 1699 48898550 		movq	%rax, -176(%rbp)
 5915      FFFFFF
 5916 16a0 488B9538 		movq	-200(%rbp), %rdx
 5916      FFFFFF
 5917 16a7 488D4208 		leaq	8(%rdx), %rax
 5918 16ab 48898538 		movq	%rax, -200(%rbp)
 5918      FFFFFF
 5919 16b2 488B8570 		movq	-144(%rbp), %rax
 5919      FFFFFF
 5920 16b9 488902   		movq	%rax, (%rdx)
GAS LISTING /tmp/ccFaOvob.s 			page 148


 5921              		.loc 1 1369 24 discriminator 2
 5922 16bc 488B9540 		movq	-192(%rbp), %rdx
 5922      FFFFFF
 5923 16c3 488D4208 		leaq	8(%rdx), %rax
 5924 16c7 48898540 		movq	%rax, -192(%rbp)
 5924      FFFFFF
 5925 16ce 488B02   		movq	(%rdx), %rax
 5926 16d1 488985C0 		movq	%rax, -832(%rbp)
 5926      FCFFFF
 5927 16d8 48C785C8 		movq	$0, -824(%rbp)
 5927      FCFFFF00 
 5927      000000
 5928 16e3 488B8530 		movq	-208(%rbp), %rax
 5928      FFFFFF
 5929 16ea 488985B0 		movq	%rax, -848(%rbp)
 5929      FCFFFF
 5930 16f1 48C785B8 		movq	$0, -840(%rbp)
 5930      FCFFFF00 
 5930      000000
 5931 16fc 488B9DC0 		movq	-832(%rbp), %rbx
 5931      FCFFFF
 5932 1703 488BB5C8 		movq	-824(%rbp), %rsi
 5932      FCFFFF
 5933 170a 4889F2   		movq	%rsi, %rdx
 5934 170d 4C8B85B0 		movq	-848(%rbp), %r8
 5934      FCFFFF
 5935 1714 4C8B8DB8 		movq	-840(%rbp), %r9
 5935      FCFFFF
 5936 171b 490FAFD0 		imulq	%r8, %rdx
 5937 171f 4C89C8   		movq	%r9, %rax
 5938 1722 480FAFC3 		imulq	%rbx, %rax
 5939 1726 488D0C02 		leaq	(%rdx,%rax), %rcx
 5940 172a 4889D8   		movq	%rbx, %rax
 5941 172d 49F7E0   		mulq	%r8
 5942 1730 4801D1   		addq	%rdx, %rcx
 5943 1733 4889CA   		movq	%rcx, %rdx
 5944 1736 488945A0 		movq	%rax, -96(%rbp)
 5945 173a 488955A8 		movq	%rdx, -88(%rbp)
 5946 173e 488945A0 		movq	%rax, -96(%rbp)
 5947 1742 488955A8 		movq	%rdx, -88(%rbp)
 5948 1746 488B45A0 		movq	-96(%rbp), %rax
 5949 174a 48898570 		movq	%rax, -144(%rbp)
 5949      FFFFFF
 5950 1751 488B45A0 		movq	-96(%rbp), %rax
 5951 1755 488B55A8 		movq	-88(%rbp), %rdx
 5952 1759 4889D0   		movq	%rdx, %rax
 5953 175c 31D2     		xorl	%edx, %edx
 5954 175e 48898578 		movq	%rax, -136(%rbp)
 5954      FFFFFF
 5955 1765 488B8550 		movq	-176(%rbp), %rax
 5955      FFFFFF
 5956 176c 48018570 		addq	%rax, -144(%rbp)
 5956      FFFFFF
 5957 1773 488B8570 		movq	-144(%rbp), %rax
 5957      FFFFFF
 5958 177a 483B8550 		cmpq	-176(%rbp), %rax
 5958      FFFFFF
GAS LISTING /tmp/ccFaOvob.s 			page 149


 5959 1781 0F92C0   		setb	%al
 5960 1784 0FB6C0   		movzbl	%al, %eax
 5961 1787 48018578 		addq	%rax, -136(%rbp)
 5961      FFFFFF
 5962 178e 488B8538 		movq	-200(%rbp), %rax
 5962      FFFFFF
 5963 1795 488B00   		movq	(%rax), %rax
 5964 1798 48018570 		addq	%rax, -144(%rbp)
 5964      FFFFFF
 5965 179f 488B8538 		movq	-200(%rbp), %rax
 5965      FFFFFF
 5966 17a6 488B00   		movq	(%rax), %rax
 5967 17a9 48398570 		cmpq	%rax, -144(%rbp)
 5967      FFFFFF
 5968 17b0 0F92C0   		setb	%al
 5969 17b3 0FB6C0   		movzbl	%al, %eax
 5970 17b6 48018578 		addq	%rax, -136(%rbp)
 5970      FFFFFF
 5971 17bd 488B8578 		movq	-136(%rbp), %rax
 5971      FFFFFF
 5972 17c4 48898550 		movq	%rax, -176(%rbp)
 5972      FFFFFF
 5973 17cb 488B9538 		movq	-200(%rbp), %rdx
 5973      FFFFFF
 5974 17d2 488D4208 		leaq	8(%rdx), %rax
 5975 17d6 48898538 		movq	%rax, -200(%rbp)
 5975      FFFFFF
 5976 17dd 488B8570 		movq	-144(%rbp), %rax
 5976      FFFFFF
 5977 17e4 488902   		movq	%rax, (%rdx)
1370:/home/xingli/share/1205tiny/network/dtls/mbedtls/mbedtls-2.16.2/library/bignum.c ****         MULADDC_CORE   MULADDC_CORE
 5978              		.loc 1 1370 9 discriminator 2
 5979 17e7 488B9540 		movq	-192(%rbp), %rdx
 5979      FFFFFF
 5980 17ee 488D4208 		leaq	8(%rdx), %rax
 5981 17f2 48898540 		movq	%rax, -192(%rbp)
 5981      FFFFFF
 5982 17f9 488B02   		movq	(%rdx), %rax
 5983 17fc 488985A0 		movq	%rax, -864(%rbp)
 5983      FCFFFF
 5984 1803 48C785A8 		movq	$0, -856(%rbp)
 5984      FCFFFF00 
 5984      000000
 5985 180e 488B8530 		movq	-208(%rbp), %rax
 5985      FFFFFF
 5986 1815 48898590 		movq	%rax, -880(%rbp)
 5986      FCFFFF
 5987 181c 48C78598 		movq	$0, -872(%rbp)
 5987      FCFFFF00 
 5987      000000
 5988 1827 488B9DA0 		movq	-864(%rbp), %rbx
 5988      FCFFFF
 5989 182e 488BB5A8 		movq	-856(%rbp), %rsi
 5989      FCFFFF
 5990 1835 4889F2   		movq	%rsi, %rdx
 5991 1838 4C8B9D90 		movq	-880(%rbp), %r11
 5991      FCFFFF
GAS LISTING /tmp/ccFaOvob.s 			page 150


 5992 183f 4C8BA598 		movq	-872(%rbp), %r12
 5992      FCFFFF
 5993 1846 490FAFD3 		imulq	%r11, %rdx
 5994 184a 4C89E0   		movq	%r12, %rax
 5995 184d 480FAFC3 		imulq	%rbx, %rax
 5996 1851 488D0C02 		leaq	(%rdx,%rax), %rcx
 5997 1855 4889D8   		movq	%rbx, %rax
 5998 1858 49F7E3   		mulq	%r11
 5999 185b 4801D1   		addq	%rdx, %rcx
 6000 185e 4889CA   		movq	%rcx, %rdx
 6001 1861 488945A0 		movq	%rax, -96(%rbp)
 6002 1865 488955A8 		movq	%rdx, -88(%rbp)
 6003 1869 488945A0 		movq	%rax, -96(%rbp)
 6004 186d 488955A8 		movq	%rdx, -88(%rbp)
 6005 1871 488B45A0 		movq	-96(%rbp), %rax
 6006 1875 48898570 		movq	%rax, -144(%rbp)
 6006      FFFFFF
 6007 187c 488B45A0 		movq	-96(%rbp), %rax
 6008 1880 488B55A8 		movq	-88(%rbp), %rdx
 6009 1884 4889D0   		movq	%rdx, %rax
 6010 1887 31D2     		xorl	%edx, %edx
 6011 1889 48898578 		movq	%rax, -136(%rbp)
 6011      FFFFFF
 6012 1890 488B8550 		movq	-176(%rbp), %rax
 6012      FFFFFF
 6013 1897 48018570 		addq	%rax, -144(%rbp)
 6013      FFFFFF
 6014 189e 488B8570 		movq	-144(%rbp), %rax
 6014      FFFFFF
 6015 18a5 483B8550 		cmpq	-176(%rbp), %rax
 6015      FFFFFF
 6016 18ac 0F92C0   		setb	%al
 6017 18af 0FB6C0   		movzbl	%al, %eax
 6018 18b2 48018578 		addq	%rax, -136(%rbp)
 6018      FFFFFF
 6019 18b9 488B8538 		movq	-200(%rbp), %rax
 6019      FFFFFF
 6020 18c0 488B00   		movq	(%rax), %rax
 6021 18c3 48018570 		addq	%rax, -144(%rbp)
 6021      FFFFFF
 6022 18ca 488B8538 		movq	-200(%rbp), %rax
 6022      FFFFFF
 6023 18d1 488B00   		movq	(%rax), %rax
 6024 18d4 48398570 		cmpq	%rax, -144(%rbp)
 6024      FFFFFF
 6025 18db 0F92C0   		setb	%al
 6026 18de 0FB6C0   		movzbl	%al, %eax
 6027 18e1 48018578 		addq	%rax, -136(%rbp)
 6027      FFFFFF
 6028 18e8 488B8578 		movq	-136(%rbp), %rax
 6028      FFFFFF
 6029 18ef 48898550 		movq	%rax, -176(%rbp)
 6029      FFFFFF
 6030 18f6 488B9538 		movq	-200(%rbp), %rdx
 6030      FFFFFF
 6031 18fd 488D4208 		leaq	8(%rdx), %rax
 6032 1901 48898538 		movq	%rax, -200(%rbp)
GAS LISTING /tmp/ccFaOvob.s 			page 151


 6032      FFFFFF
 6033 1908 488B8570 		movq	-144(%rbp), %rax
 6033      FFFFFF
 6034 190f 488902   		movq	%rax, (%rdx)
 6035              		.loc 1 1370 24 discriminator 2
 6036 1912 488B9540 		movq	-192(%rbp), %rdx
 6036      FFFFFF
 6037 1919 488D4208 		leaq	8(%rdx), %rax
 6038 191d 48898540 		movq	%rax, -192(%rbp)
 6038      FFFFFF
 6039 1924 488B02   		movq	(%rdx), %rax
 6040 1927 48898580 		movq	%rax, -896(%rbp)
 6040      FCFFFF
 6041 192e 48C78588 		movq	$0, -888(%rbp)
 6041      FCFFFF00 
 6041      000000
 6042 1939 488B8530 		movq	-208(%rbp), %rax
 6042      FFFFFF
 6043 1940 48898570 		movq	%rax, -912(%rbp)
 6043      FCFFFF
 6044 1947 48C78578 		movq	$0, -904(%rbp)
 6044      FCFFFF00 
 6044      000000
 6045 1952 488B9D80 		movq	-896(%rbp), %rbx
 6045      FCFFFF
 6046 1959 488BB588 		movq	-888(%rbp), %rsi
 6046      FCFFFF
 6047 1960 4889F2   		movq	%rsi, %rdx
 6048 1963 4C8B8D70 		movq	-912(%rbp), %r9
 6048      FCFFFF
 6049 196a 4C8B9578 		movq	-904(%rbp), %r10
 6049      FCFFFF
 6050 1971 490FAFD1 		imulq	%r9, %rdx
 6051 1975 4C89D0   		movq	%r10, %rax
 6052 1978 480FAFC3 		imulq	%rbx, %rax
 6053 197c 488D0C02 		leaq	(%rdx,%rax), %rcx
 6054 1980 4889D8   		movq	%rbx, %rax
 6055 1983 49F7E1   		mulq	%r9
 6056 1986 4801D1   		addq	%rdx, %rcx
 6057 1989 4889CA   		movq	%rcx, %rdx
 6058 198c 488945A0 		movq	%rax, -96(%rbp)
 6059 1990 488955A8 		movq	%rdx, -88(%rbp)
 6060 1994 488945A0 		movq	%rax, -96(%rbp)
 6061 1998 488955A8 		movq	%rdx, -88(%rbp)
 6062 199c 488B45A0 		movq	-96(%rbp), %rax
 6063 19a0 48898570 		movq	%rax, -144(%rbp)
 6063      FFFFFF
 6064 19a7 488B45A0 		movq	-96(%rbp), %rax
 6065 19ab 488B55A8 		movq	-88(%rbp), %rdx
 6066 19af 4889D0   		movq	%rdx, %rax
 6067 19b2 31D2     		xorl	%edx, %edx
 6068 19b4 48898578 		movq	%rax, -136(%rbp)
 6068      FFFFFF
 6069 19bb 488B8550 		movq	-176(%rbp), %rax
 6069      FFFFFF
 6070 19c2 48018570 		addq	%rax, -144(%rbp)
 6070      FFFFFF
GAS LISTING /tmp/ccFaOvob.s 			page 152


 6071 19c9 488B8570 		movq	-144(%rbp), %rax
 6071      FFFFFF
 6072 19d0 483B8550 		cmpq	-176(%rbp), %rax
 6072      FFFFFF
 6073 19d7 0F92C0   		setb	%al
 6074 19da 0FB6C0   		movzbl	%al, %eax
 6075 19dd 48018578 		addq	%rax, -136(%rbp)
 6075      FFFFFF
 6076 19e4 488B8538 		movq	-200(%rbp), %rax
 6076      FFFFFF
 6077 19eb 488B00   		movq	(%rax), %rax
 6078 19ee 48018570 		addq	%rax, -144(%rbp)
 6078      FFFFFF
 6079 19f5 488B8538 		movq	-200(%rbp), %rax
 6079      FFFFFF
 6080 19fc 488B00   		movq	(%rax), %rax
 6081 19ff 48398570 		cmpq	%rax, -144(%rbp)
 6081      FFFFFF
 6082 1a06 0F92C0   		setb	%al
 6083 1a09 0FB6C0   		movzbl	%al, %eax
 6084 1a0c 48018578 		addq	%rax, -136(%rbp)
 6084      FFFFFF
 6085 1a13 488B8578 		movq	-136(%rbp), %rax
 6085      FFFFFF
 6086 1a1a 48898550 		movq	%rax, -176(%rbp)
 6086      FFFFFF
 6087 1a21 488B9538 		movq	-200(%rbp), %rdx
 6087      FFFFFF
 6088 1a28 488D4208 		leaq	8(%rdx), %rax
 6089 1a2c 48898538 		movq	%rax, -200(%rbp)
 6089      FFFFFF
 6090 1a33 488B8570 		movq	-144(%rbp), %rax
 6090      FFFFFF
 6091 1a3a 488902   		movq	%rax, (%rdx)
 6092              	.LBE6:
1363:/home/xingli/share/1205tiny/network/dtls/mbedtls/mbedtls-2.16.2/library/bignum.c ****     {
 6093              		.loc 1 1363 22 discriminator 2
 6094 1a3d 4883AD48 		subq	$8, -184(%rbp)
 6094      FFFFFF08 
 6095              	.L378:
1363:/home/xingli/share/1205tiny/network/dtls/mbedtls/mbedtls-2.16.2/library/bignum.c ****     {
 6096              		.loc 1 1363 5 discriminator 1
 6097 1a45 4883BD48 		cmpq	$7, -184(%rbp)
 6097      FFFFFF07 
 6098 1a4d 0F8792F6 		ja	.L379
 6098      FFFF
1371:/home/xingli/share/1205tiny/network/dtls/mbedtls/mbedtls-2.16.2/library/bignum.c ****         MULADDC_STOP
1372:/home/xingli/share/1205tiny/network/dtls/mbedtls/mbedtls-2.16.2/library/bignum.c ****     }
1373:/home/xingli/share/1205tiny/network/dtls/mbedtls/mbedtls-2.16.2/library/bignum.c **** 
1374:/home/xingli/share/1205tiny/network/dtls/mbedtls/mbedtls-2.16.2/library/bignum.c ****     for( ; i > 0; i-- )
 6099              		.loc 1 1374 5
 6100 1a53 E9330100 		jmp	.L380
 6100      00
 6101              	.L381:
 6102              	.LBB7:
1375:/home/xingli/share/1205tiny/network/dtls/mbedtls/mbedtls-2.16.2/library/bignum.c ****     {
1376:/home/xingli/share/1205tiny/network/dtls/mbedtls/mbedtls-2.16.2/library/bignum.c ****         MULADDC_INIT
GAS LISTING /tmp/ccFaOvob.s 			page 153


1377:/home/xingli/share/1205tiny/network/dtls/mbedtls/mbedtls-2.16.2/library/bignum.c ****         MULADDC_CORE
 6103              		.loc 1 1377 9 discriminator 2
 6104 1a58 488B8540 		movq	-192(%rbp), %rax
 6104      FFFFFF
 6105 1a5f 488D5008 		leaq	8(%rax), %rdx
 6106 1a63 48899540 		movq	%rdx, -192(%rbp)
 6106      FFFFFF
 6107 1a6a 488B00   		movq	(%rax), %rax
 6108 1a6d 48898560 		movq	%rax, -928(%rbp)
 6108      FCFFFF
 6109 1a74 48C78568 		movq	$0, -920(%rbp)
 6109      FCFFFF00 
 6109      000000
 6110 1a7f 488B8530 		movq	-208(%rbp), %rax
 6110      FFFFFF
 6111 1a86 48898550 		movq	%rax, -944(%rbp)
 6111      FCFFFF
 6112 1a8d 48C78558 		movq	$0, -936(%rbp)
 6112      FCFFFF00 
 6112      000000
 6113 1a98 488B9D60 		movq	-928(%rbp), %rbx
 6113      FCFFFF
 6114 1a9f 488BB568 		movq	-920(%rbp), %rsi
 6114      FCFFFF
 6115 1aa6 4889F2   		movq	%rsi, %rdx
 6116 1aa9 4C8B8550 		movq	-944(%rbp), %r8
 6116      FCFFFF
 6117 1ab0 4C8B8D58 		movq	-936(%rbp), %r9
 6117      FCFFFF
 6118 1ab7 490FAFD0 		imulq	%r8, %rdx
 6119 1abb 4C89C8   		movq	%r9, %rax
 6120 1abe 480FAFC3 		imulq	%rbx, %rax
 6121 1ac2 488D0C02 		leaq	(%rdx,%rax), %rcx
 6122 1ac6 4889D8   		movq	%rbx, %rax
 6123 1ac9 49F7E0   		mulq	%r8
 6124 1acc 4801D1   		addq	%rdx, %rcx
 6125 1acf 4889CA   		movq	%rcx, %rdx
 6126 1ad2 48894590 		movq	%rax, -112(%rbp)
 6127 1ad6 48895598 		movq	%rdx, -104(%rbp)
 6128 1ada 48894590 		movq	%rax, -112(%rbp)
 6129 1ade 48895598 		movq	%rdx, -104(%rbp)
 6130 1ae2 488B4590 		movq	-112(%rbp), %rax
 6131 1ae6 48898560 		movq	%rax, -160(%rbp)
 6131      FFFFFF
 6132 1aed 488B4590 		movq	-112(%rbp), %rax
 6133 1af1 488B5598 		movq	-104(%rbp), %rdx
 6134 1af5 4889D0   		movq	%rdx, %rax
 6135 1af8 31D2     		xorl	%edx, %edx
 6136 1afa 48898568 		movq	%rax, -152(%rbp)
 6136      FFFFFF
 6137 1b01 488B8550 		movq	-176(%rbp), %rax
 6137      FFFFFF
 6138 1b08 48018560 		addq	%rax, -160(%rbp)
 6138      FFFFFF
 6139 1b0f 488B8560 		movq	-160(%rbp), %rax
 6139      FFFFFF
 6140 1b16 483B8550 		cmpq	-176(%rbp), %rax
GAS LISTING /tmp/ccFaOvob.s 			page 154


 6140      FFFFFF
 6141 1b1d 0F92C0   		setb	%al
 6142 1b20 0FB6C0   		movzbl	%al, %eax
 6143 1b23 48018568 		addq	%rax, -152(%rbp)
 6143      FFFFFF
 6144 1b2a 488B8538 		movq	-200(%rbp), %rax
 6144      FFFFFF
 6145 1b31 488B00   		movq	(%rax), %rax
 6146 1b34 48018560 		addq	%rax, -160(%rbp)
 6146      FFFFFF
 6147 1b3b 488B8538 		movq	-200(%rbp), %rax
 6147      FFFFFF
 6148 1b42 488B00   		movq	(%rax), %rax
 6149 1b45 48398560 		cmpq	%rax, -160(%rbp)
 6149      FFFFFF
 6150 1b4c 0F92C0   		setb	%al
 6151 1b4f 0FB6C0   		movzbl	%al, %eax
 6152 1b52 48018568 		addq	%rax, -152(%rbp)
 6152      FFFFFF
 6153 1b59 488B8568 		movq	-152(%rbp), %rax
 6153      FFFFFF
 6154 1b60 48898550 		movq	%rax, -176(%rbp)
 6154      FFFFFF
 6155 1b67 488B8538 		movq	-200(%rbp), %rax
 6155      FFFFFF
 6156 1b6e 488D5008 		leaq	8(%rax), %rdx
 6157 1b72 48899538 		movq	%rdx, -200(%rbp)
 6157      FFFFFF
 6158 1b79 488B9560 		movq	-160(%rbp), %rdx
 6158      FFFFFF
 6159 1b80 488910   		movq	%rdx, (%rax)
 6160              	.LBE7:
1374:/home/xingli/share/1205tiny/network/dtls/mbedtls/mbedtls-2.16.2/library/bignum.c ****     {
 6161              		.loc 1 1374 20 discriminator 2
 6162 1b83 4883AD48 		subq	$1, -184(%rbp)
 6162      FFFFFF01 
 6163              	.L380:
1374:/home/xingli/share/1205tiny/network/dtls/mbedtls/mbedtls-2.16.2/library/bignum.c ****     {
 6164              		.loc 1 1374 5 discriminator 1
 6165 1b8b 4883BD48 		cmpq	$0, -184(%rbp)
 6165      FFFFFF00 
 6166 1b93 0F85BFFE 		jne	.L381
 6166      FFFF
1378:/home/xingli/share/1205tiny/network/dtls/mbedtls/mbedtls-2.16.2/library/bignum.c ****         MULADDC_STOP
1379:/home/xingli/share/1205tiny/network/dtls/mbedtls/mbedtls-2.16.2/library/bignum.c ****     }
1380:/home/xingli/share/1205tiny/network/dtls/mbedtls/mbedtls-2.16.2/library/bignum.c **** #endif /* MULADDC_HUIT */
1381:/home/xingli/share/1205tiny/network/dtls/mbedtls/mbedtls-2.16.2/library/bignum.c **** 
1382:/home/xingli/share/1205tiny/network/dtls/mbedtls/mbedtls-2.16.2/library/bignum.c ****     t++;
 6167              		.loc 1 1382 6
 6168 1b99 48838558 		addq	$1, -168(%rbp)
 6168      FFFFFF01 
 6169              	.L382:
1383:/home/xingli/share/1205tiny/network/dtls/mbedtls/mbedtls-2.16.2/library/bignum.c **** 
1384:/home/xingli/share/1205tiny/network/dtls/mbedtls/mbedtls-2.16.2/library/bignum.c ****     do {
1385:/home/xingli/share/1205tiny/network/dtls/mbedtls/mbedtls-2.16.2/library/bignum.c ****         *d += c; c = ( *d < c ); d++;
 6170              		.loc 1 1385 12 discriminator 1
 6171 1ba1 488B8538 		movq	-200(%rbp), %rax
GAS LISTING /tmp/ccFaOvob.s 			page 155


 6171      FFFFFF
 6172 1ba8 488B10   		movq	(%rax), %rdx
 6173 1bab 488B8550 		movq	-176(%rbp), %rax
 6173      FFFFFF
 6174 1bb2 4801C2   		addq	%rax, %rdx
 6175 1bb5 488B8538 		movq	-200(%rbp), %rax
 6175      FFFFFF
 6176 1bbc 488910   		movq	%rdx, (%rax)
 6177              		.loc 1 1385 24 discriminator 1
 6178 1bbf 488B8538 		movq	-200(%rbp), %rax
 6178      FFFFFF
 6179 1bc6 488B00   		movq	(%rax), %rax
 6180              		.loc 1 1385 27 discriminator 1
 6181 1bc9 48398550 		cmpq	%rax, -176(%rbp)
 6181      FFFFFF
 6182 1bd0 0F97C0   		seta	%al
 6183              		.loc 1 1385 20 discriminator 1
 6184 1bd3 0FB6C0   		movzbl	%al, %eax
 6185 1bd6 48898550 		movq	%rax, -176(%rbp)
 6185      FFFFFF
 6186              		.loc 1 1385 35 discriminator 1
 6187 1bdd 48838538 		addq	$8, -200(%rbp)
 6187      FFFFFF08 
1386:/home/xingli/share/1205tiny/network/dtls/mbedtls/mbedtls-2.16.2/library/bignum.c ****     }
1387:/home/xingli/share/1205tiny/network/dtls/mbedtls/mbedtls-2.16.2/library/bignum.c ****     while( c != 0 );
 6188              		.loc 1 1387 5 discriminator 1
 6189 1be5 4883BD50 		cmpq	$0, -176(%rbp)
 6189      FFFFFF00 
 6190 1bed 75B2     		jne	.L382
1388:/home/xingli/share/1205tiny/network/dtls/mbedtls/mbedtls-2.16.2/library/bignum.c **** }
 6191              		.loc 1 1388 1
 6192 1bef 90       		nop
 6193 1bf0 488B45C8 		movq	-56(%rbp), %rax
 6194 1bf4 64483304 		xorq	%fs:40, %rax
 6194      25280000 
 6194      00
 6195 1bfd 7405     		je	.L383
 6196 1bff E8000000 		call	__stack_chk_fail@PLT
 6196      00
 6197              	.L383:
 6198 1c04 4881C488 		addq	$904, %rsp
 6198      030000
 6199 1c0b 5B       		popq	%rbx
 6200 1c0c 415C     		popq	%r12
 6201 1c0e 415D     		popq	%r13
 6202 1c10 415E     		popq	%r14
 6203 1c12 415F     		popq	%r15
 6204 1c14 5D       		popq	%rbp
 6205              	.LCFI113:
 6206              		.cfi_def_cfa 7, 8
 6207 1c15 C3       		ret
 6208              		.cfi_endproc
 6209              	.LFE43:
 6211              		.section	.text.mbedtls_mpi_mul_mpi,"ax",@progbits
 6212              		.globl	mbedtls_mpi_mul_mpi
 6214              	mbedtls_mpi_mul_mpi:
 6215              	.LFB44:
GAS LISTING /tmp/ccFaOvob.s 			page 156


1389:/home/xingli/share/1205tiny/network/dtls/mbedtls/mbedtls-2.16.2/library/bignum.c **** 
1390:/home/xingli/share/1205tiny/network/dtls/mbedtls/mbedtls-2.16.2/library/bignum.c **** /*
1391:/home/xingli/share/1205tiny/network/dtls/mbedtls/mbedtls-2.16.2/library/bignum.c ****  * Baseline multiplication: X = A * B  (HAC 14.12)
1392:/home/xingli/share/1205tiny/network/dtls/mbedtls/mbedtls-2.16.2/library/bignum.c ****  */
1393:/home/xingli/share/1205tiny/network/dtls/mbedtls/mbedtls-2.16.2/library/bignum.c **** int mbedtls_mpi_mul_mpi( mbedtls_mpi *X, const mbedtls_mpi *A, const mbedtls_mpi *B )
1394:/home/xingli/share/1205tiny/network/dtls/mbedtls/mbedtls-2.16.2/library/bignum.c **** {
 6216              		.loc 1 1394 1
 6217              		.cfi_startproc
 6218 0000 F30F1EFA 		endbr64
 6219 0004 55       		pushq	%rbp
 6220              	.LCFI114:
 6221              		.cfi_def_cfa_offset 16
 6222              		.cfi_offset 6, -16
 6223 0005 4889E5   		movq	%rsp, %rbp
 6224              	.LCFI115:
 6225              		.cfi_def_cfa_register 6
 6226 0008 4883C480 		addq	$-128, %rsp
 6227 000c 48897D98 		movq	%rdi, -104(%rbp)
 6228 0010 48897590 		movq	%rsi, -112(%rbp)
 6229 0014 48895588 		movq	%rdx, -120(%rbp)
 6230              		.loc 1 1394 1
 6231 0018 64488B04 		movq	%fs:40, %rax
 6231      25280000 
 6231      00
 6232 0021 488945F8 		movq	%rax, -8(%rbp)
 6233 0025 31C0     		xorl	%eax, %eax
1395:/home/xingli/share/1205tiny/network/dtls/mbedtls/mbedtls-2.16.2/library/bignum.c ****     int ret;
1396:/home/xingli/share/1205tiny/network/dtls/mbedtls/mbedtls-2.16.2/library/bignum.c ****     size_t i, j;
1397:/home/xingli/share/1205tiny/network/dtls/mbedtls/mbedtls-2.16.2/library/bignum.c ****     mbedtls_mpi TA, TB;
1398:/home/xingli/share/1205tiny/network/dtls/mbedtls/mbedtls-2.16.2/library/bignum.c ****     MPI_VALIDATE_RET( X != NULL );
1399:/home/xingli/share/1205tiny/network/dtls/mbedtls/mbedtls-2.16.2/library/bignum.c ****     MPI_VALIDATE_RET( A != NULL );
1400:/home/xingli/share/1205tiny/network/dtls/mbedtls/mbedtls-2.16.2/library/bignum.c ****     MPI_VALIDATE_RET( B != NULL );
1401:/home/xingli/share/1205tiny/network/dtls/mbedtls/mbedtls-2.16.2/library/bignum.c **** 
1402:/home/xingli/share/1205tiny/network/dtls/mbedtls/mbedtls-2.16.2/library/bignum.c ****     mbedtls_mpi_init( &TA ); mbedtls_mpi_init( &TB );
 6234              		.loc 1 1402 5
 6235 0027 488D45C0 		leaq	-64(%rbp), %rax
 6236 002b 4889C7   		movq	%rax, %rdi
 6237 002e E8000000 		call	mbedtls_mpi_init
 6237      00
 6238              		.loc 1 1402 30
 6239 0033 488D45E0 		leaq	-32(%rbp), %rax
 6240 0037 4889C7   		movq	%rax, %rdi
 6241 003a E8000000 		call	mbedtls_mpi_init
 6241      00
1403:/home/xingli/share/1205tiny/network/dtls/mbedtls/mbedtls-2.16.2/library/bignum.c **** 
1404:/home/xingli/share/1205tiny/network/dtls/mbedtls/mbedtls-2.16.2/library/bignum.c ****     if( X == A ) { MBEDTLS_MPI_CHK( mbedtls_mpi_copy( &TA, A ) ); A = &TA; }
 6242              		.loc 1 1404 7
 6243 003f 488B4598 		movq	-104(%rbp), %rax
 6244 0043 483B4590 		cmpq	-112(%rbp), %rax
 6245 0047 7528     		jne	.L385
 6246              		.loc 1 1404 20 discriminator 1
 6247 0049 488B5590 		movq	-112(%rbp), %rdx
 6248 004d 488D45C0 		leaq	-64(%rbp), %rax
 6249 0051 4889D6   		movq	%rdx, %rsi
 6250 0054 4889C7   		movq	%rax, %rdi
 6251 0057 E8000000 		call	mbedtls_mpi_copy
 6251      00
GAS LISTING /tmp/ccFaOvob.s 			page 157


 6252 005c 8945AC   		movl	%eax, -84(%rbp)
 6253 005f 837DAC00 		cmpl	$0, -84(%rbp)
 6254 0063 0F856401 		jne	.L404
 6254      0000
 6255              		.loc 1 1404 69 discriminator 3
 6256 0069 488D45C0 		leaq	-64(%rbp), %rax
 6257 006d 48894590 		movq	%rax, -112(%rbp)
 6258              	.L385:
1405:/home/xingli/share/1205tiny/network/dtls/mbedtls/mbedtls-2.16.2/library/bignum.c ****     if( X == B ) { MBEDTLS_MPI_CHK( mbedtls_mpi_copy( &TB, B ) ); B = &TB; }
 6259              		.loc 1 1405 7
 6260 0071 488B4598 		movq	-104(%rbp), %rax
 6261 0075 483B4588 		cmpq	-120(%rbp), %rax
 6262 0079 7528     		jne	.L388
 6263              		.loc 1 1405 20 discriminator 1
 6264 007b 488B5588 		movq	-120(%rbp), %rdx
 6265 007f 488D45E0 		leaq	-32(%rbp), %rax
 6266 0083 4889D6   		movq	%rdx, %rsi
 6267 0086 4889C7   		movq	%rax, %rdi
 6268 0089 E8000000 		call	mbedtls_mpi_copy
 6268      00
 6269 008e 8945AC   		movl	%eax, -84(%rbp)
 6270 0091 837DAC00 		cmpl	$0, -84(%rbp)
 6271 0095 0F853501 		jne	.L405
 6271      0000
 6272              		.loc 1 1405 69 discriminator 3
 6273 009b 488D45E0 		leaq	-32(%rbp), %rax
 6274 009f 48894588 		movq	%rax, -120(%rbp)
 6275              	.L388:
1406:/home/xingli/share/1205tiny/network/dtls/mbedtls/mbedtls-2.16.2/library/bignum.c **** 
1407:/home/xingli/share/1205tiny/network/dtls/mbedtls/mbedtls-2.16.2/library/bignum.c ****     for( i = A->n; i > 0; i-- )
 6276              		.loc 1 1407 12
 6277 00a3 488B4590 		movq	-112(%rbp), %rax
 6278 00a7 488B4008 		movq	8(%rax), %rax
 6279 00ab 488945B0 		movq	%rax, -80(%rbp)
 6280              		.loc 1 1407 5
 6281 00af EB24     		jmp	.L390
 6282              	.L393:
1408:/home/xingli/share/1205tiny/network/dtls/mbedtls/mbedtls-2.16.2/library/bignum.c ****         if( A->p[i - 1] != 0 )
 6283              		.loc 1 1408 14
 6284 00b1 488B4590 		movq	-112(%rbp), %rax
 6285 00b5 488B4010 		movq	16(%rax), %rax
 6286              		.loc 1 1408 17
 6287 00b9 488B55B0 		movq	-80(%rbp), %rdx
 6288 00bd 48C1E203 		salq	$3, %rdx
 6289 00c1 4883EA08 		subq	$8, %rdx
 6290 00c5 4801D0   		addq	%rdx, %rax
 6291 00c8 488B00   		movq	(%rax), %rax
 6292              		.loc 1 1408 11
 6293 00cb 4885C0   		testq	%rax, %rax
 6294 00ce 750E     		jne	.L406
1407:/home/xingli/share/1205tiny/network/dtls/mbedtls/mbedtls-2.16.2/library/bignum.c ****         if( A->p[i - 1] != 0 )
 6295              		.loc 1 1407 28 discriminator 2
 6296 00d0 48836DB0 		subq	$1, -80(%rbp)
 6296      01
 6297              	.L390:
1407:/home/xingli/share/1205tiny/network/dtls/mbedtls/mbedtls-2.16.2/library/bignum.c ****         if( A->p[i - 1] != 0 )
 6298              		.loc 1 1407 5 discriminator 1
GAS LISTING /tmp/ccFaOvob.s 			page 158


 6299 00d5 48837DB0 		cmpq	$0, -80(%rbp)
 6299      00
 6300 00da 75D5     		jne	.L393
 6301 00dc EB01     		jmp	.L392
 6302              	.L406:
1409:/home/xingli/share/1205tiny/network/dtls/mbedtls/mbedtls-2.16.2/library/bignum.c ****             break;
 6303              		.loc 1 1409 13
 6304 00de 90       		nop
 6305              	.L392:
1410:/home/xingli/share/1205tiny/network/dtls/mbedtls/mbedtls-2.16.2/library/bignum.c **** 
1411:/home/xingli/share/1205tiny/network/dtls/mbedtls/mbedtls-2.16.2/library/bignum.c ****     for( j = B->n; j > 0; j-- )
 6306              		.loc 1 1411 12
 6307 00df 488B4588 		movq	-120(%rbp), %rax
 6308 00e3 488B4008 		movq	8(%rax), %rax
 6309 00e7 488945B8 		movq	%rax, -72(%rbp)
 6310              		.loc 1 1411 5
 6311 00eb EB24     		jmp	.L394
 6312              	.L397:
1412:/home/xingli/share/1205tiny/network/dtls/mbedtls/mbedtls-2.16.2/library/bignum.c ****         if( B->p[j - 1] != 0 )
 6313              		.loc 1 1412 14
 6314 00ed 488B4588 		movq	-120(%rbp), %rax
 6315 00f1 488B4010 		movq	16(%rax), %rax
 6316              		.loc 1 1412 17
 6317 00f5 488B55B8 		movq	-72(%rbp), %rdx
 6318 00f9 48C1E203 		salq	$3, %rdx
 6319 00fd 4883EA08 		subq	$8, %rdx
 6320 0101 4801D0   		addq	%rdx, %rax
 6321 0104 488B00   		movq	(%rax), %rax
 6322              		.loc 1 1412 11
 6323 0107 4885C0   		testq	%rax, %rax
 6324 010a 750E     		jne	.L407
1411:/home/xingli/share/1205tiny/network/dtls/mbedtls/mbedtls-2.16.2/library/bignum.c ****         if( B->p[j - 1] != 0 )
 6325              		.loc 1 1411 28 discriminator 2
 6326 010c 48836DB8 		subq	$1, -72(%rbp)
 6326      01
 6327              	.L394:
1411:/home/xingli/share/1205tiny/network/dtls/mbedtls/mbedtls-2.16.2/library/bignum.c ****         if( B->p[j - 1] != 0 )
 6328              		.loc 1 1411 5 discriminator 1
 6329 0111 48837DB8 		cmpq	$0, -72(%rbp)
 6329      00
 6330 0116 75D5     		jne	.L397
 6331 0118 EB01     		jmp	.L396
 6332              	.L407:
1413:/home/xingli/share/1205tiny/network/dtls/mbedtls/mbedtls-2.16.2/library/bignum.c ****             break;
 6333              		.loc 1 1413 13
 6334 011a 90       		nop
 6335              	.L396:
1414:/home/xingli/share/1205tiny/network/dtls/mbedtls/mbedtls-2.16.2/library/bignum.c **** 
1415:/home/xingli/share/1205tiny/network/dtls/mbedtls/mbedtls-2.16.2/library/bignum.c ****     MBEDTLS_MPI_CHK( mbedtls_mpi_grow( X, i + j ) );
 6336              		.loc 1 1415 5
 6337 011b 488B55B0 		movq	-80(%rbp), %rdx
 6338 011f 488B45B8 		movq	-72(%rbp), %rax
 6339 0123 4801C2   		addq	%rax, %rdx
 6340 0126 488B4598 		movq	-104(%rbp), %rax
 6341 012a 4889D6   		movq	%rdx, %rsi
 6342 012d 4889C7   		movq	%rax, %rdi
 6343 0130 E8000000 		call	mbedtls_mpi_grow
GAS LISTING /tmp/ccFaOvob.s 			page 159


 6343      00
 6344 0135 8945AC   		movl	%eax, -84(%rbp)
 6345 0138 837DAC00 		cmpl	$0, -84(%rbp)
 6346 013c 0F859100 		jne	.L408
 6346      0000
1416:/home/xingli/share/1205tiny/network/dtls/mbedtls/mbedtls-2.16.2/library/bignum.c ****     MBEDTLS_MPI_CHK( mbedtls_mpi_lset( X, 0 ) );
 6347              		.loc 1 1416 5
 6348 0142 488B4598 		movq	-104(%rbp), %rax
 6349 0146 BE000000 		movl	$0, %esi
 6349      00
 6350 014b 4889C7   		movq	%rax, %rdi
 6351 014e E8000000 		call	mbedtls_mpi_lset
 6351      00
 6352 0153 8945AC   		movl	%eax, -84(%rbp)
 6353 0156 837DAC00 		cmpl	$0, -84(%rbp)
 6354 015a 757A     		jne	.L409
1417:/home/xingli/share/1205tiny/network/dtls/mbedtls/mbedtls-2.16.2/library/bignum.c **** 
1418:/home/xingli/share/1205tiny/network/dtls/mbedtls/mbedtls-2.16.2/library/bignum.c ****     for( ; j > 0; j-- )
 6355              		.loc 1 1418 5
 6356 015c EB51     		jmp	.L400
 6357              	.L401:
1419:/home/xingli/share/1205tiny/network/dtls/mbedtls/mbedtls-2.16.2/library/bignum.c ****         mpi_mul_hlp( i, A->p, X->p + j - 1, B->p[j - 1] );
 6358              		.loc 1 1419 46 discriminator 2
 6359 015e 488B4588 		movq	-120(%rbp), %rax
 6360 0162 488B4010 		movq	16(%rax), %rax
 6361              		.loc 1 1419 49 discriminator 2
 6362 0166 488B55B8 		movq	-72(%rbp), %rdx
 6363 016a 48C1E203 		salq	$3, %rdx
 6364 016e 4883EA08 		subq	$8, %rdx
 6365 0172 4801D0   		addq	%rdx, %rax
 6366              		.loc 1 1419 9 discriminator 2
 6367 0175 488B10   		movq	(%rax), %rdx
 6368              		.loc 1 1419 32 discriminator 2
 6369 0178 488B4598 		movq	-104(%rbp), %rax
 6370 017c 488B4010 		movq	16(%rax), %rax
 6371              		.loc 1 1419 36 discriminator 2
 6372 0180 488B4DB8 		movq	-72(%rbp), %rcx
 6373 0184 48C1E103 		salq	$3, %rcx
 6374              		.loc 1 1419 40 discriminator 2
 6375 0188 4883E908 		subq	$8, %rcx
 6376              		.loc 1 1419 9 discriminator 2
 6377 018c 488D3C08 		leaq	(%rax,%rcx), %rdi
 6378 0190 488B4590 		movq	-112(%rbp), %rax
 6379 0194 488B7010 		movq	16(%rax), %rsi
 6380 0198 488B45B0 		movq	-80(%rbp), %rax
 6381 019c 4889D1   		movq	%rdx, %rcx
 6382 019f 4889FA   		movq	%rdi, %rdx
 6383 01a2 4889C7   		movq	%rax, %rdi
 6384 01a5 E8000000 		call	mpi_mul_hlp
 6384      00
1418:/home/xingli/share/1205tiny/network/dtls/mbedtls/mbedtls-2.16.2/library/bignum.c ****         mpi_mul_hlp( i, A->p, X->p + j - 1, B->p[j - 1] );
 6385              		.loc 1 1418 20 discriminator 2
 6386 01aa 48836DB8 		subq	$1, -72(%rbp)
 6386      01
 6387              	.L400:
1418:/home/xingli/share/1205tiny/network/dtls/mbedtls/mbedtls-2.16.2/library/bignum.c ****         mpi_mul_hlp( i, A->p, X->p + j - 1, B->p[j - 1] );
 6388              		.loc 1 1418 5 discriminator 1
GAS LISTING /tmp/ccFaOvob.s 			page 160


 6389 01af 48837DB8 		cmpq	$0, -72(%rbp)
 6389      00
 6390 01b4 75A8     		jne	.L401
1420:/home/xingli/share/1205tiny/network/dtls/mbedtls/mbedtls-2.16.2/library/bignum.c **** 
1421:/home/xingli/share/1205tiny/network/dtls/mbedtls/mbedtls-2.16.2/library/bignum.c ****     X->s = A->s * B->s;
 6391              		.loc 1 1421 13
 6392 01b6 488B4590 		movq	-112(%rbp), %rax
 6393 01ba 8B10     		movl	(%rax), %edx
 6394              		.loc 1 1421 20
 6395 01bc 488B4588 		movq	-120(%rbp), %rax
 6396 01c0 8B00     		movl	(%rax), %eax
 6397              		.loc 1 1421 17
 6398 01c2 0FAFD0   		imull	%eax, %edx
 6399              		.loc 1 1421 10
 6400 01c5 488B4598 		movq	-104(%rbp), %rax
 6401 01c9 8910     		movl	%edx, (%rax)
 6402 01cb EB0A     		jmp	.L387
 6403              	.L404:
1404:/home/xingli/share/1205tiny/network/dtls/mbedtls/mbedtls-2.16.2/library/bignum.c ****     if( X == B ) { MBEDTLS_MPI_CHK( mbedtls_mpi_copy( &TB, B ) ); B = &TB; }
 6404              		.loc 1 1404 20
 6405 01cd 90       		nop
 6406 01ce EB07     		jmp	.L387
 6407              	.L405:
1405:/home/xingli/share/1205tiny/network/dtls/mbedtls/mbedtls-2.16.2/library/bignum.c **** 
 6408              		.loc 1 1405 20
 6409 01d0 90       		nop
 6410 01d1 EB04     		jmp	.L387
 6411              	.L408:
1415:/home/xingli/share/1205tiny/network/dtls/mbedtls/mbedtls-2.16.2/library/bignum.c ****     MBEDTLS_MPI_CHK( mbedtls_mpi_lset( X, 0 ) );
 6412              		.loc 1 1415 5
 6413 01d3 90       		nop
 6414 01d4 EB01     		jmp	.L387
 6415              	.L409:
1416:/home/xingli/share/1205tiny/network/dtls/mbedtls/mbedtls-2.16.2/library/bignum.c **** 
 6416              		.loc 1 1416 5
 6417 01d6 90       		nop
 6418              	.L387:
1422:/home/xingli/share/1205tiny/network/dtls/mbedtls/mbedtls-2.16.2/library/bignum.c **** 
1423:/home/xingli/share/1205tiny/network/dtls/mbedtls/mbedtls-2.16.2/library/bignum.c **** cleanup:
1424:/home/xingli/share/1205tiny/network/dtls/mbedtls/mbedtls-2.16.2/library/bignum.c **** 
1425:/home/xingli/share/1205tiny/network/dtls/mbedtls/mbedtls-2.16.2/library/bignum.c ****     mbedtls_mpi_free( &TB ); mbedtls_mpi_free( &TA );
 6419              		.loc 1 1425 5
 6420 01d7 488D45E0 		leaq	-32(%rbp), %rax
 6421 01db 4889C7   		movq	%rax, %rdi
 6422 01de E8000000 		call	mbedtls_mpi_free
 6422      00
 6423              		.loc 1 1425 30
 6424 01e3 488D45C0 		leaq	-64(%rbp), %rax
 6425 01e7 4889C7   		movq	%rax, %rdi
 6426 01ea E8000000 		call	mbedtls_mpi_free
 6426      00
1426:/home/xingli/share/1205tiny/network/dtls/mbedtls/mbedtls-2.16.2/library/bignum.c **** 
1427:/home/xingli/share/1205tiny/network/dtls/mbedtls/mbedtls-2.16.2/library/bignum.c ****     return( ret );
 6427              		.loc 1 1427 11
 6428 01ef 8B45AC   		movl	-84(%rbp), %eax
1428:/home/xingli/share/1205tiny/network/dtls/mbedtls/mbedtls-2.16.2/library/bignum.c **** }
 6429              		.loc 1 1428 1
GAS LISTING /tmp/ccFaOvob.s 			page 161


 6430 01f2 488B4DF8 		movq	-8(%rbp), %rcx
 6431 01f6 6448330C 		xorq	%fs:40, %rcx
 6431      25280000 
 6431      00
 6432 01ff 7405     		je	.L403
 6433 0201 E8000000 		call	__stack_chk_fail@PLT
 6433      00
 6434              	.L403:
 6435 0206 C9       		leave
 6436              	.LCFI116:
 6437              		.cfi_def_cfa 7, 8
 6438 0207 C3       		ret
 6439              		.cfi_endproc
 6440              	.LFE44:
 6442              		.section	.text.mbedtls_mpi_mul_int,"ax",@progbits
 6443              		.globl	mbedtls_mpi_mul_int
 6445              	mbedtls_mpi_mul_int:
 6446              	.LFB45:
1429:/home/xingli/share/1205tiny/network/dtls/mbedtls/mbedtls-2.16.2/library/bignum.c **** 
1430:/home/xingli/share/1205tiny/network/dtls/mbedtls/mbedtls-2.16.2/library/bignum.c **** /*
1431:/home/xingli/share/1205tiny/network/dtls/mbedtls/mbedtls-2.16.2/library/bignum.c ****  * Baseline multiplication: X = A * b
1432:/home/xingli/share/1205tiny/network/dtls/mbedtls/mbedtls-2.16.2/library/bignum.c ****  */
1433:/home/xingli/share/1205tiny/network/dtls/mbedtls/mbedtls-2.16.2/library/bignum.c **** int mbedtls_mpi_mul_int( mbedtls_mpi *X, const mbedtls_mpi *A, mbedtls_mpi_uint b )
1434:/home/xingli/share/1205tiny/network/dtls/mbedtls/mbedtls-2.16.2/library/bignum.c **** {
 6447              		.loc 1 1434 1
 6448              		.cfi_startproc
 6449 0000 F30F1EFA 		endbr64
 6450 0004 55       		pushq	%rbp
 6451              	.LCFI117:
 6452              		.cfi_def_cfa_offset 16
 6453              		.cfi_offset 6, -16
 6454 0005 4889E5   		movq	%rsp, %rbp
 6455              	.LCFI118:
 6456              		.cfi_def_cfa_register 6
 6457 0008 4883EC50 		subq	$80, %rsp
 6458 000c 48897DC8 		movq	%rdi, -56(%rbp)
 6459 0010 488975C0 		movq	%rsi, -64(%rbp)
 6460 0014 488955B8 		movq	%rdx, -72(%rbp)
 6461              		.loc 1 1434 1
 6462 0018 64488B04 		movq	%fs:40, %rax
 6462      25280000 
 6462      00
 6463 0021 488945F8 		movq	%rax, -8(%rbp)
 6464 0025 31C0     		xorl	%eax, %eax
1435:/home/xingli/share/1205tiny/network/dtls/mbedtls/mbedtls-2.16.2/library/bignum.c ****     mbedtls_mpi _B;
1436:/home/xingli/share/1205tiny/network/dtls/mbedtls/mbedtls-2.16.2/library/bignum.c ****     mbedtls_mpi_uint p[1];
1437:/home/xingli/share/1205tiny/network/dtls/mbedtls/mbedtls-2.16.2/library/bignum.c ****     MPI_VALIDATE_RET( X != NULL );
1438:/home/xingli/share/1205tiny/network/dtls/mbedtls/mbedtls-2.16.2/library/bignum.c ****     MPI_VALIDATE_RET( A != NULL );
1439:/home/xingli/share/1205tiny/network/dtls/mbedtls/mbedtls-2.16.2/library/bignum.c **** 
1440:/home/xingli/share/1205tiny/network/dtls/mbedtls/mbedtls-2.16.2/library/bignum.c ****     _B.s = 1;
 6465              		.loc 1 1440 10
 6466 0027 C745D001 		movl	$1, -48(%rbp)
 6466      000000
1441:/home/xingli/share/1205tiny/network/dtls/mbedtls/mbedtls-2.16.2/library/bignum.c ****     _B.n = 1;
 6467              		.loc 1 1441 10
 6468 002e 48C745D8 		movq	$1, -40(%rbp)
 6468      01000000 
GAS LISTING /tmp/ccFaOvob.s 			page 162


1442:/home/xingli/share/1205tiny/network/dtls/mbedtls/mbedtls-2.16.2/library/bignum.c ****     _B.p = p;
 6469              		.loc 1 1442 10
 6470 0036 488D45F0 		leaq	-16(%rbp), %rax
 6471 003a 488945E0 		movq	%rax, -32(%rbp)
1443:/home/xingli/share/1205tiny/network/dtls/mbedtls/mbedtls-2.16.2/library/bignum.c ****     p[0] = b;
 6472              		.loc 1 1443 10
 6473 003e 488B45B8 		movq	-72(%rbp), %rax
 6474 0042 488945F0 		movq	%rax, -16(%rbp)
1444:/home/xingli/share/1205tiny/network/dtls/mbedtls/mbedtls-2.16.2/library/bignum.c **** 
1445:/home/xingli/share/1205tiny/network/dtls/mbedtls/mbedtls-2.16.2/library/bignum.c ****     return( mbedtls_mpi_mul_mpi( X, A, &_B ) );
 6475              		.loc 1 1445 13
 6476 0046 488D55D0 		leaq	-48(%rbp), %rdx
 6477 004a 488B4DC0 		movq	-64(%rbp), %rcx
 6478 004e 488B45C8 		movq	-56(%rbp), %rax
 6479 0052 4889CE   		movq	%rcx, %rsi
 6480 0055 4889C7   		movq	%rax, %rdi
 6481 0058 E8000000 		call	mbedtls_mpi_mul_mpi
 6481      00
1446:/home/xingli/share/1205tiny/network/dtls/mbedtls/mbedtls-2.16.2/library/bignum.c **** }
 6482              		.loc 1 1446 1
 6483 005d 488B4DF8 		movq	-8(%rbp), %rcx
 6484 0061 6448330C 		xorq	%fs:40, %rcx
 6484      25280000 
 6484      00
 6485 006a 7405     		je	.L412
 6486 006c E8000000 		call	__stack_chk_fail@PLT
 6486      00
 6487              	.L412:
 6488 0071 C9       		leave
 6489              	.LCFI119:
 6490              		.cfi_def_cfa 7, 8
 6491 0072 C3       		ret
 6492              		.cfi_endproc
 6493              	.LFE45:
 6495              		.globl	__udivti3
 6496              		.section	.text.mbedtls_int_div_int,"ax",@progbits
 6498              	mbedtls_int_div_int:
 6499              	.LFB46:
1447:/home/xingli/share/1205tiny/network/dtls/mbedtls/mbedtls-2.16.2/library/bignum.c **** 
1448:/home/xingli/share/1205tiny/network/dtls/mbedtls/mbedtls-2.16.2/library/bignum.c **** /*
1449:/home/xingli/share/1205tiny/network/dtls/mbedtls/mbedtls-2.16.2/library/bignum.c ****  * Unsigned integer divide - double mbedtls_mpi_uint dividend, u1/u0, and
1450:/home/xingli/share/1205tiny/network/dtls/mbedtls/mbedtls-2.16.2/library/bignum.c ****  * mbedtls_mpi_uint divisor, d
1451:/home/xingli/share/1205tiny/network/dtls/mbedtls/mbedtls-2.16.2/library/bignum.c ****  */
1452:/home/xingli/share/1205tiny/network/dtls/mbedtls/mbedtls-2.16.2/library/bignum.c **** static mbedtls_mpi_uint mbedtls_int_div_int( mbedtls_mpi_uint u1,
1453:/home/xingli/share/1205tiny/network/dtls/mbedtls/mbedtls-2.16.2/library/bignum.c ****             mbedtls_mpi_uint u0, mbedtls_mpi_uint d, mbedtls_mpi_uint *r )
1454:/home/xingli/share/1205tiny/network/dtls/mbedtls/mbedtls-2.16.2/library/bignum.c **** {
 6500              		.loc 1 1454 1
 6501              		.cfi_startproc
 6502 0000 F30F1EFA 		endbr64
 6503 0004 55       		pushq	%rbp
 6504              	.LCFI120:
 6505              		.cfi_def_cfa_offset 16
 6506              		.cfi_offset 6, -16
 6507 0005 4889E5   		movq	%rsp, %rbp
 6508              	.LCFI121:
 6509              		.cfi_def_cfa_register 6
 6510 0008 4157     		pushq	%r15
GAS LISTING /tmp/ccFaOvob.s 			page 163


 6511 000a 4156     		pushq	%r14
 6512 000c 4155     		pushq	%r13
 6513 000e 4154     		pushq	%r12
 6514 0010 4883EC50 		subq	$80, %rsp
 6515              		.cfi_offset 15, -24
 6516              		.cfi_offset 14, -32
 6517              		.cfi_offset 13, -40
 6518              		.cfi_offset 12, -48
 6519 0014 48897DA8 		movq	%rdi, -88(%rbp)
 6520 0018 488975A0 		movq	%rsi, -96(%rbp)
 6521 001c 48895598 		movq	%rdx, -104(%rbp)
 6522 0020 48894D90 		movq	%rcx, -112(%rbp)
 6523              		.loc 1 1454 1
 6524 0024 64488B04 		movq	%fs:40, %rax
 6524      25280000 
 6524      00
 6525 002d 488945D8 		movq	%rax, -40(%rbp)
 6526 0031 31C0     		xorl	%eax, %eax
1455:/home/xingli/share/1205tiny/network/dtls/mbedtls/mbedtls-2.16.2/library/bignum.c **** #if defined(MBEDTLS_HAVE_UDBL)
1456:/home/xingli/share/1205tiny/network/dtls/mbedtls/mbedtls-2.16.2/library/bignum.c ****     mbedtls_t_udbl dividend, quotient;
1457:/home/xingli/share/1205tiny/network/dtls/mbedtls/mbedtls-2.16.2/library/bignum.c **** #else
1458:/home/xingli/share/1205tiny/network/dtls/mbedtls/mbedtls-2.16.2/library/bignum.c ****     const mbedtls_mpi_uint radix = (mbedtls_mpi_uint) 1 << biH;
1459:/home/xingli/share/1205tiny/network/dtls/mbedtls/mbedtls-2.16.2/library/bignum.c ****     const mbedtls_mpi_uint uint_halfword_mask = ( (mbedtls_mpi_uint) 1 << biH ) - 1;
1460:/home/xingli/share/1205tiny/network/dtls/mbedtls/mbedtls-2.16.2/library/bignum.c ****     mbedtls_mpi_uint d0, d1, q0, q1, rAX, r0, quotient;
1461:/home/xingli/share/1205tiny/network/dtls/mbedtls/mbedtls-2.16.2/library/bignum.c ****     mbedtls_mpi_uint u0_msw, u0_lsw;
1462:/home/xingli/share/1205tiny/network/dtls/mbedtls/mbedtls-2.16.2/library/bignum.c ****     size_t s;
1463:/home/xingli/share/1205tiny/network/dtls/mbedtls/mbedtls-2.16.2/library/bignum.c **** #endif
1464:/home/xingli/share/1205tiny/network/dtls/mbedtls/mbedtls-2.16.2/library/bignum.c **** 
1465:/home/xingli/share/1205tiny/network/dtls/mbedtls/mbedtls-2.16.2/library/bignum.c ****     /*
1466:/home/xingli/share/1205tiny/network/dtls/mbedtls/mbedtls-2.16.2/library/bignum.c ****      * Check for overflow
1467:/home/xingli/share/1205tiny/network/dtls/mbedtls/mbedtls-2.16.2/library/bignum.c ****      */
1468:/home/xingli/share/1205tiny/network/dtls/mbedtls/mbedtls-2.16.2/library/bignum.c ****     if( 0 == d || u1 >= d )
 6527              		.loc 1 1468 7
 6528 0033 48837D98 		cmpq	$0, -104(%rbp)
 6528      00
 6529 0038 740A     		je	.L414
 6530              		.loc 1 1468 16 discriminator 1
 6531 003a 488B45A8 		movq	-88(%rbp), %rax
 6532 003e 483B4598 		cmpq	-104(%rbp), %rax
 6533 0042 721E     		jb	.L415
 6534              	.L414:
1469:/home/xingli/share/1205tiny/network/dtls/mbedtls/mbedtls-2.16.2/library/bignum.c ****     {
1470:/home/xingli/share/1205tiny/network/dtls/mbedtls/mbedtls-2.16.2/library/bignum.c ****         if (r != NULL) *r = ~0;
 6535              		.loc 1 1470 12
 6536 0044 48837D90 		cmpq	$0, -112(%rbp)
 6536      00
 6537 0049 740B     		je	.L416
 6538              		.loc 1 1470 27 discriminator 1
 6539 004b 488B4590 		movq	-112(%rbp), %rax
 6540 004f 48C700FF 		movq	$-1, (%rax)
 6540      FFFFFF
 6541              	.L416:
1471:/home/xingli/share/1205tiny/network/dtls/mbedtls/mbedtls-2.16.2/library/bignum.c **** 
1472:/home/xingli/share/1205tiny/network/dtls/mbedtls/mbedtls-2.16.2/library/bignum.c ****         return ( ~0 );
 6542              		.loc 1 1472 16
 6543 0056 48C7C0FF 		movq	$-1, %rax
 6543      FFFFFF
GAS LISTING /tmp/ccFaOvob.s 			page 164


 6544 005d E9C90000 		jmp	.L417
 6544      00
 6545              	.L415:
1473:/home/xingli/share/1205tiny/network/dtls/mbedtls/mbedtls-2.16.2/library/bignum.c ****     }
1474:/home/xingli/share/1205tiny/network/dtls/mbedtls/mbedtls-2.16.2/library/bignum.c **** 
1475:/home/xingli/share/1205tiny/network/dtls/mbedtls/mbedtls-2.16.2/library/bignum.c **** #if defined(MBEDTLS_HAVE_UDBL)
1476:/home/xingli/share/1205tiny/network/dtls/mbedtls/mbedtls-2.16.2/library/bignum.c ****     dividend  = (mbedtls_t_udbl) u1 << biL;
 6546              		.loc 1 1476 17
 6547 0062 488B45A8 		movq	-88(%rbp), %rax
 6548 0066 4989C4   		movq	%rax, %r12
 6549 0069 41BD0000 		movl	$0, %r13d
 6549      0000
 6550              		.loc 1 1476 15
 6551 006f 4C89E0   		movq	%r12, %rax
 6552 0072 4C89EA   		movq	%r13, %rdx
 6553 0075 4889C2   		movq	%rax, %rdx
 6554 0078 B8000000 		movl	$0, %eax
 6554      00
 6555 007d 488945C0 		movq	%rax, -64(%rbp)
 6556 0081 488955C8 		movq	%rdx, -56(%rbp)
1477:/home/xingli/share/1205tiny/network/dtls/mbedtls/mbedtls-2.16.2/library/bignum.c ****     dividend |= (mbedtls_t_udbl) u0;
 6557              		.loc 1 1477 17
 6558 0085 488B45A0 		movq	-96(%rbp), %rax
 6559 0089 4989C0   		movq	%rax, %r8
 6560 008c 41B90000 		movl	$0, %r9d
 6560      0000
 6561              		.loc 1 1477 14
 6562 0092 4C89C0   		movq	%r8, %rax
 6563 0095 480B45C0 		orq	-64(%rbp), %rax
 6564 0099 4989C2   		movq	%rax, %r10
 6565 009c 4C89C8   		movq	%r9, %rax
 6566 009f 480B45C8 		orq	-56(%rbp), %rax
 6567 00a3 4989C3   		movq	%rax, %r11
 6568 00a6 4C8955C0 		movq	%r10, -64(%rbp)
 6569 00aa 4C895DC8 		movq	%r11, -56(%rbp)
1478:/home/xingli/share/1205tiny/network/dtls/mbedtls/mbedtls-2.16.2/library/bignum.c ****     quotient = dividend / d;
 6570              		.loc 1 1478 25
 6571 00ae 488B4598 		movq	-104(%rbp), %rax
 6572 00b2 4989C6   		movq	%rax, %r14
 6573 00b5 41BF0000 		movl	$0, %r15d
 6573      0000
 6574              		.loc 1 1478 14
 6575 00bb 488B75C0 		movq	-64(%rbp), %rsi
 6576 00bf 488B45C8 		movq	-56(%rbp), %rax
 6577 00c3 4C89F2   		movq	%r14, %rdx
 6578 00c6 4C89F9   		movq	%r15, %rcx
 6579 00c9 4889F7   		movq	%rsi, %rdi
 6580 00cc 4889C6   		movq	%rax, %rsi
 6581 00cf E8000000 		call	__udivti3@PLT
 6581      00
 6582              	.LVL0:
 6583 00d4 488945B0 		movq	%rax, -80(%rbp)
 6584 00d8 488955B8 		movq	%rdx, -72(%rbp)
1479:/home/xingli/share/1205tiny/network/dtls/mbedtls/mbedtls-2.16.2/library/bignum.c ****     if( quotient > ( (mbedtls_t_udbl) 1 << biL ) - 1 )
 6585              		.loc 1 1479 7
 6586 00dc 48C7C0FF 		movq	$-1, %rax
 6586      FFFFFF
GAS LISTING /tmp/ccFaOvob.s 			page 165


 6587 00e3 BA000000 		movl	$0, %edx
 6587      00
 6588 00e8 483B45B0 		cmpq	-80(%rbp), %rax
 6589 00ec 4889D0   		movq	%rdx, %rax
 6590 00ef 481B45B8 		sbbq	-72(%rbp), %rax
 6591 00f3 7314     		jnc	.L418
1480:/home/xingli/share/1205tiny/network/dtls/mbedtls/mbedtls-2.16.2/library/bignum.c ****         quotient = ( (mbedtls_t_udbl) 1 << biL ) - 1;
 6592              		.loc 1 1480 18
 6593 00f5 48C7C0FF 		movq	$-1, %rax
 6593      FFFFFF
 6594 00fc BA000000 		movl	$0, %edx
 6594      00
 6595 0101 488945B0 		movq	%rax, -80(%rbp)
 6596 0105 488955B8 		movq	%rdx, -72(%rbp)
 6597              	.L418:
1481:/home/xingli/share/1205tiny/network/dtls/mbedtls/mbedtls-2.16.2/library/bignum.c **** 
1482:/home/xingli/share/1205tiny/network/dtls/mbedtls/mbedtls-2.16.2/library/bignum.c ****     if( r != NULL )
 6598              		.loc 1 1482 7
 6599 0109 48837D90 		cmpq	$0, -112(%rbp)
 6599      00
 6600 010e 7417     		je	.L419
1483:/home/xingli/share/1205tiny/network/dtls/mbedtls/mbedtls-2.16.2/library/bignum.c ****         *r = (mbedtls_mpi_uint)( dividend - (quotient * d ) );
 6601              		.loc 1 1483 14
 6602 0110 488B55C0 		movq	-64(%rbp), %rdx
 6603 0114 488B45B0 		movq	-80(%rbp), %rax
 6604 0118 480FAF45 		imulq	-104(%rbp), %rax
 6604      98
 6605 011d 4829C2   		subq	%rax, %rdx
 6606              		.loc 1 1483 12
 6607 0120 488B4590 		movq	-112(%rbp), %rax
 6608 0124 488910   		movq	%rdx, (%rax)
 6609              	.L419:
1484:/home/xingli/share/1205tiny/network/dtls/mbedtls/mbedtls-2.16.2/library/bignum.c **** 
1485:/home/xingli/share/1205tiny/network/dtls/mbedtls/mbedtls-2.16.2/library/bignum.c ****     return (mbedtls_mpi_uint) quotient;
 6610              		.loc 1 1485 12
 6611 0127 488B45B0 		movq	-80(%rbp), %rax
 6612              	.L417:
1486:/home/xingli/share/1205tiny/network/dtls/mbedtls/mbedtls-2.16.2/library/bignum.c **** #else
1487:/home/xingli/share/1205tiny/network/dtls/mbedtls/mbedtls-2.16.2/library/bignum.c **** 
1488:/home/xingli/share/1205tiny/network/dtls/mbedtls/mbedtls-2.16.2/library/bignum.c ****     /*
1489:/home/xingli/share/1205tiny/network/dtls/mbedtls/mbedtls-2.16.2/library/bignum.c ****      * Algorithm D, Section 4.3.1 - The Art of Computer Programming
1490:/home/xingli/share/1205tiny/network/dtls/mbedtls/mbedtls-2.16.2/library/bignum.c ****      *   Vol. 2 - Seminumerical Algorithms, Knuth
1491:/home/xingli/share/1205tiny/network/dtls/mbedtls/mbedtls-2.16.2/library/bignum.c ****      */
1492:/home/xingli/share/1205tiny/network/dtls/mbedtls/mbedtls-2.16.2/library/bignum.c **** 
1493:/home/xingli/share/1205tiny/network/dtls/mbedtls/mbedtls-2.16.2/library/bignum.c ****     /*
1494:/home/xingli/share/1205tiny/network/dtls/mbedtls/mbedtls-2.16.2/library/bignum.c ****      * Normalize the divisor, d, and dividend, u0, u1
1495:/home/xingli/share/1205tiny/network/dtls/mbedtls/mbedtls-2.16.2/library/bignum.c ****      */
1496:/home/xingli/share/1205tiny/network/dtls/mbedtls/mbedtls-2.16.2/library/bignum.c ****     s = mbedtls_clz( d );
1497:/home/xingli/share/1205tiny/network/dtls/mbedtls/mbedtls-2.16.2/library/bignum.c ****     d = d << s;
1498:/home/xingli/share/1205tiny/network/dtls/mbedtls/mbedtls-2.16.2/library/bignum.c **** 
1499:/home/xingli/share/1205tiny/network/dtls/mbedtls/mbedtls-2.16.2/library/bignum.c ****     u1 = u1 << s;
1500:/home/xingli/share/1205tiny/network/dtls/mbedtls/mbedtls-2.16.2/library/bignum.c ****     u1 |= ( u0 >> ( biL - s ) ) & ( -(mbedtls_mpi_sint)s >> ( biL - 1 ) );
1501:/home/xingli/share/1205tiny/network/dtls/mbedtls/mbedtls-2.16.2/library/bignum.c ****     u0 =  u0 << s;
1502:/home/xingli/share/1205tiny/network/dtls/mbedtls/mbedtls-2.16.2/library/bignum.c **** 
1503:/home/xingli/share/1205tiny/network/dtls/mbedtls/mbedtls-2.16.2/library/bignum.c ****     d1 = d >> biH;
1504:/home/xingli/share/1205tiny/network/dtls/mbedtls/mbedtls-2.16.2/library/bignum.c ****     d0 = d & uint_halfword_mask;
1505:/home/xingli/share/1205tiny/network/dtls/mbedtls/mbedtls-2.16.2/library/bignum.c **** 
GAS LISTING /tmp/ccFaOvob.s 			page 166


1506:/home/xingli/share/1205tiny/network/dtls/mbedtls/mbedtls-2.16.2/library/bignum.c ****     u0_msw = u0 >> biH;
1507:/home/xingli/share/1205tiny/network/dtls/mbedtls/mbedtls-2.16.2/library/bignum.c ****     u0_lsw = u0 & uint_halfword_mask;
1508:/home/xingli/share/1205tiny/network/dtls/mbedtls/mbedtls-2.16.2/library/bignum.c **** 
1509:/home/xingli/share/1205tiny/network/dtls/mbedtls/mbedtls-2.16.2/library/bignum.c ****     /*
1510:/home/xingli/share/1205tiny/network/dtls/mbedtls/mbedtls-2.16.2/library/bignum.c ****      * Find the first quotient and remainder
1511:/home/xingli/share/1205tiny/network/dtls/mbedtls/mbedtls-2.16.2/library/bignum.c ****      */
1512:/home/xingli/share/1205tiny/network/dtls/mbedtls/mbedtls-2.16.2/library/bignum.c ****     q1 = u1 / d1;
1513:/home/xingli/share/1205tiny/network/dtls/mbedtls/mbedtls-2.16.2/library/bignum.c ****     r0 = u1 - d1 * q1;
1514:/home/xingli/share/1205tiny/network/dtls/mbedtls/mbedtls-2.16.2/library/bignum.c **** 
1515:/home/xingli/share/1205tiny/network/dtls/mbedtls/mbedtls-2.16.2/library/bignum.c ****     while( q1 >= radix || ( q1 * d0 > radix * r0 + u0_msw ) )
1516:/home/xingli/share/1205tiny/network/dtls/mbedtls/mbedtls-2.16.2/library/bignum.c ****     {
1517:/home/xingli/share/1205tiny/network/dtls/mbedtls/mbedtls-2.16.2/library/bignum.c ****         q1 -= 1;
1518:/home/xingli/share/1205tiny/network/dtls/mbedtls/mbedtls-2.16.2/library/bignum.c ****         r0 += d1;
1519:/home/xingli/share/1205tiny/network/dtls/mbedtls/mbedtls-2.16.2/library/bignum.c **** 
1520:/home/xingli/share/1205tiny/network/dtls/mbedtls/mbedtls-2.16.2/library/bignum.c ****         if ( r0 >= radix ) break;
1521:/home/xingli/share/1205tiny/network/dtls/mbedtls/mbedtls-2.16.2/library/bignum.c ****     }
1522:/home/xingli/share/1205tiny/network/dtls/mbedtls/mbedtls-2.16.2/library/bignum.c **** 
1523:/home/xingli/share/1205tiny/network/dtls/mbedtls/mbedtls-2.16.2/library/bignum.c ****     rAX = ( u1 * radix ) + ( u0_msw - q1 * d );
1524:/home/xingli/share/1205tiny/network/dtls/mbedtls/mbedtls-2.16.2/library/bignum.c ****     q0 = rAX / d1;
1525:/home/xingli/share/1205tiny/network/dtls/mbedtls/mbedtls-2.16.2/library/bignum.c ****     r0 = rAX - q0 * d1;
1526:/home/xingli/share/1205tiny/network/dtls/mbedtls/mbedtls-2.16.2/library/bignum.c **** 
1527:/home/xingli/share/1205tiny/network/dtls/mbedtls/mbedtls-2.16.2/library/bignum.c ****     while( q0 >= radix || ( q0 * d0 > radix * r0 + u0_lsw ) )
1528:/home/xingli/share/1205tiny/network/dtls/mbedtls/mbedtls-2.16.2/library/bignum.c ****     {
1529:/home/xingli/share/1205tiny/network/dtls/mbedtls/mbedtls-2.16.2/library/bignum.c ****         q0 -= 1;
1530:/home/xingli/share/1205tiny/network/dtls/mbedtls/mbedtls-2.16.2/library/bignum.c ****         r0 += d1;
1531:/home/xingli/share/1205tiny/network/dtls/mbedtls/mbedtls-2.16.2/library/bignum.c **** 
1532:/home/xingli/share/1205tiny/network/dtls/mbedtls/mbedtls-2.16.2/library/bignum.c ****         if ( r0 >= radix ) break;
1533:/home/xingli/share/1205tiny/network/dtls/mbedtls/mbedtls-2.16.2/library/bignum.c ****     }
1534:/home/xingli/share/1205tiny/network/dtls/mbedtls/mbedtls-2.16.2/library/bignum.c **** 
1535:/home/xingli/share/1205tiny/network/dtls/mbedtls/mbedtls-2.16.2/library/bignum.c ****     if (r != NULL)
1536:/home/xingli/share/1205tiny/network/dtls/mbedtls/mbedtls-2.16.2/library/bignum.c ****         *r = ( rAX * radix + u0_lsw - q0 * d ) >> s;
1537:/home/xingli/share/1205tiny/network/dtls/mbedtls/mbedtls-2.16.2/library/bignum.c **** 
1538:/home/xingli/share/1205tiny/network/dtls/mbedtls/mbedtls-2.16.2/library/bignum.c ****     quotient = q1 * radix + q0;
1539:/home/xingli/share/1205tiny/network/dtls/mbedtls/mbedtls-2.16.2/library/bignum.c **** 
1540:/home/xingli/share/1205tiny/network/dtls/mbedtls/mbedtls-2.16.2/library/bignum.c ****     return quotient;
1541:/home/xingli/share/1205tiny/network/dtls/mbedtls/mbedtls-2.16.2/library/bignum.c **** #endif
1542:/home/xingli/share/1205tiny/network/dtls/mbedtls/mbedtls-2.16.2/library/bignum.c **** }
 6613              		.loc 1 1542 1
 6614 012b 488B4DD8 		movq	-40(%rbp), %rcx
 6615 012f 6448330C 		xorq	%fs:40, %rcx
 6615      25280000 
 6615      00
 6616 0138 7405     		je	.L420
 6617 013a E8000000 		call	__stack_chk_fail@PLT
 6617      00
 6618              	.L420:
 6619 013f 4883C450 		addq	$80, %rsp
 6620 0143 415C     		popq	%r12
 6621 0145 415D     		popq	%r13
 6622 0147 415E     		popq	%r14
 6623 0149 415F     		popq	%r15
 6624 014b 5D       		popq	%rbp
 6625              	.LCFI122:
 6626              		.cfi_def_cfa 7, 8
 6627 014c C3       		ret
 6628              		.cfi_endproc
 6629              	.LFE46:
GAS LISTING /tmp/ccFaOvob.s 			page 167


 6631              		.section	.text.mbedtls_mpi_div_mpi,"ax",@progbits
 6632              		.globl	mbedtls_mpi_div_mpi
 6634              	mbedtls_mpi_div_mpi:
 6635              	.LFB47:
1543:/home/xingli/share/1205tiny/network/dtls/mbedtls/mbedtls-2.16.2/library/bignum.c **** 
1544:/home/xingli/share/1205tiny/network/dtls/mbedtls/mbedtls-2.16.2/library/bignum.c **** /*
1545:/home/xingli/share/1205tiny/network/dtls/mbedtls/mbedtls-2.16.2/library/bignum.c ****  * Division by mbedtls_mpi: A = Q * B + R  (HAC 14.20)
1546:/home/xingli/share/1205tiny/network/dtls/mbedtls/mbedtls-2.16.2/library/bignum.c ****  */
1547:/home/xingli/share/1205tiny/network/dtls/mbedtls/mbedtls-2.16.2/library/bignum.c **** int mbedtls_mpi_div_mpi( mbedtls_mpi *Q, mbedtls_mpi *R, const mbedtls_mpi *A,
1548:/home/xingli/share/1205tiny/network/dtls/mbedtls/mbedtls-2.16.2/library/bignum.c ****                          const mbedtls_mpi *B )
1549:/home/xingli/share/1205tiny/network/dtls/mbedtls/mbedtls-2.16.2/library/bignum.c **** {
 6636              		.loc 1 1549 1
 6637              		.cfi_startproc
 6638 0000 F30F1EFA 		endbr64
 6639 0004 55       		pushq	%rbp
 6640              	.LCFI123:
 6641              		.cfi_def_cfa_offset 16
 6642              		.cfi_offset 6, -16
 6643 0005 4889E5   		movq	%rsp, %rbp
 6644              	.LCFI124:
 6645              		.cfi_def_cfa_register 6
 6646 0008 53       		pushq	%rbx
 6647 0009 4881ECF8 		subq	$248, %rsp
 6647      000000
 6648              		.cfi_offset 3, -24
 6649 0010 4889BD18 		movq	%rdi, -232(%rbp)
 6649      FFFFFF
 6650 0017 4889B510 		movq	%rsi, -240(%rbp)
 6650      FFFFFF
 6651 001e 48899508 		movq	%rdx, -248(%rbp)
 6651      FFFFFF
 6652 0025 48898D00 		movq	%rcx, -256(%rbp)
 6652      FFFFFF
 6653              		.loc 1 1549 1
 6654 002c 64488B04 		movq	%fs:40, %rax
 6654      25280000 
 6654      00
 6655 0035 488945E8 		movq	%rax, -24(%rbp)
 6656 0039 31C0     		xorl	%eax, %eax
1550:/home/xingli/share/1205tiny/network/dtls/mbedtls/mbedtls-2.16.2/library/bignum.c ****     int ret;
1551:/home/xingli/share/1205tiny/network/dtls/mbedtls/mbedtls-2.16.2/library/bignum.c ****     size_t i, n, t, k;
1552:/home/xingli/share/1205tiny/network/dtls/mbedtls/mbedtls-2.16.2/library/bignum.c ****     mbedtls_mpi X, Y, Z, T1, T2;
1553:/home/xingli/share/1205tiny/network/dtls/mbedtls/mbedtls-2.16.2/library/bignum.c ****     MPI_VALIDATE_RET( A != NULL );
1554:/home/xingli/share/1205tiny/network/dtls/mbedtls/mbedtls-2.16.2/library/bignum.c ****     MPI_VALIDATE_RET( B != NULL );
1555:/home/xingli/share/1205tiny/network/dtls/mbedtls/mbedtls-2.16.2/library/bignum.c **** 
1556:/home/xingli/share/1205tiny/network/dtls/mbedtls/mbedtls-2.16.2/library/bignum.c ****     if( mbedtls_mpi_cmp_int( B, 0 ) == 0 )
 6657              		.loc 1 1556 9
 6658 003b 488B8500 		movq	-256(%rbp), %rax
 6658      FFFFFF
 6659 0042 BE000000 		movl	$0, %esi
 6659      00
 6660 0047 4889C7   		movq	%rax, %rdi
 6661 004a E8000000 		call	mbedtls_mpi_cmp_int
 6661      00
 6662              		.loc 1 1556 7
 6663 004f 85C0     		testl	%eax, %eax
 6664 0051 750A     		jne	.L422
GAS LISTING /tmp/ccFaOvob.s 			page 168


1557:/home/xingli/share/1205tiny/network/dtls/mbedtls/mbedtls-2.16.2/library/bignum.c ****         return( MBEDTLS_ERR_MPI_DIVISION_BY_ZERO );
 6665              		.loc 1 1557 15
 6666 0053 B8F4FFFF 		movl	$-12, %eax
 6666      FF
 6667 0058 E95C0900 		jmp	.L466
 6667      00
 6668              	.L422:
1558:/home/xingli/share/1205tiny/network/dtls/mbedtls/mbedtls-2.16.2/library/bignum.c **** 
1559:/home/xingli/share/1205tiny/network/dtls/mbedtls/mbedtls-2.16.2/library/bignum.c ****     mbedtls_mpi_init( &X ); mbedtls_mpi_init( &Y ); mbedtls_mpi_init( &Z );
 6669              		.loc 1 1559 5
 6670 005d 488D8550 		leaq	-176(%rbp), %rax
 6670      FFFFFF
 6671 0064 4889C7   		movq	%rax, %rdi
 6672 0067 E8000000 		call	mbedtls_mpi_init
 6672      00
 6673              		.loc 1 1559 29
 6674 006c 488D8570 		leaq	-144(%rbp), %rax
 6674      FFFFFF
 6675 0073 4889C7   		movq	%rax, %rdi
 6676 0076 E8000000 		call	mbedtls_mpi_init
 6676      00
 6677              		.loc 1 1559 53
 6678 007b 488D4590 		leaq	-112(%rbp), %rax
 6679 007f 4889C7   		movq	%rax, %rdi
 6680 0082 E8000000 		call	mbedtls_mpi_init
 6680      00
1560:/home/xingli/share/1205tiny/network/dtls/mbedtls/mbedtls-2.16.2/library/bignum.c ****     mbedtls_mpi_init( &T1 ); mbedtls_mpi_init( &T2 );
 6681              		.loc 1 1560 5
 6682 0087 488D45B0 		leaq	-80(%rbp), %rax
 6683 008b 4889C7   		movq	%rax, %rdi
 6684 008e E8000000 		call	mbedtls_mpi_init
 6684      00
 6685              		.loc 1 1560 30
 6686 0093 488D45D0 		leaq	-48(%rbp), %rax
 6687 0097 4889C7   		movq	%rax, %rdi
 6688 009a E8000000 		call	mbedtls_mpi_init
 6688      00
1561:/home/xingli/share/1205tiny/network/dtls/mbedtls/mbedtls-2.16.2/library/bignum.c **** 
1562:/home/xingli/share/1205tiny/network/dtls/mbedtls/mbedtls-2.16.2/library/bignum.c ****     if( mbedtls_mpi_cmp_abs( A, B ) < 0 )
 6689              		.loc 1 1562 9
 6690 009f 488B9500 		movq	-256(%rbp), %rdx
 6690      FFFFFF
 6691 00a6 488B8508 		movq	-248(%rbp), %rax
 6691      FFFFFF
 6692 00ad 4889D6   		movq	%rdx, %rsi
 6693 00b0 4889C7   		movq	%rax, %rdi
 6694 00b3 E8000000 		call	mbedtls_mpi_cmp_abs
 6694      00
 6695              		.loc 1 1562 7
 6696 00b8 85C0     		testl	%eax, %eax
 6697 00ba 7971     		jns	.L424
1563:/home/xingli/share/1205tiny/network/dtls/mbedtls/mbedtls-2.16.2/library/bignum.c ****     {
1564:/home/xingli/share/1205tiny/network/dtls/mbedtls/mbedtls-2.16.2/library/bignum.c ****         if( Q != NULL ) MBEDTLS_MPI_CHK( mbedtls_mpi_lset( Q, 0 ) );
 6698              		.loc 1 1564 11
 6699 00bc 4883BD18 		cmpq	$0, -232(%rbp)
 6699      FFFFFF00 
 6700 00c4 7427     		je	.L425
GAS LISTING /tmp/ccFaOvob.s 			page 169


 6701              		.loc 1 1564 25 discriminator 1
 6702 00c6 488B8518 		movq	-232(%rbp), %rax
 6702      FFFFFF
 6703 00cd BE000000 		movl	$0, %esi
 6703      00
 6704 00d2 4889C7   		movq	%rax, %rdi
 6705 00d5 E8000000 		call	mbedtls_mpi_lset
 6705      00
 6706 00da 89852CFF 		movl	%eax, -212(%rbp)
 6706      FFFF
 6707 00e0 83BD2CFF 		cmpl	$0, -212(%rbp)
 6707      FFFF00
 6708 00e7 0F853B08 		jne	.L468
 6708      0000
 6709              	.L425:
1565:/home/xingli/share/1205tiny/network/dtls/mbedtls/mbedtls-2.16.2/library/bignum.c ****         if( R != NULL ) MBEDTLS_MPI_CHK( mbedtls_mpi_copy( R, A ) );
 6710              		.loc 1 1565 11
 6711 00ed 4883BD10 		cmpq	$0, -240(%rbp)
 6711      FFFFFF00 
 6712 00f5 742C     		je	.L427
 6713              		.loc 1 1565 25 discriminator 1
 6714 00f7 488B9508 		movq	-248(%rbp), %rdx
 6714      FFFFFF
 6715 00fe 488B8510 		movq	-240(%rbp), %rax
 6715      FFFFFF
 6716 0105 4889D6   		movq	%rdx, %rsi
 6717 0108 4889C7   		movq	%rax, %rdi
 6718 010b E8000000 		call	mbedtls_mpi_copy
 6718      00
 6719 0110 89852CFF 		movl	%eax, -212(%rbp)
 6719      FFFF
 6720 0116 83BD2CFF 		cmpl	$0, -212(%rbp)
 6720      FFFF00
 6721 011d 0F850808 		jne	.L469
 6721      0000
 6722              	.L427:
1566:/home/xingli/share/1205tiny/network/dtls/mbedtls/mbedtls-2.16.2/library/bignum.c ****         return( 0 );
 6723              		.loc 1 1566 15
 6724 0123 B8000000 		movl	$0, %eax
 6724      00
 6725 0128 E98C0800 		jmp	.L466
 6725      00
 6726              	.L424:
1567:/home/xingli/share/1205tiny/network/dtls/mbedtls/mbedtls-2.16.2/library/bignum.c ****     }
1568:/home/xingli/share/1205tiny/network/dtls/mbedtls/mbedtls-2.16.2/library/bignum.c **** 
1569:/home/xingli/share/1205tiny/network/dtls/mbedtls/mbedtls-2.16.2/library/bignum.c ****     MBEDTLS_MPI_CHK( mbedtls_mpi_copy( &X, A ) );
 6727              		.loc 1 1569 5
 6728 012d 488B9508 		movq	-248(%rbp), %rdx
 6728      FFFFFF
 6729 0134 488D8550 		leaq	-176(%rbp), %rax
 6729      FFFFFF
 6730 013b 4889D6   		movq	%rdx, %rsi
 6731 013e 4889C7   		movq	%rax, %rdi
 6732 0141 E8000000 		call	mbedtls_mpi_copy
 6732      00
 6733 0146 89852CFF 		movl	%eax, -212(%rbp)
 6733      FFFF
GAS LISTING /tmp/ccFaOvob.s 			page 170


 6734 014c 83BD2CFF 		cmpl	$0, -212(%rbp)
 6734      FFFF00
 6735 0153 0F85D507 		jne	.L470
 6735      0000
1570:/home/xingli/share/1205tiny/network/dtls/mbedtls/mbedtls-2.16.2/library/bignum.c ****     MBEDTLS_MPI_CHK( mbedtls_mpi_copy( &Y, B ) );
 6736              		.loc 1 1570 5
 6737 0159 488B9500 		movq	-256(%rbp), %rdx
 6737      FFFFFF
 6738 0160 488D8570 		leaq	-144(%rbp), %rax
 6738      FFFFFF
 6739 0167 4889D6   		movq	%rdx, %rsi
 6740 016a 4889C7   		movq	%rax, %rdi
 6741 016d E8000000 		call	mbedtls_mpi_copy
 6741      00
 6742 0172 89852CFF 		movl	%eax, -212(%rbp)
 6742      FFFF
 6743 0178 83BD2CFF 		cmpl	$0, -212(%rbp)
 6743      FFFF00
 6744 017f 0F85AC07 		jne	.L471
 6744      0000
1571:/home/xingli/share/1205tiny/network/dtls/mbedtls/mbedtls-2.16.2/library/bignum.c ****     X.s = Y.s = 1;
 6745              		.loc 1 1571 15
 6746 0185 C78570FF 		movl	$1, -144(%rbp)
 6746      FFFF0100 
 6746      0000
 6747              		.loc 1 1571 12
 6748 018f 8B8570FF 		movl	-144(%rbp), %eax
 6748      FFFF
 6749              		.loc 1 1571 9
 6750 0195 898550FF 		movl	%eax, -176(%rbp)
 6750      FFFF
1572:/home/xingli/share/1205tiny/network/dtls/mbedtls/mbedtls-2.16.2/library/bignum.c **** 
1573:/home/xingli/share/1205tiny/network/dtls/mbedtls/mbedtls-2.16.2/library/bignum.c ****     MBEDTLS_MPI_CHK( mbedtls_mpi_grow( &Z, A->n + 2 ) );
 6751              		.loc 1 1573 5
 6752 019b 488B8508 		movq	-248(%rbp), %rax
 6752      FFFFFF
 6753 01a2 488B4008 		movq	8(%rax), %rax
 6754 01a6 488D5002 		leaq	2(%rax), %rdx
 6755 01aa 488D4590 		leaq	-112(%rbp), %rax
 6756 01ae 4889D6   		movq	%rdx, %rsi
 6757 01b1 4889C7   		movq	%rax, %rdi
 6758 01b4 E8000000 		call	mbedtls_mpi_grow
 6758      00
 6759 01b9 89852CFF 		movl	%eax, -212(%rbp)
 6759      FFFF
 6760 01bf 83BD2CFF 		cmpl	$0, -212(%rbp)
 6760      FFFF00
 6761 01c6 0F856807 		jne	.L472
 6761      0000
1574:/home/xingli/share/1205tiny/network/dtls/mbedtls/mbedtls-2.16.2/library/bignum.c ****     MBEDTLS_MPI_CHK( mbedtls_mpi_lset( &Z,  0 ) );
 6762              		.loc 1 1574 5
 6763 01cc 488D4590 		leaq	-112(%rbp), %rax
 6764 01d0 BE000000 		movl	$0, %esi
 6764      00
 6765 01d5 4889C7   		movq	%rax, %rdi
 6766 01d8 E8000000 		call	mbedtls_mpi_lset
 6766      00
GAS LISTING /tmp/ccFaOvob.s 			page 171


 6767 01dd 89852CFF 		movl	%eax, -212(%rbp)
 6767      FFFF
 6768 01e3 83BD2CFF 		cmpl	$0, -212(%rbp)
 6768      FFFF00
 6769 01ea 0F854707 		jne	.L473
 6769      0000
1575:/home/xingli/share/1205tiny/network/dtls/mbedtls/mbedtls-2.16.2/library/bignum.c ****     MBEDTLS_MPI_CHK( mbedtls_mpi_grow( &T1, 2 ) );
 6770              		.loc 1 1575 5
 6771 01f0 488D45B0 		leaq	-80(%rbp), %rax
 6772 01f4 BE020000 		movl	$2, %esi
 6772      00
 6773 01f9 4889C7   		movq	%rax, %rdi
 6774 01fc E8000000 		call	mbedtls_mpi_grow
 6774      00
 6775 0201 89852CFF 		movl	%eax, -212(%rbp)
 6775      FFFF
 6776 0207 83BD2CFF 		cmpl	$0, -212(%rbp)
 6776      FFFF00
 6777 020e 0F852607 		jne	.L474
 6777      0000
1576:/home/xingli/share/1205tiny/network/dtls/mbedtls/mbedtls-2.16.2/library/bignum.c ****     MBEDTLS_MPI_CHK( mbedtls_mpi_grow( &T2, 3 ) );
 6778              		.loc 1 1576 5
 6779 0214 488D45D0 		leaq	-48(%rbp), %rax
 6780 0218 BE030000 		movl	$3, %esi
 6780      00
 6781 021d 4889C7   		movq	%rax, %rdi
 6782 0220 E8000000 		call	mbedtls_mpi_grow
 6782      00
 6783 0225 89852CFF 		movl	%eax, -212(%rbp)
 6783      FFFF
 6784 022b 83BD2CFF 		cmpl	$0, -212(%rbp)
 6784      FFFF00
 6785 0232 0F850507 		jne	.L475
 6785      0000
1577:/home/xingli/share/1205tiny/network/dtls/mbedtls/mbedtls-2.16.2/library/bignum.c **** 
1578:/home/xingli/share/1205tiny/network/dtls/mbedtls/mbedtls-2.16.2/library/bignum.c ****     k = mbedtls_mpi_bitlen( &Y ) % biL;
 6786              		.loc 1 1578 9
 6787 0238 488D8570 		leaq	-144(%rbp), %rax
 6787      FFFFFF
 6788 023f 4889C7   		movq	%rax, %rdi
 6789 0242 E8000000 		call	mbedtls_mpi_bitlen
 6789      00
 6790              		.loc 1 1578 7
 6791 0247 83E03F   		andl	$63, %eax
 6792 024a 48898538 		movq	%rax, -200(%rbp)
 6792      FFFFFF
1579:/home/xingli/share/1205tiny/network/dtls/mbedtls/mbedtls-2.16.2/library/bignum.c ****     if( k < biL - 1 )
 6793              		.loc 1 1579 7
 6794 0251 4883BD38 		cmpq	$62, -200(%rbp)
 6794      FFFFFF3E 
 6795 0259 776C     		ja	.L434
1580:/home/xingli/share/1205tiny/network/dtls/mbedtls/mbedtls-2.16.2/library/bignum.c ****     {
1581:/home/xingli/share/1205tiny/network/dtls/mbedtls/mbedtls-2.16.2/library/bignum.c ****         k = biL - 1 - k;
 6796              		.loc 1 1581 11
 6797 025b B83F0000 		movl	$63, %eax
 6797      00
 6798 0260 482B8538 		subq	-200(%rbp), %rax
GAS LISTING /tmp/ccFaOvob.s 			page 172


 6798      FFFFFF
 6799 0267 48898538 		movq	%rax, -200(%rbp)
 6799      FFFFFF
1582:/home/xingli/share/1205tiny/network/dtls/mbedtls/mbedtls-2.16.2/library/bignum.c ****         MBEDTLS_MPI_CHK( mbedtls_mpi_shift_l( &X, k ) );
 6800              		.loc 1 1582 9
 6801 026e 488B9538 		movq	-200(%rbp), %rdx
 6801      FFFFFF
 6802 0275 488D8550 		leaq	-176(%rbp), %rax
 6802      FFFFFF
 6803 027c 4889D6   		movq	%rdx, %rsi
 6804 027f 4889C7   		movq	%rax, %rdi
 6805 0282 E8000000 		call	mbedtls_mpi_shift_l
 6805      00
 6806 0287 89852CFF 		movl	%eax, -212(%rbp)
 6806      FFFF
 6807 028d 83BD2CFF 		cmpl	$0, -212(%rbp)
 6807      FFFF00
 6808 0294 0F85A606 		jne	.L476
 6808      0000
1583:/home/xingli/share/1205tiny/network/dtls/mbedtls/mbedtls-2.16.2/library/bignum.c ****         MBEDTLS_MPI_CHK( mbedtls_mpi_shift_l( &Y, k ) );
 6809              		.loc 1 1583 9
 6810 029a 488B9538 		movq	-200(%rbp), %rdx
 6810      FFFFFF
 6811 02a1 488D8570 		leaq	-144(%rbp), %rax
 6811      FFFFFF
 6812 02a8 4889D6   		movq	%rdx, %rsi
 6813 02ab 4889C7   		movq	%rax, %rdi
 6814 02ae E8000000 		call	mbedtls_mpi_shift_l
 6814      00
 6815 02b3 89852CFF 		movl	%eax, -212(%rbp)
 6815      FFFF
 6816 02b9 83BD2CFF 		cmpl	$0, -212(%rbp)
 6816      FFFF00
 6817 02c0 7410     		je	.L436
 6818 02c2 E9AA0600 		jmp	.L426
 6818      00
 6819              	.L434:
1584:/home/xingli/share/1205tiny/network/dtls/mbedtls/mbedtls-2.16.2/library/bignum.c ****     }
1585:/home/xingli/share/1205tiny/network/dtls/mbedtls/mbedtls-2.16.2/library/bignum.c ****     else k = 0;
 6820              		.loc 1 1585 12
 6821 02c7 48C78538 		movq	$0, -200(%rbp)
 6821      FFFFFF00 
 6821      000000
 6822              	.L436:
1586:/home/xingli/share/1205tiny/network/dtls/mbedtls/mbedtls-2.16.2/library/bignum.c **** 
1587:/home/xingli/share/1205tiny/network/dtls/mbedtls/mbedtls-2.16.2/library/bignum.c ****     n = X.n - 1;
 6823              		.loc 1 1587 10
 6824 02d2 488B8558 		movq	-168(%rbp), %rax
 6824      FFFFFF
 6825              		.loc 1 1587 7
 6826 02d9 4883E801 		subq	$1, %rax
 6827 02dd 48898540 		movq	%rax, -192(%rbp)
 6827      FFFFFF
1588:/home/xingli/share/1205tiny/network/dtls/mbedtls/mbedtls-2.16.2/library/bignum.c ****     t = Y.n - 1;
 6828              		.loc 1 1588 10
 6829 02e4 488B8578 		movq	-136(%rbp), %rax
 6829      FFFFFF
GAS LISTING /tmp/ccFaOvob.s 			page 173


 6830              		.loc 1 1588 7
 6831 02eb 4883E801 		subq	$1, %rax
 6832 02ef 48898548 		movq	%rax, -184(%rbp)
 6832      FFFFFF
1589:/home/xingli/share/1205tiny/network/dtls/mbedtls/mbedtls-2.16.2/library/bignum.c ****     MBEDTLS_MPI_CHK( mbedtls_mpi_shift_l( &Y, biL * ( n - t ) ) );
 6833              		.loc 1 1589 5
 6834 02f6 488B8540 		movq	-192(%rbp), %rax
 6834      FFFFFF
 6835 02fd 482B8548 		subq	-184(%rbp), %rax
 6835      FFFFFF
 6836 0304 48C1E006 		salq	$6, %rax
 6837 0308 4889C2   		movq	%rax, %rdx
 6838 030b 488D8570 		leaq	-144(%rbp), %rax
 6838      FFFFFF
 6839 0312 4889D6   		movq	%rdx, %rsi
 6840 0315 4889C7   		movq	%rax, %rdi
 6841 0318 E8000000 		call	mbedtls_mpi_shift_l
 6841      00
 6842 031d 89852CFF 		movl	%eax, -212(%rbp)
 6842      FFFF
 6843 0323 83BD2CFF 		cmpl	$0, -212(%rbp)
 6843      FFFF00
 6844 032a 0F851306 		jne	.L477
 6844      0000
1590:/home/xingli/share/1205tiny/network/dtls/mbedtls/mbedtls-2.16.2/library/bignum.c **** 
1591:/home/xingli/share/1205tiny/network/dtls/mbedtls/mbedtls-2.16.2/library/bignum.c ****     while( mbedtls_mpi_cmp_mpi( &X, &Y ) >= 0 )
 6845              		.loc 1 1591 10
 6846 0330 EB56     		jmp	.L438
 6847              	.L439:
1592:/home/xingli/share/1205tiny/network/dtls/mbedtls/mbedtls-2.16.2/library/bignum.c ****     {
1593:/home/xingli/share/1205tiny/network/dtls/mbedtls/mbedtls-2.16.2/library/bignum.c ****         Z.p[n - t]++;
 6848              		.loc 1 1593 10
 6849 0332 488B55A0 		movq	-96(%rbp), %rdx
 6850              		.loc 1 1593 15
 6851 0336 488B8540 		movq	-192(%rbp), %rax
 6851      FFFFFF
 6852 033d 482B8548 		subq	-184(%rbp), %rax
 6852      FFFFFF
 6853              		.loc 1 1593 12
 6854 0344 48C1E003 		salq	$3, %rax
 6855 0348 4801D0   		addq	%rdx, %rax
 6856 034b 488B10   		movq	(%rax), %rdx
 6857              		.loc 1 1593 19
 6858 034e 4883C201 		addq	$1, %rdx
 6859 0352 488910   		movq	%rdx, (%rax)
1594:/home/xingli/share/1205tiny/network/dtls/mbedtls/mbedtls-2.16.2/library/bignum.c ****         MBEDTLS_MPI_CHK( mbedtls_mpi_sub_mpi( &X, &X, &Y ) );
 6860              		.loc 1 1594 9
 6861 0355 488D9570 		leaq	-144(%rbp), %rdx
 6861      FFFFFF
 6862 035c 488D8D50 		leaq	-176(%rbp), %rcx
 6862      FFFFFF
 6863 0363 488D8550 		leaq	-176(%rbp), %rax
 6863      FFFFFF
 6864 036a 4889CE   		movq	%rcx, %rsi
 6865 036d 4889C7   		movq	%rax, %rdi
 6866 0370 E8000000 		call	mbedtls_mpi_sub_mpi
 6866      00
GAS LISTING /tmp/ccFaOvob.s 			page 174


 6867 0375 89852CFF 		movl	%eax, -212(%rbp)
 6867      FFFF
 6868 037b 83BD2CFF 		cmpl	$0, -212(%rbp)
 6868      FFFF00
 6869 0382 0F85BE05 		jne	.L478
 6869      0000
 6870              	.L438:
1591:/home/xingli/share/1205tiny/network/dtls/mbedtls/mbedtls-2.16.2/library/bignum.c ****     {
 6871              		.loc 1 1591 12
 6872 0388 488D9570 		leaq	-144(%rbp), %rdx
 6872      FFFFFF
 6873 038f 488D8550 		leaq	-176(%rbp), %rax
 6873      FFFFFF
 6874 0396 4889D6   		movq	%rdx, %rsi
 6875 0399 4889C7   		movq	%rax, %rdi
 6876 039c E8000000 		call	mbedtls_mpi_cmp_mpi
 6876      00
1591:/home/xingli/share/1205tiny/network/dtls/mbedtls/mbedtls-2.16.2/library/bignum.c ****     {
 6877              		.loc 1 1591 10
 6878 03a1 85C0     		testl	%eax, %eax
 6879 03a3 798D     		jns	.L439
1595:/home/xingli/share/1205tiny/network/dtls/mbedtls/mbedtls-2.16.2/library/bignum.c ****     }
1596:/home/xingli/share/1205tiny/network/dtls/mbedtls/mbedtls-2.16.2/library/bignum.c ****     MBEDTLS_MPI_CHK( mbedtls_mpi_shift_r( &Y, biL * ( n - t ) ) );
 6880              		.loc 1 1596 5
 6881 03a5 488B8540 		movq	-192(%rbp), %rax
 6881      FFFFFF
 6882 03ac 482B8548 		subq	-184(%rbp), %rax
 6882      FFFFFF
 6883 03b3 48C1E006 		salq	$6, %rax
 6884 03b7 4889C2   		movq	%rax, %rdx
 6885 03ba 488D8570 		leaq	-144(%rbp), %rax
 6885      FFFFFF
 6886 03c1 4889D6   		movq	%rdx, %rsi
 6887 03c4 4889C7   		movq	%rax, %rdi
 6888 03c7 E8000000 		call	mbedtls_mpi_shift_r
 6888      00
 6889 03cc 89852CFF 		movl	%eax, -212(%rbp)
 6889      FFFF
 6890 03d2 83BD2CFF 		cmpl	$0, -212(%rbp)
 6890      FFFF00
 6891 03d9 0F856A05 		jne	.L479
 6891      0000
1597:/home/xingli/share/1205tiny/network/dtls/mbedtls/mbedtls-2.16.2/library/bignum.c **** 
1598:/home/xingli/share/1205tiny/network/dtls/mbedtls/mbedtls-2.16.2/library/bignum.c ****     for( i = n; i > t ; i-- )
 6892              		.loc 1 1598 12
 6893 03df 488B8540 		movq	-192(%rbp), %rax
 6893      FFFFFF
 6894 03e6 48898530 		movq	%rax, -208(%rbp)
 6894      FFFFFF
 6895              		.loc 1 1598 5
 6896 03ed E9390400 		jmp	.L441
 6896      00
 6897              	.L461:
1599:/home/xingli/share/1205tiny/network/dtls/mbedtls/mbedtls-2.16.2/library/bignum.c ****     {
1600:/home/xingli/share/1205tiny/network/dtls/mbedtls/mbedtls-2.16.2/library/bignum.c ****         if( X.p[i] >= Y.p[t] )
 6898              		.loc 1 1600 14
 6899 03f2 488B8560 		movq	-160(%rbp), %rax
GAS LISTING /tmp/ccFaOvob.s 			page 175


 6899      FFFFFF
 6900              		.loc 1 1600 16
 6901 03f9 488B9530 		movq	-208(%rbp), %rdx
 6901      FFFFFF
 6902 0400 48C1E203 		salq	$3, %rdx
 6903 0404 4801D0   		addq	%rdx, %rax
 6904 0407 488B10   		movq	(%rax), %rdx
 6905              		.loc 1 1600 24
 6906 040a 488B4580 		movq	-128(%rbp), %rax
 6907              		.loc 1 1600 26
 6908 040e 488B8D48 		movq	-184(%rbp), %rcx
 6908      FFFFFF
 6909 0415 48C1E103 		salq	$3, %rcx
 6910 0419 4801C8   		addq	%rcx, %rax
 6911 041c 488B00   		movq	(%rax), %rax
 6912              		.loc 1 1600 11
 6913 041f 4839C2   		cmpq	%rax, %rdx
 6914 0422 7226     		jb	.L442
1601:/home/xingli/share/1205tiny/network/dtls/mbedtls/mbedtls-2.16.2/library/bignum.c ****             Z.p[i - t - 1] = ~0;
 6915              		.loc 1 1601 14
 6916 0424 488B55A0 		movq	-96(%rbp), %rdx
 6917              		.loc 1 1601 19
 6918 0428 488B8530 		movq	-208(%rbp), %rax
 6918      FFFFFF
 6919 042f 482B8548 		subq	-184(%rbp), %rax
 6919      FFFFFF
 6920              		.loc 1 1601 16
 6921 0436 48C1E003 		salq	$3, %rax
 6922 043a 4883E808 		subq	$8, %rax
 6923 043e 4801D0   		addq	%rdx, %rax
 6924              		.loc 1 1601 28
 6925 0441 48C700FF 		movq	$-1, (%rax)
 6925      FFFFFF
 6926 0448 EB77     		jmp	.L443
 6927              	.L442:
1602:/home/xingli/share/1205tiny/network/dtls/mbedtls/mbedtls-2.16.2/library/bignum.c ****         else
1603:/home/xingli/share/1205tiny/network/dtls/mbedtls/mbedtls-2.16.2/library/bignum.c ****         {
1604:/home/xingli/share/1205tiny/network/dtls/mbedtls/mbedtls-2.16.2/library/bignum.c ****             Z.p[i - t - 1] = mbedtls_int_div_int( X.p[i], X.p[i - 1],
1605:/home/xingli/share/1205tiny/network/dtls/mbedtls/mbedtls-2.16.2/library/bignum.c ****                                                             Y.p[t], NULL);
 6928              		.loc 1 1605 62
 6929 044a 488B4580 		movq	-128(%rbp), %rax
 6930              		.loc 1 1605 64
 6931 044e 488B9548 		movq	-184(%rbp), %rdx
 6931      FFFFFF
 6932 0455 48C1E203 		salq	$3, %rdx
 6933 0459 4801D0   		addq	%rdx, %rax
1604:/home/xingli/share/1205tiny/network/dtls/mbedtls/mbedtls-2.16.2/library/bignum.c ****                                                             Y.p[t], NULL);
 6934              		.loc 1 1604 30
 6935 045c 488B10   		movq	(%rax), %rdx
1604:/home/xingli/share/1205tiny/network/dtls/mbedtls/mbedtls-2.16.2/library/bignum.c ****                                                             Y.p[t], NULL);
 6936              		.loc 1 1604 60
 6937 045f 488B8560 		movq	-160(%rbp), %rax
 6937      FFFFFF
1604:/home/xingli/share/1205tiny/network/dtls/mbedtls/mbedtls-2.16.2/library/bignum.c ****                                                             Y.p[t], NULL);
 6938              		.loc 1 1604 62
 6939 0466 488B8D30 		movq	-208(%rbp), %rcx
 6939      FFFFFF
GAS LISTING /tmp/ccFaOvob.s 			page 176


 6940 046d 48C1E103 		salq	$3, %rcx
 6941 0471 4883E908 		subq	$8, %rcx
 6942 0475 4801C8   		addq	%rcx, %rax
1604:/home/xingli/share/1205tiny/network/dtls/mbedtls/mbedtls-2.16.2/library/bignum.c ****                                                             Y.p[t], NULL);
 6943              		.loc 1 1604 30
 6944 0478 488B30   		movq	(%rax), %rsi
1604:/home/xingli/share/1205tiny/network/dtls/mbedtls/mbedtls-2.16.2/library/bignum.c ****                                                             Y.p[t], NULL);
 6945              		.loc 1 1604 52
 6946 047b 488B8560 		movq	-160(%rbp), %rax
 6946      FFFFFF
1604:/home/xingli/share/1205tiny/network/dtls/mbedtls/mbedtls-2.16.2/library/bignum.c ****                                                             Y.p[t], NULL);
 6947              		.loc 1 1604 54
 6948 0482 488B8D30 		movq	-208(%rbp), %rcx
 6948      FFFFFF
 6949 0489 48C1E103 		salq	$3, %rcx
 6950 048d 4801C8   		addq	%rcx, %rax
1604:/home/xingli/share/1205tiny/network/dtls/mbedtls/mbedtls-2.16.2/library/bignum.c ****                                                             Y.p[t], NULL);
 6951              		.loc 1 1604 30
 6952 0490 488B00   		movq	(%rax), %rax
1604:/home/xingli/share/1205tiny/network/dtls/mbedtls/mbedtls-2.16.2/library/bignum.c ****                                                             Y.p[t], NULL);
 6953              		.loc 1 1604 14
 6954 0493 488B7DA0 		movq	-96(%rbp), %rdi
1604:/home/xingli/share/1205tiny/network/dtls/mbedtls/mbedtls-2.16.2/library/bignum.c ****                                                             Y.p[t], NULL);
 6955              		.loc 1 1604 19
 6956 0497 488B8D30 		movq	-208(%rbp), %rcx
 6956      FFFFFF
 6957 049e 482B8D48 		subq	-184(%rbp), %rcx
 6957      FFFFFF
1604:/home/xingli/share/1205tiny/network/dtls/mbedtls/mbedtls-2.16.2/library/bignum.c ****                                                             Y.p[t], NULL);
 6958              		.loc 1 1604 16
 6959 04a5 48C1E103 		salq	$3, %rcx
 6960 04a9 4883E908 		subq	$8, %rcx
 6961 04ad 488D1C0F 		leaq	(%rdi,%rcx), %rbx
1604:/home/xingli/share/1205tiny/network/dtls/mbedtls/mbedtls-2.16.2/library/bignum.c ****                                                             Y.p[t], NULL);
 6962              		.loc 1 1604 30
 6963 04b1 B9000000 		movl	$0, %ecx
 6963      00
 6964 04b6 4889C7   		movq	%rax, %rdi
 6965 04b9 E8000000 		call	mbedtls_int_div_int
 6965      00
1604:/home/xingli/share/1205tiny/network/dtls/mbedtls/mbedtls-2.16.2/library/bignum.c ****                                                             Y.p[t], NULL);
 6966              		.loc 1 1604 28
 6967 04be 488903   		movq	%rax, (%rbx)
 6968              	.L443:
1606:/home/xingli/share/1205tiny/network/dtls/mbedtls/mbedtls-2.16.2/library/bignum.c ****         }
1607:/home/xingli/share/1205tiny/network/dtls/mbedtls/mbedtls-2.16.2/library/bignum.c **** 
1608:/home/xingli/share/1205tiny/network/dtls/mbedtls/mbedtls-2.16.2/library/bignum.c ****         Z.p[i - t - 1]++;
 6969              		.loc 1 1608 10
 6970 04c1 488B55A0 		movq	-96(%rbp), %rdx
 6971              		.loc 1 1608 15
 6972 04c5 488B8530 		movq	-208(%rbp), %rax
 6972      FFFFFF
 6973 04cc 482B8548 		subq	-184(%rbp), %rax
 6973      FFFFFF
 6974              		.loc 1 1608 12
 6975 04d3 48C1E003 		salq	$3, %rax
 6976 04d7 4883E808 		subq	$8, %rax
GAS LISTING /tmp/ccFaOvob.s 			page 177


 6977 04db 4801D0   		addq	%rdx, %rax
 6978 04de 488B10   		movq	(%rax), %rdx
 6979              		.loc 1 1608 23
 6980 04e1 4883C201 		addq	$1, %rdx
 6981 04e5 488910   		movq	%rdx, (%rax)
 6982              	.L453:
1609:/home/xingli/share/1205tiny/network/dtls/mbedtls/mbedtls-2.16.2/library/bignum.c ****         do
1610:/home/xingli/share/1205tiny/network/dtls/mbedtls/mbedtls-2.16.2/library/bignum.c ****         {
1611:/home/xingli/share/1205tiny/network/dtls/mbedtls/mbedtls-2.16.2/library/bignum.c ****             Z.p[i - t - 1]--;
 6983              		.loc 1 1611 14
 6984 04e8 488B55A0 		movq	-96(%rbp), %rdx
 6985              		.loc 1 1611 19
 6986 04ec 488B8530 		movq	-208(%rbp), %rax
 6986      FFFFFF
 6987 04f3 482B8548 		subq	-184(%rbp), %rax
 6987      FFFFFF
 6988              		.loc 1 1611 16
 6989 04fa 48C1E003 		salq	$3, %rax
 6990 04fe 4883E808 		subq	$8, %rax
 6991 0502 4801D0   		addq	%rdx, %rax
 6992 0505 488B10   		movq	(%rax), %rdx
 6993              		.loc 1 1611 27
 6994 0508 4883EA01 		subq	$1, %rdx
 6995 050c 488910   		movq	%rdx, (%rax)
1612:/home/xingli/share/1205tiny/network/dtls/mbedtls/mbedtls-2.16.2/library/bignum.c **** 
1613:/home/xingli/share/1205tiny/network/dtls/mbedtls/mbedtls-2.16.2/library/bignum.c ****             MBEDTLS_MPI_CHK( mbedtls_mpi_lset( &T1, 0 ) );
 6996              		.loc 1 1613 13
 6997 050f 488D45B0 		leaq	-80(%rbp), %rax
 6998 0513 BE000000 		movl	$0, %esi
 6998      00
 6999 0518 4889C7   		movq	%rax, %rdi
 7000 051b E8000000 		call	mbedtls_mpi_lset
 7000      00
 7001 0520 89852CFF 		movl	%eax, -212(%rbp)
 7001      FFFF
 7002 0526 83BD2CFF 		cmpl	$0, -212(%rbp)
 7002      FFFF00
 7003 052d 0F851904 		jne	.L480
 7003      0000
1614:/home/xingli/share/1205tiny/network/dtls/mbedtls/mbedtls-2.16.2/library/bignum.c ****             T1.p[0] = ( t < 1 ) ? 0 : Y.p[t - 1];
 7004              		.loc 1 1614 37
 7005 0533 4883BD48 		cmpq	$0, -184(%rbp)
 7005      FFFFFF00 
 7006 053b 741B     		je	.L445
 7007              		.loc 1 1614 40 discriminator 1
 7008 053d 488B4580 		movq	-128(%rbp), %rax
 7009              		.loc 1 1614 42 discriminator 1
 7010 0541 488B9548 		movq	-184(%rbp), %rdx
 7010      FFFFFF
 7011 0548 48C1E203 		salq	$3, %rdx
 7012 054c 4883EA08 		subq	$8, %rdx
 7013 0550 4801D0   		addq	%rdx, %rax
 7014              		.loc 1 1614 37 discriminator 1
 7015 0553 488B00   		movq	(%rax), %rax
 7016 0556 EB05     		jmp	.L446
 7017              	.L445:
 7018              		.loc 1 1614 37 is_stmt 0 discriminator 2
GAS LISTING /tmp/ccFaOvob.s 			page 178


 7019 0558 B8000000 		movl	$0, %eax
 7019      00
 7020              	.L446:
 7021              		.loc 1 1614 15 is_stmt 1 discriminator 4
 7022 055d 488B55C0 		movq	-64(%rbp), %rdx
 7023              		.loc 1 1614 21 discriminator 4
 7024 0561 488902   		movq	%rax, (%rdx)
1615:/home/xingli/share/1205tiny/network/dtls/mbedtls/mbedtls-2.16.2/library/bignum.c ****             T1.p[1] = Y.p[t];
 7025              		.loc 1 1615 24 discriminator 4
 7026 0564 488B4580 		movq	-128(%rbp), %rax
 7027              		.loc 1 1615 26 discriminator 4
 7028 0568 488B9548 		movq	-184(%rbp), %rdx
 7028      FFFFFF
 7029 056f 48C1E203 		salq	$3, %rdx
 7030 0573 4801D0   		addq	%rdx, %rax
 7031              		.loc 1 1615 15 discriminator 4
 7032 0576 488B55C0 		movq	-64(%rbp), %rdx
 7033              		.loc 1 1615 17 discriminator 4
 7034 057a 4883C208 		addq	$8, %rdx
 7035              		.loc 1 1615 26 discriminator 4
 7036 057e 488B00   		movq	(%rax), %rax
 7037              		.loc 1 1615 21 discriminator 4
 7038 0581 488902   		movq	%rax, (%rdx)
1616:/home/xingli/share/1205tiny/network/dtls/mbedtls/mbedtls-2.16.2/library/bignum.c ****             MBEDTLS_MPI_CHK( mbedtls_mpi_mul_int( &T1, &T1, Z.p[i - t - 1] ) );
 7039              		.loc 1 1616 13 discriminator 4
 7040 0584 488B55A0 		movq	-96(%rbp), %rdx
 7041 0588 488B8530 		movq	-208(%rbp), %rax
 7041      FFFFFF
 7042 058f 482B8548 		subq	-184(%rbp), %rax
 7042      FFFFFF
 7043 0596 48C1E003 		salq	$3, %rax
 7044 059a 4883E808 		subq	$8, %rax
 7045 059e 4801D0   		addq	%rdx, %rax
 7046 05a1 488B10   		movq	(%rax), %rdx
 7047 05a4 488D4DB0 		leaq	-80(%rbp), %rcx
 7048 05a8 488D45B0 		leaq	-80(%rbp), %rax
 7049 05ac 4889CE   		movq	%rcx, %rsi
 7050 05af 4889C7   		movq	%rax, %rdi
 7051 05b2 E8000000 		call	mbedtls_mpi_mul_int
 7051      00
 7052 05b7 89852CFF 		movl	%eax, -212(%rbp)
 7052      FFFF
 7053 05bd 83BD2CFF 		cmpl	$0, -212(%rbp)
 7053      FFFF00
 7054 05c4 0F858503 		jne	.L481
 7054      0000
1617:/home/xingli/share/1205tiny/network/dtls/mbedtls/mbedtls-2.16.2/library/bignum.c **** 
1618:/home/xingli/share/1205tiny/network/dtls/mbedtls/mbedtls-2.16.2/library/bignum.c ****             MBEDTLS_MPI_CHK( mbedtls_mpi_lset( &T2, 0 ) );
 7055              		.loc 1 1618 13
 7056 05ca 488D45D0 		leaq	-48(%rbp), %rax
 7057 05ce BE000000 		movl	$0, %esi
 7057      00
 7058 05d3 4889C7   		movq	%rax, %rdi
 7059 05d6 E8000000 		call	mbedtls_mpi_lset
 7059      00
 7060 05db 89852CFF 		movl	%eax, -212(%rbp)
 7060      FFFF
GAS LISTING /tmp/ccFaOvob.s 			page 179


 7061 05e1 83BD2CFF 		cmpl	$0, -212(%rbp)
 7061      FFFF00
 7062 05e8 0F856403 		jne	.L482
 7062      0000
1619:/home/xingli/share/1205tiny/network/dtls/mbedtls/mbedtls-2.16.2/library/bignum.c ****             T2.p[0] = ( i < 2 ) ? 0 : X.p[i - 2];
 7063              		.loc 1 1619 37
 7064 05ee 4883BD30 		cmpq	$1, -208(%rbp)
 7064      FFFFFF01 
 7065 05f6 761E     		jbe	.L449
 7066              		.loc 1 1619 40 discriminator 1
 7067 05f8 488B8560 		movq	-160(%rbp), %rax
 7067      FFFFFF
 7068              		.loc 1 1619 42 discriminator 1
 7069 05ff 488B9530 		movq	-208(%rbp), %rdx
 7069      FFFFFF
 7070 0606 48C1E203 		salq	$3, %rdx
 7071 060a 4883EA10 		subq	$16, %rdx
 7072 060e 4801D0   		addq	%rdx, %rax
 7073              		.loc 1 1619 37 discriminator 1
 7074 0611 488B00   		movq	(%rax), %rax
 7075 0614 EB05     		jmp	.L450
 7076              	.L449:
 7077              		.loc 1 1619 37 is_stmt 0 discriminator 2
 7078 0616 B8000000 		movl	$0, %eax
 7078      00
 7079              	.L450:
 7080              		.loc 1 1619 15 is_stmt 1 discriminator 4
 7081 061b 488B55E0 		movq	-32(%rbp), %rdx
 7082              		.loc 1 1619 21 discriminator 4
 7083 061f 488902   		movq	%rax, (%rdx)
1620:/home/xingli/share/1205tiny/network/dtls/mbedtls/mbedtls-2.16.2/library/bignum.c ****             T2.p[1] = ( i < 1 ) ? 0 : X.p[i - 1];
 7084              		.loc 1 1620 37 discriminator 4
 7085 0622 4883BD30 		cmpq	$0, -208(%rbp)
 7085      FFFFFF00 
 7086 062a 741E     		je	.L451
 7087              		.loc 1 1620 40 discriminator 1
 7088 062c 488B8560 		movq	-160(%rbp), %rax
 7088      FFFFFF
 7089              		.loc 1 1620 42 discriminator 1
 7090 0633 488B9530 		movq	-208(%rbp), %rdx
 7090      FFFFFF
 7091 063a 48C1E203 		salq	$3, %rdx
 7092 063e 4883EA08 		subq	$8, %rdx
 7093 0642 4801D0   		addq	%rdx, %rax
 7094              		.loc 1 1620 37 discriminator 1
 7095 0645 488B00   		movq	(%rax), %rax
 7096 0648 EB05     		jmp	.L452
 7097              	.L451:
 7098              		.loc 1 1620 37 is_stmt 0 discriminator 2
 7099 064a B8000000 		movl	$0, %eax
 7099      00
 7100              	.L452:
 7101              		.loc 1 1620 15 is_stmt 1 discriminator 4
 7102 064f 488B55E0 		movq	-32(%rbp), %rdx
 7103              		.loc 1 1620 17 discriminator 4
 7104 0653 4883C208 		addq	$8, %rdx
 7105              		.loc 1 1620 21 discriminator 4
GAS LISTING /tmp/ccFaOvob.s 			page 180


 7106 0657 488902   		movq	%rax, (%rdx)
1621:/home/xingli/share/1205tiny/network/dtls/mbedtls/mbedtls-2.16.2/library/bignum.c ****             T2.p[2] = X.p[i];
 7107              		.loc 1 1621 24 discriminator 4
 7108 065a 488B8560 		movq	-160(%rbp), %rax
 7108      FFFFFF
 7109              		.loc 1 1621 26 discriminator 4
 7110 0661 488B9530 		movq	-208(%rbp), %rdx
 7110      FFFFFF
 7111 0668 48C1E203 		salq	$3, %rdx
 7112 066c 4801D0   		addq	%rdx, %rax
 7113              		.loc 1 1621 15 discriminator 4
 7114 066f 488B55E0 		movq	-32(%rbp), %rdx
 7115              		.loc 1 1621 17 discriminator 4
 7116 0673 4883C210 		addq	$16, %rdx
 7117              		.loc 1 1621 26 discriminator 4
 7118 0677 488B00   		movq	(%rax), %rax
 7119              		.loc 1 1621 21 discriminator 4
 7120 067a 488902   		movq	%rax, (%rdx)
1622:/home/xingli/share/1205tiny/network/dtls/mbedtls/mbedtls-2.16.2/library/bignum.c ****         }
1623:/home/xingli/share/1205tiny/network/dtls/mbedtls/mbedtls-2.16.2/library/bignum.c ****         while( mbedtls_mpi_cmp_mpi( &T1, &T2 ) > 0 );
 7121              		.loc 1 1623 16 discriminator 4
 7122 067d 488D55D0 		leaq	-48(%rbp), %rdx
 7123 0681 488D45B0 		leaq	-80(%rbp), %rax
 7124 0685 4889D6   		movq	%rdx, %rsi
 7125 0688 4889C7   		movq	%rax, %rdi
 7126 068b E8000000 		call	mbedtls_mpi_cmp_mpi
 7126      00
 7127              		.loc 1 1623 9 discriminator 4
 7128 0690 85C0     		testl	%eax, %eax
 7129 0692 0F8F50FE 		jg	.L453
 7129      FFFF
1624:/home/xingli/share/1205tiny/network/dtls/mbedtls/mbedtls-2.16.2/library/bignum.c **** 
1625:/home/xingli/share/1205tiny/network/dtls/mbedtls/mbedtls-2.16.2/library/bignum.c ****         MBEDTLS_MPI_CHK( mbedtls_mpi_mul_int( &T1, &Y, Z.p[i - t - 1] ) );
 7130              		.loc 1 1625 9
 7131 0698 488B55A0 		movq	-96(%rbp), %rdx
 7132 069c 488B8530 		movq	-208(%rbp), %rax
 7132      FFFFFF
 7133 06a3 482B8548 		subq	-184(%rbp), %rax
 7133      FFFFFF
 7134 06aa 48C1E003 		salq	$3, %rax
 7135 06ae 4883E808 		subq	$8, %rax
 7136 06b2 4801D0   		addq	%rdx, %rax
 7137 06b5 488B10   		movq	(%rax), %rdx
 7138 06b8 488D8D70 		leaq	-144(%rbp), %rcx
 7138      FFFFFF
 7139 06bf 488D45B0 		leaq	-80(%rbp), %rax
 7140 06c3 4889CE   		movq	%rcx, %rsi
 7141 06c6 4889C7   		movq	%rax, %rdi
 7142 06c9 E8000000 		call	mbedtls_mpi_mul_int
 7142      00
 7143 06ce 89852CFF 		movl	%eax, -212(%rbp)
 7143      FFFF
 7144 06d4 83BD2CFF 		cmpl	$0, -212(%rbp)
 7144      FFFF00
 7145 06db 0F857402 		jne	.L483
 7145      0000
1626:/home/xingli/share/1205tiny/network/dtls/mbedtls/mbedtls-2.16.2/library/bignum.c ****         MBEDTLS_MPI_CHK( mbedtls_mpi_shift_l( &T1,  biL * ( i - t - 1 ) ) );
GAS LISTING /tmp/ccFaOvob.s 			page 181


 7146              		.loc 1 1626 9
 7147 06e1 488B8530 		movq	-208(%rbp), %rax
 7147      FFFFFF
 7148 06e8 482B8548 		subq	-184(%rbp), %rax
 7148      FFFFFF
 7149 06ef 4883E801 		subq	$1, %rax
 7150 06f3 48C1E006 		salq	$6, %rax
 7151 06f7 4889C2   		movq	%rax, %rdx
 7152 06fa 488D45B0 		leaq	-80(%rbp), %rax
 7153 06fe 4889D6   		movq	%rdx, %rsi
 7154 0701 4889C7   		movq	%rax, %rdi
 7155 0704 E8000000 		call	mbedtls_mpi_shift_l
 7155      00
 7156 0709 89852CFF 		movl	%eax, -212(%rbp)
 7156      FFFF
 7157 070f 83BD2CFF 		cmpl	$0, -212(%rbp)
 7157      FFFF00
 7158 0716 0F853C02 		jne	.L484
 7158      0000
1627:/home/xingli/share/1205tiny/network/dtls/mbedtls/mbedtls-2.16.2/library/bignum.c ****         MBEDTLS_MPI_CHK( mbedtls_mpi_sub_mpi( &X, &X, &T1 ) );
 7159              		.loc 1 1627 9
 7160 071c 488D55B0 		leaq	-80(%rbp), %rdx
 7161 0720 488D8D50 		leaq	-176(%rbp), %rcx
 7161      FFFFFF
 7162 0727 488D8550 		leaq	-176(%rbp), %rax
 7162      FFFFFF
 7163 072e 4889CE   		movq	%rcx, %rsi
 7164 0731 4889C7   		movq	%rax, %rdi
 7165 0734 E8000000 		call	mbedtls_mpi_sub_mpi
 7165      00
 7166 0739 89852CFF 		movl	%eax, -212(%rbp)
 7166      FFFF
 7167 073f 83BD2CFF 		cmpl	$0, -212(%rbp)
 7167      FFFF00
 7168 0746 0F850F02 		jne	.L485
 7168      0000
1628:/home/xingli/share/1205tiny/network/dtls/mbedtls/mbedtls-2.16.2/library/bignum.c **** 
1629:/home/xingli/share/1205tiny/network/dtls/mbedtls/mbedtls-2.16.2/library/bignum.c ****         if( mbedtls_mpi_cmp_int( &X, 0 ) < 0 )
 7169              		.loc 1 1629 13
 7170 074c 488D8550 		leaq	-176(%rbp), %rax
 7170      FFFFFF
 7171 0753 BE000000 		movl	$0, %esi
 7171      00
 7172 0758 4889C7   		movq	%rax, %rdi
 7173 075b E8000000 		call	mbedtls_mpi_cmp_int
 7173      00
 7174              		.loc 1 1629 11
 7175 0760 85C0     		testl	%eax, %eax
 7176 0762 0F89BB00 		jns	.L457
 7176      0000
1630:/home/xingli/share/1205tiny/network/dtls/mbedtls/mbedtls-2.16.2/library/bignum.c ****         {
1631:/home/xingli/share/1205tiny/network/dtls/mbedtls/mbedtls-2.16.2/library/bignum.c ****             MBEDTLS_MPI_CHK( mbedtls_mpi_copy( &T1, &Y ) );
 7177              		.loc 1 1631 13
 7178 0768 488D9570 		leaq	-144(%rbp), %rdx
 7178      FFFFFF
 7179 076f 488D45B0 		leaq	-80(%rbp), %rax
 7180 0773 4889D6   		movq	%rdx, %rsi
GAS LISTING /tmp/ccFaOvob.s 			page 182


 7181 0776 4889C7   		movq	%rax, %rdi
 7182 0779 E8000000 		call	mbedtls_mpi_copy
 7182      00
 7183 077e 89852CFF 		movl	%eax, -212(%rbp)
 7183      FFFF
 7184 0784 83BD2CFF 		cmpl	$0, -212(%rbp)
 7184      FFFF00
 7185 078b 0F85CD01 		jne	.L486
 7185      0000
1632:/home/xingli/share/1205tiny/network/dtls/mbedtls/mbedtls-2.16.2/library/bignum.c ****             MBEDTLS_MPI_CHK( mbedtls_mpi_shift_l( &T1, biL * ( i - t - 1 ) ) );
 7186              		.loc 1 1632 13
 7187 0791 488B8530 		movq	-208(%rbp), %rax
 7187      FFFFFF
 7188 0798 482B8548 		subq	-184(%rbp), %rax
 7188      FFFFFF
 7189 079f 4883E801 		subq	$1, %rax
 7190 07a3 48C1E006 		salq	$6, %rax
 7191 07a7 4889C2   		movq	%rax, %rdx
 7192 07aa 488D45B0 		leaq	-80(%rbp), %rax
 7193 07ae 4889D6   		movq	%rdx, %rsi
 7194 07b1 4889C7   		movq	%rax, %rdi
 7195 07b4 E8000000 		call	mbedtls_mpi_shift_l
 7195      00
 7196 07b9 89852CFF 		movl	%eax, -212(%rbp)
 7196      FFFF
 7197 07bf 83BD2CFF 		cmpl	$0, -212(%rbp)
 7197      FFFF00
 7198 07c6 0F859501 		jne	.L487
 7198      0000
1633:/home/xingli/share/1205tiny/network/dtls/mbedtls/mbedtls-2.16.2/library/bignum.c ****             MBEDTLS_MPI_CHK( mbedtls_mpi_add_mpi( &X, &X, &T1 ) );
 7199              		.loc 1 1633 13
 7200 07cc 488D55B0 		leaq	-80(%rbp), %rdx
 7201 07d0 488D8D50 		leaq	-176(%rbp), %rcx
 7201      FFFFFF
 7202 07d7 488D8550 		leaq	-176(%rbp), %rax
 7202      FFFFFF
 7203 07de 4889CE   		movq	%rcx, %rsi
 7204 07e1 4889C7   		movq	%rax, %rdi
 7205 07e4 E8000000 		call	mbedtls_mpi_add_mpi
 7205      00
 7206 07e9 89852CFF 		movl	%eax, -212(%rbp)
 7206      FFFF
 7207 07ef 83BD2CFF 		cmpl	$0, -212(%rbp)
 7207      FFFF00
 7208 07f6 0F856801 		jne	.L488
 7208      0000
1634:/home/xingli/share/1205tiny/network/dtls/mbedtls/mbedtls-2.16.2/library/bignum.c ****             Z.p[i - t - 1]--;
 7209              		.loc 1 1634 14
 7210 07fc 488B55A0 		movq	-96(%rbp), %rdx
 7211              		.loc 1 1634 19
 7212 0800 488B8530 		movq	-208(%rbp), %rax
 7212      FFFFFF
 7213 0807 482B8548 		subq	-184(%rbp), %rax
 7213      FFFFFF
 7214              		.loc 1 1634 16
 7215 080e 48C1E003 		salq	$3, %rax
 7216 0812 4883E808 		subq	$8, %rax
GAS LISTING /tmp/ccFaOvob.s 			page 183


 7217 0816 4801D0   		addq	%rdx, %rax
 7218 0819 488B10   		movq	(%rax), %rdx
 7219              		.loc 1 1634 27
 7220 081c 4883EA01 		subq	$1, %rdx
 7221 0820 488910   		movq	%rdx, (%rax)
 7222              	.L457:
1598:/home/xingli/share/1205tiny/network/dtls/mbedtls/mbedtls-2.16.2/library/bignum.c ****     {
 7223              		.loc 1 1598 26 discriminator 2
 7224 0823 4883AD30 		subq	$1, -208(%rbp)
 7224      FFFFFF01 
 7225              	.L441:
1598:/home/xingli/share/1205tiny/network/dtls/mbedtls/mbedtls-2.16.2/library/bignum.c ****     {
 7226              		.loc 1 1598 5 discriminator 1
 7227 082b 488B8530 		movq	-208(%rbp), %rax
 7227      FFFFFF
 7228 0832 483B8548 		cmpq	-184(%rbp), %rax
 7228      FFFFFF
 7229 0839 0F87B3FB 		ja	.L461
 7229      FFFF
1635:/home/xingli/share/1205tiny/network/dtls/mbedtls/mbedtls-2.16.2/library/bignum.c ****         }
1636:/home/xingli/share/1205tiny/network/dtls/mbedtls/mbedtls-2.16.2/library/bignum.c ****     }
1637:/home/xingli/share/1205tiny/network/dtls/mbedtls/mbedtls-2.16.2/library/bignum.c **** 
1638:/home/xingli/share/1205tiny/network/dtls/mbedtls/mbedtls-2.16.2/library/bignum.c ****     if( Q != NULL )
 7230              		.loc 1 1638 7
 7231 083f 4883BD18 		cmpq	$0, -232(%rbp)
 7231      FFFFFF00 
 7232 0847 7447     		je	.L462
1639:/home/xingli/share/1205tiny/network/dtls/mbedtls/mbedtls-2.16.2/library/bignum.c ****     {
1640:/home/xingli/share/1205tiny/network/dtls/mbedtls/mbedtls-2.16.2/library/bignum.c ****         MBEDTLS_MPI_CHK( mbedtls_mpi_copy( Q, &Z ) );
 7233              		.loc 1 1640 9
 7234 0849 488D5590 		leaq	-112(%rbp), %rdx
 7235 084d 488B8518 		movq	-232(%rbp), %rax
 7235      FFFFFF
 7236 0854 4889D6   		movq	%rdx, %rsi
 7237 0857 4889C7   		movq	%rax, %rdi
 7238 085a E8000000 		call	mbedtls_mpi_copy
 7238      00
 7239 085f 89852CFF 		movl	%eax, -212(%rbp)
 7239      FFFF
 7240 0865 83BD2CFF 		cmpl	$0, -212(%rbp)
 7240      FFFF00
 7241 086c 0F85F500 		jne	.L489
 7241      0000
1641:/home/xingli/share/1205tiny/network/dtls/mbedtls/mbedtls-2.16.2/library/bignum.c ****         Q->s = A->s * B->s;
 7242              		.loc 1 1641 17
 7243 0872 488B8508 		movq	-248(%rbp), %rax
 7243      FFFFFF
 7244 0879 8B10     		movl	(%rax), %edx
 7245              		.loc 1 1641 24
 7246 087b 488B8500 		movq	-256(%rbp), %rax
 7246      FFFFFF
 7247 0882 8B00     		movl	(%rax), %eax
 7248              		.loc 1 1641 21
 7249 0884 0FAFD0   		imull	%eax, %edx
 7250              		.loc 1 1641 14
 7251 0887 488B8518 		movq	-232(%rbp), %rax
 7251      FFFFFF
GAS LISTING /tmp/ccFaOvob.s 			page 184


 7252 088e 8910     		movl	%edx, (%rax)
 7253              	.L462:
1642:/home/xingli/share/1205tiny/network/dtls/mbedtls/mbedtls-2.16.2/library/bignum.c ****     }
1643:/home/xingli/share/1205tiny/network/dtls/mbedtls/mbedtls-2.16.2/library/bignum.c **** 
1644:/home/xingli/share/1205tiny/network/dtls/mbedtls/mbedtls-2.16.2/library/bignum.c ****     if( R != NULL )
 7254              		.loc 1 1644 7
 7255 0890 4883BD10 		cmpq	$0, -240(%rbp)
 7255      FFFFFF00 
 7256 0898 0F84CC00 		je	.L490
 7256      0000
1645:/home/xingli/share/1205tiny/network/dtls/mbedtls/mbedtls-2.16.2/library/bignum.c ****     {
1646:/home/xingli/share/1205tiny/network/dtls/mbedtls/mbedtls-2.16.2/library/bignum.c ****         MBEDTLS_MPI_CHK( mbedtls_mpi_shift_r( &X, k ) );
 7257              		.loc 1 1646 9
 7258 089e 488B9538 		movq	-200(%rbp), %rdx
 7258      FFFFFF
 7259 08a5 488D8550 		leaq	-176(%rbp), %rax
 7259      FFFFFF
 7260 08ac 4889D6   		movq	%rdx, %rsi
 7261 08af 4889C7   		movq	%rax, %rdi
 7262 08b2 E8000000 		call	mbedtls_mpi_shift_r
 7262      00
 7263 08b7 89852CFF 		movl	%eax, -212(%rbp)
 7263      FFFF
 7264 08bd 83BD2CFF 		cmpl	$0, -212(%rbp)
 7264      FFFF00
 7265 08c4 0F85A300 		jne	.L491
 7265      0000
1647:/home/xingli/share/1205tiny/network/dtls/mbedtls/mbedtls-2.16.2/library/bignum.c ****         X.s = A->s;
 7266              		.loc 1 1647 16
 7267 08ca 488B8508 		movq	-248(%rbp), %rax
 7267      FFFFFF
 7268 08d1 8B00     		movl	(%rax), %eax
 7269              		.loc 1 1647 13
 7270 08d3 898550FF 		movl	%eax, -176(%rbp)
 7270      FFFF
1648:/home/xingli/share/1205tiny/network/dtls/mbedtls/mbedtls-2.16.2/library/bignum.c ****         MBEDTLS_MPI_CHK( mbedtls_mpi_copy( R, &X ) );
 7271              		.loc 1 1648 9
 7272 08d9 488D9550 		leaq	-176(%rbp), %rdx
 7272      FFFFFF
 7273 08e0 488B8510 		movq	-240(%rbp), %rax
 7273      FFFFFF
 7274 08e7 4889D6   		movq	%rdx, %rsi
 7275 08ea 4889C7   		movq	%rax, %rdi
 7276 08ed E8000000 		call	mbedtls_mpi_copy
 7276      00
 7277 08f2 89852CFF 		movl	%eax, -212(%rbp)
 7277      FFFF
 7278 08f8 83BD2CFF 		cmpl	$0, -212(%rbp)
 7278      FFFF00
 7279 08ff 756F     		jne	.L492
1649:/home/xingli/share/1205tiny/network/dtls/mbedtls/mbedtls-2.16.2/library/bignum.c **** 
1650:/home/xingli/share/1205tiny/network/dtls/mbedtls/mbedtls-2.16.2/library/bignum.c ****         if( mbedtls_mpi_cmp_int( R, 0 ) == 0 )
 7280              		.loc 1 1650 13
 7281 0901 488B8510 		movq	-240(%rbp), %rax
 7281      FFFFFF
 7282 0908 BE000000 		movl	$0, %esi
 7282      00
GAS LISTING /tmp/ccFaOvob.s 			page 185


 7283 090d 4889C7   		movq	%rax, %rdi
 7284 0910 E8000000 		call	mbedtls_mpi_cmp_int
 7284      00
 7285              		.loc 1 1650 11
 7286 0915 85C0     		testl	%eax, %eax
 7287 0917 7551     		jne	.L490
1651:/home/xingli/share/1205tiny/network/dtls/mbedtls/mbedtls-2.16.2/library/bignum.c ****             R->s = 1;
 7288              		.loc 1 1651 18
 7289 0919 488B8510 		movq	-240(%rbp), %rax
 7289      FFFFFF
 7290 0920 C7000100 		movl	$1, (%rax)
 7290      0000
 7291 0926 EB49     		jmp	.L426
 7292              	.L468:
1564:/home/xingli/share/1205tiny/network/dtls/mbedtls/mbedtls-2.16.2/library/bignum.c ****         if( R != NULL ) MBEDTLS_MPI_CHK( mbedtls_mpi_copy( R, A ) );
 7293              		.loc 1 1564 25
 7294 0928 90       		nop
 7295 0929 EB46     		jmp	.L426
 7296              	.L469:
1565:/home/xingli/share/1205tiny/network/dtls/mbedtls/mbedtls-2.16.2/library/bignum.c ****         return( 0 );
 7297              		.loc 1 1565 25
 7298 092b 90       		nop
 7299 092c EB43     		jmp	.L426
 7300              	.L470:
1569:/home/xingli/share/1205tiny/network/dtls/mbedtls/mbedtls-2.16.2/library/bignum.c ****     MBEDTLS_MPI_CHK( mbedtls_mpi_copy( &Y, B ) );
 7301              		.loc 1 1569 5
 7302 092e 90       		nop
 7303 092f EB40     		jmp	.L426
 7304              	.L471:
1570:/home/xingli/share/1205tiny/network/dtls/mbedtls/mbedtls-2.16.2/library/bignum.c ****     X.s = Y.s = 1;
 7305              		.loc 1 1570 5
 7306 0931 90       		nop
 7307 0932 EB3D     		jmp	.L426
 7308              	.L472:
1573:/home/xingli/share/1205tiny/network/dtls/mbedtls/mbedtls-2.16.2/library/bignum.c ****     MBEDTLS_MPI_CHK( mbedtls_mpi_lset( &Z,  0 ) );
 7309              		.loc 1 1573 5
 7310 0934 90       		nop
 7311 0935 EB3A     		jmp	.L426
 7312              	.L473:
1574:/home/xingli/share/1205tiny/network/dtls/mbedtls/mbedtls-2.16.2/library/bignum.c ****     MBEDTLS_MPI_CHK( mbedtls_mpi_grow( &T1, 2 ) );
 7313              		.loc 1 1574 5
 7314 0937 90       		nop
 7315 0938 EB37     		jmp	.L426
 7316              	.L474:
1575:/home/xingli/share/1205tiny/network/dtls/mbedtls/mbedtls-2.16.2/library/bignum.c ****     MBEDTLS_MPI_CHK( mbedtls_mpi_grow( &T2, 3 ) );
 7317              		.loc 1 1575 5
 7318 093a 90       		nop
 7319 093b EB34     		jmp	.L426
 7320              	.L475:
1576:/home/xingli/share/1205tiny/network/dtls/mbedtls/mbedtls-2.16.2/library/bignum.c **** 
 7321              		.loc 1 1576 5
 7322 093d 90       		nop
 7323 093e EB31     		jmp	.L426
 7324              	.L476:
1582:/home/xingli/share/1205tiny/network/dtls/mbedtls/mbedtls-2.16.2/library/bignum.c ****         MBEDTLS_MPI_CHK( mbedtls_mpi_shift_l( &Y, k ) );
 7325              		.loc 1 1582 9
 7326 0940 90       		nop
GAS LISTING /tmp/ccFaOvob.s 			page 186


 7327 0941 EB2E     		jmp	.L426
 7328              	.L477:
1589:/home/xingli/share/1205tiny/network/dtls/mbedtls/mbedtls-2.16.2/library/bignum.c **** 
 7329              		.loc 1 1589 5
 7330 0943 90       		nop
 7331 0944 EB2B     		jmp	.L426
 7332              	.L478:
1594:/home/xingli/share/1205tiny/network/dtls/mbedtls/mbedtls-2.16.2/library/bignum.c ****     }
 7333              		.loc 1 1594 9
 7334 0946 90       		nop
 7335 0947 EB28     		jmp	.L426
 7336              	.L479:
1596:/home/xingli/share/1205tiny/network/dtls/mbedtls/mbedtls-2.16.2/library/bignum.c **** 
 7337              		.loc 1 1596 5
 7338 0949 90       		nop
 7339 094a EB25     		jmp	.L426
 7340              	.L480:
1613:/home/xingli/share/1205tiny/network/dtls/mbedtls/mbedtls-2.16.2/library/bignum.c ****             T1.p[0] = ( t < 1 ) ? 0 : Y.p[t - 1];
 7341              		.loc 1 1613 13
 7342 094c 90       		nop
 7343 094d EB22     		jmp	.L426
 7344              	.L481:
1616:/home/xingli/share/1205tiny/network/dtls/mbedtls/mbedtls-2.16.2/library/bignum.c **** 
 7345              		.loc 1 1616 13
 7346 094f 90       		nop
 7347 0950 EB1F     		jmp	.L426
 7348              	.L482:
1618:/home/xingli/share/1205tiny/network/dtls/mbedtls/mbedtls-2.16.2/library/bignum.c ****             T2.p[0] = ( i < 2 ) ? 0 : X.p[i - 2];
 7349              		.loc 1 1618 13
 7350 0952 90       		nop
 7351 0953 EB1C     		jmp	.L426
 7352              	.L483:
1625:/home/xingli/share/1205tiny/network/dtls/mbedtls/mbedtls-2.16.2/library/bignum.c ****         MBEDTLS_MPI_CHK( mbedtls_mpi_shift_l( &T1,  biL * ( i - t - 1 ) ) );
 7353              		.loc 1 1625 9
 7354 0955 90       		nop
 7355 0956 EB19     		jmp	.L426
 7356              	.L484:
1626:/home/xingli/share/1205tiny/network/dtls/mbedtls/mbedtls-2.16.2/library/bignum.c ****         MBEDTLS_MPI_CHK( mbedtls_mpi_sub_mpi( &X, &X, &T1 ) );
 7357              		.loc 1 1626 9
 7358 0958 90       		nop
 7359 0959 EB16     		jmp	.L426
 7360              	.L485:
1627:/home/xingli/share/1205tiny/network/dtls/mbedtls/mbedtls-2.16.2/library/bignum.c **** 
 7361              		.loc 1 1627 9
 7362 095b 90       		nop
 7363 095c EB13     		jmp	.L426
 7364              	.L486:
1631:/home/xingli/share/1205tiny/network/dtls/mbedtls/mbedtls-2.16.2/library/bignum.c ****             MBEDTLS_MPI_CHK( mbedtls_mpi_shift_l( &T1, biL * ( i - t - 1 ) ) );
 7365              		.loc 1 1631 13
 7366 095e 90       		nop
 7367 095f EB10     		jmp	.L426
 7368              	.L487:
1632:/home/xingli/share/1205tiny/network/dtls/mbedtls/mbedtls-2.16.2/library/bignum.c ****             MBEDTLS_MPI_CHK( mbedtls_mpi_add_mpi( &X, &X, &T1 ) );
 7369              		.loc 1 1632 13
 7370 0961 90       		nop
 7371 0962 EB0D     		jmp	.L426
 7372              	.L488:
GAS LISTING /tmp/ccFaOvob.s 			page 187


1633:/home/xingli/share/1205tiny/network/dtls/mbedtls/mbedtls-2.16.2/library/bignum.c ****             Z.p[i - t - 1]--;
 7373              		.loc 1 1633 13
 7374 0964 90       		nop
 7375 0965 EB0A     		jmp	.L426
 7376              	.L489:
1640:/home/xingli/share/1205tiny/network/dtls/mbedtls/mbedtls-2.16.2/library/bignum.c ****         Q->s = A->s * B->s;
 7377              		.loc 1 1640 9
 7378 0967 90       		nop
 7379 0968 EB07     		jmp	.L426
 7380              	.L490:
1652:/home/xingli/share/1205tiny/network/dtls/mbedtls/mbedtls-2.16.2/library/bignum.c ****     }
1653:/home/xingli/share/1205tiny/network/dtls/mbedtls/mbedtls-2.16.2/library/bignum.c **** 
1654:/home/xingli/share/1205tiny/network/dtls/mbedtls/mbedtls-2.16.2/library/bignum.c **** cleanup:
 7381              		.loc 1 1654 1
 7382 096a 90       		nop
 7383 096b EB04     		jmp	.L426
 7384              	.L491:
1646:/home/xingli/share/1205tiny/network/dtls/mbedtls/mbedtls-2.16.2/library/bignum.c ****         X.s = A->s;
 7385              		.loc 1 1646 9
 7386 096d 90       		nop
 7387 096e EB01     		jmp	.L426
 7388              	.L492:
1648:/home/xingli/share/1205tiny/network/dtls/mbedtls/mbedtls-2.16.2/library/bignum.c **** 
 7389              		.loc 1 1648 9
 7390 0970 90       		nop
 7391              	.L426:
1655:/home/xingli/share/1205tiny/network/dtls/mbedtls/mbedtls-2.16.2/library/bignum.c **** 
1656:/home/xingli/share/1205tiny/network/dtls/mbedtls/mbedtls-2.16.2/library/bignum.c ****     mbedtls_mpi_free( &X ); mbedtls_mpi_free( &Y ); mbedtls_mpi_free( &Z );
 7392              		.loc 1 1656 5
 7393 0971 488D8550 		leaq	-176(%rbp), %rax
 7393      FFFFFF
 7394 0978 4889C7   		movq	%rax, %rdi
 7395 097b E8000000 		call	mbedtls_mpi_free
 7395      00
 7396              		.loc 1 1656 29
 7397 0980 488D8570 		leaq	-144(%rbp), %rax
 7397      FFFFFF
 7398 0987 4889C7   		movq	%rax, %rdi
 7399 098a E8000000 		call	mbedtls_mpi_free
 7399      00
 7400              		.loc 1 1656 53
 7401 098f 488D4590 		leaq	-112(%rbp), %rax
 7402 0993 4889C7   		movq	%rax, %rdi
 7403 0996 E8000000 		call	mbedtls_mpi_free
 7403      00
1657:/home/xingli/share/1205tiny/network/dtls/mbedtls/mbedtls-2.16.2/library/bignum.c ****     mbedtls_mpi_free( &T1 ); mbedtls_mpi_free( &T2 );
 7404              		.loc 1 1657 5
 7405 099b 488D45B0 		leaq	-80(%rbp), %rax
 7406 099f 4889C7   		movq	%rax, %rdi
 7407 09a2 E8000000 		call	mbedtls_mpi_free
 7407      00
 7408              		.loc 1 1657 30
 7409 09a7 488D45D0 		leaq	-48(%rbp), %rax
 7410 09ab 4889C7   		movq	%rax, %rdi
 7411 09ae E8000000 		call	mbedtls_mpi_free
 7411      00
1658:/home/xingli/share/1205tiny/network/dtls/mbedtls/mbedtls-2.16.2/library/bignum.c **** 
GAS LISTING /tmp/ccFaOvob.s 			page 188


1659:/home/xingli/share/1205tiny/network/dtls/mbedtls/mbedtls-2.16.2/library/bignum.c ****     return( ret );
 7412              		.loc 1 1659 11
 7413 09b3 8B852CFF 		movl	-212(%rbp), %eax
 7413      FFFF
 7414              	.L466:
1660:/home/xingli/share/1205tiny/network/dtls/mbedtls/mbedtls-2.16.2/library/bignum.c **** }
 7415              		.loc 1 1660 1 discriminator 1
 7416 09b9 488B5DE8 		movq	-24(%rbp), %rbx
 7417 09bd 6448331C 		xorq	%fs:40, %rbx
 7417      25280000 
 7417      00
 7418 09c6 7405     		je	.L467
 7419              		.loc 1 1660 1 is_stmt 0
 7420 09c8 E8000000 		call	__stack_chk_fail@PLT
 7420      00
 7421              	.L467:
 7422 09cd 4881C4F8 		addq	$248, %rsp
 7422      000000
 7423 09d4 5B       		popq	%rbx
 7424 09d5 5D       		popq	%rbp
 7425              	.LCFI125:
 7426              		.cfi_def_cfa 7, 8
 7427 09d6 C3       		ret
 7428              		.cfi_endproc
 7429              	.LFE47:
 7431              		.section	.text.mbedtls_mpi_div_int,"ax",@progbits
 7432              		.globl	mbedtls_mpi_div_int
 7434              	mbedtls_mpi_div_int:
 7435              	.LFB48:
1661:/home/xingli/share/1205tiny/network/dtls/mbedtls/mbedtls-2.16.2/library/bignum.c **** 
1662:/home/xingli/share/1205tiny/network/dtls/mbedtls/mbedtls-2.16.2/library/bignum.c **** /*
1663:/home/xingli/share/1205tiny/network/dtls/mbedtls/mbedtls-2.16.2/library/bignum.c ****  * Division by int: A = Q * b + R
1664:/home/xingli/share/1205tiny/network/dtls/mbedtls/mbedtls-2.16.2/library/bignum.c ****  */
1665:/home/xingli/share/1205tiny/network/dtls/mbedtls/mbedtls-2.16.2/library/bignum.c **** int mbedtls_mpi_div_int( mbedtls_mpi *Q, mbedtls_mpi *R,
1666:/home/xingli/share/1205tiny/network/dtls/mbedtls/mbedtls-2.16.2/library/bignum.c ****                          const mbedtls_mpi *A,
1667:/home/xingli/share/1205tiny/network/dtls/mbedtls/mbedtls-2.16.2/library/bignum.c ****                          mbedtls_mpi_sint b )
1668:/home/xingli/share/1205tiny/network/dtls/mbedtls/mbedtls-2.16.2/library/bignum.c **** {
 7436              		.loc 1 1668 1 is_stmt 1
 7437              		.cfi_startproc
 7438 0000 F30F1EFA 		endbr64
 7439 0004 55       		pushq	%rbp
 7440              	.LCFI126:
 7441              		.cfi_def_cfa_offset 16
 7442              		.cfi_offset 6, -16
 7443 0005 4889E5   		movq	%rsp, %rbp
 7444              	.LCFI127:
 7445              		.cfi_def_cfa_register 6
 7446 0008 4883EC50 		subq	$80, %rsp
 7447 000c 48897DC8 		movq	%rdi, -56(%rbp)
 7448 0010 488975C0 		movq	%rsi, -64(%rbp)
 7449 0014 488955B8 		movq	%rdx, -72(%rbp)
 7450 0018 48894DB0 		movq	%rcx, -80(%rbp)
 7451              		.loc 1 1668 1
 7452 001c 64488B04 		movq	%fs:40, %rax
 7452      25280000 
 7452      00
 7453 0025 488945F8 		movq	%rax, -8(%rbp)
GAS LISTING /tmp/ccFaOvob.s 			page 189


 7454 0029 31C0     		xorl	%eax, %eax
1669:/home/xingli/share/1205tiny/network/dtls/mbedtls/mbedtls-2.16.2/library/bignum.c ****     mbedtls_mpi _B;
1670:/home/xingli/share/1205tiny/network/dtls/mbedtls/mbedtls-2.16.2/library/bignum.c ****     mbedtls_mpi_uint p[1];
1671:/home/xingli/share/1205tiny/network/dtls/mbedtls/mbedtls-2.16.2/library/bignum.c ****     MPI_VALIDATE_RET( A != NULL );
1672:/home/xingli/share/1205tiny/network/dtls/mbedtls/mbedtls-2.16.2/library/bignum.c **** 
1673:/home/xingli/share/1205tiny/network/dtls/mbedtls/mbedtls-2.16.2/library/bignum.c ****     p[0] = ( b < 0 ) ? -b : b;
 7455              		.loc 1 1673 27
 7456 002b 488B45B0 		movq	-80(%rbp), %rax
 7457 002f 4899     		cqto
 7458 0031 4889D0   		movq	%rdx, %rax
 7459 0034 483345B0 		xorq	-80(%rbp), %rax
 7460 0038 4829D0   		subq	%rdx, %rax
 7461              		.loc 1 1673 10
 7462 003b 488945F0 		movq	%rax, -16(%rbp)
1674:/home/xingli/share/1205tiny/network/dtls/mbedtls/mbedtls-2.16.2/library/bignum.c ****     _B.s = ( b < 0 ) ? -1 : 1;
 7463              		.loc 1 1674 27
 7464 003f 48837DB0 		cmpq	$0, -80(%rbp)
 7464      00
 7465 0044 7907     		jns	.L494
 7466              		.loc 1 1674 27 is_stmt 0 discriminator 1
 7467 0046 B8FFFFFF 		movl	$-1, %eax
 7467      FF
 7468 004b EB05     		jmp	.L495
 7469              	.L494:
 7470              		.loc 1 1674 27 discriminator 2
 7471 004d B8010000 		movl	$1, %eax
 7471      00
 7472              	.L495:
 7473              		.loc 1 1674 10 is_stmt 1 discriminator 4
 7474 0052 8945D0   		movl	%eax, -48(%rbp)
1675:/home/xingli/share/1205tiny/network/dtls/mbedtls/mbedtls-2.16.2/library/bignum.c ****     _B.n = 1;
 7475              		.loc 1 1675 10 discriminator 4
 7476 0055 48C745D8 		movq	$1, -40(%rbp)
 7476      01000000 
1676:/home/xingli/share/1205tiny/network/dtls/mbedtls/mbedtls-2.16.2/library/bignum.c ****     _B.p = p;
 7477              		.loc 1 1676 10 discriminator 4
 7478 005d 488D45F0 		leaq	-16(%rbp), %rax
 7479 0061 488945E0 		movq	%rax, -32(%rbp)
1677:/home/xingli/share/1205tiny/network/dtls/mbedtls/mbedtls-2.16.2/library/bignum.c **** 
1678:/home/xingli/share/1205tiny/network/dtls/mbedtls/mbedtls-2.16.2/library/bignum.c ****     return( mbedtls_mpi_div_mpi( Q, R, A, &_B ) );
 7480              		.loc 1 1678 13 discriminator 4
 7481 0065 488D4DD0 		leaq	-48(%rbp), %rcx
 7482 0069 488B55B8 		movq	-72(%rbp), %rdx
 7483 006d 488B75C0 		movq	-64(%rbp), %rsi
 7484 0071 488B45C8 		movq	-56(%rbp), %rax
 7485 0075 4889C7   		movq	%rax, %rdi
 7486 0078 E8000000 		call	mbedtls_mpi_div_mpi
 7486      00
1679:/home/xingli/share/1205tiny/network/dtls/mbedtls/mbedtls-2.16.2/library/bignum.c **** }
 7487              		.loc 1 1679 1 discriminator 4
 7488 007d 488B7DF8 		movq	-8(%rbp), %rdi
 7489 0081 6448333C 		xorq	%fs:40, %rdi
 7489      25280000 
 7489      00
 7490 008a 7405     		je	.L497
 7491              		.loc 1 1679 1 is_stmt 0
 7492 008c E8000000 		call	__stack_chk_fail@PLT
GAS LISTING /tmp/ccFaOvob.s 			page 190


 7492      00
 7493              	.L497:
 7494 0091 C9       		leave
 7495              	.LCFI128:
 7496              		.cfi_def_cfa 7, 8
 7497 0092 C3       		ret
 7498              		.cfi_endproc
 7499              	.LFE48:
 7501              		.section	.text.mbedtls_mpi_mod_mpi,"ax",@progbits
 7502              		.globl	mbedtls_mpi_mod_mpi
 7504              	mbedtls_mpi_mod_mpi:
 7505              	.LFB49:
1680:/home/xingli/share/1205tiny/network/dtls/mbedtls/mbedtls-2.16.2/library/bignum.c **** 
1681:/home/xingli/share/1205tiny/network/dtls/mbedtls/mbedtls-2.16.2/library/bignum.c **** /*
1682:/home/xingli/share/1205tiny/network/dtls/mbedtls/mbedtls-2.16.2/library/bignum.c ****  * Modulo: R = A mod B
1683:/home/xingli/share/1205tiny/network/dtls/mbedtls/mbedtls-2.16.2/library/bignum.c ****  */
1684:/home/xingli/share/1205tiny/network/dtls/mbedtls/mbedtls-2.16.2/library/bignum.c **** int mbedtls_mpi_mod_mpi( mbedtls_mpi *R, const mbedtls_mpi *A, const mbedtls_mpi *B )
1685:/home/xingli/share/1205tiny/network/dtls/mbedtls/mbedtls-2.16.2/library/bignum.c **** {
 7506              		.loc 1 1685 1 is_stmt 1
 7507              		.cfi_startproc
 7508 0000 F30F1EFA 		endbr64
 7509 0004 55       		pushq	%rbp
 7510              	.LCFI129:
 7511              		.cfi_def_cfa_offset 16
 7512              		.cfi_offset 6, -16
 7513 0005 4889E5   		movq	%rsp, %rbp
 7514              	.LCFI130:
 7515              		.cfi_def_cfa_register 6
 7516 0008 4883EC30 		subq	$48, %rsp
 7517 000c 48897DE8 		movq	%rdi, -24(%rbp)
 7518 0010 488975E0 		movq	%rsi, -32(%rbp)
 7519 0014 488955D8 		movq	%rdx, -40(%rbp)
 7520              		.loc 1 1685 1
 7521 0018 64488B04 		movq	%fs:40, %rax
 7521      25280000 
 7521      00
 7522 0021 488945F8 		movq	%rax, -8(%rbp)
 7523 0025 31C0     		xorl	%eax, %eax
1686:/home/xingli/share/1205tiny/network/dtls/mbedtls/mbedtls-2.16.2/library/bignum.c ****     int ret;
1687:/home/xingli/share/1205tiny/network/dtls/mbedtls/mbedtls-2.16.2/library/bignum.c ****     MPI_VALIDATE_RET( R != NULL );
1688:/home/xingli/share/1205tiny/network/dtls/mbedtls/mbedtls-2.16.2/library/bignum.c ****     MPI_VALIDATE_RET( A != NULL );
1689:/home/xingli/share/1205tiny/network/dtls/mbedtls/mbedtls-2.16.2/library/bignum.c ****     MPI_VALIDATE_RET( B != NULL );
1690:/home/xingli/share/1205tiny/network/dtls/mbedtls/mbedtls-2.16.2/library/bignum.c **** 
1691:/home/xingli/share/1205tiny/network/dtls/mbedtls/mbedtls-2.16.2/library/bignum.c ****     if( mbedtls_mpi_cmp_int( B, 0 ) < 0 )
 7524              		.loc 1 1691 9
 7525 0027 488B45D8 		movq	-40(%rbp), %rax
 7526 002b BE000000 		movl	$0, %esi
 7526      00
 7527 0030 4889C7   		movq	%rax, %rdi
 7528 0033 E8000000 		call	mbedtls_mpi_cmp_int
 7528      00
 7529              		.loc 1 1691 7
 7530 0038 85C0     		testl	%eax, %eax
 7531 003a 790A     		jns	.L499
1692:/home/xingli/share/1205tiny/network/dtls/mbedtls/mbedtls-2.16.2/library/bignum.c ****         return( MBEDTLS_ERR_MPI_NEGATIVE_VALUE );
 7532              		.loc 1 1692 15
 7533 003c B8F6FFFF 		movl	$-10, %eax
GAS LISTING /tmp/ccFaOvob.s 			page 191


 7533      FF
 7534 0041 E99E0000 		jmp	.L500
 7534      00
 7535              	.L499:
1693:/home/xingli/share/1205tiny/network/dtls/mbedtls/mbedtls-2.16.2/library/bignum.c **** 
1694:/home/xingli/share/1205tiny/network/dtls/mbedtls/mbedtls-2.16.2/library/bignum.c ****     MBEDTLS_MPI_CHK( mbedtls_mpi_div_mpi( NULL, R, A, B ) );
 7536              		.loc 1 1694 5
 7537 0046 488B4DD8 		movq	-40(%rbp), %rcx
 7538 004a 488B55E0 		movq	-32(%rbp), %rdx
 7539 004e 488B45E8 		movq	-24(%rbp), %rax
 7540 0052 4889C6   		movq	%rax, %rsi
 7541 0055 BF000000 		movl	$0, %edi
 7541      00
 7542 005a E8000000 		call	mbedtls_mpi_div_mpi
 7542      00
 7543 005f 8945F4   		movl	%eax, -12(%rbp)
 7544 0062 837DF400 		cmpl	$0, -12(%rbp)
 7545 0066 7572     		jne	.L508
1695:/home/xingli/share/1205tiny/network/dtls/mbedtls/mbedtls-2.16.2/library/bignum.c **** 
1696:/home/xingli/share/1205tiny/network/dtls/mbedtls/mbedtls-2.16.2/library/bignum.c ****     while( mbedtls_mpi_cmp_int( R, 0 ) < 0 )
 7546              		.loc 1 1696 10
 7547 0068 EB20     		jmp	.L503
 7548              	.L504:
1697:/home/xingli/share/1205tiny/network/dtls/mbedtls/mbedtls-2.16.2/library/bignum.c ****       MBEDTLS_MPI_CHK( mbedtls_mpi_add_mpi( R, R, B ) );
 7549              		.loc 1 1697 7
 7550 006a 488B55D8 		movq	-40(%rbp), %rdx
 7551 006e 488B4DE8 		movq	-24(%rbp), %rcx
 7552 0072 488B45E8 		movq	-24(%rbp), %rax
 7553 0076 4889CE   		movq	%rcx, %rsi
 7554 0079 4889C7   		movq	%rax, %rdi
 7555 007c E8000000 		call	mbedtls_mpi_add_mpi
 7555      00
 7556 0081 8945F4   		movl	%eax, -12(%rbp)
 7557 0084 837DF400 		cmpl	$0, -12(%rbp)
 7558 0088 7553     		jne	.L509
 7559              	.L503:
1696:/home/xingli/share/1205tiny/network/dtls/mbedtls/mbedtls-2.16.2/library/bignum.c ****       MBEDTLS_MPI_CHK( mbedtls_mpi_add_mpi( R, R, B ) );
 7560              		.loc 1 1696 12
 7561 008a 488B45E8 		movq	-24(%rbp), %rax
 7562 008e BE000000 		movl	$0, %esi
 7562      00
 7563 0093 4889C7   		movq	%rax, %rdi
 7564 0096 E8000000 		call	mbedtls_mpi_cmp_int
 7564      00
1696:/home/xingli/share/1205tiny/network/dtls/mbedtls/mbedtls-2.16.2/library/bignum.c ****       MBEDTLS_MPI_CHK( mbedtls_mpi_add_mpi( R, R, B ) );
 7565              		.loc 1 1696 10
 7566 009b 85C0     		testl	%eax, %eax
 7567 009d 78CB     		js	.L504
1698:/home/xingli/share/1205tiny/network/dtls/mbedtls/mbedtls-2.16.2/library/bignum.c **** 
1699:/home/xingli/share/1205tiny/network/dtls/mbedtls/mbedtls-2.16.2/library/bignum.c ****     while( mbedtls_mpi_cmp_mpi( R, B ) >= 0 )
 7568              		.loc 1 1699 10
 7569 009f EB20     		jmp	.L505
 7570              	.L506:
1700:/home/xingli/share/1205tiny/network/dtls/mbedtls/mbedtls-2.16.2/library/bignum.c ****       MBEDTLS_MPI_CHK( mbedtls_mpi_sub_mpi( R, R, B ) );
 7571              		.loc 1 1700 7
 7572 00a1 488B55D8 		movq	-40(%rbp), %rdx
 7573 00a5 488B4DE8 		movq	-24(%rbp), %rcx
GAS LISTING /tmp/ccFaOvob.s 			page 192


 7574 00a9 488B45E8 		movq	-24(%rbp), %rax
 7575 00ad 4889CE   		movq	%rcx, %rsi
 7576 00b0 4889C7   		movq	%rax, %rdi
 7577 00b3 E8000000 		call	mbedtls_mpi_sub_mpi
 7577      00
 7578 00b8 8945F4   		movl	%eax, -12(%rbp)
 7579 00bb 837DF400 		cmpl	$0, -12(%rbp)
 7580 00bf 751F     		jne	.L510
 7581              	.L505:
1699:/home/xingli/share/1205tiny/network/dtls/mbedtls/mbedtls-2.16.2/library/bignum.c ****       MBEDTLS_MPI_CHK( mbedtls_mpi_sub_mpi( R, R, B ) );
 7582              		.loc 1 1699 12
 7583 00c1 488B55D8 		movq	-40(%rbp), %rdx
 7584 00c5 488B45E8 		movq	-24(%rbp), %rax
 7585 00c9 4889D6   		movq	%rdx, %rsi
 7586 00cc 4889C7   		movq	%rax, %rdi
 7587 00cf E8000000 		call	mbedtls_mpi_cmp_mpi
 7587      00
1699:/home/xingli/share/1205tiny/network/dtls/mbedtls/mbedtls-2.16.2/library/bignum.c ****       MBEDTLS_MPI_CHK( mbedtls_mpi_sub_mpi( R, R, B ) );
 7588              		.loc 1 1699 10
 7589 00d4 85C0     		testl	%eax, %eax
 7590 00d6 79C9     		jns	.L506
1701:/home/xingli/share/1205tiny/network/dtls/mbedtls/mbedtls-2.16.2/library/bignum.c **** 
1702:/home/xingli/share/1205tiny/network/dtls/mbedtls/mbedtls-2.16.2/library/bignum.c **** cleanup:
 7591              		.loc 1 1702 1
 7592 00d8 EB07     		jmp	.L502
 7593              	.L508:
1694:/home/xingli/share/1205tiny/network/dtls/mbedtls/mbedtls-2.16.2/library/bignum.c **** 
 7594              		.loc 1 1694 5
 7595 00da 90       		nop
 7596 00db EB04     		jmp	.L502
 7597              	.L509:
1697:/home/xingli/share/1205tiny/network/dtls/mbedtls/mbedtls-2.16.2/library/bignum.c **** 
 7598              		.loc 1 1697 7
 7599 00dd 90       		nop
 7600 00de EB01     		jmp	.L502
 7601              	.L510:
1700:/home/xingli/share/1205tiny/network/dtls/mbedtls/mbedtls-2.16.2/library/bignum.c **** 
 7602              		.loc 1 1700 7
 7603 00e0 90       		nop
 7604              	.L502:
1703:/home/xingli/share/1205tiny/network/dtls/mbedtls/mbedtls-2.16.2/library/bignum.c **** 
1704:/home/xingli/share/1205tiny/network/dtls/mbedtls/mbedtls-2.16.2/library/bignum.c ****     return( ret );
 7605              		.loc 1 1704 11
 7606 00e1 8B45F4   		movl	-12(%rbp), %eax
 7607              	.L500:
1705:/home/xingli/share/1205tiny/network/dtls/mbedtls/mbedtls-2.16.2/library/bignum.c **** }
 7608              		.loc 1 1705 1
 7609 00e4 488B4DF8 		movq	-8(%rbp), %rcx
 7610 00e8 6448330C 		xorq	%fs:40, %rcx
 7610      25280000 
 7610      00
 7611 00f1 7405     		je	.L507
 7612 00f3 E8000000 		call	__stack_chk_fail@PLT
 7612      00
 7613              	.L507:
 7614 00f8 C9       		leave
 7615              	.LCFI131:
GAS LISTING /tmp/ccFaOvob.s 			page 193


 7616              		.cfi_def_cfa 7, 8
 7617 00f9 C3       		ret
 7618              		.cfi_endproc
 7619              	.LFE49:
 7621              		.section	.text.mbedtls_mpi_mod_int,"ax",@progbits
 7622              		.globl	mbedtls_mpi_mod_int
 7624              	mbedtls_mpi_mod_int:
 7625              	.LFB50:
1706:/home/xingli/share/1205tiny/network/dtls/mbedtls/mbedtls-2.16.2/library/bignum.c **** 
1707:/home/xingli/share/1205tiny/network/dtls/mbedtls/mbedtls-2.16.2/library/bignum.c **** /*
1708:/home/xingli/share/1205tiny/network/dtls/mbedtls/mbedtls-2.16.2/library/bignum.c ****  * Modulo: r = A mod b
1709:/home/xingli/share/1205tiny/network/dtls/mbedtls/mbedtls-2.16.2/library/bignum.c ****  */
1710:/home/xingli/share/1205tiny/network/dtls/mbedtls/mbedtls-2.16.2/library/bignum.c **** int mbedtls_mpi_mod_int( mbedtls_mpi_uint *r, const mbedtls_mpi *A, mbedtls_mpi_sint b )
1711:/home/xingli/share/1205tiny/network/dtls/mbedtls/mbedtls-2.16.2/library/bignum.c **** {
 7626              		.loc 1 1711 1
 7627              		.cfi_startproc
 7628 0000 F30F1EFA 		endbr64
 7629 0004 55       		pushq	%rbp
 7630              	.LCFI132:
 7631              		.cfi_def_cfa_offset 16
 7632              		.cfi_offset 6, -16
 7633 0005 4889E5   		movq	%rsp, %rbp
 7634              	.LCFI133:
 7635              		.cfi_def_cfa_register 6
 7636 0008 4883EC50 		subq	$80, %rsp
 7637 000c 48897DC8 		movq	%rdi, -56(%rbp)
 7638 0010 488975C0 		movq	%rsi, -64(%rbp)
 7639 0014 488955B8 		movq	%rdx, -72(%rbp)
 7640              		.loc 1 1711 1
 7641 0018 64488B04 		movq	%fs:40, %rax
 7641      25280000 
 7641      00
 7642 0021 488945F8 		movq	%rax, -8(%rbp)
 7643 0025 31C0     		xorl	%eax, %eax
1712:/home/xingli/share/1205tiny/network/dtls/mbedtls/mbedtls-2.16.2/library/bignum.c ****     size_t i;
1713:/home/xingli/share/1205tiny/network/dtls/mbedtls/mbedtls-2.16.2/library/bignum.c ****     mbedtls_mpi_uint x, y, z;
1714:/home/xingli/share/1205tiny/network/dtls/mbedtls/mbedtls-2.16.2/library/bignum.c ****     MPI_VALIDATE_RET( r != NULL );
1715:/home/xingli/share/1205tiny/network/dtls/mbedtls/mbedtls-2.16.2/library/bignum.c ****     MPI_VALIDATE_RET( A != NULL );
1716:/home/xingli/share/1205tiny/network/dtls/mbedtls/mbedtls-2.16.2/library/bignum.c **** 
1717:/home/xingli/share/1205tiny/network/dtls/mbedtls/mbedtls-2.16.2/library/bignum.c ****     if( b == 0 )
 7644              		.loc 1 1717 7
 7645 0027 48837DB8 		cmpq	$0, -72(%rbp)
 7645      00
 7646 002c 750A     		jne	.L512
1718:/home/xingli/share/1205tiny/network/dtls/mbedtls/mbedtls-2.16.2/library/bignum.c ****         return( MBEDTLS_ERR_MPI_DIVISION_BY_ZERO );
 7647              		.loc 1 1718 15
 7648 002e B8F4FFFF 		movl	$-12, %eax
 7648      FF
 7649 0033 E9450100 		jmp	.L513
 7649      00
 7650              	.L512:
1719:/home/xingli/share/1205tiny/network/dtls/mbedtls/mbedtls-2.16.2/library/bignum.c **** 
1720:/home/xingli/share/1205tiny/network/dtls/mbedtls/mbedtls-2.16.2/library/bignum.c ****     if( b < 0 )
 7651              		.loc 1 1720 7
 7652 0038 48837DB8 		cmpq	$0, -72(%rbp)
 7652      00
 7653 003d 790A     		jns	.L514
GAS LISTING /tmp/ccFaOvob.s 			page 194


1721:/home/xingli/share/1205tiny/network/dtls/mbedtls/mbedtls-2.16.2/library/bignum.c ****         return( MBEDTLS_ERR_MPI_NEGATIVE_VALUE );
 7654              		.loc 1 1721 15
 7655 003f B8F6FFFF 		movl	$-10, %eax
 7655      FF
 7656 0044 E9340100 		jmp	.L513
 7656      00
 7657              	.L514:
1722:/home/xingli/share/1205tiny/network/dtls/mbedtls/mbedtls-2.16.2/library/bignum.c **** 
1723:/home/xingli/share/1205tiny/network/dtls/mbedtls/mbedtls-2.16.2/library/bignum.c ****     /*
1724:/home/xingli/share/1205tiny/network/dtls/mbedtls/mbedtls-2.16.2/library/bignum.c ****      * handle trivial cases
1725:/home/xingli/share/1205tiny/network/dtls/mbedtls/mbedtls-2.16.2/library/bignum.c ****      */
1726:/home/xingli/share/1205tiny/network/dtls/mbedtls/mbedtls-2.16.2/library/bignum.c ****     if( b == 1 )
 7658              		.loc 1 1726 7
 7659 0049 48837DB8 		cmpq	$1, -72(%rbp)
 7659      01
 7660 004e 7515     		jne	.L515
1727:/home/xingli/share/1205tiny/network/dtls/mbedtls/mbedtls-2.16.2/library/bignum.c ****     {
1728:/home/xingli/share/1205tiny/network/dtls/mbedtls/mbedtls-2.16.2/library/bignum.c ****         *r = 0;
 7661              		.loc 1 1728 12
 7662 0050 488B45C8 		movq	-56(%rbp), %rax
 7663 0054 48C70000 		movq	$0, (%rax)
 7663      000000
1729:/home/xingli/share/1205tiny/network/dtls/mbedtls/mbedtls-2.16.2/library/bignum.c ****         return( 0 );
 7664              		.loc 1 1729 15
 7665 005b B8000000 		movl	$0, %eax
 7665      00
 7666 0060 E9180100 		jmp	.L513
 7666      00
 7667              	.L515:
1730:/home/xingli/share/1205tiny/network/dtls/mbedtls/mbedtls-2.16.2/library/bignum.c ****     }
1731:/home/xingli/share/1205tiny/network/dtls/mbedtls/mbedtls-2.16.2/library/bignum.c **** 
1732:/home/xingli/share/1205tiny/network/dtls/mbedtls/mbedtls-2.16.2/library/bignum.c ****     if( b == 2 )
 7668              		.loc 1 1732 7
 7669 0065 48837DB8 		cmpq	$2, -72(%rbp)
 7669      02
 7670 006a 7522     		jne	.L516
1733:/home/xingli/share/1205tiny/network/dtls/mbedtls/mbedtls-2.16.2/library/bignum.c ****     {
1734:/home/xingli/share/1205tiny/network/dtls/mbedtls/mbedtls-2.16.2/library/bignum.c ****         *r = A->p[0] & 1;
 7671              		.loc 1 1734 15
 7672 006c 488B45C0 		movq	-64(%rbp), %rax
 7673 0070 488B4010 		movq	16(%rax), %rax
 7674              		.loc 1 1734 18
 7675 0074 488B00   		movq	(%rax), %rax
 7676              		.loc 1 1734 22
 7677 0077 83E001   		andl	$1, %eax
 7678 007a 4889C2   		movq	%rax, %rdx
 7679              		.loc 1 1734 12
 7680 007d 488B45C8 		movq	-56(%rbp), %rax
 7681 0081 488910   		movq	%rdx, (%rax)
1735:/home/xingli/share/1205tiny/network/dtls/mbedtls/mbedtls-2.16.2/library/bignum.c ****         return( 0 );
 7682              		.loc 1 1735 15
 7683 0084 B8000000 		movl	$0, %eax
 7683      00
 7684 0089 E9EF0000 		jmp	.L513
 7684      00
 7685              	.L516:
1736:/home/xingli/share/1205tiny/network/dtls/mbedtls/mbedtls-2.16.2/library/bignum.c ****     }
GAS LISTING /tmp/ccFaOvob.s 			page 195


1737:/home/xingli/share/1205tiny/network/dtls/mbedtls/mbedtls-2.16.2/library/bignum.c **** 
1738:/home/xingli/share/1205tiny/network/dtls/mbedtls/mbedtls-2.16.2/library/bignum.c ****     /*
1739:/home/xingli/share/1205tiny/network/dtls/mbedtls/mbedtls-2.16.2/library/bignum.c ****      * general case
1740:/home/xingli/share/1205tiny/network/dtls/mbedtls/mbedtls-2.16.2/library/bignum.c ****      */
1741:/home/xingli/share/1205tiny/network/dtls/mbedtls/mbedtls-2.16.2/library/bignum.c ****     for( i = A->n, y = 0; i > 0; i-- )
 7686              		.loc 1 1741 12
 7687 008e 488B45C0 		movq	-64(%rbp), %rax
 7688 0092 488B4008 		movq	8(%rax), %rax
 7689 0096 488945D8 		movq	%rax, -40(%rbp)
 7690              		.loc 1 1741 22
 7691 009a 48C745E0 		movq	$0, -32(%rbp)
 7691      00000000 
 7692              		.loc 1 1741 5
 7693 00a2 E99E0000 		jmp	.L517
 7693      00
 7694              	.L518:
1742:/home/xingli/share/1205tiny/network/dtls/mbedtls/mbedtls-2.16.2/library/bignum.c ****     {
1743:/home/xingli/share/1205tiny/network/dtls/mbedtls/mbedtls-2.16.2/library/bignum.c ****         x  = A->p[i - 1];
 7695              		.loc 1 1743 15 discriminator 3
 7696 00a7 488B45C0 		movq	-64(%rbp), %rax
 7697 00ab 488B4010 		movq	16(%rax), %rax
 7698              		.loc 1 1743 18 discriminator 3
 7699 00af 488B55D8 		movq	-40(%rbp), %rdx
 7700 00b3 48C1E203 		salq	$3, %rdx
 7701 00b7 4883EA08 		subq	$8, %rdx
 7702 00bb 4801D0   		addq	%rdx, %rax
 7703              		.loc 1 1743 12 discriminator 3
 7704 00be 488B00   		movq	(%rax), %rax
 7705 00c1 488945E8 		movq	%rax, -24(%rbp)
1744:/home/xingli/share/1205tiny/network/dtls/mbedtls/mbedtls-2.16.2/library/bignum.c ****         y  = ( y << biH ) | ( x >> biH );
 7706              		.loc 1 1744 18 discriminator 3
 7707 00c5 488B45E0 		movq	-32(%rbp), %rax
 7708 00c9 48C1E020 		salq	$32, %rax
 7709 00cd 4889C2   		movq	%rax, %rdx
 7710              		.loc 1 1744 33 discriminator 3
 7711 00d0 488B45E8 		movq	-24(%rbp), %rax
 7712 00d4 48C1E820 		shrq	$32, %rax
 7713              		.loc 1 1744 12 discriminator 3
 7714 00d8 4809D0   		orq	%rdx, %rax
 7715 00db 488945E0 		movq	%rax, -32(%rbp)
1745:/home/xingli/share/1205tiny/network/dtls/mbedtls/mbedtls-2.16.2/library/bignum.c ****         z  = y / b;
 7716              		.loc 1 1745 16 discriminator 3
 7717 00df 488B4DB8 		movq	-72(%rbp), %rcx
 7718              		.loc 1 1745 12 discriminator 3
 7719 00e3 488B45E0 		movq	-32(%rbp), %rax
 7720 00e7 BA000000 		movl	$0, %edx
 7720      00
 7721 00ec 48F7F1   		divq	%rcx
 7722 00ef 488945F0 		movq	%rax, -16(%rbp)
1746:/home/xingli/share/1205tiny/network/dtls/mbedtls/mbedtls-2.16.2/library/bignum.c ****         y -= z * b;
 7723              		.loc 1 1746 16 discriminator 3
 7724 00f3 488B45B8 		movq	-72(%rbp), %rax
 7725 00f7 480FAF45 		imulq	-16(%rbp), %rax
 7725      F0
 7726              		.loc 1 1746 11 discriminator 3
 7727 00fc 482945E0 		subq	%rax, -32(%rbp)
1747:/home/xingli/share/1205tiny/network/dtls/mbedtls/mbedtls-2.16.2/library/bignum.c **** 
GAS LISTING /tmp/ccFaOvob.s 			page 196


1748:/home/xingli/share/1205tiny/network/dtls/mbedtls/mbedtls-2.16.2/library/bignum.c ****         x <<= biH;
 7728              		.loc 1 1748 11 discriminator 3
 7729 0100 48C165E8 		salq	$32, -24(%rbp)
 7729      20
1749:/home/xingli/share/1205tiny/network/dtls/mbedtls/mbedtls-2.16.2/library/bignum.c ****         y  = ( y << biH ) | ( x >> biH );
 7730              		.loc 1 1749 18 discriminator 3
 7731 0105 488B45E0 		movq	-32(%rbp), %rax
 7732 0109 48C1E020 		salq	$32, %rax
 7733 010d 4889C2   		movq	%rax, %rdx
 7734              		.loc 1 1749 33 discriminator 3
 7735 0110 488B45E8 		movq	-24(%rbp), %rax
 7736 0114 48C1E820 		shrq	$32, %rax
 7737              		.loc 1 1749 12 discriminator 3
 7738 0118 4809D0   		orq	%rdx, %rax
 7739 011b 488945E0 		movq	%rax, -32(%rbp)
1750:/home/xingli/share/1205tiny/network/dtls/mbedtls/mbedtls-2.16.2/library/bignum.c ****         z  = y / b;
 7740              		.loc 1 1750 16 discriminator 3
 7741 011f 488B75B8 		movq	-72(%rbp), %rsi
 7742              		.loc 1 1750 12 discriminator 3
 7743 0123 488B45E0 		movq	-32(%rbp), %rax
 7744 0127 BA000000 		movl	$0, %edx
 7744      00
 7745 012c 48F7F6   		divq	%rsi
 7746 012f 488945F0 		movq	%rax, -16(%rbp)
1751:/home/xingli/share/1205tiny/network/dtls/mbedtls/mbedtls-2.16.2/library/bignum.c ****         y -= z * b;
 7747              		.loc 1 1751 16 discriminator 3
 7748 0133 488B45B8 		movq	-72(%rbp), %rax
 7749 0137 480FAF45 		imulq	-16(%rbp), %rax
 7749      F0
 7750              		.loc 1 1751 11 discriminator 3
 7751 013c 482945E0 		subq	%rax, -32(%rbp)
1741:/home/xingli/share/1205tiny/network/dtls/mbedtls/mbedtls-2.16.2/library/bignum.c ****     {
 7752              		.loc 1 1741 35 discriminator 3
 7753 0140 48836DD8 		subq	$1, -40(%rbp)
 7753      01
 7754              	.L517:
1741:/home/xingli/share/1205tiny/network/dtls/mbedtls/mbedtls-2.16.2/library/bignum.c ****     {
 7755              		.loc 1 1741 5 discriminator 1
 7756 0145 48837DD8 		cmpq	$0, -40(%rbp)
 7756      00
 7757 014a 0F8557FF 		jne	.L518
 7757      FFFF
1752:/home/xingli/share/1205tiny/network/dtls/mbedtls/mbedtls-2.16.2/library/bignum.c ****     }
1753:/home/xingli/share/1205tiny/network/dtls/mbedtls/mbedtls-2.16.2/library/bignum.c **** 
1754:/home/xingli/share/1205tiny/network/dtls/mbedtls/mbedtls-2.16.2/library/bignum.c ****     /*
1755:/home/xingli/share/1205tiny/network/dtls/mbedtls/mbedtls-2.16.2/library/bignum.c ****      * If A is negative, then the current y represents a negative value.
1756:/home/xingli/share/1205tiny/network/dtls/mbedtls/mbedtls-2.16.2/library/bignum.c ****      * Flipping it to the positive side.
1757:/home/xingli/share/1205tiny/network/dtls/mbedtls/mbedtls-2.16.2/library/bignum.c ****      */
1758:/home/xingli/share/1205tiny/network/dtls/mbedtls/mbedtls-2.16.2/library/bignum.c ****     if( A->s < 0 && y != 0 )
 7758              		.loc 1 1758 10
 7759 0150 488B45C0 		movq	-64(%rbp), %rax
 7760 0154 8B00     		movl	(%rax), %eax
 7761              		.loc 1 1758 7
 7762 0156 85C0     		testl	%eax, %eax
 7763 0158 7913     		jns	.L519
 7764              		.loc 1 1758 18 discriminator 1
 7765 015a 48837DE0 		cmpq	$0, -32(%rbp)
GAS LISTING /tmp/ccFaOvob.s 			page 197


 7765      00
 7766 015f 740C     		je	.L519
1759:/home/xingli/share/1205tiny/network/dtls/mbedtls/mbedtls-2.16.2/library/bignum.c ****         y = b - y;
 7767              		.loc 1 1759 15
 7768 0161 488B45B8 		movq	-72(%rbp), %rax
 7769              		.loc 1 1759 11
 7770 0165 482B45E0 		subq	-32(%rbp), %rax
 7771 0169 488945E0 		movq	%rax, -32(%rbp)
 7772              	.L519:
1760:/home/xingli/share/1205tiny/network/dtls/mbedtls/mbedtls-2.16.2/library/bignum.c **** 
1761:/home/xingli/share/1205tiny/network/dtls/mbedtls/mbedtls-2.16.2/library/bignum.c ****     *r = y;
 7773              		.loc 1 1761 8
 7774 016d 488B45C8 		movq	-56(%rbp), %rax
 7775 0171 488B55E0 		movq	-32(%rbp), %rdx
 7776 0175 488910   		movq	%rdx, (%rax)
1762:/home/xingli/share/1205tiny/network/dtls/mbedtls/mbedtls-2.16.2/library/bignum.c **** 
1763:/home/xingli/share/1205tiny/network/dtls/mbedtls/mbedtls-2.16.2/library/bignum.c ****     return( 0 );
 7777              		.loc 1 1763 11
 7778 0178 B8000000 		movl	$0, %eax
 7778      00
 7779              	.L513:
1764:/home/xingli/share/1205tiny/network/dtls/mbedtls/mbedtls-2.16.2/library/bignum.c **** }
 7780              		.loc 1 1764 1
 7781 017d 488B4DF8 		movq	-8(%rbp), %rcx
 7782 0181 6448330C 		xorq	%fs:40, %rcx
 7782      25280000 
 7782      00
 7783 018a 7405     		je	.L520
 7784 018c E8000000 		call	__stack_chk_fail@PLT
 7784      00
 7785              	.L520:
 7786 0191 C9       		leave
 7787              	.LCFI134:
 7788              		.cfi_def_cfa 7, 8
 7789 0192 C3       		ret
 7790              		.cfi_endproc
 7791              	.LFE50:
 7793              		.section	.text.mpi_montg_init,"ax",@progbits
 7795              	mpi_montg_init:
 7796              	.LFB51:
1765:/home/xingli/share/1205tiny/network/dtls/mbedtls/mbedtls-2.16.2/library/bignum.c **** 
1766:/home/xingli/share/1205tiny/network/dtls/mbedtls/mbedtls-2.16.2/library/bignum.c **** /*
1767:/home/xingli/share/1205tiny/network/dtls/mbedtls/mbedtls-2.16.2/library/bignum.c ****  * Fast Montgomery initialization (thanks to Tom St Denis)
1768:/home/xingli/share/1205tiny/network/dtls/mbedtls/mbedtls-2.16.2/library/bignum.c ****  */
1769:/home/xingli/share/1205tiny/network/dtls/mbedtls/mbedtls-2.16.2/library/bignum.c **** static void mpi_montg_init( mbedtls_mpi_uint *mm, const mbedtls_mpi *N )
1770:/home/xingli/share/1205tiny/network/dtls/mbedtls/mbedtls-2.16.2/library/bignum.c **** {
 7797              		.loc 1 1770 1
 7798              		.cfi_startproc
 7799 0000 F30F1EFA 		endbr64
 7800 0004 55       		pushq	%rbp
 7801              	.LCFI135:
 7802              		.cfi_def_cfa_offset 16
 7803              		.cfi_offset 6, -16
 7804 0005 4889E5   		movq	%rsp, %rbp
 7805              	.LCFI136:
 7806              		.cfi_def_cfa_register 6
 7807 0008 4883EC30 		subq	$48, %rsp
GAS LISTING /tmp/ccFaOvob.s 			page 198


 7808 000c 48897DD8 		movq	%rdi, -40(%rbp)
 7809 0010 488975D0 		movq	%rsi, -48(%rbp)
 7810              		.loc 1 1770 1
 7811 0014 64488B04 		movq	%fs:40, %rax
 7811      25280000 
 7811      00
 7812 001d 488945F8 		movq	%rax, -8(%rbp)
 7813 0021 31C0     		xorl	%eax, %eax
1771:/home/xingli/share/1205tiny/network/dtls/mbedtls/mbedtls-2.16.2/library/bignum.c ****     mbedtls_mpi_uint x, m0 = N->p[0];
 7814              		.loc 1 1771 31
 7815 0023 488B45D0 		movq	-48(%rbp), %rax
 7816 0027 488B4010 		movq	16(%rax), %rax
 7817              		.loc 1 1771 25
 7818 002b 488B00   		movq	(%rax), %rax
 7819 002e 488945F0 		movq	%rax, -16(%rbp)
1772:/home/xingli/share/1205tiny/network/dtls/mbedtls/mbedtls-2.16.2/library/bignum.c ****     unsigned int i;
1773:/home/xingli/share/1205tiny/network/dtls/mbedtls/mbedtls-2.16.2/library/bignum.c **** 
1774:/home/xingli/share/1205tiny/network/dtls/mbedtls/mbedtls-2.16.2/library/bignum.c ****     x  = m0;
 7820              		.loc 1 1774 8
 7821 0032 488B45F0 		movq	-16(%rbp), %rax
 7822 0036 488945E8 		movq	%rax, -24(%rbp)
1775:/home/xingli/share/1205tiny/network/dtls/mbedtls/mbedtls-2.16.2/library/bignum.c ****     x += ( ( m0 + 2 ) & 4 ) << 1;
 7823              		.loc 1 1775 17
 7824 003a 488B45F0 		movq	-16(%rbp), %rax
 7825 003e 4883C002 		addq	$2, %rax
 7826              		.loc 1 1775 29
 7827 0042 4801C0   		addq	%rax, %rax
 7828 0045 83E008   		andl	$8, %eax
 7829              		.loc 1 1775 7
 7830 0048 480145E8 		addq	%rax, -24(%rbp)
1776:/home/xingli/share/1205tiny/network/dtls/mbedtls/mbedtls-2.16.2/library/bignum.c **** 
1777:/home/xingli/share/1205tiny/network/dtls/mbedtls/mbedtls-2.16.2/library/bignum.c ****     for( i = biL; i >= 8; i /= 2 )
 7831              		.loc 1 1777 12
 7832 004c C745E440 		movl	$64, -28(%rbp)
 7832      000000
 7833              		.loc 1 1777 5
 7834 0053 EB25     		jmp	.L522
 7835              	.L523:
1778:/home/xingli/share/1205tiny/network/dtls/mbedtls/mbedtls-2.16.2/library/bignum.c ****         x *= ( 2 - ( m0 * x ) );
 7836              		.loc 1 1778 25 discriminator 3
 7837 0055 488B45F0 		movq	-16(%rbp), %rax
 7838 0059 480FAF45 		imulq	-24(%rbp), %rax
 7838      E8
 7839              		.loc 1 1778 18 discriminator 3
 7840 005e BA020000 		movl	$2, %edx
 7840      00
 7841 0063 4829C2   		subq	%rax, %rdx
 7842              		.loc 1 1778 11 discriminator 3
 7843 0066 488B45E8 		movq	-24(%rbp), %rax
 7844 006a 480FAFC2 		imulq	%rdx, %rax
 7845 006e 488945E8 		movq	%rax, -24(%rbp)
1777:/home/xingli/share/1205tiny/network/dtls/mbedtls/mbedtls-2.16.2/library/bignum.c ****         x *= ( 2 - ( m0 * x ) );
 7846              		.loc 1 1777 29 discriminator 3
 7847 0072 8B45E4   		movl	-28(%rbp), %eax
 7848 0075 D1E8     		shrl	%eax
 7849 0077 8945E4   		movl	%eax, -28(%rbp)
 7850              	.L522:
GAS LISTING /tmp/ccFaOvob.s 			page 199


1777:/home/xingli/share/1205tiny/network/dtls/mbedtls/mbedtls-2.16.2/library/bignum.c ****         x *= ( 2 - ( m0 * x ) );
 7851              		.loc 1 1777 5 discriminator 1
 7852 007a 837DE407 		cmpl	$7, -28(%rbp)
 7853 007e 77D5     		ja	.L523
1779:/home/xingli/share/1205tiny/network/dtls/mbedtls/mbedtls-2.16.2/library/bignum.c **** 
1780:/home/xingli/share/1205tiny/network/dtls/mbedtls/mbedtls-2.16.2/library/bignum.c ****     *mm = ~x + 1;
 7854              		.loc 1 1780 14
 7855 0080 488B45E8 		movq	-24(%rbp), %rax
 7856 0084 48F7D8   		negq	%rax
 7857 0087 4889C2   		movq	%rax, %rdx
 7858              		.loc 1 1780 9
 7859 008a 488B45D8 		movq	-40(%rbp), %rax
 7860 008e 488910   		movq	%rdx, (%rax)
1781:/home/xingli/share/1205tiny/network/dtls/mbedtls/mbedtls-2.16.2/library/bignum.c **** }
 7861              		.loc 1 1781 1
 7862 0091 90       		nop
 7863 0092 488B45F8 		movq	-8(%rbp), %rax
 7864 0096 64483304 		xorq	%fs:40, %rax
 7864      25280000 
 7864      00
 7865 009f 7405     		je	.L524
 7866 00a1 E8000000 		call	__stack_chk_fail@PLT
 7866      00
 7867              	.L524:
 7868 00a6 C9       		leave
 7869              	.LCFI137:
 7870              		.cfi_def_cfa 7, 8
 7871 00a7 C3       		ret
 7872              		.cfi_endproc
 7873              	.LFE51:
 7875              		.section	.text.mpi_montmul,"ax",@progbits
 7877              	mpi_montmul:
 7878              	.LFB52:
1782:/home/xingli/share/1205tiny/network/dtls/mbedtls/mbedtls-2.16.2/library/bignum.c **** 
1783:/home/xingli/share/1205tiny/network/dtls/mbedtls/mbedtls-2.16.2/library/bignum.c **** /*
1784:/home/xingli/share/1205tiny/network/dtls/mbedtls/mbedtls-2.16.2/library/bignum.c ****  * Montgomery multiplication: A = A * B * R^-1 mod N  (HAC 14.36)
1785:/home/xingli/share/1205tiny/network/dtls/mbedtls/mbedtls-2.16.2/library/bignum.c ****  */
1786:/home/xingli/share/1205tiny/network/dtls/mbedtls/mbedtls-2.16.2/library/bignum.c **** static int mpi_montmul( mbedtls_mpi *A, const mbedtls_mpi *B, const mbedtls_mpi *N, mbedtls_mpi_uin
1787:/home/xingli/share/1205tiny/network/dtls/mbedtls/mbedtls-2.16.2/library/bignum.c ****                          const mbedtls_mpi *T )
1788:/home/xingli/share/1205tiny/network/dtls/mbedtls/mbedtls-2.16.2/library/bignum.c **** {
 7879              		.loc 1 1788 1
 7880              		.cfi_startproc
 7881 0000 F30F1EFA 		endbr64
 7882 0004 55       		pushq	%rbp
 7883              	.LCFI138:
 7884              		.cfi_def_cfa_offset 16
 7885              		.cfi_offset 6, -16
 7886 0005 4889E5   		movq	%rsp, %rbp
 7887              	.LCFI139:
 7888              		.cfi_def_cfa_register 6
 7889 0008 4883EC70 		subq	$112, %rsp
 7890 000c 48897DB8 		movq	%rdi, -72(%rbp)
 7891 0010 488975B0 		movq	%rsi, -80(%rbp)
 7892 0014 488955A8 		movq	%rdx, -88(%rbp)
 7893 0018 48894DA0 		movq	%rcx, -96(%rbp)
 7894 001c 4C894598 		movq	%r8, -104(%rbp)
 7895              		.loc 1 1788 1
GAS LISTING /tmp/ccFaOvob.s 			page 200


 7896 0020 64488B04 		movq	%fs:40, %rax
 7896      25280000 
 7896      00
 7897 0029 488945F8 		movq	%rax, -8(%rbp)
 7898 002d 31C0     		xorl	%eax, %eax
1789:/home/xingli/share/1205tiny/network/dtls/mbedtls/mbedtls-2.16.2/library/bignum.c ****     size_t i, n, m;
1790:/home/xingli/share/1205tiny/network/dtls/mbedtls/mbedtls-2.16.2/library/bignum.c ****     mbedtls_mpi_uint u0, u1, *d;
1791:/home/xingli/share/1205tiny/network/dtls/mbedtls/mbedtls-2.16.2/library/bignum.c **** 
1792:/home/xingli/share/1205tiny/network/dtls/mbedtls/mbedtls-2.16.2/library/bignum.c ****     if( T->n < N->n + 1 || T->p == NULL )
 7899              		.loc 1 1792 10
 7900 002f 488B4598 		movq	-104(%rbp), %rax
 7901 0033 488B5008 		movq	8(%rax), %rdx
 7902              		.loc 1 1792 17
 7903 0037 488B45A8 		movq	-88(%rbp), %rax
 7904 003b 488B4008 		movq	8(%rax), %rax
 7905              		.loc 1 1792 21
 7906 003f 4883C001 		addq	$1, %rax
 7907              		.loc 1 1792 7
 7908 0043 4839C2   		cmpq	%rax, %rdx
 7909 0046 720D     		jb	.L526
 7910              		.loc 1 1792 29 discriminator 1
 7911 0048 488B4598 		movq	-104(%rbp), %rax
 7912 004c 488B4010 		movq	16(%rax), %rax
 7913              		.loc 1 1792 25 discriminator 1
 7914 0050 4885C0   		testq	%rax, %rax
 7915 0053 750A     		jne	.L527
 7916              	.L526:
1793:/home/xingli/share/1205tiny/network/dtls/mbedtls/mbedtls-2.16.2/library/bignum.c ****         return( MBEDTLS_ERR_MPI_BAD_INPUT_DATA );
 7917              		.loc 1 1793 15
 7918 0055 B8FCFFFF 		movl	$-4, %eax
 7918      FF
 7919 005a E99E0100 		jmp	.L528
 7919      00
 7920              	.L527:
1794:/home/xingli/share/1205tiny/network/dtls/mbedtls/mbedtls-2.16.2/library/bignum.c **** 
1795:/home/xingli/share/1205tiny/network/dtls/mbedtls/mbedtls-2.16.2/library/bignum.c ****     memset( T->p, 0, T->n * ciL );
 7921              		.loc 1 1795 23
 7922 005f 488B4598 		movq	-104(%rbp), %rax
 7923 0063 488B4008 		movq	8(%rax), %rax
 7924              		.loc 1 1795 5
 7925 0067 488D14C5 		leaq	0(,%rax,8), %rdx
 7925      00000000 
 7926              		.loc 1 1795 14
 7927 006f 488B4598 		movq	-104(%rbp), %rax
 7928 0073 488B4010 		movq	16(%rax), %rax
 7929              		.loc 1 1795 5
 7930 0077 BE000000 		movl	$0, %esi
 7930      00
 7931 007c 4889C7   		movq	%rax, %rdi
 7932 007f E8000000 		call	memset@PLT
 7932      00
1796:/home/xingli/share/1205tiny/network/dtls/mbedtls/mbedtls-2.16.2/library/bignum.c **** 
1797:/home/xingli/share/1205tiny/network/dtls/mbedtls/mbedtls-2.16.2/library/bignum.c ****     d = T->p;
 7933              		.loc 1 1797 7
 7934 0084 488B4598 		movq	-104(%rbp), %rax
 7935 0088 488B4010 		movq	16(%rax), %rax
 7936 008c 488945D0 		movq	%rax, -48(%rbp)
GAS LISTING /tmp/ccFaOvob.s 			page 201


1798:/home/xingli/share/1205tiny/network/dtls/mbedtls/mbedtls-2.16.2/library/bignum.c ****     n = N->n;
 7937              		.loc 1 1798 7
 7938 0090 488B45A8 		movq	-88(%rbp), %rax
 7939 0094 488B4008 		movq	8(%rax), %rax
 7940 0098 488945D8 		movq	%rax, -40(%rbp)
1799:/home/xingli/share/1205tiny/network/dtls/mbedtls/mbedtls-2.16.2/library/bignum.c ****     m = ( B->n < n ) ? B->n : n;
 7941              		.loc 1 1799 12
 7942 009c 488B45B0 		movq	-80(%rbp), %rax
 7943 00a0 488B4008 		movq	8(%rax), %rax
 7944              		.loc 1 1799 7
 7945 00a4 483945D8 		cmpq	%rax, -40(%rbp)
 7946 00a8 480F4645 		cmovbe	-40(%rbp), %rax
 7946      D8
 7947 00ad 488945E0 		movq	%rax, -32(%rbp)
1800:/home/xingli/share/1205tiny/network/dtls/mbedtls/mbedtls-2.16.2/library/bignum.c **** 
1801:/home/xingli/share/1205tiny/network/dtls/mbedtls/mbedtls-2.16.2/library/bignum.c ****     for( i = 0; i < n; i++ )
 7948              		.loc 1 1801 12
 7949 00b1 48C745C8 		movq	$0, -56(%rbp)
 7949      00000000 
 7950              		.loc 1 1801 5
 7951 00b9 E9AE0000 		jmp	.L529
 7951      00
 7952              	.L530:
1802:/home/xingli/share/1205tiny/network/dtls/mbedtls/mbedtls-2.16.2/library/bignum.c ****     {
1803:/home/xingli/share/1205tiny/network/dtls/mbedtls/mbedtls-2.16.2/library/bignum.c ****         /*
1804:/home/xingli/share/1205tiny/network/dtls/mbedtls/mbedtls-2.16.2/library/bignum.c ****          * T = (T + u0*B + u1*N) / 2^biL
1805:/home/xingli/share/1205tiny/network/dtls/mbedtls/mbedtls-2.16.2/library/bignum.c ****          */
1806:/home/xingli/share/1205tiny/network/dtls/mbedtls/mbedtls-2.16.2/library/bignum.c ****         u0 = A->p[i];
 7953              		.loc 1 1806 15 discriminator 3
 7954 00be 488B45B8 		movq	-72(%rbp), %rax
 7955 00c2 488B4010 		movq	16(%rax), %rax
 7956              		.loc 1 1806 18 discriminator 3
 7957 00c6 488B55C8 		movq	-56(%rbp), %rdx
 7958 00ca 48C1E203 		salq	$3, %rdx
 7959 00ce 4801D0   		addq	%rdx, %rax
 7960              		.loc 1 1806 12 discriminator 3
 7961 00d1 488B00   		movq	(%rax), %rax
 7962 00d4 488945E8 		movq	%rax, -24(%rbp)
1807:/home/xingli/share/1205tiny/network/dtls/mbedtls/mbedtls-2.16.2/library/bignum.c ****         u1 = ( d[0] + u0 * B->p[0] ) * mm;
 7963              		.loc 1 1807 17 discriminator 3
 7964 00d8 488B45D0 		movq	-48(%rbp), %rax
 7965 00dc 488B10   		movq	(%rax), %rdx
 7966              		.loc 1 1807 29 discriminator 3
 7967 00df 488B45B0 		movq	-80(%rbp), %rax
 7968 00e3 488B4010 		movq	16(%rax), %rax
 7969              		.loc 1 1807 32 discriminator 3
 7970 00e7 488B00   		movq	(%rax), %rax
 7971              		.loc 1 1807 26 discriminator 3
 7972 00ea 480FAF45 		imulq	-24(%rbp), %rax
 7972      E8
 7973              		.loc 1 1807 21 discriminator 3
 7974 00ef 4801C2   		addq	%rax, %rdx
 7975              		.loc 1 1807 12 discriminator 3
 7976 00f2 488B45A0 		movq	-96(%rbp), %rax
 7977 00f6 480FAFC2 		imulq	%rdx, %rax
 7978 00fa 488945F0 		movq	%rax, -16(%rbp)
1808:/home/xingli/share/1205tiny/network/dtls/mbedtls/mbedtls-2.16.2/library/bignum.c **** 
GAS LISTING /tmp/ccFaOvob.s 			page 202


1809:/home/xingli/share/1205tiny/network/dtls/mbedtls/mbedtls-2.16.2/library/bignum.c ****         mpi_mul_hlp( m, B->p, d, u0 );
 7979              		.loc 1 1809 9 discriminator 3
 7980 00fe 488B45B0 		movq	-80(%rbp), %rax
 7981 0102 488B7010 		movq	16(%rax), %rsi
 7982 0106 488B4DE8 		movq	-24(%rbp), %rcx
 7983 010a 488B55D0 		movq	-48(%rbp), %rdx
 7984 010e 488B45E0 		movq	-32(%rbp), %rax
 7985 0112 4889C7   		movq	%rax, %rdi
 7986 0115 E8000000 		call	mpi_mul_hlp
 7986      00
1810:/home/xingli/share/1205tiny/network/dtls/mbedtls/mbedtls-2.16.2/library/bignum.c ****         mpi_mul_hlp( n, N->p, d, u1 );
 7987              		.loc 1 1810 9 discriminator 3
 7988 011a 488B45A8 		movq	-88(%rbp), %rax
 7989 011e 488B7010 		movq	16(%rax), %rsi
 7990 0122 488B4DF0 		movq	-16(%rbp), %rcx
 7991 0126 488B55D0 		movq	-48(%rbp), %rdx
 7992 012a 488B45D8 		movq	-40(%rbp), %rax
 7993 012e 4889C7   		movq	%rax, %rdi
 7994 0131 E8000000 		call	mpi_mul_hlp
 7994      00
1811:/home/xingli/share/1205tiny/network/dtls/mbedtls/mbedtls-2.16.2/library/bignum.c **** 
1812:/home/xingli/share/1205tiny/network/dtls/mbedtls/mbedtls-2.16.2/library/bignum.c ****         *d++ = u0; d[n + 1] = 0;
 7995              		.loc 1 1812 11 discriminator 3
 7996 0136 488B45D0 		movq	-48(%rbp), %rax
 7997 013a 488D5008 		leaq	8(%rax), %rdx
 7998 013e 488955D0 		movq	%rdx, -48(%rbp)
 7999              		.loc 1 1812 14 discriminator 3
 8000 0142 488B55E8 		movq	-24(%rbp), %rdx
 8001 0146 488910   		movq	%rdx, (%rax)
 8002              		.loc 1 1812 21 discriminator 3
 8003 0149 488B45D8 		movq	-40(%rbp), %rax
 8004 014d 4883C001 		addq	$1, %rax
 8005 0151 488D14C5 		leaq	0(,%rax,8), %rdx
 8005      00000000 
 8006 0159 488B45D0 		movq	-48(%rbp), %rax
 8007 015d 4801D0   		addq	%rdx, %rax
 8008              		.loc 1 1812 29 discriminator 3
 8009 0160 48C70000 		movq	$0, (%rax)
 8009      000000
1801:/home/xingli/share/1205tiny/network/dtls/mbedtls/mbedtls-2.16.2/library/bignum.c ****     {
 8010              		.loc 1 1801 25 discriminator 3
 8011 0167 488345C8 		addq	$1, -56(%rbp)
 8011      01
 8012              	.L529:
1801:/home/xingli/share/1205tiny/network/dtls/mbedtls/mbedtls-2.16.2/library/bignum.c ****     {
 8013              		.loc 1 1801 5 discriminator 1
 8014 016c 488B45C8 		movq	-56(%rbp), %rax
 8015 0170 483B45D8 		cmpq	-40(%rbp), %rax
 8016 0174 0F8244FF 		jb	.L530
 8016      FFFF
1813:/home/xingli/share/1205tiny/network/dtls/mbedtls/mbedtls-2.16.2/library/bignum.c ****     }
1814:/home/xingli/share/1205tiny/network/dtls/mbedtls/mbedtls-2.16.2/library/bignum.c **** 
1815:/home/xingli/share/1205tiny/network/dtls/mbedtls/mbedtls-2.16.2/library/bignum.c ****     memcpy( A->p, d, ( n + 1 ) * ciL );
 8017              		.loc 1 1815 26
 8018 017a 488B45D8 		movq	-40(%rbp), %rax
 8019 017e 4883C001 		addq	$1, %rax
 8020              		.loc 1 1815 5
GAS LISTING /tmp/ccFaOvob.s 			page 203


 8021 0182 488D14C5 		leaq	0(,%rax,8), %rdx
 8021      00000000 
 8022              		.loc 1 1815 14
 8023 018a 488B45B8 		movq	-72(%rbp), %rax
 8024 018e 488B4010 		movq	16(%rax), %rax
 8025              		.loc 1 1815 5
 8026 0192 488B4DD0 		movq	-48(%rbp), %rcx
 8027 0196 4889CE   		movq	%rcx, %rsi
 8028 0199 4889C7   		movq	%rax, %rdi
 8029 019c E8000000 		call	memcpy@PLT
 8029      00
1816:/home/xingli/share/1205tiny/network/dtls/mbedtls/mbedtls-2.16.2/library/bignum.c **** 
1817:/home/xingli/share/1205tiny/network/dtls/mbedtls/mbedtls-2.16.2/library/bignum.c ****     if( mbedtls_mpi_cmp_abs( A, N ) >= 0 )
 8030              		.loc 1 1817 9
 8031 01a1 488B55A8 		movq	-88(%rbp), %rdx
 8032 01a5 488B45B8 		movq	-72(%rbp), %rax
 8033 01a9 4889D6   		movq	%rdx, %rsi
 8034 01ac 4889C7   		movq	%rax, %rdi
 8035 01af E8000000 		call	mbedtls_mpi_cmp_abs
 8035      00
 8036              		.loc 1 1817 7
 8037 01b4 85C0     		testl	%eax, %eax
 8038 01b6 7821     		js	.L531
1818:/home/xingli/share/1205tiny/network/dtls/mbedtls/mbedtls-2.16.2/library/bignum.c ****         mpi_sub_hlp( n, N->p, A->p );
 8039              		.loc 1 1818 9
 8040 01b8 488B45B8 		movq	-72(%rbp), %rax
 8041 01bc 488B5010 		movq	16(%rax), %rdx
 8042 01c0 488B45A8 		movq	-88(%rbp), %rax
 8043 01c4 488B4810 		movq	16(%rax), %rcx
 8044 01c8 488B45D8 		movq	-40(%rbp), %rax
 8045 01cc 4889CE   		movq	%rcx, %rsi
 8046 01cf 4889C7   		movq	%rax, %rdi
 8047 01d2 E8000000 		call	mpi_sub_hlp
 8047      00
 8048 01d7 EB1F     		jmp	.L532
 8049              	.L531:
1819:/home/xingli/share/1205tiny/network/dtls/mbedtls/mbedtls-2.16.2/library/bignum.c ****     else
1820:/home/xingli/share/1205tiny/network/dtls/mbedtls/mbedtls-2.16.2/library/bignum.c ****         /* prevent timing attacks */
1821:/home/xingli/share/1205tiny/network/dtls/mbedtls/mbedtls-2.16.2/library/bignum.c ****         mpi_sub_hlp( n, A->p, T->p );
 8050              		.loc 1 1821 9
 8051 01d9 488B4598 		movq	-104(%rbp), %rax
 8052 01dd 488B5010 		movq	16(%rax), %rdx
 8053 01e1 488B45B8 		movq	-72(%rbp), %rax
 8054 01e5 488B4810 		movq	16(%rax), %rcx
 8055 01e9 488B45D8 		movq	-40(%rbp), %rax
 8056 01ed 4889CE   		movq	%rcx, %rsi
 8057 01f0 4889C7   		movq	%rax, %rdi
 8058 01f3 E8000000 		call	mpi_sub_hlp
 8058      00
 8059              	.L532:
1822:/home/xingli/share/1205tiny/network/dtls/mbedtls/mbedtls-2.16.2/library/bignum.c **** 
1823:/home/xingli/share/1205tiny/network/dtls/mbedtls/mbedtls-2.16.2/library/bignum.c ****     return( 0 );
 8060              		.loc 1 1823 11
 8061 01f8 B8000000 		movl	$0, %eax
 8061      00
 8062              	.L528:
1824:/home/xingli/share/1205tiny/network/dtls/mbedtls/mbedtls-2.16.2/library/bignum.c **** }
GAS LISTING /tmp/ccFaOvob.s 			page 204


 8063              		.loc 1 1824 1
 8064 01fd 488B7DF8 		movq	-8(%rbp), %rdi
 8065 0201 6448333C 		xorq	%fs:40, %rdi
 8065      25280000 
 8065      00
 8066 020a 7405     		je	.L533
 8067 020c E8000000 		call	__stack_chk_fail@PLT
 8067      00
 8068              	.L533:
 8069 0211 C9       		leave
 8070              	.LCFI140:
 8071              		.cfi_def_cfa 7, 8
 8072 0212 C3       		ret
 8073              		.cfi_endproc
 8074              	.LFE52:
 8076              		.section	.text.mpi_montred,"ax",@progbits
 8078              	mpi_montred:
 8079              	.LFB53:
1825:/home/xingli/share/1205tiny/network/dtls/mbedtls/mbedtls-2.16.2/library/bignum.c **** 
1826:/home/xingli/share/1205tiny/network/dtls/mbedtls/mbedtls-2.16.2/library/bignum.c **** /*
1827:/home/xingli/share/1205tiny/network/dtls/mbedtls/mbedtls-2.16.2/library/bignum.c ****  * Montgomery reduction: A = A * R^-1 mod N
1828:/home/xingli/share/1205tiny/network/dtls/mbedtls/mbedtls-2.16.2/library/bignum.c ****  */
1829:/home/xingli/share/1205tiny/network/dtls/mbedtls/mbedtls-2.16.2/library/bignum.c **** static int mpi_montred( mbedtls_mpi *A, const mbedtls_mpi *N,
1830:/home/xingli/share/1205tiny/network/dtls/mbedtls/mbedtls-2.16.2/library/bignum.c ****                         mbedtls_mpi_uint mm, const mbedtls_mpi *T )
1831:/home/xingli/share/1205tiny/network/dtls/mbedtls/mbedtls-2.16.2/library/bignum.c **** {
 8080              		.loc 1 1831 1
 8081              		.cfi_startproc
 8082 0000 F30F1EFA 		endbr64
 8083 0004 55       		pushq	%rbp
 8084              	.LCFI141:
 8085              		.cfi_def_cfa_offset 16
 8086              		.cfi_offset 6, -16
 8087 0005 4889E5   		movq	%rsp, %rbp
 8088              	.LCFI142:
 8089              		.cfi_def_cfa_register 6
 8090 0008 4883EC50 		subq	$80, %rsp
 8091 000c 48897DC8 		movq	%rdi, -56(%rbp)
 8092 0010 488975C0 		movq	%rsi, -64(%rbp)
 8093 0014 488955B8 		movq	%rdx, -72(%rbp)
 8094 0018 48894DB0 		movq	%rcx, -80(%rbp)
 8095              		.loc 1 1831 1
 8096 001c 64488B04 		movq	%fs:40, %rax
 8096      25280000 
 8096      00
 8097 0025 488945F8 		movq	%rax, -8(%rbp)
 8098 0029 31C0     		xorl	%eax, %eax
1832:/home/xingli/share/1205tiny/network/dtls/mbedtls/mbedtls-2.16.2/library/bignum.c ****     mbedtls_mpi_uint z = 1;
 8099              		.loc 1 1832 22
 8100 002b 48C745D8 		movq	$1, -40(%rbp)
 8100      01000000 
1833:/home/xingli/share/1205tiny/network/dtls/mbedtls/mbedtls-2.16.2/library/bignum.c ****     mbedtls_mpi U;
1834:/home/xingli/share/1205tiny/network/dtls/mbedtls/mbedtls-2.16.2/library/bignum.c **** 
1835:/home/xingli/share/1205tiny/network/dtls/mbedtls/mbedtls-2.16.2/library/bignum.c ****     U.n = U.s = (int) z;
 8101              		.loc 1 1835 17
 8102 0033 488B45D8 		movq	-40(%rbp), %rax
 8103              		.loc 1 1835 15
 8104 0037 8945E0   		movl	%eax, -32(%rbp)
GAS LISTING /tmp/ccFaOvob.s 			page 205


 8105              		.loc 1 1835 12
 8106 003a 8B45E0   		movl	-32(%rbp), %eax
 8107              		.loc 1 1835 15
 8108 003d 4898     		cltq
 8109              		.loc 1 1835 9
 8110 003f 488945E8 		movq	%rax, -24(%rbp)
1836:/home/xingli/share/1205tiny/network/dtls/mbedtls/mbedtls-2.16.2/library/bignum.c ****     U.p = &z;
 8111              		.loc 1 1836 9
 8112 0043 488D45D8 		leaq	-40(%rbp), %rax
 8113 0047 488945F0 		movq	%rax, -16(%rbp)
1837:/home/xingli/share/1205tiny/network/dtls/mbedtls/mbedtls-2.16.2/library/bignum.c **** 
1838:/home/xingli/share/1205tiny/network/dtls/mbedtls/mbedtls-2.16.2/library/bignum.c ****     return( mpi_montmul( A, &U, N, mm, T ) );
 8114              		.loc 1 1838 13
 8115 004b 488B7DB0 		movq	-80(%rbp), %rdi
 8116 004f 488B4DB8 		movq	-72(%rbp), %rcx
 8117 0053 488B55C0 		movq	-64(%rbp), %rdx
 8118 0057 488D75E0 		leaq	-32(%rbp), %rsi
 8119 005b 488B45C8 		movq	-56(%rbp), %rax
 8120 005f 4989F8   		movq	%rdi, %r8
 8121 0062 4889C7   		movq	%rax, %rdi
 8122 0065 E8000000 		call	mpi_montmul
 8122      00
1839:/home/xingli/share/1205tiny/network/dtls/mbedtls/mbedtls-2.16.2/library/bignum.c **** }
 8123              		.loc 1 1839 1
 8124 006a 488B55F8 		movq	-8(%rbp), %rdx
 8125 006e 64483314 		xorq	%fs:40, %rdx
 8125      25280000 
 8125      00
 8126 0077 7405     		je	.L536
 8127 0079 E8000000 		call	__stack_chk_fail@PLT
 8127      00
 8128              	.L536:
 8129 007e C9       		leave
 8130              	.LCFI143:
 8131              		.cfi_def_cfa 7, 8
 8132 007f C3       		ret
 8133              		.cfi_endproc
 8134              	.LFE53:
 8136              		.section	.text.mbedtls_mpi_exp_mod,"ax",@progbits
 8137              		.globl	mbedtls_mpi_exp_mod
 8139              	mbedtls_mpi_exp_mod:
 8140              	.LFB54:
1840:/home/xingli/share/1205tiny/network/dtls/mbedtls/mbedtls-2.16.2/library/bignum.c **** 
1841:/home/xingli/share/1205tiny/network/dtls/mbedtls/mbedtls-2.16.2/library/bignum.c **** /*
1842:/home/xingli/share/1205tiny/network/dtls/mbedtls/mbedtls-2.16.2/library/bignum.c ****  * Sliding-window exponentiation: X = A^E mod N  (HAC 14.85)
1843:/home/xingli/share/1205tiny/network/dtls/mbedtls/mbedtls-2.16.2/library/bignum.c ****  */
1844:/home/xingli/share/1205tiny/network/dtls/mbedtls/mbedtls-2.16.2/library/bignum.c **** int mbedtls_mpi_exp_mod( mbedtls_mpi *X, const mbedtls_mpi *A,
1845:/home/xingli/share/1205tiny/network/dtls/mbedtls/mbedtls-2.16.2/library/bignum.c ****                          const mbedtls_mpi *E, const mbedtls_mpi *N,
1846:/home/xingli/share/1205tiny/network/dtls/mbedtls/mbedtls-2.16.2/library/bignum.c ****                          mbedtls_mpi *_RR )
1847:/home/xingli/share/1205tiny/network/dtls/mbedtls/mbedtls-2.16.2/library/bignum.c **** {
 8141              		.loc 1 1847 1
 8142              		.cfi_startproc
 8143 0000 F30F1EFA 		endbr64
 8144 0004 55       		pushq	%rbp
 8145              	.LCFI144:
 8146              		.cfi_def_cfa_offset 16
 8147              		.cfi_offset 6, -16
GAS LISTING /tmp/ccFaOvob.s 			page 206


 8148 0005 4889E5   		movq	%rsp, %rbp
 8149              	.LCFI145:
 8150              		.cfi_def_cfa_register 6
 8151 0008 4881EC00 		subq	$3328, %rsp
 8151      0D0000
 8152 000f 4889BD28 		movq	%rdi, -3288(%rbp)
 8152      F3FFFF
 8153 0016 4889B520 		movq	%rsi, -3296(%rbp)
 8153      F3FFFF
 8154 001d 48899518 		movq	%rdx, -3304(%rbp)
 8154      F3FFFF
 8155 0024 48898D10 		movq	%rcx, -3312(%rbp)
 8155      F3FFFF
 8156 002b 4C898508 		movq	%r8, -3320(%rbp)
 8156      F3FFFF
 8157              		.loc 1 1847 1
 8158 0032 64488B04 		movq	%fs:40, %rax
 8158      25280000 
 8158      00
 8159 003b 488945F8 		movq	%rax, -8(%rbp)
 8160 003f 31C0     		xorl	%eax, %eax
1848:/home/xingli/share/1205tiny/network/dtls/mbedtls/mbedtls-2.16.2/library/bignum.c ****     int ret;
1849:/home/xingli/share/1205tiny/network/dtls/mbedtls/mbedtls-2.16.2/library/bignum.c ****     size_t wbits, wsize, one = 1;
 8161              		.loc 1 1849 26
 8162 0041 48C78570 		movq	$1, -3216(%rbp)
 8162      F3FFFF01 
 8162      000000
1850:/home/xingli/share/1205tiny/network/dtls/mbedtls/mbedtls-2.16.2/library/bignum.c ****     size_t i, j, nblimbs;
1851:/home/xingli/share/1205tiny/network/dtls/mbedtls/mbedtls-2.16.2/library/bignum.c ****     size_t bufsize, nbits;
1852:/home/xingli/share/1205tiny/network/dtls/mbedtls/mbedtls-2.16.2/library/bignum.c ****     mbedtls_mpi_uint ei, mm, state;
1853:/home/xingli/share/1205tiny/network/dtls/mbedtls/mbedtls-2.16.2/library/bignum.c ****     mbedtls_mpi RR, T, W[ 2 << MBEDTLS_MPI_WINDOW_SIZE ], Apos;
1854:/home/xingli/share/1205tiny/network/dtls/mbedtls/mbedtls-2.16.2/library/bignum.c ****     int neg;
1855:/home/xingli/share/1205tiny/network/dtls/mbedtls/mbedtls-2.16.2/library/bignum.c **** 
1856:/home/xingli/share/1205tiny/network/dtls/mbedtls/mbedtls-2.16.2/library/bignum.c ****     MPI_VALIDATE_RET( X != NULL );
1857:/home/xingli/share/1205tiny/network/dtls/mbedtls/mbedtls-2.16.2/library/bignum.c ****     MPI_VALIDATE_RET( A != NULL );
1858:/home/xingli/share/1205tiny/network/dtls/mbedtls/mbedtls-2.16.2/library/bignum.c ****     MPI_VALIDATE_RET( E != NULL );
1859:/home/xingli/share/1205tiny/network/dtls/mbedtls/mbedtls-2.16.2/library/bignum.c ****     MPI_VALIDATE_RET( N != NULL );
1860:/home/xingli/share/1205tiny/network/dtls/mbedtls/mbedtls-2.16.2/library/bignum.c **** 
1861:/home/xingli/share/1205tiny/network/dtls/mbedtls/mbedtls-2.16.2/library/bignum.c ****     if( mbedtls_mpi_cmp_int( N, 0 ) <= 0 || ( N->p[0] & 1 ) == 0 )
 8163              		.loc 1 1861 9
 8164 004c 488B8510 		movq	-3312(%rbp), %rax
 8164      F3FFFF
 8165 0053 BE000000 		movl	$0, %esi
 8165      00
 8166 0058 4889C7   		movq	%rax, %rdi
 8167 005b E8000000 		call	mbedtls_mpi_cmp_int
 8167      00
 8168              		.loc 1 1861 7
 8169 0060 85C0     		testl	%eax, %eax
 8170 0062 7E16     		jle	.L538
 8171              		.loc 1 1861 48 discriminator 1
 8172 0064 488B8510 		movq	-3312(%rbp), %rax
 8172      F3FFFF
 8173 006b 488B4010 		movq	16(%rax), %rax
 8174              		.loc 1 1861 51 discriminator 1
 8175 006f 488B00   		movq	(%rax), %rax
 8176              		.loc 1 1861 55 discriminator 1
GAS LISTING /tmp/ccFaOvob.s 			page 207


 8177 0072 83E001   		andl	$1, %eax
 8178              		.loc 1 1861 42 discriminator 1
 8179 0075 4885C0   		testq	%rax, %rax
 8180 0078 750A     		jne	.L539
 8181              	.L538:
1862:/home/xingli/share/1205tiny/network/dtls/mbedtls/mbedtls-2.16.2/library/bignum.c ****         return( MBEDTLS_ERR_MPI_BAD_INPUT_DATA );
 8182              		.loc 1 1862 15
 8183 007a B8FCFFFF 		movl	$-4, %eax
 8183      FF
 8184 007f E99E0B00 		jmp	.L600
 8184      00
 8185              	.L539:
1863:/home/xingli/share/1205tiny/network/dtls/mbedtls/mbedtls-2.16.2/library/bignum.c **** 
1864:/home/xingli/share/1205tiny/network/dtls/mbedtls/mbedtls-2.16.2/library/bignum.c ****     if( mbedtls_mpi_cmp_int( E, 0 ) < 0 )
 8186              		.loc 1 1864 9
 8187 0084 488B8518 		movq	-3304(%rbp), %rax
 8187      F3FFFF
 8188 008b BE000000 		movl	$0, %esi
 8188      00
 8189 0090 4889C7   		movq	%rax, %rdi
 8190 0093 E8000000 		call	mbedtls_mpi_cmp_int
 8190      00
 8191              		.loc 1 1864 7
 8192 0098 85C0     		testl	%eax, %eax
 8193 009a 790A     		jns	.L541
1865:/home/xingli/share/1205tiny/network/dtls/mbedtls/mbedtls-2.16.2/library/bignum.c ****         return( MBEDTLS_ERR_MPI_BAD_INPUT_DATA );
 8194              		.loc 1 1865 15
 8195 009c B8FCFFFF 		movl	$-4, %eax
 8195      FF
 8196 00a1 E97C0B00 		jmp	.L600
 8196      00
 8197              	.L541:
1866:/home/xingli/share/1205tiny/network/dtls/mbedtls/mbedtls-2.16.2/library/bignum.c **** 
1867:/home/xingli/share/1205tiny/network/dtls/mbedtls/mbedtls-2.16.2/library/bignum.c ****     /*
1868:/home/xingli/share/1205tiny/network/dtls/mbedtls/mbedtls-2.16.2/library/bignum.c ****      * Init temps and window size
1869:/home/xingli/share/1205tiny/network/dtls/mbedtls/mbedtls-2.16.2/library/bignum.c ****      */
1870:/home/xingli/share/1205tiny/network/dtls/mbedtls/mbedtls-2.16.2/library/bignum.c ****     mpi_montg_init( &mm, N );
 8198              		.loc 1 1870 5
 8199 00a6 488B9510 		movq	-3312(%rbp), %rdx
 8199      F3FFFF
 8200 00ad 488D8538 		leaq	-3272(%rbp), %rax
 8200      F3FFFF
 8201 00b4 4889D6   		movq	%rdx, %rsi
 8202 00b7 4889C7   		movq	%rax, %rdi
 8203 00ba E8000000 		call	mpi_montg_init
 8203      00
1871:/home/xingli/share/1205tiny/network/dtls/mbedtls/mbedtls-2.16.2/library/bignum.c ****     mbedtls_mpi_init( &RR ); mbedtls_mpi_init( &T );
 8204              		.loc 1 1871 5
 8205 00bf 488D8590 		leaq	-3184(%rbp), %rax
 8205      F3FFFF
 8206 00c6 4889C7   		movq	%rax, %rdi
 8207 00c9 E8000000 		call	mbedtls_mpi_init
 8207      00
 8208              		.loc 1 1871 30
 8209 00ce 488D85B0 		leaq	-3152(%rbp), %rax
 8209      F3FFFF
 8210 00d5 4889C7   		movq	%rax, %rdi
GAS LISTING /tmp/ccFaOvob.s 			page 208


 8211 00d8 E8000000 		call	mbedtls_mpi_init
 8211      00
1872:/home/xingli/share/1205tiny/network/dtls/mbedtls/mbedtls-2.16.2/library/bignum.c ****     mbedtls_mpi_init( &Apos );
 8212              		.loc 1 1872 5
 8213 00dd 488D85D0 		leaq	-3120(%rbp), %rax
 8213      F3FFFF
 8214 00e4 4889C7   		movq	%rax, %rdi
 8215 00e7 E8000000 		call	mbedtls_mpi_init
 8215      00
1873:/home/xingli/share/1205tiny/network/dtls/mbedtls/mbedtls-2.16.2/library/bignum.c ****     memset( W, 0, sizeof( W ) );
 8216              		.loc 1 1873 5
 8217 00ec 488D85F0 		leaq	-3088(%rbp), %rax
 8217      F3FFFF
 8218 00f3 BA000C00 		movl	$3072, %edx
 8218      00
 8219 00f8 BE000000 		movl	$0, %esi
 8219      00
 8220 00fd 4889C7   		movq	%rax, %rdi
 8221 0100 E8000000 		call	memset@PLT
 8221      00
1874:/home/xingli/share/1205tiny/network/dtls/mbedtls/mbedtls-2.16.2/library/bignum.c **** 
1875:/home/xingli/share/1205tiny/network/dtls/mbedtls/mbedtls-2.16.2/library/bignum.c ****     i = mbedtls_mpi_bitlen( E );
 8222              		.loc 1 1875 9
 8223 0105 488B8518 		movq	-3304(%rbp), %rax
 8223      F3FFFF
 8224 010c 4889C7   		movq	%rax, %rdi
 8225 010f E8000000 		call	mbedtls_mpi_bitlen
 8225      00
 8226 0114 48898548 		movq	%rax, -3256(%rbp)
 8226      F3FFFF
1876:/home/xingli/share/1205tiny/network/dtls/mbedtls/mbedtls-2.16.2/library/bignum.c **** 
1877:/home/xingli/share/1205tiny/network/dtls/mbedtls/mbedtls-2.16.2/library/bignum.c ****     wsize = ( i > 671 ) ? 6 : ( i > 239 ) ? 5 :
 8227              		.loc 1 1877 29
 8228 011b 4881BD48 		cmpq	$671, -3256(%rbp)
 8228      F3FFFF9F 
 8228      020000
 8229 0126 773D     		ja	.L542
 8230              		.loc 1 1877 29 is_stmt 0 discriminator 1
 8231 0128 4881BD48 		cmpq	$239, -3256(%rbp)
 8231      F3FFFFEF 
 8231      000000
 8232 0133 7729     		ja	.L543
 8233              		.loc 1 1877 29 discriminator 3
 8234 0135 4883BD48 		cmpq	$79, -3256(%rbp)
 8234      F3FFFF4F 
 8235 013d 7718     		ja	.L544
 8236              		.loc 1 1877 29 discriminator 5
 8237 013f 4883BD48 		cmpq	$23, -3256(%rbp)
 8237      F3FFFF17 
 8238 0147 7607     		jbe	.L545
 8239              		.loc 1 1877 29 discriminator 7
 8240 0149 B8030000 		movl	$3, %eax
 8240      00
 8241 014e EB1A     		jmp	.L549
 8242              	.L545:
 8243              		.loc 1 1877 29 discriminator 8
 8244 0150 B8010000 		movl	$1, %eax
GAS LISTING /tmp/ccFaOvob.s 			page 209


 8244      00
 8245 0155 EB13     		jmp	.L549
 8246              	.L544:
 8247              		.loc 1 1877 29 discriminator 6
 8248 0157 B8040000 		movl	$4, %eax
 8248      00
 8249 015c EB0C     		jmp	.L549
 8250              	.L543:
 8251              		.loc 1 1877 29 discriminator 4
 8252 015e B8050000 		movl	$5, %eax
 8252      00
 8253 0163 EB05     		jmp	.L549
 8254              	.L542:
 8255              		.loc 1 1877 29 discriminator 2
 8256 0165 B8060000 		movl	$6, %eax
 8256      00
 8257              	.L549:
 8258              		.loc 1 1877 11 is_stmt 1 discriminator 16
 8259 016a 48898578 		movq	%rax, -3208(%rbp)
 8259      F3FFFF
1878:/home/xingli/share/1205tiny/network/dtls/mbedtls/mbedtls-2.16.2/library/bignum.c ****             ( i >  79 ) ? 4 : ( i >  23 ) ? 3 : 1;
1879:/home/xingli/share/1205tiny/network/dtls/mbedtls/mbedtls-2.16.2/library/bignum.c **** 
1880:/home/xingli/share/1205tiny/network/dtls/mbedtls/mbedtls-2.16.2/library/bignum.c **** #if( MBEDTLS_MPI_WINDOW_SIZE < 6 )
1881:/home/xingli/share/1205tiny/network/dtls/mbedtls/mbedtls-2.16.2/library/bignum.c ****     if( wsize > MBEDTLS_MPI_WINDOW_SIZE )
1882:/home/xingli/share/1205tiny/network/dtls/mbedtls/mbedtls-2.16.2/library/bignum.c ****         wsize = MBEDTLS_MPI_WINDOW_SIZE;
1883:/home/xingli/share/1205tiny/network/dtls/mbedtls/mbedtls-2.16.2/library/bignum.c **** #endif
1884:/home/xingli/share/1205tiny/network/dtls/mbedtls/mbedtls-2.16.2/library/bignum.c **** 
1885:/home/xingli/share/1205tiny/network/dtls/mbedtls/mbedtls-2.16.2/library/bignum.c ****     j = N->n + 1;
 8260              		.loc 1 1885 10 discriminator 16
 8261 0171 488B8510 		movq	-3312(%rbp), %rax
 8261      F3FFFF
 8262 0178 488B4008 		movq	8(%rax), %rax
 8263              		.loc 1 1885 7 discriminator 16
 8264 017c 4883C001 		addq	$1, %rax
 8265 0180 48898580 		movq	%rax, -3200(%rbp)
 8265      F3FFFF
1886:/home/xingli/share/1205tiny/network/dtls/mbedtls/mbedtls-2.16.2/library/bignum.c ****     MBEDTLS_MPI_CHK( mbedtls_mpi_grow( X, j ) );
 8266              		.loc 1 1886 5 discriminator 16
 8267 0187 488B9580 		movq	-3200(%rbp), %rdx
 8267      F3FFFF
 8268 018e 488B8528 		movq	-3288(%rbp), %rax
 8268      F3FFFF
 8269 0195 4889D6   		movq	%rdx, %rsi
 8270 0198 4889C7   		movq	%rax, %rdi
 8271 019b E8000000 		call	mbedtls_mpi_grow
 8271      00
 8272 01a0 898530F3 		movl	%eax, -3280(%rbp)
 8272      FFFF
 8273 01a6 83BD30F3 		cmpl	$0, -3280(%rbp)
 8273      FFFF00
 8274 01ad 0F855E09 		jne	.L603
 8274      0000
1887:/home/xingli/share/1205tiny/network/dtls/mbedtls/mbedtls-2.16.2/library/bignum.c ****     MBEDTLS_MPI_CHK( mbedtls_mpi_grow( &W[1],  j ) );
 8275              		.loc 1 1887 5
 8276 01b3 488B8580 		movq	-3200(%rbp), %rax
 8276      F3FFFF
 8277 01ba 488D95F0 		leaq	-3088(%rbp), %rdx
GAS LISTING /tmp/ccFaOvob.s 			page 210


 8277      F3FFFF
 8278 01c1 4883C218 		addq	$24, %rdx
 8279 01c5 4889C6   		movq	%rax, %rsi
 8280 01c8 4889D7   		movq	%rdx, %rdi
 8281 01cb E8000000 		call	mbedtls_mpi_grow
 8281      00
 8282 01d0 898530F3 		movl	%eax, -3280(%rbp)
 8282      FFFF
 8283 01d6 83BD30F3 		cmpl	$0, -3280(%rbp)
 8283      FFFF00
 8284 01dd 0F853109 		jne	.L604
 8284      0000
1888:/home/xingli/share/1205tiny/network/dtls/mbedtls/mbedtls-2.16.2/library/bignum.c ****     MBEDTLS_MPI_CHK( mbedtls_mpi_grow( &T, j * 2 ) );
 8285              		.loc 1 1888 5
 8286 01e3 488B8580 		movq	-3200(%rbp), %rax
 8286      F3FFFF
 8287 01ea 488D1400 		leaq	(%rax,%rax), %rdx
 8288 01ee 488D85B0 		leaq	-3152(%rbp), %rax
 8288      F3FFFF
 8289 01f5 4889D6   		movq	%rdx, %rsi
 8290 01f8 4889C7   		movq	%rax, %rdi
 8291 01fb E8000000 		call	mbedtls_mpi_grow
 8291      00
 8292 0200 898530F3 		movl	%eax, -3280(%rbp)
 8292      FFFF
 8293 0206 83BD30F3 		cmpl	$0, -3280(%rbp)
 8293      FFFF00
 8294 020d 0F850409 		jne	.L605
 8294      0000
1889:/home/xingli/share/1205tiny/network/dtls/mbedtls/mbedtls-2.16.2/library/bignum.c **** 
1890:/home/xingli/share/1205tiny/network/dtls/mbedtls/mbedtls-2.16.2/library/bignum.c ****     /*
1891:/home/xingli/share/1205tiny/network/dtls/mbedtls/mbedtls-2.16.2/library/bignum.c ****      * Compensate for negative A (and correct at the end)
1892:/home/xingli/share/1205tiny/network/dtls/mbedtls/mbedtls-2.16.2/library/bignum.c ****      */
1893:/home/xingli/share/1205tiny/network/dtls/mbedtls/mbedtls-2.16.2/library/bignum.c ****     neg = ( A->s == -1 );
 8295              		.loc 1 1893 14
 8296 0213 488B8520 		movq	-3296(%rbp), %rax
 8296      F3FFFF
 8297 021a 8B00     		movl	(%rax), %eax
 8298              		.loc 1 1893 18
 8299 021c 83F8FF   		cmpl	$-1, %eax
 8300 021f 0F94C0   		sete	%al
 8301              		.loc 1 1893 9
 8302 0222 0FB6C0   		movzbl	%al, %eax
 8303 0225 898534F3 		movl	%eax, -3276(%rbp)
 8303      FFFF
1894:/home/xingli/share/1205tiny/network/dtls/mbedtls/mbedtls-2.16.2/library/bignum.c ****     if( neg )
 8304              		.loc 1 1894 7
 8305 022b 83BD34F3 		cmpl	$0, -3276(%rbp)
 8305      FFFF00
 8306 0232 7444     		je	.L554
1895:/home/xingli/share/1205tiny/network/dtls/mbedtls/mbedtls-2.16.2/library/bignum.c ****     {
1896:/home/xingli/share/1205tiny/network/dtls/mbedtls/mbedtls-2.16.2/library/bignum.c ****         MBEDTLS_MPI_CHK( mbedtls_mpi_copy( &Apos, A ) );
 8307              		.loc 1 1896 9
 8308 0234 488B9520 		movq	-3296(%rbp), %rdx
 8308      F3FFFF
 8309 023b 488D85D0 		leaq	-3120(%rbp), %rax
 8309      F3FFFF
GAS LISTING /tmp/ccFaOvob.s 			page 211


 8310 0242 4889D6   		movq	%rdx, %rsi
 8311 0245 4889C7   		movq	%rax, %rdi
 8312 0248 E8000000 		call	mbedtls_mpi_copy
 8312      00
 8313 024d 898530F3 		movl	%eax, -3280(%rbp)
 8313      FFFF
 8314 0253 83BD30F3 		cmpl	$0, -3280(%rbp)
 8314      FFFF00
 8315 025a 0F85BA08 		jne	.L606
 8315      0000
1897:/home/xingli/share/1205tiny/network/dtls/mbedtls/mbedtls-2.16.2/library/bignum.c ****         Apos.s = 1;
 8316              		.loc 1 1897 16
 8317 0260 C785D0F3 		movl	$1, -3120(%rbp)
 8317      FFFF0100 
 8317      0000
1898:/home/xingli/share/1205tiny/network/dtls/mbedtls/mbedtls-2.16.2/library/bignum.c ****         A = &Apos;
 8318              		.loc 1 1898 11
 8319 026a 488D85D0 		leaq	-3120(%rbp), %rax
 8319      F3FFFF
 8320 0271 48898520 		movq	%rax, -3296(%rbp)
 8320      F3FFFF
 8321              	.L554:
1899:/home/xingli/share/1205tiny/network/dtls/mbedtls/mbedtls-2.16.2/library/bignum.c ****     }
1900:/home/xingli/share/1205tiny/network/dtls/mbedtls/mbedtls-2.16.2/library/bignum.c **** 
1901:/home/xingli/share/1205tiny/network/dtls/mbedtls/mbedtls-2.16.2/library/bignum.c ****     /*
1902:/home/xingli/share/1205tiny/network/dtls/mbedtls/mbedtls-2.16.2/library/bignum.c ****      * If 1st call, pre-compute R^2 mod N
1903:/home/xingli/share/1205tiny/network/dtls/mbedtls/mbedtls-2.16.2/library/bignum.c ****      */
1904:/home/xingli/share/1205tiny/network/dtls/mbedtls/mbedtls-2.16.2/library/bignum.c ****     if( _RR == NULL || _RR->p == NULL )
 8322              		.loc 1 1904 7
 8323 0278 4883BD08 		cmpq	$0, -3320(%rbp)
 8323      F3FFFF00 
 8324 0280 7414     		je	.L556
 8325              		.loc 1 1904 27 discriminator 1
 8326 0282 488B8508 		movq	-3320(%rbp), %rax
 8326      F3FFFF
 8327 0289 488B4010 		movq	16(%rax), %rax
 8328              		.loc 1 1904 21 discriminator 1
 8329 028d 4885C0   		testq	%rax, %rax
 8330 0290 0F85BB00 		jne	.L557
 8330      0000
 8331              	.L556:
1905:/home/xingli/share/1205tiny/network/dtls/mbedtls/mbedtls-2.16.2/library/bignum.c ****     {
1906:/home/xingli/share/1205tiny/network/dtls/mbedtls/mbedtls-2.16.2/library/bignum.c ****         MBEDTLS_MPI_CHK( mbedtls_mpi_lset( &RR, 1 ) );
 8332              		.loc 1 1906 9
 8333 0296 488D8590 		leaq	-3184(%rbp), %rax
 8333      F3FFFF
 8334 029d BE010000 		movl	$1, %esi
 8334      00
 8335 02a2 4889C7   		movq	%rax, %rdi
 8336 02a5 E8000000 		call	mbedtls_mpi_lset
 8336      00
 8337 02aa 898530F3 		movl	%eax, -3280(%rbp)
 8337      FFFF
 8338 02b0 83BD30F3 		cmpl	$0, -3280(%rbp)
 8338      FFFF00
 8339 02b7 0F856008 		jne	.L607
 8339      0000
GAS LISTING /tmp/ccFaOvob.s 			page 212


1907:/home/xingli/share/1205tiny/network/dtls/mbedtls/mbedtls-2.16.2/library/bignum.c ****         MBEDTLS_MPI_CHK( mbedtls_mpi_shift_l( &RR, N->n * 2 * biL ) );
 8340              		.loc 1 1907 9
 8341 02bd 488B8510 		movq	-3312(%rbp), %rax
 8341      F3FFFF
 8342 02c4 488B4008 		movq	8(%rax), %rax
 8343 02c8 48C1E007 		salq	$7, %rax
 8344 02cc 4889C2   		movq	%rax, %rdx
 8345 02cf 488D8590 		leaq	-3184(%rbp), %rax
 8345      F3FFFF
 8346 02d6 4889D6   		movq	%rdx, %rsi
 8347 02d9 4889C7   		movq	%rax, %rdi
 8348 02dc E8000000 		call	mbedtls_mpi_shift_l
 8348      00
 8349 02e1 898530F3 		movl	%eax, -3280(%rbp)
 8349      FFFF
 8350 02e7 83BD30F3 		cmpl	$0, -3280(%rbp)
 8350      FFFF00
 8351 02ee 0F852C08 		jne	.L608
 8351      0000
1908:/home/xingli/share/1205tiny/network/dtls/mbedtls/mbedtls-2.16.2/library/bignum.c ****         MBEDTLS_MPI_CHK( mbedtls_mpi_mod_mpi( &RR, &RR, N ) );
 8352              		.loc 1 1908 9
 8353 02f4 488B9510 		movq	-3312(%rbp), %rdx
 8353      F3FFFF
 8354 02fb 488D8D90 		leaq	-3184(%rbp), %rcx
 8354      F3FFFF
 8355 0302 488D8590 		leaq	-3184(%rbp), %rax
 8355      F3FFFF
 8356 0309 4889CE   		movq	%rcx, %rsi
 8357 030c 4889C7   		movq	%rax, %rdi
 8358 030f E8000000 		call	mbedtls_mpi_mod_mpi
 8358      00
 8359 0314 898530F3 		movl	%eax, -3280(%rbp)
 8359      FFFF
 8360 031a 83BD30F3 		cmpl	$0, -3280(%rbp)
 8360      FFFF00
 8361 0321 0F85FC07 		jne	.L609
 8361      0000
1909:/home/xingli/share/1205tiny/network/dtls/mbedtls/mbedtls-2.16.2/library/bignum.c **** 
1910:/home/xingli/share/1205tiny/network/dtls/mbedtls/mbedtls-2.16.2/library/bignum.c ****         if( _RR != NULL )
 8362              		.loc 1 1910 11
 8363 0327 4883BD08 		cmpq	$0, -3320(%rbp)
 8363      F3FFFF00 
 8364 032f 743E     		je	.L562
1911:/home/xingli/share/1205tiny/network/dtls/mbedtls/mbedtls-2.16.2/library/bignum.c ****             memcpy( _RR, &RR, sizeof( mbedtls_mpi ) );
 8365              		.loc 1 1911 13
 8366 0331 488D8D90 		leaq	-3184(%rbp), %rcx
 8366      F3FFFF
 8367 0338 488B8508 		movq	-3320(%rbp), %rax
 8367      F3FFFF
 8368 033f BA180000 		movl	$24, %edx
 8368      00
 8369 0344 4889CE   		movq	%rcx, %rsi
 8370 0347 4889C7   		movq	%rax, %rdi
 8371 034a E8000000 		call	memcpy@PLT
 8371      00
1910:/home/xingli/share/1205tiny/network/dtls/mbedtls/mbedtls-2.16.2/library/bignum.c ****             memcpy( _RR, &RR, sizeof( mbedtls_mpi ) );
 8372              		.loc 1 1910 11
GAS LISTING /tmp/ccFaOvob.s 			page 213


 8373 034f EB1E     		jmp	.L562
 8374              	.L557:
1912:/home/xingli/share/1205tiny/network/dtls/mbedtls/mbedtls-2.16.2/library/bignum.c ****     }
1913:/home/xingli/share/1205tiny/network/dtls/mbedtls/mbedtls-2.16.2/library/bignum.c ****     else
1914:/home/xingli/share/1205tiny/network/dtls/mbedtls/mbedtls-2.16.2/library/bignum.c ****         memcpy( &RR, _RR, sizeof( mbedtls_mpi ) );
 8375              		.loc 1 1914 9
 8376 0351 488B8D08 		movq	-3320(%rbp), %rcx
 8376      F3FFFF
 8377 0358 488D8590 		leaq	-3184(%rbp), %rax
 8377      F3FFFF
 8378 035f BA180000 		movl	$24, %edx
 8378      00
 8379 0364 4889CE   		movq	%rcx, %rsi
 8380 0367 4889C7   		movq	%rax, %rdi
 8381 036a E8000000 		call	memcpy@PLT
 8381      00
 8382              	.L562:
1915:/home/xingli/share/1205tiny/network/dtls/mbedtls/mbedtls-2.16.2/library/bignum.c **** 
1916:/home/xingli/share/1205tiny/network/dtls/mbedtls/mbedtls-2.16.2/library/bignum.c ****     /*
1917:/home/xingli/share/1205tiny/network/dtls/mbedtls/mbedtls-2.16.2/library/bignum.c ****      * W[1] = A * R^2 * R^-1 mod N = A * R mod N
1918:/home/xingli/share/1205tiny/network/dtls/mbedtls/mbedtls-2.16.2/library/bignum.c ****      */
1919:/home/xingli/share/1205tiny/network/dtls/mbedtls/mbedtls-2.16.2/library/bignum.c ****     if( mbedtls_mpi_cmp_mpi( A, N ) >= 0 )
 8383              		.loc 1 1919 9
 8384 036f 488B9510 		movq	-3312(%rbp), %rdx
 8384      F3FFFF
 8385 0376 488B8520 		movq	-3296(%rbp), %rax
 8385      F3FFFF
 8386 037d 4889D6   		movq	%rdx, %rsi
 8387 0380 4889C7   		movq	%rax, %rdi
 8388 0383 E8000000 		call	mbedtls_mpi_cmp_mpi
 8388      00
 8389              		.loc 1 1919 7
 8390 0388 85C0     		testl	%eax, %eax
 8391 038a 7838     		js	.L563
1920:/home/xingli/share/1205tiny/network/dtls/mbedtls/mbedtls-2.16.2/library/bignum.c ****         MBEDTLS_MPI_CHK( mbedtls_mpi_mod_mpi( &W[1], A, N ) );
 8392              		.loc 1 1920 9
 8393 038c 488B9510 		movq	-3312(%rbp), %rdx
 8393      F3FFFF
 8394 0393 488B8520 		movq	-3296(%rbp), %rax
 8394      F3FFFF
 8395 039a 488D8DF0 		leaq	-3088(%rbp), %rcx
 8395      F3FFFF
 8396 03a1 4883C118 		addq	$24, %rcx
 8397 03a5 4889C6   		movq	%rax, %rsi
 8398 03a8 4889CF   		movq	%rcx, %rdi
 8399 03ab E8000000 		call	mbedtls_mpi_mod_mpi
 8399      00
 8400 03b0 898530F3 		movl	%eax, -3280(%rbp)
 8400      FFFF
 8401 03b6 83BD30F3 		cmpl	$0, -3280(%rbp)
 8401      FFFF00
 8402 03bd 7435     		je	.L564
 8403 03bf E9900700 		jmp	.L551
 8403      00
 8404              	.L563:
1921:/home/xingli/share/1205tiny/network/dtls/mbedtls/mbedtls-2.16.2/library/bignum.c ****     else
1922:/home/xingli/share/1205tiny/network/dtls/mbedtls/mbedtls-2.16.2/library/bignum.c ****         MBEDTLS_MPI_CHK( mbedtls_mpi_copy( &W[1], A ) );
GAS LISTING /tmp/ccFaOvob.s 			page 214


 8405              		.loc 1 1922 9
 8406 03c4 488B8520 		movq	-3296(%rbp), %rax
 8406      F3FFFF
 8407 03cb 488D95F0 		leaq	-3088(%rbp), %rdx
 8407      F3FFFF
 8408 03d2 4883C218 		addq	$24, %rdx
 8409 03d6 4889C6   		movq	%rax, %rsi
 8410 03d9 4889D7   		movq	%rdx, %rdi
 8411 03dc E8000000 		call	mbedtls_mpi_copy
 8411      00
 8412 03e1 898530F3 		movl	%eax, -3280(%rbp)
 8412      FFFF
 8413 03e7 83BD30F3 		cmpl	$0, -3280(%rbp)
 8413      FFFF00
 8414 03ee 0F853207 		jne	.L610
 8414      0000
 8415              	.L564:
1923:/home/xingli/share/1205tiny/network/dtls/mbedtls/mbedtls-2.16.2/library/bignum.c **** 
1924:/home/xingli/share/1205tiny/network/dtls/mbedtls/mbedtls-2.16.2/library/bignum.c ****     MBEDTLS_MPI_CHK( mpi_montmul( &W[1], &RR, N, mm, &T ) );
 8416              		.loc 1 1924 5
 8417 03f4 488B8D38 		movq	-3272(%rbp), %rcx
 8417      F3FFFF
 8418 03fb 4C8D85B0 		leaq	-3152(%rbp), %r8
 8418      F3FFFF
 8419 0402 488B9510 		movq	-3312(%rbp), %rdx
 8419      F3FFFF
 8420 0409 488D8590 		leaq	-3184(%rbp), %rax
 8420      F3FFFF
 8421 0410 488DB5F0 		leaq	-3088(%rbp), %rsi
 8421      F3FFFF
 8422 0417 488D7E18 		leaq	24(%rsi), %rdi
 8423 041b 4889C6   		movq	%rax, %rsi
 8424 041e E8000000 		call	mpi_montmul
 8424      00
 8425 0423 898530F3 		movl	%eax, -3280(%rbp)
 8425      FFFF
 8426 0429 83BD30F3 		cmpl	$0, -3280(%rbp)
 8426      FFFF00
 8427 0430 0F85F306 		jne	.L611
 8427      0000
1925:/home/xingli/share/1205tiny/network/dtls/mbedtls/mbedtls-2.16.2/library/bignum.c **** 
1926:/home/xingli/share/1205tiny/network/dtls/mbedtls/mbedtls-2.16.2/library/bignum.c ****     /*
1927:/home/xingli/share/1205tiny/network/dtls/mbedtls/mbedtls-2.16.2/library/bignum.c ****      * X = R^2 * R^-1 mod N = R mod N
1928:/home/xingli/share/1205tiny/network/dtls/mbedtls/mbedtls-2.16.2/library/bignum.c ****      */
1929:/home/xingli/share/1205tiny/network/dtls/mbedtls/mbedtls-2.16.2/library/bignum.c ****     MBEDTLS_MPI_CHK( mbedtls_mpi_copy( X, &RR ) );
 8428              		.loc 1 1929 5
 8429 0436 488D9590 		leaq	-3184(%rbp), %rdx
 8429      F3FFFF
 8430 043d 488B8528 		movq	-3288(%rbp), %rax
 8430      F3FFFF
 8431 0444 4889D6   		movq	%rdx, %rsi
 8432 0447 4889C7   		movq	%rax, %rdi
 8433 044a E8000000 		call	mbedtls_mpi_copy
 8433      00
 8434 044f 898530F3 		movl	%eax, -3280(%rbp)
 8434      FFFF
 8435 0455 83BD30F3 		cmpl	$0, -3280(%rbp)
GAS LISTING /tmp/ccFaOvob.s 			page 215


 8435      FFFF00
 8436 045c 0F85CA06 		jne	.L612
 8436      0000
1930:/home/xingli/share/1205tiny/network/dtls/mbedtls/mbedtls-2.16.2/library/bignum.c ****     MBEDTLS_MPI_CHK( mpi_montred( X, N, mm, &T ) );
 8437              		.loc 1 1930 5
 8438 0462 488B9538 		movq	-3272(%rbp), %rdx
 8438      F3FFFF
 8439 0469 488D8DB0 		leaq	-3152(%rbp), %rcx
 8439      F3FFFF
 8440 0470 488BB510 		movq	-3312(%rbp), %rsi
 8440      F3FFFF
 8441 0477 488B8528 		movq	-3288(%rbp), %rax
 8441      F3FFFF
 8442 047e 4889C7   		movq	%rax, %rdi
 8443 0481 E8000000 		call	mpi_montred
 8443      00
 8444 0486 898530F3 		movl	%eax, -3280(%rbp)
 8444      FFFF
 8445 048c 83BD30F3 		cmpl	$0, -3280(%rbp)
 8445      FFFF00
 8446 0493 0F859606 		jne	.L613
 8446      0000
1931:/home/xingli/share/1205tiny/network/dtls/mbedtls/mbedtls-2.16.2/library/bignum.c **** 
1932:/home/xingli/share/1205tiny/network/dtls/mbedtls/mbedtls-2.16.2/library/bignum.c ****     if( wsize > 1 )
 8447              		.loc 1 1932 7
 8448 0499 4883BD78 		cmpq	$1, -3208(%rbp)
 8448      F3FFFF01 
 8449 04a1 0F869202 		jbe	.L568
 8449      0000
1933:/home/xingli/share/1205tiny/network/dtls/mbedtls/mbedtls-2.16.2/library/bignum.c ****     {
1934:/home/xingli/share/1205tiny/network/dtls/mbedtls/mbedtls-2.16.2/library/bignum.c ****         /*
1935:/home/xingli/share/1205tiny/network/dtls/mbedtls/mbedtls-2.16.2/library/bignum.c ****          * W[1 << (wsize - 1)] = W[1] ^ (wsize - 1)
1936:/home/xingli/share/1205tiny/network/dtls/mbedtls/mbedtls-2.16.2/library/bignum.c ****          */
1937:/home/xingli/share/1205tiny/network/dtls/mbedtls/mbedtls-2.16.2/library/bignum.c ****         j =  one << ( wsize - 1 );
 8450              		.loc 1 1937 29
 8451 04a7 488B8578 		movq	-3208(%rbp), %rax
 8451      F3FFFF
 8452 04ae 83E801   		subl	$1, %eax
 8453              		.loc 1 1937 11
 8454 04b1 488B9570 		movq	-3216(%rbp), %rdx
 8454      F3FFFF
 8455 04b8 89C1     		movl	%eax, %ecx
 8456 04ba 48D3E2   		salq	%cl, %rdx
 8457 04bd 4889D0   		movq	%rdx, %rax
 8458 04c0 48898580 		movq	%rax, -3200(%rbp)
 8458      F3FFFF
1938:/home/xingli/share/1205tiny/network/dtls/mbedtls/mbedtls-2.16.2/library/bignum.c **** 
1939:/home/xingli/share/1205tiny/network/dtls/mbedtls/mbedtls-2.16.2/library/bignum.c ****         MBEDTLS_MPI_CHK( mbedtls_mpi_grow( &W[j], N->n + 1 ) );
 8459              		.loc 1 1939 9
 8460 04c7 488B8510 		movq	-3312(%rbp), %rax
 8460      F3FFFF
 8461 04ce 488B4008 		movq	8(%rax), %rax
 8462 04d2 488D4801 		leaq	1(%rax), %rcx
 8463 04d6 488DB5F0 		leaq	-3088(%rbp), %rsi
 8463      F3FFFF
 8464 04dd 488B9580 		movq	-3200(%rbp), %rdx
 8464      F3FFFF
GAS LISTING /tmp/ccFaOvob.s 			page 216


 8465 04e4 4889D0   		movq	%rdx, %rax
 8466 04e7 4801C0   		addq	%rax, %rax
 8467 04ea 4801D0   		addq	%rdx, %rax
 8468 04ed 48C1E003 		salq	$3, %rax
 8469 04f1 4801F0   		addq	%rsi, %rax
 8470 04f4 4889CE   		movq	%rcx, %rsi
 8471 04f7 4889C7   		movq	%rax, %rdi
 8472 04fa E8000000 		call	mbedtls_mpi_grow
 8472      00
 8473 04ff 898530F3 		movl	%eax, -3280(%rbp)
 8473      FFFF
 8474 0505 83BD30F3 		cmpl	$0, -3280(%rbp)
 8474      FFFF00
 8475 050c 0F852006 		jne	.L614
 8475      0000
1940:/home/xingli/share/1205tiny/network/dtls/mbedtls/mbedtls-2.16.2/library/bignum.c ****         MBEDTLS_MPI_CHK( mbedtls_mpi_copy( &W[j], &W[1]    ) );
 8476              		.loc 1 1940 9
 8477 0512 488D8DF0 		leaq	-3088(%rbp), %rcx
 8477      F3FFFF
 8478 0519 488B9580 		movq	-3200(%rbp), %rdx
 8478      F3FFFF
 8479 0520 4889D0   		movq	%rdx, %rax
 8480 0523 4801C0   		addq	%rax, %rax
 8481 0526 4801D0   		addq	%rdx, %rax
 8482 0529 48C1E003 		salq	$3, %rax
 8483 052d 4801C8   		addq	%rcx, %rax
 8484 0530 488D95F0 		leaq	-3088(%rbp), %rdx
 8484      F3FFFF
 8485 0537 4883C218 		addq	$24, %rdx
 8486 053b 4889D6   		movq	%rdx, %rsi
 8487 053e 4889C7   		movq	%rax, %rdi
 8488 0541 E8000000 		call	mbedtls_mpi_copy
 8488      00
 8489 0546 898530F3 		movl	%eax, -3280(%rbp)
 8489      FFFF
 8490 054c 83BD30F3 		cmpl	$0, -3280(%rbp)
 8490      FFFF00
 8491 0553 0F85DC05 		jne	.L615
 8491      0000
1941:/home/xingli/share/1205tiny/network/dtls/mbedtls/mbedtls-2.16.2/library/bignum.c **** 
1942:/home/xingli/share/1205tiny/network/dtls/mbedtls/mbedtls-2.16.2/library/bignum.c ****         for( i = 0; i < wsize - 1; i++ )
 8492              		.loc 1 1942 16
 8493 0559 48C78548 		movq	$0, -3256(%rbp)
 8493      F3FFFF00 
 8493      000000
 8494              		.loc 1 1942 9
 8495 0564 EB77     		jmp	.L571
 8496              	.L573:
1943:/home/xingli/share/1205tiny/network/dtls/mbedtls/mbedtls-2.16.2/library/bignum.c ****             MBEDTLS_MPI_CHK( mpi_montmul( &W[j], &W[j], N, mm, &T ) );
 8497              		.loc 1 1943 13
 8498 0566 488B8D38 		movq	-3272(%rbp), %rcx
 8498      F3FFFF
 8499 056d 488DB5F0 		leaq	-3088(%rbp), %rsi
 8499      F3FFFF
 8500 0574 488B9580 		movq	-3200(%rbp), %rdx
 8500      F3FFFF
 8501 057b 4889D0   		movq	%rdx, %rax
GAS LISTING /tmp/ccFaOvob.s 			page 217


 8502 057e 4801C0   		addq	%rax, %rax
 8503 0581 4801D0   		addq	%rdx, %rax
 8504 0584 48C1E003 		salq	$3, %rax
 8505 0588 4801C6   		addq	%rax, %rsi
 8506 058b 488DBDF0 		leaq	-3088(%rbp), %rdi
 8506      F3FFFF
 8507 0592 488B9580 		movq	-3200(%rbp), %rdx
 8507      F3FFFF
 8508 0599 4889D0   		movq	%rdx, %rax
 8509 059c 4801C0   		addq	%rax, %rax
 8510 059f 4801D0   		addq	%rdx, %rax
 8511 05a2 48C1E003 		salq	$3, %rax
 8512 05a6 4801C7   		addq	%rax, %rdi
 8513 05a9 488D95B0 		leaq	-3152(%rbp), %rdx
 8513      F3FFFF
 8514 05b0 488B8510 		movq	-3312(%rbp), %rax
 8514      F3FFFF
 8515 05b7 4989D0   		movq	%rdx, %r8
 8516 05ba 4889C2   		movq	%rax, %rdx
 8517 05bd E8000000 		call	mpi_montmul
 8517      00
 8518 05c2 898530F3 		movl	%eax, -3280(%rbp)
 8518      FFFF
 8519 05c8 83BD30F3 		cmpl	$0, -3280(%rbp)
 8519      FFFF00
 8520 05cf 0F856305 		jne	.L616
 8520      0000
1942:/home/xingli/share/1205tiny/network/dtls/mbedtls/mbedtls-2.16.2/library/bignum.c ****             MBEDTLS_MPI_CHK( mpi_montmul( &W[j], &W[j], N, mm, &T ) );
 8521              		.loc 1 1942 37 discriminator 2
 8522 05d5 48838548 		addq	$1, -3256(%rbp)
 8522      F3FFFF01 
 8523              	.L571:
1942:/home/xingli/share/1205tiny/network/dtls/mbedtls/mbedtls-2.16.2/library/bignum.c ****             MBEDTLS_MPI_CHK( mpi_montmul( &W[j], &W[j], N, mm, &T ) );
 8524              		.loc 1 1942 31 discriminator 1
 8525 05dd 488B8578 		movq	-3208(%rbp), %rax
 8525      F3FFFF
 8526 05e4 4883E801 		subq	$1, %rax
1942:/home/xingli/share/1205tiny/network/dtls/mbedtls/mbedtls-2.16.2/library/bignum.c ****             MBEDTLS_MPI_CHK( mpi_montmul( &W[j], &W[j], N, mm, &T ) );
 8527              		.loc 1 1942 9 discriminator 1
 8528 05e8 48398548 		cmpq	%rax, -3256(%rbp)
 8528      F3FFFF
 8529 05ef 0F8271FF 		jb	.L573
 8529      FFFF
1944:/home/xingli/share/1205tiny/network/dtls/mbedtls/mbedtls-2.16.2/library/bignum.c **** 
1945:/home/xingli/share/1205tiny/network/dtls/mbedtls/mbedtls-2.16.2/library/bignum.c ****         /*
1946:/home/xingli/share/1205tiny/network/dtls/mbedtls/mbedtls-2.16.2/library/bignum.c ****          * W[i] = W[i - 1] * W[1]
1947:/home/xingli/share/1205tiny/network/dtls/mbedtls/mbedtls-2.16.2/library/bignum.c ****          */
1948:/home/xingli/share/1205tiny/network/dtls/mbedtls/mbedtls-2.16.2/library/bignum.c ****         for( i = j + 1; i < ( one << wsize ); i++ )
 8530              		.loc 1 1948 16
 8531 05f5 488B8580 		movq	-3200(%rbp), %rax
 8531      F3FFFF
 8532 05fc 4883C001 		addq	$1, %rax
 8533 0600 48898548 		movq	%rax, -3256(%rbp)
 8533      F3FFFF
 8534              		.loc 1 1948 9
 8535 0607 E90B0100 		jmp	.L574
 8535      00
GAS LISTING /tmp/ccFaOvob.s 			page 218


 8536              	.L578:
1949:/home/xingli/share/1205tiny/network/dtls/mbedtls/mbedtls-2.16.2/library/bignum.c ****         {
1950:/home/xingli/share/1205tiny/network/dtls/mbedtls/mbedtls-2.16.2/library/bignum.c ****             MBEDTLS_MPI_CHK( mbedtls_mpi_grow( &W[i], N->n + 1 ) );
 8537              		.loc 1 1950 13
 8538 060c 488B8510 		movq	-3312(%rbp), %rax
 8538      F3FFFF
 8539 0613 488B4008 		movq	8(%rax), %rax
 8540 0617 488D4801 		leaq	1(%rax), %rcx
 8541 061b 488DB5F0 		leaq	-3088(%rbp), %rsi
 8541      F3FFFF
 8542 0622 488B9548 		movq	-3256(%rbp), %rdx
 8542      F3FFFF
 8543 0629 4889D0   		movq	%rdx, %rax
 8544 062c 4801C0   		addq	%rax, %rax
 8545 062f 4801D0   		addq	%rdx, %rax
 8546 0632 48C1E003 		salq	$3, %rax
 8547 0636 4801F0   		addq	%rsi, %rax
 8548 0639 4889CE   		movq	%rcx, %rsi
 8549 063c 4889C7   		movq	%rax, %rdi
 8550 063f E8000000 		call	mbedtls_mpi_grow
 8550      00
 8551 0644 898530F3 		movl	%eax, -3280(%rbp)
 8551      FFFF
 8552 064a 83BD30F3 		cmpl	$0, -3280(%rbp)
 8552      FFFF00
 8553 0651 0F85E404 		jne	.L617
 8553      0000
1951:/home/xingli/share/1205tiny/network/dtls/mbedtls/mbedtls-2.16.2/library/bignum.c ****             MBEDTLS_MPI_CHK( mbedtls_mpi_copy( &W[i], &W[i - 1] ) );
 8554              		.loc 1 1951 13
 8555 0657 488B8548 		movq	-3256(%rbp), %rax
 8555      F3FFFF
 8556 065e 488D50FF 		leaq	-1(%rax), %rdx
 8557 0662 488D8DF0 		leaq	-3088(%rbp), %rcx
 8557      F3FFFF
 8558 0669 4889D0   		movq	%rdx, %rax
 8559 066c 4801C0   		addq	%rax, %rax
 8560 066f 4801D0   		addq	%rdx, %rax
 8561 0672 48C1E003 		salq	$3, %rax
 8562 0676 4801C1   		addq	%rax, %rcx
 8563 0679 488DB5F0 		leaq	-3088(%rbp), %rsi
 8563      F3FFFF
 8564 0680 488B9548 		movq	-3256(%rbp), %rdx
 8564      F3FFFF
 8565 0687 4889D0   		movq	%rdx, %rax
 8566 068a 4801C0   		addq	%rax, %rax
 8567 068d 4801D0   		addq	%rdx, %rax
 8568 0690 48C1E003 		salq	$3, %rax
 8569 0694 4801F0   		addq	%rsi, %rax
 8570 0697 4889CE   		movq	%rcx, %rsi
 8571 069a 4889C7   		movq	%rax, %rdi
 8572 069d E8000000 		call	mbedtls_mpi_copy
 8572      00
 8573 06a2 898530F3 		movl	%eax, -3280(%rbp)
 8573      FFFF
 8574 06a8 83BD30F3 		cmpl	$0, -3280(%rbp)
 8574      FFFF00
 8575 06af 0F858904 		jne	.L618
GAS LISTING /tmp/ccFaOvob.s 			page 219


 8575      0000
1952:/home/xingli/share/1205tiny/network/dtls/mbedtls/mbedtls-2.16.2/library/bignum.c **** 
1953:/home/xingli/share/1205tiny/network/dtls/mbedtls/mbedtls-2.16.2/library/bignum.c ****             MBEDTLS_MPI_CHK( mpi_montmul( &W[i], &W[1], N, mm, &T ) );
 8576              		.loc 1 1953 13
 8577 06b5 488B8D38 		movq	-3272(%rbp), %rcx
 8577      F3FFFF
 8578 06bc 488DB5F0 		leaq	-3088(%rbp), %rsi
 8578      F3FFFF
 8579 06c3 488B9548 		movq	-3256(%rbp), %rdx
 8579      F3FFFF
 8580 06ca 4889D0   		movq	%rdx, %rax
 8581 06cd 4801C0   		addq	%rax, %rax
 8582 06d0 4801D0   		addq	%rdx, %rax
 8583 06d3 48C1E003 		salq	$3, %rax
 8584 06d7 488D3C06 		leaq	(%rsi,%rax), %rdi
 8585 06db 4C8D85B0 		leaq	-3152(%rbp), %r8
 8585      F3FFFF
 8586 06e2 488B8510 		movq	-3312(%rbp), %rax
 8586      F3FFFF
 8587 06e9 488D95F0 		leaq	-3088(%rbp), %rdx
 8587      F3FFFF
 8588 06f0 488D7218 		leaq	24(%rdx), %rsi
 8589 06f4 4889C2   		movq	%rax, %rdx
 8590 06f7 E8000000 		call	mpi_montmul
 8590      00
 8591 06fc 898530F3 		movl	%eax, -3280(%rbp)
 8591      FFFF
 8592 0702 83BD30F3 		cmpl	$0, -3280(%rbp)
 8592      FFFF00
 8593 0709 0F853204 		jne	.L619
 8593      0000
1948:/home/xingli/share/1205tiny/network/dtls/mbedtls/mbedtls-2.16.2/library/bignum.c ****         {
 8594              		.loc 1 1948 48 discriminator 2
 8595 070f 48838548 		addq	$1, -3256(%rbp)
 8595      F3FFFF01 
 8596              	.L574:
1948:/home/xingli/share/1205tiny/network/dtls/mbedtls/mbedtls-2.16.2/library/bignum.c ****         {
 8597              		.loc 1 1948 35 discriminator 1
 8598 0717 488B8578 		movq	-3208(%rbp), %rax
 8598      F3FFFF
 8599 071e 89C2     		movl	%eax, %edx
 8600 0720 488B8570 		movq	-3216(%rbp), %rax
 8600      F3FFFF
 8601 0727 89D1     		movl	%edx, %ecx
 8602 0729 48D3E0   		salq	%cl, %rax
1948:/home/xingli/share/1205tiny/network/dtls/mbedtls/mbedtls-2.16.2/library/bignum.c ****         {
 8603              		.loc 1 1948 9 discriminator 1
 8604 072c 48398548 		cmpq	%rax, -3256(%rbp)
 8604      F3FFFF
 8605 0733 0F82D3FE 		jb	.L578
 8605      FFFF
 8606              	.L568:
1954:/home/xingli/share/1205tiny/network/dtls/mbedtls/mbedtls-2.16.2/library/bignum.c ****         }
1955:/home/xingli/share/1205tiny/network/dtls/mbedtls/mbedtls-2.16.2/library/bignum.c ****     }
1956:/home/xingli/share/1205tiny/network/dtls/mbedtls/mbedtls-2.16.2/library/bignum.c **** 
1957:/home/xingli/share/1205tiny/network/dtls/mbedtls/mbedtls-2.16.2/library/bignum.c ****     nblimbs = E->n;
 8607              		.loc 1 1957 13
GAS LISTING /tmp/ccFaOvob.s 			page 220


 8608 0739 488B8518 		movq	-3304(%rbp), %rax
 8608      F3FFFF
 8609 0740 488B4008 		movq	8(%rax), %rax
 8610 0744 48898550 		movq	%rax, -3248(%rbp)
 8610      F3FFFF
1958:/home/xingli/share/1205tiny/network/dtls/mbedtls/mbedtls-2.16.2/library/bignum.c ****     bufsize = 0;
 8611              		.loc 1 1958 13
 8612 074b 48C78558 		movq	$0, -3240(%rbp)
 8612      F3FFFF00 
 8612      000000
1959:/home/xingli/share/1205tiny/network/dtls/mbedtls/mbedtls-2.16.2/library/bignum.c ****     nbits   = 0;
 8613              		.loc 1 1959 13
 8614 0756 48C78560 		movq	$0, -3232(%rbp)
 8614      F3FFFF00 
 8614      000000
1960:/home/xingli/share/1205tiny/network/dtls/mbedtls/mbedtls-2.16.2/library/bignum.c ****     wbits   = 0;
 8615              		.loc 1 1960 13
 8616 0761 48C78540 		movq	$0, -3264(%rbp)
 8616      F3FFFF00 
 8616      000000
1961:/home/xingli/share/1205tiny/network/dtls/mbedtls/mbedtls-2.16.2/library/bignum.c ****     state   = 0;
 8617              		.loc 1 1961 13
 8618 076c 48C78568 		movq	$0, -3224(%rbp)
 8618      F3FFFF00 
 8618      000000
 8619              	.L590:
1962:/home/xingli/share/1205tiny/network/dtls/mbedtls/mbedtls-2.16.2/library/bignum.c **** 
1963:/home/xingli/share/1205tiny/network/dtls/mbedtls/mbedtls-2.16.2/library/bignum.c ****     while( 1 )
1964:/home/xingli/share/1205tiny/network/dtls/mbedtls/mbedtls-2.16.2/library/bignum.c ****     {
1965:/home/xingli/share/1205tiny/network/dtls/mbedtls/mbedtls-2.16.2/library/bignum.c ****         if( bufsize == 0 )
 8620              		.loc 1 1965 11
 8621 0777 4883BD58 		cmpq	$0, -3240(%rbp)
 8621      F3FFFF00 
 8622 077f 7521     		jne	.L579
1966:/home/xingli/share/1205tiny/network/dtls/mbedtls/mbedtls-2.16.2/library/bignum.c ****         {
1967:/home/xingli/share/1205tiny/network/dtls/mbedtls/mbedtls-2.16.2/library/bignum.c ****             if( nblimbs == 0 )
 8623              		.loc 1 1967 15
 8624 0781 4883BD50 		cmpq	$0, -3248(%rbp)
 8624      F3FFFF00 
 8625 0789 0F84FD01 		je	.L620
 8625      0000
1968:/home/xingli/share/1205tiny/network/dtls/mbedtls/mbedtls-2.16.2/library/bignum.c ****                 break;
1969:/home/xingli/share/1205tiny/network/dtls/mbedtls/mbedtls-2.16.2/library/bignum.c **** 
1970:/home/xingli/share/1205tiny/network/dtls/mbedtls/mbedtls-2.16.2/library/bignum.c ****             nblimbs--;
 8626              		.loc 1 1970 20
 8627 078f 4883AD50 		subq	$1, -3248(%rbp)
 8627      F3FFFF01 
1971:/home/xingli/share/1205tiny/network/dtls/mbedtls/mbedtls-2.16.2/library/bignum.c **** 
1972:/home/xingli/share/1205tiny/network/dtls/mbedtls/mbedtls-2.16.2/library/bignum.c ****             bufsize = sizeof( mbedtls_mpi_uint ) << 3;
 8628              		.loc 1 1972 21
 8629 0797 48C78558 		movq	$64, -3240(%rbp)
 8629      F3FFFF40 
 8629      000000
 8630              	.L579:
1973:/home/xingli/share/1205tiny/network/dtls/mbedtls/mbedtls-2.16.2/library/bignum.c ****         }
1974:/home/xingli/share/1205tiny/network/dtls/mbedtls/mbedtls-2.16.2/library/bignum.c **** 
1975:/home/xingli/share/1205tiny/network/dtls/mbedtls/mbedtls-2.16.2/library/bignum.c ****         bufsize--;
GAS LISTING /tmp/ccFaOvob.s 			page 221


 8631              		.loc 1 1975 16
 8632 07a2 4883AD58 		subq	$1, -3240(%rbp)
 8632      F3FFFF01 
1976:/home/xingli/share/1205tiny/network/dtls/mbedtls/mbedtls-2.16.2/library/bignum.c **** 
1977:/home/xingli/share/1205tiny/network/dtls/mbedtls/mbedtls-2.16.2/library/bignum.c ****         ei = (E->p[nblimbs] >> bufsize) & 1;
 8633              		.loc 1 1977 16
 8634 07aa 488B8518 		movq	-3304(%rbp), %rax
 8634      F3FFFF
 8635 07b1 488B4010 		movq	16(%rax), %rax
 8636              		.loc 1 1977 19
 8637 07b5 488B9550 		movq	-3248(%rbp), %rdx
 8637      F3FFFF
 8638 07bc 48C1E203 		salq	$3, %rdx
 8639 07c0 4801D0   		addq	%rdx, %rax
 8640 07c3 488B00   		movq	(%rax), %rax
 8641              		.loc 1 1977 29
 8642 07c6 488B9558 		movq	-3240(%rbp), %rdx
 8642      F3FFFF
 8643 07cd 89D1     		movl	%edx, %ecx
 8644 07cf 48D3E8   		shrq	%cl, %rax
 8645              		.loc 1 1977 12
 8646 07d2 83E001   		andl	$1, %eax
 8647 07d5 48898588 		movq	%rax, -3192(%rbp)
 8647      F3FFFF
1978:/home/xingli/share/1205tiny/network/dtls/mbedtls/mbedtls-2.16.2/library/bignum.c **** 
1979:/home/xingli/share/1205tiny/network/dtls/mbedtls/mbedtls-2.16.2/library/bignum.c ****         /*
1980:/home/xingli/share/1205tiny/network/dtls/mbedtls/mbedtls-2.16.2/library/bignum.c ****          * skip leading 0s
1981:/home/xingli/share/1205tiny/network/dtls/mbedtls/mbedtls-2.16.2/library/bignum.c ****          */
1982:/home/xingli/share/1205tiny/network/dtls/mbedtls/mbedtls-2.16.2/library/bignum.c ****         if( ei == 0 && state == 0 )
 8648              		.loc 1 1982 11
 8649 07dc 4883BD88 		cmpq	$0, -3192(%rbp)
 8649      F3FFFF00 
 8650 07e4 750E     		jne	.L582
 8651              		.loc 1 1982 21 discriminator 1
 8652 07e6 4883BD68 		cmpq	$0, -3224(%rbp)
 8652      F3FFFF00 
 8653 07ee 0F848C01 		je	.L621
 8653      0000
 8654              	.L582:
1983:/home/xingli/share/1205tiny/network/dtls/mbedtls/mbedtls-2.16.2/library/bignum.c ****             continue;
1984:/home/xingli/share/1205tiny/network/dtls/mbedtls/mbedtls-2.16.2/library/bignum.c **** 
1985:/home/xingli/share/1205tiny/network/dtls/mbedtls/mbedtls-2.16.2/library/bignum.c ****         if( ei == 0 && state == 1 )
 8655              		.loc 1 1985 11
 8656 07f4 4883BD88 		cmpq	$0, -3192(%rbp)
 8656      F3FFFF00 
 8657 07fc 7550     		jne	.L584
 8658              		.loc 1 1985 21 discriminator 1
 8659 07fe 4883BD68 		cmpq	$1, -3224(%rbp)
 8659      F3FFFF01 
 8660 0806 7546     		jne	.L584
1986:/home/xingli/share/1205tiny/network/dtls/mbedtls/mbedtls-2.16.2/library/bignum.c ****         {
1987:/home/xingli/share/1205tiny/network/dtls/mbedtls/mbedtls-2.16.2/library/bignum.c ****             /*
1988:/home/xingli/share/1205tiny/network/dtls/mbedtls/mbedtls-2.16.2/library/bignum.c ****              * out of window, square X
1989:/home/xingli/share/1205tiny/network/dtls/mbedtls/mbedtls-2.16.2/library/bignum.c ****              */
1990:/home/xingli/share/1205tiny/network/dtls/mbedtls/mbedtls-2.16.2/library/bignum.c ****             MBEDTLS_MPI_CHK( mpi_montmul( X, X, N, mm, &T ) );
 8661              		.loc 1 1990 13
 8662 0808 488B8D38 		movq	-3272(%rbp), %rcx
GAS LISTING /tmp/ccFaOvob.s 			page 222


 8662      F3FFFF
 8663 080f 488DBDB0 		leaq	-3152(%rbp), %rdi
 8663      F3FFFF
 8664 0816 488B9510 		movq	-3312(%rbp), %rdx
 8664      F3FFFF
 8665 081d 488BB528 		movq	-3288(%rbp), %rsi
 8665      F3FFFF
 8666 0824 488B8528 		movq	-3288(%rbp), %rax
 8666      F3FFFF
 8667 082b 4989F8   		movq	%rdi, %r8
 8668 082e 4889C7   		movq	%rax, %rdi
 8669 0831 E8000000 		call	mpi_montmul
 8669      00
 8670 0836 898530F3 		movl	%eax, -3280(%rbp)
 8670      FFFF
 8671 083c 83BD30F3 		cmpl	$0, -3280(%rbp)
 8671      FFFF00
 8672 0843 0F843D01 		je	.L622
 8672      0000
 8673 0849 E9060300 		jmp	.L551
 8673      00
 8674              	.L584:
1991:/home/xingli/share/1205tiny/network/dtls/mbedtls/mbedtls-2.16.2/library/bignum.c ****             continue;
1992:/home/xingli/share/1205tiny/network/dtls/mbedtls/mbedtls-2.16.2/library/bignum.c ****         }
1993:/home/xingli/share/1205tiny/network/dtls/mbedtls/mbedtls-2.16.2/library/bignum.c **** 
1994:/home/xingli/share/1205tiny/network/dtls/mbedtls/mbedtls-2.16.2/library/bignum.c ****         /*
1995:/home/xingli/share/1205tiny/network/dtls/mbedtls/mbedtls-2.16.2/library/bignum.c ****          * add ei to current window
1996:/home/xingli/share/1205tiny/network/dtls/mbedtls/mbedtls-2.16.2/library/bignum.c ****          */
1997:/home/xingli/share/1205tiny/network/dtls/mbedtls/mbedtls-2.16.2/library/bignum.c ****         state = 2;
 8675              		.loc 1 1997 15
 8676 084e 48C78568 		movq	$2, -3224(%rbp)
 8676      F3FFFF02 
 8676      000000
1998:/home/xingli/share/1205tiny/network/dtls/mbedtls/mbedtls-2.16.2/library/bignum.c **** 
1999:/home/xingli/share/1205tiny/network/dtls/mbedtls/mbedtls-2.16.2/library/bignum.c ****         nbits++;
 8677              		.loc 1 1999 14
 8678 0859 48838560 		addq	$1, -3232(%rbp)
 8678      F3FFFF01 
2000:/home/xingli/share/1205tiny/network/dtls/mbedtls/mbedtls-2.16.2/library/bignum.c ****         wbits |= ( ei << ( wsize - nbits ) );
 8679              		.loc 1 2000 34
 8680 0861 488B8578 		movq	-3208(%rbp), %rax
 8680      F3FFFF
 8681 0868 89C2     		movl	%eax, %edx
 8682 086a 488B8560 		movq	-3232(%rbp), %rax
 8682      F3FFFF
 8683 0871 29C2     		subl	%eax, %edx
 8684 0873 89D0     		movl	%edx, %eax
 8685              		.loc 1 2000 23
 8686 0875 488B9588 		movq	-3192(%rbp), %rdx
 8686      F3FFFF
 8687 087c 89C1     		movl	%eax, %ecx
 8688 087e 48D3E2   		salq	%cl, %rdx
 8689 0881 4889D0   		movq	%rdx, %rax
 8690              		.loc 1 2000 15
 8691 0884 48098540 		orq	%rax, -3264(%rbp)
 8691      F3FFFF
2001:/home/xingli/share/1205tiny/network/dtls/mbedtls/mbedtls-2.16.2/library/bignum.c **** 
GAS LISTING /tmp/ccFaOvob.s 			page 223


2002:/home/xingli/share/1205tiny/network/dtls/mbedtls/mbedtls-2.16.2/library/bignum.c ****         if( nbits == wsize )
 8692              		.loc 1 2002 11
 8693 088b 488B8560 		movq	-3232(%rbp), %rax
 8693      F3FFFF
 8694 0892 483B8578 		cmpq	-3208(%rbp), %rax
 8694      F3FFFF
 8695 0899 0F85D8FE 		jne	.L590
 8695      FFFF
2003:/home/xingli/share/1205tiny/network/dtls/mbedtls/mbedtls-2.16.2/library/bignum.c ****         {
2004:/home/xingli/share/1205tiny/network/dtls/mbedtls/mbedtls-2.16.2/library/bignum.c ****             /*
2005:/home/xingli/share/1205tiny/network/dtls/mbedtls/mbedtls-2.16.2/library/bignum.c ****              * X = X^wsize R^-1 mod N
2006:/home/xingli/share/1205tiny/network/dtls/mbedtls/mbedtls-2.16.2/library/bignum.c ****              */
2007:/home/xingli/share/1205tiny/network/dtls/mbedtls/mbedtls-2.16.2/library/bignum.c ****             for( i = 0; i < wsize; i++ )
 8696              		.loc 1 2007 20
 8697 089f 48C78548 		movq	$0, -3256(%rbp)
 8697      F3FFFF00 
 8697      000000
 8698              		.loc 1 2007 13
 8699 08aa EB49     		jmp	.L586
 8700              	.L588:
2008:/home/xingli/share/1205tiny/network/dtls/mbedtls/mbedtls-2.16.2/library/bignum.c ****                 MBEDTLS_MPI_CHK( mpi_montmul( X, X, N, mm, &T ) );
 8701              		.loc 1 2008 17
 8702 08ac 488B8D38 		movq	-3272(%rbp), %rcx
 8702      F3FFFF
 8703 08b3 488DBDB0 		leaq	-3152(%rbp), %rdi
 8703      F3FFFF
 8704 08ba 488B9510 		movq	-3312(%rbp), %rdx
 8704      F3FFFF
 8705 08c1 488BB528 		movq	-3288(%rbp), %rsi
 8705      F3FFFF
 8706 08c8 488B8528 		movq	-3288(%rbp), %rax
 8706      F3FFFF
 8707 08cf 4989F8   		movq	%rdi, %r8
 8708 08d2 4889C7   		movq	%rax, %rdi
 8709 08d5 E8000000 		call	mpi_montmul
 8709      00
 8710 08da 898530F3 		movl	%eax, -3280(%rbp)
 8710      FFFF
 8711 08e0 83BD30F3 		cmpl	$0, -3280(%rbp)
 8711      FFFF00
 8712 08e7 0F855702 		jne	.L623
 8712      0000
2007:/home/xingli/share/1205tiny/network/dtls/mbedtls/mbedtls-2.16.2/library/bignum.c ****                 MBEDTLS_MPI_CHK( mpi_montmul( X, X, N, mm, &T ) );
 8713              		.loc 1 2007 37 discriminator 2
 8714 08ed 48838548 		addq	$1, -3256(%rbp)
 8714      F3FFFF01 
 8715              	.L586:
2007:/home/xingli/share/1205tiny/network/dtls/mbedtls/mbedtls-2.16.2/library/bignum.c ****                 MBEDTLS_MPI_CHK( mpi_montmul( X, X, N, mm, &T ) );
 8716              		.loc 1 2007 13 discriminator 1
 8717 08f5 488B8548 		movq	-3256(%rbp), %rax
 8717      F3FFFF
 8718 08fc 483B8578 		cmpq	-3208(%rbp), %rax
 8718      F3FFFF
 8719 0903 72A7     		jb	.L588
2009:/home/xingli/share/1205tiny/network/dtls/mbedtls/mbedtls-2.16.2/library/bignum.c **** 
2010:/home/xingli/share/1205tiny/network/dtls/mbedtls/mbedtls-2.16.2/library/bignum.c ****             /*
2011:/home/xingli/share/1205tiny/network/dtls/mbedtls/mbedtls-2.16.2/library/bignum.c ****              * X = X * W[wbits] R^-1 mod N
GAS LISTING /tmp/ccFaOvob.s 			page 224


2012:/home/xingli/share/1205tiny/network/dtls/mbedtls/mbedtls-2.16.2/library/bignum.c ****              */
2013:/home/xingli/share/1205tiny/network/dtls/mbedtls/mbedtls-2.16.2/library/bignum.c ****             MBEDTLS_MPI_CHK( mpi_montmul( X, &W[wbits], N, mm, &T ) );
 8720              		.loc 1 2013 13
 8721 0905 488B8D38 		movq	-3272(%rbp), %rcx
 8721      F3FFFF
 8722 090c 488DB5F0 		leaq	-3088(%rbp), %rsi
 8722      F3FFFF
 8723 0913 488B9540 		movq	-3264(%rbp), %rdx
 8723      F3FFFF
 8724 091a 4889D0   		movq	%rdx, %rax
 8725 091d 4801C0   		addq	%rax, %rax
 8726 0920 4801D0   		addq	%rdx, %rax
 8727 0923 48C1E003 		salq	$3, %rax
 8728 0927 4801C6   		addq	%rax, %rsi
 8729 092a 488DBDB0 		leaq	-3152(%rbp), %rdi
 8729      F3FFFF
 8730 0931 488B9510 		movq	-3312(%rbp), %rdx
 8730      F3FFFF
 8731 0938 488B8528 		movq	-3288(%rbp), %rax
 8731      F3FFFF
 8732 093f 4989F8   		movq	%rdi, %r8
 8733 0942 4889C7   		movq	%rax, %rdi
 8734 0945 E8000000 		call	mpi_montmul
 8734      00
 8735 094a 898530F3 		movl	%eax, -3280(%rbp)
 8735      FFFF
 8736 0950 83BD30F3 		cmpl	$0, -3280(%rbp)
 8736      FFFF00
 8737 0957 0F85EA01 		jne	.L624
 8737      0000
2014:/home/xingli/share/1205tiny/network/dtls/mbedtls/mbedtls-2.16.2/library/bignum.c **** 
2015:/home/xingli/share/1205tiny/network/dtls/mbedtls/mbedtls-2.16.2/library/bignum.c ****             state--;
 8738              		.loc 1 2015 18
 8739 095d 4883AD68 		subq	$1, -3224(%rbp)
 8739      F3FFFF01 
2016:/home/xingli/share/1205tiny/network/dtls/mbedtls/mbedtls-2.16.2/library/bignum.c ****             nbits = 0;
 8740              		.loc 1 2016 19
 8741 0965 48C78560 		movq	$0, -3232(%rbp)
 8741      F3FFFF00 
 8741      000000
2017:/home/xingli/share/1205tiny/network/dtls/mbedtls/mbedtls-2.16.2/library/bignum.c ****             wbits = 0;
 8742              		.loc 1 2017 19
 8743 0970 48C78540 		movq	$0, -3264(%rbp)
 8743      F3FFFF00 
 8743      000000
 8744 097b E9F7FDFF 		jmp	.L590
 8744      FF
 8745              	.L621:
1983:/home/xingli/share/1205tiny/network/dtls/mbedtls/mbedtls-2.16.2/library/bignum.c **** 
 8746              		.loc 1 1983 13
 8747 0980 90       		nop
 8748 0981 E9F1FDFF 		jmp	.L590
 8748      FF
 8749              	.L622:
1991:/home/xingli/share/1205tiny/network/dtls/mbedtls/mbedtls-2.16.2/library/bignum.c ****         }
 8750              		.loc 1 1991 13
 8751 0986 90       		nop
GAS LISTING /tmp/ccFaOvob.s 			page 225


1965:/home/xingli/share/1205tiny/network/dtls/mbedtls/mbedtls-2.16.2/library/bignum.c ****         {
 8752              		.loc 1 1965 11
 8753 0987 E9EBFDFF 		jmp	.L590
 8753      FF
 8754              	.L620:
1968:/home/xingli/share/1205tiny/network/dtls/mbedtls/mbedtls-2.16.2/library/bignum.c **** 
 8755              		.loc 1 1968 17
 8756 098c 90       		nop
2018:/home/xingli/share/1205tiny/network/dtls/mbedtls/mbedtls-2.16.2/library/bignum.c ****         }
2019:/home/xingli/share/1205tiny/network/dtls/mbedtls/mbedtls-2.16.2/library/bignum.c ****     }
2020:/home/xingli/share/1205tiny/network/dtls/mbedtls/mbedtls-2.16.2/library/bignum.c **** 
2021:/home/xingli/share/1205tiny/network/dtls/mbedtls/mbedtls-2.16.2/library/bignum.c ****     /*
2022:/home/xingli/share/1205tiny/network/dtls/mbedtls/mbedtls-2.16.2/library/bignum.c ****      * process the remaining bits
2023:/home/xingli/share/1205tiny/network/dtls/mbedtls/mbedtls-2.16.2/library/bignum.c ****      */
2024:/home/xingli/share/1205tiny/network/dtls/mbedtls/mbedtls-2.16.2/library/bignum.c ****     for( i = 0; i < nbits; i++ )
 8757              		.loc 1 2024 12
 8758 098d 48C78548 		movq	$0, -3256(%rbp)
 8758      F3FFFF00 
 8758      000000
 8759              		.loc 1 2024 5
 8760 0998 E9B60000 		jmp	.L591
 8760      00
 8761              	.L594:
2025:/home/xingli/share/1205tiny/network/dtls/mbedtls/mbedtls-2.16.2/library/bignum.c ****     {
2026:/home/xingli/share/1205tiny/network/dtls/mbedtls/mbedtls-2.16.2/library/bignum.c ****         MBEDTLS_MPI_CHK( mpi_montmul( X, X, N, mm, &T ) );
 8762              		.loc 1 2026 9
 8763 099d 488B8D38 		movq	-3272(%rbp), %rcx
 8763      F3FFFF
 8764 09a4 488DBDB0 		leaq	-3152(%rbp), %rdi
 8764      F3FFFF
 8765 09ab 488B9510 		movq	-3312(%rbp), %rdx
 8765      F3FFFF
 8766 09b2 488BB528 		movq	-3288(%rbp), %rsi
 8766      F3FFFF
 8767 09b9 488B8528 		movq	-3288(%rbp), %rax
 8767      F3FFFF
 8768 09c0 4989F8   		movq	%rdi, %r8
 8769 09c3 4889C7   		movq	%rax, %rdi
 8770 09c6 E8000000 		call	mpi_montmul
 8770      00
 8771 09cb 898530F3 		movl	%eax, -3280(%rbp)
 8771      FFFF
 8772 09d1 83BD30F3 		cmpl	$0, -3280(%rbp)
 8772      FFFF00
 8773 09d8 0F856C01 		jne	.L625
 8773      0000
2027:/home/xingli/share/1205tiny/network/dtls/mbedtls/mbedtls-2.16.2/library/bignum.c **** 
2028:/home/xingli/share/1205tiny/network/dtls/mbedtls/mbedtls-2.16.2/library/bignum.c ****         wbits <<= 1;
 8774              		.loc 1 2028 15
 8775 09de 48D1A540 		salq	-3264(%rbp)
 8775      F3FFFF
2029:/home/xingli/share/1205tiny/network/dtls/mbedtls/mbedtls-2.16.2/library/bignum.c **** 
2030:/home/xingli/share/1205tiny/network/dtls/mbedtls/mbedtls-2.16.2/library/bignum.c ****         if( ( wbits & ( one << wsize ) ) != 0 )
 8776              		.loc 1 2030 29
 8777 09e5 488B8578 		movq	-3208(%rbp), %rax
 8777      F3FFFF
 8778 09ec 89C2     		movl	%eax, %edx
GAS LISTING /tmp/ccFaOvob.s 			page 226


 8779 09ee 488B8570 		movq	-3216(%rbp), %rax
 8779      F3FFFF
 8780 09f5 89D1     		movl	%edx, %ecx
 8781 09f7 48D3E0   		salq	%cl, %rax
 8782              		.loc 1 2030 21
 8783 09fa 48238540 		andq	-3264(%rbp), %rax
 8783      F3FFFF
 8784              		.loc 1 2030 11
 8785 0a01 4885C0   		testq	%rax, %rax
 8786 0a04 7445     		je	.L593
2031:/home/xingli/share/1205tiny/network/dtls/mbedtls/mbedtls-2.16.2/library/bignum.c ****             MBEDTLS_MPI_CHK( mpi_montmul( X, &W[1], N, mm, &T ) );
 8787              		.loc 1 2031 13
 8788 0a06 488B8D38 		movq	-3272(%rbp), %rcx
 8788      F3FFFF
 8789 0a0d 488DBDB0 		leaq	-3152(%rbp), %rdi
 8789      F3FFFF
 8790 0a14 488B9510 		movq	-3312(%rbp), %rdx
 8790      F3FFFF
 8791 0a1b 488D85F0 		leaq	-3088(%rbp), %rax
 8791      F3FFFF
 8792 0a22 488D7018 		leaq	24(%rax), %rsi
 8793 0a26 488B8528 		movq	-3288(%rbp), %rax
 8793      F3FFFF
 8794 0a2d 4989F8   		movq	%rdi, %r8
 8795 0a30 4889C7   		movq	%rax, %rdi
 8796 0a33 E8000000 		call	mpi_montmul
 8796      00
 8797 0a38 898530F3 		movl	%eax, -3280(%rbp)
 8797      FFFF
 8798 0a3e 83BD30F3 		cmpl	$0, -3280(%rbp)
 8798      FFFF00
 8799 0a45 0F850201 		jne	.L626
 8799      0000
 8800              	.L593:
2024:/home/xingli/share/1205tiny/network/dtls/mbedtls/mbedtls-2.16.2/library/bignum.c ****     {
 8801              		.loc 1 2024 29 discriminator 2
 8802 0a4b 48838548 		addq	$1, -3256(%rbp)
 8802      F3FFFF01 
 8803              	.L591:
2024:/home/xingli/share/1205tiny/network/dtls/mbedtls/mbedtls-2.16.2/library/bignum.c ****     {
 8804              		.loc 1 2024 5 discriminator 1
 8805 0a53 488B8548 		movq	-3256(%rbp), %rax
 8805      F3FFFF
 8806 0a5a 483B8560 		cmpq	-3232(%rbp), %rax
 8806      F3FFFF
 8807 0a61 0F8236FF 		jb	.L594
 8807      FFFF
2032:/home/xingli/share/1205tiny/network/dtls/mbedtls/mbedtls-2.16.2/library/bignum.c ****     }
2033:/home/xingli/share/1205tiny/network/dtls/mbedtls/mbedtls-2.16.2/library/bignum.c **** 
2034:/home/xingli/share/1205tiny/network/dtls/mbedtls/mbedtls-2.16.2/library/bignum.c ****     /*
2035:/home/xingli/share/1205tiny/network/dtls/mbedtls/mbedtls-2.16.2/library/bignum.c ****      * X = A^E * R * R^-1 mod N = A^E mod N
2036:/home/xingli/share/1205tiny/network/dtls/mbedtls/mbedtls-2.16.2/library/bignum.c ****      */
2037:/home/xingli/share/1205tiny/network/dtls/mbedtls/mbedtls-2.16.2/library/bignum.c ****     MBEDTLS_MPI_CHK( mpi_montred( X, N, mm, &T ) );
 8808              		.loc 1 2037 5
 8809 0a67 488B9538 		movq	-3272(%rbp), %rdx
 8809      F3FFFF
 8810 0a6e 488D8DB0 		leaq	-3152(%rbp), %rcx
GAS LISTING /tmp/ccFaOvob.s 			page 227


 8810      F3FFFF
 8811 0a75 488BB510 		movq	-3312(%rbp), %rsi
 8811      F3FFFF
 8812 0a7c 488B8528 		movq	-3288(%rbp), %rax
 8812      F3FFFF
 8813 0a83 4889C7   		movq	%rax, %rdi
 8814 0a86 E8000000 		call	mpi_montred
 8814      00
 8815 0a8b 898530F3 		movl	%eax, -3280(%rbp)
 8815      FFFF
 8816 0a91 83BD30F3 		cmpl	$0, -3280(%rbp)
 8816      FFFF00
 8817 0a98 0F85B200 		jne	.L627
 8817      0000
2038:/home/xingli/share/1205tiny/network/dtls/mbedtls/mbedtls-2.16.2/library/bignum.c **** 
2039:/home/xingli/share/1205tiny/network/dtls/mbedtls/mbedtls-2.16.2/library/bignum.c ****     if( neg && E->n != 0 && ( E->p[0] & 1 ) != 0 )
 8818              		.loc 1 2039 7
 8819 0a9e 83BD34F3 		cmpl	$0, -3276(%rbp)
 8819      FFFF00
 8820 0aa5 0F84A800 		je	.L628
 8820      0000
 8821              		.loc 1 2039 17 discriminator 1
 8822 0aab 488B8518 		movq	-3304(%rbp), %rax
 8822      F3FFFF
 8823 0ab2 488B4008 		movq	8(%rax), %rax
 8824              		.loc 1 2039 13 discriminator 1
 8825 0ab6 4885C0   		testq	%rax, %rax
 8826 0ab9 0F849400 		je	.L628
 8826      0000
 8827              		.loc 1 2039 32 discriminator 2
 8828 0abf 488B8518 		movq	-3304(%rbp), %rax
 8828      F3FFFF
 8829 0ac6 488B4010 		movq	16(%rax), %rax
 8830              		.loc 1 2039 35 discriminator 2
 8831 0aca 488B00   		movq	(%rax), %rax
 8832              		.loc 1 2039 39 discriminator 2
 8833 0acd 83E001   		andl	$1, %eax
 8834              		.loc 1 2039 26 discriminator 2
 8835 0ad0 4885C0   		testq	%rax, %rax
 8836 0ad3 747E     		je	.L628
2040:/home/xingli/share/1205tiny/network/dtls/mbedtls/mbedtls-2.16.2/library/bignum.c ****     {
2041:/home/xingli/share/1205tiny/network/dtls/mbedtls/mbedtls-2.16.2/library/bignum.c ****         X->s = -1;
 8837              		.loc 1 2041 14
 8838 0ad5 488B8528 		movq	-3288(%rbp), %rax
 8838      F3FFFF
 8839 0adc C700FFFF 		movl	$-1, (%rax)
 8839      FFFF
2042:/home/xingli/share/1205tiny/network/dtls/mbedtls/mbedtls-2.16.2/library/bignum.c ****         MBEDTLS_MPI_CHK( mbedtls_mpi_add_mpi( X, N, X ) );
 8840              		.loc 1 2042 9
 8841 0ae2 488B9528 		movq	-3288(%rbp), %rdx
 8841      F3FFFF
 8842 0ae9 488B8D10 		movq	-3312(%rbp), %rcx
 8842      F3FFFF
 8843 0af0 488B8528 		movq	-3288(%rbp), %rax
 8843      F3FFFF
 8844 0af7 4889CE   		movq	%rcx, %rsi
 8845 0afa 4889C7   		movq	%rax, %rdi
GAS LISTING /tmp/ccFaOvob.s 			page 228


 8846 0afd E8000000 		call	mbedtls_mpi_add_mpi
 8846      00
 8847 0b02 898530F3 		movl	%eax, -3280(%rbp)
 8847      FFFF
 8848 0b08 83BD30F3 		cmpl	$0, -3280(%rbp)
 8848      FFFF00
2043:/home/xingli/share/1205tiny/network/dtls/mbedtls/mbedtls-2.16.2/library/bignum.c ****     }
2044:/home/xingli/share/1205tiny/network/dtls/mbedtls/mbedtls-2.16.2/library/bignum.c **** 
2045:/home/xingli/share/1205tiny/network/dtls/mbedtls/mbedtls-2.16.2/library/bignum.c **** cleanup:
 8849              		.loc 1 2045 1
 8850 0b0f EB42     		jmp	.L628
 8851              	.L603:
1886:/home/xingli/share/1205tiny/network/dtls/mbedtls/mbedtls-2.16.2/library/bignum.c ****     MBEDTLS_MPI_CHK( mbedtls_mpi_grow( &W[1],  j ) );
 8852              		.loc 1 1886 5
 8853 0b11 90       		nop
 8854 0b12 EB40     		jmp	.L551
 8855              	.L604:
1887:/home/xingli/share/1205tiny/network/dtls/mbedtls/mbedtls-2.16.2/library/bignum.c ****     MBEDTLS_MPI_CHK( mbedtls_mpi_grow( &T, j * 2 ) );
 8856              		.loc 1 1887 5
 8857 0b14 90       		nop
 8858 0b15 EB3D     		jmp	.L551
 8859              	.L605:
1888:/home/xingli/share/1205tiny/network/dtls/mbedtls/mbedtls-2.16.2/library/bignum.c **** 
 8860              		.loc 1 1888 5
 8861 0b17 90       		nop
 8862 0b18 EB3A     		jmp	.L551
 8863              	.L606:
1896:/home/xingli/share/1205tiny/network/dtls/mbedtls/mbedtls-2.16.2/library/bignum.c ****         Apos.s = 1;
 8864              		.loc 1 1896 9
 8865 0b1a 90       		nop
 8866 0b1b EB37     		jmp	.L551
 8867              	.L607:
1906:/home/xingli/share/1205tiny/network/dtls/mbedtls/mbedtls-2.16.2/library/bignum.c ****         MBEDTLS_MPI_CHK( mbedtls_mpi_shift_l( &RR, N->n * 2 * biL ) );
 8868              		.loc 1 1906 9
 8869 0b1d 90       		nop
 8870 0b1e EB34     		jmp	.L551
 8871              	.L608:
1907:/home/xingli/share/1205tiny/network/dtls/mbedtls/mbedtls-2.16.2/library/bignum.c ****         MBEDTLS_MPI_CHK( mbedtls_mpi_mod_mpi( &RR, &RR, N ) );
 8872              		.loc 1 1907 9
 8873 0b20 90       		nop
 8874 0b21 EB31     		jmp	.L551
 8875              	.L609:
1908:/home/xingli/share/1205tiny/network/dtls/mbedtls/mbedtls-2.16.2/library/bignum.c **** 
 8876              		.loc 1 1908 9
 8877 0b23 90       		nop
 8878 0b24 EB2E     		jmp	.L551
 8879              	.L610:
1922:/home/xingli/share/1205tiny/network/dtls/mbedtls/mbedtls-2.16.2/library/bignum.c **** 
 8880              		.loc 1 1922 9
 8881 0b26 90       		nop
 8882 0b27 EB2B     		jmp	.L551
 8883              	.L611:
1924:/home/xingli/share/1205tiny/network/dtls/mbedtls/mbedtls-2.16.2/library/bignum.c **** 
 8884              		.loc 1 1924 5
 8885 0b29 90       		nop
 8886 0b2a EB28     		jmp	.L551
 8887              	.L612:
GAS LISTING /tmp/ccFaOvob.s 			page 229


1929:/home/xingli/share/1205tiny/network/dtls/mbedtls/mbedtls-2.16.2/library/bignum.c ****     MBEDTLS_MPI_CHK( mpi_montred( X, N, mm, &T ) );
 8888              		.loc 1 1929 5
 8889 0b2c 90       		nop
 8890 0b2d EB25     		jmp	.L551
 8891              	.L613:
1930:/home/xingli/share/1205tiny/network/dtls/mbedtls/mbedtls-2.16.2/library/bignum.c **** 
 8892              		.loc 1 1930 5
 8893 0b2f 90       		nop
 8894 0b30 EB22     		jmp	.L551
 8895              	.L614:
1939:/home/xingli/share/1205tiny/network/dtls/mbedtls/mbedtls-2.16.2/library/bignum.c ****         MBEDTLS_MPI_CHK( mbedtls_mpi_copy( &W[j], &W[1]    ) );
 8896              		.loc 1 1939 9
 8897 0b32 90       		nop
 8898 0b33 EB1F     		jmp	.L551
 8899              	.L615:
1940:/home/xingli/share/1205tiny/network/dtls/mbedtls/mbedtls-2.16.2/library/bignum.c **** 
 8900              		.loc 1 1940 9
 8901 0b35 90       		nop
 8902 0b36 EB1C     		jmp	.L551
 8903              	.L616:
1943:/home/xingli/share/1205tiny/network/dtls/mbedtls/mbedtls-2.16.2/library/bignum.c **** 
 8904              		.loc 1 1943 13
 8905 0b38 90       		nop
 8906 0b39 EB19     		jmp	.L551
 8907              	.L617:
1950:/home/xingli/share/1205tiny/network/dtls/mbedtls/mbedtls-2.16.2/library/bignum.c ****             MBEDTLS_MPI_CHK( mbedtls_mpi_copy( &W[i], &W[i - 1] ) );
 8908              		.loc 1 1950 13
 8909 0b3b 90       		nop
 8910 0b3c EB16     		jmp	.L551
 8911              	.L618:
1951:/home/xingli/share/1205tiny/network/dtls/mbedtls/mbedtls-2.16.2/library/bignum.c **** 
 8912              		.loc 1 1951 13
 8913 0b3e 90       		nop
 8914 0b3f EB13     		jmp	.L551
 8915              	.L619:
1953:/home/xingli/share/1205tiny/network/dtls/mbedtls/mbedtls-2.16.2/library/bignum.c ****         }
 8916              		.loc 1 1953 13
 8917 0b41 90       		nop
 8918 0b42 EB10     		jmp	.L551
 8919              	.L623:
2008:/home/xingli/share/1205tiny/network/dtls/mbedtls/mbedtls-2.16.2/library/bignum.c **** 
 8920              		.loc 1 2008 17
 8921 0b44 90       		nop
 8922 0b45 EB0D     		jmp	.L551
 8923              	.L624:
2013:/home/xingli/share/1205tiny/network/dtls/mbedtls/mbedtls-2.16.2/library/bignum.c **** 
 8924              		.loc 1 2013 13
 8925 0b47 90       		nop
 8926 0b48 EB0A     		jmp	.L551
 8927              	.L625:
2026:/home/xingli/share/1205tiny/network/dtls/mbedtls/mbedtls-2.16.2/library/bignum.c **** 
 8928              		.loc 1 2026 9
 8929 0b4a 90       		nop
 8930 0b4b EB07     		jmp	.L551
 8931              	.L626:
2031:/home/xingli/share/1205tiny/network/dtls/mbedtls/mbedtls-2.16.2/library/bignum.c ****     }
 8932              		.loc 1 2031 13
GAS LISTING /tmp/ccFaOvob.s 			page 230


 8933 0b4d 90       		nop
 8934 0b4e EB04     		jmp	.L551
 8935              	.L627:
2037:/home/xingli/share/1205tiny/network/dtls/mbedtls/mbedtls-2.16.2/library/bignum.c **** 
 8936              		.loc 1 2037 5
 8937 0b50 90       		nop
 8938 0b51 EB01     		jmp	.L551
 8939              	.L628:
 8940              		.loc 1 2045 1
 8941 0b53 90       		nop
 8942              	.L551:
2046:/home/xingli/share/1205tiny/network/dtls/mbedtls/mbedtls-2.16.2/library/bignum.c **** 
2047:/home/xingli/share/1205tiny/network/dtls/mbedtls/mbedtls-2.16.2/library/bignum.c ****     for( i = ( one << ( wsize - 1 ) ); i < ( one << wsize ); i++ )
 8943              		.loc 1 2047 31
 8944 0b54 488B8578 		movq	-3208(%rbp), %rax
 8944      F3FFFF
 8945 0b5b 83E801   		subl	$1, %eax
 8946              		.loc 1 2047 12
 8947 0b5e 488B9570 		movq	-3216(%rbp), %rdx
 8947      F3FFFF
 8948 0b65 89C1     		movl	%eax, %ecx
 8949 0b67 48D3E2   		salq	%cl, %rdx
 8950 0b6a 4889D0   		movq	%rdx, %rax
 8951 0b6d 48898548 		movq	%rax, -3256(%rbp)
 8951      F3FFFF
 8952              		.loc 1 2047 5
 8953 0b74 EB2E     		jmp	.L596
 8954              	.L597:
2048:/home/xingli/share/1205tiny/network/dtls/mbedtls/mbedtls-2.16.2/library/bignum.c ****         mbedtls_mpi_free( &W[i] );
 8955              		.loc 1 2048 9 discriminator 3
 8956 0b76 488D8DF0 		leaq	-3088(%rbp), %rcx
 8956      F3FFFF
 8957 0b7d 488B9548 		movq	-3256(%rbp), %rdx
 8957      F3FFFF
 8958 0b84 4889D0   		movq	%rdx, %rax
 8959 0b87 4801C0   		addq	%rax, %rax
 8960 0b8a 4801D0   		addq	%rdx, %rax
 8961 0b8d 48C1E003 		salq	$3, %rax
 8962 0b91 4801C8   		addq	%rcx, %rax
 8963 0b94 4889C7   		movq	%rax, %rdi
 8964 0b97 E8000000 		call	mbedtls_mpi_free
 8964      00
2047:/home/xingli/share/1205tiny/network/dtls/mbedtls/mbedtls-2.16.2/library/bignum.c ****         mbedtls_mpi_free( &W[i] );
 8965              		.loc 1 2047 63 discriminator 3
 8966 0b9c 48838548 		addq	$1, -3256(%rbp)
 8966      F3FFFF01 
 8967              	.L596:
2047:/home/xingli/share/1205tiny/network/dtls/mbedtls/mbedtls-2.16.2/library/bignum.c ****         mbedtls_mpi_free( &W[i] );
 8968              		.loc 1 2047 50 discriminator 1
 8969 0ba4 488B8578 		movq	-3208(%rbp), %rax
 8969      F3FFFF
 8970 0bab 89C2     		movl	%eax, %edx
 8971 0bad 488B8570 		movq	-3216(%rbp), %rax
 8971      F3FFFF
 8972 0bb4 89D1     		movl	%edx, %ecx
 8973 0bb6 48D3E0   		salq	%cl, %rax
2047:/home/xingli/share/1205tiny/network/dtls/mbedtls/mbedtls-2.16.2/library/bignum.c ****         mbedtls_mpi_free( &W[i] );
GAS LISTING /tmp/ccFaOvob.s 			page 231


 8974              		.loc 1 2047 5 discriminator 1
 8975 0bb9 48398548 		cmpq	%rax, -3256(%rbp)
 8975      F3FFFF
 8976 0bc0 72B4     		jb	.L597
2049:/home/xingli/share/1205tiny/network/dtls/mbedtls/mbedtls-2.16.2/library/bignum.c **** 
2050:/home/xingli/share/1205tiny/network/dtls/mbedtls/mbedtls-2.16.2/library/bignum.c ****     mbedtls_mpi_free( &W[1] ); mbedtls_mpi_free( &T ); mbedtls_mpi_free( &Apos );
 8977              		.loc 1 2050 5
 8978 0bc2 488D85F0 		leaq	-3088(%rbp), %rax
 8978      F3FFFF
 8979 0bc9 4883C018 		addq	$24, %rax
 8980 0bcd 4889C7   		movq	%rax, %rdi
 8981 0bd0 E8000000 		call	mbedtls_mpi_free
 8981      00
 8982              		.loc 1 2050 32
 8983 0bd5 488D85B0 		leaq	-3152(%rbp), %rax
 8983      F3FFFF
 8984 0bdc 4889C7   		movq	%rax, %rdi
 8985 0bdf E8000000 		call	mbedtls_mpi_free
 8985      00
 8986              		.loc 1 2050 56
 8987 0be4 488D85D0 		leaq	-3120(%rbp), %rax
 8987      F3FFFF
 8988 0beb 4889C7   		movq	%rax, %rdi
 8989 0bee E8000000 		call	mbedtls_mpi_free
 8989      00
2051:/home/xingli/share/1205tiny/network/dtls/mbedtls/mbedtls-2.16.2/library/bignum.c **** 
2052:/home/xingli/share/1205tiny/network/dtls/mbedtls/mbedtls-2.16.2/library/bignum.c ****     if( _RR == NULL || _RR->p == NULL )
 8990              		.loc 1 2052 7
 8991 0bf3 4883BD08 		cmpq	$0, -3320(%rbp)
 8991      F3FFFF00 
 8992 0bfb 7410     		je	.L598
 8993              		.loc 1 2052 27 discriminator 1
 8994 0bfd 488B8508 		movq	-3320(%rbp), %rax
 8994      F3FFFF
 8995 0c04 488B4010 		movq	16(%rax), %rax
 8996              		.loc 1 2052 21 discriminator 1
 8997 0c08 4885C0   		testq	%rax, %rax
 8998 0c0b 750F     		jne	.L599
 8999              	.L598:
2053:/home/xingli/share/1205tiny/network/dtls/mbedtls/mbedtls-2.16.2/library/bignum.c ****         mbedtls_mpi_free( &RR );
 9000              		.loc 1 2053 9
 9001 0c0d 488D8590 		leaq	-3184(%rbp), %rax
 9001      F3FFFF
 9002 0c14 4889C7   		movq	%rax, %rdi
 9003 0c17 E8000000 		call	mbedtls_mpi_free
 9003      00
 9004              	.L599:
2054:/home/xingli/share/1205tiny/network/dtls/mbedtls/mbedtls-2.16.2/library/bignum.c **** 
2055:/home/xingli/share/1205tiny/network/dtls/mbedtls/mbedtls-2.16.2/library/bignum.c ****     return( ret );
 9005              		.loc 1 2055 11
 9006 0c1c 8B8530F3 		movl	-3280(%rbp), %eax
 9006      FFFF
 9007              	.L600:
2056:/home/xingli/share/1205tiny/network/dtls/mbedtls/mbedtls-2.16.2/library/bignum.c **** }
 9008              		.loc 1 2056 1 discriminator 1
 9009 0c22 488B7DF8 		movq	-8(%rbp), %rdi
 9010 0c26 6448333C 		xorq	%fs:40, %rdi
GAS LISTING /tmp/ccFaOvob.s 			page 232


 9010      25280000 
 9010      00
 9011 0c2f 7405     		je	.L601
 9012              		.loc 1 2056 1 is_stmt 0
 9013 0c31 E8000000 		call	__stack_chk_fail@PLT
 9013      00
 9014              	.L601:
 9015 0c36 C9       		leave
 9016              	.LCFI146:
 9017              		.cfi_def_cfa 7, 8
 9018 0c37 C3       		ret
 9019              		.cfi_endproc
 9020              	.LFE54:
 9022              		.section	.text.mbedtls_mpi_gcd,"ax",@progbits
 9023              		.globl	mbedtls_mpi_gcd
 9025              	mbedtls_mpi_gcd:
 9026              	.LFB55:
2057:/home/xingli/share/1205tiny/network/dtls/mbedtls/mbedtls-2.16.2/library/bignum.c **** 
2058:/home/xingli/share/1205tiny/network/dtls/mbedtls/mbedtls-2.16.2/library/bignum.c **** /*
2059:/home/xingli/share/1205tiny/network/dtls/mbedtls/mbedtls-2.16.2/library/bignum.c ****  * Greatest common divisor: G = gcd(A, B)  (HAC 14.54)
2060:/home/xingli/share/1205tiny/network/dtls/mbedtls/mbedtls-2.16.2/library/bignum.c ****  */
2061:/home/xingli/share/1205tiny/network/dtls/mbedtls/mbedtls-2.16.2/library/bignum.c **** int mbedtls_mpi_gcd( mbedtls_mpi *G, const mbedtls_mpi *A, const mbedtls_mpi *B )
2062:/home/xingli/share/1205tiny/network/dtls/mbedtls/mbedtls-2.16.2/library/bignum.c **** {
 9027              		.loc 1 2062 1 is_stmt 1
 9028              		.cfi_startproc
 9029 0000 F30F1EFA 		endbr64
 9030 0004 55       		pushq	%rbp
 9031              	.LCFI147:
 9032              		.cfi_def_cfa_offset 16
 9033              		.cfi_offset 6, -16
 9034 0005 4889E5   		movq	%rsp, %rbp
 9035              	.LCFI148:
 9036              		.cfi_def_cfa_register 6
 9037 0008 4881ECA0 		subq	$160, %rsp
 9037      000000
 9038 000f 4889BD78 		movq	%rdi, -136(%rbp)
 9038      FFFFFF
 9039 0016 4889B570 		movq	%rsi, -144(%rbp)
 9039      FFFFFF
 9040 001d 48899568 		movq	%rdx, -152(%rbp)
 9040      FFFFFF
 9041              		.loc 1 2062 1
 9042 0024 64488B04 		movq	%fs:40, %rax
 9042      25280000 
 9042      00
 9043 002d 488945F8 		movq	%rax, -8(%rbp)
 9044 0031 31C0     		xorl	%eax, %eax
2063:/home/xingli/share/1205tiny/network/dtls/mbedtls/mbedtls-2.16.2/library/bignum.c ****     int ret;
2064:/home/xingli/share/1205tiny/network/dtls/mbedtls/mbedtls-2.16.2/library/bignum.c ****     size_t lz, lzt;
2065:/home/xingli/share/1205tiny/network/dtls/mbedtls/mbedtls-2.16.2/library/bignum.c ****     mbedtls_mpi TG, TA, TB;
2066:/home/xingli/share/1205tiny/network/dtls/mbedtls/mbedtls-2.16.2/library/bignum.c **** 
2067:/home/xingli/share/1205tiny/network/dtls/mbedtls/mbedtls-2.16.2/library/bignum.c ****     MPI_VALIDATE_RET( G != NULL );
2068:/home/xingli/share/1205tiny/network/dtls/mbedtls/mbedtls-2.16.2/library/bignum.c ****     MPI_VALIDATE_RET( A != NULL );
2069:/home/xingli/share/1205tiny/network/dtls/mbedtls/mbedtls-2.16.2/library/bignum.c ****     MPI_VALIDATE_RET( B != NULL );
2070:/home/xingli/share/1205tiny/network/dtls/mbedtls/mbedtls-2.16.2/library/bignum.c **** 
2071:/home/xingli/share/1205tiny/network/dtls/mbedtls/mbedtls-2.16.2/library/bignum.c ****     mbedtls_mpi_init( &TG ); mbedtls_mpi_init( &TA ); mbedtls_mpi_init( &TB );
 9045              		.loc 1 2071 5
GAS LISTING /tmp/ccFaOvob.s 			page 233


 9046 0033 488D45A0 		leaq	-96(%rbp), %rax
 9047 0037 4889C7   		movq	%rax, %rdi
 9048 003a E8000000 		call	mbedtls_mpi_init
 9048      00
 9049              		.loc 1 2071 30
 9050 003f 488D45C0 		leaq	-64(%rbp), %rax
 9051 0043 4889C7   		movq	%rax, %rdi
 9052 0046 E8000000 		call	mbedtls_mpi_init
 9052      00
 9053              		.loc 1 2071 55
 9054 004b 488D45E0 		leaq	-32(%rbp), %rax
 9055 004f 4889C7   		movq	%rax, %rdi
 9056 0052 E8000000 		call	mbedtls_mpi_init
 9056      00
2072:/home/xingli/share/1205tiny/network/dtls/mbedtls/mbedtls-2.16.2/library/bignum.c **** 
2073:/home/xingli/share/1205tiny/network/dtls/mbedtls/mbedtls-2.16.2/library/bignum.c ****     MBEDTLS_MPI_CHK( mbedtls_mpi_copy( &TA, A ) );
 9057              		.loc 1 2073 5
 9058 0057 488B9570 		movq	-144(%rbp), %rdx
 9058      FFFFFF
 9059 005e 488D45C0 		leaq	-64(%rbp), %rax
 9060 0062 4889D6   		movq	%rdx, %rsi
 9061 0065 4889C7   		movq	%rax, %rdi
 9062 0068 E8000000 		call	mbedtls_mpi_copy
 9062      00
 9063 006d 89458C   		movl	%eax, -116(%rbp)
 9064 0070 837D8C00 		cmpl	$0, -116(%rbp)
 9065 0074 0F85E901 		jne	.L646
 9065      0000
2074:/home/xingli/share/1205tiny/network/dtls/mbedtls/mbedtls-2.16.2/library/bignum.c ****     MBEDTLS_MPI_CHK( mbedtls_mpi_copy( &TB, B ) );
 9066              		.loc 1 2074 5
 9067 007a 488B9568 		movq	-152(%rbp), %rdx
 9067      FFFFFF
 9068 0081 488D45E0 		leaq	-32(%rbp), %rax
 9069 0085 4889D6   		movq	%rdx, %rsi
 9070 0088 4889C7   		movq	%rax, %rdi
 9071 008b E8000000 		call	mbedtls_mpi_copy
 9071      00
 9072 0090 89458C   		movl	%eax, -116(%rbp)
 9073 0093 837D8C00 		cmpl	$0, -116(%rbp)
 9074 0097 0F85C901 		jne	.L647
 9074      0000
2075:/home/xingli/share/1205tiny/network/dtls/mbedtls/mbedtls-2.16.2/library/bignum.c **** 
2076:/home/xingli/share/1205tiny/network/dtls/mbedtls/mbedtls-2.16.2/library/bignum.c ****     lz = mbedtls_mpi_lsb( &TA );
 9075              		.loc 1 2076 10
 9076 009d 488D45C0 		leaq	-64(%rbp), %rax
 9077 00a1 4889C7   		movq	%rax, %rdi
 9078 00a4 E8000000 		call	mbedtls_mpi_lsb
 9078      00
 9079 00a9 48894590 		movq	%rax, -112(%rbp)
2077:/home/xingli/share/1205tiny/network/dtls/mbedtls/mbedtls-2.16.2/library/bignum.c ****     lzt = mbedtls_mpi_lsb( &TB );
 9080              		.loc 1 2077 11
 9081 00ad 488D45E0 		leaq	-32(%rbp), %rax
 9082 00b1 4889C7   		movq	%rax, %rdi
 9083 00b4 E8000000 		call	mbedtls_mpi_lsb
 9083      00
 9084 00b9 48894598 		movq	%rax, -104(%rbp)
2078:/home/xingli/share/1205tiny/network/dtls/mbedtls/mbedtls-2.16.2/library/bignum.c **** 
GAS LISTING /tmp/ccFaOvob.s 			page 234


2079:/home/xingli/share/1205tiny/network/dtls/mbedtls/mbedtls-2.16.2/library/bignum.c ****     if( lzt < lz )
 9085              		.loc 1 2079 7
 9086 00bd 488B4598 		movq	-104(%rbp), %rax
 9087 00c1 483B4590 		cmpq	-112(%rbp), %rax
 9088 00c5 7308     		jnb	.L633
2080:/home/xingli/share/1205tiny/network/dtls/mbedtls/mbedtls-2.16.2/library/bignum.c ****         lz = lzt;
 9089              		.loc 1 2080 12
 9090 00c7 488B4598 		movq	-104(%rbp), %rax
 9091 00cb 48894590 		movq	%rax, -112(%rbp)
 9092              	.L633:
2081:/home/xingli/share/1205tiny/network/dtls/mbedtls/mbedtls-2.16.2/library/bignum.c **** 
2082:/home/xingli/share/1205tiny/network/dtls/mbedtls/mbedtls-2.16.2/library/bignum.c ****     MBEDTLS_MPI_CHK( mbedtls_mpi_shift_r( &TA, lz ) );
 9093              		.loc 1 2082 5
 9094 00cf 488B5590 		movq	-112(%rbp), %rdx
 9095 00d3 488D45C0 		leaq	-64(%rbp), %rax
 9096 00d7 4889D6   		movq	%rdx, %rsi
 9097 00da 4889C7   		movq	%rax, %rdi
 9098 00dd E8000000 		call	mbedtls_mpi_shift_r
 9098      00
 9099 00e2 89458C   		movl	%eax, -116(%rbp)
 9100 00e5 837D8C00 		cmpl	$0, -116(%rbp)
 9101 00e9 0F857A01 		jne	.L648
 9101      0000
2083:/home/xingli/share/1205tiny/network/dtls/mbedtls/mbedtls-2.16.2/library/bignum.c ****     MBEDTLS_MPI_CHK( mbedtls_mpi_shift_r( &TB, lz ) );
 9102              		.loc 1 2083 5
 9103 00ef 488B5590 		movq	-112(%rbp), %rdx
 9104 00f3 488D45E0 		leaq	-32(%rbp), %rax
 9105 00f7 4889D6   		movq	%rdx, %rsi
 9106 00fa 4889C7   		movq	%rax, %rdi
 9107 00fd E8000000 		call	mbedtls_mpi_shift_r
 9107      00
 9108 0102 89458C   		movl	%eax, -116(%rbp)
 9109 0105 837D8C00 		cmpl	$0, -116(%rbp)
 9110 0109 0F855D01 		jne	.L649
 9110      0000
2084:/home/xingli/share/1205tiny/network/dtls/mbedtls/mbedtls-2.16.2/library/bignum.c **** 
2085:/home/xingli/share/1205tiny/network/dtls/mbedtls/mbedtls-2.16.2/library/bignum.c ****     TA.s = TB.s = 1;
 9111              		.loc 1 2085 17
 9112 010f C745E001 		movl	$1, -32(%rbp)
 9112      000000
 9113              		.loc 1 2085 14
 9114 0116 8B45E0   		movl	-32(%rbp), %eax
 9115              		.loc 1 2085 10
 9116 0119 8945C0   		movl	%eax, -64(%rbp)
2086:/home/xingli/share/1205tiny/network/dtls/mbedtls/mbedtls-2.16.2/library/bignum.c **** 
2087:/home/xingli/share/1205tiny/network/dtls/mbedtls/mbedtls-2.16.2/library/bignum.c ****     while( mbedtls_mpi_cmp_int( &TA, 0 ) != 0 )
 9117              		.loc 1 2087 10
 9118 011c E9EE0000 		jmp	.L636
 9118      00
 9119              	.L642:
2088:/home/xingli/share/1205tiny/network/dtls/mbedtls/mbedtls-2.16.2/library/bignum.c ****     {
2089:/home/xingli/share/1205tiny/network/dtls/mbedtls/mbedtls-2.16.2/library/bignum.c ****         MBEDTLS_MPI_CHK( mbedtls_mpi_shift_r( &TA, mbedtls_mpi_lsb( &TA ) ) );
 9120              		.loc 1 2089 9
 9121 0121 488D45C0 		leaq	-64(%rbp), %rax
 9122 0125 4889C7   		movq	%rax, %rdi
 9123 0128 E8000000 		call	mbedtls_mpi_lsb
 9123      00
GAS LISTING /tmp/ccFaOvob.s 			page 235


 9124 012d 4889C2   		movq	%rax, %rdx
 9125 0130 488D45C0 		leaq	-64(%rbp), %rax
 9126 0134 4889D6   		movq	%rdx, %rsi
 9127 0137 4889C7   		movq	%rax, %rdi
 9128 013a E8000000 		call	mbedtls_mpi_shift_r
 9128      00
 9129 013f 89458C   		movl	%eax, -116(%rbp)
 9130 0142 837D8C00 		cmpl	$0, -116(%rbp)
 9131 0146 0F852301 		jne	.L650
 9131      0000
2090:/home/xingli/share/1205tiny/network/dtls/mbedtls/mbedtls-2.16.2/library/bignum.c ****         MBEDTLS_MPI_CHK( mbedtls_mpi_shift_r( &TB, mbedtls_mpi_lsb( &TB ) ) );
 9132              		.loc 1 2090 9
 9133 014c 488D45E0 		leaq	-32(%rbp), %rax
 9134 0150 4889C7   		movq	%rax, %rdi
 9135 0153 E8000000 		call	mbedtls_mpi_lsb
 9135      00
 9136 0158 4889C2   		movq	%rax, %rdx
 9137 015b 488D45E0 		leaq	-32(%rbp), %rax
 9138 015f 4889D6   		movq	%rdx, %rsi
 9139 0162 4889C7   		movq	%rax, %rdi
 9140 0165 E8000000 		call	mbedtls_mpi_shift_r
 9140      00
 9141 016a 89458C   		movl	%eax, -116(%rbp)
 9142 016d 837D8C00 		cmpl	$0, -116(%rbp)
 9143 0171 0F85FB00 		jne	.L651
 9143      0000
2091:/home/xingli/share/1205tiny/network/dtls/mbedtls/mbedtls-2.16.2/library/bignum.c **** 
2092:/home/xingli/share/1205tiny/network/dtls/mbedtls/mbedtls-2.16.2/library/bignum.c ****         if( mbedtls_mpi_cmp_mpi( &TA, &TB ) >= 0 )
 9144              		.loc 1 2092 13
 9145 0177 488D55E0 		leaq	-32(%rbp), %rdx
 9146 017b 488D45C0 		leaq	-64(%rbp), %rax
 9147 017f 4889D6   		movq	%rdx, %rsi
 9148 0182 4889C7   		movq	%rax, %rdi
 9149 0185 E8000000 		call	mbedtls_mpi_cmp_mpi
 9149      00
 9150              		.loc 1 2092 11
 9151 018a 85C0     		testl	%eax, %eax
 9152 018c 7843     		js	.L639
2093:/home/xingli/share/1205tiny/network/dtls/mbedtls/mbedtls-2.16.2/library/bignum.c ****         {
2094:/home/xingli/share/1205tiny/network/dtls/mbedtls/mbedtls-2.16.2/library/bignum.c ****             MBEDTLS_MPI_CHK( mbedtls_mpi_sub_abs( &TA, &TA, &TB ) );
 9153              		.loc 1 2094 13
 9154 018e 488D55E0 		leaq	-32(%rbp), %rdx
 9155 0192 488D4DC0 		leaq	-64(%rbp), %rcx
 9156 0196 488D45C0 		leaq	-64(%rbp), %rax
 9157 019a 4889CE   		movq	%rcx, %rsi
 9158 019d 4889C7   		movq	%rax, %rdi
 9159 01a0 E8000000 		call	mbedtls_mpi_sub_abs
 9159      00
 9160 01a5 89458C   		movl	%eax, -116(%rbp)
 9161 01a8 837D8C00 		cmpl	$0, -116(%rbp)
 9162 01ac 0F85C300 		jne	.L652
 9162      0000
2095:/home/xingli/share/1205tiny/network/dtls/mbedtls/mbedtls-2.16.2/library/bignum.c ****             MBEDTLS_MPI_CHK( mbedtls_mpi_shift_r( &TA, 1 ) );
 9163              		.loc 1 2095 13
 9164 01b2 488D45C0 		leaq	-64(%rbp), %rax
 9165 01b6 BE010000 		movl	$1, %esi
 9165      00
GAS LISTING /tmp/ccFaOvob.s 			page 236


 9166 01bb 4889C7   		movq	%rax, %rdi
 9167 01be E8000000 		call	mbedtls_mpi_shift_r
 9167      00
 9168 01c3 89458C   		movl	%eax, -116(%rbp)
 9169 01c6 837D8C00 		cmpl	$0, -116(%rbp)
 9170 01ca 7443     		je	.L636
 9171 01cc E9AE0000 		jmp	.L631
 9171      00
 9172              	.L639:
2096:/home/xingli/share/1205tiny/network/dtls/mbedtls/mbedtls-2.16.2/library/bignum.c ****         }
2097:/home/xingli/share/1205tiny/network/dtls/mbedtls/mbedtls-2.16.2/library/bignum.c ****         else
2098:/home/xingli/share/1205tiny/network/dtls/mbedtls/mbedtls-2.16.2/library/bignum.c ****         {
2099:/home/xingli/share/1205tiny/network/dtls/mbedtls/mbedtls-2.16.2/library/bignum.c ****             MBEDTLS_MPI_CHK( mbedtls_mpi_sub_abs( &TB, &TB, &TA ) );
 9173              		.loc 1 2099 13
 9174 01d1 488D55C0 		leaq	-64(%rbp), %rdx
 9175 01d5 488D4DE0 		leaq	-32(%rbp), %rcx
 9176 01d9 488D45E0 		leaq	-32(%rbp), %rax
 9177 01dd 4889CE   		movq	%rcx, %rsi
 9178 01e0 4889C7   		movq	%rax, %rdi
 9179 01e3 E8000000 		call	mbedtls_mpi_sub_abs
 9179      00
 9180 01e8 89458C   		movl	%eax, -116(%rbp)
 9181 01eb 837D8C00 		cmpl	$0, -116(%rbp)
 9182 01ef 0F858300 		jne	.L653
 9182      0000
2100:/home/xingli/share/1205tiny/network/dtls/mbedtls/mbedtls-2.16.2/library/bignum.c ****             MBEDTLS_MPI_CHK( mbedtls_mpi_shift_r( &TB, 1 ) );
 9183              		.loc 1 2100 13
 9184 01f5 488D45E0 		leaq	-32(%rbp), %rax
 9185 01f9 BE010000 		movl	$1, %esi
 9185      00
 9186 01fe 4889C7   		movq	%rax, %rdi
 9187 0201 E8000000 		call	mbedtls_mpi_shift_r
 9187      00
 9188 0206 89458C   		movl	%eax, -116(%rbp)
 9189 0209 837D8C00 		cmpl	$0, -116(%rbp)
 9190 020d 756C     		jne	.L654
 9191              	.L636:
2087:/home/xingli/share/1205tiny/network/dtls/mbedtls/mbedtls-2.16.2/library/bignum.c ****     {
 9192              		.loc 1 2087 12
 9193 020f 488D45C0 		leaq	-64(%rbp), %rax
 9194 0213 BE000000 		movl	$0, %esi
 9194      00
 9195 0218 4889C7   		movq	%rax, %rdi
 9196 021b E8000000 		call	mbedtls_mpi_cmp_int
 9196      00
2087:/home/xingli/share/1205tiny/network/dtls/mbedtls/mbedtls-2.16.2/library/bignum.c ****     {
 9197              		.loc 1 2087 10
 9198 0220 85C0     		testl	%eax, %eax
 9199 0222 0F85F9FE 		jne	.L642
 9199      FFFF
2101:/home/xingli/share/1205tiny/network/dtls/mbedtls/mbedtls-2.16.2/library/bignum.c ****         }
2102:/home/xingli/share/1205tiny/network/dtls/mbedtls/mbedtls-2.16.2/library/bignum.c ****     }
2103:/home/xingli/share/1205tiny/network/dtls/mbedtls/mbedtls-2.16.2/library/bignum.c **** 
2104:/home/xingli/share/1205tiny/network/dtls/mbedtls/mbedtls-2.16.2/library/bignum.c ****     MBEDTLS_MPI_CHK( mbedtls_mpi_shift_l( &TB, lz ) );
 9200              		.loc 1 2104 5
 9201 0228 488B5590 		movq	-112(%rbp), %rdx
 9202 022c 488D45E0 		leaq	-32(%rbp), %rax
GAS LISTING /tmp/ccFaOvob.s 			page 237


 9203 0230 4889D6   		movq	%rdx, %rsi
 9204 0233 4889C7   		movq	%rax, %rdi
 9205 0236 E8000000 		call	mbedtls_mpi_shift_l
 9205      00
 9206 023b 89458C   		movl	%eax, -116(%rbp)
 9207 023e 837D8C00 		cmpl	$0, -116(%rbp)
 9208 0242 753A     		jne	.L655
2105:/home/xingli/share/1205tiny/network/dtls/mbedtls/mbedtls-2.16.2/library/bignum.c ****     MBEDTLS_MPI_CHK( mbedtls_mpi_copy( G, &TB ) );
 9209              		.loc 1 2105 5
 9210 0244 488D55E0 		leaq	-32(%rbp), %rdx
 9211 0248 488B8578 		movq	-136(%rbp), %rax
 9211      FFFFFF
 9212 024f 4889D6   		movq	%rdx, %rsi
 9213 0252 4889C7   		movq	%rax, %rdi
 9214 0255 E8000000 		call	mbedtls_mpi_copy
 9214      00
 9215 025a 89458C   		movl	%eax, -116(%rbp)
 9216 025d 837D8C00 		cmpl	$0, -116(%rbp)
2106:/home/xingli/share/1205tiny/network/dtls/mbedtls/mbedtls-2.16.2/library/bignum.c **** 
2107:/home/xingli/share/1205tiny/network/dtls/mbedtls/mbedtls-2.16.2/library/bignum.c **** cleanup:
 9217              		.loc 1 2107 1
 9218 0261 EB1C     		jmp	.L631
 9219              	.L646:
2073:/home/xingli/share/1205tiny/network/dtls/mbedtls/mbedtls-2.16.2/library/bignum.c ****     MBEDTLS_MPI_CHK( mbedtls_mpi_copy( &TB, B ) );
 9220              		.loc 1 2073 5
 9221 0263 90       		nop
 9222 0264 EB19     		jmp	.L631
 9223              	.L647:
2074:/home/xingli/share/1205tiny/network/dtls/mbedtls/mbedtls-2.16.2/library/bignum.c **** 
 9224              		.loc 1 2074 5
 9225 0266 90       		nop
 9226 0267 EB16     		jmp	.L631
 9227              	.L648:
2082:/home/xingli/share/1205tiny/network/dtls/mbedtls/mbedtls-2.16.2/library/bignum.c ****     MBEDTLS_MPI_CHK( mbedtls_mpi_shift_r( &TB, lz ) );
 9228              		.loc 1 2082 5
 9229 0269 90       		nop
 9230 026a EB13     		jmp	.L631
 9231              	.L649:
2083:/home/xingli/share/1205tiny/network/dtls/mbedtls/mbedtls-2.16.2/library/bignum.c **** 
 9232              		.loc 1 2083 5
 9233 026c 90       		nop
 9234 026d EB10     		jmp	.L631
 9235              	.L650:
2089:/home/xingli/share/1205tiny/network/dtls/mbedtls/mbedtls-2.16.2/library/bignum.c ****         MBEDTLS_MPI_CHK( mbedtls_mpi_shift_r( &TB, mbedtls_mpi_lsb( &TB ) ) );
 9236              		.loc 1 2089 9
 9237 026f 90       		nop
 9238 0270 EB0D     		jmp	.L631
 9239              	.L651:
2090:/home/xingli/share/1205tiny/network/dtls/mbedtls/mbedtls-2.16.2/library/bignum.c **** 
 9240              		.loc 1 2090 9
 9241 0272 90       		nop
 9242 0273 EB0A     		jmp	.L631
 9243              	.L652:
2094:/home/xingli/share/1205tiny/network/dtls/mbedtls/mbedtls-2.16.2/library/bignum.c ****             MBEDTLS_MPI_CHK( mbedtls_mpi_shift_r( &TA, 1 ) );
 9244              		.loc 1 2094 13
 9245 0275 90       		nop
 9246 0276 EB07     		jmp	.L631
GAS LISTING /tmp/ccFaOvob.s 			page 238


 9247              	.L653:
2099:/home/xingli/share/1205tiny/network/dtls/mbedtls/mbedtls-2.16.2/library/bignum.c ****             MBEDTLS_MPI_CHK( mbedtls_mpi_shift_r( &TB, 1 ) );
 9248              		.loc 1 2099 13
 9249 0278 90       		nop
 9250 0279 EB04     		jmp	.L631
 9251              	.L654:
2100:/home/xingli/share/1205tiny/network/dtls/mbedtls/mbedtls-2.16.2/library/bignum.c ****         }
 9252              		.loc 1 2100 13
 9253 027b 90       		nop
 9254 027c EB01     		jmp	.L631
 9255              	.L655:
2104:/home/xingli/share/1205tiny/network/dtls/mbedtls/mbedtls-2.16.2/library/bignum.c ****     MBEDTLS_MPI_CHK( mbedtls_mpi_copy( G, &TB ) );
 9256              		.loc 1 2104 5
 9257 027e 90       		nop
 9258              	.L631:
2108:/home/xingli/share/1205tiny/network/dtls/mbedtls/mbedtls-2.16.2/library/bignum.c **** 
2109:/home/xingli/share/1205tiny/network/dtls/mbedtls/mbedtls-2.16.2/library/bignum.c ****     mbedtls_mpi_free( &TG ); mbedtls_mpi_free( &TA ); mbedtls_mpi_free( &TB );
 9259              		.loc 1 2109 5
 9260 027f 488D45A0 		leaq	-96(%rbp), %rax
 9261 0283 4889C7   		movq	%rax, %rdi
 9262 0286 E8000000 		call	mbedtls_mpi_free
 9262      00
 9263              		.loc 1 2109 30
 9264 028b 488D45C0 		leaq	-64(%rbp), %rax
 9265 028f 4889C7   		movq	%rax, %rdi
 9266 0292 E8000000 		call	mbedtls_mpi_free
 9266      00
 9267              		.loc 1 2109 55
 9268 0297 488D45E0 		leaq	-32(%rbp), %rax
 9269 029b 4889C7   		movq	%rax, %rdi
 9270 029e E8000000 		call	mbedtls_mpi_free
 9270      00
2110:/home/xingli/share/1205tiny/network/dtls/mbedtls/mbedtls-2.16.2/library/bignum.c **** 
2111:/home/xingli/share/1205tiny/network/dtls/mbedtls/mbedtls-2.16.2/library/bignum.c ****     return( ret );
 9271              		.loc 1 2111 11
 9272 02a3 8B458C   		movl	-116(%rbp), %eax
2112:/home/xingli/share/1205tiny/network/dtls/mbedtls/mbedtls-2.16.2/library/bignum.c **** }
 9273              		.loc 1 2112 1
 9274 02a6 488B4DF8 		movq	-8(%rbp), %rcx
 9275 02aa 6448330C 		xorq	%fs:40, %rcx
 9275      25280000 
 9275      00
 9276 02b3 7405     		je	.L645
 9277 02b5 E8000000 		call	__stack_chk_fail@PLT
 9277      00
 9278              	.L645:
 9279 02ba C9       		leave
 9280              	.LCFI149:
 9281              		.cfi_def_cfa 7, 8
 9282 02bb C3       		ret
 9283              		.cfi_endproc
 9284              	.LFE55:
 9286              		.section	.text.mbedtls_mpi_fill_random,"ax",@progbits
 9287              		.globl	mbedtls_mpi_fill_random
 9289              	mbedtls_mpi_fill_random:
 9290              	.LFB56:
2113:/home/xingli/share/1205tiny/network/dtls/mbedtls/mbedtls-2.16.2/library/bignum.c **** 
GAS LISTING /tmp/ccFaOvob.s 			page 239


2114:/home/xingli/share/1205tiny/network/dtls/mbedtls/mbedtls-2.16.2/library/bignum.c **** /*
2115:/home/xingli/share/1205tiny/network/dtls/mbedtls/mbedtls-2.16.2/library/bignum.c ****  * Fill X with size bytes of random.
2116:/home/xingli/share/1205tiny/network/dtls/mbedtls/mbedtls-2.16.2/library/bignum.c ****  *
2117:/home/xingli/share/1205tiny/network/dtls/mbedtls/mbedtls-2.16.2/library/bignum.c ****  * Use a temporary bytes representation to make sure the result is the same
2118:/home/xingli/share/1205tiny/network/dtls/mbedtls/mbedtls-2.16.2/library/bignum.c ****  * regardless of the platform endianness (useful when f_rng is actually
2119:/home/xingli/share/1205tiny/network/dtls/mbedtls/mbedtls-2.16.2/library/bignum.c ****  * deterministic, eg for tests).
2120:/home/xingli/share/1205tiny/network/dtls/mbedtls/mbedtls-2.16.2/library/bignum.c ****  */
2121:/home/xingli/share/1205tiny/network/dtls/mbedtls/mbedtls-2.16.2/library/bignum.c **** int mbedtls_mpi_fill_random( mbedtls_mpi *X, size_t size,
2122:/home/xingli/share/1205tiny/network/dtls/mbedtls/mbedtls-2.16.2/library/bignum.c ****                      int (*f_rng)(void *, unsigned char *, size_t),
2123:/home/xingli/share/1205tiny/network/dtls/mbedtls/mbedtls-2.16.2/library/bignum.c ****                      void *p_rng )
2124:/home/xingli/share/1205tiny/network/dtls/mbedtls/mbedtls-2.16.2/library/bignum.c **** {
 9291              		.loc 1 2124 1
 9292              		.cfi_startproc
 9293 0000 F30F1EFA 		endbr64
 9294 0004 55       		pushq	%rbp
 9295              	.LCFI150:
 9296              		.cfi_def_cfa_offset 16
 9297              		.cfi_offset 6, -16
 9298 0005 4889E5   		movq	%rsp, %rbp
 9299              	.LCFI151:
 9300              		.cfi_def_cfa_register 6
 9301 0008 4883EC50 		subq	$80, %rsp
 9302 000c 48897DC8 		movq	%rdi, -56(%rbp)
 9303 0010 488975C0 		movq	%rsi, -64(%rbp)
 9304 0014 488955B8 		movq	%rdx, -72(%rbp)
 9305 0018 48894DB0 		movq	%rcx, -80(%rbp)
 9306              		.loc 1 2124 1
 9307 001c 64488B04 		movq	%fs:40, %rax
 9307      25280000 
 9307      00
 9308 0025 488945F8 		movq	%rax, -8(%rbp)
 9309 0029 31C0     		xorl	%eax, %eax
2125:/home/xingli/share/1205tiny/network/dtls/mbedtls/mbedtls-2.16.2/library/bignum.c ****     int ret;
2126:/home/xingli/share/1205tiny/network/dtls/mbedtls/mbedtls-2.16.2/library/bignum.c ****     size_t const limbs = CHARS_TO_LIMBS( size );
 9310              		.loc 1 2126 26
 9311 002b 488B45C0 		movq	-64(%rbp), %rax
 9312 002f 48C1E803 		shrq	$3, %rax
 9313 0033 4889C2   		movq	%rax, %rdx
 9314 0036 488B45C0 		movq	-64(%rbp), %rax
 9315 003a 83E007   		andl	$7, %eax
 9316 003d 4885C0   		testq	%rax, %rax
 9317 0040 0F95C0   		setne	%al
 9318 0043 0FB6C0   		movzbl	%al, %eax
 9319              		.loc 1 2126 18
 9320 0046 4801D0   		addq	%rdx, %rax
 9321 0049 488945E0 		movq	%rax, -32(%rbp)
2127:/home/xingli/share/1205tiny/network/dtls/mbedtls/mbedtls-2.16.2/library/bignum.c ****     size_t const overhead = ( limbs * ciL ) - size;
 9322              		.loc 1 2127 37
 9323 004d 488B45E0 		movq	-32(%rbp), %rax
 9324 0051 48C1E003 		salq	$3, %rax
 9325              		.loc 1 2127 18
 9326 0055 482B45C0 		subq	-64(%rbp), %rax
 9327 0059 488945E8 		movq	%rax, -24(%rbp)
2128:/home/xingli/share/1205tiny/network/dtls/mbedtls/mbedtls-2.16.2/library/bignum.c ****     unsigned char *Xp;
2129:/home/xingli/share/1205tiny/network/dtls/mbedtls/mbedtls-2.16.2/library/bignum.c **** 
2130:/home/xingli/share/1205tiny/network/dtls/mbedtls/mbedtls-2.16.2/library/bignum.c ****     MPI_VALIDATE_RET( X     != NULL );
2131:/home/xingli/share/1205tiny/network/dtls/mbedtls/mbedtls-2.16.2/library/bignum.c ****     MPI_VALIDATE_RET( f_rng != NULL );
GAS LISTING /tmp/ccFaOvob.s 			page 240


2132:/home/xingli/share/1205tiny/network/dtls/mbedtls/mbedtls-2.16.2/library/bignum.c **** 
2133:/home/xingli/share/1205tiny/network/dtls/mbedtls/mbedtls-2.16.2/library/bignum.c ****     /* Ensure that target MPI has exactly the necessary number of limbs */
2134:/home/xingli/share/1205tiny/network/dtls/mbedtls/mbedtls-2.16.2/library/bignum.c ****     if( X->n != limbs )
 9328              		.loc 1 2134 10
 9329 005d 488B45C8 		movq	-56(%rbp), %rax
 9330 0061 488B4008 		movq	8(%rax), %rax
 9331              		.loc 1 2134 7
 9332 0065 483945E0 		cmpq	%rax, -32(%rbp)
 9333 0069 7434     		je	.L657
2135:/home/xingli/share/1205tiny/network/dtls/mbedtls/mbedtls-2.16.2/library/bignum.c ****     {
2136:/home/xingli/share/1205tiny/network/dtls/mbedtls/mbedtls-2.16.2/library/bignum.c ****         mbedtls_mpi_free( X );
 9334              		.loc 1 2136 9
 9335 006b 488B45C8 		movq	-56(%rbp), %rax
 9336 006f 4889C7   		movq	%rax, %rdi
 9337 0072 E8000000 		call	mbedtls_mpi_free
 9337      00
2137:/home/xingli/share/1205tiny/network/dtls/mbedtls/mbedtls-2.16.2/library/bignum.c ****         mbedtls_mpi_init( X );
 9338              		.loc 1 2137 9
 9339 0077 488B45C8 		movq	-56(%rbp), %rax
 9340 007b 4889C7   		movq	%rax, %rdi
 9341 007e E8000000 		call	mbedtls_mpi_init
 9341      00
2138:/home/xingli/share/1205tiny/network/dtls/mbedtls/mbedtls-2.16.2/library/bignum.c ****         MBEDTLS_MPI_CHK( mbedtls_mpi_grow( X, limbs ) );
 9342              		.loc 1 2138 9
 9343 0083 488B55E0 		movq	-32(%rbp), %rdx
 9344 0087 488B45C8 		movq	-56(%rbp), %rax
 9345 008b 4889D6   		movq	%rdx, %rsi
 9346 008e 4889C7   		movq	%rax, %rdi
 9347 0091 E8000000 		call	mbedtls_mpi_grow
 9347      00
 9348 0096 8945DC   		movl	%eax, -36(%rbp)
 9349 0099 837DDC00 		cmpl	$0, -36(%rbp)
 9350 009d 755C     		jne	.L662
 9351              	.L657:
2139:/home/xingli/share/1205tiny/network/dtls/mbedtls/mbedtls-2.16.2/library/bignum.c ****     }
2140:/home/xingli/share/1205tiny/network/dtls/mbedtls/mbedtls-2.16.2/library/bignum.c ****     MBEDTLS_MPI_CHK( mbedtls_mpi_lset( X, 0 ) );
 9352              		.loc 1 2140 5
 9353 009f 488B45C8 		movq	-56(%rbp), %rax
 9354 00a3 BE000000 		movl	$0, %esi
 9354      00
 9355 00a8 4889C7   		movq	%rax, %rdi
 9356 00ab E8000000 		call	mbedtls_mpi_lset
 9356      00
 9357 00b0 8945DC   		movl	%eax, -36(%rbp)
 9358 00b3 837DDC00 		cmpl	$0, -36(%rbp)
 9359 00b7 7545     		jne	.L663
2141:/home/xingli/share/1205tiny/network/dtls/mbedtls/mbedtls-2.16.2/library/bignum.c **** 
2142:/home/xingli/share/1205tiny/network/dtls/mbedtls/mbedtls-2.16.2/library/bignum.c ****     Xp = (unsigned char*) X->p;
 9360              		.loc 1 2142 8
 9361 00b9 488B45C8 		movq	-56(%rbp), %rax
 9362 00bd 488B4010 		movq	16(%rax), %rax
 9363 00c1 488945F0 		movq	%rax, -16(%rbp)
2143:/home/xingli/share/1205tiny/network/dtls/mbedtls/mbedtls-2.16.2/library/bignum.c ****     f_rng( p_rng, Xp + overhead, size );
 9364              		.loc 1 2143 5
 9365 00c5 488B55F0 		movq	-16(%rbp), %rdx
 9366 00c9 488B45E8 		movq	-24(%rbp), %rax
 9367 00cd 488D3402 		leaq	(%rdx,%rax), %rsi
GAS LISTING /tmp/ccFaOvob.s 			page 241


 9368 00d1 488B55C0 		movq	-64(%rbp), %rdx
 9369 00d5 488B45B0 		movq	-80(%rbp), %rax
 9370 00d9 488B4DB8 		movq	-72(%rbp), %rcx
 9371 00dd 4889C7   		movq	%rax, %rdi
 9372 00e0 FFD1     		call	*%rcx
 9373              	.LVL1:
2144:/home/xingli/share/1205tiny/network/dtls/mbedtls/mbedtls-2.16.2/library/bignum.c **** 
2145:/home/xingli/share/1205tiny/network/dtls/mbedtls/mbedtls-2.16.2/library/bignum.c ****     mpi_bigendian_to_host( X->p, limbs );
 9374              		.loc 1 2145 5
 9375 00e2 488B45C8 		movq	-56(%rbp), %rax
 9376 00e6 488B4010 		movq	16(%rax), %rax
 9377 00ea 488B55E0 		movq	-32(%rbp), %rdx
 9378 00ee 4889D6   		movq	%rdx, %rsi
 9379 00f1 4889C7   		movq	%rax, %rdi
 9380 00f4 E8000000 		call	mpi_bigendian_to_host
 9380      00
 9381 00f9 EB04     		jmp	.L658
 9382              	.L662:
2138:/home/xingli/share/1205tiny/network/dtls/mbedtls/mbedtls-2.16.2/library/bignum.c ****     }
 9383              		.loc 1 2138 9
 9384 00fb 90       		nop
 9385 00fc EB01     		jmp	.L658
 9386              	.L663:
2140:/home/xingli/share/1205tiny/network/dtls/mbedtls/mbedtls-2.16.2/library/bignum.c **** 
 9387              		.loc 1 2140 5
 9388 00fe 90       		nop
 9389              	.L658:
2146:/home/xingli/share/1205tiny/network/dtls/mbedtls/mbedtls-2.16.2/library/bignum.c **** 
2147:/home/xingli/share/1205tiny/network/dtls/mbedtls/mbedtls-2.16.2/library/bignum.c **** cleanup:
2148:/home/xingli/share/1205tiny/network/dtls/mbedtls/mbedtls-2.16.2/library/bignum.c ****     return( ret );
 9390              		.loc 1 2148 11
 9391 00ff 8B45DC   		movl	-36(%rbp), %eax
2149:/home/xingli/share/1205tiny/network/dtls/mbedtls/mbedtls-2.16.2/library/bignum.c **** }
 9392              		.loc 1 2149 1
 9393 0102 488B4DF8 		movq	-8(%rbp), %rcx
 9394 0106 6448330C 		xorq	%fs:40, %rcx
 9394      25280000 
 9394      00
 9395 010f 7405     		je	.L661
 9396 0111 E8000000 		call	__stack_chk_fail@PLT
 9396      00
 9397              	.L661:
 9398 0116 C9       		leave
 9399              	.LCFI152:
 9400              		.cfi_def_cfa 7, 8
 9401 0117 C3       		ret
 9402              		.cfi_endproc
 9403              	.LFE56:
 9405              		.section	.text.mbedtls_mpi_inv_mod,"ax",@progbits
 9406              		.globl	mbedtls_mpi_inv_mod
 9408              	mbedtls_mpi_inv_mod:
 9409              	.LFB57:
2150:/home/xingli/share/1205tiny/network/dtls/mbedtls/mbedtls-2.16.2/library/bignum.c **** 
2151:/home/xingli/share/1205tiny/network/dtls/mbedtls/mbedtls-2.16.2/library/bignum.c **** /*
2152:/home/xingli/share/1205tiny/network/dtls/mbedtls/mbedtls-2.16.2/library/bignum.c ****  * Modular inverse: X = A^-1 mod N  (HAC 14.61 / 14.64)
2153:/home/xingli/share/1205tiny/network/dtls/mbedtls/mbedtls-2.16.2/library/bignum.c ****  */
2154:/home/xingli/share/1205tiny/network/dtls/mbedtls/mbedtls-2.16.2/library/bignum.c **** int mbedtls_mpi_inv_mod( mbedtls_mpi *X, const mbedtls_mpi *A, const mbedtls_mpi *N )
GAS LISTING /tmp/ccFaOvob.s 			page 242


2155:/home/xingli/share/1205tiny/network/dtls/mbedtls/mbedtls-2.16.2/library/bignum.c **** {
 9410              		.loc 1 2155 1
 9411              		.cfi_startproc
 9412 0000 F30F1EFA 		endbr64
 9413 0004 55       		pushq	%rbp
 9414              	.LCFI153:
 9415              		.cfi_def_cfa_offset 16
 9416              		.cfi_offset 6, -16
 9417 0005 4889E5   		movq	%rsp, %rbp
 9418              	.LCFI154:
 9419              		.cfi_def_cfa_register 6
 9420 0008 4881EC50 		subq	$336, %rsp
 9420      010000
 9421 000f 4889BDC8 		movq	%rdi, -312(%rbp)
 9421      FEFFFF
 9422 0016 4889B5C0 		movq	%rsi, -320(%rbp)
 9422      FEFFFF
 9423 001d 488995B8 		movq	%rdx, -328(%rbp)
 9423      FEFFFF
 9424              		.loc 1 2155 1
 9425 0024 64488B04 		movq	%fs:40, %rax
 9425      25280000 
 9425      00
 9426 002d 488945F8 		movq	%rax, -8(%rbp)
 9427 0031 31C0     		xorl	%eax, %eax
2156:/home/xingli/share/1205tiny/network/dtls/mbedtls/mbedtls-2.16.2/library/bignum.c ****     int ret;
2157:/home/xingli/share/1205tiny/network/dtls/mbedtls/mbedtls-2.16.2/library/bignum.c ****     mbedtls_mpi G, TA, TU, U1, U2, TB, TV, V1, V2;
2158:/home/xingli/share/1205tiny/network/dtls/mbedtls/mbedtls-2.16.2/library/bignum.c ****     MPI_VALIDATE_RET( X != NULL );
2159:/home/xingli/share/1205tiny/network/dtls/mbedtls/mbedtls-2.16.2/library/bignum.c ****     MPI_VALIDATE_RET( A != NULL );
2160:/home/xingli/share/1205tiny/network/dtls/mbedtls/mbedtls-2.16.2/library/bignum.c ****     MPI_VALIDATE_RET( N != NULL );
2161:/home/xingli/share/1205tiny/network/dtls/mbedtls/mbedtls-2.16.2/library/bignum.c **** 
2162:/home/xingli/share/1205tiny/network/dtls/mbedtls/mbedtls-2.16.2/library/bignum.c ****     if( mbedtls_mpi_cmp_int( N, 1 ) <= 0 )
 9428              		.loc 1 2162 9
 9429 0033 488B85B8 		movq	-328(%rbp), %rax
 9429      FEFFFF
 9430 003a BE010000 		movl	$1, %esi
 9430      00
 9431 003f 4889C7   		movq	%rax, %rdi
 9432 0042 E8000000 		call	mbedtls_mpi_cmp_int
 9432      00
 9433              		.loc 1 2162 7
 9434 0047 85C0     		testl	%eax, %eax
 9435 0049 7F0A     		jg	.L665
2163:/home/xingli/share/1205tiny/network/dtls/mbedtls/mbedtls-2.16.2/library/bignum.c ****         return( MBEDTLS_ERR_MPI_BAD_INPUT_DATA );
 9436              		.loc 1 2163 15
 9437 004b B8FCFFFF 		movl	$-4, %eax
 9437      FF
 9438 0050 E9010700 		jmp	.L702
 9438      00
 9439              	.L665:
2164:/home/xingli/share/1205tiny/network/dtls/mbedtls/mbedtls-2.16.2/library/bignum.c **** 
2165:/home/xingli/share/1205tiny/network/dtls/mbedtls/mbedtls-2.16.2/library/bignum.c ****     mbedtls_mpi_init( &TA ); mbedtls_mpi_init( &TU ); mbedtls_mpi_init( &U1 ); mbedtls_mpi_init( &U
 9440              		.loc 1 2165 5
 9441 0055 488D8500 		leaq	-256(%rbp), %rax
 9441      FFFFFF
 9442 005c 4889C7   		movq	%rax, %rdi
 9443 005f E8000000 		call	mbedtls_mpi_init
GAS LISTING /tmp/ccFaOvob.s 			page 243


 9443      00
 9444              		.loc 1 2165 30
 9445 0064 488D8520 		leaq	-224(%rbp), %rax
 9445      FFFFFF
 9446 006b 4889C7   		movq	%rax, %rdi
 9447 006e E8000000 		call	mbedtls_mpi_init
 9447      00
 9448              		.loc 1 2165 55
 9449 0073 488D8540 		leaq	-192(%rbp), %rax
 9449      FFFFFF
 9450 007a 4889C7   		movq	%rax, %rdi
 9451 007d E8000000 		call	mbedtls_mpi_init
 9451      00
 9452              		.loc 1 2165 80
 9453 0082 488D8560 		leaq	-160(%rbp), %rax
 9453      FFFFFF
 9454 0089 4889C7   		movq	%rax, %rdi
 9455 008c E8000000 		call	mbedtls_mpi_init
 9455      00
2166:/home/xingli/share/1205tiny/network/dtls/mbedtls/mbedtls-2.16.2/library/bignum.c ****     mbedtls_mpi_init( &G ); mbedtls_mpi_init( &TB ); mbedtls_mpi_init( &TV );
 9456              		.loc 1 2166 5
 9457 0091 488D85E0 		leaq	-288(%rbp), %rax
 9457      FEFFFF
 9458 0098 4889C7   		movq	%rax, %rdi
 9459 009b E8000000 		call	mbedtls_mpi_init
 9459      00
 9460              		.loc 1 2166 29
 9461 00a0 488D4580 		leaq	-128(%rbp), %rax
 9462 00a4 4889C7   		movq	%rax, %rdi
 9463 00a7 E8000000 		call	mbedtls_mpi_init
 9463      00
 9464              		.loc 1 2166 54
 9465 00ac 488D45A0 		leaq	-96(%rbp), %rax
 9466 00b0 4889C7   		movq	%rax, %rdi
 9467 00b3 E8000000 		call	mbedtls_mpi_init
 9467      00
2167:/home/xingli/share/1205tiny/network/dtls/mbedtls/mbedtls-2.16.2/library/bignum.c ****     mbedtls_mpi_init( &V1 ); mbedtls_mpi_init( &V2 );
 9468              		.loc 1 2167 5
 9469 00b8 488D45C0 		leaq	-64(%rbp), %rax
 9470 00bc 4889C7   		movq	%rax, %rdi
 9471 00bf E8000000 		call	mbedtls_mpi_init
 9471      00
 9472              		.loc 1 2167 30
 9473 00c4 488D45E0 		leaq	-32(%rbp), %rax
 9474 00c8 4889C7   		movq	%rax, %rdi
 9475 00cb E8000000 		call	mbedtls_mpi_init
 9475      00
2168:/home/xingli/share/1205tiny/network/dtls/mbedtls/mbedtls-2.16.2/library/bignum.c **** 
2169:/home/xingli/share/1205tiny/network/dtls/mbedtls/mbedtls-2.16.2/library/bignum.c ****     MBEDTLS_MPI_CHK( mbedtls_mpi_gcd( &G, A, N ) );
 9476              		.loc 1 2169 5
 9477 00d0 488B95B8 		movq	-328(%rbp), %rdx
 9477      FEFFFF
 9478 00d7 488B8DC0 		movq	-320(%rbp), %rcx
 9478      FEFFFF
 9479 00de 488D85E0 		leaq	-288(%rbp), %rax
 9479      FEFFFF
 9480 00e5 4889CE   		movq	%rcx, %rsi
GAS LISTING /tmp/ccFaOvob.s 			page 244


 9481 00e8 4889C7   		movq	%rax, %rdi
 9482 00eb E8000000 		call	mbedtls_mpi_gcd
 9482      00
 9483 00f0 8985DCFE 		movl	%eax, -292(%rbp)
 9483      FFFF
 9484 00f6 83BDDCFE 		cmpl	$0, -292(%rbp)
 9484      FFFF00
 9485 00fd 0F858605 		jne	.L704
 9485      0000
2170:/home/xingli/share/1205tiny/network/dtls/mbedtls/mbedtls-2.16.2/library/bignum.c **** 
2171:/home/xingli/share/1205tiny/network/dtls/mbedtls/mbedtls-2.16.2/library/bignum.c ****     if( mbedtls_mpi_cmp_int( &G, 1 ) != 0 )
 9486              		.loc 1 2171 9
 9487 0103 488D85E0 		leaq	-288(%rbp), %rax
 9487      FEFFFF
 9488 010a BE010000 		movl	$1, %esi
 9488      00
 9489 010f 4889C7   		movq	%rax, %rdi
 9490 0112 E8000000 		call	mbedtls_mpi_cmp_int
 9490      00
 9491              		.loc 1 2171 7
 9492 0117 85C0     		testl	%eax, %eax
 9493 0119 740F     		je	.L669
2172:/home/xingli/share/1205tiny/network/dtls/mbedtls/mbedtls-2.16.2/library/bignum.c ****     {
2173:/home/xingli/share/1205tiny/network/dtls/mbedtls/mbedtls-2.16.2/library/bignum.c ****         ret = MBEDTLS_ERR_MPI_NOT_ACCEPTABLE;
 9494              		.loc 1 2173 13
 9495 011b C785DCFE 		movl	$-14, -292(%rbp)
 9495      FFFFF2FF 
 9495      FFFF
2174:/home/xingli/share/1205tiny/network/dtls/mbedtls/mbedtls-2.16.2/library/bignum.c ****         goto cleanup;
 9496              		.loc 1 2174 9
 9497 0125 E9AB0500 		jmp	.L668
 9497      00
 9498              	.L669:
2175:/home/xingli/share/1205tiny/network/dtls/mbedtls/mbedtls-2.16.2/library/bignum.c ****     }
2176:/home/xingli/share/1205tiny/network/dtls/mbedtls/mbedtls-2.16.2/library/bignum.c **** 
2177:/home/xingli/share/1205tiny/network/dtls/mbedtls/mbedtls-2.16.2/library/bignum.c ****     MBEDTLS_MPI_CHK( mbedtls_mpi_mod_mpi( &TA, A, N ) );
 9499              		.loc 1 2177 5
 9500 012a 488B95B8 		movq	-328(%rbp), %rdx
 9500      FEFFFF
 9501 0131 488B8DC0 		movq	-320(%rbp), %rcx
 9501      FEFFFF
 9502 0138 488D8500 		leaq	-256(%rbp), %rax
 9502      FFFFFF
 9503 013f 4889CE   		movq	%rcx, %rsi
 9504 0142 4889C7   		movq	%rax, %rdi
 9505 0145 E8000000 		call	mbedtls_mpi_mod_mpi
 9505      00
 9506 014a 8985DCFE 		movl	%eax, -292(%rbp)
 9506      FFFF
 9507 0150 83BDDCFE 		cmpl	$0, -292(%rbp)
 9507      FFFF00
 9508 0157 0F852F05 		jne	.L705
 9508      0000
2178:/home/xingli/share/1205tiny/network/dtls/mbedtls/mbedtls-2.16.2/library/bignum.c ****     MBEDTLS_MPI_CHK( mbedtls_mpi_copy( &TU, &TA ) );
 9509              		.loc 1 2178 5
 9510 015d 488D9500 		leaq	-256(%rbp), %rdx
 9510      FFFFFF
GAS LISTING /tmp/ccFaOvob.s 			page 245


 9511 0164 488D8520 		leaq	-224(%rbp), %rax
 9511      FFFFFF
 9512 016b 4889D6   		movq	%rdx, %rsi
 9513 016e 4889C7   		movq	%rax, %rdi
 9514 0171 E8000000 		call	mbedtls_mpi_copy
 9514      00
 9515 0176 8985DCFE 		movl	%eax, -292(%rbp)
 9515      FFFF
 9516 017c 83BDDCFE 		cmpl	$0, -292(%rbp)
 9516      FFFF00
 9517 0183 0F850605 		jne	.L706
 9517      0000
2179:/home/xingli/share/1205tiny/network/dtls/mbedtls/mbedtls-2.16.2/library/bignum.c ****     MBEDTLS_MPI_CHK( mbedtls_mpi_copy( &TB, N ) );
 9518              		.loc 1 2179 5
 9519 0189 488B95B8 		movq	-328(%rbp), %rdx
 9519      FEFFFF
 9520 0190 488D4580 		leaq	-128(%rbp), %rax
 9521 0194 4889D6   		movq	%rdx, %rsi
 9522 0197 4889C7   		movq	%rax, %rdi
 9523 019a E8000000 		call	mbedtls_mpi_copy
 9523      00
 9524 019f 8985DCFE 		movl	%eax, -292(%rbp)
 9524      FFFF
 9525 01a5 83BDDCFE 		cmpl	$0, -292(%rbp)
 9525      FFFF00
 9526 01ac 0F85E004 		jne	.L707
 9526      0000
2180:/home/xingli/share/1205tiny/network/dtls/mbedtls/mbedtls-2.16.2/library/bignum.c ****     MBEDTLS_MPI_CHK( mbedtls_mpi_copy( &TV, N ) );
 9527              		.loc 1 2180 5
 9528 01b2 488B95B8 		movq	-328(%rbp), %rdx
 9528      FEFFFF
 9529 01b9 488D45A0 		leaq	-96(%rbp), %rax
 9530 01bd 4889D6   		movq	%rdx, %rsi
 9531 01c0 4889C7   		movq	%rax, %rdi
 9532 01c3 E8000000 		call	mbedtls_mpi_copy
 9532      00
 9533 01c8 8985DCFE 		movl	%eax, -292(%rbp)
 9533      FFFF
 9534 01ce 83BDDCFE 		cmpl	$0, -292(%rbp)
 9534      FFFF00
 9535 01d5 0F85BA04 		jne	.L708
 9535      0000
2181:/home/xingli/share/1205tiny/network/dtls/mbedtls/mbedtls-2.16.2/library/bignum.c **** 
2182:/home/xingli/share/1205tiny/network/dtls/mbedtls/mbedtls-2.16.2/library/bignum.c ****     MBEDTLS_MPI_CHK( mbedtls_mpi_lset( &U1, 1 ) );
 9536              		.loc 1 2182 5
 9537 01db 488D8540 		leaq	-192(%rbp), %rax
 9537      FFFFFF
 9538 01e2 BE010000 		movl	$1, %esi
 9538      00
 9539 01e7 4889C7   		movq	%rax, %rdi
 9540 01ea E8000000 		call	mbedtls_mpi_lset
 9540      00
 9541 01ef 8985DCFE 		movl	%eax, -292(%rbp)
 9541      FFFF
 9542 01f5 83BDDCFE 		cmpl	$0, -292(%rbp)
 9542      FFFF00
 9543 01fc 0F859604 		jne	.L709
GAS LISTING /tmp/ccFaOvob.s 			page 246


 9543      0000
2183:/home/xingli/share/1205tiny/network/dtls/mbedtls/mbedtls-2.16.2/library/bignum.c ****     MBEDTLS_MPI_CHK( mbedtls_mpi_lset( &U2, 0 ) );
 9544              		.loc 1 2183 5
 9545 0202 488D8560 		leaq	-160(%rbp), %rax
 9545      FFFFFF
 9546 0209 BE000000 		movl	$0, %esi
 9546      00
 9547 020e 4889C7   		movq	%rax, %rdi
 9548 0211 E8000000 		call	mbedtls_mpi_lset
 9548      00
 9549 0216 8985DCFE 		movl	%eax, -292(%rbp)
 9549      FFFF
 9550 021c 83BDDCFE 		cmpl	$0, -292(%rbp)
 9550      FFFF00
 9551 0223 0F857204 		jne	.L710
 9551      0000
2184:/home/xingli/share/1205tiny/network/dtls/mbedtls/mbedtls-2.16.2/library/bignum.c ****     MBEDTLS_MPI_CHK( mbedtls_mpi_lset( &V1, 0 ) );
 9552              		.loc 1 2184 5
 9553 0229 488D45C0 		leaq	-64(%rbp), %rax
 9554 022d BE000000 		movl	$0, %esi
 9554      00
 9555 0232 4889C7   		movq	%rax, %rdi
 9556 0235 E8000000 		call	mbedtls_mpi_lset
 9556      00
 9557 023a 8985DCFE 		movl	%eax, -292(%rbp)
 9557      FFFF
 9558 0240 83BDDCFE 		cmpl	$0, -292(%rbp)
 9558      FFFF00
 9559 0247 0F855104 		jne	.L711
 9559      0000
2185:/home/xingli/share/1205tiny/network/dtls/mbedtls/mbedtls-2.16.2/library/bignum.c ****     MBEDTLS_MPI_CHK( mbedtls_mpi_lset( &V2, 1 ) );
 9560              		.loc 1 2185 5
 9561 024d 488D45E0 		leaq	-32(%rbp), %rax
 9562 0251 BE010000 		movl	$1, %esi
 9562      00
 9563 0256 4889C7   		movq	%rax, %rdi
 9564 0259 E8000000 		call	mbedtls_mpi_lset
 9564      00
 9565 025e 8985DCFE 		movl	%eax, -292(%rbp)
 9565      FFFF
 9566 0264 83BDDCFE 		cmpl	$0, -292(%rbp)
 9566      FFFF00
 9567 026b 0F853004 		jne	.L712
 9567      0000
2186:/home/xingli/share/1205tiny/network/dtls/mbedtls/mbedtls-2.16.2/library/bignum.c **** 
2187:/home/xingli/share/1205tiny/network/dtls/mbedtls/mbedtls-2.16.2/library/bignum.c ****     do
2188:/home/xingli/share/1205tiny/network/dtls/mbedtls/mbedtls-2.16.2/library/bignum.c ****     {
2189:/home/xingli/share/1205tiny/network/dtls/mbedtls/mbedtls-2.16.2/library/bignum.c ****         while( ( TU.p[0] & 1 ) == 0 )
 9568              		.loc 1 2189 14
 9569 0271 E9FC0000 		jmp	.L678
 9569      00
 9570              	.L684:
2190:/home/xingli/share/1205tiny/network/dtls/mbedtls/mbedtls-2.16.2/library/bignum.c ****         {
2191:/home/xingli/share/1205tiny/network/dtls/mbedtls/mbedtls-2.16.2/library/bignum.c ****             MBEDTLS_MPI_CHK( mbedtls_mpi_shift_r( &TU, 1 ) );
 9571              		.loc 1 2191 13
 9572 0276 488D8520 		leaq	-224(%rbp), %rax
 9572      FFFFFF
GAS LISTING /tmp/ccFaOvob.s 			page 247


 9573 027d BE010000 		movl	$1, %esi
 9573      00
 9574 0282 4889C7   		movq	%rax, %rdi
 9575 0285 E8000000 		call	mbedtls_mpi_shift_r
 9575      00
 9576 028a 8985DCFE 		movl	%eax, -292(%rbp)
 9576      FFFF
 9577 0290 83BDDCFE 		cmpl	$0, -292(%rbp)
 9577      FFFF00
 9578 0297 0F850704 		jne	.L713
 9578      0000
2192:/home/xingli/share/1205tiny/network/dtls/mbedtls/mbedtls-2.16.2/library/bignum.c **** 
2193:/home/xingli/share/1205tiny/network/dtls/mbedtls/mbedtls-2.16.2/library/bignum.c ****             if( ( U1.p[0] & 1 ) != 0 || ( U2.p[0] & 1 ) != 0 )
 9579              		.loc 1 2193 21
 9580 029d 488B8550 		movq	-176(%rbp), %rax
 9580      FFFFFF
 9581              		.loc 1 2193 23
 9582 02a4 488B00   		movq	(%rax), %rax
 9583              		.loc 1 2193 27
 9584 02a7 83E001   		andl	$1, %eax
 9585              		.loc 1 2193 15
 9586 02aa 4885C0   		testq	%rax, %rax
 9587 02ad 7512     		jne	.L680
 9588              		.loc 1 2193 45 discriminator 1
 9589 02af 488B8570 		movq	-144(%rbp), %rax
 9589      FFFFFF
 9590              		.loc 1 2193 47 discriminator 1
 9591 02b6 488B00   		movq	(%rax), %rax
 9592              		.loc 1 2193 51 discriminator 1
 9593 02b9 83E001   		andl	$1, %eax
 9594              		.loc 1 2193 38 discriminator 1
 9595 02bc 4885C0   		testq	%rax, %rax
 9596 02bf 7463     		je	.L681
 9597              	.L680:
2194:/home/xingli/share/1205tiny/network/dtls/mbedtls/mbedtls-2.16.2/library/bignum.c ****             {
2195:/home/xingli/share/1205tiny/network/dtls/mbedtls/mbedtls-2.16.2/library/bignum.c ****                 MBEDTLS_MPI_CHK( mbedtls_mpi_add_mpi( &U1, &U1, &TB ) );
 9598              		.loc 1 2195 17
 9599 02c1 488D5580 		leaq	-128(%rbp), %rdx
 9600 02c5 488D8D40 		leaq	-192(%rbp), %rcx
 9600      FFFFFF
 9601 02cc 488D8540 		leaq	-192(%rbp), %rax
 9601      FFFFFF
 9602 02d3 4889CE   		movq	%rcx, %rsi
 9603 02d6 4889C7   		movq	%rax, %rdi
 9604 02d9 E8000000 		call	mbedtls_mpi_add_mpi
 9604      00
 9605 02de 8985DCFE 		movl	%eax, -292(%rbp)
 9605      FFFF
 9606 02e4 83BDDCFE 		cmpl	$0, -292(%rbp)
 9606      FFFF00
 9607 02eb 0F85B603 		jne	.L714
 9607      0000
2196:/home/xingli/share/1205tiny/network/dtls/mbedtls/mbedtls-2.16.2/library/bignum.c ****                 MBEDTLS_MPI_CHK( mbedtls_mpi_sub_mpi( &U2, &U2, &TA ) );
 9608              		.loc 1 2196 17
 9609 02f1 488D9500 		leaq	-256(%rbp), %rdx
 9609      FFFFFF
 9610 02f8 488D8D60 		leaq	-160(%rbp), %rcx
GAS LISTING /tmp/ccFaOvob.s 			page 248


 9610      FFFFFF
 9611 02ff 488D8560 		leaq	-160(%rbp), %rax
 9611      FFFFFF
 9612 0306 4889CE   		movq	%rcx, %rsi
 9613 0309 4889C7   		movq	%rax, %rdi
 9614 030c E8000000 		call	mbedtls_mpi_sub_mpi
 9614      00
 9615 0311 8985DCFE 		movl	%eax, -292(%rbp)
 9615      FFFF
 9616 0317 83BDDCFE 		cmpl	$0, -292(%rbp)
 9616      FFFF00
 9617 031e 0F858603 		jne	.L715
 9617      0000
 9618              	.L681:
2197:/home/xingli/share/1205tiny/network/dtls/mbedtls/mbedtls-2.16.2/library/bignum.c ****             }
2198:/home/xingli/share/1205tiny/network/dtls/mbedtls/mbedtls-2.16.2/library/bignum.c **** 
2199:/home/xingli/share/1205tiny/network/dtls/mbedtls/mbedtls-2.16.2/library/bignum.c ****             MBEDTLS_MPI_CHK( mbedtls_mpi_shift_r( &U1, 1 ) );
 9619              		.loc 1 2199 13
 9620 0324 488D8540 		leaq	-192(%rbp), %rax
 9620      FFFFFF
 9621 032b BE010000 		movl	$1, %esi
 9621      00
 9622 0330 4889C7   		movq	%rax, %rdi
 9623 0333 E8000000 		call	mbedtls_mpi_shift_r
 9623      00
 9624 0338 8985DCFE 		movl	%eax, -292(%rbp)
 9624      FFFF
 9625 033e 83BDDCFE 		cmpl	$0, -292(%rbp)
 9625      FFFF00
 9626 0345 0F856203 		jne	.L716
 9626      0000
2200:/home/xingli/share/1205tiny/network/dtls/mbedtls/mbedtls-2.16.2/library/bignum.c ****             MBEDTLS_MPI_CHK( mbedtls_mpi_shift_r( &U2, 1 ) );
 9627              		.loc 1 2200 13
 9628 034b 488D8560 		leaq	-160(%rbp), %rax
 9628      FFFFFF
 9629 0352 BE010000 		movl	$1, %esi
 9629      00
 9630 0357 4889C7   		movq	%rax, %rdi
 9631 035a E8000000 		call	mbedtls_mpi_shift_r
 9631      00
 9632 035f 8985DCFE 		movl	%eax, -292(%rbp)
 9632      FFFF
 9633 0365 83BDDCFE 		cmpl	$0, -292(%rbp)
 9633      FFFF00
 9634 036c 0F853E03 		jne	.L717
 9634      0000
 9635              	.L678:
2189:/home/xingli/share/1205tiny/network/dtls/mbedtls/mbedtls-2.16.2/library/bignum.c ****         {
 9636              		.loc 1 2189 20
 9637 0372 488B8530 		movq	-208(%rbp), %rax
 9637      FFFFFF
2189:/home/xingli/share/1205tiny/network/dtls/mbedtls/mbedtls-2.16.2/library/bignum.c ****         {
 9638              		.loc 1 2189 22
 9639 0379 488B00   		movq	(%rax), %rax
2189:/home/xingli/share/1205tiny/network/dtls/mbedtls/mbedtls-2.16.2/library/bignum.c ****         {
 9640              		.loc 1 2189 26
 9641 037c 83E001   		andl	$1, %eax
GAS LISTING /tmp/ccFaOvob.s 			page 249


2189:/home/xingli/share/1205tiny/network/dtls/mbedtls/mbedtls-2.16.2/library/bignum.c ****         {
 9642              		.loc 1 2189 14
 9643 037f 4885C0   		testq	%rax, %rax
 9644 0382 0F84EEFE 		je	.L684
 9644      FFFF
2201:/home/xingli/share/1205tiny/network/dtls/mbedtls/mbedtls-2.16.2/library/bignum.c ****         }
2202:/home/xingli/share/1205tiny/network/dtls/mbedtls/mbedtls-2.16.2/library/bignum.c **** 
2203:/home/xingli/share/1205tiny/network/dtls/mbedtls/mbedtls-2.16.2/library/bignum.c ****         while( ( TV.p[0] & 1 ) == 0 )
 9645              		.loc 1 2203 14
 9646 0388 E9E10000 		jmp	.L685
 9646      00
 9647              	.L691:
2204:/home/xingli/share/1205tiny/network/dtls/mbedtls/mbedtls-2.16.2/library/bignum.c ****         {
2205:/home/xingli/share/1205tiny/network/dtls/mbedtls/mbedtls-2.16.2/library/bignum.c ****             MBEDTLS_MPI_CHK( mbedtls_mpi_shift_r( &TV, 1 ) );
 9648              		.loc 1 2205 13
 9649 038d 488D45A0 		leaq	-96(%rbp), %rax
 9650 0391 BE010000 		movl	$1, %esi
 9650      00
 9651 0396 4889C7   		movq	%rax, %rdi
 9652 0399 E8000000 		call	mbedtls_mpi_shift_r
 9652      00
 9653 039e 8985DCFE 		movl	%eax, -292(%rbp)
 9653      FFFF
 9654 03a4 83BDDCFE 		cmpl	$0, -292(%rbp)
 9654      FFFF00
 9655 03ab 0F850203 		jne	.L718
 9655      0000
2206:/home/xingli/share/1205tiny/network/dtls/mbedtls/mbedtls-2.16.2/library/bignum.c **** 
2207:/home/xingli/share/1205tiny/network/dtls/mbedtls/mbedtls-2.16.2/library/bignum.c ****             if( ( V1.p[0] & 1 ) != 0 || ( V2.p[0] & 1 ) != 0 )
 9656              		.loc 1 2207 21
 9657 03b1 488B45D0 		movq	-48(%rbp), %rax
 9658              		.loc 1 2207 23
 9659 03b5 488B00   		movq	(%rax), %rax
 9660              		.loc 1 2207 27
 9661 03b8 83E001   		andl	$1, %eax
 9662              		.loc 1 2207 15
 9663 03bb 4885C0   		testq	%rax, %rax
 9664 03be 750F     		jne	.L687
 9665              		.loc 1 2207 45 discriminator 1
 9666 03c0 488B45F0 		movq	-16(%rbp), %rax
 9667              		.loc 1 2207 47 discriminator 1
 9668 03c4 488B00   		movq	(%rax), %rax
 9669              		.loc 1 2207 51 discriminator 1
 9670 03c7 83E001   		andl	$1, %eax
 9671              		.loc 1 2207 38 discriminator 1
 9672 03ca 4885C0   		testq	%rax, %rax
 9673 03cd 7457     		je	.L688
 9674              	.L687:
2208:/home/xingli/share/1205tiny/network/dtls/mbedtls/mbedtls-2.16.2/library/bignum.c ****             {
2209:/home/xingli/share/1205tiny/network/dtls/mbedtls/mbedtls-2.16.2/library/bignum.c ****                 MBEDTLS_MPI_CHK( mbedtls_mpi_add_mpi( &V1, &V1, &TB ) );
 9675              		.loc 1 2209 17
 9676 03cf 488D5580 		leaq	-128(%rbp), %rdx
 9677 03d3 488D4DC0 		leaq	-64(%rbp), %rcx
 9678 03d7 488D45C0 		leaq	-64(%rbp), %rax
 9679 03db 4889CE   		movq	%rcx, %rsi
 9680 03de 4889C7   		movq	%rax, %rdi
 9681 03e1 E8000000 		call	mbedtls_mpi_add_mpi
GAS LISTING /tmp/ccFaOvob.s 			page 250


 9681      00
 9682 03e6 8985DCFE 		movl	%eax, -292(%rbp)
 9682      FFFF
 9683 03ec 83BDDCFE 		cmpl	$0, -292(%rbp)
 9683      FFFF00
 9684 03f3 0F85BD02 		jne	.L719
 9684      0000
2210:/home/xingli/share/1205tiny/network/dtls/mbedtls/mbedtls-2.16.2/library/bignum.c ****                 MBEDTLS_MPI_CHK( mbedtls_mpi_sub_mpi( &V2, &V2, &TA ) );
 9685              		.loc 1 2210 17
 9686 03f9 488D9500 		leaq	-256(%rbp), %rdx
 9686      FFFFFF
 9687 0400 488D4DE0 		leaq	-32(%rbp), %rcx
 9688 0404 488D45E0 		leaq	-32(%rbp), %rax
 9689 0408 4889CE   		movq	%rcx, %rsi
 9690 040b 4889C7   		movq	%rax, %rdi
 9691 040e E8000000 		call	mbedtls_mpi_sub_mpi
 9691      00
 9692 0413 8985DCFE 		movl	%eax, -292(%rbp)
 9692      FFFF
 9693 0419 83BDDCFE 		cmpl	$0, -292(%rbp)
 9693      FFFF00
 9694 0420 0F859302 		jne	.L720
 9694      0000
 9695              	.L688:
2211:/home/xingli/share/1205tiny/network/dtls/mbedtls/mbedtls-2.16.2/library/bignum.c ****             }
2212:/home/xingli/share/1205tiny/network/dtls/mbedtls/mbedtls-2.16.2/library/bignum.c **** 
2213:/home/xingli/share/1205tiny/network/dtls/mbedtls/mbedtls-2.16.2/library/bignum.c ****             MBEDTLS_MPI_CHK( mbedtls_mpi_shift_r( &V1, 1 ) );
 9696              		.loc 1 2213 13
 9697 0426 488D45C0 		leaq	-64(%rbp), %rax
 9698 042a BE010000 		movl	$1, %esi
 9698      00
 9699 042f 4889C7   		movq	%rax, %rdi
 9700 0432 E8000000 		call	mbedtls_mpi_shift_r
 9700      00
 9701 0437 8985DCFE 		movl	%eax, -292(%rbp)
 9701      FFFF
 9702 043d 83BDDCFE 		cmpl	$0, -292(%rbp)
 9702      FFFF00
 9703 0444 0F857202 		jne	.L721
 9703      0000
2214:/home/xingli/share/1205tiny/network/dtls/mbedtls/mbedtls-2.16.2/library/bignum.c ****             MBEDTLS_MPI_CHK( mbedtls_mpi_shift_r( &V2, 1 ) );
 9704              		.loc 1 2214 13
 9705 044a 488D45E0 		leaq	-32(%rbp), %rax
 9706 044e BE010000 		movl	$1, %esi
 9706      00
 9707 0453 4889C7   		movq	%rax, %rdi
 9708 0456 E8000000 		call	mbedtls_mpi_shift_r
 9708      00
 9709 045b 8985DCFE 		movl	%eax, -292(%rbp)
 9709      FFFF
 9710 0461 83BDDCFE 		cmpl	$0, -292(%rbp)
 9710      FFFF00
 9711 0468 0F855102 		jne	.L722
 9711      0000
 9712              	.L685:
2203:/home/xingli/share/1205tiny/network/dtls/mbedtls/mbedtls-2.16.2/library/bignum.c ****         {
 9713              		.loc 1 2203 20
GAS LISTING /tmp/ccFaOvob.s 			page 251


 9714 046e 488B45B0 		movq	-80(%rbp), %rax
2203:/home/xingli/share/1205tiny/network/dtls/mbedtls/mbedtls-2.16.2/library/bignum.c ****         {
 9715              		.loc 1 2203 22
 9716 0472 488B00   		movq	(%rax), %rax
2203:/home/xingli/share/1205tiny/network/dtls/mbedtls/mbedtls-2.16.2/library/bignum.c ****         {
 9717              		.loc 1 2203 26
 9718 0475 83E001   		andl	$1, %eax
2203:/home/xingli/share/1205tiny/network/dtls/mbedtls/mbedtls-2.16.2/library/bignum.c ****         {
 9719              		.loc 1 2203 14
 9720 0478 4885C0   		testq	%rax, %rax
 9721 047b 0F840CFF 		je	.L691
 9721      FFFF
2215:/home/xingli/share/1205tiny/network/dtls/mbedtls/mbedtls-2.16.2/library/bignum.c ****         }
2216:/home/xingli/share/1205tiny/network/dtls/mbedtls/mbedtls-2.16.2/library/bignum.c **** 
2217:/home/xingli/share/1205tiny/network/dtls/mbedtls/mbedtls-2.16.2/library/bignum.c ****         if( mbedtls_mpi_cmp_mpi( &TU, &TV ) >= 0 )
 9722              		.loc 1 2217 13
 9723 0481 488D55A0 		leaq	-96(%rbp), %rdx
 9724 0485 488D8520 		leaq	-224(%rbp), %rax
 9724      FFFFFF
 9725 048c 4889D6   		movq	%rdx, %rsi
 9726 048f 4889C7   		movq	%rax, %rdi
 9727 0492 E8000000 		call	mbedtls_mpi_cmp_mpi
 9727      00
 9728              		.loc 1 2217 11
 9729 0497 85C0     		testl	%eax, %eax
 9730 0499 0F889500 		js	.L692
 9730      0000
2218:/home/xingli/share/1205tiny/network/dtls/mbedtls/mbedtls-2.16.2/library/bignum.c ****         {
2219:/home/xingli/share/1205tiny/network/dtls/mbedtls/mbedtls-2.16.2/library/bignum.c ****             MBEDTLS_MPI_CHK( mbedtls_mpi_sub_mpi( &TU, &TU, &TV ) );
 9731              		.loc 1 2219 13
 9732 049f 488D55A0 		leaq	-96(%rbp), %rdx
 9733 04a3 488D8D20 		leaq	-224(%rbp), %rcx
 9733      FFFFFF
 9734 04aa 488D8520 		leaq	-224(%rbp), %rax
 9734      FFFFFF
 9735 04b1 4889CE   		movq	%rcx, %rsi
 9736 04b4 4889C7   		movq	%rax, %rdi
 9737 04b7 E8000000 		call	mbedtls_mpi_sub_mpi
 9737      00
 9738 04bc 8985DCFE 		movl	%eax, -292(%rbp)
 9738      FFFF
 9739 04c2 83BDDCFE 		cmpl	$0, -292(%rbp)
 9739      FFFF00
 9740 04c9 0F85F301 		jne	.L723
 9740      0000
2220:/home/xingli/share/1205tiny/network/dtls/mbedtls/mbedtls-2.16.2/library/bignum.c ****             MBEDTLS_MPI_CHK( mbedtls_mpi_sub_mpi( &U1, &U1, &V1 ) );
 9741              		.loc 1 2220 13
 9742 04cf 488D55C0 		leaq	-64(%rbp), %rdx
 9743 04d3 488D8D40 		leaq	-192(%rbp), %rcx
 9743      FFFFFF
 9744 04da 488D8540 		leaq	-192(%rbp), %rax
 9744      FFFFFF
 9745 04e1 4889CE   		movq	%rcx, %rsi
 9746 04e4 4889C7   		movq	%rax, %rdi
 9747 04e7 E8000000 		call	mbedtls_mpi_sub_mpi
 9747      00
 9748 04ec 8985DCFE 		movl	%eax, -292(%rbp)
GAS LISTING /tmp/ccFaOvob.s 			page 252


 9748      FFFF
 9749 04f2 83BDDCFE 		cmpl	$0, -292(%rbp)
 9749      FFFF00
 9750 04f9 0F85C601 		jne	.L724
 9750      0000
2221:/home/xingli/share/1205tiny/network/dtls/mbedtls/mbedtls-2.16.2/library/bignum.c ****             MBEDTLS_MPI_CHK( mbedtls_mpi_sub_mpi( &U2, &U2, &V2 ) );
 9751              		.loc 1 2221 13
 9752 04ff 488D55E0 		leaq	-32(%rbp), %rdx
 9753 0503 488D8D60 		leaq	-160(%rbp), %rcx
 9753      FFFFFF
 9754 050a 488D8560 		leaq	-160(%rbp), %rax
 9754      FFFFFF
 9755 0511 4889CE   		movq	%rcx, %rsi
 9756 0514 4889C7   		movq	%rax, %rdi
 9757 0517 E8000000 		call	mbedtls_mpi_sub_mpi
 9757      00
 9758 051c 8985DCFE 		movl	%eax, -292(%rbp)
 9758      FFFF
 9759 0522 83BDDCFE 		cmpl	$0, -292(%rbp)
 9759      FFFF00
 9760 0529 0F848C00 		je	.L695
 9760      0000
 9761 052f E9A10100 		jmp	.L668
 9761      00
 9762              	.L692:
2222:/home/xingli/share/1205tiny/network/dtls/mbedtls/mbedtls-2.16.2/library/bignum.c ****         }
2223:/home/xingli/share/1205tiny/network/dtls/mbedtls/mbedtls-2.16.2/library/bignum.c ****         else
2224:/home/xingli/share/1205tiny/network/dtls/mbedtls/mbedtls-2.16.2/library/bignum.c ****         {
2225:/home/xingli/share/1205tiny/network/dtls/mbedtls/mbedtls-2.16.2/library/bignum.c ****             MBEDTLS_MPI_CHK( mbedtls_mpi_sub_mpi( &TV, &TV, &TU ) );
 9763              		.loc 1 2225 13
 9764 0534 488D9520 		leaq	-224(%rbp), %rdx
 9764      FFFFFF
 9765 053b 488D4DA0 		leaq	-96(%rbp), %rcx
 9766 053f 488D45A0 		leaq	-96(%rbp), %rax
 9767 0543 4889CE   		movq	%rcx, %rsi
 9768 0546 4889C7   		movq	%rax, %rdi
 9769 0549 E8000000 		call	mbedtls_mpi_sub_mpi
 9769      00
 9770 054e 8985DCFE 		movl	%eax, -292(%rbp)
 9770      FFFF
 9771 0554 83BDDCFE 		cmpl	$0, -292(%rbp)
 9771      FFFF00
 9772 055b 0F856701 		jne	.L725
 9772      0000
2226:/home/xingli/share/1205tiny/network/dtls/mbedtls/mbedtls-2.16.2/library/bignum.c ****             MBEDTLS_MPI_CHK( mbedtls_mpi_sub_mpi( &V1, &V1, &U1 ) );
 9773              		.loc 1 2226 13
 9774 0561 488D9540 		leaq	-192(%rbp), %rdx
 9774      FFFFFF
 9775 0568 488D4DC0 		leaq	-64(%rbp), %rcx
 9776 056c 488D45C0 		leaq	-64(%rbp), %rax
 9777 0570 4889CE   		movq	%rcx, %rsi
 9778 0573 4889C7   		movq	%rax, %rdi
 9779 0576 E8000000 		call	mbedtls_mpi_sub_mpi
 9779      00
 9780 057b 8985DCFE 		movl	%eax, -292(%rbp)
 9780      FFFF
 9781 0581 83BDDCFE 		cmpl	$0, -292(%rbp)
GAS LISTING /tmp/ccFaOvob.s 			page 253


 9781      FFFF00
 9782 0588 0F853D01 		jne	.L726
 9782      0000
2227:/home/xingli/share/1205tiny/network/dtls/mbedtls/mbedtls-2.16.2/library/bignum.c ****             MBEDTLS_MPI_CHK( mbedtls_mpi_sub_mpi( &V2, &V2, &U2 ) );
 9783              		.loc 1 2227 13
 9784 058e 488D9560 		leaq	-160(%rbp), %rdx
 9784      FFFFFF
 9785 0595 488D4DE0 		leaq	-32(%rbp), %rcx
 9786 0599 488D45E0 		leaq	-32(%rbp), %rax
 9787 059d 4889CE   		movq	%rcx, %rsi
 9788 05a0 4889C7   		movq	%rax, %rdi
 9789 05a3 E8000000 		call	mbedtls_mpi_sub_mpi
 9789      00
 9790 05a8 8985DCFE 		movl	%eax, -292(%rbp)
 9790      FFFF
 9791 05ae 83BDDCFE 		cmpl	$0, -292(%rbp)
 9791      FFFF00
 9792 05b5 0F851301 		jne	.L727
 9792      0000
 9793              	.L695:
2228:/home/xingli/share/1205tiny/network/dtls/mbedtls/mbedtls-2.16.2/library/bignum.c ****         }
2229:/home/xingli/share/1205tiny/network/dtls/mbedtls/mbedtls-2.16.2/library/bignum.c ****     }
2230:/home/xingli/share/1205tiny/network/dtls/mbedtls/mbedtls-2.16.2/library/bignum.c ****     while( mbedtls_mpi_cmp_int( &TU, 0 ) != 0 );
 9794              		.loc 1 2230 12
 9795 05bb 488D8520 		leaq	-224(%rbp), %rax
 9795      FFFFFF
 9796 05c2 BE000000 		movl	$0, %esi
 9796      00
 9797 05c7 4889C7   		movq	%rax, %rdi
 9798 05ca E8000000 		call	mbedtls_mpi_cmp_int
 9798      00
 9799              		.loc 1 2230 5
 9800 05cf 85C0     		testl	%eax, %eax
 9801 05d1 0F859BFD 		jne	.L678
 9801      FFFF
2231:/home/xingli/share/1205tiny/network/dtls/mbedtls/mbedtls-2.16.2/library/bignum.c **** 
2232:/home/xingli/share/1205tiny/network/dtls/mbedtls/mbedtls-2.16.2/library/bignum.c ****     while( mbedtls_mpi_cmp_int( &V1, 0 ) < 0 )
 9802              		.loc 1 2232 10
 9803 05d7 EB2D     		jmp	.L698
 9804              	.L699:
2233:/home/xingli/share/1205tiny/network/dtls/mbedtls/mbedtls-2.16.2/library/bignum.c ****         MBEDTLS_MPI_CHK( mbedtls_mpi_add_mpi( &V1, &V1, N ) );
 9805              		.loc 1 2233 9
 9806 05d9 488B95B8 		movq	-328(%rbp), %rdx
 9806      FEFFFF
 9807 05e0 488D4DC0 		leaq	-64(%rbp), %rcx
 9808 05e4 488D45C0 		leaq	-64(%rbp), %rax
 9809 05e8 4889CE   		movq	%rcx, %rsi
 9810 05eb 4889C7   		movq	%rax, %rdi
 9811 05ee E8000000 		call	mbedtls_mpi_add_mpi
 9811      00
 9812 05f3 8985DCFE 		movl	%eax, -292(%rbp)
 9812      FFFF
 9813 05f9 83BDDCFE 		cmpl	$0, -292(%rbp)
 9813      FFFF00
 9814 0600 0F85CB00 		jne	.L728
 9814      0000
 9815              	.L698:
GAS LISTING /tmp/ccFaOvob.s 			page 254


2232:/home/xingli/share/1205tiny/network/dtls/mbedtls/mbedtls-2.16.2/library/bignum.c ****         MBEDTLS_MPI_CHK( mbedtls_mpi_add_mpi( &V1, &V1, N ) );
 9816              		.loc 1 2232 12
 9817 0606 488D45C0 		leaq	-64(%rbp), %rax
 9818 060a BE000000 		movl	$0, %esi
 9818      00
 9819 060f 4889C7   		movq	%rax, %rdi
 9820 0612 E8000000 		call	mbedtls_mpi_cmp_int
 9820      00
2232:/home/xingli/share/1205tiny/network/dtls/mbedtls/mbedtls-2.16.2/library/bignum.c ****         MBEDTLS_MPI_CHK( mbedtls_mpi_add_mpi( &V1, &V1, N ) );
 9821              		.loc 1 2232 10
 9822 0617 85C0     		testl	%eax, %eax
 9823 0619 78BE     		js	.L699
2234:/home/xingli/share/1205tiny/network/dtls/mbedtls/mbedtls-2.16.2/library/bignum.c **** 
2235:/home/xingli/share/1205tiny/network/dtls/mbedtls/mbedtls-2.16.2/library/bignum.c ****     while( mbedtls_mpi_cmp_mpi( &V1, N ) >= 0 )
 9824              		.loc 1 2235 10
 9825 061b EB2D     		jmp	.L700
 9826              	.L701:
2236:/home/xingli/share/1205tiny/network/dtls/mbedtls/mbedtls-2.16.2/library/bignum.c ****         MBEDTLS_MPI_CHK( mbedtls_mpi_sub_mpi( &V1, &V1, N ) );
 9827              		.loc 1 2236 9
 9828 061d 488B95B8 		movq	-328(%rbp), %rdx
 9828      FEFFFF
 9829 0624 488D4DC0 		leaq	-64(%rbp), %rcx
 9830 0628 488D45C0 		leaq	-64(%rbp), %rax
 9831 062c 4889CE   		movq	%rcx, %rsi
 9832 062f 4889C7   		movq	%rax, %rdi
 9833 0632 E8000000 		call	mbedtls_mpi_sub_mpi
 9833      00
 9834 0637 8985DCFE 		movl	%eax, -292(%rbp)
 9834      FFFF
 9835 063d 83BDDCFE 		cmpl	$0, -292(%rbp)
 9835      FFFF00
 9836 0644 0F858A00 		jne	.L729
 9836      0000
 9837              	.L700:
2235:/home/xingli/share/1205tiny/network/dtls/mbedtls/mbedtls-2.16.2/library/bignum.c ****         MBEDTLS_MPI_CHK( mbedtls_mpi_sub_mpi( &V1, &V1, N ) );
 9838              		.loc 1 2235 12
 9839 064a 488B95B8 		movq	-328(%rbp), %rdx
 9839      FEFFFF
 9840 0651 488D45C0 		leaq	-64(%rbp), %rax
 9841 0655 4889D6   		movq	%rdx, %rsi
 9842 0658 4889C7   		movq	%rax, %rdi
 9843 065b E8000000 		call	mbedtls_mpi_cmp_mpi
 9843      00
2235:/home/xingli/share/1205tiny/network/dtls/mbedtls/mbedtls-2.16.2/library/bignum.c ****         MBEDTLS_MPI_CHK( mbedtls_mpi_sub_mpi( &V1, &V1, N ) );
 9844              		.loc 1 2235 10
 9845 0660 85C0     		testl	%eax, %eax
 9846 0662 79B9     		jns	.L701
2237:/home/xingli/share/1205tiny/network/dtls/mbedtls/mbedtls-2.16.2/library/bignum.c **** 
2238:/home/xingli/share/1205tiny/network/dtls/mbedtls/mbedtls-2.16.2/library/bignum.c ****     MBEDTLS_MPI_CHK( mbedtls_mpi_copy( X, &V1 ) );
 9847              		.loc 1 2238 5
 9848 0664 488D55C0 		leaq	-64(%rbp), %rdx
 9849 0668 488B85C8 		movq	-312(%rbp), %rax
 9849      FEFFFF
 9850 066f 4889D6   		movq	%rdx, %rsi
 9851 0672 4889C7   		movq	%rax, %rdi
 9852 0675 E8000000 		call	mbedtls_mpi_copy
 9852      00
GAS LISTING /tmp/ccFaOvob.s 			page 255


 9853 067a 8985DCFE 		movl	%eax, -292(%rbp)
 9853      FFFF
 9854 0680 83BDDCFE 		cmpl	$0, -292(%rbp)
 9854      FFFF00
2239:/home/xingli/share/1205tiny/network/dtls/mbedtls/mbedtls-2.16.2/library/bignum.c **** 
2240:/home/xingli/share/1205tiny/network/dtls/mbedtls/mbedtls-2.16.2/library/bignum.c **** cleanup:
 9855              		.loc 1 2240 1
 9856 0687 EB4C     		jmp	.L668
 9857              	.L704:
2169:/home/xingli/share/1205tiny/network/dtls/mbedtls/mbedtls-2.16.2/library/bignum.c **** 
 9858              		.loc 1 2169 5
 9859 0689 90       		nop
 9860 068a EB49     		jmp	.L668
 9861              	.L705:
2177:/home/xingli/share/1205tiny/network/dtls/mbedtls/mbedtls-2.16.2/library/bignum.c ****     MBEDTLS_MPI_CHK( mbedtls_mpi_copy( &TU, &TA ) );
 9862              		.loc 1 2177 5
 9863 068c 90       		nop
 9864 068d EB46     		jmp	.L668
 9865              	.L706:
2178:/home/xingli/share/1205tiny/network/dtls/mbedtls/mbedtls-2.16.2/library/bignum.c ****     MBEDTLS_MPI_CHK( mbedtls_mpi_copy( &TB, N ) );
 9866              		.loc 1 2178 5
 9867 068f 90       		nop
 9868 0690 EB43     		jmp	.L668
 9869              	.L707:
2179:/home/xingli/share/1205tiny/network/dtls/mbedtls/mbedtls-2.16.2/library/bignum.c ****     MBEDTLS_MPI_CHK( mbedtls_mpi_copy( &TV, N ) );
 9870              		.loc 1 2179 5
 9871 0692 90       		nop
 9872 0693 EB40     		jmp	.L668
 9873              	.L708:
2180:/home/xingli/share/1205tiny/network/dtls/mbedtls/mbedtls-2.16.2/library/bignum.c **** 
 9874              		.loc 1 2180 5
 9875 0695 90       		nop
 9876 0696 EB3D     		jmp	.L668
 9877              	.L709:
2182:/home/xingli/share/1205tiny/network/dtls/mbedtls/mbedtls-2.16.2/library/bignum.c ****     MBEDTLS_MPI_CHK( mbedtls_mpi_lset( &U2, 0 ) );
 9878              		.loc 1 2182 5
 9879 0698 90       		nop
 9880 0699 EB3A     		jmp	.L668
 9881              	.L710:
2183:/home/xingli/share/1205tiny/network/dtls/mbedtls/mbedtls-2.16.2/library/bignum.c ****     MBEDTLS_MPI_CHK( mbedtls_mpi_lset( &V1, 0 ) );
 9882              		.loc 1 2183 5
 9883 069b 90       		nop
 9884 069c EB37     		jmp	.L668
 9885              	.L711:
2184:/home/xingli/share/1205tiny/network/dtls/mbedtls/mbedtls-2.16.2/library/bignum.c ****     MBEDTLS_MPI_CHK( mbedtls_mpi_lset( &V2, 1 ) );
 9886              		.loc 1 2184 5
 9887 069e 90       		nop
 9888 069f EB34     		jmp	.L668
 9889              	.L712:
2185:/home/xingli/share/1205tiny/network/dtls/mbedtls/mbedtls-2.16.2/library/bignum.c **** 
 9890              		.loc 1 2185 5
 9891 06a1 90       		nop
 9892 06a2 EB31     		jmp	.L668
 9893              	.L713:
2191:/home/xingli/share/1205tiny/network/dtls/mbedtls/mbedtls-2.16.2/library/bignum.c **** 
 9894              		.loc 1 2191 13
 9895 06a4 90       		nop
GAS LISTING /tmp/ccFaOvob.s 			page 256


 9896 06a5 EB2E     		jmp	.L668
 9897              	.L714:
2195:/home/xingli/share/1205tiny/network/dtls/mbedtls/mbedtls-2.16.2/library/bignum.c ****                 MBEDTLS_MPI_CHK( mbedtls_mpi_sub_mpi( &U2, &U2, &TA ) );
 9898              		.loc 1 2195 17
 9899 06a7 90       		nop
 9900 06a8 EB2B     		jmp	.L668
 9901              	.L715:
2196:/home/xingli/share/1205tiny/network/dtls/mbedtls/mbedtls-2.16.2/library/bignum.c ****             }
 9902              		.loc 1 2196 17
 9903 06aa 90       		nop
 9904 06ab EB28     		jmp	.L668
 9905              	.L716:
2199:/home/xingli/share/1205tiny/network/dtls/mbedtls/mbedtls-2.16.2/library/bignum.c ****             MBEDTLS_MPI_CHK( mbedtls_mpi_shift_r( &U2, 1 ) );
 9906              		.loc 1 2199 13
 9907 06ad 90       		nop
 9908 06ae EB25     		jmp	.L668
 9909              	.L717:
2200:/home/xingli/share/1205tiny/network/dtls/mbedtls/mbedtls-2.16.2/library/bignum.c ****         }
 9910              		.loc 1 2200 13
 9911 06b0 90       		nop
 9912 06b1 EB22     		jmp	.L668
 9913              	.L718:
2205:/home/xingli/share/1205tiny/network/dtls/mbedtls/mbedtls-2.16.2/library/bignum.c **** 
 9914              		.loc 1 2205 13
 9915 06b3 90       		nop
 9916 06b4 EB1F     		jmp	.L668
 9917              	.L719:
2209:/home/xingli/share/1205tiny/network/dtls/mbedtls/mbedtls-2.16.2/library/bignum.c ****                 MBEDTLS_MPI_CHK( mbedtls_mpi_sub_mpi( &V2, &V2, &TA ) );
 9918              		.loc 1 2209 17
 9919 06b6 90       		nop
 9920 06b7 EB1C     		jmp	.L668
 9921              	.L720:
2210:/home/xingli/share/1205tiny/network/dtls/mbedtls/mbedtls-2.16.2/library/bignum.c ****             }
 9922              		.loc 1 2210 17
 9923 06b9 90       		nop
 9924 06ba EB19     		jmp	.L668
 9925              	.L721:
2213:/home/xingli/share/1205tiny/network/dtls/mbedtls/mbedtls-2.16.2/library/bignum.c ****             MBEDTLS_MPI_CHK( mbedtls_mpi_shift_r( &V2, 1 ) );
 9926              		.loc 1 2213 13
 9927 06bc 90       		nop
 9928 06bd EB16     		jmp	.L668
 9929              	.L722:
2214:/home/xingli/share/1205tiny/network/dtls/mbedtls/mbedtls-2.16.2/library/bignum.c ****         }
 9930              		.loc 1 2214 13
 9931 06bf 90       		nop
 9932 06c0 EB13     		jmp	.L668
 9933              	.L723:
2219:/home/xingli/share/1205tiny/network/dtls/mbedtls/mbedtls-2.16.2/library/bignum.c ****             MBEDTLS_MPI_CHK( mbedtls_mpi_sub_mpi( &U1, &U1, &V1 ) );
 9934              		.loc 1 2219 13
 9935 06c2 90       		nop
 9936 06c3 EB10     		jmp	.L668
 9937              	.L724:
2220:/home/xingli/share/1205tiny/network/dtls/mbedtls/mbedtls-2.16.2/library/bignum.c ****             MBEDTLS_MPI_CHK( mbedtls_mpi_sub_mpi( &U2, &U2, &V2 ) );
 9938              		.loc 1 2220 13
 9939 06c5 90       		nop
 9940 06c6 EB0D     		jmp	.L668
 9941              	.L725:
GAS LISTING /tmp/ccFaOvob.s 			page 257


2225:/home/xingli/share/1205tiny/network/dtls/mbedtls/mbedtls-2.16.2/library/bignum.c ****             MBEDTLS_MPI_CHK( mbedtls_mpi_sub_mpi( &V1, &V1, &U1 ) );
 9942              		.loc 1 2225 13
 9943 06c8 90       		nop
 9944 06c9 EB0A     		jmp	.L668
 9945              	.L726:
2226:/home/xingli/share/1205tiny/network/dtls/mbedtls/mbedtls-2.16.2/library/bignum.c ****             MBEDTLS_MPI_CHK( mbedtls_mpi_sub_mpi( &V2, &V2, &U2 ) );
 9946              		.loc 1 2226 13
 9947 06cb 90       		nop
 9948 06cc EB07     		jmp	.L668
 9949              	.L727:
2227:/home/xingli/share/1205tiny/network/dtls/mbedtls/mbedtls-2.16.2/library/bignum.c ****         }
 9950              		.loc 1 2227 13
 9951 06ce 90       		nop
 9952 06cf EB04     		jmp	.L668
 9953              	.L728:
2233:/home/xingli/share/1205tiny/network/dtls/mbedtls/mbedtls-2.16.2/library/bignum.c **** 
 9954              		.loc 1 2233 9
 9955 06d1 90       		nop
 9956 06d2 EB01     		jmp	.L668
 9957              	.L729:
2236:/home/xingli/share/1205tiny/network/dtls/mbedtls/mbedtls-2.16.2/library/bignum.c **** 
 9958              		.loc 1 2236 9
 9959 06d4 90       		nop
 9960              	.L668:
2241:/home/xingli/share/1205tiny/network/dtls/mbedtls/mbedtls-2.16.2/library/bignum.c **** 
2242:/home/xingli/share/1205tiny/network/dtls/mbedtls/mbedtls-2.16.2/library/bignum.c ****     mbedtls_mpi_free( &TA ); mbedtls_mpi_free( &TU ); mbedtls_mpi_free( &U1 ); mbedtls_mpi_free( &U
 9961              		.loc 1 2242 5
 9962 06d5 488D8500 		leaq	-256(%rbp), %rax
 9962      FFFFFF
 9963 06dc 4889C7   		movq	%rax, %rdi
 9964 06df E8000000 		call	mbedtls_mpi_free
 9964      00
 9965              		.loc 1 2242 30
 9966 06e4 488D8520 		leaq	-224(%rbp), %rax
 9966      FFFFFF
 9967 06eb 4889C7   		movq	%rax, %rdi
 9968 06ee E8000000 		call	mbedtls_mpi_free
 9968      00
 9969              		.loc 1 2242 55
 9970 06f3 488D8540 		leaq	-192(%rbp), %rax
 9970      FFFFFF
 9971 06fa 4889C7   		movq	%rax, %rdi
 9972 06fd E8000000 		call	mbedtls_mpi_free
 9972      00
 9973              		.loc 1 2242 80
 9974 0702 488D8560 		leaq	-160(%rbp), %rax
 9974      FFFFFF
 9975 0709 4889C7   		movq	%rax, %rdi
 9976 070c E8000000 		call	mbedtls_mpi_free
 9976      00
2243:/home/xingli/share/1205tiny/network/dtls/mbedtls/mbedtls-2.16.2/library/bignum.c ****     mbedtls_mpi_free( &G ); mbedtls_mpi_free( &TB ); mbedtls_mpi_free( &TV );
 9977              		.loc 1 2243 5
 9978 0711 488D85E0 		leaq	-288(%rbp), %rax
 9978      FEFFFF
 9979 0718 4889C7   		movq	%rax, %rdi
 9980 071b E8000000 		call	mbedtls_mpi_free
 9980      00
GAS LISTING /tmp/ccFaOvob.s 			page 258


 9981              		.loc 1 2243 29
 9982 0720 488D4580 		leaq	-128(%rbp), %rax
 9983 0724 4889C7   		movq	%rax, %rdi
 9984 0727 E8000000 		call	mbedtls_mpi_free
 9984      00
 9985              		.loc 1 2243 54
 9986 072c 488D45A0 		leaq	-96(%rbp), %rax
 9987 0730 4889C7   		movq	%rax, %rdi
 9988 0733 E8000000 		call	mbedtls_mpi_free
 9988      00
2244:/home/xingli/share/1205tiny/network/dtls/mbedtls/mbedtls-2.16.2/library/bignum.c ****     mbedtls_mpi_free( &V1 ); mbedtls_mpi_free( &V2 );
 9989              		.loc 1 2244 5
 9990 0738 488D45C0 		leaq	-64(%rbp), %rax
 9991 073c 4889C7   		movq	%rax, %rdi
 9992 073f E8000000 		call	mbedtls_mpi_free
 9992      00
 9993              		.loc 1 2244 30
 9994 0744 488D45E0 		leaq	-32(%rbp), %rax
 9995 0748 4889C7   		movq	%rax, %rdi
 9996 074b E8000000 		call	mbedtls_mpi_free
 9996      00
2245:/home/xingli/share/1205tiny/network/dtls/mbedtls/mbedtls-2.16.2/library/bignum.c **** 
2246:/home/xingli/share/1205tiny/network/dtls/mbedtls/mbedtls-2.16.2/library/bignum.c ****     return( ret );
 9997              		.loc 1 2246 11
 9998 0750 8B85DCFE 		movl	-292(%rbp), %eax
 9998      FFFF
 9999              	.L702:
2247:/home/xingli/share/1205tiny/network/dtls/mbedtls/mbedtls-2.16.2/library/bignum.c **** }
 10000              		.loc 1 2247 1 discriminator 1
 10001 0756 488B4DF8 		movq	-8(%rbp), %rcx
 10002 075a 6448330C 		xorq	%fs:40, %rcx
 10002      25280000 
 10002      00
 10003 0763 7405     		je	.L703
 10004              		.loc 1 2247 1 is_stmt 0
 10005 0765 E8000000 		call	__stack_chk_fail@PLT
 10005      00
 10006              	.L703:
 10007 076a C9       		leave
 10008              	.LCFI155:
 10009              		.cfi_def_cfa 7, 8
 10010 076b C3       		ret
 10011              		.cfi_endproc
 10012              	.LFE57:
 10014              		.text
 10015              	.Letext0:
 10016              		.file 2 "/usr/lib/gcc/x86_64-linux-gnu/9/include/stddef.h"
 10017              		.file 3 "/usr/include/x86_64-linux-gnu/bits/types.h"
 10018              		.file 4 "/usr/include/x86_64-linux-gnu/bits/stdint-intn.h"
 10019              		.file 5 "/usr/include/x86_64-linux-gnu/bits/stdint-uintn.h"
 10020              		.file 6 "/home/xingli/share/1205tiny/network/dtls/mbedtls/mbedtls-2.16.2/include/mbedtls/bignum.h"
 10021              		.file 7 "/usr/include/x86_64-linux-gnu/bits/types/struct_FILE.h"
 10022              		.file 8 "/usr/include/x86_64-linux-gnu/bits/types/FILE.h"
 10023              		.file 9 "/usr/include/stdio.h"
 10024              		.file 10 "/usr/include/x86_64-linux-gnu/bits/sys_errlist.h"
 10025              		.file 11 "/usr/include/time.h"
 10026              		.file 12 "/home/xingli/share/1205tiny/network/dtls/mbedtls/mbedtls-2.16.2/include/mbedtls/platform
GAS LISTING /tmp/ccFaOvob.s 			page 259


 16754              		.section	.note.gnu.property,"a"
 16755              		.align 8
 16756 0000 04000000 		.long	 1f - 0f
 16757 0004 10000000 		.long	 4f - 1f
 16758 0008 05000000 		.long	 5
 16759              	0:
 16760 000c 474E5500 		.string	 "GNU"
 16761              	1:
 16762              		.align 8
 16763 0010 020000C0 		.long	 0xc0000002
 16764 0014 04000000 		.long	 3f - 2f
 16765              	2:
 16766 0018 03000000 		.long	 0x3
 16767              	3:
 16768 001c 00000000 		.align 8
 16769              	4:
GAS LISTING /tmp/ccFaOvob.s 			page 260


DEFINED SYMBOLS
                            *ABS*:0000000000000000 bignum.c
     /tmp/ccFaOvob.s:6      .text.mbedtls_mpi_zeroize:0000000000000000 mbedtls_mpi_zeroize
     /tmp/ccFaOvob.s:50     .text.mbedtls_mpi_init:0000000000000000 mbedtls_mpi_init
     /tmp/ccFaOvob.s:94     .text.mbedtls_mpi_free:0000000000000000 mbedtls_mpi_free
     /tmp/ccFaOvob.s:166    .text.mbedtls_mpi_grow:0000000000000000 mbedtls_mpi_grow
     /tmp/ccFaOvob.s:273    .text.mbedtls_mpi_shrink:0000000000000000 mbedtls_mpi_shrink
     /tmp/ccFaOvob.s:426    .text.mbedtls_mpi_copy:0000000000000000 mbedtls_mpi_copy
     /tmp/ccFaOvob.s:577    .text.mbedtls_mpi_swap:0000000000000000 mbedtls_mpi_swap
     /tmp/ccFaOvob.s:634    .text.mbedtls_mpi_safe_cond_assign:0000000000000000 mbedtls_mpi_safe_cond_assign
     /tmp/ccFaOvob.s:808    .text.mbedtls_mpi_safe_cond_swap:0000000000000000 mbedtls_mpi_safe_cond_swap
     /tmp/ccFaOvob.s:1031   .text.mbedtls_mpi_lset:0000000000000000 mbedtls_mpi_lset
     /tmp/ccFaOvob.s:1117   .text.mbedtls_mpi_get_bit:0000000000000000 mbedtls_mpi_get_bit
     /tmp/ccFaOvob.s:1184   .text.mbedtls_mpi_set_bit:0000000000000000 mbedtls_mpi_set_bit
     /tmp/ccFaOvob.s:1324   .text.mbedtls_mpi_lsb:0000000000000000 mbedtls_mpi_lsb
     /tmp/ccFaOvob.s:1410   .text.mbedtls_clz:0000000000000000 mbedtls_clz
     /tmp/ccFaOvob.s:1473   .text.mbedtls_mpi_bitlen:0000000000000000 mbedtls_mpi_bitlen
     /tmp/ccFaOvob.s:1572   .text.mbedtls_mpi_size:0000000000000000 mbedtls_mpi_size
     /tmp/ccFaOvob.s:1613   .text.mpi_get_digit:0000000000000000 mpi_get_digit
     /tmp/ccFaOvob.s:1711   .text.mbedtls_mpi_read_string:0000000000000000 mbedtls_mpi_read_string
     /tmp/ccFaOvob.s:6445   .text.mbedtls_mpi_mul_int:0000000000000000 mbedtls_mpi_mul_int
     /tmp/ccFaOvob.s:4569   .text.mbedtls_mpi_add_int:0000000000000000 mbedtls_mpi_add_int
     /tmp/ccFaOvob.s:4638   .text.mbedtls_mpi_sub_int:0000000000000000 mbedtls_mpi_sub_int
     /tmp/ccFaOvob.s:2019   .text.mpi_write_hlp:0000000000000000 mpi_write_hlp
     /tmp/ccFaOvob.s:7624   .text.mbedtls_mpi_mod_int:0000000000000000 mbedtls_mpi_mod_int
     /tmp/ccFaOvob.s:7434   .text.mbedtls_mpi_div_int:0000000000000000 mbedtls_mpi_div_int
     /tmp/ccFaOvob.s:3747   .text.mbedtls_mpi_cmp_int:0000000000000000 mbedtls_mpi_cmp_int
     /tmp/ccFaOvob.s:2165   .text.mbedtls_mpi_write_string:0000000000000000 mbedtls_mpi_write_string
     /tmp/ccFaOvob.s:2445   .text.mpi_uint_bigendian_to_host_c:0000000000000000 mpi_uint_bigendian_to_host_c
     /tmp/ccFaOvob.s:2513   .text.mpi_uint_bigendian_to_host:0000000000000000 mpi_uint_bigendian_to_host
     /tmp/ccFaOvob.s:2549   .text.mpi_bigendian_to_host:0000000000000000 mpi_bigendian_to_host
     /tmp/ccFaOvob.s:2635   .text.mbedtls_mpi_read_binary:0000000000000000 mbedtls_mpi_read_binary
     /tmp/ccFaOvob.s:2760   .text.mbedtls_mpi_write_binary:0000000000000000 mbedtls_mpi_write_binary
     /tmp/ccFaOvob.s:2906   .text.mbedtls_mpi_shift_l:0000000000000000 mbedtls_mpi_shift_l
     /tmp/ccFaOvob.s:3134   .text.mbedtls_mpi_shift_r:0000000000000000 mbedtls_mpi_shift_r
     /tmp/ccFaOvob.s:3347   .text.mbedtls_mpi_cmp_abs:0000000000000000 mbedtls_mpi_cmp_abs
     /tmp/ccFaOvob.s:3527   .text.mbedtls_mpi_cmp_mpi:0000000000000000 mbedtls_mpi_cmp_mpi
     /tmp/ccFaOvob.s:3814   .text.mbedtls_mpi_add_abs:0000000000000000 mbedtls_mpi_add_abs
     /tmp/ccFaOvob.s:4052   .text.mpi_sub_hlp:0000000000000000 mpi_sub_hlp
     /tmp/ccFaOvob.s:4176   .text.mbedtls_mpi_sub_abs:0000000000000000 mbedtls_mpi_sub_abs
     /tmp/ccFaOvob.s:4321   .text.mbedtls_mpi_add_mpi:0000000000000000 mbedtls_mpi_add_mpi
     /tmp/ccFaOvob.s:4445   .text.mbedtls_mpi_sub_mpi:0000000000000000 mbedtls_mpi_sub_mpi
     /tmp/ccFaOvob.s:4706   .text.mpi_mul_hlp:0000000000000000 mpi_mul_hlp
     /tmp/ccFaOvob.s:6214   .text.mbedtls_mpi_mul_mpi:0000000000000000 mbedtls_mpi_mul_mpi
     /tmp/ccFaOvob.s:6498   .text.mbedtls_int_div_int:0000000000000000 mbedtls_int_div_int
     /tmp/ccFaOvob.s:6634   .text.mbedtls_mpi_div_mpi:0000000000000000 mbedtls_mpi_div_mpi
     /tmp/ccFaOvob.s:7504   .text.mbedtls_mpi_mod_mpi:0000000000000000 mbedtls_mpi_mod_mpi
     /tmp/ccFaOvob.s:7795   .text.mpi_montg_init:0000000000000000 mpi_montg_init
     /tmp/ccFaOvob.s:7877   .text.mpi_montmul:0000000000000000 mpi_montmul
     /tmp/ccFaOvob.s:8078   .text.mpi_montred:0000000000000000 mpi_montred
     /tmp/ccFaOvob.s:8139   .text.mbedtls_mpi_exp_mod:0000000000000000 mbedtls_mpi_exp_mod
     /tmp/ccFaOvob.s:9025   .text.mbedtls_mpi_gcd:0000000000000000 mbedtls_mpi_gcd
     /tmp/ccFaOvob.s:9289   .text.mbedtls_mpi_fill_random:0000000000000000 mbedtls_mpi_fill_random
     /tmp/ccFaOvob.s:9408   .text.mbedtls_mpi_inv_mod:0000000000000000 mbedtls_mpi_inv_mod

UNDEFINED SYMBOLS
_GLOBAL_OFFSET_TABLE_
GAS LISTING /tmp/ccFaOvob.s 			page 261


mbedtls_platform_zeroize
__stack_chk_fail
mbedtls_free
mbedtls_calloc
memcpy
memset
strlen
memmove
__udivti3
