GAS LISTING /tmp/ccaq2TqD.s 			page 1


   1              		.file	"cipher.c"
   2              		.text
   3              	.Ltext0:
   4              		.section	.text.mbedtls_cipher_get_block_size,"ax",@progbits
   6              	mbedtls_cipher_get_block_size:
   7              	.LFB0:
   8              		.file 1 "/home/xingli/share/LiteOS_Lab/network/dtls/mbedtls/mbedtls-2.16.2/include/mbedtls/cipher.
   1:/home/xingli/share/LiteOS_Lab/network/dtls/mbedtls/mbedtls-2.16.2/include/mbedtls/cipher.h **** /**
   2:/home/xingli/share/LiteOS_Lab/network/dtls/mbedtls/mbedtls-2.16.2/include/mbedtls/cipher.h ****  * \file cipher.h
   3:/home/xingli/share/LiteOS_Lab/network/dtls/mbedtls/mbedtls-2.16.2/include/mbedtls/cipher.h ****  *
   4:/home/xingli/share/LiteOS_Lab/network/dtls/mbedtls/mbedtls-2.16.2/include/mbedtls/cipher.h ****  * \brief This file contains an abstraction interface for use with the cipher
   5:/home/xingli/share/LiteOS_Lab/network/dtls/mbedtls/mbedtls-2.16.2/include/mbedtls/cipher.h ****  * primitives provided by the library. It provides a common interface to all of
   6:/home/xingli/share/LiteOS_Lab/network/dtls/mbedtls/mbedtls-2.16.2/include/mbedtls/cipher.h ****  * the available cipher operations.
   7:/home/xingli/share/LiteOS_Lab/network/dtls/mbedtls/mbedtls-2.16.2/include/mbedtls/cipher.h ****  *
   8:/home/xingli/share/LiteOS_Lab/network/dtls/mbedtls/mbedtls-2.16.2/include/mbedtls/cipher.h ****  * \author Adriaan de Jong <dejong@fox-it.com>
   9:/home/xingli/share/LiteOS_Lab/network/dtls/mbedtls/mbedtls-2.16.2/include/mbedtls/cipher.h ****  */
  10:/home/xingli/share/LiteOS_Lab/network/dtls/mbedtls/mbedtls-2.16.2/include/mbedtls/cipher.h **** /*
  11:/home/xingli/share/LiteOS_Lab/network/dtls/mbedtls/mbedtls-2.16.2/include/mbedtls/cipher.h ****  *  Copyright (C) 2006-2018, Arm Limited (or its affiliates), All Rights Reserved
  12:/home/xingli/share/LiteOS_Lab/network/dtls/mbedtls/mbedtls-2.16.2/include/mbedtls/cipher.h ****  *  SPDX-License-Identifier: Apache-2.0
  13:/home/xingli/share/LiteOS_Lab/network/dtls/mbedtls/mbedtls-2.16.2/include/mbedtls/cipher.h ****  *
  14:/home/xingli/share/LiteOS_Lab/network/dtls/mbedtls/mbedtls-2.16.2/include/mbedtls/cipher.h ****  *  Licensed under the Apache License, Version 2.0 (the "License"); you may
  15:/home/xingli/share/LiteOS_Lab/network/dtls/mbedtls/mbedtls-2.16.2/include/mbedtls/cipher.h ****  *  not use this file except in compliance with the License.
  16:/home/xingli/share/LiteOS_Lab/network/dtls/mbedtls/mbedtls-2.16.2/include/mbedtls/cipher.h ****  *  You may obtain a copy of the License at
  17:/home/xingli/share/LiteOS_Lab/network/dtls/mbedtls/mbedtls-2.16.2/include/mbedtls/cipher.h ****  *
  18:/home/xingli/share/LiteOS_Lab/network/dtls/mbedtls/mbedtls-2.16.2/include/mbedtls/cipher.h ****  *  http://www.apache.org/licenses/LICENSE-2.0
  19:/home/xingli/share/LiteOS_Lab/network/dtls/mbedtls/mbedtls-2.16.2/include/mbedtls/cipher.h ****  *
  20:/home/xingli/share/LiteOS_Lab/network/dtls/mbedtls/mbedtls-2.16.2/include/mbedtls/cipher.h ****  *  Unless required by applicable law or agreed to in writing, software
  21:/home/xingli/share/LiteOS_Lab/network/dtls/mbedtls/mbedtls-2.16.2/include/mbedtls/cipher.h ****  *  distributed under the License is distributed on an "AS IS" BASIS, WITHOUT
  22:/home/xingli/share/LiteOS_Lab/network/dtls/mbedtls/mbedtls-2.16.2/include/mbedtls/cipher.h ****  *  WARRANTIES OR CONDITIONS OF ANY KIND, either express or implied.
  23:/home/xingli/share/LiteOS_Lab/network/dtls/mbedtls/mbedtls-2.16.2/include/mbedtls/cipher.h ****  *  See the License for the specific language governing permissions and
  24:/home/xingli/share/LiteOS_Lab/network/dtls/mbedtls/mbedtls-2.16.2/include/mbedtls/cipher.h ****  *  limitations under the License.
  25:/home/xingli/share/LiteOS_Lab/network/dtls/mbedtls/mbedtls-2.16.2/include/mbedtls/cipher.h ****  *
  26:/home/xingli/share/LiteOS_Lab/network/dtls/mbedtls/mbedtls-2.16.2/include/mbedtls/cipher.h ****  *  This file is part of Mbed TLS (https://tls.mbed.org)
  27:/home/xingli/share/LiteOS_Lab/network/dtls/mbedtls/mbedtls-2.16.2/include/mbedtls/cipher.h ****  */
  28:/home/xingli/share/LiteOS_Lab/network/dtls/mbedtls/mbedtls-2.16.2/include/mbedtls/cipher.h **** 
  29:/home/xingli/share/LiteOS_Lab/network/dtls/mbedtls/mbedtls-2.16.2/include/mbedtls/cipher.h **** #ifndef MBEDTLS_CIPHER_H
  30:/home/xingli/share/LiteOS_Lab/network/dtls/mbedtls/mbedtls-2.16.2/include/mbedtls/cipher.h **** #define MBEDTLS_CIPHER_H
  31:/home/xingli/share/LiteOS_Lab/network/dtls/mbedtls/mbedtls-2.16.2/include/mbedtls/cipher.h **** 
  32:/home/xingli/share/LiteOS_Lab/network/dtls/mbedtls/mbedtls-2.16.2/include/mbedtls/cipher.h **** #if !defined(MBEDTLS_CONFIG_FILE)
  33:/home/xingli/share/LiteOS_Lab/network/dtls/mbedtls/mbedtls-2.16.2/include/mbedtls/cipher.h **** #include "config.h"
  34:/home/xingli/share/LiteOS_Lab/network/dtls/mbedtls/mbedtls-2.16.2/include/mbedtls/cipher.h **** #else
  35:/home/xingli/share/LiteOS_Lab/network/dtls/mbedtls/mbedtls-2.16.2/include/mbedtls/cipher.h **** #include MBEDTLS_CONFIG_FILE
  36:/home/xingli/share/LiteOS_Lab/network/dtls/mbedtls/mbedtls-2.16.2/include/mbedtls/cipher.h **** #endif
  37:/home/xingli/share/LiteOS_Lab/network/dtls/mbedtls/mbedtls-2.16.2/include/mbedtls/cipher.h **** 
  38:/home/xingli/share/LiteOS_Lab/network/dtls/mbedtls/mbedtls-2.16.2/include/mbedtls/cipher.h **** #include <stddef.h>
  39:/home/xingli/share/LiteOS_Lab/network/dtls/mbedtls/mbedtls-2.16.2/include/mbedtls/cipher.h **** #include "platform_util.h"
  40:/home/xingli/share/LiteOS_Lab/network/dtls/mbedtls/mbedtls-2.16.2/include/mbedtls/cipher.h **** 
  41:/home/xingli/share/LiteOS_Lab/network/dtls/mbedtls/mbedtls-2.16.2/include/mbedtls/cipher.h **** #if defined(MBEDTLS_GCM_C) || defined(MBEDTLS_CCM_C) || defined(MBEDTLS_CHACHAPOLY_C)
  42:/home/xingli/share/LiteOS_Lab/network/dtls/mbedtls/mbedtls-2.16.2/include/mbedtls/cipher.h **** #define MBEDTLS_CIPHER_MODE_AEAD
  43:/home/xingli/share/LiteOS_Lab/network/dtls/mbedtls/mbedtls-2.16.2/include/mbedtls/cipher.h **** #endif
  44:/home/xingli/share/LiteOS_Lab/network/dtls/mbedtls/mbedtls-2.16.2/include/mbedtls/cipher.h **** 
  45:/home/xingli/share/LiteOS_Lab/network/dtls/mbedtls/mbedtls-2.16.2/include/mbedtls/cipher.h **** #if defined(MBEDTLS_CIPHER_MODE_CBC)
  46:/home/xingli/share/LiteOS_Lab/network/dtls/mbedtls/mbedtls-2.16.2/include/mbedtls/cipher.h **** #define MBEDTLS_CIPHER_MODE_WITH_PADDING
  47:/home/xingli/share/LiteOS_Lab/network/dtls/mbedtls/mbedtls-2.16.2/include/mbedtls/cipher.h **** #endif
  48:/home/xingli/share/LiteOS_Lab/network/dtls/mbedtls/mbedtls-2.16.2/include/mbedtls/cipher.h **** 
  49:/home/xingli/share/LiteOS_Lab/network/dtls/mbedtls/mbedtls-2.16.2/include/mbedtls/cipher.h **** #if defined(MBEDTLS_ARC4_C) || defined(MBEDTLS_CIPHER_NULL_CIPHER) || \
  50:/home/xingli/share/LiteOS_Lab/network/dtls/mbedtls/mbedtls-2.16.2/include/mbedtls/cipher.h ****     defined(MBEDTLS_CHACHA20_C)
GAS LISTING /tmp/ccaq2TqD.s 			page 2


  51:/home/xingli/share/LiteOS_Lab/network/dtls/mbedtls/mbedtls-2.16.2/include/mbedtls/cipher.h **** #define MBEDTLS_CIPHER_MODE_STREAM
  52:/home/xingli/share/LiteOS_Lab/network/dtls/mbedtls/mbedtls-2.16.2/include/mbedtls/cipher.h **** #endif
  53:/home/xingli/share/LiteOS_Lab/network/dtls/mbedtls/mbedtls-2.16.2/include/mbedtls/cipher.h **** 
  54:/home/xingli/share/LiteOS_Lab/network/dtls/mbedtls/mbedtls-2.16.2/include/mbedtls/cipher.h **** #if ( defined(__ARMCC_VERSION) || defined(_MSC_VER) ) && \
  55:/home/xingli/share/LiteOS_Lab/network/dtls/mbedtls/mbedtls-2.16.2/include/mbedtls/cipher.h ****     !defined(inline) && !defined(__cplusplus)
  56:/home/xingli/share/LiteOS_Lab/network/dtls/mbedtls/mbedtls-2.16.2/include/mbedtls/cipher.h **** #define inline __inline
  57:/home/xingli/share/LiteOS_Lab/network/dtls/mbedtls/mbedtls-2.16.2/include/mbedtls/cipher.h **** #endif
  58:/home/xingli/share/LiteOS_Lab/network/dtls/mbedtls/mbedtls-2.16.2/include/mbedtls/cipher.h **** 
  59:/home/xingli/share/LiteOS_Lab/network/dtls/mbedtls/mbedtls-2.16.2/include/mbedtls/cipher.h **** #define MBEDTLS_ERR_CIPHER_FEATURE_UNAVAILABLE  -0x6080  /**< The selected feature is not available
  60:/home/xingli/share/LiteOS_Lab/network/dtls/mbedtls/mbedtls-2.16.2/include/mbedtls/cipher.h **** #define MBEDTLS_ERR_CIPHER_BAD_INPUT_DATA       -0x6100  /**< Bad input parameters. */
  61:/home/xingli/share/LiteOS_Lab/network/dtls/mbedtls/mbedtls-2.16.2/include/mbedtls/cipher.h **** #define MBEDTLS_ERR_CIPHER_ALLOC_FAILED         -0x6180  /**< Failed to allocate memory. */
  62:/home/xingli/share/LiteOS_Lab/network/dtls/mbedtls/mbedtls-2.16.2/include/mbedtls/cipher.h **** #define MBEDTLS_ERR_CIPHER_INVALID_PADDING      -0x6200  /**< Input data contains invalid padding a
  63:/home/xingli/share/LiteOS_Lab/network/dtls/mbedtls/mbedtls-2.16.2/include/mbedtls/cipher.h **** #define MBEDTLS_ERR_CIPHER_FULL_BLOCK_EXPECTED  -0x6280  /**< Decryption of block requires a full b
  64:/home/xingli/share/LiteOS_Lab/network/dtls/mbedtls/mbedtls-2.16.2/include/mbedtls/cipher.h **** #define MBEDTLS_ERR_CIPHER_AUTH_FAILED          -0x6300  /**< Authentication failed (for AEAD modes
  65:/home/xingli/share/LiteOS_Lab/network/dtls/mbedtls/mbedtls-2.16.2/include/mbedtls/cipher.h **** #define MBEDTLS_ERR_CIPHER_INVALID_CONTEXT      -0x6380  /**< The context is invalid. For example, 
  66:/home/xingli/share/LiteOS_Lab/network/dtls/mbedtls/mbedtls-2.16.2/include/mbedtls/cipher.h **** 
  67:/home/xingli/share/LiteOS_Lab/network/dtls/mbedtls/mbedtls-2.16.2/include/mbedtls/cipher.h **** /* MBEDTLS_ERR_CIPHER_HW_ACCEL_FAILED is deprecated and should not be used. */
  68:/home/xingli/share/LiteOS_Lab/network/dtls/mbedtls/mbedtls-2.16.2/include/mbedtls/cipher.h **** #define MBEDTLS_ERR_CIPHER_HW_ACCEL_FAILED      -0x6400  /**< Cipher hardware accelerator failed. *
  69:/home/xingli/share/LiteOS_Lab/network/dtls/mbedtls/mbedtls-2.16.2/include/mbedtls/cipher.h **** 
  70:/home/xingli/share/LiteOS_Lab/network/dtls/mbedtls/mbedtls-2.16.2/include/mbedtls/cipher.h **** #define MBEDTLS_CIPHER_VARIABLE_IV_LEN     0x01    /**< Cipher accepts IVs of variable length. */
  71:/home/xingli/share/LiteOS_Lab/network/dtls/mbedtls/mbedtls-2.16.2/include/mbedtls/cipher.h **** #define MBEDTLS_CIPHER_VARIABLE_KEY_LEN    0x02    /**< Cipher accepts keys of variable length. */
  72:/home/xingli/share/LiteOS_Lab/network/dtls/mbedtls/mbedtls-2.16.2/include/mbedtls/cipher.h **** 
  73:/home/xingli/share/LiteOS_Lab/network/dtls/mbedtls/mbedtls-2.16.2/include/mbedtls/cipher.h **** #ifdef __cplusplus
  74:/home/xingli/share/LiteOS_Lab/network/dtls/mbedtls/mbedtls-2.16.2/include/mbedtls/cipher.h **** extern "C" {
  75:/home/xingli/share/LiteOS_Lab/network/dtls/mbedtls/mbedtls-2.16.2/include/mbedtls/cipher.h **** #endif
  76:/home/xingli/share/LiteOS_Lab/network/dtls/mbedtls/mbedtls-2.16.2/include/mbedtls/cipher.h **** 
  77:/home/xingli/share/LiteOS_Lab/network/dtls/mbedtls/mbedtls-2.16.2/include/mbedtls/cipher.h **** /**
  78:/home/xingli/share/LiteOS_Lab/network/dtls/mbedtls/mbedtls-2.16.2/include/mbedtls/cipher.h ****  * \brief     Supported cipher types.
  79:/home/xingli/share/LiteOS_Lab/network/dtls/mbedtls/mbedtls-2.16.2/include/mbedtls/cipher.h ****  *
  80:/home/xingli/share/LiteOS_Lab/network/dtls/mbedtls/mbedtls-2.16.2/include/mbedtls/cipher.h ****  * \warning   RC4 and DES are considered weak ciphers and their use
  81:/home/xingli/share/LiteOS_Lab/network/dtls/mbedtls/mbedtls-2.16.2/include/mbedtls/cipher.h ****  *            constitutes a security risk. Arm recommends considering stronger
  82:/home/xingli/share/LiteOS_Lab/network/dtls/mbedtls/mbedtls-2.16.2/include/mbedtls/cipher.h ****  *            ciphers instead.
  83:/home/xingli/share/LiteOS_Lab/network/dtls/mbedtls/mbedtls-2.16.2/include/mbedtls/cipher.h ****  */
  84:/home/xingli/share/LiteOS_Lab/network/dtls/mbedtls/mbedtls-2.16.2/include/mbedtls/cipher.h **** typedef enum {
  85:/home/xingli/share/LiteOS_Lab/network/dtls/mbedtls/mbedtls-2.16.2/include/mbedtls/cipher.h ****     MBEDTLS_CIPHER_ID_NONE = 0,  /**< Placeholder to mark the end of cipher ID lists. */
  86:/home/xingli/share/LiteOS_Lab/network/dtls/mbedtls/mbedtls-2.16.2/include/mbedtls/cipher.h ****     MBEDTLS_CIPHER_ID_NULL,      /**< The identity cipher, treated as a stream cipher. */
  87:/home/xingli/share/LiteOS_Lab/network/dtls/mbedtls/mbedtls-2.16.2/include/mbedtls/cipher.h ****     MBEDTLS_CIPHER_ID_AES,       /**< The AES cipher. */
  88:/home/xingli/share/LiteOS_Lab/network/dtls/mbedtls/mbedtls-2.16.2/include/mbedtls/cipher.h ****     MBEDTLS_CIPHER_ID_DES,       /**< The DES cipher. */
  89:/home/xingli/share/LiteOS_Lab/network/dtls/mbedtls/mbedtls-2.16.2/include/mbedtls/cipher.h ****     MBEDTLS_CIPHER_ID_3DES,      /**< The Triple DES cipher. */
  90:/home/xingli/share/LiteOS_Lab/network/dtls/mbedtls/mbedtls-2.16.2/include/mbedtls/cipher.h ****     MBEDTLS_CIPHER_ID_CAMELLIA,  /**< The Camellia cipher. */
  91:/home/xingli/share/LiteOS_Lab/network/dtls/mbedtls/mbedtls-2.16.2/include/mbedtls/cipher.h ****     MBEDTLS_CIPHER_ID_BLOWFISH,  /**< The Blowfish cipher. */
  92:/home/xingli/share/LiteOS_Lab/network/dtls/mbedtls/mbedtls-2.16.2/include/mbedtls/cipher.h ****     MBEDTLS_CIPHER_ID_ARC4,      /**< The RC4 cipher. */
  93:/home/xingli/share/LiteOS_Lab/network/dtls/mbedtls/mbedtls-2.16.2/include/mbedtls/cipher.h ****     MBEDTLS_CIPHER_ID_ARIA,      /**< The Aria cipher. */
  94:/home/xingli/share/LiteOS_Lab/network/dtls/mbedtls/mbedtls-2.16.2/include/mbedtls/cipher.h ****     MBEDTLS_CIPHER_ID_CHACHA20,  /**< The ChaCha20 cipher. */
  95:/home/xingli/share/LiteOS_Lab/network/dtls/mbedtls/mbedtls-2.16.2/include/mbedtls/cipher.h **** } mbedtls_cipher_id_t;
  96:/home/xingli/share/LiteOS_Lab/network/dtls/mbedtls/mbedtls-2.16.2/include/mbedtls/cipher.h **** 
  97:/home/xingli/share/LiteOS_Lab/network/dtls/mbedtls/mbedtls-2.16.2/include/mbedtls/cipher.h **** /**
  98:/home/xingli/share/LiteOS_Lab/network/dtls/mbedtls/mbedtls-2.16.2/include/mbedtls/cipher.h ****  * \brief     Supported {cipher type, cipher mode} pairs.
  99:/home/xingli/share/LiteOS_Lab/network/dtls/mbedtls/mbedtls-2.16.2/include/mbedtls/cipher.h ****  *
 100:/home/xingli/share/LiteOS_Lab/network/dtls/mbedtls/mbedtls-2.16.2/include/mbedtls/cipher.h ****  * \warning   RC4 and DES are considered weak ciphers and their use
 101:/home/xingli/share/LiteOS_Lab/network/dtls/mbedtls/mbedtls-2.16.2/include/mbedtls/cipher.h ****  *            constitutes a security risk. Arm recommends considering stronger
 102:/home/xingli/share/LiteOS_Lab/network/dtls/mbedtls/mbedtls-2.16.2/include/mbedtls/cipher.h ****  *            ciphers instead.
 103:/home/xingli/share/LiteOS_Lab/network/dtls/mbedtls/mbedtls-2.16.2/include/mbedtls/cipher.h ****  */
 104:/home/xingli/share/LiteOS_Lab/network/dtls/mbedtls/mbedtls-2.16.2/include/mbedtls/cipher.h **** typedef enum {
 105:/home/xingli/share/LiteOS_Lab/network/dtls/mbedtls/mbedtls-2.16.2/include/mbedtls/cipher.h ****     MBEDTLS_CIPHER_NONE = 0,             /**< Placeholder to mark the end of cipher-pair lists. */
 106:/home/xingli/share/LiteOS_Lab/network/dtls/mbedtls/mbedtls-2.16.2/include/mbedtls/cipher.h ****     MBEDTLS_CIPHER_NULL,                 /**< The identity stream cipher. */
 107:/home/xingli/share/LiteOS_Lab/network/dtls/mbedtls/mbedtls-2.16.2/include/mbedtls/cipher.h ****     MBEDTLS_CIPHER_AES_128_ECB,          /**< AES cipher with 128-bit ECB mode. */
GAS LISTING /tmp/ccaq2TqD.s 			page 3


 108:/home/xingli/share/LiteOS_Lab/network/dtls/mbedtls/mbedtls-2.16.2/include/mbedtls/cipher.h ****     MBEDTLS_CIPHER_AES_192_ECB,          /**< AES cipher with 192-bit ECB mode. */
 109:/home/xingli/share/LiteOS_Lab/network/dtls/mbedtls/mbedtls-2.16.2/include/mbedtls/cipher.h ****     MBEDTLS_CIPHER_AES_256_ECB,          /**< AES cipher with 256-bit ECB mode. */
 110:/home/xingli/share/LiteOS_Lab/network/dtls/mbedtls/mbedtls-2.16.2/include/mbedtls/cipher.h ****     MBEDTLS_CIPHER_AES_128_CBC,          /**< AES cipher with 128-bit CBC mode. */
 111:/home/xingli/share/LiteOS_Lab/network/dtls/mbedtls/mbedtls-2.16.2/include/mbedtls/cipher.h ****     MBEDTLS_CIPHER_AES_192_CBC,          /**< AES cipher with 192-bit CBC mode. */
 112:/home/xingli/share/LiteOS_Lab/network/dtls/mbedtls/mbedtls-2.16.2/include/mbedtls/cipher.h ****     MBEDTLS_CIPHER_AES_256_CBC,          /**< AES cipher with 256-bit CBC mode. */
 113:/home/xingli/share/LiteOS_Lab/network/dtls/mbedtls/mbedtls-2.16.2/include/mbedtls/cipher.h ****     MBEDTLS_CIPHER_AES_128_CFB128,       /**< AES cipher with 128-bit CFB128 mode. */
 114:/home/xingli/share/LiteOS_Lab/network/dtls/mbedtls/mbedtls-2.16.2/include/mbedtls/cipher.h ****     MBEDTLS_CIPHER_AES_192_CFB128,       /**< AES cipher with 192-bit CFB128 mode. */
 115:/home/xingli/share/LiteOS_Lab/network/dtls/mbedtls/mbedtls-2.16.2/include/mbedtls/cipher.h ****     MBEDTLS_CIPHER_AES_256_CFB128,       /**< AES cipher with 256-bit CFB128 mode. */
 116:/home/xingli/share/LiteOS_Lab/network/dtls/mbedtls/mbedtls-2.16.2/include/mbedtls/cipher.h ****     MBEDTLS_CIPHER_AES_128_CTR,          /**< AES cipher with 128-bit CTR mode. */
 117:/home/xingli/share/LiteOS_Lab/network/dtls/mbedtls/mbedtls-2.16.2/include/mbedtls/cipher.h ****     MBEDTLS_CIPHER_AES_192_CTR,          /**< AES cipher with 192-bit CTR mode. */
 118:/home/xingli/share/LiteOS_Lab/network/dtls/mbedtls/mbedtls-2.16.2/include/mbedtls/cipher.h ****     MBEDTLS_CIPHER_AES_256_CTR,          /**< AES cipher with 256-bit CTR mode. */
 119:/home/xingli/share/LiteOS_Lab/network/dtls/mbedtls/mbedtls-2.16.2/include/mbedtls/cipher.h ****     MBEDTLS_CIPHER_AES_128_GCM,          /**< AES cipher with 128-bit GCM mode. */
 120:/home/xingli/share/LiteOS_Lab/network/dtls/mbedtls/mbedtls-2.16.2/include/mbedtls/cipher.h ****     MBEDTLS_CIPHER_AES_192_GCM,          /**< AES cipher with 192-bit GCM mode. */
 121:/home/xingli/share/LiteOS_Lab/network/dtls/mbedtls/mbedtls-2.16.2/include/mbedtls/cipher.h ****     MBEDTLS_CIPHER_AES_256_GCM,          /**< AES cipher with 256-bit GCM mode. */
 122:/home/xingli/share/LiteOS_Lab/network/dtls/mbedtls/mbedtls-2.16.2/include/mbedtls/cipher.h ****     MBEDTLS_CIPHER_CAMELLIA_128_ECB,     /**< Camellia cipher with 128-bit ECB mode. */
 123:/home/xingli/share/LiteOS_Lab/network/dtls/mbedtls/mbedtls-2.16.2/include/mbedtls/cipher.h ****     MBEDTLS_CIPHER_CAMELLIA_192_ECB,     /**< Camellia cipher with 192-bit ECB mode. */
 124:/home/xingli/share/LiteOS_Lab/network/dtls/mbedtls/mbedtls-2.16.2/include/mbedtls/cipher.h ****     MBEDTLS_CIPHER_CAMELLIA_256_ECB,     /**< Camellia cipher with 256-bit ECB mode. */
 125:/home/xingli/share/LiteOS_Lab/network/dtls/mbedtls/mbedtls-2.16.2/include/mbedtls/cipher.h ****     MBEDTLS_CIPHER_CAMELLIA_128_CBC,     /**< Camellia cipher with 128-bit CBC mode. */
 126:/home/xingli/share/LiteOS_Lab/network/dtls/mbedtls/mbedtls-2.16.2/include/mbedtls/cipher.h ****     MBEDTLS_CIPHER_CAMELLIA_192_CBC,     /**< Camellia cipher with 192-bit CBC mode. */
 127:/home/xingli/share/LiteOS_Lab/network/dtls/mbedtls/mbedtls-2.16.2/include/mbedtls/cipher.h ****     MBEDTLS_CIPHER_CAMELLIA_256_CBC,     /**< Camellia cipher with 256-bit CBC mode. */
 128:/home/xingli/share/LiteOS_Lab/network/dtls/mbedtls/mbedtls-2.16.2/include/mbedtls/cipher.h ****     MBEDTLS_CIPHER_CAMELLIA_128_CFB128,  /**< Camellia cipher with 128-bit CFB128 mode. */
 129:/home/xingli/share/LiteOS_Lab/network/dtls/mbedtls/mbedtls-2.16.2/include/mbedtls/cipher.h ****     MBEDTLS_CIPHER_CAMELLIA_192_CFB128,  /**< Camellia cipher with 192-bit CFB128 mode. */
 130:/home/xingli/share/LiteOS_Lab/network/dtls/mbedtls/mbedtls-2.16.2/include/mbedtls/cipher.h ****     MBEDTLS_CIPHER_CAMELLIA_256_CFB128,  /**< Camellia cipher with 256-bit CFB128 mode. */
 131:/home/xingli/share/LiteOS_Lab/network/dtls/mbedtls/mbedtls-2.16.2/include/mbedtls/cipher.h ****     MBEDTLS_CIPHER_CAMELLIA_128_CTR,     /**< Camellia cipher with 128-bit CTR mode. */
 132:/home/xingli/share/LiteOS_Lab/network/dtls/mbedtls/mbedtls-2.16.2/include/mbedtls/cipher.h ****     MBEDTLS_CIPHER_CAMELLIA_192_CTR,     /**< Camellia cipher with 192-bit CTR mode. */
 133:/home/xingli/share/LiteOS_Lab/network/dtls/mbedtls/mbedtls-2.16.2/include/mbedtls/cipher.h ****     MBEDTLS_CIPHER_CAMELLIA_256_CTR,     /**< Camellia cipher with 256-bit CTR mode. */
 134:/home/xingli/share/LiteOS_Lab/network/dtls/mbedtls/mbedtls-2.16.2/include/mbedtls/cipher.h ****     MBEDTLS_CIPHER_CAMELLIA_128_GCM,     /**< Camellia cipher with 128-bit GCM mode. */
 135:/home/xingli/share/LiteOS_Lab/network/dtls/mbedtls/mbedtls-2.16.2/include/mbedtls/cipher.h ****     MBEDTLS_CIPHER_CAMELLIA_192_GCM,     /**< Camellia cipher with 192-bit GCM mode. */
 136:/home/xingli/share/LiteOS_Lab/network/dtls/mbedtls/mbedtls-2.16.2/include/mbedtls/cipher.h ****     MBEDTLS_CIPHER_CAMELLIA_256_GCM,     /**< Camellia cipher with 256-bit GCM mode. */
 137:/home/xingli/share/LiteOS_Lab/network/dtls/mbedtls/mbedtls-2.16.2/include/mbedtls/cipher.h ****     MBEDTLS_CIPHER_DES_ECB,              /**< DES cipher with ECB mode. */
 138:/home/xingli/share/LiteOS_Lab/network/dtls/mbedtls/mbedtls-2.16.2/include/mbedtls/cipher.h ****     MBEDTLS_CIPHER_DES_CBC,              /**< DES cipher with CBC mode. */
 139:/home/xingli/share/LiteOS_Lab/network/dtls/mbedtls/mbedtls-2.16.2/include/mbedtls/cipher.h ****     MBEDTLS_CIPHER_DES_EDE_ECB,          /**< DES cipher with EDE ECB mode. */
 140:/home/xingli/share/LiteOS_Lab/network/dtls/mbedtls/mbedtls-2.16.2/include/mbedtls/cipher.h ****     MBEDTLS_CIPHER_DES_EDE_CBC,          /**< DES cipher with EDE CBC mode. */
 141:/home/xingli/share/LiteOS_Lab/network/dtls/mbedtls/mbedtls-2.16.2/include/mbedtls/cipher.h ****     MBEDTLS_CIPHER_DES_EDE3_ECB,         /**< DES cipher with EDE3 ECB mode. */
 142:/home/xingli/share/LiteOS_Lab/network/dtls/mbedtls/mbedtls-2.16.2/include/mbedtls/cipher.h ****     MBEDTLS_CIPHER_DES_EDE3_CBC,         /**< DES cipher with EDE3 CBC mode. */
 143:/home/xingli/share/LiteOS_Lab/network/dtls/mbedtls/mbedtls-2.16.2/include/mbedtls/cipher.h ****     MBEDTLS_CIPHER_BLOWFISH_ECB,         /**< Blowfish cipher with ECB mode. */
 144:/home/xingli/share/LiteOS_Lab/network/dtls/mbedtls/mbedtls-2.16.2/include/mbedtls/cipher.h ****     MBEDTLS_CIPHER_BLOWFISH_CBC,         /**< Blowfish cipher with CBC mode. */
 145:/home/xingli/share/LiteOS_Lab/network/dtls/mbedtls/mbedtls-2.16.2/include/mbedtls/cipher.h ****     MBEDTLS_CIPHER_BLOWFISH_CFB64,       /**< Blowfish cipher with CFB64 mode. */
 146:/home/xingli/share/LiteOS_Lab/network/dtls/mbedtls/mbedtls-2.16.2/include/mbedtls/cipher.h ****     MBEDTLS_CIPHER_BLOWFISH_CTR,         /**< Blowfish cipher with CTR mode. */
 147:/home/xingli/share/LiteOS_Lab/network/dtls/mbedtls/mbedtls-2.16.2/include/mbedtls/cipher.h ****     MBEDTLS_CIPHER_ARC4_128,             /**< RC4 cipher with 128-bit mode. */
 148:/home/xingli/share/LiteOS_Lab/network/dtls/mbedtls/mbedtls-2.16.2/include/mbedtls/cipher.h ****     MBEDTLS_CIPHER_AES_128_CCM,          /**< AES cipher with 128-bit CCM mode. */
 149:/home/xingli/share/LiteOS_Lab/network/dtls/mbedtls/mbedtls-2.16.2/include/mbedtls/cipher.h ****     MBEDTLS_CIPHER_AES_192_CCM,          /**< AES cipher with 192-bit CCM mode. */
 150:/home/xingli/share/LiteOS_Lab/network/dtls/mbedtls/mbedtls-2.16.2/include/mbedtls/cipher.h ****     MBEDTLS_CIPHER_AES_256_CCM,          /**< AES cipher with 256-bit CCM mode. */
 151:/home/xingli/share/LiteOS_Lab/network/dtls/mbedtls/mbedtls-2.16.2/include/mbedtls/cipher.h ****     MBEDTLS_CIPHER_CAMELLIA_128_CCM,     /**< Camellia cipher with 128-bit CCM mode. */
 152:/home/xingli/share/LiteOS_Lab/network/dtls/mbedtls/mbedtls-2.16.2/include/mbedtls/cipher.h ****     MBEDTLS_CIPHER_CAMELLIA_192_CCM,     /**< Camellia cipher with 192-bit CCM mode. */
 153:/home/xingli/share/LiteOS_Lab/network/dtls/mbedtls/mbedtls-2.16.2/include/mbedtls/cipher.h ****     MBEDTLS_CIPHER_CAMELLIA_256_CCM,     /**< Camellia cipher with 256-bit CCM mode. */
 154:/home/xingli/share/LiteOS_Lab/network/dtls/mbedtls/mbedtls-2.16.2/include/mbedtls/cipher.h ****     MBEDTLS_CIPHER_ARIA_128_ECB,         /**< Aria cipher with 128-bit key and ECB mode. */
 155:/home/xingli/share/LiteOS_Lab/network/dtls/mbedtls/mbedtls-2.16.2/include/mbedtls/cipher.h ****     MBEDTLS_CIPHER_ARIA_192_ECB,         /**< Aria cipher with 192-bit key and ECB mode. */
 156:/home/xingli/share/LiteOS_Lab/network/dtls/mbedtls/mbedtls-2.16.2/include/mbedtls/cipher.h ****     MBEDTLS_CIPHER_ARIA_256_ECB,         /**< Aria cipher with 256-bit key and ECB mode. */
 157:/home/xingli/share/LiteOS_Lab/network/dtls/mbedtls/mbedtls-2.16.2/include/mbedtls/cipher.h ****     MBEDTLS_CIPHER_ARIA_128_CBC,         /**< Aria cipher with 128-bit key and CBC mode. */
 158:/home/xingli/share/LiteOS_Lab/network/dtls/mbedtls/mbedtls-2.16.2/include/mbedtls/cipher.h ****     MBEDTLS_CIPHER_ARIA_192_CBC,         /**< Aria cipher with 192-bit key and CBC mode. */
 159:/home/xingli/share/LiteOS_Lab/network/dtls/mbedtls/mbedtls-2.16.2/include/mbedtls/cipher.h ****     MBEDTLS_CIPHER_ARIA_256_CBC,         /**< Aria cipher with 256-bit key and CBC mode. */
 160:/home/xingli/share/LiteOS_Lab/network/dtls/mbedtls/mbedtls-2.16.2/include/mbedtls/cipher.h ****     MBEDTLS_CIPHER_ARIA_128_CFB128,      /**< Aria cipher with 128-bit key and CFB-128 mode. */
 161:/home/xingli/share/LiteOS_Lab/network/dtls/mbedtls/mbedtls-2.16.2/include/mbedtls/cipher.h ****     MBEDTLS_CIPHER_ARIA_192_CFB128,      /**< Aria cipher with 192-bit key and CFB-128 mode. */
 162:/home/xingli/share/LiteOS_Lab/network/dtls/mbedtls/mbedtls-2.16.2/include/mbedtls/cipher.h ****     MBEDTLS_CIPHER_ARIA_256_CFB128,      /**< Aria cipher with 256-bit key and CFB-128 mode. */
 163:/home/xingli/share/LiteOS_Lab/network/dtls/mbedtls/mbedtls-2.16.2/include/mbedtls/cipher.h ****     MBEDTLS_CIPHER_ARIA_128_CTR,         /**< Aria cipher with 128-bit key and CTR mode. */
 164:/home/xingli/share/LiteOS_Lab/network/dtls/mbedtls/mbedtls-2.16.2/include/mbedtls/cipher.h ****     MBEDTLS_CIPHER_ARIA_192_CTR,         /**< Aria cipher with 192-bit key and CTR mode. */
GAS LISTING /tmp/ccaq2TqD.s 			page 4


 165:/home/xingli/share/LiteOS_Lab/network/dtls/mbedtls/mbedtls-2.16.2/include/mbedtls/cipher.h ****     MBEDTLS_CIPHER_ARIA_256_CTR,         /**< Aria cipher with 256-bit key and CTR mode. */
 166:/home/xingli/share/LiteOS_Lab/network/dtls/mbedtls/mbedtls-2.16.2/include/mbedtls/cipher.h ****     MBEDTLS_CIPHER_ARIA_128_GCM,         /**< Aria cipher with 128-bit key and GCM mode. */
 167:/home/xingli/share/LiteOS_Lab/network/dtls/mbedtls/mbedtls-2.16.2/include/mbedtls/cipher.h ****     MBEDTLS_CIPHER_ARIA_192_GCM,         /**< Aria cipher with 192-bit key and GCM mode. */
 168:/home/xingli/share/LiteOS_Lab/network/dtls/mbedtls/mbedtls-2.16.2/include/mbedtls/cipher.h ****     MBEDTLS_CIPHER_ARIA_256_GCM,         /**< Aria cipher with 256-bit key and GCM mode. */
 169:/home/xingli/share/LiteOS_Lab/network/dtls/mbedtls/mbedtls-2.16.2/include/mbedtls/cipher.h ****     MBEDTLS_CIPHER_ARIA_128_CCM,         /**< Aria cipher with 128-bit key and CCM mode. */
 170:/home/xingli/share/LiteOS_Lab/network/dtls/mbedtls/mbedtls-2.16.2/include/mbedtls/cipher.h ****     MBEDTLS_CIPHER_ARIA_192_CCM,         /**< Aria cipher with 192-bit key and CCM mode. */
 171:/home/xingli/share/LiteOS_Lab/network/dtls/mbedtls/mbedtls-2.16.2/include/mbedtls/cipher.h ****     MBEDTLS_CIPHER_ARIA_256_CCM,         /**< Aria cipher with 256-bit key and CCM mode. */
 172:/home/xingli/share/LiteOS_Lab/network/dtls/mbedtls/mbedtls-2.16.2/include/mbedtls/cipher.h ****     MBEDTLS_CIPHER_AES_128_OFB,          /**< AES 128-bit cipher in OFB mode. */
 173:/home/xingli/share/LiteOS_Lab/network/dtls/mbedtls/mbedtls-2.16.2/include/mbedtls/cipher.h ****     MBEDTLS_CIPHER_AES_192_OFB,          /**< AES 192-bit cipher in OFB mode. */
 174:/home/xingli/share/LiteOS_Lab/network/dtls/mbedtls/mbedtls-2.16.2/include/mbedtls/cipher.h ****     MBEDTLS_CIPHER_AES_256_OFB,          /**< AES 256-bit cipher in OFB mode. */
 175:/home/xingli/share/LiteOS_Lab/network/dtls/mbedtls/mbedtls-2.16.2/include/mbedtls/cipher.h ****     MBEDTLS_CIPHER_AES_128_XTS,          /**< AES 128-bit cipher in XTS block mode. */
 176:/home/xingli/share/LiteOS_Lab/network/dtls/mbedtls/mbedtls-2.16.2/include/mbedtls/cipher.h ****     MBEDTLS_CIPHER_AES_256_XTS,          /**< AES 256-bit cipher in XTS block mode. */
 177:/home/xingli/share/LiteOS_Lab/network/dtls/mbedtls/mbedtls-2.16.2/include/mbedtls/cipher.h ****     MBEDTLS_CIPHER_CHACHA20,             /**< ChaCha20 stream cipher. */
 178:/home/xingli/share/LiteOS_Lab/network/dtls/mbedtls/mbedtls-2.16.2/include/mbedtls/cipher.h ****     MBEDTLS_CIPHER_CHACHA20_POLY1305,    /**< ChaCha20-Poly1305 AEAD cipher. */
 179:/home/xingli/share/LiteOS_Lab/network/dtls/mbedtls/mbedtls-2.16.2/include/mbedtls/cipher.h **** } mbedtls_cipher_type_t;
 180:/home/xingli/share/LiteOS_Lab/network/dtls/mbedtls/mbedtls-2.16.2/include/mbedtls/cipher.h **** 
 181:/home/xingli/share/LiteOS_Lab/network/dtls/mbedtls/mbedtls-2.16.2/include/mbedtls/cipher.h **** /** Supported cipher modes. */
 182:/home/xingli/share/LiteOS_Lab/network/dtls/mbedtls/mbedtls-2.16.2/include/mbedtls/cipher.h **** typedef enum {
 183:/home/xingli/share/LiteOS_Lab/network/dtls/mbedtls/mbedtls-2.16.2/include/mbedtls/cipher.h ****     MBEDTLS_MODE_NONE = 0,               /**< None. */
 184:/home/xingli/share/LiteOS_Lab/network/dtls/mbedtls/mbedtls-2.16.2/include/mbedtls/cipher.h ****     MBEDTLS_MODE_ECB,                    /**< The ECB cipher mode. */
 185:/home/xingli/share/LiteOS_Lab/network/dtls/mbedtls/mbedtls-2.16.2/include/mbedtls/cipher.h ****     MBEDTLS_MODE_CBC,                    /**< The CBC cipher mode. */
 186:/home/xingli/share/LiteOS_Lab/network/dtls/mbedtls/mbedtls-2.16.2/include/mbedtls/cipher.h ****     MBEDTLS_MODE_CFB,                    /**< The CFB cipher mode. */
 187:/home/xingli/share/LiteOS_Lab/network/dtls/mbedtls/mbedtls-2.16.2/include/mbedtls/cipher.h ****     MBEDTLS_MODE_OFB,                    /**< The OFB cipher mode. */
 188:/home/xingli/share/LiteOS_Lab/network/dtls/mbedtls/mbedtls-2.16.2/include/mbedtls/cipher.h ****     MBEDTLS_MODE_CTR,                    /**< The CTR cipher mode. */
 189:/home/xingli/share/LiteOS_Lab/network/dtls/mbedtls/mbedtls-2.16.2/include/mbedtls/cipher.h ****     MBEDTLS_MODE_GCM,                    /**< The GCM cipher mode. */
 190:/home/xingli/share/LiteOS_Lab/network/dtls/mbedtls/mbedtls-2.16.2/include/mbedtls/cipher.h ****     MBEDTLS_MODE_STREAM,                 /**< The stream cipher mode. */
 191:/home/xingli/share/LiteOS_Lab/network/dtls/mbedtls/mbedtls-2.16.2/include/mbedtls/cipher.h ****     MBEDTLS_MODE_CCM,                    /**< The CCM cipher mode. */
 192:/home/xingli/share/LiteOS_Lab/network/dtls/mbedtls/mbedtls-2.16.2/include/mbedtls/cipher.h ****     MBEDTLS_MODE_XTS,                    /**< The XTS cipher mode. */
 193:/home/xingli/share/LiteOS_Lab/network/dtls/mbedtls/mbedtls-2.16.2/include/mbedtls/cipher.h ****     MBEDTLS_MODE_CHACHAPOLY,             /**< The ChaCha-Poly cipher mode. */
 194:/home/xingli/share/LiteOS_Lab/network/dtls/mbedtls/mbedtls-2.16.2/include/mbedtls/cipher.h **** } mbedtls_cipher_mode_t;
 195:/home/xingli/share/LiteOS_Lab/network/dtls/mbedtls/mbedtls-2.16.2/include/mbedtls/cipher.h **** 
 196:/home/xingli/share/LiteOS_Lab/network/dtls/mbedtls/mbedtls-2.16.2/include/mbedtls/cipher.h **** /** Supported cipher padding types. */
 197:/home/xingli/share/LiteOS_Lab/network/dtls/mbedtls/mbedtls-2.16.2/include/mbedtls/cipher.h **** typedef enum {
 198:/home/xingli/share/LiteOS_Lab/network/dtls/mbedtls/mbedtls-2.16.2/include/mbedtls/cipher.h ****     MBEDTLS_PADDING_PKCS7 = 0,     /**< PKCS7 padding (default).        */
 199:/home/xingli/share/LiteOS_Lab/network/dtls/mbedtls/mbedtls-2.16.2/include/mbedtls/cipher.h ****     MBEDTLS_PADDING_ONE_AND_ZEROS, /**< ISO/IEC 7816-4 padding.         */
 200:/home/xingli/share/LiteOS_Lab/network/dtls/mbedtls/mbedtls-2.16.2/include/mbedtls/cipher.h ****     MBEDTLS_PADDING_ZEROS_AND_LEN, /**< ANSI X.923 padding.             */
 201:/home/xingli/share/LiteOS_Lab/network/dtls/mbedtls/mbedtls-2.16.2/include/mbedtls/cipher.h ****     MBEDTLS_PADDING_ZEROS,         /**< Zero padding (not reversible). */
 202:/home/xingli/share/LiteOS_Lab/network/dtls/mbedtls/mbedtls-2.16.2/include/mbedtls/cipher.h ****     MBEDTLS_PADDING_NONE,          /**< Never pad (full blocks only).   */
 203:/home/xingli/share/LiteOS_Lab/network/dtls/mbedtls/mbedtls-2.16.2/include/mbedtls/cipher.h **** } mbedtls_cipher_padding_t;
 204:/home/xingli/share/LiteOS_Lab/network/dtls/mbedtls/mbedtls-2.16.2/include/mbedtls/cipher.h **** 
 205:/home/xingli/share/LiteOS_Lab/network/dtls/mbedtls/mbedtls-2.16.2/include/mbedtls/cipher.h **** /** Type of operation. */
 206:/home/xingli/share/LiteOS_Lab/network/dtls/mbedtls/mbedtls-2.16.2/include/mbedtls/cipher.h **** typedef enum {
 207:/home/xingli/share/LiteOS_Lab/network/dtls/mbedtls/mbedtls-2.16.2/include/mbedtls/cipher.h ****     MBEDTLS_OPERATION_NONE = -1,
 208:/home/xingli/share/LiteOS_Lab/network/dtls/mbedtls/mbedtls-2.16.2/include/mbedtls/cipher.h ****     MBEDTLS_DECRYPT = 0,
 209:/home/xingli/share/LiteOS_Lab/network/dtls/mbedtls/mbedtls-2.16.2/include/mbedtls/cipher.h ****     MBEDTLS_ENCRYPT,
 210:/home/xingli/share/LiteOS_Lab/network/dtls/mbedtls/mbedtls-2.16.2/include/mbedtls/cipher.h **** } mbedtls_operation_t;
 211:/home/xingli/share/LiteOS_Lab/network/dtls/mbedtls/mbedtls-2.16.2/include/mbedtls/cipher.h **** 
 212:/home/xingli/share/LiteOS_Lab/network/dtls/mbedtls/mbedtls-2.16.2/include/mbedtls/cipher.h **** enum {
 213:/home/xingli/share/LiteOS_Lab/network/dtls/mbedtls/mbedtls-2.16.2/include/mbedtls/cipher.h ****     /** Undefined key length. */
 214:/home/xingli/share/LiteOS_Lab/network/dtls/mbedtls/mbedtls-2.16.2/include/mbedtls/cipher.h ****     MBEDTLS_KEY_LENGTH_NONE = 0,
 215:/home/xingli/share/LiteOS_Lab/network/dtls/mbedtls/mbedtls-2.16.2/include/mbedtls/cipher.h ****     /** Key length, in bits (including parity), for DES keys. */
 216:/home/xingli/share/LiteOS_Lab/network/dtls/mbedtls/mbedtls-2.16.2/include/mbedtls/cipher.h ****     MBEDTLS_KEY_LENGTH_DES  = 64,
 217:/home/xingli/share/LiteOS_Lab/network/dtls/mbedtls/mbedtls-2.16.2/include/mbedtls/cipher.h ****     /** Key length in bits, including parity, for DES in two-key EDE. */
 218:/home/xingli/share/LiteOS_Lab/network/dtls/mbedtls/mbedtls-2.16.2/include/mbedtls/cipher.h ****     MBEDTLS_KEY_LENGTH_DES_EDE = 128,
 219:/home/xingli/share/LiteOS_Lab/network/dtls/mbedtls/mbedtls-2.16.2/include/mbedtls/cipher.h ****     /** Key length in bits, including parity, for DES in three-key EDE. */
 220:/home/xingli/share/LiteOS_Lab/network/dtls/mbedtls/mbedtls-2.16.2/include/mbedtls/cipher.h ****     MBEDTLS_KEY_LENGTH_DES_EDE3 = 192,
 221:/home/xingli/share/LiteOS_Lab/network/dtls/mbedtls/mbedtls-2.16.2/include/mbedtls/cipher.h **** };
GAS LISTING /tmp/ccaq2TqD.s 			page 5


 222:/home/xingli/share/LiteOS_Lab/network/dtls/mbedtls/mbedtls-2.16.2/include/mbedtls/cipher.h **** 
 223:/home/xingli/share/LiteOS_Lab/network/dtls/mbedtls/mbedtls-2.16.2/include/mbedtls/cipher.h **** /** Maximum length of any IV, in Bytes. */
 224:/home/xingli/share/LiteOS_Lab/network/dtls/mbedtls/mbedtls-2.16.2/include/mbedtls/cipher.h **** #define MBEDTLS_MAX_IV_LENGTH      16
 225:/home/xingli/share/LiteOS_Lab/network/dtls/mbedtls/mbedtls-2.16.2/include/mbedtls/cipher.h **** /** Maximum block size of any cipher, in Bytes. */
 226:/home/xingli/share/LiteOS_Lab/network/dtls/mbedtls/mbedtls-2.16.2/include/mbedtls/cipher.h **** #define MBEDTLS_MAX_BLOCK_LENGTH   16
 227:/home/xingli/share/LiteOS_Lab/network/dtls/mbedtls/mbedtls-2.16.2/include/mbedtls/cipher.h **** 
 228:/home/xingli/share/LiteOS_Lab/network/dtls/mbedtls/mbedtls-2.16.2/include/mbedtls/cipher.h **** /**
 229:/home/xingli/share/LiteOS_Lab/network/dtls/mbedtls/mbedtls-2.16.2/include/mbedtls/cipher.h ****  * Base cipher information (opaque struct).
 230:/home/xingli/share/LiteOS_Lab/network/dtls/mbedtls/mbedtls-2.16.2/include/mbedtls/cipher.h ****  */
 231:/home/xingli/share/LiteOS_Lab/network/dtls/mbedtls/mbedtls-2.16.2/include/mbedtls/cipher.h **** typedef struct mbedtls_cipher_base_t mbedtls_cipher_base_t;
 232:/home/xingli/share/LiteOS_Lab/network/dtls/mbedtls/mbedtls-2.16.2/include/mbedtls/cipher.h **** 
 233:/home/xingli/share/LiteOS_Lab/network/dtls/mbedtls/mbedtls-2.16.2/include/mbedtls/cipher.h **** /**
 234:/home/xingli/share/LiteOS_Lab/network/dtls/mbedtls/mbedtls-2.16.2/include/mbedtls/cipher.h ****  * CMAC context (opaque struct).
 235:/home/xingli/share/LiteOS_Lab/network/dtls/mbedtls/mbedtls-2.16.2/include/mbedtls/cipher.h ****  */
 236:/home/xingli/share/LiteOS_Lab/network/dtls/mbedtls/mbedtls-2.16.2/include/mbedtls/cipher.h **** typedef struct mbedtls_cmac_context_t mbedtls_cmac_context_t;
 237:/home/xingli/share/LiteOS_Lab/network/dtls/mbedtls/mbedtls-2.16.2/include/mbedtls/cipher.h **** 
 238:/home/xingli/share/LiteOS_Lab/network/dtls/mbedtls/mbedtls-2.16.2/include/mbedtls/cipher.h **** /**
 239:/home/xingli/share/LiteOS_Lab/network/dtls/mbedtls/mbedtls-2.16.2/include/mbedtls/cipher.h ****  * Cipher information. Allows calling cipher functions
 240:/home/xingli/share/LiteOS_Lab/network/dtls/mbedtls/mbedtls-2.16.2/include/mbedtls/cipher.h ****  * in a generic way.
 241:/home/xingli/share/LiteOS_Lab/network/dtls/mbedtls/mbedtls-2.16.2/include/mbedtls/cipher.h ****  */
 242:/home/xingli/share/LiteOS_Lab/network/dtls/mbedtls/mbedtls-2.16.2/include/mbedtls/cipher.h **** typedef struct mbedtls_cipher_info_t
 243:/home/xingli/share/LiteOS_Lab/network/dtls/mbedtls/mbedtls-2.16.2/include/mbedtls/cipher.h **** {
 244:/home/xingli/share/LiteOS_Lab/network/dtls/mbedtls/mbedtls-2.16.2/include/mbedtls/cipher.h ****     /** Full cipher identifier. For example,
 245:/home/xingli/share/LiteOS_Lab/network/dtls/mbedtls/mbedtls-2.16.2/include/mbedtls/cipher.h ****      * MBEDTLS_CIPHER_AES_256_CBC.
 246:/home/xingli/share/LiteOS_Lab/network/dtls/mbedtls/mbedtls-2.16.2/include/mbedtls/cipher.h ****      */
 247:/home/xingli/share/LiteOS_Lab/network/dtls/mbedtls/mbedtls-2.16.2/include/mbedtls/cipher.h ****     mbedtls_cipher_type_t type;
 248:/home/xingli/share/LiteOS_Lab/network/dtls/mbedtls/mbedtls-2.16.2/include/mbedtls/cipher.h **** 
 249:/home/xingli/share/LiteOS_Lab/network/dtls/mbedtls/mbedtls-2.16.2/include/mbedtls/cipher.h ****     /** The cipher mode. For example, MBEDTLS_MODE_CBC. */
 250:/home/xingli/share/LiteOS_Lab/network/dtls/mbedtls/mbedtls-2.16.2/include/mbedtls/cipher.h ****     mbedtls_cipher_mode_t mode;
 251:/home/xingli/share/LiteOS_Lab/network/dtls/mbedtls/mbedtls-2.16.2/include/mbedtls/cipher.h **** 
 252:/home/xingli/share/LiteOS_Lab/network/dtls/mbedtls/mbedtls-2.16.2/include/mbedtls/cipher.h ****     /** The cipher key length, in bits. This is the
 253:/home/xingli/share/LiteOS_Lab/network/dtls/mbedtls/mbedtls-2.16.2/include/mbedtls/cipher.h ****      * default length for variable sized ciphers.
 254:/home/xingli/share/LiteOS_Lab/network/dtls/mbedtls/mbedtls-2.16.2/include/mbedtls/cipher.h ****      * Includes parity bits for ciphers like DES.
 255:/home/xingli/share/LiteOS_Lab/network/dtls/mbedtls/mbedtls-2.16.2/include/mbedtls/cipher.h ****      */
 256:/home/xingli/share/LiteOS_Lab/network/dtls/mbedtls/mbedtls-2.16.2/include/mbedtls/cipher.h ****     unsigned int key_bitlen;
 257:/home/xingli/share/LiteOS_Lab/network/dtls/mbedtls/mbedtls-2.16.2/include/mbedtls/cipher.h **** 
 258:/home/xingli/share/LiteOS_Lab/network/dtls/mbedtls/mbedtls-2.16.2/include/mbedtls/cipher.h ****     /** Name of the cipher. */
 259:/home/xingli/share/LiteOS_Lab/network/dtls/mbedtls/mbedtls-2.16.2/include/mbedtls/cipher.h ****     const char * name;
 260:/home/xingli/share/LiteOS_Lab/network/dtls/mbedtls/mbedtls-2.16.2/include/mbedtls/cipher.h **** 
 261:/home/xingli/share/LiteOS_Lab/network/dtls/mbedtls/mbedtls-2.16.2/include/mbedtls/cipher.h ****     /** IV or nonce size, in Bytes.
 262:/home/xingli/share/LiteOS_Lab/network/dtls/mbedtls/mbedtls-2.16.2/include/mbedtls/cipher.h ****      * For ciphers that accept variable IV sizes,
 263:/home/xingli/share/LiteOS_Lab/network/dtls/mbedtls/mbedtls-2.16.2/include/mbedtls/cipher.h ****      * this is the recommended size.
 264:/home/xingli/share/LiteOS_Lab/network/dtls/mbedtls/mbedtls-2.16.2/include/mbedtls/cipher.h ****      */
 265:/home/xingli/share/LiteOS_Lab/network/dtls/mbedtls/mbedtls-2.16.2/include/mbedtls/cipher.h ****     unsigned int iv_size;
 266:/home/xingli/share/LiteOS_Lab/network/dtls/mbedtls/mbedtls-2.16.2/include/mbedtls/cipher.h **** 
 267:/home/xingli/share/LiteOS_Lab/network/dtls/mbedtls/mbedtls-2.16.2/include/mbedtls/cipher.h ****     /** Bitflag comprised of MBEDTLS_CIPHER_VARIABLE_IV_LEN and
 268:/home/xingli/share/LiteOS_Lab/network/dtls/mbedtls/mbedtls-2.16.2/include/mbedtls/cipher.h ****      *  MBEDTLS_CIPHER_VARIABLE_KEY_LEN indicating whether the
 269:/home/xingli/share/LiteOS_Lab/network/dtls/mbedtls/mbedtls-2.16.2/include/mbedtls/cipher.h ****      *  cipher supports variable IV or variable key sizes, respectively.
 270:/home/xingli/share/LiteOS_Lab/network/dtls/mbedtls/mbedtls-2.16.2/include/mbedtls/cipher.h ****      */
 271:/home/xingli/share/LiteOS_Lab/network/dtls/mbedtls/mbedtls-2.16.2/include/mbedtls/cipher.h ****     int flags;
 272:/home/xingli/share/LiteOS_Lab/network/dtls/mbedtls/mbedtls-2.16.2/include/mbedtls/cipher.h **** 
 273:/home/xingli/share/LiteOS_Lab/network/dtls/mbedtls/mbedtls-2.16.2/include/mbedtls/cipher.h ****     /** The block size, in Bytes. */
 274:/home/xingli/share/LiteOS_Lab/network/dtls/mbedtls/mbedtls-2.16.2/include/mbedtls/cipher.h ****     unsigned int block_size;
 275:/home/xingli/share/LiteOS_Lab/network/dtls/mbedtls/mbedtls-2.16.2/include/mbedtls/cipher.h **** 
 276:/home/xingli/share/LiteOS_Lab/network/dtls/mbedtls/mbedtls-2.16.2/include/mbedtls/cipher.h ****     /** Struct for base cipher information and functions. */
 277:/home/xingli/share/LiteOS_Lab/network/dtls/mbedtls/mbedtls-2.16.2/include/mbedtls/cipher.h ****     const mbedtls_cipher_base_t *base;
 278:/home/xingli/share/LiteOS_Lab/network/dtls/mbedtls/mbedtls-2.16.2/include/mbedtls/cipher.h **** 
GAS LISTING /tmp/ccaq2TqD.s 			page 6


 279:/home/xingli/share/LiteOS_Lab/network/dtls/mbedtls/mbedtls-2.16.2/include/mbedtls/cipher.h **** } mbedtls_cipher_info_t;
 280:/home/xingli/share/LiteOS_Lab/network/dtls/mbedtls/mbedtls-2.16.2/include/mbedtls/cipher.h **** 
 281:/home/xingli/share/LiteOS_Lab/network/dtls/mbedtls/mbedtls-2.16.2/include/mbedtls/cipher.h **** /**
 282:/home/xingli/share/LiteOS_Lab/network/dtls/mbedtls/mbedtls-2.16.2/include/mbedtls/cipher.h ****  * Generic cipher context.
 283:/home/xingli/share/LiteOS_Lab/network/dtls/mbedtls/mbedtls-2.16.2/include/mbedtls/cipher.h ****  */
 284:/home/xingli/share/LiteOS_Lab/network/dtls/mbedtls/mbedtls-2.16.2/include/mbedtls/cipher.h **** typedef struct mbedtls_cipher_context_t
 285:/home/xingli/share/LiteOS_Lab/network/dtls/mbedtls/mbedtls-2.16.2/include/mbedtls/cipher.h **** {
 286:/home/xingli/share/LiteOS_Lab/network/dtls/mbedtls/mbedtls-2.16.2/include/mbedtls/cipher.h ****     /** Information about the associated cipher. */
 287:/home/xingli/share/LiteOS_Lab/network/dtls/mbedtls/mbedtls-2.16.2/include/mbedtls/cipher.h ****     const mbedtls_cipher_info_t *cipher_info;
 288:/home/xingli/share/LiteOS_Lab/network/dtls/mbedtls/mbedtls-2.16.2/include/mbedtls/cipher.h **** 
 289:/home/xingli/share/LiteOS_Lab/network/dtls/mbedtls/mbedtls-2.16.2/include/mbedtls/cipher.h ****     /** Key length to use. */
 290:/home/xingli/share/LiteOS_Lab/network/dtls/mbedtls/mbedtls-2.16.2/include/mbedtls/cipher.h ****     int key_bitlen;
 291:/home/xingli/share/LiteOS_Lab/network/dtls/mbedtls/mbedtls-2.16.2/include/mbedtls/cipher.h **** 
 292:/home/xingli/share/LiteOS_Lab/network/dtls/mbedtls/mbedtls-2.16.2/include/mbedtls/cipher.h ****     /** Operation that the key of the context has been
 293:/home/xingli/share/LiteOS_Lab/network/dtls/mbedtls/mbedtls-2.16.2/include/mbedtls/cipher.h ****      * initialized for.
 294:/home/xingli/share/LiteOS_Lab/network/dtls/mbedtls/mbedtls-2.16.2/include/mbedtls/cipher.h ****      */
 295:/home/xingli/share/LiteOS_Lab/network/dtls/mbedtls/mbedtls-2.16.2/include/mbedtls/cipher.h ****     mbedtls_operation_t operation;
 296:/home/xingli/share/LiteOS_Lab/network/dtls/mbedtls/mbedtls-2.16.2/include/mbedtls/cipher.h **** 
 297:/home/xingli/share/LiteOS_Lab/network/dtls/mbedtls/mbedtls-2.16.2/include/mbedtls/cipher.h **** #if defined(MBEDTLS_CIPHER_MODE_WITH_PADDING)
 298:/home/xingli/share/LiteOS_Lab/network/dtls/mbedtls/mbedtls-2.16.2/include/mbedtls/cipher.h ****     /** Padding functions to use, if relevant for
 299:/home/xingli/share/LiteOS_Lab/network/dtls/mbedtls/mbedtls-2.16.2/include/mbedtls/cipher.h ****      * the specific cipher mode.
 300:/home/xingli/share/LiteOS_Lab/network/dtls/mbedtls/mbedtls-2.16.2/include/mbedtls/cipher.h ****      */
 301:/home/xingli/share/LiteOS_Lab/network/dtls/mbedtls/mbedtls-2.16.2/include/mbedtls/cipher.h ****     void (*add_padding)( unsigned char *output, size_t olen, size_t data_len );
 302:/home/xingli/share/LiteOS_Lab/network/dtls/mbedtls/mbedtls-2.16.2/include/mbedtls/cipher.h ****     int (*get_padding)( unsigned char *input, size_t ilen, size_t *data_len );
 303:/home/xingli/share/LiteOS_Lab/network/dtls/mbedtls/mbedtls-2.16.2/include/mbedtls/cipher.h **** #endif
 304:/home/xingli/share/LiteOS_Lab/network/dtls/mbedtls/mbedtls-2.16.2/include/mbedtls/cipher.h **** 
 305:/home/xingli/share/LiteOS_Lab/network/dtls/mbedtls/mbedtls-2.16.2/include/mbedtls/cipher.h ****     /** Buffer for input that has not been processed yet. */
 306:/home/xingli/share/LiteOS_Lab/network/dtls/mbedtls/mbedtls-2.16.2/include/mbedtls/cipher.h ****     unsigned char unprocessed_data[MBEDTLS_MAX_BLOCK_LENGTH];
 307:/home/xingli/share/LiteOS_Lab/network/dtls/mbedtls/mbedtls-2.16.2/include/mbedtls/cipher.h **** 
 308:/home/xingli/share/LiteOS_Lab/network/dtls/mbedtls/mbedtls-2.16.2/include/mbedtls/cipher.h ****     /** Number of Bytes that have not been processed yet. */
 309:/home/xingli/share/LiteOS_Lab/network/dtls/mbedtls/mbedtls-2.16.2/include/mbedtls/cipher.h ****     size_t unprocessed_len;
 310:/home/xingli/share/LiteOS_Lab/network/dtls/mbedtls/mbedtls-2.16.2/include/mbedtls/cipher.h **** 
 311:/home/xingli/share/LiteOS_Lab/network/dtls/mbedtls/mbedtls-2.16.2/include/mbedtls/cipher.h ****     /** Current IV or NONCE_COUNTER for CTR-mode, data unit (or sector) number
 312:/home/xingli/share/LiteOS_Lab/network/dtls/mbedtls/mbedtls-2.16.2/include/mbedtls/cipher.h ****      * for XTS-mode. */
 313:/home/xingli/share/LiteOS_Lab/network/dtls/mbedtls/mbedtls-2.16.2/include/mbedtls/cipher.h ****     unsigned char iv[MBEDTLS_MAX_IV_LENGTH];
 314:/home/xingli/share/LiteOS_Lab/network/dtls/mbedtls/mbedtls-2.16.2/include/mbedtls/cipher.h **** 
 315:/home/xingli/share/LiteOS_Lab/network/dtls/mbedtls/mbedtls-2.16.2/include/mbedtls/cipher.h ****     /** IV size in Bytes, for ciphers with variable-length IVs. */
 316:/home/xingli/share/LiteOS_Lab/network/dtls/mbedtls/mbedtls-2.16.2/include/mbedtls/cipher.h ****     size_t iv_size;
 317:/home/xingli/share/LiteOS_Lab/network/dtls/mbedtls/mbedtls-2.16.2/include/mbedtls/cipher.h **** 
 318:/home/xingli/share/LiteOS_Lab/network/dtls/mbedtls/mbedtls-2.16.2/include/mbedtls/cipher.h ****     /** The cipher-specific context. */
 319:/home/xingli/share/LiteOS_Lab/network/dtls/mbedtls/mbedtls-2.16.2/include/mbedtls/cipher.h ****     void *cipher_ctx;
 320:/home/xingli/share/LiteOS_Lab/network/dtls/mbedtls/mbedtls-2.16.2/include/mbedtls/cipher.h **** 
 321:/home/xingli/share/LiteOS_Lab/network/dtls/mbedtls/mbedtls-2.16.2/include/mbedtls/cipher.h **** #if defined(MBEDTLS_CMAC_C)
 322:/home/xingli/share/LiteOS_Lab/network/dtls/mbedtls/mbedtls-2.16.2/include/mbedtls/cipher.h ****     /** CMAC-specific context. */
 323:/home/xingli/share/LiteOS_Lab/network/dtls/mbedtls/mbedtls-2.16.2/include/mbedtls/cipher.h ****     mbedtls_cmac_context_t *cmac_ctx;
 324:/home/xingli/share/LiteOS_Lab/network/dtls/mbedtls/mbedtls-2.16.2/include/mbedtls/cipher.h **** #endif
 325:/home/xingli/share/LiteOS_Lab/network/dtls/mbedtls/mbedtls-2.16.2/include/mbedtls/cipher.h **** } mbedtls_cipher_context_t;
 326:/home/xingli/share/LiteOS_Lab/network/dtls/mbedtls/mbedtls-2.16.2/include/mbedtls/cipher.h **** 
 327:/home/xingli/share/LiteOS_Lab/network/dtls/mbedtls/mbedtls-2.16.2/include/mbedtls/cipher.h **** /**
 328:/home/xingli/share/LiteOS_Lab/network/dtls/mbedtls/mbedtls-2.16.2/include/mbedtls/cipher.h ****  * \brief This function retrieves the list of ciphers supported by the generic
 329:/home/xingli/share/LiteOS_Lab/network/dtls/mbedtls/mbedtls-2.16.2/include/mbedtls/cipher.h ****  * cipher module.
 330:/home/xingli/share/LiteOS_Lab/network/dtls/mbedtls/mbedtls-2.16.2/include/mbedtls/cipher.h ****  *
 331:/home/xingli/share/LiteOS_Lab/network/dtls/mbedtls/mbedtls-2.16.2/include/mbedtls/cipher.h ****  * \return      A statically-allocated array of ciphers. The last entry
 332:/home/xingli/share/LiteOS_Lab/network/dtls/mbedtls/mbedtls-2.16.2/include/mbedtls/cipher.h ****  *              is zero.
 333:/home/xingli/share/LiteOS_Lab/network/dtls/mbedtls/mbedtls-2.16.2/include/mbedtls/cipher.h ****  */
 334:/home/xingli/share/LiteOS_Lab/network/dtls/mbedtls/mbedtls-2.16.2/include/mbedtls/cipher.h **** const int *mbedtls_cipher_list( void );
 335:/home/xingli/share/LiteOS_Lab/network/dtls/mbedtls/mbedtls-2.16.2/include/mbedtls/cipher.h **** 
GAS LISTING /tmp/ccaq2TqD.s 			page 7


 336:/home/xingli/share/LiteOS_Lab/network/dtls/mbedtls/mbedtls-2.16.2/include/mbedtls/cipher.h **** /**
 337:/home/xingli/share/LiteOS_Lab/network/dtls/mbedtls/mbedtls-2.16.2/include/mbedtls/cipher.h ****  * \brief               This function retrieves the cipher-information
 338:/home/xingli/share/LiteOS_Lab/network/dtls/mbedtls/mbedtls-2.16.2/include/mbedtls/cipher.h ****  *                      structure associated with the given cipher name.
 339:/home/xingli/share/LiteOS_Lab/network/dtls/mbedtls/mbedtls-2.16.2/include/mbedtls/cipher.h ****  *
 340:/home/xingli/share/LiteOS_Lab/network/dtls/mbedtls/mbedtls-2.16.2/include/mbedtls/cipher.h ****  * \param cipher_name   Name of the cipher to search for. This must not be
 341:/home/xingli/share/LiteOS_Lab/network/dtls/mbedtls/mbedtls-2.16.2/include/mbedtls/cipher.h ****  *                      \c NULL.
 342:/home/xingli/share/LiteOS_Lab/network/dtls/mbedtls/mbedtls-2.16.2/include/mbedtls/cipher.h ****  *
 343:/home/xingli/share/LiteOS_Lab/network/dtls/mbedtls/mbedtls-2.16.2/include/mbedtls/cipher.h ****  * \return              The cipher information structure associated with the
 344:/home/xingli/share/LiteOS_Lab/network/dtls/mbedtls/mbedtls-2.16.2/include/mbedtls/cipher.h ****  *                      given \p cipher_name.
 345:/home/xingli/share/LiteOS_Lab/network/dtls/mbedtls/mbedtls-2.16.2/include/mbedtls/cipher.h ****  * \return              \c NULL if the associated cipher information is not found.
 346:/home/xingli/share/LiteOS_Lab/network/dtls/mbedtls/mbedtls-2.16.2/include/mbedtls/cipher.h ****  */
 347:/home/xingli/share/LiteOS_Lab/network/dtls/mbedtls/mbedtls-2.16.2/include/mbedtls/cipher.h **** const mbedtls_cipher_info_t *mbedtls_cipher_info_from_string( const char *cipher_name );
 348:/home/xingli/share/LiteOS_Lab/network/dtls/mbedtls/mbedtls-2.16.2/include/mbedtls/cipher.h **** 
 349:/home/xingli/share/LiteOS_Lab/network/dtls/mbedtls/mbedtls-2.16.2/include/mbedtls/cipher.h **** /**
 350:/home/xingli/share/LiteOS_Lab/network/dtls/mbedtls/mbedtls-2.16.2/include/mbedtls/cipher.h ****  * \brief               This function retrieves the cipher-information
 351:/home/xingli/share/LiteOS_Lab/network/dtls/mbedtls/mbedtls-2.16.2/include/mbedtls/cipher.h ****  *                      structure associated with the given cipher type.
 352:/home/xingli/share/LiteOS_Lab/network/dtls/mbedtls/mbedtls-2.16.2/include/mbedtls/cipher.h ****  *
 353:/home/xingli/share/LiteOS_Lab/network/dtls/mbedtls/mbedtls-2.16.2/include/mbedtls/cipher.h ****  * \param cipher_type   Type of the cipher to search for.
 354:/home/xingli/share/LiteOS_Lab/network/dtls/mbedtls/mbedtls-2.16.2/include/mbedtls/cipher.h ****  *
 355:/home/xingli/share/LiteOS_Lab/network/dtls/mbedtls/mbedtls-2.16.2/include/mbedtls/cipher.h ****  * \return              The cipher information structure associated with the
 356:/home/xingli/share/LiteOS_Lab/network/dtls/mbedtls/mbedtls-2.16.2/include/mbedtls/cipher.h ****  *                      given \p cipher_type.
 357:/home/xingli/share/LiteOS_Lab/network/dtls/mbedtls/mbedtls-2.16.2/include/mbedtls/cipher.h ****  * \return              \c NULL if the associated cipher information is not found.
 358:/home/xingli/share/LiteOS_Lab/network/dtls/mbedtls/mbedtls-2.16.2/include/mbedtls/cipher.h ****  */
 359:/home/xingli/share/LiteOS_Lab/network/dtls/mbedtls/mbedtls-2.16.2/include/mbedtls/cipher.h **** const mbedtls_cipher_info_t *mbedtls_cipher_info_from_type( const mbedtls_cipher_type_t cipher_type
 360:/home/xingli/share/LiteOS_Lab/network/dtls/mbedtls/mbedtls-2.16.2/include/mbedtls/cipher.h **** 
 361:/home/xingli/share/LiteOS_Lab/network/dtls/mbedtls/mbedtls-2.16.2/include/mbedtls/cipher.h **** /**
 362:/home/xingli/share/LiteOS_Lab/network/dtls/mbedtls/mbedtls-2.16.2/include/mbedtls/cipher.h ****  * \brief               This function retrieves the cipher-information
 363:/home/xingli/share/LiteOS_Lab/network/dtls/mbedtls/mbedtls-2.16.2/include/mbedtls/cipher.h ****  *                      structure associated with the given cipher ID,
 364:/home/xingli/share/LiteOS_Lab/network/dtls/mbedtls/mbedtls-2.16.2/include/mbedtls/cipher.h ****  *                      key size and mode.
 365:/home/xingli/share/LiteOS_Lab/network/dtls/mbedtls/mbedtls-2.16.2/include/mbedtls/cipher.h ****  *
 366:/home/xingli/share/LiteOS_Lab/network/dtls/mbedtls/mbedtls-2.16.2/include/mbedtls/cipher.h ****  * \param cipher_id     The ID of the cipher to search for. For example,
 367:/home/xingli/share/LiteOS_Lab/network/dtls/mbedtls/mbedtls-2.16.2/include/mbedtls/cipher.h ****  *                      #MBEDTLS_CIPHER_ID_AES.
 368:/home/xingli/share/LiteOS_Lab/network/dtls/mbedtls/mbedtls-2.16.2/include/mbedtls/cipher.h ****  * \param key_bitlen    The length of the key in bits.
 369:/home/xingli/share/LiteOS_Lab/network/dtls/mbedtls/mbedtls-2.16.2/include/mbedtls/cipher.h ****  * \param mode          The cipher mode. For example, #MBEDTLS_MODE_CBC.
 370:/home/xingli/share/LiteOS_Lab/network/dtls/mbedtls/mbedtls-2.16.2/include/mbedtls/cipher.h ****  *
 371:/home/xingli/share/LiteOS_Lab/network/dtls/mbedtls/mbedtls-2.16.2/include/mbedtls/cipher.h ****  * \return              The cipher information structure associated with the
 372:/home/xingli/share/LiteOS_Lab/network/dtls/mbedtls/mbedtls-2.16.2/include/mbedtls/cipher.h ****  *                      given \p cipher_id.
 373:/home/xingli/share/LiteOS_Lab/network/dtls/mbedtls/mbedtls-2.16.2/include/mbedtls/cipher.h ****  * \return              \c NULL if the associated cipher information is not found.
 374:/home/xingli/share/LiteOS_Lab/network/dtls/mbedtls/mbedtls-2.16.2/include/mbedtls/cipher.h ****  */
 375:/home/xingli/share/LiteOS_Lab/network/dtls/mbedtls/mbedtls-2.16.2/include/mbedtls/cipher.h **** const mbedtls_cipher_info_t *mbedtls_cipher_info_from_values( const mbedtls_cipher_id_t cipher_id,
 376:/home/xingli/share/LiteOS_Lab/network/dtls/mbedtls/mbedtls-2.16.2/include/mbedtls/cipher.h ****                                               int key_bitlen,
 377:/home/xingli/share/LiteOS_Lab/network/dtls/mbedtls/mbedtls-2.16.2/include/mbedtls/cipher.h ****                                               const mbedtls_cipher_mode_t mode );
 378:/home/xingli/share/LiteOS_Lab/network/dtls/mbedtls/mbedtls-2.16.2/include/mbedtls/cipher.h **** 
 379:/home/xingli/share/LiteOS_Lab/network/dtls/mbedtls/mbedtls-2.16.2/include/mbedtls/cipher.h **** /**
 380:/home/xingli/share/LiteOS_Lab/network/dtls/mbedtls/mbedtls-2.16.2/include/mbedtls/cipher.h ****  * \brief               This function initializes a \p cipher_context as NONE.
 381:/home/xingli/share/LiteOS_Lab/network/dtls/mbedtls/mbedtls-2.16.2/include/mbedtls/cipher.h ****  *
 382:/home/xingli/share/LiteOS_Lab/network/dtls/mbedtls/mbedtls-2.16.2/include/mbedtls/cipher.h ****  * \param ctx           The context to be initialized. This must not be \c NULL.
 383:/home/xingli/share/LiteOS_Lab/network/dtls/mbedtls/mbedtls-2.16.2/include/mbedtls/cipher.h ****  */
 384:/home/xingli/share/LiteOS_Lab/network/dtls/mbedtls/mbedtls-2.16.2/include/mbedtls/cipher.h **** void mbedtls_cipher_init( mbedtls_cipher_context_t *ctx );
 385:/home/xingli/share/LiteOS_Lab/network/dtls/mbedtls/mbedtls-2.16.2/include/mbedtls/cipher.h **** 
 386:/home/xingli/share/LiteOS_Lab/network/dtls/mbedtls/mbedtls-2.16.2/include/mbedtls/cipher.h **** /**
 387:/home/xingli/share/LiteOS_Lab/network/dtls/mbedtls/mbedtls-2.16.2/include/mbedtls/cipher.h ****  * \brief               This function frees and clears the cipher-specific
 388:/home/xingli/share/LiteOS_Lab/network/dtls/mbedtls/mbedtls-2.16.2/include/mbedtls/cipher.h ****  *                      context of \p ctx. Freeing \p ctx itself remains the
 389:/home/xingli/share/LiteOS_Lab/network/dtls/mbedtls/mbedtls-2.16.2/include/mbedtls/cipher.h ****  *                      responsibility of the caller.
 390:/home/xingli/share/LiteOS_Lab/network/dtls/mbedtls/mbedtls-2.16.2/include/mbedtls/cipher.h ****  *
 391:/home/xingli/share/LiteOS_Lab/network/dtls/mbedtls/mbedtls-2.16.2/include/mbedtls/cipher.h ****  * \param ctx           The context to be freed. If this is \c NULL, the
 392:/home/xingli/share/LiteOS_Lab/network/dtls/mbedtls/mbedtls-2.16.2/include/mbedtls/cipher.h ****  *                      function has no effect, otherwise this must point to an
GAS LISTING /tmp/ccaq2TqD.s 			page 8


 393:/home/xingli/share/LiteOS_Lab/network/dtls/mbedtls/mbedtls-2.16.2/include/mbedtls/cipher.h ****  *                      initialized context.
 394:/home/xingli/share/LiteOS_Lab/network/dtls/mbedtls/mbedtls-2.16.2/include/mbedtls/cipher.h ****  */
 395:/home/xingli/share/LiteOS_Lab/network/dtls/mbedtls/mbedtls-2.16.2/include/mbedtls/cipher.h **** void mbedtls_cipher_free( mbedtls_cipher_context_t *ctx );
 396:/home/xingli/share/LiteOS_Lab/network/dtls/mbedtls/mbedtls-2.16.2/include/mbedtls/cipher.h **** 
 397:/home/xingli/share/LiteOS_Lab/network/dtls/mbedtls/mbedtls-2.16.2/include/mbedtls/cipher.h **** 
 398:/home/xingli/share/LiteOS_Lab/network/dtls/mbedtls/mbedtls-2.16.2/include/mbedtls/cipher.h **** /**
 399:/home/xingli/share/LiteOS_Lab/network/dtls/mbedtls/mbedtls-2.16.2/include/mbedtls/cipher.h ****  * \brief               This function initializes and fills the cipher-context
 400:/home/xingli/share/LiteOS_Lab/network/dtls/mbedtls/mbedtls-2.16.2/include/mbedtls/cipher.h ****  *                      structure with the appropriate values. It also clears
 401:/home/xingli/share/LiteOS_Lab/network/dtls/mbedtls/mbedtls-2.16.2/include/mbedtls/cipher.h ****  *                      the structure.
 402:/home/xingli/share/LiteOS_Lab/network/dtls/mbedtls/mbedtls-2.16.2/include/mbedtls/cipher.h ****  *
 403:/home/xingli/share/LiteOS_Lab/network/dtls/mbedtls/mbedtls-2.16.2/include/mbedtls/cipher.h ****  * \param ctx           The context to initialize. This must be initialized.
 404:/home/xingli/share/LiteOS_Lab/network/dtls/mbedtls/mbedtls-2.16.2/include/mbedtls/cipher.h ****  * \param cipher_info   The cipher to use.
 405:/home/xingli/share/LiteOS_Lab/network/dtls/mbedtls/mbedtls-2.16.2/include/mbedtls/cipher.h ****  *
 406:/home/xingli/share/LiteOS_Lab/network/dtls/mbedtls/mbedtls-2.16.2/include/mbedtls/cipher.h ****  * \return              \c 0 on success.
 407:/home/xingli/share/LiteOS_Lab/network/dtls/mbedtls/mbedtls-2.16.2/include/mbedtls/cipher.h ****  * \return              #MBEDTLS_ERR_CIPHER_BAD_INPUT_DATA on
 408:/home/xingli/share/LiteOS_Lab/network/dtls/mbedtls/mbedtls-2.16.2/include/mbedtls/cipher.h ****  *                      parameter-verification failure.
 409:/home/xingli/share/LiteOS_Lab/network/dtls/mbedtls/mbedtls-2.16.2/include/mbedtls/cipher.h ****  * \return              #MBEDTLS_ERR_CIPHER_ALLOC_FAILED if allocation of the
 410:/home/xingli/share/LiteOS_Lab/network/dtls/mbedtls/mbedtls-2.16.2/include/mbedtls/cipher.h ****  *                      cipher-specific context fails.
 411:/home/xingli/share/LiteOS_Lab/network/dtls/mbedtls/mbedtls-2.16.2/include/mbedtls/cipher.h ****  *
 412:/home/xingli/share/LiteOS_Lab/network/dtls/mbedtls/mbedtls-2.16.2/include/mbedtls/cipher.h ****  * \internal Currently, the function also clears the structure.
 413:/home/xingli/share/LiteOS_Lab/network/dtls/mbedtls/mbedtls-2.16.2/include/mbedtls/cipher.h ****  * In future versions, the caller will be required to call
 414:/home/xingli/share/LiteOS_Lab/network/dtls/mbedtls/mbedtls-2.16.2/include/mbedtls/cipher.h ****  * mbedtls_cipher_init() on the structure first.
 415:/home/xingli/share/LiteOS_Lab/network/dtls/mbedtls/mbedtls-2.16.2/include/mbedtls/cipher.h ****  */
 416:/home/xingli/share/LiteOS_Lab/network/dtls/mbedtls/mbedtls-2.16.2/include/mbedtls/cipher.h **** int mbedtls_cipher_setup( mbedtls_cipher_context_t *ctx,
 417:/home/xingli/share/LiteOS_Lab/network/dtls/mbedtls/mbedtls-2.16.2/include/mbedtls/cipher.h ****                           const mbedtls_cipher_info_t *cipher_info );
 418:/home/xingli/share/LiteOS_Lab/network/dtls/mbedtls/mbedtls-2.16.2/include/mbedtls/cipher.h **** 
 419:/home/xingli/share/LiteOS_Lab/network/dtls/mbedtls/mbedtls-2.16.2/include/mbedtls/cipher.h **** /**
 420:/home/xingli/share/LiteOS_Lab/network/dtls/mbedtls/mbedtls-2.16.2/include/mbedtls/cipher.h ****  * \brief        This function returns the block size of the given cipher.
 421:/home/xingli/share/LiteOS_Lab/network/dtls/mbedtls/mbedtls-2.16.2/include/mbedtls/cipher.h ****  *
 422:/home/xingli/share/LiteOS_Lab/network/dtls/mbedtls/mbedtls-2.16.2/include/mbedtls/cipher.h ****  * \param ctx    The context of the cipher. This must be initialized.
 423:/home/xingli/share/LiteOS_Lab/network/dtls/mbedtls/mbedtls-2.16.2/include/mbedtls/cipher.h ****  *
 424:/home/xingli/share/LiteOS_Lab/network/dtls/mbedtls/mbedtls-2.16.2/include/mbedtls/cipher.h ****  * \return       The block size of the underlying cipher.
 425:/home/xingli/share/LiteOS_Lab/network/dtls/mbedtls/mbedtls-2.16.2/include/mbedtls/cipher.h ****  * \return       \c 0 if \p ctx has not been initialized.
 426:/home/xingli/share/LiteOS_Lab/network/dtls/mbedtls/mbedtls-2.16.2/include/mbedtls/cipher.h ****  */
 427:/home/xingli/share/LiteOS_Lab/network/dtls/mbedtls/mbedtls-2.16.2/include/mbedtls/cipher.h **** static inline unsigned int mbedtls_cipher_get_block_size(
 428:/home/xingli/share/LiteOS_Lab/network/dtls/mbedtls/mbedtls-2.16.2/include/mbedtls/cipher.h ****     const mbedtls_cipher_context_t *ctx )
 429:/home/xingli/share/LiteOS_Lab/network/dtls/mbedtls/mbedtls-2.16.2/include/mbedtls/cipher.h **** {
   9              		.loc 1 429 1
  10              		.cfi_startproc
  11 0000 55       		pushq	%rbp
  12              	.LCFI0:
  13              		.cfi_def_cfa_offset 16
  14              		.cfi_offset 6, -16
  15 0001 4889E5   		movq	%rsp, %rbp
  16              	.LCFI1:
  17              		.cfi_def_cfa_register 6
  18 0004 4883EC20 		subq	$32, %rsp
  19 0008 48897DE8 		movq	%rdi, -24(%rbp)
  20              		.loc 1 429 1
  21 000c 64488B04 		movq	%fs:40, %rax
  21      25280000 
  21      00
  22 0015 488945F8 		movq	%rax, -8(%rbp)
  23 0019 31C0     		xorl	%eax, %eax
 430:/home/xingli/share/LiteOS_Lab/network/dtls/mbedtls/mbedtls-2.16.2/include/mbedtls/cipher.h ****     MBEDTLS_INTERNAL_VALIDATE_RET( ctx != NULL, 0 );
 431:/home/xingli/share/LiteOS_Lab/network/dtls/mbedtls/mbedtls-2.16.2/include/mbedtls/cipher.h ****     if( ctx->cipher_info == NULL )
  24              		.loc 1 431 12
GAS LISTING /tmp/ccaq2TqD.s 			page 9


  25 001b 488B45E8 		movq	-24(%rbp), %rax
  26 001f 488B00   		movq	(%rax), %rax
  27              		.loc 1 431 7
  28 0022 4885C0   		testq	%rax, %rax
  29 0025 7507     		jne	.L2
 432:/home/xingli/share/LiteOS_Lab/network/dtls/mbedtls/mbedtls-2.16.2/include/mbedtls/cipher.h ****         return 0;
  30              		.loc 1 432 16
  31 0027 B8000000 		movl	$0, %eax
  31      00
  32 002c EB0A     		jmp	.L3
  33              	.L2:
 433:/home/xingli/share/LiteOS_Lab/network/dtls/mbedtls/mbedtls-2.16.2/include/mbedtls/cipher.h **** 
 434:/home/xingli/share/LiteOS_Lab/network/dtls/mbedtls/mbedtls-2.16.2/include/mbedtls/cipher.h ****     return ctx->cipher_info->block_size;
  34              		.loc 1 434 15
  35 002e 488B45E8 		movq	-24(%rbp), %rax
  36 0032 488B00   		movq	(%rax), %rax
  37              		.loc 1 434 28
  38 0035 8B4020   		movl	32(%rax), %eax
  39              	.L3:
 435:/home/xingli/share/LiteOS_Lab/network/dtls/mbedtls/mbedtls-2.16.2/include/mbedtls/cipher.h **** }
  40              		.loc 1 435 1
  41 0038 488B55F8 		movq	-8(%rbp), %rdx
  42 003c 64483314 		xorq	%fs:40, %rdx
  42      25280000 
  42      00
  43 0045 7405     		je	.L4
  44 0047 E8000000 		call	__stack_chk_fail@PLT
  44      00
  45              	.L4:
  46 004c C9       		leave
  47              	.LCFI2:
  48              		.cfi_def_cfa 7, 8
  49 004d C3       		ret
  50              		.cfi_endproc
  51              	.LFE0:
  53              		.section	.text.mbedtls_cipher_get_iv_size,"ax",@progbits
  55              	mbedtls_cipher_get_iv_size:
  56              	.LFB2:
 436:/home/xingli/share/LiteOS_Lab/network/dtls/mbedtls/mbedtls-2.16.2/include/mbedtls/cipher.h **** 
 437:/home/xingli/share/LiteOS_Lab/network/dtls/mbedtls/mbedtls-2.16.2/include/mbedtls/cipher.h **** /**
 438:/home/xingli/share/LiteOS_Lab/network/dtls/mbedtls/mbedtls-2.16.2/include/mbedtls/cipher.h ****  * \brief        This function returns the mode of operation for
 439:/home/xingli/share/LiteOS_Lab/network/dtls/mbedtls/mbedtls-2.16.2/include/mbedtls/cipher.h ****  *               the cipher. For example, MBEDTLS_MODE_CBC.
 440:/home/xingli/share/LiteOS_Lab/network/dtls/mbedtls/mbedtls-2.16.2/include/mbedtls/cipher.h ****  *
 441:/home/xingli/share/LiteOS_Lab/network/dtls/mbedtls/mbedtls-2.16.2/include/mbedtls/cipher.h ****  * \param ctx    The context of the cipher. This must be initialized.
 442:/home/xingli/share/LiteOS_Lab/network/dtls/mbedtls/mbedtls-2.16.2/include/mbedtls/cipher.h ****  *
 443:/home/xingli/share/LiteOS_Lab/network/dtls/mbedtls/mbedtls-2.16.2/include/mbedtls/cipher.h ****  * \return       The mode of operation.
 444:/home/xingli/share/LiteOS_Lab/network/dtls/mbedtls/mbedtls-2.16.2/include/mbedtls/cipher.h ****  * \return       #MBEDTLS_MODE_NONE if \p ctx has not been initialized.
 445:/home/xingli/share/LiteOS_Lab/network/dtls/mbedtls/mbedtls-2.16.2/include/mbedtls/cipher.h ****  */
 446:/home/xingli/share/LiteOS_Lab/network/dtls/mbedtls/mbedtls-2.16.2/include/mbedtls/cipher.h **** static inline mbedtls_cipher_mode_t mbedtls_cipher_get_cipher_mode(
 447:/home/xingli/share/LiteOS_Lab/network/dtls/mbedtls/mbedtls-2.16.2/include/mbedtls/cipher.h ****     const mbedtls_cipher_context_t *ctx )
 448:/home/xingli/share/LiteOS_Lab/network/dtls/mbedtls/mbedtls-2.16.2/include/mbedtls/cipher.h **** {
 449:/home/xingli/share/LiteOS_Lab/network/dtls/mbedtls/mbedtls-2.16.2/include/mbedtls/cipher.h ****     MBEDTLS_INTERNAL_VALIDATE_RET( ctx != NULL, MBEDTLS_MODE_NONE );
 450:/home/xingli/share/LiteOS_Lab/network/dtls/mbedtls/mbedtls-2.16.2/include/mbedtls/cipher.h ****     if( ctx->cipher_info == NULL )
 451:/home/xingli/share/LiteOS_Lab/network/dtls/mbedtls/mbedtls-2.16.2/include/mbedtls/cipher.h ****         return MBEDTLS_MODE_NONE;
 452:/home/xingli/share/LiteOS_Lab/network/dtls/mbedtls/mbedtls-2.16.2/include/mbedtls/cipher.h **** 
 453:/home/xingli/share/LiteOS_Lab/network/dtls/mbedtls/mbedtls-2.16.2/include/mbedtls/cipher.h ****     return ctx->cipher_info->mode;
 454:/home/xingli/share/LiteOS_Lab/network/dtls/mbedtls/mbedtls-2.16.2/include/mbedtls/cipher.h **** }
GAS LISTING /tmp/ccaq2TqD.s 			page 10


 455:/home/xingli/share/LiteOS_Lab/network/dtls/mbedtls/mbedtls-2.16.2/include/mbedtls/cipher.h **** 
 456:/home/xingli/share/LiteOS_Lab/network/dtls/mbedtls/mbedtls-2.16.2/include/mbedtls/cipher.h **** /**
 457:/home/xingli/share/LiteOS_Lab/network/dtls/mbedtls/mbedtls-2.16.2/include/mbedtls/cipher.h ****  * \brief       This function returns the size of the IV or nonce
 458:/home/xingli/share/LiteOS_Lab/network/dtls/mbedtls/mbedtls-2.16.2/include/mbedtls/cipher.h ****  *              of the cipher, in Bytes.
 459:/home/xingli/share/LiteOS_Lab/network/dtls/mbedtls/mbedtls-2.16.2/include/mbedtls/cipher.h ****  *
 460:/home/xingli/share/LiteOS_Lab/network/dtls/mbedtls/mbedtls-2.16.2/include/mbedtls/cipher.h ****  * \param ctx   The context of the cipher. This must be initialized.
 461:/home/xingli/share/LiteOS_Lab/network/dtls/mbedtls/mbedtls-2.16.2/include/mbedtls/cipher.h ****  *
 462:/home/xingli/share/LiteOS_Lab/network/dtls/mbedtls/mbedtls-2.16.2/include/mbedtls/cipher.h ****  * \return      The recommended IV size if no IV has been set.
 463:/home/xingli/share/LiteOS_Lab/network/dtls/mbedtls/mbedtls-2.16.2/include/mbedtls/cipher.h ****  * \return      \c 0 for ciphers not using an IV or a nonce.
 464:/home/xingli/share/LiteOS_Lab/network/dtls/mbedtls/mbedtls-2.16.2/include/mbedtls/cipher.h ****  * \return      The actual size if an IV has been set.
 465:/home/xingli/share/LiteOS_Lab/network/dtls/mbedtls/mbedtls-2.16.2/include/mbedtls/cipher.h ****  */
 466:/home/xingli/share/LiteOS_Lab/network/dtls/mbedtls/mbedtls-2.16.2/include/mbedtls/cipher.h **** static inline int mbedtls_cipher_get_iv_size(
 467:/home/xingli/share/LiteOS_Lab/network/dtls/mbedtls/mbedtls-2.16.2/include/mbedtls/cipher.h ****     const mbedtls_cipher_context_t *ctx )
 468:/home/xingli/share/LiteOS_Lab/network/dtls/mbedtls/mbedtls-2.16.2/include/mbedtls/cipher.h **** {
  57              		.loc 1 468 1
  58              		.cfi_startproc
  59 0000 55       		pushq	%rbp
  60              	.LCFI3:
  61              		.cfi_def_cfa_offset 16
  62              		.cfi_offset 6, -16
  63 0001 4889E5   		movq	%rsp, %rbp
  64              	.LCFI4:
  65              		.cfi_def_cfa_register 6
  66 0004 4883EC20 		subq	$32, %rsp
  67 0008 48897DE8 		movq	%rdi, -24(%rbp)
  68              		.loc 1 468 1
  69 000c 64488B04 		movq	%fs:40, %rax
  69      25280000 
  69      00
  70 0015 488945F8 		movq	%rax, -8(%rbp)
  71 0019 31C0     		xorl	%eax, %eax
 469:/home/xingli/share/LiteOS_Lab/network/dtls/mbedtls/mbedtls-2.16.2/include/mbedtls/cipher.h ****     MBEDTLS_INTERNAL_VALIDATE_RET( ctx != NULL, 0 );
 470:/home/xingli/share/LiteOS_Lab/network/dtls/mbedtls/mbedtls-2.16.2/include/mbedtls/cipher.h ****     if( ctx->cipher_info == NULL )
  72              		.loc 1 470 12
  73 001b 488B45E8 		movq	-24(%rbp), %rax
  74 001f 488B00   		movq	(%rax), %rax
  75              		.loc 1 470 7
  76 0022 4885C0   		testq	%rax, %rax
  77 0025 7507     		jne	.L6
 471:/home/xingli/share/LiteOS_Lab/network/dtls/mbedtls/mbedtls-2.16.2/include/mbedtls/cipher.h ****         return 0;
  78              		.loc 1 471 16
  79 0027 B8000000 		movl	$0, %eax
  79      00
  80 002c EB21     		jmp	.L7
  81              	.L6:
 472:/home/xingli/share/LiteOS_Lab/network/dtls/mbedtls/mbedtls-2.16.2/include/mbedtls/cipher.h **** 
 473:/home/xingli/share/LiteOS_Lab/network/dtls/mbedtls/mbedtls-2.16.2/include/mbedtls/cipher.h ****     if( ctx->iv_size != 0 )
  82              		.loc 1 473 12
  83 002e 488B45E8 		movq	-24(%rbp), %rax
  84 0032 488B4048 		movq	72(%rax), %rax
  85              		.loc 1 473 7
  86 0036 4885C0   		testq	%rax, %rax
  87 0039 740A     		je	.L8
 474:/home/xingli/share/LiteOS_Lab/network/dtls/mbedtls/mbedtls-2.16.2/include/mbedtls/cipher.h ****         return (int) ctx->iv_size;
  88              		.loc 1 474 25
  89 003b 488B45E8 		movq	-24(%rbp), %rax
  90 003f 488B4048 		movq	72(%rax), %rax
GAS LISTING /tmp/ccaq2TqD.s 			page 11


  91              		.loc 1 474 16
  92 0043 EB0A     		jmp	.L7
  93              	.L8:
 475:/home/xingli/share/LiteOS_Lab/network/dtls/mbedtls/mbedtls-2.16.2/include/mbedtls/cipher.h **** 
 476:/home/xingli/share/LiteOS_Lab/network/dtls/mbedtls/mbedtls-2.16.2/include/mbedtls/cipher.h ****     return (int) ctx->cipher_info->iv_size;
  94              		.loc 1 476 21
  95 0045 488B45E8 		movq	-24(%rbp), %rax
  96 0049 488B00   		movq	(%rax), %rax
  97              		.loc 1 476 34
  98 004c 8B4018   		movl	24(%rax), %eax
  99              	.L7:
 477:/home/xingli/share/LiteOS_Lab/network/dtls/mbedtls/mbedtls-2.16.2/include/mbedtls/cipher.h **** }
 100              		.loc 1 477 1
 101 004f 488B55F8 		movq	-8(%rbp), %rdx
 102 0053 64483314 		xorq	%fs:40, %rdx
 102      25280000 
 102      00
 103 005c 7405     		je	.L9
 104 005e E8000000 		call	__stack_chk_fail@PLT
 104      00
 105              	.L9:
 106 0063 C9       		leave
 107              	.LCFI5:
 108              		.cfi_def_cfa 7, 8
 109 0064 C3       		ret
 110              		.cfi_endproc
 111              	.LFE2:
 113              		.section	.text.mbedtls_constant_time_memcmp,"ax",@progbits
 115              	mbedtls_constant_time_memcmp:
 116              	.LFB13:
 117              		.file 2 "/home/xingli/share/LiteOS_Lab/network/dtls/mbedtls/mbedtls-2.16.2/library/cipher.c"
   1:/home/xingli/share/LiteOS_Lab/network/dtls/mbedtls/mbedtls-2.16.2/library/cipher.c **** /**
   2:/home/xingli/share/LiteOS_Lab/network/dtls/mbedtls/mbedtls-2.16.2/library/cipher.c ****  * \file cipher.c
   3:/home/xingli/share/LiteOS_Lab/network/dtls/mbedtls/mbedtls-2.16.2/library/cipher.c ****  *
   4:/home/xingli/share/LiteOS_Lab/network/dtls/mbedtls/mbedtls-2.16.2/library/cipher.c ****  * \brief Generic cipher wrapper for mbed TLS
   5:/home/xingli/share/LiteOS_Lab/network/dtls/mbedtls/mbedtls-2.16.2/library/cipher.c ****  *
   6:/home/xingli/share/LiteOS_Lab/network/dtls/mbedtls/mbedtls-2.16.2/library/cipher.c ****  * \author Adriaan de Jong <dejong@fox-it.com>
   7:/home/xingli/share/LiteOS_Lab/network/dtls/mbedtls/mbedtls-2.16.2/library/cipher.c ****  *
   8:/home/xingli/share/LiteOS_Lab/network/dtls/mbedtls/mbedtls-2.16.2/library/cipher.c ****  *  Copyright (C) 2006-2015, ARM Limited, All Rights Reserved
   9:/home/xingli/share/LiteOS_Lab/network/dtls/mbedtls/mbedtls-2.16.2/library/cipher.c ****  *  SPDX-License-Identifier: Apache-2.0
  10:/home/xingli/share/LiteOS_Lab/network/dtls/mbedtls/mbedtls-2.16.2/library/cipher.c ****  *
  11:/home/xingli/share/LiteOS_Lab/network/dtls/mbedtls/mbedtls-2.16.2/library/cipher.c ****  *  Licensed under the Apache License, Version 2.0 (the "License"); you may
  12:/home/xingli/share/LiteOS_Lab/network/dtls/mbedtls/mbedtls-2.16.2/library/cipher.c ****  *  not use this file except in compliance with the License.
  13:/home/xingli/share/LiteOS_Lab/network/dtls/mbedtls/mbedtls-2.16.2/library/cipher.c ****  *  You may obtain a copy of the License at
  14:/home/xingli/share/LiteOS_Lab/network/dtls/mbedtls/mbedtls-2.16.2/library/cipher.c ****  *
  15:/home/xingli/share/LiteOS_Lab/network/dtls/mbedtls/mbedtls-2.16.2/library/cipher.c ****  *  http://www.apache.org/licenses/LICENSE-2.0
  16:/home/xingli/share/LiteOS_Lab/network/dtls/mbedtls/mbedtls-2.16.2/library/cipher.c ****  *
  17:/home/xingli/share/LiteOS_Lab/network/dtls/mbedtls/mbedtls-2.16.2/library/cipher.c ****  *  Unless required by applicable law or agreed to in writing, software
  18:/home/xingli/share/LiteOS_Lab/network/dtls/mbedtls/mbedtls-2.16.2/library/cipher.c ****  *  distributed under the License is distributed on an "AS IS" BASIS, WITHOUT
  19:/home/xingli/share/LiteOS_Lab/network/dtls/mbedtls/mbedtls-2.16.2/library/cipher.c ****  *  WARRANTIES OR CONDITIONS OF ANY KIND, either express or implied.
  20:/home/xingli/share/LiteOS_Lab/network/dtls/mbedtls/mbedtls-2.16.2/library/cipher.c ****  *  See the License for the specific language governing permissions and
  21:/home/xingli/share/LiteOS_Lab/network/dtls/mbedtls/mbedtls-2.16.2/library/cipher.c ****  *  limitations under the License.
  22:/home/xingli/share/LiteOS_Lab/network/dtls/mbedtls/mbedtls-2.16.2/library/cipher.c ****  *
  23:/home/xingli/share/LiteOS_Lab/network/dtls/mbedtls/mbedtls-2.16.2/library/cipher.c ****  *  This file is part of mbed TLS (https://tls.mbed.org)
  24:/home/xingli/share/LiteOS_Lab/network/dtls/mbedtls/mbedtls-2.16.2/library/cipher.c ****  */
  25:/home/xingli/share/LiteOS_Lab/network/dtls/mbedtls/mbedtls-2.16.2/library/cipher.c **** 
  26:/home/xingli/share/LiteOS_Lab/network/dtls/mbedtls/mbedtls-2.16.2/library/cipher.c **** #if !defined(MBEDTLS_CONFIG_FILE)
GAS LISTING /tmp/ccaq2TqD.s 			page 12


  27:/home/xingli/share/LiteOS_Lab/network/dtls/mbedtls/mbedtls-2.16.2/library/cipher.c **** #include "mbedtls/config.h"
  28:/home/xingli/share/LiteOS_Lab/network/dtls/mbedtls/mbedtls-2.16.2/library/cipher.c **** #else
  29:/home/xingli/share/LiteOS_Lab/network/dtls/mbedtls/mbedtls-2.16.2/library/cipher.c **** #include MBEDTLS_CONFIG_FILE
  30:/home/xingli/share/LiteOS_Lab/network/dtls/mbedtls/mbedtls-2.16.2/library/cipher.c **** #endif
  31:/home/xingli/share/LiteOS_Lab/network/dtls/mbedtls/mbedtls-2.16.2/library/cipher.c **** 
  32:/home/xingli/share/LiteOS_Lab/network/dtls/mbedtls/mbedtls-2.16.2/library/cipher.c **** #if defined(MBEDTLS_CIPHER_C)
  33:/home/xingli/share/LiteOS_Lab/network/dtls/mbedtls/mbedtls-2.16.2/library/cipher.c **** 
  34:/home/xingli/share/LiteOS_Lab/network/dtls/mbedtls/mbedtls-2.16.2/library/cipher.c **** #include "mbedtls/cipher.h"
  35:/home/xingli/share/LiteOS_Lab/network/dtls/mbedtls/mbedtls-2.16.2/library/cipher.c **** #include "mbedtls/cipher_internal.h"
  36:/home/xingli/share/LiteOS_Lab/network/dtls/mbedtls/mbedtls-2.16.2/library/cipher.c **** #include "mbedtls/platform_util.h"
  37:/home/xingli/share/LiteOS_Lab/network/dtls/mbedtls/mbedtls-2.16.2/library/cipher.c **** 
  38:/home/xingli/share/LiteOS_Lab/network/dtls/mbedtls/mbedtls-2.16.2/library/cipher.c **** #include <stdlib.h>
  39:/home/xingli/share/LiteOS_Lab/network/dtls/mbedtls/mbedtls-2.16.2/library/cipher.c **** #include <string.h>
  40:/home/xingli/share/LiteOS_Lab/network/dtls/mbedtls/mbedtls-2.16.2/library/cipher.c **** 
  41:/home/xingli/share/LiteOS_Lab/network/dtls/mbedtls/mbedtls-2.16.2/library/cipher.c **** #if defined(MBEDTLS_CHACHAPOLY_C)
  42:/home/xingli/share/LiteOS_Lab/network/dtls/mbedtls/mbedtls-2.16.2/library/cipher.c **** #include "mbedtls/chachapoly.h"
  43:/home/xingli/share/LiteOS_Lab/network/dtls/mbedtls/mbedtls-2.16.2/library/cipher.c **** #endif
  44:/home/xingli/share/LiteOS_Lab/network/dtls/mbedtls/mbedtls-2.16.2/library/cipher.c **** 
  45:/home/xingli/share/LiteOS_Lab/network/dtls/mbedtls/mbedtls-2.16.2/library/cipher.c **** #if defined(MBEDTLS_GCM_C)
  46:/home/xingli/share/LiteOS_Lab/network/dtls/mbedtls/mbedtls-2.16.2/library/cipher.c **** #include "mbedtls/gcm.h"
  47:/home/xingli/share/LiteOS_Lab/network/dtls/mbedtls/mbedtls-2.16.2/library/cipher.c **** #endif
  48:/home/xingli/share/LiteOS_Lab/network/dtls/mbedtls/mbedtls-2.16.2/library/cipher.c **** 
  49:/home/xingli/share/LiteOS_Lab/network/dtls/mbedtls/mbedtls-2.16.2/library/cipher.c **** #if defined(MBEDTLS_CCM_C)
  50:/home/xingli/share/LiteOS_Lab/network/dtls/mbedtls/mbedtls-2.16.2/library/cipher.c **** #include "mbedtls/ccm.h"
  51:/home/xingli/share/LiteOS_Lab/network/dtls/mbedtls/mbedtls-2.16.2/library/cipher.c **** #endif
  52:/home/xingli/share/LiteOS_Lab/network/dtls/mbedtls/mbedtls-2.16.2/library/cipher.c **** 
  53:/home/xingli/share/LiteOS_Lab/network/dtls/mbedtls/mbedtls-2.16.2/library/cipher.c **** #if defined(MBEDTLS_CHACHA20_C)
  54:/home/xingli/share/LiteOS_Lab/network/dtls/mbedtls/mbedtls-2.16.2/library/cipher.c **** #include "mbedtls/chacha20.h"
  55:/home/xingli/share/LiteOS_Lab/network/dtls/mbedtls/mbedtls-2.16.2/library/cipher.c **** #endif
  56:/home/xingli/share/LiteOS_Lab/network/dtls/mbedtls/mbedtls-2.16.2/library/cipher.c **** 
  57:/home/xingli/share/LiteOS_Lab/network/dtls/mbedtls/mbedtls-2.16.2/library/cipher.c **** #if defined(MBEDTLS_CMAC_C)
  58:/home/xingli/share/LiteOS_Lab/network/dtls/mbedtls/mbedtls-2.16.2/library/cipher.c **** #include "mbedtls/cmac.h"
  59:/home/xingli/share/LiteOS_Lab/network/dtls/mbedtls/mbedtls-2.16.2/library/cipher.c **** #endif
  60:/home/xingli/share/LiteOS_Lab/network/dtls/mbedtls/mbedtls-2.16.2/library/cipher.c **** 
  61:/home/xingli/share/LiteOS_Lab/network/dtls/mbedtls/mbedtls-2.16.2/library/cipher.c **** #if defined(MBEDTLS_PLATFORM_C)
  62:/home/xingli/share/LiteOS_Lab/network/dtls/mbedtls/mbedtls-2.16.2/library/cipher.c **** #include "mbedtls/platform.h"
  63:/home/xingli/share/LiteOS_Lab/network/dtls/mbedtls/mbedtls-2.16.2/library/cipher.c **** #else
  64:/home/xingli/share/LiteOS_Lab/network/dtls/mbedtls/mbedtls-2.16.2/library/cipher.c **** #define mbedtls_calloc calloc
  65:/home/xingli/share/LiteOS_Lab/network/dtls/mbedtls/mbedtls-2.16.2/library/cipher.c **** #define mbedtls_free   free
  66:/home/xingli/share/LiteOS_Lab/network/dtls/mbedtls/mbedtls-2.16.2/library/cipher.c **** #endif
  67:/home/xingli/share/LiteOS_Lab/network/dtls/mbedtls/mbedtls-2.16.2/library/cipher.c **** 
  68:/home/xingli/share/LiteOS_Lab/network/dtls/mbedtls/mbedtls-2.16.2/library/cipher.c **** #define CIPHER_VALIDATE_RET( cond )    \
  69:/home/xingli/share/LiteOS_Lab/network/dtls/mbedtls/mbedtls-2.16.2/library/cipher.c ****     MBEDTLS_INTERNAL_VALIDATE_RET( cond, MBEDTLS_ERR_CIPHER_BAD_INPUT_DATA )
  70:/home/xingli/share/LiteOS_Lab/network/dtls/mbedtls/mbedtls-2.16.2/library/cipher.c **** #define CIPHER_VALIDATE( cond )        \
  71:/home/xingli/share/LiteOS_Lab/network/dtls/mbedtls/mbedtls-2.16.2/library/cipher.c ****     MBEDTLS_INTERNAL_VALIDATE( cond )
  72:/home/xingli/share/LiteOS_Lab/network/dtls/mbedtls/mbedtls-2.16.2/library/cipher.c **** 
  73:/home/xingli/share/LiteOS_Lab/network/dtls/mbedtls/mbedtls-2.16.2/library/cipher.c **** #if defined(MBEDTLS_GCM_C) || defined(MBEDTLS_CHACHAPOLY_C)
  74:/home/xingli/share/LiteOS_Lab/network/dtls/mbedtls/mbedtls-2.16.2/library/cipher.c **** /* Compare the contents of two buffers in constant time.
  75:/home/xingli/share/LiteOS_Lab/network/dtls/mbedtls/mbedtls-2.16.2/library/cipher.c ****  * Returns 0 if the contents are bitwise identical, otherwise returns
  76:/home/xingli/share/LiteOS_Lab/network/dtls/mbedtls/mbedtls-2.16.2/library/cipher.c ****  * a non-zero value.
  77:/home/xingli/share/LiteOS_Lab/network/dtls/mbedtls/mbedtls-2.16.2/library/cipher.c ****  * This is currently only used by GCM and ChaCha20+Poly1305.
  78:/home/xingli/share/LiteOS_Lab/network/dtls/mbedtls/mbedtls-2.16.2/library/cipher.c ****  */
  79:/home/xingli/share/LiteOS_Lab/network/dtls/mbedtls/mbedtls-2.16.2/library/cipher.c **** static int mbedtls_constant_time_memcmp( const void *v1, const void *v2, size_t len )
  80:/home/xingli/share/LiteOS_Lab/network/dtls/mbedtls/mbedtls-2.16.2/library/cipher.c **** {
 118              		.loc 2 80 1
 119              		.cfi_startproc
 120 0000 F30F1EFA 		endbr64
GAS LISTING /tmp/ccaq2TqD.s 			page 13


 121 0004 55       		pushq	%rbp
 122              	.LCFI6:
 123              		.cfi_def_cfa_offset 16
 124              		.cfi_offset 6, -16
 125 0005 4889E5   		movq	%rsp, %rbp
 126              	.LCFI7:
 127              		.cfi_def_cfa_register 6
 128 0008 4883EC50 		subq	$80, %rsp
 129 000c 48897DC8 		movq	%rdi, -56(%rbp)
 130 0010 488975C0 		movq	%rsi, -64(%rbp)
 131 0014 488955B8 		movq	%rdx, -72(%rbp)
 132              		.loc 2 80 1
 133 0018 64488B04 		movq	%fs:40, %rax
 133      25280000 
 133      00
 134 0021 488945F8 		movq	%rax, -8(%rbp)
 135 0025 31C0     		xorl	%eax, %eax
  81:/home/xingli/share/LiteOS_Lab/network/dtls/mbedtls/mbedtls-2.16.2/library/cipher.c ****     const unsigned char *p1 = (const unsigned char*) v1;
 136              		.loc 2 81 26
 137 0027 488B45C8 		movq	-56(%rbp), %rax
 138 002b 488945E8 		movq	%rax, -24(%rbp)
  82:/home/xingli/share/LiteOS_Lab/network/dtls/mbedtls/mbedtls-2.16.2/library/cipher.c ****     const unsigned char *p2 = (const unsigned char*) v2;
 139              		.loc 2 82 26
 140 002f 488B45C0 		movq	-64(%rbp), %rax
 141 0033 488945F0 		movq	%rax, -16(%rbp)
  83:/home/xingli/share/LiteOS_Lab/network/dtls/mbedtls/mbedtls-2.16.2/library/cipher.c ****     size_t i;
  84:/home/xingli/share/LiteOS_Lab/network/dtls/mbedtls/mbedtls-2.16.2/library/cipher.c ****     unsigned char diff;
  85:/home/xingli/share/LiteOS_Lab/network/dtls/mbedtls/mbedtls-2.16.2/library/cipher.c **** 
  86:/home/xingli/share/LiteOS_Lab/network/dtls/mbedtls/mbedtls-2.16.2/library/cipher.c ****     for( diff = 0, i = 0; i < len; i++ )
 142              		.loc 2 86 15
 143 0037 C645DF00 		movb	$0, -33(%rbp)
 144              		.loc 2 86 22
 145 003b 48C745E0 		movq	$0, -32(%rbp)
 145      00000000 
 146              		.loc 2 86 5
 147 0043 EB26     		jmp	.L11
 148              	.L12:
  87:/home/xingli/share/LiteOS_Lab/network/dtls/mbedtls/mbedtls-2.16.2/library/cipher.c ****         diff |= p1[i] ^ p2[i];
 149              		.loc 2 87 19 discriminator 3
 150 0045 488B55E8 		movq	-24(%rbp), %rdx
 151 0049 488B45E0 		movq	-32(%rbp), %rax
 152 004d 4801D0   		addq	%rdx, %rax
 153 0050 0FB608   		movzbl	(%rax), %ecx
 154              		.loc 2 87 27 discriminator 3
 155 0053 488B55F0 		movq	-16(%rbp), %rdx
 156 0057 488B45E0 		movq	-32(%rbp), %rax
 157 005b 4801D0   		addq	%rdx, %rax
 158 005e 0FB600   		movzbl	(%rax), %eax
 159              		.loc 2 87 14 discriminator 3
 160 0061 31C8     		xorl	%ecx, %eax
 161 0063 0845DF   		orb	%al, -33(%rbp)
  86:/home/xingli/share/LiteOS_Lab/network/dtls/mbedtls/mbedtls-2.16.2/library/cipher.c ****         diff |= p1[i] ^ p2[i];
 162              		.loc 2 86 37 discriminator 3
 163 0066 488345E0 		addq	$1, -32(%rbp)
 163      01
 164              	.L11:
  86:/home/xingli/share/LiteOS_Lab/network/dtls/mbedtls/mbedtls-2.16.2/library/cipher.c ****         diff |= p1[i] ^ p2[i];
GAS LISTING /tmp/ccaq2TqD.s 			page 14


 165              		.loc 2 86 5 discriminator 1
 166 006b 488B45E0 		movq	-32(%rbp), %rax
 167 006f 483B45B8 		cmpq	-72(%rbp), %rax
 168 0073 72D0     		jb	.L12
  88:/home/xingli/share/LiteOS_Lab/network/dtls/mbedtls/mbedtls-2.16.2/library/cipher.c **** 
  89:/home/xingli/share/LiteOS_Lab/network/dtls/mbedtls/mbedtls-2.16.2/library/cipher.c ****     return( (int)diff );
 169              		.loc 2 89 13
 170 0075 0FB645DF 		movzbl	-33(%rbp), %eax
  90:/home/xingli/share/LiteOS_Lab/network/dtls/mbedtls/mbedtls-2.16.2/library/cipher.c **** }
 171              		.loc 2 90 1
 172 0079 488B75F8 		movq	-8(%rbp), %rsi
 173 007d 64483334 		xorq	%fs:40, %rsi
 173      25280000 
 173      00
 174 0086 7405     		je	.L14
 175 0088 E8000000 		call	__stack_chk_fail@PLT
 175      00
 176              	.L14:
 177 008d C9       		leave
 178              	.LCFI8:
 179              		.cfi_def_cfa 7, 8
 180 008e C3       		ret
 181              		.cfi_endproc
 182              	.LFE13:
 184              		.section	.bss.supported_init,"aw",@nobits
 185              		.align 4
 188              	supported_init:
 189 0000 00000000 		.zero	4
 190              		.section	.text.mbedtls_cipher_list,"ax",@progbits
 191              		.globl	mbedtls_cipher_list
 193              	mbedtls_cipher_list:
 194              	.LFB14:
  91:/home/xingli/share/LiteOS_Lab/network/dtls/mbedtls/mbedtls-2.16.2/library/cipher.c **** #endif /* MBEDTLS_GCM_C || MBEDTLS_CHACHAPOLY_C */
  92:/home/xingli/share/LiteOS_Lab/network/dtls/mbedtls/mbedtls-2.16.2/library/cipher.c **** 
  93:/home/xingli/share/LiteOS_Lab/network/dtls/mbedtls/mbedtls-2.16.2/library/cipher.c **** static int supported_init = 0;
  94:/home/xingli/share/LiteOS_Lab/network/dtls/mbedtls/mbedtls-2.16.2/library/cipher.c **** 
  95:/home/xingli/share/LiteOS_Lab/network/dtls/mbedtls/mbedtls-2.16.2/library/cipher.c **** const int *mbedtls_cipher_list( void )
  96:/home/xingli/share/LiteOS_Lab/network/dtls/mbedtls/mbedtls-2.16.2/library/cipher.c **** {
 195              		.loc 2 96 1
 196              		.cfi_startproc
 197 0000 F30F1EFA 		endbr64
 198 0004 55       		pushq	%rbp
 199              	.LCFI9:
 200              		.cfi_def_cfa_offset 16
 201              		.cfi_offset 6, -16
 202 0005 4889E5   		movq	%rsp, %rbp
 203              	.LCFI10:
 204              		.cfi_def_cfa_register 6
 205 0008 4883EC20 		subq	$32, %rsp
 206              		.loc 2 96 1
 207 000c 64488B04 		movq	%fs:40, %rax
 207      25280000 
 207      00
 208 0015 488945F8 		movq	%rax, -8(%rbp)
 209 0019 31C0     		xorl	%eax, %eax
  97:/home/xingli/share/LiteOS_Lab/network/dtls/mbedtls/mbedtls-2.16.2/library/cipher.c ****     const mbedtls_cipher_definition_t *def;
  98:/home/xingli/share/LiteOS_Lab/network/dtls/mbedtls/mbedtls-2.16.2/library/cipher.c ****     int *type;
GAS LISTING /tmp/ccaq2TqD.s 			page 15


  99:/home/xingli/share/LiteOS_Lab/network/dtls/mbedtls/mbedtls-2.16.2/library/cipher.c **** 
 100:/home/xingli/share/LiteOS_Lab/network/dtls/mbedtls/mbedtls-2.16.2/library/cipher.c ****     if( ! supported_init )
 210              		.loc 2 100 9
 211 001b 8B050000 		movl	supported_init(%rip), %eax
 211      0000
 212              		.loc 2 100 7
 213 0021 85C0     		testl	%eax, %eax
 214 0023 7554     		jne	.L16
 101:/home/xingli/share/LiteOS_Lab/network/dtls/mbedtls/mbedtls-2.16.2/library/cipher.c ****     {
 102:/home/xingli/share/LiteOS_Lab/network/dtls/mbedtls/mbedtls-2.16.2/library/cipher.c ****         def = mbedtls_cipher_definitions;
 215              		.loc 2 102 13
 216 0025 488D0500 		leaq	mbedtls_cipher_definitions(%rip), %rax
 216      000000
 217 002c 488945E8 		movq	%rax, -24(%rbp)
 103:/home/xingli/share/LiteOS_Lab/network/dtls/mbedtls/mbedtls-2.16.2/library/cipher.c ****         type = mbedtls_cipher_supported;
 218              		.loc 2 103 14
 219 0030 488D0500 		leaq	mbedtls_cipher_supported(%rip), %rax
 219      000000
 220 0037 488945F0 		movq	%rax, -16(%rbp)
 104:/home/xingli/share/LiteOS_Lab/network/dtls/mbedtls/mbedtls-2.16.2/library/cipher.c **** 
 105:/home/xingli/share/LiteOS_Lab/network/dtls/mbedtls/mbedtls-2.16.2/library/cipher.c ****         while( def->type != 0 )
 221              		.loc 2 105 14
 222 003b EB1E     		jmp	.L17
 223              	.L18:
 106:/home/xingli/share/LiteOS_Lab/network/dtls/mbedtls/mbedtls-2.16.2/library/cipher.c ****             *type++ = (*def++).type;
 224              		.loc 2 106 28
 225 003d 488B45E8 		movq	-24(%rbp), %rax
 226 0041 488D5010 		leaq	16(%rax), %rdx
 227 0045 488955E8 		movq	%rdx, -24(%rbp)
 228              		.loc 2 106 31
 229 0049 8B08     		movl	(%rax), %ecx
 230              		.loc 2 106 18
 231 004b 488B45F0 		movq	-16(%rbp), %rax
 232 004f 488D5004 		leaq	4(%rax), %rdx
 233 0053 488955F0 		movq	%rdx, -16(%rbp)
 234              		.loc 2 106 31
 235 0057 89CA     		movl	%ecx, %edx
 236              		.loc 2 106 21
 237 0059 8910     		movl	%edx, (%rax)
 238              	.L17:
 105:/home/xingli/share/LiteOS_Lab/network/dtls/mbedtls/mbedtls-2.16.2/library/cipher.c ****             *type++ = (*def++).type;
 239              		.loc 2 105 19
 240 005b 488B45E8 		movq	-24(%rbp), %rax
 241 005f 8B00     		movl	(%rax), %eax
 105:/home/xingli/share/LiteOS_Lab/network/dtls/mbedtls/mbedtls-2.16.2/library/cipher.c ****             *type++ = (*def++).type;
 242              		.loc 2 105 14
 243 0061 85C0     		testl	%eax, %eax
 244 0063 75D8     		jne	.L18
 107:/home/xingli/share/LiteOS_Lab/network/dtls/mbedtls/mbedtls-2.16.2/library/cipher.c **** 
 108:/home/xingli/share/LiteOS_Lab/network/dtls/mbedtls/mbedtls-2.16.2/library/cipher.c ****         *type = 0;
 245              		.loc 2 108 15
 246 0065 488B45F0 		movq	-16(%rbp), %rax
 247 0069 C7000000 		movl	$0, (%rax)
 247      0000
 109:/home/xingli/share/LiteOS_Lab/network/dtls/mbedtls/mbedtls-2.16.2/library/cipher.c **** 
 110:/home/xingli/share/LiteOS_Lab/network/dtls/mbedtls/mbedtls-2.16.2/library/cipher.c ****         supported_init = 1;
 248              		.loc 2 110 24
GAS LISTING /tmp/ccaq2TqD.s 			page 16


 249 006f C7050000 		movl	$1, supported_init(%rip)
 249      00000100 
 249      0000
 250              	.L16:
 111:/home/xingli/share/LiteOS_Lab/network/dtls/mbedtls/mbedtls-2.16.2/library/cipher.c ****     }
 112:/home/xingli/share/LiteOS_Lab/network/dtls/mbedtls/mbedtls-2.16.2/library/cipher.c **** 
 113:/home/xingli/share/LiteOS_Lab/network/dtls/mbedtls/mbedtls-2.16.2/library/cipher.c ****     return( mbedtls_cipher_supported );
 251              		.loc 2 113 11
 252 0079 488D0500 		leaq	mbedtls_cipher_supported(%rip), %rax
 252      000000
 114:/home/xingli/share/LiteOS_Lab/network/dtls/mbedtls/mbedtls-2.16.2/library/cipher.c **** }
 253              		.loc 2 114 1
 254 0080 488B75F8 		movq	-8(%rbp), %rsi
 255 0084 64483334 		xorq	%fs:40, %rsi
 255      25280000 
 255      00
 256 008d 7405     		je	.L20
 257 008f E8000000 		call	__stack_chk_fail@PLT
 257      00
 258              	.L20:
 259 0094 C9       		leave
 260              	.LCFI11:
 261              		.cfi_def_cfa 7, 8
 262 0095 C3       		ret
 263              		.cfi_endproc
 264              	.LFE14:
 266              		.section	.text.mbedtls_cipher_info_from_type,"ax",@progbits
 267              		.globl	mbedtls_cipher_info_from_type
 269              	mbedtls_cipher_info_from_type:
 270              	.LFB15:
 115:/home/xingli/share/LiteOS_Lab/network/dtls/mbedtls/mbedtls-2.16.2/library/cipher.c **** 
 116:/home/xingli/share/LiteOS_Lab/network/dtls/mbedtls/mbedtls-2.16.2/library/cipher.c **** const mbedtls_cipher_info_t *mbedtls_cipher_info_from_type( const mbedtls_cipher_type_t cipher_type
 117:/home/xingli/share/LiteOS_Lab/network/dtls/mbedtls/mbedtls-2.16.2/library/cipher.c **** {
 271              		.loc 2 117 1
 272              		.cfi_startproc
 273 0000 F30F1EFA 		endbr64
 274 0004 55       		pushq	%rbp
 275              	.LCFI12:
 276              		.cfi_def_cfa_offset 16
 277              		.cfi_offset 6, -16
 278 0005 4889E5   		movq	%rsp, %rbp
 279              	.LCFI13:
 280              		.cfi_def_cfa_register 6
 281 0008 4883EC20 		subq	$32, %rsp
 282 000c 897DEC   		movl	%edi, -20(%rbp)
 283              		.loc 2 117 1
 284 000f 64488B04 		movq	%fs:40, %rax
 284      25280000 
 284      00
 285 0018 488945F8 		movq	%rax, -8(%rbp)
 286 001c 31C0     		xorl	%eax, %eax
 118:/home/xingli/share/LiteOS_Lab/network/dtls/mbedtls/mbedtls-2.16.2/library/cipher.c ****     const mbedtls_cipher_definition_t *def;
 119:/home/xingli/share/LiteOS_Lab/network/dtls/mbedtls/mbedtls-2.16.2/library/cipher.c **** 
 120:/home/xingli/share/LiteOS_Lab/network/dtls/mbedtls/mbedtls-2.16.2/library/cipher.c ****     for( def = mbedtls_cipher_definitions; def->info != NULL; def++ )
 287              		.loc 2 120 14
 288 001e 488D0500 		leaq	mbedtls_cipher_definitions(%rip), %rax
 288      000000
GAS LISTING /tmp/ccaq2TqD.s 			page 17


 289 0025 488945F0 		movq	%rax, -16(%rbp)
 290              		.loc 2 120 5
 291 0029 EB1A     		jmp	.L22
 292              	.L25:
 121:/home/xingli/share/LiteOS_Lab/network/dtls/mbedtls/mbedtls-2.16.2/library/cipher.c ****         if( def->type == cipher_type )
 293              		.loc 2 121 16
 294 002b 488B45F0 		movq	-16(%rbp), %rax
 295 002f 8B00     		movl	(%rax), %eax
 296              		.loc 2 121 11
 297 0031 3945EC   		cmpl	%eax, -20(%rbp)
 298 0034 750A     		jne	.L23
 122:/home/xingli/share/LiteOS_Lab/network/dtls/mbedtls/mbedtls-2.16.2/library/cipher.c ****             return( def->info );
 299              		.loc 2 122 24
 300 0036 488B45F0 		movq	-16(%rbp), %rax
 301 003a 488B4008 		movq	8(%rax), %rax
 302 003e EB17     		jmp	.L24
 303              	.L23:
 120:/home/xingli/share/LiteOS_Lab/network/dtls/mbedtls/mbedtls-2.16.2/library/cipher.c ****         if( def->type == cipher_type )
 304              		.loc 2 120 66 discriminator 2
 305 0040 488345F0 		addq	$16, -16(%rbp)
 305      10
 306              	.L22:
 120:/home/xingli/share/LiteOS_Lab/network/dtls/mbedtls/mbedtls-2.16.2/library/cipher.c ****         if( def->type == cipher_type )
 307              		.loc 2 120 47 discriminator 1
 308 0045 488B45F0 		movq	-16(%rbp), %rax
 309 0049 488B4008 		movq	8(%rax), %rax
 120:/home/xingli/share/LiteOS_Lab/network/dtls/mbedtls/mbedtls-2.16.2/library/cipher.c ****         if( def->type == cipher_type )
 310              		.loc 2 120 5 discriminator 1
 311 004d 4885C0   		testq	%rax, %rax
 312 0050 75D9     		jne	.L25
 123:/home/xingli/share/LiteOS_Lab/network/dtls/mbedtls/mbedtls-2.16.2/library/cipher.c **** 
 124:/home/xingli/share/LiteOS_Lab/network/dtls/mbedtls/mbedtls-2.16.2/library/cipher.c ****     return( NULL );
 313              		.loc 2 124 11
 314 0052 B8000000 		movl	$0, %eax
 314      00
 315              	.L24:
 125:/home/xingli/share/LiteOS_Lab/network/dtls/mbedtls/mbedtls-2.16.2/library/cipher.c **** }
 316              		.loc 2 125 1
 317 0057 488B55F8 		movq	-8(%rbp), %rdx
 318 005b 64483314 		xorq	%fs:40, %rdx
 318      25280000 
 318      00
 319 0064 7405     		je	.L26
 320 0066 E8000000 		call	__stack_chk_fail@PLT
 320      00
 321              	.L26:
 322 006b C9       		leave
 323              	.LCFI14:
 324              		.cfi_def_cfa 7, 8
 325 006c C3       		ret
 326              		.cfi_endproc
 327              	.LFE15:
 329              		.section	.text.mbedtls_cipher_info_from_string,"ax",@progbits
 330              		.globl	mbedtls_cipher_info_from_string
 332              	mbedtls_cipher_info_from_string:
 333              	.LFB16:
 126:/home/xingli/share/LiteOS_Lab/network/dtls/mbedtls/mbedtls-2.16.2/library/cipher.c **** 
GAS LISTING /tmp/ccaq2TqD.s 			page 18


 127:/home/xingli/share/LiteOS_Lab/network/dtls/mbedtls/mbedtls-2.16.2/library/cipher.c **** const mbedtls_cipher_info_t *mbedtls_cipher_info_from_string( const char *cipher_name )
 128:/home/xingli/share/LiteOS_Lab/network/dtls/mbedtls/mbedtls-2.16.2/library/cipher.c **** {
 334              		.loc 2 128 1
 335              		.cfi_startproc
 336 0000 F30F1EFA 		endbr64
 337 0004 55       		pushq	%rbp
 338              	.LCFI15:
 339              		.cfi_def_cfa_offset 16
 340              		.cfi_offset 6, -16
 341 0005 4889E5   		movq	%rsp, %rbp
 342              	.LCFI16:
 343              		.cfi_def_cfa_register 6
 344 0008 4883EC20 		subq	$32, %rsp
 345 000c 48897DE8 		movq	%rdi, -24(%rbp)
 346              		.loc 2 128 1
 347 0010 64488B04 		movq	%fs:40, %rax
 347      25280000 
 347      00
 348 0019 488945F8 		movq	%rax, -8(%rbp)
 349 001d 31C0     		xorl	%eax, %eax
 129:/home/xingli/share/LiteOS_Lab/network/dtls/mbedtls/mbedtls-2.16.2/library/cipher.c ****     const mbedtls_cipher_definition_t *def;
 130:/home/xingli/share/LiteOS_Lab/network/dtls/mbedtls/mbedtls-2.16.2/library/cipher.c **** 
 131:/home/xingli/share/LiteOS_Lab/network/dtls/mbedtls/mbedtls-2.16.2/library/cipher.c ****     if( NULL == cipher_name )
 350              		.loc 2 131 7
 351 001f 48837DE8 		cmpq	$0, -24(%rbp)
 351      00
 352 0024 7507     		jne	.L28
 132:/home/xingli/share/LiteOS_Lab/network/dtls/mbedtls/mbedtls-2.16.2/library/cipher.c ****         return( NULL );
 353              		.loc 2 132 15
 354 0026 B8000000 		movl	$0, %eax
 354      00
 355 002b EB4D     		jmp	.L29
 356              	.L28:
 133:/home/xingli/share/LiteOS_Lab/network/dtls/mbedtls/mbedtls-2.16.2/library/cipher.c **** 
 134:/home/xingli/share/LiteOS_Lab/network/dtls/mbedtls/mbedtls-2.16.2/library/cipher.c ****     for( def = mbedtls_cipher_definitions; def->info != NULL; def++ )
 357              		.loc 2 134 14
 358 002d 488D0500 		leaq	mbedtls_cipher_definitions(%rip), %rax
 358      000000
 359 0034 488945F0 		movq	%rax, -16(%rbp)
 360              		.loc 2 134 5
 361 0038 EB2E     		jmp	.L30
 362              	.L32:
 135:/home/xingli/share/LiteOS_Lab/network/dtls/mbedtls/mbedtls-2.16.2/library/cipher.c ****         if( !  strcmp( def->info->name, cipher_name ) )
 363              		.loc 2 135 27
 364 003a 488B45F0 		movq	-16(%rbp), %rax
 365 003e 488B4008 		movq	8(%rax), %rax
 366              		.loc 2 135 16
 367 0042 488B4010 		movq	16(%rax), %rax
 368 0046 488B55E8 		movq	-24(%rbp), %rdx
 369 004a 4889D6   		movq	%rdx, %rsi
 370 004d 4889C7   		movq	%rax, %rdi
 371 0050 E8000000 		call	strcmp@PLT
 371      00
 372              		.loc 2 135 11
 373 0055 85C0     		testl	%eax, %eax
 374 0057 750A     		jne	.L31
 136:/home/xingli/share/LiteOS_Lab/network/dtls/mbedtls/mbedtls-2.16.2/library/cipher.c ****             return( def->info );
GAS LISTING /tmp/ccaq2TqD.s 			page 19


 375              		.loc 2 136 24
 376 0059 488B45F0 		movq	-16(%rbp), %rax
 377 005d 488B4008 		movq	8(%rax), %rax
 378 0061 EB17     		jmp	.L29
 379              	.L31:
 134:/home/xingli/share/LiteOS_Lab/network/dtls/mbedtls/mbedtls-2.16.2/library/cipher.c ****         if( !  strcmp( def->info->name, cipher_name ) )
 380              		.loc 2 134 66 discriminator 2
 381 0063 488345F0 		addq	$16, -16(%rbp)
 381      10
 382              	.L30:
 134:/home/xingli/share/LiteOS_Lab/network/dtls/mbedtls/mbedtls-2.16.2/library/cipher.c ****         if( !  strcmp( def->info->name, cipher_name ) )
 383              		.loc 2 134 47 discriminator 1
 384 0068 488B45F0 		movq	-16(%rbp), %rax
 385 006c 488B4008 		movq	8(%rax), %rax
 134:/home/xingli/share/LiteOS_Lab/network/dtls/mbedtls/mbedtls-2.16.2/library/cipher.c ****         if( !  strcmp( def->info->name, cipher_name ) )
 386              		.loc 2 134 5 discriminator 1
 387 0070 4885C0   		testq	%rax, %rax
 388 0073 75C5     		jne	.L32
 137:/home/xingli/share/LiteOS_Lab/network/dtls/mbedtls/mbedtls-2.16.2/library/cipher.c **** 
 138:/home/xingli/share/LiteOS_Lab/network/dtls/mbedtls/mbedtls-2.16.2/library/cipher.c ****     return( NULL );
 389              		.loc 2 138 11
 390 0075 B8000000 		movl	$0, %eax
 390      00
 391              	.L29:
 139:/home/xingli/share/LiteOS_Lab/network/dtls/mbedtls/mbedtls-2.16.2/library/cipher.c **** }
 392              		.loc 2 139 1
 393 007a 488B4DF8 		movq	-8(%rbp), %rcx
 394 007e 6448330C 		xorq	%fs:40, %rcx
 394      25280000 
 394      00
 395 0087 7405     		je	.L33
 396 0089 E8000000 		call	__stack_chk_fail@PLT
 396      00
 397              	.L33:
 398 008e C9       		leave
 399              	.LCFI17:
 400              		.cfi_def_cfa 7, 8
 401 008f C3       		ret
 402              		.cfi_endproc
 403              	.LFE16:
 405              		.section	.text.mbedtls_cipher_info_from_values,"ax",@progbits
 406              		.globl	mbedtls_cipher_info_from_values
 408              	mbedtls_cipher_info_from_values:
 409              	.LFB17:
 140:/home/xingli/share/LiteOS_Lab/network/dtls/mbedtls/mbedtls-2.16.2/library/cipher.c **** 
 141:/home/xingli/share/LiteOS_Lab/network/dtls/mbedtls/mbedtls-2.16.2/library/cipher.c **** const mbedtls_cipher_info_t *mbedtls_cipher_info_from_values( const mbedtls_cipher_id_t cipher_id,
 142:/home/xingli/share/LiteOS_Lab/network/dtls/mbedtls/mbedtls-2.16.2/library/cipher.c ****                                               int key_bitlen,
 143:/home/xingli/share/LiteOS_Lab/network/dtls/mbedtls/mbedtls-2.16.2/library/cipher.c ****                                               const mbedtls_cipher_mode_t mode )
 144:/home/xingli/share/LiteOS_Lab/network/dtls/mbedtls/mbedtls-2.16.2/library/cipher.c **** {
 410              		.loc 2 144 1
 411              		.cfi_startproc
 412 0000 F30F1EFA 		endbr64
 413 0004 55       		pushq	%rbp
 414              	.LCFI18:
 415              		.cfi_def_cfa_offset 16
 416              		.cfi_offset 6, -16
 417 0005 4889E5   		movq	%rsp, %rbp
GAS LISTING /tmp/ccaq2TqD.s 			page 20


 418              	.LCFI19:
 419              		.cfi_def_cfa_register 6
 420 0008 4883EC20 		subq	$32, %rsp
 421 000c 897DEC   		movl	%edi, -20(%rbp)
 422 000f 8975E8   		movl	%esi, -24(%rbp)
 423 0012 8955E4   		movl	%edx, -28(%rbp)
 424              		.loc 2 144 1
 425 0015 64488B04 		movq	%fs:40, %rax
 425      25280000 
 425      00
 426 001e 488945F8 		movq	%rax, -8(%rbp)
 427 0022 31C0     		xorl	%eax, %eax
 145:/home/xingli/share/LiteOS_Lab/network/dtls/mbedtls/mbedtls-2.16.2/library/cipher.c ****     const mbedtls_cipher_definition_t *def;
 146:/home/xingli/share/LiteOS_Lab/network/dtls/mbedtls/mbedtls-2.16.2/library/cipher.c **** 
 147:/home/xingli/share/LiteOS_Lab/network/dtls/mbedtls/mbedtls-2.16.2/library/cipher.c ****     for( def = mbedtls_cipher_definitions; def->info != NULL; def++ )
 428              		.loc 2 147 14
 429 0024 488D0500 		leaq	mbedtls_cipher_definitions(%rip), %rax
 429      000000
 430 002b 488945F0 		movq	%rax, -16(%rbp)
 431              		.loc 2 147 5
 432 002f EB44     		jmp	.L35
 433              	.L38:
 148:/home/xingli/share/LiteOS_Lab/network/dtls/mbedtls/mbedtls-2.16.2/library/cipher.c ****         if( def->info->base->cipher == cipher_id &&
 434              		.loc 2 148 16
 435 0031 488B45F0 		movq	-16(%rbp), %rax
 436 0035 488B4008 		movq	8(%rax), %rax
 437              		.loc 2 148 22
 438 0039 488B4028 		movq	40(%rax), %rax
 439              		.loc 2 148 28
 440 003d 8B00     		movl	(%rax), %eax
 441              		.loc 2 148 11
 442 003f 3945EC   		cmpl	%eax, -20(%rbp)
 443 0042 752C     		jne	.L36
 149:/home/xingli/share/LiteOS_Lab/network/dtls/mbedtls/mbedtls-2.16.2/library/cipher.c ****             def->info->key_bitlen == (unsigned) key_bitlen &&
 444              		.loc 2 149 16 discriminator 1
 445 0044 488B45F0 		movq	-16(%rbp), %rax
 446 0048 488B4008 		movq	8(%rax), %rax
 447              		.loc 2 149 22 discriminator 1
 448 004c 8B5008   		movl	8(%rax), %edx
 449              		.loc 2 149 35 discriminator 1
 450 004f 8B45E8   		movl	-24(%rbp), %eax
 148:/home/xingli/share/LiteOS_Lab/network/dtls/mbedtls/mbedtls-2.16.2/library/cipher.c ****         if( def->info->base->cipher == cipher_id &&
 451              		.loc 2 148 50 discriminator 1
 452 0052 39C2     		cmpl	%eax, %edx
 453 0054 751A     		jne	.L36
 150:/home/xingli/share/LiteOS_Lab/network/dtls/mbedtls/mbedtls-2.16.2/library/cipher.c ****             def->info->mode == mode )
 454              		.loc 2 150 16
 455 0056 488B45F0 		movq	-16(%rbp), %rax
 456 005a 488B4008 		movq	8(%rax), %rax
 457              		.loc 2 150 22
 458 005e 8B4004   		movl	4(%rax), %eax
 149:/home/xingli/share/LiteOS_Lab/network/dtls/mbedtls/mbedtls-2.16.2/library/cipher.c ****             def->info->key_bitlen == (unsigned) key_bitlen &&
 459              		.loc 2 149 60
 460 0061 3945E4   		cmpl	%eax, -28(%rbp)
 461 0064 750A     		jne	.L36
 151:/home/xingli/share/LiteOS_Lab/network/dtls/mbedtls/mbedtls-2.16.2/library/cipher.c ****             return( def->info );
 462              		.loc 2 151 24
GAS LISTING /tmp/ccaq2TqD.s 			page 21


 463 0066 488B45F0 		movq	-16(%rbp), %rax
 464 006a 488B4008 		movq	8(%rax), %rax
 465 006e EB17     		jmp	.L37
 466              	.L36:
 147:/home/xingli/share/LiteOS_Lab/network/dtls/mbedtls/mbedtls-2.16.2/library/cipher.c ****         if( def->info->base->cipher == cipher_id &&
 467              		.loc 2 147 66 discriminator 2
 468 0070 488345F0 		addq	$16, -16(%rbp)
 468      10
 469              	.L35:
 147:/home/xingli/share/LiteOS_Lab/network/dtls/mbedtls/mbedtls-2.16.2/library/cipher.c ****         if( def->info->base->cipher == cipher_id &&
 470              		.loc 2 147 47 discriminator 1
 471 0075 488B45F0 		movq	-16(%rbp), %rax
 472 0079 488B4008 		movq	8(%rax), %rax
 147:/home/xingli/share/LiteOS_Lab/network/dtls/mbedtls/mbedtls-2.16.2/library/cipher.c ****         if( def->info->base->cipher == cipher_id &&
 473              		.loc 2 147 5 discriminator 1
 474 007d 4885C0   		testq	%rax, %rax
 475 0080 75AF     		jne	.L38
 152:/home/xingli/share/LiteOS_Lab/network/dtls/mbedtls/mbedtls-2.16.2/library/cipher.c **** 
 153:/home/xingli/share/LiteOS_Lab/network/dtls/mbedtls/mbedtls-2.16.2/library/cipher.c ****     return( NULL );
 476              		.loc 2 153 11
 477 0082 B8000000 		movl	$0, %eax
 477      00
 478              	.L37:
 154:/home/xingli/share/LiteOS_Lab/network/dtls/mbedtls/mbedtls-2.16.2/library/cipher.c **** }
 479              		.loc 2 154 1
 480 0087 488B4DF8 		movq	-8(%rbp), %rcx
 481 008b 6448330C 		xorq	%fs:40, %rcx
 481      25280000 
 481      00
 482 0094 7405     		je	.L39
 483 0096 E8000000 		call	__stack_chk_fail@PLT
 483      00
 484              	.L39:
 485 009b C9       		leave
 486              	.LCFI20:
 487              		.cfi_def_cfa 7, 8
 488 009c C3       		ret
 489              		.cfi_endproc
 490              	.LFE17:
 492              		.section	.text.mbedtls_cipher_init,"ax",@progbits
 493              		.globl	mbedtls_cipher_init
 495              	mbedtls_cipher_init:
 496              	.LFB18:
 155:/home/xingli/share/LiteOS_Lab/network/dtls/mbedtls/mbedtls-2.16.2/library/cipher.c **** 
 156:/home/xingli/share/LiteOS_Lab/network/dtls/mbedtls/mbedtls-2.16.2/library/cipher.c **** void mbedtls_cipher_init( mbedtls_cipher_context_t *ctx )
 157:/home/xingli/share/LiteOS_Lab/network/dtls/mbedtls/mbedtls-2.16.2/library/cipher.c **** {
 497              		.loc 2 157 1
 498              		.cfi_startproc
 499 0000 F30F1EFA 		endbr64
 500 0004 55       		pushq	%rbp
 501              	.LCFI21:
 502              		.cfi_def_cfa_offset 16
 503              		.cfi_offset 6, -16
 504 0005 4889E5   		movq	%rsp, %rbp
 505              	.LCFI22:
 506              		.cfi_def_cfa_register 6
 507 0008 4883EC20 		subq	$32, %rsp
GAS LISTING /tmp/ccaq2TqD.s 			page 22


 508 000c 48897DE8 		movq	%rdi, -24(%rbp)
 509              		.loc 2 157 1
 510 0010 64488B04 		movq	%fs:40, %rax
 510      25280000 
 510      00
 511 0019 488945F8 		movq	%rax, -8(%rbp)
 512 001d 31C0     		xorl	%eax, %eax
 158:/home/xingli/share/LiteOS_Lab/network/dtls/mbedtls/mbedtls-2.16.2/library/cipher.c ****     CIPHER_VALIDATE( ctx != NULL );
 159:/home/xingli/share/LiteOS_Lab/network/dtls/mbedtls/mbedtls-2.16.2/library/cipher.c ****     memset( ctx, 0, sizeof( mbedtls_cipher_context_t ) );
 513              		.loc 2 159 5
 514 001f 488B45E8 		movq	-24(%rbp), %rax
 515 0023 BA580000 		movl	$88, %edx
 515      00
 516 0028 BE000000 		movl	$0, %esi
 516      00
 517 002d 4889C7   		movq	%rax, %rdi
 518 0030 E8000000 		call	memset@PLT
 518      00
 160:/home/xingli/share/LiteOS_Lab/network/dtls/mbedtls/mbedtls-2.16.2/library/cipher.c **** }
 519              		.loc 2 160 1
 520 0035 90       		nop
 521 0036 488B45F8 		movq	-8(%rbp), %rax
 522 003a 64483304 		xorq	%fs:40, %rax
 522      25280000 
 522      00
 523 0043 7405     		je	.L41
 524 0045 E8000000 		call	__stack_chk_fail@PLT
 524      00
 525              	.L41:
 526 004a C9       		leave
 527              	.LCFI23:
 528              		.cfi_def_cfa 7, 8
 529 004b C3       		ret
 530              		.cfi_endproc
 531              	.LFE18:
 533              		.section	.text.mbedtls_cipher_free,"ax",@progbits
 534              		.globl	mbedtls_cipher_free
 536              	mbedtls_cipher_free:
 537              	.LFB19:
 161:/home/xingli/share/LiteOS_Lab/network/dtls/mbedtls/mbedtls-2.16.2/library/cipher.c **** 
 162:/home/xingli/share/LiteOS_Lab/network/dtls/mbedtls/mbedtls-2.16.2/library/cipher.c **** void mbedtls_cipher_free( mbedtls_cipher_context_t *ctx )
 163:/home/xingli/share/LiteOS_Lab/network/dtls/mbedtls/mbedtls-2.16.2/library/cipher.c **** {
 538              		.loc 2 163 1
 539              		.cfi_startproc
 540 0000 F30F1EFA 		endbr64
 541 0004 55       		pushq	%rbp
 542              	.LCFI24:
 543              		.cfi_def_cfa_offset 16
 544              		.cfi_offset 6, -16
 545 0005 4889E5   		movq	%rsp, %rbp
 546              	.LCFI25:
 547              		.cfi_def_cfa_register 6
 548 0008 4883EC20 		subq	$32, %rsp
 549 000c 48897DE8 		movq	%rdi, -24(%rbp)
 550              		.loc 2 163 1
 551 0010 64488B04 		movq	%fs:40, %rax
 551      25280000 
GAS LISTING /tmp/ccaq2TqD.s 			page 23


 551      00
 552 0019 488945F8 		movq	%rax, -8(%rbp)
 553 001d 31C0     		xorl	%eax, %eax
 164:/home/xingli/share/LiteOS_Lab/network/dtls/mbedtls/mbedtls-2.16.2/library/cipher.c ****     if( ctx == NULL )
 554              		.loc 2 164 7
 555 001f 48837DE8 		cmpq	$0, -24(%rbp)
 555      00
 556 0024 743C     		je	.L47
 165:/home/xingli/share/LiteOS_Lab/network/dtls/mbedtls/mbedtls-2.16.2/library/cipher.c ****         return;
 166:/home/xingli/share/LiteOS_Lab/network/dtls/mbedtls/mbedtls-2.16.2/library/cipher.c **** 
 167:/home/xingli/share/LiteOS_Lab/network/dtls/mbedtls/mbedtls-2.16.2/library/cipher.c **** #if defined(MBEDTLS_CMAC_C)
 168:/home/xingli/share/LiteOS_Lab/network/dtls/mbedtls/mbedtls-2.16.2/library/cipher.c ****     if( ctx->cmac_ctx )
 169:/home/xingli/share/LiteOS_Lab/network/dtls/mbedtls/mbedtls-2.16.2/library/cipher.c ****     {
 170:/home/xingli/share/LiteOS_Lab/network/dtls/mbedtls/mbedtls-2.16.2/library/cipher.c ****        mbedtls_platform_zeroize( ctx->cmac_ctx,
 171:/home/xingli/share/LiteOS_Lab/network/dtls/mbedtls/mbedtls-2.16.2/library/cipher.c ****                                  sizeof( mbedtls_cmac_context_t ) );
 172:/home/xingli/share/LiteOS_Lab/network/dtls/mbedtls/mbedtls-2.16.2/library/cipher.c ****        mbedtls_free( ctx->cmac_ctx );
 173:/home/xingli/share/LiteOS_Lab/network/dtls/mbedtls/mbedtls-2.16.2/library/cipher.c ****     }
 174:/home/xingli/share/LiteOS_Lab/network/dtls/mbedtls/mbedtls-2.16.2/library/cipher.c **** #endif
 175:/home/xingli/share/LiteOS_Lab/network/dtls/mbedtls/mbedtls-2.16.2/library/cipher.c **** 
 176:/home/xingli/share/LiteOS_Lab/network/dtls/mbedtls/mbedtls-2.16.2/library/cipher.c ****     if( ctx->cipher_ctx )
 557              		.loc 2 176 12
 558 0026 488B45E8 		movq	-24(%rbp), %rax
 559 002a 488B4050 		movq	80(%rax), %rax
 560              		.loc 2 176 7
 561 002e 4885C0   		testq	%rax, %rax
 562 0031 741C     		je	.L45
 177:/home/xingli/share/LiteOS_Lab/network/dtls/mbedtls/mbedtls-2.16.2/library/cipher.c ****         ctx->cipher_info->base->ctx_free_func( ctx->cipher_ctx );
 563              		.loc 2 177 12
 564 0033 488B45E8 		movq	-24(%rbp), %rax
 565 0037 488B00   		movq	(%rax), %rax
 566              		.loc 2 177 25
 567 003a 488B4028 		movq	40(%rax), %rax
 568              		.loc 2 177 31
 569 003e 488B5030 		movq	48(%rax), %rdx
 570              		.loc 2 177 9
 571 0042 488B45E8 		movq	-24(%rbp), %rax
 572 0046 488B4050 		movq	80(%rax), %rax
 573 004a 4889C7   		movq	%rax, %rdi
 574 004d FFD2     		call	*%rdx
 575              	.LVL0:
 576              	.L45:
 178:/home/xingli/share/LiteOS_Lab/network/dtls/mbedtls/mbedtls-2.16.2/library/cipher.c **** 
 179:/home/xingli/share/LiteOS_Lab/network/dtls/mbedtls/mbedtls-2.16.2/library/cipher.c ****     mbedtls_platform_zeroize( ctx, sizeof(mbedtls_cipher_context_t) );
 577              		.loc 2 179 5
 578 004f 488B45E8 		movq	-24(%rbp), %rax
 579 0053 BE580000 		movl	$88, %esi
 579      00
 580 0058 4889C7   		movq	%rax, %rdi
 581 005b E8000000 		call	mbedtls_platform_zeroize@PLT
 581      00
 582 0060 EB01     		jmp	.L42
 583              	.L47:
 165:/home/xingli/share/LiteOS_Lab/network/dtls/mbedtls/mbedtls-2.16.2/library/cipher.c **** 
 584              		.loc 2 165 9
 585 0062 90       		nop
 586              	.L42:
 180:/home/xingli/share/LiteOS_Lab/network/dtls/mbedtls/mbedtls-2.16.2/library/cipher.c **** }
GAS LISTING /tmp/ccaq2TqD.s 			page 24


 587              		.loc 2 180 1
 588 0063 488B45F8 		movq	-8(%rbp), %rax
 589 0067 64483304 		xorq	%fs:40, %rax
 589      25280000 
 589      00
 590 0070 7405     		je	.L46
 591 0072 E8000000 		call	__stack_chk_fail@PLT
 591      00
 592              	.L46:
 593 0077 C9       		leave
 594              	.LCFI26:
 595              		.cfi_def_cfa 7, 8
 596 0078 C3       		ret
 597              		.cfi_endproc
 598              	.LFE19:
 600              		.section	.text.mbedtls_cipher_setup,"ax",@progbits
 601              		.globl	mbedtls_cipher_setup
 603              	mbedtls_cipher_setup:
 604              	.LFB20:
 181:/home/xingli/share/LiteOS_Lab/network/dtls/mbedtls/mbedtls-2.16.2/library/cipher.c **** 
 182:/home/xingli/share/LiteOS_Lab/network/dtls/mbedtls/mbedtls-2.16.2/library/cipher.c **** int mbedtls_cipher_setup( mbedtls_cipher_context_t *ctx, const mbedtls_cipher_info_t *cipher_info )
 183:/home/xingli/share/LiteOS_Lab/network/dtls/mbedtls/mbedtls-2.16.2/library/cipher.c **** {
 605              		.loc 2 183 1
 606              		.cfi_startproc
 607 0000 F30F1EFA 		endbr64
 608 0004 55       		pushq	%rbp
 609              	.LCFI27:
 610              		.cfi_def_cfa_offset 16
 611              		.cfi_offset 6, -16
 612 0005 4889E5   		movq	%rsp, %rbp
 613              	.LCFI28:
 614              		.cfi_def_cfa_register 6
 615 0008 4883EC20 		subq	$32, %rsp
 616 000c 48897DE8 		movq	%rdi, -24(%rbp)
 617 0010 488975E0 		movq	%rsi, -32(%rbp)
 618              		.loc 2 183 1
 619 0014 64488B04 		movq	%fs:40, %rax
 619      25280000 
 619      00
 620 001d 488945F8 		movq	%rax, -8(%rbp)
 621 0021 31C0     		xorl	%eax, %eax
 184:/home/xingli/share/LiteOS_Lab/network/dtls/mbedtls/mbedtls-2.16.2/library/cipher.c ****     CIPHER_VALIDATE_RET( ctx != NULL );
 185:/home/xingli/share/LiteOS_Lab/network/dtls/mbedtls/mbedtls-2.16.2/library/cipher.c ****     if( cipher_info == NULL )
 622              		.loc 2 185 7
 623 0023 48837DE0 		cmpq	$0, -32(%rbp)
 623      00
 624 0028 7507     		jne	.L49
 186:/home/xingli/share/LiteOS_Lab/network/dtls/mbedtls/mbedtls-2.16.2/library/cipher.c ****         return( MBEDTLS_ERR_CIPHER_BAD_INPUT_DATA );
 625              		.loc 2 186 15
 626 002a B8009FFF 		movl	$-24832, %eax
 626      FF
 627 002f EB61     		jmp	.L50
 628              	.L49:
 187:/home/xingli/share/LiteOS_Lab/network/dtls/mbedtls/mbedtls-2.16.2/library/cipher.c **** 
 188:/home/xingli/share/LiteOS_Lab/network/dtls/mbedtls/mbedtls-2.16.2/library/cipher.c ****     memset( ctx, 0, sizeof( mbedtls_cipher_context_t ) );
 629              		.loc 2 188 5
 630 0031 488B45E8 		movq	-24(%rbp), %rax
GAS LISTING /tmp/ccaq2TqD.s 			page 25


 631 0035 BA580000 		movl	$88, %edx
 631      00
 632 003a BE000000 		movl	$0, %esi
 632      00
 633 003f 4889C7   		movq	%rax, %rdi
 634 0042 E8000000 		call	memset@PLT
 634      00
 189:/home/xingli/share/LiteOS_Lab/network/dtls/mbedtls/mbedtls-2.16.2/library/cipher.c **** 
 190:/home/xingli/share/LiteOS_Lab/network/dtls/mbedtls/mbedtls-2.16.2/library/cipher.c ****     if( NULL == ( ctx->cipher_ctx = cipher_info->base->ctx_alloc_func() ) )
 635              		.loc 2 190 48
 636 0047 488B45E0 		movq	-32(%rbp), %rax
 637 004b 488B4028 		movq	40(%rax), %rax
 638              		.loc 2 190 54
 639 004f 488B4028 		movq	40(%rax), %rax
 640              		.loc 2 190 37
 641 0053 FFD0     		call	*%rax
 642              	.LVL1:
 643              		.loc 2 190 35
 644 0055 488B55E8 		movq	-24(%rbp), %rdx
 645 0059 48894250 		movq	%rax, 80(%rdx)
 646              		.loc 2 190 22
 647 005d 488B45E8 		movq	-24(%rbp), %rax
 648 0061 488B4050 		movq	80(%rax), %rax
 649              		.loc 2 190 7
 650 0065 4885C0   		testq	%rax, %rax
 651 0068 7507     		jne	.L51
 191:/home/xingli/share/LiteOS_Lab/network/dtls/mbedtls/mbedtls-2.16.2/library/cipher.c ****         return( MBEDTLS_ERR_CIPHER_ALLOC_FAILED );
 652              		.loc 2 191 15
 653 006a B8809EFF 		movl	$-24960, %eax
 653      FF
 654 006f EB21     		jmp	.L50
 655              	.L51:
 192:/home/xingli/share/LiteOS_Lab/network/dtls/mbedtls/mbedtls-2.16.2/library/cipher.c **** 
 193:/home/xingli/share/LiteOS_Lab/network/dtls/mbedtls/mbedtls-2.16.2/library/cipher.c ****     ctx->cipher_info = cipher_info;
 656              		.loc 2 193 22
 657 0071 488B45E8 		movq	-24(%rbp), %rax
 658 0075 488B55E0 		movq	-32(%rbp), %rdx
 659 0079 488910   		movq	%rdx, (%rax)
 194:/home/xingli/share/LiteOS_Lab/network/dtls/mbedtls/mbedtls-2.16.2/library/cipher.c **** 
 195:/home/xingli/share/LiteOS_Lab/network/dtls/mbedtls/mbedtls-2.16.2/library/cipher.c **** #if defined(MBEDTLS_CIPHER_MODE_WITH_PADDING)
 196:/home/xingli/share/LiteOS_Lab/network/dtls/mbedtls/mbedtls-2.16.2/library/cipher.c ****     /*
 197:/home/xingli/share/LiteOS_Lab/network/dtls/mbedtls/mbedtls-2.16.2/library/cipher.c ****      * Ignore possible errors caused by a cipher mode that doesn't use padding
 198:/home/xingli/share/LiteOS_Lab/network/dtls/mbedtls/mbedtls-2.16.2/library/cipher.c ****      */
 199:/home/xingli/share/LiteOS_Lab/network/dtls/mbedtls/mbedtls-2.16.2/library/cipher.c **** #if defined(MBEDTLS_CIPHER_PADDING_PKCS7)
 200:/home/xingli/share/LiteOS_Lab/network/dtls/mbedtls/mbedtls-2.16.2/library/cipher.c ****     (void) mbedtls_cipher_set_padding_mode( ctx, MBEDTLS_PADDING_PKCS7 );
 660              		.loc 2 200 12
 661 007c 488B45E8 		movq	-24(%rbp), %rax
 662 0080 BE000000 		movl	$0, %esi
 662      00
 663 0085 4889C7   		movq	%rax, %rdi
 664 0088 E8000000 		call	mbedtls_cipher_set_padding_mode
 664      00
 201:/home/xingli/share/LiteOS_Lab/network/dtls/mbedtls/mbedtls-2.16.2/library/cipher.c **** #else
 202:/home/xingli/share/LiteOS_Lab/network/dtls/mbedtls/mbedtls-2.16.2/library/cipher.c ****     (void) mbedtls_cipher_set_padding_mode( ctx, MBEDTLS_PADDING_NONE );
 203:/home/xingli/share/LiteOS_Lab/network/dtls/mbedtls/mbedtls-2.16.2/library/cipher.c **** #endif
 204:/home/xingli/share/LiteOS_Lab/network/dtls/mbedtls/mbedtls-2.16.2/library/cipher.c **** #endif /* MBEDTLS_CIPHER_MODE_WITH_PADDING */
 205:/home/xingli/share/LiteOS_Lab/network/dtls/mbedtls/mbedtls-2.16.2/library/cipher.c **** 
GAS LISTING /tmp/ccaq2TqD.s 			page 26


 206:/home/xingli/share/LiteOS_Lab/network/dtls/mbedtls/mbedtls-2.16.2/library/cipher.c ****     return( 0 );
 665              		.loc 2 206 11
 666 008d B8000000 		movl	$0, %eax
 666      00
 667              	.L50:
 207:/home/xingli/share/LiteOS_Lab/network/dtls/mbedtls/mbedtls-2.16.2/library/cipher.c **** }
 668              		.loc 2 207 1
 669 0092 488B4DF8 		movq	-8(%rbp), %rcx
 670 0096 6448330C 		xorq	%fs:40, %rcx
 670      25280000 
 670      00
 671 009f 7405     		je	.L52
 672 00a1 E8000000 		call	__stack_chk_fail@PLT
 672      00
 673              	.L52:
 674 00a6 C9       		leave
 675              	.LCFI29:
 676              		.cfi_def_cfa 7, 8
 677 00a7 C3       		ret
 678              		.cfi_endproc
 679              	.LFE20:
 681              		.section	.text.mbedtls_cipher_setkey,"ax",@progbits
 682              		.globl	mbedtls_cipher_setkey
 684              	mbedtls_cipher_setkey:
 685              	.LFB21:
 208:/home/xingli/share/LiteOS_Lab/network/dtls/mbedtls/mbedtls-2.16.2/library/cipher.c **** 
 209:/home/xingli/share/LiteOS_Lab/network/dtls/mbedtls/mbedtls-2.16.2/library/cipher.c **** int mbedtls_cipher_setkey( mbedtls_cipher_context_t *ctx,
 210:/home/xingli/share/LiteOS_Lab/network/dtls/mbedtls/mbedtls-2.16.2/library/cipher.c ****                            const unsigned char *key,
 211:/home/xingli/share/LiteOS_Lab/network/dtls/mbedtls/mbedtls-2.16.2/library/cipher.c ****                            int key_bitlen,
 212:/home/xingli/share/LiteOS_Lab/network/dtls/mbedtls/mbedtls-2.16.2/library/cipher.c ****                            const mbedtls_operation_t operation )
 213:/home/xingli/share/LiteOS_Lab/network/dtls/mbedtls/mbedtls-2.16.2/library/cipher.c **** {
 686              		.loc 2 213 1
 687              		.cfi_startproc
 688 0000 F30F1EFA 		endbr64
 689 0004 55       		pushq	%rbp
 690              	.LCFI30:
 691              		.cfi_def_cfa_offset 16
 692              		.cfi_offset 6, -16
 693 0005 4889E5   		movq	%rsp, %rbp
 694              	.LCFI31:
 695              		.cfi_def_cfa_register 6
 696 0008 4883EC30 		subq	$48, %rsp
 697 000c 48897DE8 		movq	%rdi, -24(%rbp)
 698 0010 488975E0 		movq	%rsi, -32(%rbp)
 699 0014 8955DC   		movl	%edx, -36(%rbp)
 700 0017 894DD8   		movl	%ecx, -40(%rbp)
 701              		.loc 2 213 1
 702 001a 64488B04 		movq	%fs:40, %rax
 702      25280000 
 702      00
 703 0023 488945F8 		movq	%rax, -8(%rbp)
 704 0027 31C0     		xorl	%eax, %eax
 214:/home/xingli/share/LiteOS_Lab/network/dtls/mbedtls/mbedtls-2.16.2/library/cipher.c ****     CIPHER_VALIDATE_RET( ctx != NULL );
 215:/home/xingli/share/LiteOS_Lab/network/dtls/mbedtls/mbedtls-2.16.2/library/cipher.c ****     CIPHER_VALIDATE_RET( key != NULL );
 216:/home/xingli/share/LiteOS_Lab/network/dtls/mbedtls/mbedtls-2.16.2/library/cipher.c ****     CIPHER_VALIDATE_RET( operation == MBEDTLS_ENCRYPT ||
 217:/home/xingli/share/LiteOS_Lab/network/dtls/mbedtls/mbedtls-2.16.2/library/cipher.c ****                          operation == MBEDTLS_DECRYPT );
 218:/home/xingli/share/LiteOS_Lab/network/dtls/mbedtls/mbedtls-2.16.2/library/cipher.c ****     if( ctx->cipher_info == NULL )
GAS LISTING /tmp/ccaq2TqD.s 			page 27


 705              		.loc 2 218 12
 706 0029 488B45E8 		movq	-24(%rbp), %rax
 707 002d 488B00   		movq	(%rax), %rax
 708              		.loc 2 218 7
 709 0030 4885C0   		testq	%rax, %rax
 710 0033 750A     		jne	.L54
 219:/home/xingli/share/LiteOS_Lab/network/dtls/mbedtls/mbedtls-2.16.2/library/cipher.c ****         return( MBEDTLS_ERR_CIPHER_BAD_INPUT_DATA );
 711              		.loc 2 219 15
 712 0035 B8009FFF 		movl	$-24832, %eax
 712      FF
 713 003a E9DA0000 		jmp	.L55
 713      00
 714              	.L54:
 220:/home/xingli/share/LiteOS_Lab/network/dtls/mbedtls/mbedtls-2.16.2/library/cipher.c **** 
 221:/home/xingli/share/LiteOS_Lab/network/dtls/mbedtls/mbedtls-2.16.2/library/cipher.c ****     if( ( ctx->cipher_info->flags & MBEDTLS_CIPHER_VARIABLE_KEY_LEN ) == 0 &&
 715              		.loc 2 221 14
 716 003f 488B45E8 		movq	-24(%rbp), %rax
 717 0043 488B00   		movq	(%rax), %rax
 718              		.loc 2 221 27
 719 0046 8B401C   		movl	28(%rax), %eax
 720              		.loc 2 221 35
 721 0049 83E002   		andl	$2, %eax
 722              		.loc 2 221 7
 723 004c 85C0     		testl	%eax, %eax
 724 004e 7519     		jne	.L56
 222:/home/xingli/share/LiteOS_Lab/network/dtls/mbedtls/mbedtls-2.16.2/library/cipher.c ****         (int) ctx->cipher_info->key_bitlen != key_bitlen )
 725              		.loc 2 222 18 discriminator 1
 726 0050 488B45E8 		movq	-24(%rbp), %rax
 727 0054 488B00   		movq	(%rax), %rax
 728              		.loc 2 222 31 discriminator 1
 729 0057 8B4008   		movl	8(%rax), %eax
 221:/home/xingli/share/LiteOS_Lab/network/dtls/mbedtls/mbedtls-2.16.2/library/cipher.c ****         (int) ctx->cipher_info->key_bitlen != key_bitlen )
 730              		.loc 2 221 76 discriminator 1
 731 005a 3945DC   		cmpl	%eax, -36(%rbp)
 732 005d 740A     		je	.L56
 223:/home/xingli/share/LiteOS_Lab/network/dtls/mbedtls/mbedtls-2.16.2/library/cipher.c ****     {
 224:/home/xingli/share/LiteOS_Lab/network/dtls/mbedtls/mbedtls-2.16.2/library/cipher.c ****         return( MBEDTLS_ERR_CIPHER_BAD_INPUT_DATA );
 733              		.loc 2 224 15
 734 005f B8009FFF 		movl	$-24832, %eax
 734      FF
 735 0064 E9B00000 		jmp	.L55
 735      00
 736              	.L56:
 225:/home/xingli/share/LiteOS_Lab/network/dtls/mbedtls/mbedtls-2.16.2/library/cipher.c ****     }
 226:/home/xingli/share/LiteOS_Lab/network/dtls/mbedtls/mbedtls-2.16.2/library/cipher.c **** 
 227:/home/xingli/share/LiteOS_Lab/network/dtls/mbedtls/mbedtls-2.16.2/library/cipher.c ****     ctx->key_bitlen = key_bitlen;
 737              		.loc 2 227 21
 738 0069 488B45E8 		movq	-24(%rbp), %rax
 739 006d 8B55DC   		movl	-36(%rbp), %edx
 740 0070 895008   		movl	%edx, 8(%rax)
 228:/home/xingli/share/LiteOS_Lab/network/dtls/mbedtls/mbedtls-2.16.2/library/cipher.c ****     ctx->operation = operation;
 741              		.loc 2 228 20
 742 0073 488B45E8 		movq	-24(%rbp), %rax
 743 0077 8B55D8   		movl	-40(%rbp), %edx
 744 007a 89500C   		movl	%edx, 12(%rax)
 229:/home/xingli/share/LiteOS_Lab/network/dtls/mbedtls/mbedtls-2.16.2/library/cipher.c **** 
 230:/home/xingli/share/LiteOS_Lab/network/dtls/mbedtls/mbedtls-2.16.2/library/cipher.c ****     /*
GAS LISTING /tmp/ccaq2TqD.s 			page 28


 231:/home/xingli/share/LiteOS_Lab/network/dtls/mbedtls/mbedtls-2.16.2/library/cipher.c ****      * For OFB, CFB and CTR mode always use the encryption key schedule
 232:/home/xingli/share/LiteOS_Lab/network/dtls/mbedtls/mbedtls-2.16.2/library/cipher.c ****      */
 233:/home/xingli/share/LiteOS_Lab/network/dtls/mbedtls/mbedtls-2.16.2/library/cipher.c ****     if( MBEDTLS_ENCRYPT == operation ||
 745              		.loc 2 233 7
 746 007d 837DD801 		cmpl	$1, -40(%rbp)
 747 0081 742D     		je	.L57
 234:/home/xingli/share/LiteOS_Lab/network/dtls/mbedtls/mbedtls-2.16.2/library/cipher.c ****         MBEDTLS_MODE_CFB == ctx->cipher_info->mode ||
 748              		.loc 2 234 32 discriminator 1
 749 0083 488B45E8 		movq	-24(%rbp), %rax
 750 0087 488B00   		movq	(%rax), %rax
 751              		.loc 2 234 45 discriminator 1
 752 008a 8B4004   		movl	4(%rax), %eax
 233:/home/xingli/share/LiteOS_Lab/network/dtls/mbedtls/mbedtls-2.16.2/library/cipher.c ****         MBEDTLS_MODE_CFB == ctx->cipher_info->mode ||
 753              		.loc 2 233 38 discriminator 1
 754 008d 83F803   		cmpl	$3, %eax
 755 0090 741E     		je	.L57
 235:/home/xingli/share/LiteOS_Lab/network/dtls/mbedtls/mbedtls-2.16.2/library/cipher.c ****         MBEDTLS_MODE_OFB == ctx->cipher_info->mode ||
 756              		.loc 2 235 32
 757 0092 488B45E8 		movq	-24(%rbp), %rax
 758 0096 488B00   		movq	(%rax), %rax
 759              		.loc 2 235 45
 760 0099 8B4004   		movl	4(%rax), %eax
 234:/home/xingli/share/LiteOS_Lab/network/dtls/mbedtls/mbedtls-2.16.2/library/cipher.c ****         MBEDTLS_MODE_CFB == ctx->cipher_info->mode ||
 761              		.loc 2 234 52
 762 009c 83F804   		cmpl	$4, %eax
 763 009f 740F     		je	.L57
 236:/home/xingli/share/LiteOS_Lab/network/dtls/mbedtls/mbedtls-2.16.2/library/cipher.c ****         MBEDTLS_MODE_CTR == ctx->cipher_info->mode )
 764              		.loc 2 236 32
 765 00a1 488B45E8 		movq	-24(%rbp), %rax
 766 00a5 488B00   		movq	(%rax), %rax
 767              		.loc 2 236 45
 768 00a8 8B4004   		movl	4(%rax), %eax
 235:/home/xingli/share/LiteOS_Lab/network/dtls/mbedtls/mbedtls-2.16.2/library/cipher.c ****         MBEDTLS_MODE_OFB == ctx->cipher_info->mode ||
 769              		.loc 2 235 52
 770 00ab 83F805   		cmpl	$5, %eax
 771 00ae 752F     		jne	.L58
 772              	.L57:
 237:/home/xingli/share/LiteOS_Lab/network/dtls/mbedtls/mbedtls-2.16.2/library/cipher.c ****     {
 238:/home/xingli/share/LiteOS_Lab/network/dtls/mbedtls/mbedtls-2.16.2/library/cipher.c ****         return( ctx->cipher_info->base->setkey_enc_func( ctx->cipher_ctx, key,
 773              		.loc 2 238 20
 774 00b0 488B45E8 		movq	-24(%rbp), %rax
 775 00b4 488B00   		movq	(%rax), %rax
 776              		.loc 2 238 33
 777 00b7 488B4028 		movq	40(%rax), %rax
 778              		.loc 2 238 39
 779 00bb 4C8B4018 		movq	24(%rax), %r8
 239:/home/xingli/share/LiteOS_Lab/network/dtls/mbedtls/mbedtls-2.16.2/library/cipher.c ****                                                          ctx->key_bitlen ) );
 780              		.loc 2 239 61
 781 00bf 488B45E8 		movq	-24(%rbp), %rax
 782 00c3 8B4008   		movl	8(%rax), %eax
 238:/home/xingli/share/LiteOS_Lab/network/dtls/mbedtls/mbedtls-2.16.2/library/cipher.c ****                                                          ctx->key_bitlen ) );
 783              		.loc 2 238 17
 784 00c6 89C2     		movl	%eax, %edx
 785 00c8 488B45E8 		movq	-24(%rbp), %rax
 786 00cc 488B4050 		movq	80(%rax), %rax
 787 00d0 488B4DE0 		movq	-32(%rbp), %rcx
 788 00d4 4889CE   		movq	%rcx, %rsi
GAS LISTING /tmp/ccaq2TqD.s 			page 29


 789 00d7 4889C7   		movq	%rax, %rdi
 790 00da 41FFD0   		call	*%r8
 791              	.LVL2:
 792 00dd EB3A     		jmp	.L55
 793              	.L58:
 240:/home/xingli/share/LiteOS_Lab/network/dtls/mbedtls/mbedtls-2.16.2/library/cipher.c ****     }
 241:/home/xingli/share/LiteOS_Lab/network/dtls/mbedtls/mbedtls-2.16.2/library/cipher.c **** 
 242:/home/xingli/share/LiteOS_Lab/network/dtls/mbedtls/mbedtls-2.16.2/library/cipher.c ****     if( MBEDTLS_DECRYPT == operation )
 794              		.loc 2 242 7
 795 00df 837DD800 		cmpl	$0, -40(%rbp)
 796 00e3 752F     		jne	.L59
 243:/home/xingli/share/LiteOS_Lab/network/dtls/mbedtls/mbedtls-2.16.2/library/cipher.c ****         return( ctx->cipher_info->base->setkey_dec_func( ctx->cipher_ctx, key,
 797              		.loc 2 243 20
 798 00e5 488B45E8 		movq	-24(%rbp), %rax
 799 00e9 488B00   		movq	(%rax), %rax
 800              		.loc 2 243 33
 801 00ec 488B4028 		movq	40(%rax), %rax
 802              		.loc 2 243 39
 803 00f0 4C8B4020 		movq	32(%rax), %r8
 244:/home/xingli/share/LiteOS_Lab/network/dtls/mbedtls/mbedtls-2.16.2/library/cipher.c ****                                                          ctx->key_bitlen ) );
 804              		.loc 2 244 61
 805 00f4 488B45E8 		movq	-24(%rbp), %rax
 806 00f8 8B4008   		movl	8(%rax), %eax
 243:/home/xingli/share/LiteOS_Lab/network/dtls/mbedtls/mbedtls-2.16.2/library/cipher.c ****         return( ctx->cipher_info->base->setkey_dec_func( ctx->cipher_ctx, key,
 807              		.loc 2 243 17
 808 00fb 89C2     		movl	%eax, %edx
 809 00fd 488B45E8 		movq	-24(%rbp), %rax
 810 0101 488B4050 		movq	80(%rax), %rax
 811 0105 488B4DE0 		movq	-32(%rbp), %rcx
 812 0109 4889CE   		movq	%rcx, %rsi
 813 010c 4889C7   		movq	%rax, %rdi
 814 010f 41FFD0   		call	*%r8
 815              	.LVL3:
 816 0112 EB05     		jmp	.L55
 817              	.L59:
 245:/home/xingli/share/LiteOS_Lab/network/dtls/mbedtls/mbedtls-2.16.2/library/cipher.c **** 
 246:/home/xingli/share/LiteOS_Lab/network/dtls/mbedtls/mbedtls-2.16.2/library/cipher.c ****     return( MBEDTLS_ERR_CIPHER_BAD_INPUT_DATA );
 818              		.loc 2 246 11
 819 0114 B8009FFF 		movl	$-24832, %eax
 819      FF
 820              	.L55:
 247:/home/xingli/share/LiteOS_Lab/network/dtls/mbedtls/mbedtls-2.16.2/library/cipher.c **** }
 821              		.loc 2 247 1
 822 0119 488B75F8 		movq	-8(%rbp), %rsi
 823 011d 64483334 		xorq	%fs:40, %rsi
 823      25280000 
 823      00
 824 0126 7405     		je	.L60
 825 0128 E8000000 		call	__stack_chk_fail@PLT
 825      00
 826              	.L60:
 827 012d C9       		leave
 828              	.LCFI32:
 829              		.cfi_def_cfa 7, 8
 830 012e C3       		ret
 831              		.cfi_endproc
 832              	.LFE21:
GAS LISTING /tmp/ccaq2TqD.s 			page 30


 834              		.section	.text.mbedtls_cipher_set_iv,"ax",@progbits
 835              		.globl	mbedtls_cipher_set_iv
 837              	mbedtls_cipher_set_iv:
 838              	.LFB22:
 248:/home/xingli/share/LiteOS_Lab/network/dtls/mbedtls/mbedtls-2.16.2/library/cipher.c **** 
 249:/home/xingli/share/LiteOS_Lab/network/dtls/mbedtls/mbedtls-2.16.2/library/cipher.c **** int mbedtls_cipher_set_iv( mbedtls_cipher_context_t *ctx,
 250:/home/xingli/share/LiteOS_Lab/network/dtls/mbedtls/mbedtls-2.16.2/library/cipher.c ****                            const unsigned char *iv,
 251:/home/xingli/share/LiteOS_Lab/network/dtls/mbedtls/mbedtls-2.16.2/library/cipher.c ****                            size_t iv_len )
 252:/home/xingli/share/LiteOS_Lab/network/dtls/mbedtls/mbedtls-2.16.2/library/cipher.c **** {
 839              		.loc 2 252 1
 840              		.cfi_startproc
 841 0000 F30F1EFA 		endbr64
 842 0004 55       		pushq	%rbp
 843              	.LCFI33:
 844              		.cfi_def_cfa_offset 16
 845              		.cfi_offset 6, -16
 846 0005 4889E5   		movq	%rsp, %rbp
 847              	.LCFI34:
 848              		.cfi_def_cfa_register 6
 849 0008 4883EC30 		subq	$48, %rsp
 850 000c 48897DE8 		movq	%rdi, -24(%rbp)
 851 0010 488975E0 		movq	%rsi, -32(%rbp)
 852 0014 488955D8 		movq	%rdx, -40(%rbp)
 853              		.loc 2 252 1
 854 0018 64488B04 		movq	%fs:40, %rax
 854      25280000 
 854      00
 855 0021 488945F8 		movq	%rax, -8(%rbp)
 856 0025 31C0     		xorl	%eax, %eax
 253:/home/xingli/share/LiteOS_Lab/network/dtls/mbedtls/mbedtls-2.16.2/library/cipher.c ****     size_t actual_iv_size;
 254:/home/xingli/share/LiteOS_Lab/network/dtls/mbedtls/mbedtls-2.16.2/library/cipher.c **** 
 255:/home/xingli/share/LiteOS_Lab/network/dtls/mbedtls/mbedtls-2.16.2/library/cipher.c ****     CIPHER_VALIDATE_RET( ctx != NULL );
 256:/home/xingli/share/LiteOS_Lab/network/dtls/mbedtls/mbedtls-2.16.2/library/cipher.c ****     CIPHER_VALIDATE_RET( iv_len == 0 || iv != NULL );
 257:/home/xingli/share/LiteOS_Lab/network/dtls/mbedtls/mbedtls-2.16.2/library/cipher.c ****     if( ctx->cipher_info == NULL )
 857              		.loc 2 257 12
 858 0027 488B45E8 		movq	-24(%rbp), %rax
 859 002b 488B00   		movq	(%rax), %rax
 860              		.loc 2 257 7
 861 002e 4885C0   		testq	%rax, %rax
 862 0031 7507     		jne	.L62
 258:/home/xingli/share/LiteOS_Lab/network/dtls/mbedtls/mbedtls-2.16.2/library/cipher.c ****         return( MBEDTLS_ERR_CIPHER_BAD_INPUT_DATA );
 863              		.loc 2 258 15
 864 0033 B8009FFF 		movl	$-24832, %eax
 864      FF
 865 0038 EB7D     		jmp	.L63
 866              	.L62:
 259:/home/xingli/share/LiteOS_Lab/network/dtls/mbedtls/mbedtls-2.16.2/library/cipher.c **** 
 260:/home/xingli/share/LiteOS_Lab/network/dtls/mbedtls/mbedtls-2.16.2/library/cipher.c ****     /* avoid buffer overflow in ctx->iv */
 261:/home/xingli/share/LiteOS_Lab/network/dtls/mbedtls/mbedtls-2.16.2/library/cipher.c ****     if( iv_len > MBEDTLS_MAX_IV_LENGTH )
 867              		.loc 2 261 7
 868 003a 48837DD8 		cmpq	$16, -40(%rbp)
 868      10
 869 003f 7607     		jbe	.L64
 262:/home/xingli/share/LiteOS_Lab/network/dtls/mbedtls/mbedtls-2.16.2/library/cipher.c ****         return( MBEDTLS_ERR_CIPHER_FEATURE_UNAVAILABLE );
 870              		.loc 2 262 15
 871 0041 B8809FFF 		movl	$-24704, %eax
 871      FF
GAS LISTING /tmp/ccaq2TqD.s 			page 31


 872 0046 EB6F     		jmp	.L63
 873              	.L64:
 263:/home/xingli/share/LiteOS_Lab/network/dtls/mbedtls/mbedtls-2.16.2/library/cipher.c **** 
 264:/home/xingli/share/LiteOS_Lab/network/dtls/mbedtls/mbedtls-2.16.2/library/cipher.c ****     if( ( ctx->cipher_info->flags & MBEDTLS_CIPHER_VARIABLE_IV_LEN ) != 0 )
 874              		.loc 2 264 14
 875 0048 488B45E8 		movq	-24(%rbp), %rax
 876 004c 488B00   		movq	(%rax), %rax
 877              		.loc 2 264 27
 878 004f 8B401C   		movl	28(%rax), %eax
 879              		.loc 2 264 35
 880 0052 83E001   		andl	$1, %eax
 881              		.loc 2 264 7
 882 0055 85C0     		testl	%eax, %eax
 883 0057 740A     		je	.L65
 265:/home/xingli/share/LiteOS_Lab/network/dtls/mbedtls/mbedtls-2.16.2/library/cipher.c ****         actual_iv_size = iv_len;
 884              		.loc 2 265 24
 885 0059 488B45D8 		movq	-40(%rbp), %rax
 886 005d 488945F0 		movq	%rax, -16(%rbp)
 887 0061 EB21     		jmp	.L66
 888              	.L65:
 266:/home/xingli/share/LiteOS_Lab/network/dtls/mbedtls/mbedtls-2.16.2/library/cipher.c ****     else
 267:/home/xingli/share/LiteOS_Lab/network/dtls/mbedtls/mbedtls-2.16.2/library/cipher.c ****     {
 268:/home/xingli/share/LiteOS_Lab/network/dtls/mbedtls/mbedtls-2.16.2/library/cipher.c ****         actual_iv_size = ctx->cipher_info->iv_size;
 889              		.loc 2 268 29
 890 0063 488B45E8 		movq	-24(%rbp), %rax
 891 0067 488B00   		movq	(%rax), %rax
 892              		.loc 2 268 42
 893 006a 8B4018   		movl	24(%rax), %eax
 894              		.loc 2 268 24
 895 006d 89C0     		movl	%eax, %eax
 896 006f 488945F0 		movq	%rax, -16(%rbp)
 269:/home/xingli/share/LiteOS_Lab/network/dtls/mbedtls/mbedtls-2.16.2/library/cipher.c **** 
 270:/home/xingli/share/LiteOS_Lab/network/dtls/mbedtls/mbedtls-2.16.2/library/cipher.c ****         /* avoid reading past the end of input buffer */
 271:/home/xingli/share/LiteOS_Lab/network/dtls/mbedtls/mbedtls-2.16.2/library/cipher.c ****         if( actual_iv_size > iv_len )
 897              		.loc 2 271 11
 898 0073 488B45F0 		movq	-16(%rbp), %rax
 899 0077 483B45D8 		cmpq	-40(%rbp), %rax
 900 007b 7607     		jbe	.L66
 272:/home/xingli/share/LiteOS_Lab/network/dtls/mbedtls/mbedtls-2.16.2/library/cipher.c ****             return( MBEDTLS_ERR_CIPHER_BAD_INPUT_DATA );
 901              		.loc 2 272 19
 902 007d B8009FFF 		movl	$-24832, %eax
 902      FF
 903 0082 EB33     		jmp	.L63
 904              	.L66:
 273:/home/xingli/share/LiteOS_Lab/network/dtls/mbedtls/mbedtls-2.16.2/library/cipher.c ****     }
 274:/home/xingli/share/LiteOS_Lab/network/dtls/mbedtls/mbedtls-2.16.2/library/cipher.c **** 
 275:/home/xingli/share/LiteOS_Lab/network/dtls/mbedtls/mbedtls-2.16.2/library/cipher.c **** #if defined(MBEDTLS_CHACHA20_C)
 276:/home/xingli/share/LiteOS_Lab/network/dtls/mbedtls/mbedtls-2.16.2/library/cipher.c ****     if ( ctx->cipher_info->type == MBEDTLS_CIPHER_CHACHA20 )
 277:/home/xingli/share/LiteOS_Lab/network/dtls/mbedtls/mbedtls-2.16.2/library/cipher.c ****     {
 278:/home/xingli/share/LiteOS_Lab/network/dtls/mbedtls/mbedtls-2.16.2/library/cipher.c ****         if ( 0 != mbedtls_chacha20_starts( (mbedtls_chacha20_context*)ctx->cipher_ctx,
 279:/home/xingli/share/LiteOS_Lab/network/dtls/mbedtls/mbedtls-2.16.2/library/cipher.c ****                                            iv,
 280:/home/xingli/share/LiteOS_Lab/network/dtls/mbedtls/mbedtls-2.16.2/library/cipher.c ****                                            0U ) ) /* Initial counter value */
 281:/home/xingli/share/LiteOS_Lab/network/dtls/mbedtls/mbedtls-2.16.2/library/cipher.c ****         {
 282:/home/xingli/share/LiteOS_Lab/network/dtls/mbedtls/mbedtls-2.16.2/library/cipher.c ****             return( MBEDTLS_ERR_CIPHER_BAD_INPUT_DATA );
 283:/home/xingli/share/LiteOS_Lab/network/dtls/mbedtls/mbedtls-2.16.2/library/cipher.c ****         }
 284:/home/xingli/share/LiteOS_Lab/network/dtls/mbedtls/mbedtls-2.16.2/library/cipher.c ****     }
 285:/home/xingli/share/LiteOS_Lab/network/dtls/mbedtls/mbedtls-2.16.2/library/cipher.c **** #endif
GAS LISTING /tmp/ccaq2TqD.s 			page 32


 286:/home/xingli/share/LiteOS_Lab/network/dtls/mbedtls/mbedtls-2.16.2/library/cipher.c **** 
 287:/home/xingli/share/LiteOS_Lab/network/dtls/mbedtls/mbedtls-2.16.2/library/cipher.c ****     if ( actual_iv_size != 0 )
 905              		.loc 2 287 8
 906 0084 48837DF0 		cmpq	$0, -16(%rbp)
 906      00
 907 0089 7427     		je	.L67
 288:/home/xingli/share/LiteOS_Lab/network/dtls/mbedtls/mbedtls-2.16.2/library/cipher.c ****     {
 289:/home/xingli/share/LiteOS_Lab/network/dtls/mbedtls/mbedtls-2.16.2/library/cipher.c ****         memcpy( ctx->iv, iv, actual_iv_size );
 908              		.loc 2 289 20
 909 008b 488B45E8 		movq	-24(%rbp), %rax
 910 008f 488D4838 		leaq	56(%rax), %rcx
 911              		.loc 2 289 9
 912 0093 488B55F0 		movq	-16(%rbp), %rdx
 913 0097 488B45E0 		movq	-32(%rbp), %rax
 914 009b 4889C6   		movq	%rax, %rsi
 915 009e 4889CF   		movq	%rcx, %rdi
 916 00a1 E8000000 		call	memcpy@PLT
 916      00
 290:/home/xingli/share/LiteOS_Lab/network/dtls/mbedtls/mbedtls-2.16.2/library/cipher.c ****         ctx->iv_size = actual_iv_size;
 917              		.loc 2 290 22
 918 00a6 488B45E8 		movq	-24(%rbp), %rax
 919 00aa 488B55F0 		movq	-16(%rbp), %rdx
 920 00ae 48895048 		movq	%rdx, 72(%rax)
 921              	.L67:
 291:/home/xingli/share/LiteOS_Lab/network/dtls/mbedtls/mbedtls-2.16.2/library/cipher.c ****     }
 292:/home/xingli/share/LiteOS_Lab/network/dtls/mbedtls/mbedtls-2.16.2/library/cipher.c **** 
 293:/home/xingli/share/LiteOS_Lab/network/dtls/mbedtls/mbedtls-2.16.2/library/cipher.c ****     return( 0 );
 922              		.loc 2 293 11
 923 00b2 B8000000 		movl	$0, %eax
 923      00
 924              	.L63:
 294:/home/xingli/share/LiteOS_Lab/network/dtls/mbedtls/mbedtls-2.16.2/library/cipher.c **** }
 925              		.loc 2 294 1
 926 00b7 488B4DF8 		movq	-8(%rbp), %rcx
 927 00bb 6448330C 		xorq	%fs:40, %rcx
 927      25280000 
 927      00
 928 00c4 7405     		je	.L68
 929 00c6 E8000000 		call	__stack_chk_fail@PLT
 929      00
 930              	.L68:
 931 00cb C9       		leave
 932              	.LCFI35:
 933              		.cfi_def_cfa 7, 8
 934 00cc C3       		ret
 935              		.cfi_endproc
 936              	.LFE22:
 938              		.section	.text.mbedtls_cipher_reset,"ax",@progbits
 939              		.globl	mbedtls_cipher_reset
 941              	mbedtls_cipher_reset:
 942              	.LFB23:
 295:/home/xingli/share/LiteOS_Lab/network/dtls/mbedtls/mbedtls-2.16.2/library/cipher.c **** 
 296:/home/xingli/share/LiteOS_Lab/network/dtls/mbedtls/mbedtls-2.16.2/library/cipher.c **** int mbedtls_cipher_reset( mbedtls_cipher_context_t *ctx )
 297:/home/xingli/share/LiteOS_Lab/network/dtls/mbedtls/mbedtls-2.16.2/library/cipher.c **** {
 943              		.loc 2 297 1
 944              		.cfi_startproc
 945 0000 F30F1EFA 		endbr64
GAS LISTING /tmp/ccaq2TqD.s 			page 33


 946 0004 55       		pushq	%rbp
 947              	.LCFI36:
 948              		.cfi_def_cfa_offset 16
 949              		.cfi_offset 6, -16
 950 0005 4889E5   		movq	%rsp, %rbp
 951              	.LCFI37:
 952              		.cfi_def_cfa_register 6
 953 0008 4883EC20 		subq	$32, %rsp
 954 000c 48897DE8 		movq	%rdi, -24(%rbp)
 955              		.loc 2 297 1
 956 0010 64488B04 		movq	%fs:40, %rax
 956      25280000 
 956      00
 957 0019 488945F8 		movq	%rax, -8(%rbp)
 958 001d 31C0     		xorl	%eax, %eax
 298:/home/xingli/share/LiteOS_Lab/network/dtls/mbedtls/mbedtls-2.16.2/library/cipher.c ****     CIPHER_VALIDATE_RET( ctx != NULL );
 299:/home/xingli/share/LiteOS_Lab/network/dtls/mbedtls/mbedtls-2.16.2/library/cipher.c ****     if( ctx->cipher_info == NULL )
 959              		.loc 2 299 12
 960 001f 488B45E8 		movq	-24(%rbp), %rax
 961 0023 488B00   		movq	(%rax), %rax
 962              		.loc 2 299 7
 963 0026 4885C0   		testq	%rax, %rax
 964 0029 7507     		jne	.L70
 300:/home/xingli/share/LiteOS_Lab/network/dtls/mbedtls/mbedtls-2.16.2/library/cipher.c ****         return( MBEDTLS_ERR_CIPHER_BAD_INPUT_DATA );
 965              		.loc 2 300 15
 966 002b B8009FFF 		movl	$-24832, %eax
 966      FF
 967 0030 EB11     		jmp	.L71
 968              	.L70:
 301:/home/xingli/share/LiteOS_Lab/network/dtls/mbedtls/mbedtls-2.16.2/library/cipher.c **** 
 302:/home/xingli/share/LiteOS_Lab/network/dtls/mbedtls/mbedtls-2.16.2/library/cipher.c ****     ctx->unprocessed_len = 0;
 969              		.loc 2 302 26
 970 0032 488B45E8 		movq	-24(%rbp), %rax
 971 0036 48C74030 		movq	$0, 48(%rax)
 971      00000000 
 303:/home/xingli/share/LiteOS_Lab/network/dtls/mbedtls/mbedtls-2.16.2/library/cipher.c **** 
 304:/home/xingli/share/LiteOS_Lab/network/dtls/mbedtls/mbedtls-2.16.2/library/cipher.c ****     return( 0 );
 972              		.loc 2 304 11
 973 003e B8000000 		movl	$0, %eax
 973      00
 974              	.L71:
 305:/home/xingli/share/LiteOS_Lab/network/dtls/mbedtls/mbedtls-2.16.2/library/cipher.c **** }
 975              		.loc 2 305 1
 976 0043 488B55F8 		movq	-8(%rbp), %rdx
 977 0047 64483314 		xorq	%fs:40, %rdx
 977      25280000 
 977      00
 978 0050 7405     		je	.L72
 979 0052 E8000000 		call	__stack_chk_fail@PLT
 979      00
 980              	.L72:
 981 0057 C9       		leave
 982              	.LCFI38:
 983              		.cfi_def_cfa 7, 8
 984 0058 C3       		ret
 985              		.cfi_endproc
 986              	.LFE23:
GAS LISTING /tmp/ccaq2TqD.s 			page 34


 988              		.section	.text.mbedtls_cipher_update_ad,"ax",@progbits
 989              		.globl	mbedtls_cipher_update_ad
 991              	mbedtls_cipher_update_ad:
 992              	.LFB24:
 306:/home/xingli/share/LiteOS_Lab/network/dtls/mbedtls/mbedtls-2.16.2/library/cipher.c **** 
 307:/home/xingli/share/LiteOS_Lab/network/dtls/mbedtls/mbedtls-2.16.2/library/cipher.c **** #if defined(MBEDTLS_GCM_C) || defined(MBEDTLS_CHACHAPOLY_C)
 308:/home/xingli/share/LiteOS_Lab/network/dtls/mbedtls/mbedtls-2.16.2/library/cipher.c **** int mbedtls_cipher_update_ad( mbedtls_cipher_context_t *ctx,
 309:/home/xingli/share/LiteOS_Lab/network/dtls/mbedtls/mbedtls-2.16.2/library/cipher.c ****                       const unsigned char *ad, size_t ad_len )
 310:/home/xingli/share/LiteOS_Lab/network/dtls/mbedtls/mbedtls-2.16.2/library/cipher.c **** {
 993              		.loc 2 310 1
 994              		.cfi_startproc
 995 0000 F30F1EFA 		endbr64
 996 0004 55       		pushq	%rbp
 997              	.LCFI39:
 998              		.cfi_def_cfa_offset 16
 999              		.cfi_offset 6, -16
 1000 0005 4889E5   		movq	%rsp, %rbp
 1001              	.LCFI40:
 1002              		.cfi_def_cfa_register 6
 1003 0008 4883EC30 		subq	$48, %rsp
 1004 000c 48897DE8 		movq	%rdi, -24(%rbp)
 1005 0010 488975E0 		movq	%rsi, -32(%rbp)
 1006 0014 488955D8 		movq	%rdx, -40(%rbp)
 1007              		.loc 2 310 1
 1008 0018 64488B04 		movq	%fs:40, %rax
 1008      25280000 
 1008      00
 1009 0021 488945F8 		movq	%rax, -8(%rbp)
 1010 0025 31C0     		xorl	%eax, %eax
 311:/home/xingli/share/LiteOS_Lab/network/dtls/mbedtls/mbedtls-2.16.2/library/cipher.c ****     CIPHER_VALIDATE_RET( ctx != NULL );
 312:/home/xingli/share/LiteOS_Lab/network/dtls/mbedtls/mbedtls-2.16.2/library/cipher.c ****     CIPHER_VALIDATE_RET( ad_len == 0 || ad != NULL );
 313:/home/xingli/share/LiteOS_Lab/network/dtls/mbedtls/mbedtls-2.16.2/library/cipher.c ****     if( ctx->cipher_info == NULL )
 1011              		.loc 2 313 12
 1012 0027 488B45E8 		movq	-24(%rbp), %rax
 1013 002b 488B00   		movq	(%rax), %rax
 1014              		.loc 2 313 7
 1015 002e 4885C0   		testq	%rax, %rax
 1016 0031 7507     		jne	.L74
 314:/home/xingli/share/LiteOS_Lab/network/dtls/mbedtls/mbedtls-2.16.2/library/cipher.c ****         return( MBEDTLS_ERR_CIPHER_BAD_INPUT_DATA );
 1017              		.loc 2 314 15
 1018 0033 B8009FFF 		movl	$-24832, %eax
 1018      FF
 1019 0038 EB51     		jmp	.L75
 1020              	.L74:
 315:/home/xingli/share/LiteOS_Lab/network/dtls/mbedtls/mbedtls-2.16.2/library/cipher.c **** 
 316:/home/xingli/share/LiteOS_Lab/network/dtls/mbedtls/mbedtls-2.16.2/library/cipher.c **** #if defined(MBEDTLS_GCM_C)
 317:/home/xingli/share/LiteOS_Lab/network/dtls/mbedtls/mbedtls-2.16.2/library/cipher.c ****     if( MBEDTLS_MODE_GCM == ctx->cipher_info->mode )
 1021              		.loc 2 317 32
 1022 003a 488B45E8 		movq	-24(%rbp), %rax
 1023 003e 488B00   		movq	(%rax), %rax
 1024              		.loc 2 317 45
 1025 0041 8B4004   		movl	4(%rax), %eax
 1026              		.loc 2 317 7
 1027 0044 83F806   		cmpl	$6, %eax
 1028 0047 753D     		jne	.L76
 318:/home/xingli/share/LiteOS_Lab/network/dtls/mbedtls/mbedtls-2.16.2/library/cipher.c ****     {
 319:/home/xingli/share/LiteOS_Lab/network/dtls/mbedtls/mbedtls-2.16.2/library/cipher.c ****         return( mbedtls_gcm_starts( (mbedtls_gcm_context *) ctx->cipher_ctx, ctx->operation,
GAS LISTING /tmp/ccaq2TqD.s 			page 35


 1029              		.loc 2 319 17
 1030 0049 488B45E8 		movq	-24(%rbp), %rax
 1031 004d 488B5048 		movq	72(%rax), %rdx
 320:/home/xingli/share/LiteOS_Lab/network/dtls/mbedtls/mbedtls-2.16.2/library/cipher.c ****                                     ctx->iv, ctx->iv_size, ad, ad_len ) );
 1032              		.loc 2 320 40
 1033 0051 488B45E8 		movq	-24(%rbp), %rax
 1034 0055 488D7838 		leaq	56(%rax), %rdi
 319:/home/xingli/share/LiteOS_Lab/network/dtls/mbedtls/mbedtls-2.16.2/library/cipher.c ****                                     ctx->iv, ctx->iv_size, ad, ad_len ) );
 1035              		.loc 2 319 81
 1036 0059 488B45E8 		movq	-24(%rbp), %rax
 1037 005d 8B700C   		movl	12(%rax), %esi
 319:/home/xingli/share/LiteOS_Lab/network/dtls/mbedtls/mbedtls-2.16.2/library/cipher.c ****                                     ctx->iv, ctx->iv_size, ad, ad_len ) );
 1038              		.loc 2 319 64
 1039 0060 488B45E8 		movq	-24(%rbp), %rax
 1040 0064 488B4050 		movq	80(%rax), %rax
 319:/home/xingli/share/LiteOS_Lab/network/dtls/mbedtls/mbedtls-2.16.2/library/cipher.c ****                                     ctx->iv, ctx->iv_size, ad, ad_len ) );
 1041              		.loc 2 319 17
 1042 0068 4C8B45D8 		movq	-40(%rbp), %r8
 1043 006c 488B4DE0 		movq	-32(%rbp), %rcx
 1044 0070 4D89C1   		movq	%r8, %r9
 1045 0073 4989C8   		movq	%rcx, %r8
 1046 0076 4889D1   		movq	%rdx, %rcx
 1047 0079 4889FA   		movq	%rdi, %rdx
 1048 007c 4889C7   		movq	%rax, %rdi
 1049 007f E8000000 		call	mbedtls_gcm_starts@PLT
 1049      00
 1050 0084 EB05     		jmp	.L75
 1051              	.L76:
 321:/home/xingli/share/LiteOS_Lab/network/dtls/mbedtls/mbedtls-2.16.2/library/cipher.c ****     }
 322:/home/xingli/share/LiteOS_Lab/network/dtls/mbedtls/mbedtls-2.16.2/library/cipher.c **** #endif
 323:/home/xingli/share/LiteOS_Lab/network/dtls/mbedtls/mbedtls-2.16.2/library/cipher.c **** 
 324:/home/xingli/share/LiteOS_Lab/network/dtls/mbedtls/mbedtls-2.16.2/library/cipher.c **** #if defined(MBEDTLS_CHACHAPOLY_C)
 325:/home/xingli/share/LiteOS_Lab/network/dtls/mbedtls/mbedtls-2.16.2/library/cipher.c ****     if (MBEDTLS_CIPHER_CHACHA20_POLY1305 == ctx->cipher_info->type )
 326:/home/xingli/share/LiteOS_Lab/network/dtls/mbedtls/mbedtls-2.16.2/library/cipher.c ****     {
 327:/home/xingli/share/LiteOS_Lab/network/dtls/mbedtls/mbedtls-2.16.2/library/cipher.c ****         int result;
 328:/home/xingli/share/LiteOS_Lab/network/dtls/mbedtls/mbedtls-2.16.2/library/cipher.c ****         mbedtls_chachapoly_mode_t mode;
 329:/home/xingli/share/LiteOS_Lab/network/dtls/mbedtls/mbedtls-2.16.2/library/cipher.c **** 
 330:/home/xingli/share/LiteOS_Lab/network/dtls/mbedtls/mbedtls-2.16.2/library/cipher.c ****         mode = ( ctx->operation == MBEDTLS_ENCRYPT )
 331:/home/xingli/share/LiteOS_Lab/network/dtls/mbedtls/mbedtls-2.16.2/library/cipher.c ****                 ? MBEDTLS_CHACHAPOLY_ENCRYPT
 332:/home/xingli/share/LiteOS_Lab/network/dtls/mbedtls/mbedtls-2.16.2/library/cipher.c ****                 : MBEDTLS_CHACHAPOLY_DECRYPT;
 333:/home/xingli/share/LiteOS_Lab/network/dtls/mbedtls/mbedtls-2.16.2/library/cipher.c **** 
 334:/home/xingli/share/LiteOS_Lab/network/dtls/mbedtls/mbedtls-2.16.2/library/cipher.c ****         result = mbedtls_chachapoly_starts( (mbedtls_chachapoly_context*) ctx->cipher_ctx,
 335:/home/xingli/share/LiteOS_Lab/network/dtls/mbedtls/mbedtls-2.16.2/library/cipher.c ****                                                         ctx->iv,
 336:/home/xingli/share/LiteOS_Lab/network/dtls/mbedtls/mbedtls-2.16.2/library/cipher.c ****                                                         mode );
 337:/home/xingli/share/LiteOS_Lab/network/dtls/mbedtls/mbedtls-2.16.2/library/cipher.c ****         if ( result != 0 )
 338:/home/xingli/share/LiteOS_Lab/network/dtls/mbedtls/mbedtls-2.16.2/library/cipher.c ****             return( result );
 339:/home/xingli/share/LiteOS_Lab/network/dtls/mbedtls/mbedtls-2.16.2/library/cipher.c **** 
 340:/home/xingli/share/LiteOS_Lab/network/dtls/mbedtls/mbedtls-2.16.2/library/cipher.c ****         return( mbedtls_chachapoly_update_aad( (mbedtls_chachapoly_context*) ctx->cipher_ctx,
 341:/home/xingli/share/LiteOS_Lab/network/dtls/mbedtls/mbedtls-2.16.2/library/cipher.c ****                                                ad, ad_len ) );
 342:/home/xingli/share/LiteOS_Lab/network/dtls/mbedtls/mbedtls-2.16.2/library/cipher.c ****     }
 343:/home/xingli/share/LiteOS_Lab/network/dtls/mbedtls/mbedtls-2.16.2/library/cipher.c **** #endif
 344:/home/xingli/share/LiteOS_Lab/network/dtls/mbedtls/mbedtls-2.16.2/library/cipher.c **** 
 345:/home/xingli/share/LiteOS_Lab/network/dtls/mbedtls/mbedtls-2.16.2/library/cipher.c ****     return( 0 );
 1052              		.loc 2 345 11
 1053 0086 B8000000 		movl	$0, %eax
 1053      00
 1054              	.L75:
GAS LISTING /tmp/ccaq2TqD.s 			page 36


 346:/home/xingli/share/LiteOS_Lab/network/dtls/mbedtls/mbedtls-2.16.2/library/cipher.c **** }
 1055              		.loc 2 346 1
 1056 008b 488B4DF8 		movq	-8(%rbp), %rcx
 1057 008f 6448330C 		xorq	%fs:40, %rcx
 1057      25280000 
 1057      00
 1058 0098 7405     		je	.L77
 1059 009a E8000000 		call	__stack_chk_fail@PLT
 1059      00
 1060              	.L77:
 1061 009f C9       		leave
 1062              	.LCFI41:
 1063              		.cfi_def_cfa 7, 8
 1064 00a0 C3       		ret
 1065              		.cfi_endproc
 1066              	.LFE24:
 1068              		.section	.text.mbedtls_cipher_update,"ax",@progbits
 1069              		.globl	mbedtls_cipher_update
 1071              	mbedtls_cipher_update:
 1072              	.LFB25:
 347:/home/xingli/share/LiteOS_Lab/network/dtls/mbedtls/mbedtls-2.16.2/library/cipher.c **** #endif /* MBEDTLS_GCM_C || MBEDTLS_CHACHAPOLY_C */
 348:/home/xingli/share/LiteOS_Lab/network/dtls/mbedtls/mbedtls-2.16.2/library/cipher.c **** 
 349:/home/xingli/share/LiteOS_Lab/network/dtls/mbedtls/mbedtls-2.16.2/library/cipher.c **** int mbedtls_cipher_update( mbedtls_cipher_context_t *ctx, const unsigned char *input,
 350:/home/xingli/share/LiteOS_Lab/network/dtls/mbedtls/mbedtls-2.16.2/library/cipher.c ****                    size_t ilen, unsigned char *output, size_t *olen )
 351:/home/xingli/share/LiteOS_Lab/network/dtls/mbedtls/mbedtls-2.16.2/library/cipher.c **** {
 1073              		.loc 2 351 1
 1074              		.cfi_startproc
 1075 0000 F30F1EFA 		endbr64
 1076 0004 55       		pushq	%rbp
 1077              	.LCFI42:
 1078              		.cfi_def_cfa_offset 16
 1079              		.cfi_offset 6, -16
 1080 0005 4889E5   		movq	%rsp, %rbp
 1081              	.LCFI43:
 1082              		.cfi_def_cfa_register 6
 1083 0008 4883EC50 		subq	$80, %rsp
 1084 000c 48897DD8 		movq	%rdi, -40(%rbp)
 1085 0010 488975D0 		movq	%rsi, -48(%rbp)
 1086 0014 488955C8 		movq	%rdx, -56(%rbp)
 1087 0018 48894DC0 		movq	%rcx, -64(%rbp)
 1088 001c 4C8945B8 		movq	%r8, -72(%rbp)
 1089              		.loc 2 351 1
 1090 0020 64488B04 		movq	%fs:40, %rax
 1090      25280000 
 1090      00
 1091 0029 488945F8 		movq	%rax, -8(%rbp)
 1092 002d 31C0     		xorl	%eax, %eax
 352:/home/xingli/share/LiteOS_Lab/network/dtls/mbedtls/mbedtls-2.16.2/library/cipher.c ****     int ret;
 353:/home/xingli/share/LiteOS_Lab/network/dtls/mbedtls/mbedtls-2.16.2/library/cipher.c ****     size_t block_size;
 354:/home/xingli/share/LiteOS_Lab/network/dtls/mbedtls/mbedtls-2.16.2/library/cipher.c **** 
 355:/home/xingli/share/LiteOS_Lab/network/dtls/mbedtls/mbedtls-2.16.2/library/cipher.c ****     CIPHER_VALIDATE_RET( ctx != NULL );
 356:/home/xingli/share/LiteOS_Lab/network/dtls/mbedtls/mbedtls-2.16.2/library/cipher.c ****     CIPHER_VALIDATE_RET( ilen == 0 || input != NULL );
 357:/home/xingli/share/LiteOS_Lab/network/dtls/mbedtls/mbedtls-2.16.2/library/cipher.c ****     CIPHER_VALIDATE_RET( output != NULL );
 358:/home/xingli/share/LiteOS_Lab/network/dtls/mbedtls/mbedtls-2.16.2/library/cipher.c ****     CIPHER_VALIDATE_RET( olen != NULL );
 359:/home/xingli/share/LiteOS_Lab/network/dtls/mbedtls/mbedtls-2.16.2/library/cipher.c ****     if( ctx->cipher_info == NULL )
 1093              		.loc 2 359 12
 1094 002f 488B45D8 		movq	-40(%rbp), %rax
GAS LISTING /tmp/ccaq2TqD.s 			page 37


 1095 0033 488B00   		movq	(%rax), %rax
 1096              		.loc 2 359 7
 1097 0036 4885C0   		testq	%rax, %rax
 1098 0039 750A     		jne	.L79
 360:/home/xingli/share/LiteOS_Lab/network/dtls/mbedtls/mbedtls-2.16.2/library/cipher.c ****         return( MBEDTLS_ERR_CIPHER_BAD_INPUT_DATA );
 1099              		.loc 2 360 15
 1100 003b B8009FFF 		movl	$-24832, %eax
 1100      FF
 1101 0040 E9E30300 		jmp	.L80
 1101      00
 1102              	.L79:
 361:/home/xingli/share/LiteOS_Lab/network/dtls/mbedtls/mbedtls-2.16.2/library/cipher.c **** 
 362:/home/xingli/share/LiteOS_Lab/network/dtls/mbedtls/mbedtls-2.16.2/library/cipher.c ****     *olen = 0;
 1103              		.loc 2 362 11
 1104 0045 488B45B8 		movq	-72(%rbp), %rax
 1105 0049 48C70000 		movq	$0, (%rax)
 1105      000000
 363:/home/xingli/share/LiteOS_Lab/network/dtls/mbedtls/mbedtls-2.16.2/library/cipher.c ****     block_size = mbedtls_cipher_get_block_size( ctx );
 1106              		.loc 2 363 18
 1107 0050 488B45D8 		movq	-40(%rbp), %rax
 1108 0054 4889C7   		movq	%rax, %rdi
 1109 0057 E8000000 		call	mbedtls_cipher_get_block_size
 1109      00
 1110              		.loc 2 363 16
 1111 005c 89C0     		movl	%eax, %eax
 1112 005e 488945F0 		movq	%rax, -16(%rbp)
 364:/home/xingli/share/LiteOS_Lab/network/dtls/mbedtls/mbedtls-2.16.2/library/cipher.c **** 
 365:/home/xingli/share/LiteOS_Lab/network/dtls/mbedtls/mbedtls-2.16.2/library/cipher.c ****     if( ctx->cipher_info->mode == MBEDTLS_MODE_ECB )
 1113              		.loc 2 365 12
 1114 0062 488B45D8 		movq	-40(%rbp), %rax
 1115 0066 488B00   		movq	(%rax), %rax
 1116              		.loc 2 365 25
 1117 0069 8B4004   		movl	4(%rax), %eax
 1118              		.loc 2 365 7
 1119 006c 83F801   		cmpl	$1, %eax
 1120 006f 7566     		jne	.L81
 366:/home/xingli/share/LiteOS_Lab/network/dtls/mbedtls/mbedtls-2.16.2/library/cipher.c ****     {
 367:/home/xingli/share/LiteOS_Lab/network/dtls/mbedtls/mbedtls-2.16.2/library/cipher.c ****         if( ilen != block_size )
 1121              		.loc 2 367 11
 1122 0071 488B45C8 		movq	-56(%rbp), %rax
 1123 0075 483B45F0 		cmpq	-16(%rbp), %rax
 1124 0079 740A     		je	.L82
 368:/home/xingli/share/LiteOS_Lab/network/dtls/mbedtls/mbedtls-2.16.2/library/cipher.c ****             return( MBEDTLS_ERR_CIPHER_FULL_BLOCK_EXPECTED );
 1125              		.loc 2 368 19
 1126 007b B8809DFF 		movl	$-25216, %eax
 1126      FF
 1127 0080 E9A30300 		jmp	.L80
 1127      00
 1128              	.L82:
 369:/home/xingli/share/LiteOS_Lab/network/dtls/mbedtls/mbedtls-2.16.2/library/cipher.c **** 
 370:/home/xingli/share/LiteOS_Lab/network/dtls/mbedtls/mbedtls-2.16.2/library/cipher.c ****         *olen = ilen;
 1129              		.loc 2 370 15
 1130 0085 488B45B8 		movq	-72(%rbp), %rax
 1131 0089 488B55C8 		movq	-56(%rbp), %rdx
 1132 008d 488910   		movq	%rdx, (%rax)
 371:/home/xingli/share/LiteOS_Lab/network/dtls/mbedtls/mbedtls-2.16.2/library/cipher.c **** 
 372:/home/xingli/share/LiteOS_Lab/network/dtls/mbedtls/mbedtls-2.16.2/library/cipher.c ****         if( 0 != ( ret = ctx->cipher_info->base->ecb_func( ctx->cipher_ctx,
GAS LISTING /tmp/ccaq2TqD.s 			page 38


 1133              		.loc 2 372 29
 1134 0090 488B45D8 		movq	-40(%rbp), %rax
 1135 0094 488B00   		movq	(%rax), %rax
 1136              		.loc 2 372 42
 1137 0097 488B4028 		movq	40(%rax), %rax
 1138              		.loc 2 372 48
 1139 009b 4C8B4008 		movq	8(%rax), %r8
 1140              		.loc 2 372 26
 1141 009f 488B45D8 		movq	-40(%rbp), %rax
 1142 00a3 8B700C   		movl	12(%rax), %esi
 1143 00a6 488B45D8 		movq	-40(%rbp), %rax
 1144 00aa 488B4050 		movq	80(%rax), %rax
 1145 00ae 488B4DC0 		movq	-64(%rbp), %rcx
 1146 00b2 488B55D0 		movq	-48(%rbp), %rdx
 1147 00b6 4889C7   		movq	%rax, %rdi
 1148 00b9 41FFD0   		call	*%r8
 1149              	.LVL4:
 1150 00bc 8945E4   		movl	%eax, -28(%rbp)
 1151              		.loc 2 372 11
 1152 00bf 837DE400 		cmpl	$0, -28(%rbp)
 1153 00c3 7408     		je	.L83
 373:/home/xingli/share/LiteOS_Lab/network/dtls/mbedtls/mbedtls-2.16.2/library/cipher.c ****                     ctx->operation, input, output ) ) )
 374:/home/xingli/share/LiteOS_Lab/network/dtls/mbedtls/mbedtls-2.16.2/library/cipher.c ****         {
 375:/home/xingli/share/LiteOS_Lab/network/dtls/mbedtls/mbedtls-2.16.2/library/cipher.c ****             return( ret );
 1154              		.loc 2 375 19
 1155 00c5 8B45E4   		movl	-28(%rbp), %eax
 1156 00c8 E95B0300 		jmp	.L80
 1156      00
 1157              	.L83:
 376:/home/xingli/share/LiteOS_Lab/network/dtls/mbedtls/mbedtls-2.16.2/library/cipher.c ****         }
 377:/home/xingli/share/LiteOS_Lab/network/dtls/mbedtls/mbedtls-2.16.2/library/cipher.c **** 
 378:/home/xingli/share/LiteOS_Lab/network/dtls/mbedtls/mbedtls-2.16.2/library/cipher.c ****         return( 0 );
 1158              		.loc 2 378 15
 1159 00cd B8000000 		movl	$0, %eax
 1159      00
 1160 00d2 E9510300 		jmp	.L80
 1160      00
 1161              	.L81:
 379:/home/xingli/share/LiteOS_Lab/network/dtls/mbedtls/mbedtls-2.16.2/library/cipher.c ****     }
 380:/home/xingli/share/LiteOS_Lab/network/dtls/mbedtls/mbedtls-2.16.2/library/cipher.c **** 
 381:/home/xingli/share/LiteOS_Lab/network/dtls/mbedtls/mbedtls-2.16.2/library/cipher.c **** #if defined(MBEDTLS_GCM_C)
 382:/home/xingli/share/LiteOS_Lab/network/dtls/mbedtls/mbedtls-2.16.2/library/cipher.c ****     if( ctx->cipher_info->mode == MBEDTLS_MODE_GCM )
 1162              		.loc 2 382 12
 1163 00d7 488B45D8 		movq	-40(%rbp), %rax
 1164 00db 488B00   		movq	(%rax), %rax
 1165              		.loc 2 382 25
 1166 00de 8B4004   		movl	4(%rax), %eax
 1167              		.loc 2 382 7
 1168 00e1 83F806   		cmpl	$6, %eax
 1169 00e4 752C     		jne	.L84
 383:/home/xingli/share/LiteOS_Lab/network/dtls/mbedtls/mbedtls-2.16.2/library/cipher.c ****     {
 384:/home/xingli/share/LiteOS_Lab/network/dtls/mbedtls/mbedtls-2.16.2/library/cipher.c ****         *olen = ilen;
 1170              		.loc 2 384 15
 1171 00e6 488B45B8 		movq	-72(%rbp), %rax
 1172 00ea 488B55C8 		movq	-56(%rbp), %rdx
 1173 00ee 488910   		movq	%rdx, (%rax)
 385:/home/xingli/share/LiteOS_Lab/network/dtls/mbedtls/mbedtls-2.16.2/library/cipher.c ****         return( mbedtls_gcm_update( (mbedtls_gcm_context *) ctx->cipher_ctx, ilen, input,
GAS LISTING /tmp/ccaq2TqD.s 			page 39


 1174              		.loc 2 385 64
 1175 00f1 488B45D8 		movq	-40(%rbp), %rax
 1176 00f5 488B4050 		movq	80(%rax), %rax
 1177              		.loc 2 385 17
 1178 00f9 488B4DC0 		movq	-64(%rbp), %rcx
 1179 00fd 488B55D0 		movq	-48(%rbp), %rdx
 1180 0101 488B75C8 		movq	-56(%rbp), %rsi
 1181 0105 4889C7   		movq	%rax, %rdi
 1182 0108 E8000000 		call	mbedtls_gcm_update@PLT
 1182      00
 1183 010d E9160300 		jmp	.L80
 1183      00
 1184              	.L84:
 386:/home/xingli/share/LiteOS_Lab/network/dtls/mbedtls/mbedtls-2.16.2/library/cipher.c ****                                     output ) );
 387:/home/xingli/share/LiteOS_Lab/network/dtls/mbedtls/mbedtls-2.16.2/library/cipher.c ****     }
 388:/home/xingli/share/LiteOS_Lab/network/dtls/mbedtls/mbedtls-2.16.2/library/cipher.c **** #endif
 389:/home/xingli/share/LiteOS_Lab/network/dtls/mbedtls/mbedtls-2.16.2/library/cipher.c **** 
 390:/home/xingli/share/LiteOS_Lab/network/dtls/mbedtls/mbedtls-2.16.2/library/cipher.c **** #if defined(MBEDTLS_CHACHAPOLY_C)
 391:/home/xingli/share/LiteOS_Lab/network/dtls/mbedtls/mbedtls-2.16.2/library/cipher.c ****     if ( ctx->cipher_info->type == MBEDTLS_CIPHER_CHACHA20_POLY1305 )
 392:/home/xingli/share/LiteOS_Lab/network/dtls/mbedtls/mbedtls-2.16.2/library/cipher.c ****     {
 393:/home/xingli/share/LiteOS_Lab/network/dtls/mbedtls/mbedtls-2.16.2/library/cipher.c ****         *olen = ilen;
 394:/home/xingli/share/LiteOS_Lab/network/dtls/mbedtls/mbedtls-2.16.2/library/cipher.c ****         return( mbedtls_chachapoly_update( (mbedtls_chachapoly_context*) ctx->cipher_ctx,
 395:/home/xingli/share/LiteOS_Lab/network/dtls/mbedtls/mbedtls-2.16.2/library/cipher.c ****                                            ilen, input, output ) );
 396:/home/xingli/share/LiteOS_Lab/network/dtls/mbedtls/mbedtls-2.16.2/library/cipher.c ****     }
 397:/home/xingli/share/LiteOS_Lab/network/dtls/mbedtls/mbedtls-2.16.2/library/cipher.c **** #endif
 398:/home/xingli/share/LiteOS_Lab/network/dtls/mbedtls/mbedtls-2.16.2/library/cipher.c **** 
 399:/home/xingli/share/LiteOS_Lab/network/dtls/mbedtls/mbedtls-2.16.2/library/cipher.c ****     if ( 0 == block_size )
 1185              		.loc 2 399 8
 1186 0112 48837DF0 		cmpq	$0, -16(%rbp)
 1186      00
 1187 0117 750A     		jne	.L85
 400:/home/xingli/share/LiteOS_Lab/network/dtls/mbedtls/mbedtls-2.16.2/library/cipher.c ****     {
 401:/home/xingli/share/LiteOS_Lab/network/dtls/mbedtls/mbedtls-2.16.2/library/cipher.c ****         return( MBEDTLS_ERR_CIPHER_INVALID_CONTEXT );
 1188              		.loc 2 401 15
 1189 0119 B8809CFF 		movl	$-25472, %eax
 1189      FF
 1190 011e E9050300 		jmp	.L80
 1190      00
 1191              	.L85:
 402:/home/xingli/share/LiteOS_Lab/network/dtls/mbedtls/mbedtls-2.16.2/library/cipher.c ****     }
 403:/home/xingli/share/LiteOS_Lab/network/dtls/mbedtls/mbedtls-2.16.2/library/cipher.c **** 
 404:/home/xingli/share/LiteOS_Lab/network/dtls/mbedtls/mbedtls-2.16.2/library/cipher.c ****     if( input == output &&
 1192              		.loc 2 404 7
 1193 0123 488B45D0 		movq	-48(%rbp), %rax
 1194 0127 483B45C0 		cmpq	-64(%rbp), %rax
 1195 012b 752C     		jne	.L86
 405:/home/xingli/share/LiteOS_Lab/network/dtls/mbedtls/mbedtls-2.16.2/library/cipher.c ****        ( ctx->unprocessed_len != 0 || ilen % block_size ) )
 1196              		.loc 2 405 13 discriminator 1
 1197 012d 488B45D8 		movq	-40(%rbp), %rax
 1198 0131 488B4030 		movq	48(%rax), %rax
 404:/home/xingli/share/LiteOS_Lab/network/dtls/mbedtls/mbedtls-2.16.2/library/cipher.c ****        ( ctx->unprocessed_len != 0 || ilen % block_size ) )
 1199              		.loc 2 404 25 discriminator 1
 1200 0135 4885C0   		testq	%rax, %rax
 1201 0138 7515     		jne	.L87
 1202              		.loc 2 405 44
 1203 013a 488B45C8 		movq	-56(%rbp), %rax
 1204 013e BA000000 		movl	$0, %edx
GAS LISTING /tmp/ccaq2TqD.s 			page 40


 1204      00
 1205 0143 48F775F0 		divq	-16(%rbp)
 1206 0147 4889D0   		movq	%rdx, %rax
 1207              		.loc 2 405 36
 1208 014a 4885C0   		testq	%rax, %rax
 1209 014d 740A     		je	.L86
 1210              	.L87:
 406:/home/xingli/share/LiteOS_Lab/network/dtls/mbedtls/mbedtls-2.16.2/library/cipher.c ****     {
 407:/home/xingli/share/LiteOS_Lab/network/dtls/mbedtls/mbedtls-2.16.2/library/cipher.c ****         return( MBEDTLS_ERR_CIPHER_BAD_INPUT_DATA );
 1211              		.loc 2 407 15
 1212 014f B8009FFF 		movl	$-24832, %eax
 1212      FF
 1213 0154 E9CF0200 		jmp	.L80
 1213      00
 1214              	.L86:
 408:/home/xingli/share/LiteOS_Lab/network/dtls/mbedtls/mbedtls-2.16.2/library/cipher.c ****     }
 409:/home/xingli/share/LiteOS_Lab/network/dtls/mbedtls/mbedtls-2.16.2/library/cipher.c **** 
 410:/home/xingli/share/LiteOS_Lab/network/dtls/mbedtls/mbedtls-2.16.2/library/cipher.c **** #if defined(MBEDTLS_CIPHER_MODE_CBC)
 411:/home/xingli/share/LiteOS_Lab/network/dtls/mbedtls/mbedtls-2.16.2/library/cipher.c ****     if( ctx->cipher_info->mode == MBEDTLS_MODE_CBC )
 1215              		.loc 2 411 12
 1216 0159 488B45D8 		movq	-40(%rbp), %rax
 1217 015d 488B00   		movq	(%rax), %rax
 1218              		.loc 2 411 25
 1219 0160 8B4004   		movl	4(%rax), %eax
 1220              		.loc 2 411 7
 1221 0163 83F802   		cmpl	$2, %eax
 1222 0166 0F85B702 		jne	.L88
 1222      0000
 1223              	.LBB2:
 412:/home/xingli/share/LiteOS_Lab/network/dtls/mbedtls/mbedtls-2.16.2/library/cipher.c ****     {
 413:/home/xingli/share/LiteOS_Lab/network/dtls/mbedtls/mbedtls-2.16.2/library/cipher.c ****         size_t copy_len = 0;
 1224              		.loc 2 413 16
 1225 016c 48C745E8 		movq	$0, -24(%rbp)
 1225      00000000 
 414:/home/xingli/share/LiteOS_Lab/network/dtls/mbedtls/mbedtls-2.16.2/library/cipher.c **** 
 415:/home/xingli/share/LiteOS_Lab/network/dtls/mbedtls/mbedtls-2.16.2/library/cipher.c ****         /*
 416:/home/xingli/share/LiteOS_Lab/network/dtls/mbedtls/mbedtls-2.16.2/library/cipher.c ****          * If there is not enough data for a full block, cache it.
 417:/home/xingli/share/LiteOS_Lab/network/dtls/mbedtls/mbedtls-2.16.2/library/cipher.c ****          */
 418:/home/xingli/share/LiteOS_Lab/network/dtls/mbedtls/mbedtls-2.16.2/library/cipher.c ****         if( ( ctx->operation == MBEDTLS_DECRYPT && NULL != ctx->add_padding &&
 1226              		.loc 2 418 18
 1227 0174 488B45D8 		movq	-40(%rbp), %rax
 1228 0178 8B400C   		movl	12(%rax), %eax
 1229              		.loc 2 418 11
 1230 017b 85C0     		testl	%eax, %eax
 1231 017d 7525     		jne	.L89
 1232              		.loc 2 418 63 discriminator 1
 1233 017f 488B45D8 		movq	-40(%rbp), %rax
 1234 0183 488B4010 		movq	16(%rax), %rax
 1235              		.loc 2 418 49 discriminator 1
 1236 0187 4885C0   		testq	%rax, %rax
 1237 018a 7418     		je	.L89
 419:/home/xingli/share/LiteOS_Lab/network/dtls/mbedtls/mbedtls-2.16.2/library/cipher.c ****                 ilen <= block_size - ctx->unprocessed_len ) ||
 1238              		.loc 2 419 41 discriminator 2
 1239 018c 488B45D8 		movq	-40(%rbp), %rax
 1240 0190 488B4030 		movq	48(%rax), %rax
 1241              		.loc 2 419 36 discriminator 2
 1242 0194 488B55F0 		movq	-16(%rbp), %rdx
GAS LISTING /tmp/ccaq2TqD.s 			page 41


 1243 0198 4829C2   		subq	%rax, %rdx
 1244 019b 4889D0   		movq	%rdx, %rax
 418:/home/xingli/share/LiteOS_Lab/network/dtls/mbedtls/mbedtls-2.16.2/library/cipher.c ****                 ilen <= block_size - ctx->unprocessed_len ) ||
 1245              		.loc 2 418 77 discriminator 2
 1246 019e 483945C8 		cmpq	%rax, -56(%rbp)
 1247 01a2 7654     		jbe	.L90
 1248              	.L89:
 420:/home/xingli/share/LiteOS_Lab/network/dtls/mbedtls/mbedtls-2.16.2/library/cipher.c ****             ( ctx->operation == MBEDTLS_DECRYPT && NULL == ctx->add_padding &&
 1249              		.loc 2 420 18
 1250 01a4 488B45D8 		movq	-40(%rbp), %rax
 1251 01a8 8B400C   		movl	12(%rax), %eax
 419:/home/xingli/share/LiteOS_Lab/network/dtls/mbedtls/mbedtls-2.16.2/library/cipher.c ****                 ilen <= block_size - ctx->unprocessed_len ) ||
 1252              		.loc 2 419 61
 1253 01ab 85C0     		testl	%eax, %eax
 1254 01ad 7525     		jne	.L91
 1255              		.loc 2 420 63
 1256 01af 488B45D8 		movq	-40(%rbp), %rax
 1257 01b3 488B4010 		movq	16(%rax), %rax
 1258              		.loc 2 420 49
 1259 01b7 4885C0   		testq	%rax, %rax
 1260 01ba 7518     		jne	.L91
 421:/home/xingli/share/LiteOS_Lab/network/dtls/mbedtls/mbedtls-2.16.2/library/cipher.c ****                 ilen < block_size - ctx->unprocessed_len ) ||
 1261              		.loc 2 421 40 discriminator 1
 1262 01bc 488B45D8 		movq	-40(%rbp), %rax
 1263 01c0 488B4030 		movq	48(%rax), %rax
 1264              		.loc 2 421 35 discriminator 1
 1265 01c4 488B55F0 		movq	-16(%rbp), %rdx
 1266 01c8 4829C2   		subq	%rax, %rdx
 1267 01cb 4889D0   		movq	%rdx, %rax
 420:/home/xingli/share/LiteOS_Lab/network/dtls/mbedtls/mbedtls-2.16.2/library/cipher.c ****             ( ctx->operation == MBEDTLS_DECRYPT && NULL == ctx->add_padding &&
 1268              		.loc 2 420 77 discriminator 1
 1269 01ce 483945C8 		cmpq	%rax, -56(%rbp)
 1270 01d2 7224     		jb	.L90
 1271              	.L91:
 422:/home/xingli/share/LiteOS_Lab/network/dtls/mbedtls/mbedtls-2.16.2/library/cipher.c ****              ( ctx->operation == MBEDTLS_ENCRYPT &&
 1272              		.loc 2 422 19
 1273 01d4 488B45D8 		movq	-40(%rbp), %rax
 1274 01d8 8B400C   		movl	12(%rax), %eax
 421:/home/xingli/share/LiteOS_Lab/network/dtls/mbedtls/mbedtls-2.16.2/library/cipher.c ****                 ilen < block_size - ctx->unprocessed_len ) ||
 1275              		.loc 2 421 60
 1276 01db 83F801   		cmpl	$1, %eax
 1277 01de 7560     		jne	.L92
 423:/home/xingli/share/LiteOS_Lab/network/dtls/mbedtls/mbedtls-2.16.2/library/cipher.c ****                 ilen < block_size - ctx->unprocessed_len ) )
 1278              		.loc 2 423 40
 1279 01e0 488B45D8 		movq	-40(%rbp), %rax
 1280 01e4 488B4030 		movq	48(%rax), %rax
 1281              		.loc 2 423 35
 1282 01e8 488B55F0 		movq	-16(%rbp), %rdx
 1283 01ec 4829C2   		subq	%rax, %rdx
 1284 01ef 4889D0   		movq	%rdx, %rax
 422:/home/xingli/share/LiteOS_Lab/network/dtls/mbedtls/mbedtls-2.16.2/library/cipher.c ****              ( ctx->operation == MBEDTLS_ENCRYPT &&
 1285              		.loc 2 422 50
 1286 01f2 483945C8 		cmpq	%rax, -56(%rbp)
 1287 01f6 7348     		jnb	.L92
 1288              	.L90:
 424:/home/xingli/share/LiteOS_Lab/network/dtls/mbedtls/mbedtls-2.16.2/library/cipher.c ****         {
 425:/home/xingli/share/LiteOS_Lab/network/dtls/mbedtls/mbedtls-2.16.2/library/cipher.c ****             memcpy( &( ctx->unprocessed_data[ctx->unprocessed_len] ), input,
GAS LISTING /tmp/ccaq2TqD.s 			page 42


 1289              		.loc 2 425 49
 1290 01f8 488B45D8 		movq	-40(%rbp), %rax
 1291 01fc 488B4030 		movq	48(%rax), %rax
 1292              		.loc 2 425 21
 1293 0200 488D5020 		leaq	32(%rax), %rdx
 1294 0204 488B45D8 		movq	-40(%rbp), %rax
 1295 0208 488D0C02 		leaq	(%rdx,%rax), %rcx
 1296              		.loc 2 425 13
 1297 020c 488B55C8 		movq	-56(%rbp), %rdx
 1298 0210 488B45D0 		movq	-48(%rbp), %rax
 1299 0214 4889C6   		movq	%rax, %rsi
 1300 0217 4889CF   		movq	%rcx, %rdi
 1301 021a E8000000 		call	memcpy@PLT
 1301      00
 426:/home/xingli/share/LiteOS_Lab/network/dtls/mbedtls/mbedtls-2.16.2/library/cipher.c ****                     ilen );
 427:/home/xingli/share/LiteOS_Lab/network/dtls/mbedtls/mbedtls-2.16.2/library/cipher.c **** 
 428:/home/xingli/share/LiteOS_Lab/network/dtls/mbedtls/mbedtls-2.16.2/library/cipher.c ****             ctx->unprocessed_len += ilen;
 1302              		.loc 2 428 34
 1303 021f 488B45D8 		movq	-40(%rbp), %rax
 1304 0223 488B5030 		movq	48(%rax), %rdx
 1305 0227 488B45C8 		movq	-56(%rbp), %rax
 1306 022b 4801C2   		addq	%rax, %rdx
 1307 022e 488B45D8 		movq	-40(%rbp), %rax
 1308 0232 48895030 		movq	%rdx, 48(%rax)
 429:/home/xingli/share/LiteOS_Lab/network/dtls/mbedtls/mbedtls-2.16.2/library/cipher.c ****             return( 0 );
 1309              		.loc 2 429 19
 1310 0236 B8000000 		movl	$0, %eax
 1310      00
 1311 023b E9E80100 		jmp	.L80
 1311      00
 1312              	.L92:
 430:/home/xingli/share/LiteOS_Lab/network/dtls/mbedtls/mbedtls-2.16.2/library/cipher.c ****         }
 431:/home/xingli/share/LiteOS_Lab/network/dtls/mbedtls/mbedtls-2.16.2/library/cipher.c **** 
 432:/home/xingli/share/LiteOS_Lab/network/dtls/mbedtls/mbedtls-2.16.2/library/cipher.c ****         /*
 433:/home/xingli/share/LiteOS_Lab/network/dtls/mbedtls/mbedtls-2.16.2/library/cipher.c ****          * Process cached data first
 434:/home/xingli/share/LiteOS_Lab/network/dtls/mbedtls/mbedtls-2.16.2/library/cipher.c ****          */
 435:/home/xingli/share/LiteOS_Lab/network/dtls/mbedtls/mbedtls-2.16.2/library/cipher.c ****         if( 0 != ctx->unprocessed_len )
 1313              		.loc 2 435 21
 1314 0240 488B45D8 		movq	-40(%rbp), %rax
 1315 0244 488B4030 		movq	48(%rax), %rax
 1316              		.loc 2 435 11
 1317 0248 4885C0   		testq	%rax, %rax
 1318 024b 0F84C600 		je	.L93
 1318      0000
 436:/home/xingli/share/LiteOS_Lab/network/dtls/mbedtls/mbedtls-2.16.2/library/cipher.c ****         {
 437:/home/xingli/share/LiteOS_Lab/network/dtls/mbedtls/mbedtls-2.16.2/library/cipher.c ****             copy_len = block_size - ctx->unprocessed_len;
 1319              		.loc 2 437 40
 1320 0251 488B45D8 		movq	-40(%rbp), %rax
 1321 0255 488B4030 		movq	48(%rax), %rax
 1322              		.loc 2 437 22
 1323 0259 488B55F0 		movq	-16(%rbp), %rdx
 1324 025d 4829C2   		subq	%rax, %rdx
 1325 0260 4889D0   		movq	%rdx, %rax
 1326 0263 488945E8 		movq	%rax, -24(%rbp)
 438:/home/xingli/share/LiteOS_Lab/network/dtls/mbedtls/mbedtls-2.16.2/library/cipher.c **** 
 439:/home/xingli/share/LiteOS_Lab/network/dtls/mbedtls/mbedtls-2.16.2/library/cipher.c ****             memcpy( &( ctx->unprocessed_data[ctx->unprocessed_len] ), input,
 1327              		.loc 2 439 49
GAS LISTING /tmp/ccaq2TqD.s 			page 43


 1328 0267 488B45D8 		movq	-40(%rbp), %rax
 1329 026b 488B4030 		movq	48(%rax), %rax
 1330              		.loc 2 439 21
 1331 026f 488D5020 		leaq	32(%rax), %rdx
 1332 0273 488B45D8 		movq	-40(%rbp), %rax
 1333 0277 488D0C02 		leaq	(%rdx,%rax), %rcx
 1334              		.loc 2 439 13
 1335 027b 488B55E8 		movq	-24(%rbp), %rdx
 1336 027f 488B45D0 		movq	-48(%rbp), %rax
 1337 0283 4889C6   		movq	%rax, %rsi
 1338 0286 4889CF   		movq	%rcx, %rdi
 1339 0289 E8000000 		call	memcpy@PLT
 1339      00
 440:/home/xingli/share/LiteOS_Lab/network/dtls/mbedtls/mbedtls-2.16.2/library/cipher.c ****                     copy_len );
 441:/home/xingli/share/LiteOS_Lab/network/dtls/mbedtls/mbedtls-2.16.2/library/cipher.c **** 
 442:/home/xingli/share/LiteOS_Lab/network/dtls/mbedtls/mbedtls-2.16.2/library/cipher.c ****             if( 0 != ( ret = ctx->cipher_info->base->cbc_func( ctx->cipher_ctx,
 1340              		.loc 2 442 33
 1341 028e 488B45D8 		movq	-40(%rbp), %rax
 1342 0292 488B00   		movq	(%rax), %rax
 1343              		.loc 2 442 46
 1344 0295 488B4028 		movq	40(%rax), %rax
 1345              		.loc 2 442 52
 1346 0299 4C8B5010 		movq	16(%rax), %r10
 443:/home/xingli/share/LiteOS_Lab/network/dtls/mbedtls/mbedtls-2.16.2/library/cipher.c ****                     ctx->operation, block_size, ctx->iv,
 444:/home/xingli/share/LiteOS_Lab/network/dtls/mbedtls/mbedtls-2.16.2/library/cipher.c ****                     ctx->unprocessed_data, output ) ) )
 1347              		.loc 2 444 24
 1348 029d 488B45D8 		movq	-40(%rbp), %rax
 1349 02a1 4C8D4020 		leaq	32(%rax), %r8
 443:/home/xingli/share/LiteOS_Lab/network/dtls/mbedtls/mbedtls-2.16.2/library/cipher.c ****                     ctx->operation, block_size, ctx->iv,
 1350              		.loc 2 443 52
 1351 02a5 488B45D8 		movq	-40(%rbp), %rax
 1352 02a9 488D4838 		leaq	56(%rax), %rcx
 442:/home/xingli/share/LiteOS_Lab/network/dtls/mbedtls/mbedtls-2.16.2/library/cipher.c ****                     ctx->operation, block_size, ctx->iv,
 1353              		.loc 2 442 30
 1354 02ad 488B45D8 		movq	-40(%rbp), %rax
 1355 02b1 8B700C   		movl	12(%rax), %esi
 1356 02b4 488B45D8 		movq	-40(%rbp), %rax
 1357 02b8 488B4050 		movq	80(%rax), %rax
 1358 02bc 488B7DC0 		movq	-64(%rbp), %rdi
 1359 02c0 488B55F0 		movq	-16(%rbp), %rdx
 1360 02c4 4989F9   		movq	%rdi, %r9
 1361 02c7 4889C7   		movq	%rax, %rdi
 1362 02ca 41FFD2   		call	*%r10
 1363              	.LVL5:
 1364 02cd 8945E4   		movl	%eax, -28(%rbp)
 442:/home/xingli/share/LiteOS_Lab/network/dtls/mbedtls/mbedtls-2.16.2/library/cipher.c ****                     ctx->operation, block_size, ctx->iv,
 1365              		.loc 2 442 15
 1366 02d0 837DE400 		cmpl	$0, -28(%rbp)
 1367 02d4 7408     		je	.L94
 445:/home/xingli/share/LiteOS_Lab/network/dtls/mbedtls/mbedtls-2.16.2/library/cipher.c ****             {
 446:/home/xingli/share/LiteOS_Lab/network/dtls/mbedtls/mbedtls-2.16.2/library/cipher.c ****                 return( ret );
 1368              		.loc 2 446 23
 1369 02d6 8B45E4   		movl	-28(%rbp), %eax
 1370 02d9 E94A0100 		jmp	.L80
 1370      00
 1371              	.L94:
 447:/home/xingli/share/LiteOS_Lab/network/dtls/mbedtls/mbedtls-2.16.2/library/cipher.c ****             }
GAS LISTING /tmp/ccaq2TqD.s 			page 44


 448:/home/xingli/share/LiteOS_Lab/network/dtls/mbedtls/mbedtls-2.16.2/library/cipher.c **** 
 449:/home/xingli/share/LiteOS_Lab/network/dtls/mbedtls/mbedtls-2.16.2/library/cipher.c ****             *olen += block_size;
 1372              		.loc 2 449 19
 1373 02de 488B45B8 		movq	-72(%rbp), %rax
 1374 02e2 488B10   		movq	(%rax), %rdx
 1375 02e5 488B45F0 		movq	-16(%rbp), %rax
 1376 02e9 4801C2   		addq	%rax, %rdx
 1377 02ec 488B45B8 		movq	-72(%rbp), %rax
 1378 02f0 488910   		movq	%rdx, (%rax)
 450:/home/xingli/share/LiteOS_Lab/network/dtls/mbedtls/mbedtls-2.16.2/library/cipher.c ****             output += block_size;
 1379              		.loc 2 450 20
 1380 02f3 488B45F0 		movq	-16(%rbp), %rax
 1381 02f7 480145C0 		addq	%rax, -64(%rbp)
 451:/home/xingli/share/LiteOS_Lab/network/dtls/mbedtls/mbedtls-2.16.2/library/cipher.c ****             ctx->unprocessed_len = 0;
 1382              		.loc 2 451 34
 1383 02fb 488B45D8 		movq	-40(%rbp), %rax
 1384 02ff 48C74030 		movq	$0, 48(%rax)
 1384      00000000 
 452:/home/xingli/share/LiteOS_Lab/network/dtls/mbedtls/mbedtls-2.16.2/library/cipher.c **** 
 453:/home/xingli/share/LiteOS_Lab/network/dtls/mbedtls/mbedtls-2.16.2/library/cipher.c ****             input += copy_len;
 1385              		.loc 2 453 19
 1386 0307 488B45E8 		movq	-24(%rbp), %rax
 1387 030b 480145D0 		addq	%rax, -48(%rbp)
 454:/home/xingli/share/LiteOS_Lab/network/dtls/mbedtls/mbedtls-2.16.2/library/cipher.c ****             ilen -= copy_len;
 1388              		.loc 2 454 18
 1389 030f 488B45E8 		movq	-24(%rbp), %rax
 1390 0313 482945C8 		subq	%rax, -56(%rbp)
 1391              	.L93:
 455:/home/xingli/share/LiteOS_Lab/network/dtls/mbedtls/mbedtls-2.16.2/library/cipher.c ****         }
 456:/home/xingli/share/LiteOS_Lab/network/dtls/mbedtls/mbedtls-2.16.2/library/cipher.c **** 
 457:/home/xingli/share/LiteOS_Lab/network/dtls/mbedtls/mbedtls-2.16.2/library/cipher.c ****         /*
 458:/home/xingli/share/LiteOS_Lab/network/dtls/mbedtls/mbedtls-2.16.2/library/cipher.c ****          * Cache final, incomplete block
 459:/home/xingli/share/LiteOS_Lab/network/dtls/mbedtls/mbedtls-2.16.2/library/cipher.c ****          */
 460:/home/xingli/share/LiteOS_Lab/network/dtls/mbedtls/mbedtls-2.16.2/library/cipher.c ****         if( 0 != ilen )
 1392              		.loc 2 460 11
 1393 0317 48837DC8 		cmpq	$0, -56(%rbp)
 1393      00
 1394 031c 0F849200 		je	.L95
 1394      0000
 461:/home/xingli/share/LiteOS_Lab/network/dtls/mbedtls/mbedtls-2.16.2/library/cipher.c ****         {
 462:/home/xingli/share/LiteOS_Lab/network/dtls/mbedtls/mbedtls-2.16.2/library/cipher.c ****             if( 0 == block_size )
 1395              		.loc 2 462 15
 1396 0322 48837DF0 		cmpq	$0, -16(%rbp)
 1396      00
 1397 0327 750A     		jne	.L96
 463:/home/xingli/share/LiteOS_Lab/network/dtls/mbedtls/mbedtls-2.16.2/library/cipher.c ****             {
 464:/home/xingli/share/LiteOS_Lab/network/dtls/mbedtls/mbedtls-2.16.2/library/cipher.c ****                 return( MBEDTLS_ERR_CIPHER_INVALID_CONTEXT );
 1398              		.loc 2 464 23
 1399 0329 B8809CFF 		movl	$-25472, %eax
 1399      FF
 1400 032e E9F50000 		jmp	.L80
 1400      00
 1401              	.L96:
 465:/home/xingli/share/LiteOS_Lab/network/dtls/mbedtls/mbedtls-2.16.2/library/cipher.c ****             }
 466:/home/xingli/share/LiteOS_Lab/network/dtls/mbedtls/mbedtls-2.16.2/library/cipher.c **** 
 467:/home/xingli/share/LiteOS_Lab/network/dtls/mbedtls/mbedtls-2.16.2/library/cipher.c ****             /* Encryption: only cache partial blocks
 468:/home/xingli/share/LiteOS_Lab/network/dtls/mbedtls/mbedtls-2.16.2/library/cipher.c ****              * Decryption w/ padding: always keep at least one whole block
GAS LISTING /tmp/ccaq2TqD.s 			page 45


 469:/home/xingli/share/LiteOS_Lab/network/dtls/mbedtls/mbedtls-2.16.2/library/cipher.c ****              * Decryption w/o padding: only cache partial blocks
 470:/home/xingli/share/LiteOS_Lab/network/dtls/mbedtls/mbedtls-2.16.2/library/cipher.c ****              */
 471:/home/xingli/share/LiteOS_Lab/network/dtls/mbedtls/mbedtls-2.16.2/library/cipher.c ****             copy_len = ilen % block_size;
 1402              		.loc 2 471 22
 1403 0333 488B45C8 		movq	-56(%rbp), %rax
 1404 0337 BA000000 		movl	$0, %edx
 1404      00
 1405 033c 48F775F0 		divq	-16(%rbp)
 1406 0340 488955E8 		movq	%rdx, -24(%rbp)
 472:/home/xingli/share/LiteOS_Lab/network/dtls/mbedtls/mbedtls-2.16.2/library/cipher.c ****             if( copy_len == 0 &&
 1407              		.loc 2 472 15
 1408 0344 48837DE8 		cmpq	$0, -24(%rbp)
 1408      00
 1409 0349 7520     		jne	.L97
 473:/home/xingli/share/LiteOS_Lab/network/dtls/mbedtls/mbedtls-2.16.2/library/cipher.c ****                 ctx->operation == MBEDTLS_DECRYPT &&
 1410              		.loc 2 473 20 discriminator 1
 1411 034b 488B45D8 		movq	-40(%rbp), %rax
 1412 034f 8B400C   		movl	12(%rax), %eax
 472:/home/xingli/share/LiteOS_Lab/network/dtls/mbedtls/mbedtls-2.16.2/library/cipher.c ****             if( copy_len == 0 &&
 1413              		.loc 2 472 31 discriminator 1
 1414 0352 85C0     		testl	%eax, %eax
 1415 0354 7515     		jne	.L97
 474:/home/xingli/share/LiteOS_Lab/network/dtls/mbedtls/mbedtls-2.16.2/library/cipher.c ****                 NULL != ctx->add_padding)
 1416              		.loc 2 474 28
 1417 0356 488B45D8 		movq	-40(%rbp), %rax
 1418 035a 488B4010 		movq	16(%rax), %rax
 473:/home/xingli/share/LiteOS_Lab/network/dtls/mbedtls/mbedtls-2.16.2/library/cipher.c ****                 ctx->operation == MBEDTLS_DECRYPT &&
 1419              		.loc 2 473 51
 1420 035e 4885C0   		testq	%rax, %rax
 1421 0361 7408     		je	.L97
 475:/home/xingli/share/LiteOS_Lab/network/dtls/mbedtls/mbedtls-2.16.2/library/cipher.c ****             {
 476:/home/xingli/share/LiteOS_Lab/network/dtls/mbedtls/mbedtls-2.16.2/library/cipher.c ****                 copy_len = block_size;
 1422              		.loc 2 476 26
 1423 0363 488B45F0 		movq	-16(%rbp), %rax
 1424 0367 488945E8 		movq	%rax, -24(%rbp)
 1425              	.L97:
 477:/home/xingli/share/LiteOS_Lab/network/dtls/mbedtls/mbedtls-2.16.2/library/cipher.c ****             }
 478:/home/xingli/share/LiteOS_Lab/network/dtls/mbedtls/mbedtls-2.16.2/library/cipher.c **** 
 479:/home/xingli/share/LiteOS_Lab/network/dtls/mbedtls/mbedtls-2.16.2/library/cipher.c ****             memcpy( ctx->unprocessed_data, &( input[ilen - copy_len] ),
 1426              		.loc 2 479 58
 1427 036b 488B45C8 		movq	-56(%rbp), %rax
 1428 036f 482B45E8 		subq	-24(%rbp), %rax
 1429 0373 4889C2   		movq	%rax, %rdx
 1430              		.loc 2 479 44
 1431 0376 488B45D0 		movq	-48(%rbp), %rax
 1432 037a 488D3402 		leaq	(%rdx,%rax), %rsi
 1433              		.loc 2 479 24
 1434 037e 488B45D8 		movq	-40(%rbp), %rax
 1435 0382 488D4820 		leaq	32(%rax), %rcx
 1436              		.loc 2 479 13
 1437 0386 488B45E8 		movq	-24(%rbp), %rax
 1438 038a 4889C2   		movq	%rax, %rdx
 1439 038d 4889CF   		movq	%rcx, %rdi
 1440 0390 E8000000 		call	memcpy@PLT
 1440      00
 480:/home/xingli/share/LiteOS_Lab/network/dtls/mbedtls/mbedtls-2.16.2/library/cipher.c ****                     copy_len );
 481:/home/xingli/share/LiteOS_Lab/network/dtls/mbedtls/mbedtls-2.16.2/library/cipher.c **** 
GAS LISTING /tmp/ccaq2TqD.s 			page 46


 482:/home/xingli/share/LiteOS_Lab/network/dtls/mbedtls/mbedtls-2.16.2/library/cipher.c ****             ctx->unprocessed_len += copy_len;
 1441              		.loc 2 482 34
 1442 0395 488B45D8 		movq	-40(%rbp), %rax
 1443 0399 488B5030 		movq	48(%rax), %rdx
 1444 039d 488B45E8 		movq	-24(%rbp), %rax
 1445 03a1 4801C2   		addq	%rax, %rdx
 1446 03a4 488B45D8 		movq	-40(%rbp), %rax
 1447 03a8 48895030 		movq	%rdx, 48(%rax)
 483:/home/xingli/share/LiteOS_Lab/network/dtls/mbedtls/mbedtls-2.16.2/library/cipher.c ****             ilen -= copy_len;
 1448              		.loc 2 483 18
 1449 03ac 488B45E8 		movq	-24(%rbp), %rax
 1450 03b0 482945C8 		subq	%rax, -56(%rbp)
 1451              	.L95:
 484:/home/xingli/share/LiteOS_Lab/network/dtls/mbedtls/mbedtls-2.16.2/library/cipher.c ****         }
 485:/home/xingli/share/LiteOS_Lab/network/dtls/mbedtls/mbedtls-2.16.2/library/cipher.c **** 
 486:/home/xingli/share/LiteOS_Lab/network/dtls/mbedtls/mbedtls-2.16.2/library/cipher.c ****         /*
 487:/home/xingli/share/LiteOS_Lab/network/dtls/mbedtls/mbedtls-2.16.2/library/cipher.c ****          * Process remaining full blocks
 488:/home/xingli/share/LiteOS_Lab/network/dtls/mbedtls/mbedtls-2.16.2/library/cipher.c ****          */
 489:/home/xingli/share/LiteOS_Lab/network/dtls/mbedtls/mbedtls-2.16.2/library/cipher.c ****         if( ilen )
 1452              		.loc 2 489 11
 1453 03b4 48837DC8 		cmpq	$0, -56(%rbp)
 1453      00
 1454 03b9 7461     		je	.L98
 490:/home/xingli/share/LiteOS_Lab/network/dtls/mbedtls/mbedtls-2.16.2/library/cipher.c ****         {
 491:/home/xingli/share/LiteOS_Lab/network/dtls/mbedtls/mbedtls-2.16.2/library/cipher.c ****             if( 0 != ( ret = ctx->cipher_info->base->cbc_func( ctx->cipher_ctx,
 1455              		.loc 2 491 33
 1456 03bb 488B45D8 		movq	-40(%rbp), %rax
 1457 03bf 488B00   		movq	(%rax), %rax
 1458              		.loc 2 491 46
 1459 03c2 488B4028 		movq	40(%rax), %rax
 1460              		.loc 2 491 52
 1461 03c6 4C8B5010 		movq	16(%rax), %r10
 492:/home/xingli/share/LiteOS_Lab/network/dtls/mbedtls/mbedtls-2.16.2/library/cipher.c ****                     ctx->operation, ilen, ctx->iv, input, output ) ) )
 1462              		.loc 2 492 46
 1463 03ca 488B45D8 		movq	-40(%rbp), %rax
 1464 03ce 488D4838 		leaq	56(%rax), %rcx
 491:/home/xingli/share/LiteOS_Lab/network/dtls/mbedtls/mbedtls-2.16.2/library/cipher.c ****                     ctx->operation, ilen, ctx->iv, input, output ) ) )
 1465              		.loc 2 491 30
 1466 03d2 488B45D8 		movq	-40(%rbp), %rax
 1467 03d6 8B700C   		movl	12(%rax), %esi
 1468 03d9 488B45D8 		movq	-40(%rbp), %rax
 1469 03dd 488B4050 		movq	80(%rax), %rax
 1470 03e1 4C8B45C0 		movq	-64(%rbp), %r8
 1471 03e5 488B7DD0 		movq	-48(%rbp), %rdi
 1472 03e9 488B55C8 		movq	-56(%rbp), %rdx
 1473 03ed 4D89C1   		movq	%r8, %r9
 1474 03f0 4989F8   		movq	%rdi, %r8
 1475 03f3 4889C7   		movq	%rax, %rdi
 1476 03f6 41FFD2   		call	*%r10
 1477              	.LVL6:
 1478 03f9 8945E4   		movl	%eax, -28(%rbp)
 491:/home/xingli/share/LiteOS_Lab/network/dtls/mbedtls/mbedtls-2.16.2/library/cipher.c ****                     ctx->operation, ilen, ctx->iv, input, output ) ) )
 1479              		.loc 2 491 15
 1480 03fc 837DE400 		cmpl	$0, -28(%rbp)
 1481 0400 7405     		je	.L99
 493:/home/xingli/share/LiteOS_Lab/network/dtls/mbedtls/mbedtls-2.16.2/library/cipher.c ****             {
 494:/home/xingli/share/LiteOS_Lab/network/dtls/mbedtls/mbedtls-2.16.2/library/cipher.c ****                 return( ret );
GAS LISTING /tmp/ccaq2TqD.s 			page 47


 1482              		.loc 2 494 23
 1483 0402 8B45E4   		movl	-28(%rbp), %eax
 1484 0405 EB21     		jmp	.L80
 1485              	.L99:
 495:/home/xingli/share/LiteOS_Lab/network/dtls/mbedtls/mbedtls-2.16.2/library/cipher.c ****             }
 496:/home/xingli/share/LiteOS_Lab/network/dtls/mbedtls/mbedtls-2.16.2/library/cipher.c **** 
 497:/home/xingli/share/LiteOS_Lab/network/dtls/mbedtls/mbedtls-2.16.2/library/cipher.c ****             *olen += ilen;
 1486              		.loc 2 497 19
 1487 0407 488B45B8 		movq	-72(%rbp), %rax
 1488 040b 488B10   		movq	(%rax), %rdx
 1489 040e 488B45C8 		movq	-56(%rbp), %rax
 1490 0412 4801C2   		addq	%rax, %rdx
 1491 0415 488B45B8 		movq	-72(%rbp), %rax
 1492 0419 488910   		movq	%rdx, (%rax)
 1493              	.L98:
 498:/home/xingli/share/LiteOS_Lab/network/dtls/mbedtls/mbedtls-2.16.2/library/cipher.c ****         }
 499:/home/xingli/share/LiteOS_Lab/network/dtls/mbedtls/mbedtls-2.16.2/library/cipher.c **** 
 500:/home/xingli/share/LiteOS_Lab/network/dtls/mbedtls/mbedtls-2.16.2/library/cipher.c ****         return( 0 );
 1494              		.loc 2 500 15
 1495 041c B8000000 		movl	$0, %eax
 1495      00
 1496 0421 EB05     		jmp	.L80
 1497              	.L88:
 1498              	.LBE2:
 501:/home/xingli/share/LiteOS_Lab/network/dtls/mbedtls/mbedtls-2.16.2/library/cipher.c ****     }
 502:/home/xingli/share/LiteOS_Lab/network/dtls/mbedtls/mbedtls-2.16.2/library/cipher.c **** #endif /* MBEDTLS_CIPHER_MODE_CBC */
 503:/home/xingli/share/LiteOS_Lab/network/dtls/mbedtls/mbedtls-2.16.2/library/cipher.c **** 
 504:/home/xingli/share/LiteOS_Lab/network/dtls/mbedtls/mbedtls-2.16.2/library/cipher.c **** #if defined(MBEDTLS_CIPHER_MODE_CFB)
 505:/home/xingli/share/LiteOS_Lab/network/dtls/mbedtls/mbedtls-2.16.2/library/cipher.c ****     if( ctx->cipher_info->mode == MBEDTLS_MODE_CFB )
 506:/home/xingli/share/LiteOS_Lab/network/dtls/mbedtls/mbedtls-2.16.2/library/cipher.c ****     {
 507:/home/xingli/share/LiteOS_Lab/network/dtls/mbedtls/mbedtls-2.16.2/library/cipher.c ****         if( 0 != ( ret = ctx->cipher_info->base->cfb_func( ctx->cipher_ctx,
 508:/home/xingli/share/LiteOS_Lab/network/dtls/mbedtls/mbedtls-2.16.2/library/cipher.c ****                 ctx->operation, ilen, &ctx->unprocessed_len, ctx->iv,
 509:/home/xingli/share/LiteOS_Lab/network/dtls/mbedtls/mbedtls-2.16.2/library/cipher.c ****                 input, output ) ) )
 510:/home/xingli/share/LiteOS_Lab/network/dtls/mbedtls/mbedtls-2.16.2/library/cipher.c ****         {
 511:/home/xingli/share/LiteOS_Lab/network/dtls/mbedtls/mbedtls-2.16.2/library/cipher.c ****             return( ret );
 512:/home/xingli/share/LiteOS_Lab/network/dtls/mbedtls/mbedtls-2.16.2/library/cipher.c ****         }
 513:/home/xingli/share/LiteOS_Lab/network/dtls/mbedtls/mbedtls-2.16.2/library/cipher.c **** 
 514:/home/xingli/share/LiteOS_Lab/network/dtls/mbedtls/mbedtls-2.16.2/library/cipher.c ****         *olen = ilen;
 515:/home/xingli/share/LiteOS_Lab/network/dtls/mbedtls/mbedtls-2.16.2/library/cipher.c **** 
 516:/home/xingli/share/LiteOS_Lab/network/dtls/mbedtls/mbedtls-2.16.2/library/cipher.c ****         return( 0 );
 517:/home/xingli/share/LiteOS_Lab/network/dtls/mbedtls/mbedtls-2.16.2/library/cipher.c ****     }
 518:/home/xingli/share/LiteOS_Lab/network/dtls/mbedtls/mbedtls-2.16.2/library/cipher.c **** #endif /* MBEDTLS_CIPHER_MODE_CFB */
 519:/home/xingli/share/LiteOS_Lab/network/dtls/mbedtls/mbedtls-2.16.2/library/cipher.c **** 
 520:/home/xingli/share/LiteOS_Lab/network/dtls/mbedtls/mbedtls-2.16.2/library/cipher.c **** #if defined(MBEDTLS_CIPHER_MODE_OFB)
 521:/home/xingli/share/LiteOS_Lab/network/dtls/mbedtls/mbedtls-2.16.2/library/cipher.c ****     if( ctx->cipher_info->mode == MBEDTLS_MODE_OFB )
 522:/home/xingli/share/LiteOS_Lab/network/dtls/mbedtls/mbedtls-2.16.2/library/cipher.c ****     {
 523:/home/xingli/share/LiteOS_Lab/network/dtls/mbedtls/mbedtls-2.16.2/library/cipher.c ****         if( 0 != ( ret = ctx->cipher_info->base->ofb_func( ctx->cipher_ctx,
 524:/home/xingli/share/LiteOS_Lab/network/dtls/mbedtls/mbedtls-2.16.2/library/cipher.c ****                 ilen, &ctx->unprocessed_len, ctx->iv, input, output ) ) )
 525:/home/xingli/share/LiteOS_Lab/network/dtls/mbedtls/mbedtls-2.16.2/library/cipher.c ****         {
 526:/home/xingli/share/LiteOS_Lab/network/dtls/mbedtls/mbedtls-2.16.2/library/cipher.c ****             return( ret );
 527:/home/xingli/share/LiteOS_Lab/network/dtls/mbedtls/mbedtls-2.16.2/library/cipher.c ****         }
 528:/home/xingli/share/LiteOS_Lab/network/dtls/mbedtls/mbedtls-2.16.2/library/cipher.c **** 
 529:/home/xingli/share/LiteOS_Lab/network/dtls/mbedtls/mbedtls-2.16.2/library/cipher.c ****         *olen = ilen;
 530:/home/xingli/share/LiteOS_Lab/network/dtls/mbedtls/mbedtls-2.16.2/library/cipher.c **** 
 531:/home/xingli/share/LiteOS_Lab/network/dtls/mbedtls/mbedtls-2.16.2/library/cipher.c ****         return( 0 );
 532:/home/xingli/share/LiteOS_Lab/network/dtls/mbedtls/mbedtls-2.16.2/library/cipher.c ****     }
 533:/home/xingli/share/LiteOS_Lab/network/dtls/mbedtls/mbedtls-2.16.2/library/cipher.c **** #endif /* MBEDTLS_CIPHER_MODE_OFB */
GAS LISTING /tmp/ccaq2TqD.s 			page 48


 534:/home/xingli/share/LiteOS_Lab/network/dtls/mbedtls/mbedtls-2.16.2/library/cipher.c **** 
 535:/home/xingli/share/LiteOS_Lab/network/dtls/mbedtls/mbedtls-2.16.2/library/cipher.c **** #if defined(MBEDTLS_CIPHER_MODE_CTR)
 536:/home/xingli/share/LiteOS_Lab/network/dtls/mbedtls/mbedtls-2.16.2/library/cipher.c ****     if( ctx->cipher_info->mode == MBEDTLS_MODE_CTR )
 537:/home/xingli/share/LiteOS_Lab/network/dtls/mbedtls/mbedtls-2.16.2/library/cipher.c ****     {
 538:/home/xingli/share/LiteOS_Lab/network/dtls/mbedtls/mbedtls-2.16.2/library/cipher.c ****         if( 0 != ( ret = ctx->cipher_info->base->ctr_func( ctx->cipher_ctx,
 539:/home/xingli/share/LiteOS_Lab/network/dtls/mbedtls/mbedtls-2.16.2/library/cipher.c ****                 ilen, &ctx->unprocessed_len, ctx->iv,
 540:/home/xingli/share/LiteOS_Lab/network/dtls/mbedtls/mbedtls-2.16.2/library/cipher.c ****                 ctx->unprocessed_data, input, output ) ) )
 541:/home/xingli/share/LiteOS_Lab/network/dtls/mbedtls/mbedtls-2.16.2/library/cipher.c ****         {
 542:/home/xingli/share/LiteOS_Lab/network/dtls/mbedtls/mbedtls-2.16.2/library/cipher.c ****             return( ret );
 543:/home/xingli/share/LiteOS_Lab/network/dtls/mbedtls/mbedtls-2.16.2/library/cipher.c ****         }
 544:/home/xingli/share/LiteOS_Lab/network/dtls/mbedtls/mbedtls-2.16.2/library/cipher.c **** 
 545:/home/xingli/share/LiteOS_Lab/network/dtls/mbedtls/mbedtls-2.16.2/library/cipher.c ****         *olen = ilen;
 546:/home/xingli/share/LiteOS_Lab/network/dtls/mbedtls/mbedtls-2.16.2/library/cipher.c **** 
 547:/home/xingli/share/LiteOS_Lab/network/dtls/mbedtls/mbedtls-2.16.2/library/cipher.c ****         return( 0 );
 548:/home/xingli/share/LiteOS_Lab/network/dtls/mbedtls/mbedtls-2.16.2/library/cipher.c ****     }
 549:/home/xingli/share/LiteOS_Lab/network/dtls/mbedtls/mbedtls-2.16.2/library/cipher.c **** #endif /* MBEDTLS_CIPHER_MODE_CTR */
 550:/home/xingli/share/LiteOS_Lab/network/dtls/mbedtls/mbedtls-2.16.2/library/cipher.c **** 
 551:/home/xingli/share/LiteOS_Lab/network/dtls/mbedtls/mbedtls-2.16.2/library/cipher.c **** #if defined(MBEDTLS_CIPHER_MODE_XTS)
 552:/home/xingli/share/LiteOS_Lab/network/dtls/mbedtls/mbedtls-2.16.2/library/cipher.c ****     if( ctx->cipher_info->mode == MBEDTLS_MODE_XTS )
 553:/home/xingli/share/LiteOS_Lab/network/dtls/mbedtls/mbedtls-2.16.2/library/cipher.c ****     {
 554:/home/xingli/share/LiteOS_Lab/network/dtls/mbedtls/mbedtls-2.16.2/library/cipher.c ****         if( ctx->unprocessed_len > 0 ) {
 555:/home/xingli/share/LiteOS_Lab/network/dtls/mbedtls/mbedtls-2.16.2/library/cipher.c ****             /* We can only process an entire data unit at a time. */
 556:/home/xingli/share/LiteOS_Lab/network/dtls/mbedtls/mbedtls-2.16.2/library/cipher.c ****             return( MBEDTLS_ERR_CIPHER_FEATURE_UNAVAILABLE );
 557:/home/xingli/share/LiteOS_Lab/network/dtls/mbedtls/mbedtls-2.16.2/library/cipher.c ****         }
 558:/home/xingli/share/LiteOS_Lab/network/dtls/mbedtls/mbedtls-2.16.2/library/cipher.c **** 
 559:/home/xingli/share/LiteOS_Lab/network/dtls/mbedtls/mbedtls-2.16.2/library/cipher.c ****         ret = ctx->cipher_info->base->xts_func( ctx->cipher_ctx,
 560:/home/xingli/share/LiteOS_Lab/network/dtls/mbedtls/mbedtls-2.16.2/library/cipher.c ****                 ctx->operation, ilen, ctx->iv, input, output );
 561:/home/xingli/share/LiteOS_Lab/network/dtls/mbedtls/mbedtls-2.16.2/library/cipher.c ****         if( ret != 0 )
 562:/home/xingli/share/LiteOS_Lab/network/dtls/mbedtls/mbedtls-2.16.2/library/cipher.c ****         {
 563:/home/xingli/share/LiteOS_Lab/network/dtls/mbedtls/mbedtls-2.16.2/library/cipher.c ****             return( ret );
 564:/home/xingli/share/LiteOS_Lab/network/dtls/mbedtls/mbedtls-2.16.2/library/cipher.c ****         }
 565:/home/xingli/share/LiteOS_Lab/network/dtls/mbedtls/mbedtls-2.16.2/library/cipher.c **** 
 566:/home/xingli/share/LiteOS_Lab/network/dtls/mbedtls/mbedtls-2.16.2/library/cipher.c ****         *olen = ilen;
 567:/home/xingli/share/LiteOS_Lab/network/dtls/mbedtls/mbedtls-2.16.2/library/cipher.c **** 
 568:/home/xingli/share/LiteOS_Lab/network/dtls/mbedtls/mbedtls-2.16.2/library/cipher.c ****         return( 0 );
 569:/home/xingli/share/LiteOS_Lab/network/dtls/mbedtls/mbedtls-2.16.2/library/cipher.c ****     }
 570:/home/xingli/share/LiteOS_Lab/network/dtls/mbedtls/mbedtls-2.16.2/library/cipher.c **** #endif /* MBEDTLS_CIPHER_MODE_XTS */
 571:/home/xingli/share/LiteOS_Lab/network/dtls/mbedtls/mbedtls-2.16.2/library/cipher.c **** 
 572:/home/xingli/share/LiteOS_Lab/network/dtls/mbedtls/mbedtls-2.16.2/library/cipher.c **** #if defined(MBEDTLS_CIPHER_MODE_STREAM)
 573:/home/xingli/share/LiteOS_Lab/network/dtls/mbedtls/mbedtls-2.16.2/library/cipher.c ****     if( ctx->cipher_info->mode == MBEDTLS_MODE_STREAM )
 574:/home/xingli/share/LiteOS_Lab/network/dtls/mbedtls/mbedtls-2.16.2/library/cipher.c ****     {
 575:/home/xingli/share/LiteOS_Lab/network/dtls/mbedtls/mbedtls-2.16.2/library/cipher.c ****         if( 0 != ( ret = ctx->cipher_info->base->stream_func( ctx->cipher_ctx,
 576:/home/xingli/share/LiteOS_Lab/network/dtls/mbedtls/mbedtls-2.16.2/library/cipher.c ****                                                     ilen, input, output ) ) )
 577:/home/xingli/share/LiteOS_Lab/network/dtls/mbedtls/mbedtls-2.16.2/library/cipher.c ****         {
 578:/home/xingli/share/LiteOS_Lab/network/dtls/mbedtls/mbedtls-2.16.2/library/cipher.c ****             return( ret );
 579:/home/xingli/share/LiteOS_Lab/network/dtls/mbedtls/mbedtls-2.16.2/library/cipher.c ****         }
 580:/home/xingli/share/LiteOS_Lab/network/dtls/mbedtls/mbedtls-2.16.2/library/cipher.c **** 
 581:/home/xingli/share/LiteOS_Lab/network/dtls/mbedtls/mbedtls-2.16.2/library/cipher.c ****         *olen = ilen;
 582:/home/xingli/share/LiteOS_Lab/network/dtls/mbedtls/mbedtls-2.16.2/library/cipher.c **** 
 583:/home/xingli/share/LiteOS_Lab/network/dtls/mbedtls/mbedtls-2.16.2/library/cipher.c ****         return( 0 );
 584:/home/xingli/share/LiteOS_Lab/network/dtls/mbedtls/mbedtls-2.16.2/library/cipher.c ****     }
 585:/home/xingli/share/LiteOS_Lab/network/dtls/mbedtls/mbedtls-2.16.2/library/cipher.c **** #endif /* MBEDTLS_CIPHER_MODE_STREAM */
 586:/home/xingli/share/LiteOS_Lab/network/dtls/mbedtls/mbedtls-2.16.2/library/cipher.c **** 
 587:/home/xingli/share/LiteOS_Lab/network/dtls/mbedtls/mbedtls-2.16.2/library/cipher.c ****     return( MBEDTLS_ERR_CIPHER_FEATURE_UNAVAILABLE );
 1499              		.loc 2 587 11
 1500 0423 B8809FFF 		movl	$-24704, %eax
 1500      FF
GAS LISTING /tmp/ccaq2TqD.s 			page 49


 1501              	.L80:
 588:/home/xingli/share/LiteOS_Lab/network/dtls/mbedtls/mbedtls-2.16.2/library/cipher.c **** }
 1502              		.loc 2 588 1
 1503 0428 488B7DF8 		movq	-8(%rbp), %rdi
 1504 042c 6448333C 		xorq	%fs:40, %rdi
 1504      25280000 
 1504      00
 1505 0435 7405     		je	.L100
 1506 0437 E8000000 		call	__stack_chk_fail@PLT
 1506      00
 1507              	.L100:
 1508 043c C9       		leave
 1509              	.LCFI44:
 1510              		.cfi_def_cfa 7, 8
 1511 043d C3       		ret
 1512              		.cfi_endproc
 1513              	.LFE25:
 1515              		.section	.text.add_pkcs_padding,"ax",@progbits
 1517              	add_pkcs_padding:
 1518              	.LFB26:
 589:/home/xingli/share/LiteOS_Lab/network/dtls/mbedtls/mbedtls-2.16.2/library/cipher.c **** 
 590:/home/xingli/share/LiteOS_Lab/network/dtls/mbedtls/mbedtls-2.16.2/library/cipher.c **** #if defined(MBEDTLS_CIPHER_MODE_WITH_PADDING)
 591:/home/xingli/share/LiteOS_Lab/network/dtls/mbedtls/mbedtls-2.16.2/library/cipher.c **** #if defined(MBEDTLS_CIPHER_PADDING_PKCS7)
 592:/home/xingli/share/LiteOS_Lab/network/dtls/mbedtls/mbedtls-2.16.2/library/cipher.c **** /*
 593:/home/xingli/share/LiteOS_Lab/network/dtls/mbedtls/mbedtls-2.16.2/library/cipher.c ****  * PKCS7 (and PKCS5) padding: fill with ll bytes, with ll = padding_len
 594:/home/xingli/share/LiteOS_Lab/network/dtls/mbedtls/mbedtls-2.16.2/library/cipher.c ****  */
 595:/home/xingli/share/LiteOS_Lab/network/dtls/mbedtls/mbedtls-2.16.2/library/cipher.c **** static void add_pkcs_padding( unsigned char *output, size_t output_len,
 596:/home/xingli/share/LiteOS_Lab/network/dtls/mbedtls/mbedtls-2.16.2/library/cipher.c ****         size_t data_len )
 597:/home/xingli/share/LiteOS_Lab/network/dtls/mbedtls/mbedtls-2.16.2/library/cipher.c **** {
 1519              		.loc 2 597 1
 1520              		.cfi_startproc
 1521 0000 F30F1EFA 		endbr64
 1522 0004 55       		pushq	%rbp
 1523              	.LCFI45:
 1524              		.cfi_def_cfa_offset 16
 1525              		.cfi_offset 6, -16
 1526 0005 4889E5   		movq	%rsp, %rbp
 1527              	.LCFI46:
 1528              		.cfi_def_cfa_register 6
 1529 0008 4883EC40 		subq	$64, %rsp
 1530 000c 48897DD8 		movq	%rdi, -40(%rbp)
 1531 0010 488975D0 		movq	%rsi, -48(%rbp)
 1532 0014 488955C8 		movq	%rdx, -56(%rbp)
 1533              		.loc 2 597 1
 1534 0018 64488B04 		movq	%fs:40, %rax
 1534      25280000 
 1534      00
 1535 0021 488945F8 		movq	%rax, -8(%rbp)
 1536 0025 31C0     		xorl	%eax, %eax
 598:/home/xingli/share/LiteOS_Lab/network/dtls/mbedtls/mbedtls-2.16.2/library/cipher.c ****     size_t padding_len = output_len - data_len;
 1537              		.loc 2 598 12
 1538 0027 488B45D0 		movq	-48(%rbp), %rax
 1539 002b 482B45C8 		subq	-56(%rbp), %rax
 1540 002f 488945F0 		movq	%rax, -16(%rbp)
 599:/home/xingli/share/LiteOS_Lab/network/dtls/mbedtls/mbedtls-2.16.2/library/cipher.c ****     unsigned char i;
 600:/home/xingli/share/LiteOS_Lab/network/dtls/mbedtls/mbedtls-2.16.2/library/cipher.c **** 
 601:/home/xingli/share/LiteOS_Lab/network/dtls/mbedtls/mbedtls-2.16.2/library/cipher.c ****     for( i = 0; i < padding_len; i++ )
GAS LISTING /tmp/ccaq2TqD.s 			page 50


 1541              		.loc 2 601 12
 1542 0033 C645EF00 		movb	$0, -17(%rbp)
 1543              		.loc 2 601 5
 1544 0037 EB22     		jmp	.L102
 1545              	.L103:
 602:/home/xingli/share/LiteOS_Lab/network/dtls/mbedtls/mbedtls-2.16.2/library/cipher.c ****         output[data_len + i] = (unsigned char) padding_len;
 1546              		.loc 2 602 25 discriminator 3
 1547 0039 0FB655EF 		movzbl	-17(%rbp), %edx
 1548 003d 488B45C8 		movq	-56(%rbp), %rax
 1549 0041 4801C2   		addq	%rax, %rdx
 1550              		.loc 2 602 15 discriminator 3
 1551 0044 488B45D8 		movq	-40(%rbp), %rax
 1552 0048 4801D0   		addq	%rdx, %rax
 1553              		.loc 2 602 32 discriminator 3
 1554 004b 488B55F0 		movq	-16(%rbp), %rdx
 1555              		.loc 2 602 30 discriminator 3
 1556 004f 8810     		movb	%dl, (%rax)
 601:/home/xingli/share/LiteOS_Lab/network/dtls/mbedtls/mbedtls-2.16.2/library/cipher.c ****         output[data_len + i] = (unsigned char) padding_len;
 1557              		.loc 2 601 35 discriminator 3
 1558 0051 0FB645EF 		movzbl	-17(%rbp), %eax
 1559 0055 83C001   		addl	$1, %eax
 1560 0058 8845EF   		movb	%al, -17(%rbp)
 1561              	.L102:
 601:/home/xingli/share/LiteOS_Lab/network/dtls/mbedtls/mbedtls-2.16.2/library/cipher.c ****         output[data_len + i] = (unsigned char) padding_len;
 1562              		.loc 2 601 19 discriminator 1
 1563 005b 0FB645EF 		movzbl	-17(%rbp), %eax
 601:/home/xingli/share/LiteOS_Lab/network/dtls/mbedtls/mbedtls-2.16.2/library/cipher.c ****         output[data_len + i] = (unsigned char) padding_len;
 1564              		.loc 2 601 5 discriminator 1
 1565 005f 483945F0 		cmpq	%rax, -16(%rbp)
 1566 0063 77D4     		ja	.L103
 603:/home/xingli/share/LiteOS_Lab/network/dtls/mbedtls/mbedtls-2.16.2/library/cipher.c **** }
 1567              		.loc 2 603 1
 1568 0065 90       		nop
 1569 0066 488B45F8 		movq	-8(%rbp), %rax
 1570 006a 64483304 		xorq	%fs:40, %rax
 1570      25280000 
 1570      00
 1571 0073 7405     		je	.L104
 1572 0075 E8000000 		call	__stack_chk_fail@PLT
 1572      00
 1573              	.L104:
 1574 007a C9       		leave
 1575              	.LCFI47:
 1576              		.cfi_def_cfa 7, 8
 1577 007b C3       		ret
 1578              		.cfi_endproc
 1579              	.LFE26:
 1581              		.section	.text.get_pkcs_padding,"ax",@progbits
 1583              	get_pkcs_padding:
 1584              	.LFB27:
 604:/home/xingli/share/LiteOS_Lab/network/dtls/mbedtls/mbedtls-2.16.2/library/cipher.c **** 
 605:/home/xingli/share/LiteOS_Lab/network/dtls/mbedtls/mbedtls-2.16.2/library/cipher.c **** static int get_pkcs_padding( unsigned char *input, size_t input_len,
 606:/home/xingli/share/LiteOS_Lab/network/dtls/mbedtls/mbedtls-2.16.2/library/cipher.c ****         size_t *data_len )
 607:/home/xingli/share/LiteOS_Lab/network/dtls/mbedtls/mbedtls-2.16.2/library/cipher.c **** {
 1585              		.loc 2 607 1
 1586              		.cfi_startproc
 1587 0000 F30F1EFA 		endbr64
GAS LISTING /tmp/ccaq2TqD.s 			page 51


 1588 0004 55       		pushq	%rbp
 1589              	.LCFI48:
 1590              		.cfi_def_cfa_offset 16
 1591              		.cfi_offset 6, -16
 1592 0005 4889E5   		movq	%rsp, %rbp
 1593              	.LCFI49:
 1594              		.cfi_def_cfa_register 6
 1595 0008 4883EC40 		subq	$64, %rsp
 1596 000c 48897DD8 		movq	%rdi, -40(%rbp)
 1597 0010 488975D0 		movq	%rsi, -48(%rbp)
 1598 0014 488955C8 		movq	%rdx, -56(%rbp)
 1599              		.loc 2 607 1
 1600 0018 64488B04 		movq	%fs:40, %rax
 1600      25280000 
 1600      00
 1601 0021 488945F8 		movq	%rax, -8(%rbp)
 1602 0025 31C0     		xorl	%eax, %eax
 608:/home/xingli/share/LiteOS_Lab/network/dtls/mbedtls/mbedtls-2.16.2/library/cipher.c ****     size_t i, pad_idx;
 609:/home/xingli/share/LiteOS_Lab/network/dtls/mbedtls/mbedtls-2.16.2/library/cipher.c ****     unsigned char padding_len, bad = 0;
 1603              		.loc 2 609 32
 1604 0027 C645E600 		movb	$0, -26(%rbp)
 610:/home/xingli/share/LiteOS_Lab/network/dtls/mbedtls/mbedtls-2.16.2/library/cipher.c **** 
 611:/home/xingli/share/LiteOS_Lab/network/dtls/mbedtls/mbedtls-2.16.2/library/cipher.c ****     if( NULL == input || NULL == data_len )
 1605              		.loc 2 611 7
 1606 002b 48837DD8 		cmpq	$0, -40(%rbp)
 1606      00
 1607 0030 7407     		je	.L106
 1608              		.loc 2 611 23 discriminator 1
 1609 0032 48837DC8 		cmpq	$0, -56(%rbp)
 1609      00
 1610 0037 750A     		jne	.L107
 1611              	.L106:
 612:/home/xingli/share/LiteOS_Lab/network/dtls/mbedtls/mbedtls-2.16.2/library/cipher.c ****         return( MBEDTLS_ERR_CIPHER_BAD_INPUT_DATA );
 1612              		.loc 2 612 15
 1613 0039 B8009FFF 		movl	$-24832, %eax
 1613      FF
 1614 003e E9BF0000 		jmp	.L108
 1614      00
 1615              	.L107:
 613:/home/xingli/share/LiteOS_Lab/network/dtls/mbedtls/mbedtls-2.16.2/library/cipher.c **** 
 614:/home/xingli/share/LiteOS_Lab/network/dtls/mbedtls/mbedtls-2.16.2/library/cipher.c ****     padding_len = input[input_len - 1];
 1616              		.loc 2 614 24
 1617 0043 488B45D0 		movq	-48(%rbp), %rax
 1618 0047 488D50FF 		leaq	-1(%rax), %rdx
 1619 004b 488B45D8 		movq	-40(%rbp), %rax
 1620 004f 4801D0   		addq	%rdx, %rax
 1621              		.loc 2 614 17
 1622 0052 0FB600   		movzbl	(%rax), %eax
 1623 0055 8845E7   		movb	%al, -25(%rbp)
 615:/home/xingli/share/LiteOS_Lab/network/dtls/mbedtls/mbedtls-2.16.2/library/cipher.c ****     *data_len = input_len - padding_len;
 1624              		.loc 2 615 27
 1625 0058 0FB645E7 		movzbl	-25(%rbp), %eax
 1626 005c 488B55D0 		movq	-48(%rbp), %rdx
 1627 0060 4829C2   		subq	%rax, %rdx
 1628              		.loc 2 615 15
 1629 0063 488B45C8 		movq	-56(%rbp), %rax
 1630 0067 488910   		movq	%rdx, (%rax)
GAS LISTING /tmp/ccaq2TqD.s 			page 52


 616:/home/xingli/share/LiteOS_Lab/network/dtls/mbedtls/mbedtls-2.16.2/library/cipher.c **** 
 617:/home/xingli/share/LiteOS_Lab/network/dtls/mbedtls/mbedtls-2.16.2/library/cipher.c ****     /* Avoid logical || since it results in a branch */
 618:/home/xingli/share/LiteOS_Lab/network/dtls/mbedtls/mbedtls-2.16.2/library/cipher.c ****     bad |= padding_len > input_len;
 1631              		.loc 2 618 24
 1632 006a 0FB645E7 		movzbl	-25(%rbp), %eax
 1633 006e 483945D0 		cmpq	%rax, -48(%rbp)
 1634 0072 0F92C0   		setb	%al
 1635 0075 89C2     		movl	%eax, %edx
 1636              		.loc 2 618 9
 1637 0077 0FB645E6 		movzbl	-26(%rbp), %eax
 1638 007b 09D0     		orl	%edx, %eax
 1639 007d 8845E6   		movb	%al, -26(%rbp)
 619:/home/xingli/share/LiteOS_Lab/network/dtls/mbedtls/mbedtls-2.16.2/library/cipher.c ****     bad |= padding_len == 0;
 1640              		.loc 2 619 24
 1641 0080 807DE700 		cmpb	$0, -25(%rbp)
 1642 0084 0F94C0   		sete	%al
 1643 0087 89C2     		movl	%eax, %edx
 1644              		.loc 2 619 9
 1645 0089 0FB645E6 		movzbl	-26(%rbp), %eax
 1646 008d 09D0     		orl	%edx, %eax
 1647 008f 8845E6   		movb	%al, -26(%rbp)
 620:/home/xingli/share/LiteOS_Lab/network/dtls/mbedtls/mbedtls-2.16.2/library/cipher.c **** 
 621:/home/xingli/share/LiteOS_Lab/network/dtls/mbedtls/mbedtls-2.16.2/library/cipher.c ****     /* The number of bytes checked must be independent of padding_len,
 622:/home/xingli/share/LiteOS_Lab/network/dtls/mbedtls/mbedtls-2.16.2/library/cipher.c ****      * so pick input_len, which is usually 8 or 16 (one block) */
 623:/home/xingli/share/LiteOS_Lab/network/dtls/mbedtls/mbedtls-2.16.2/library/cipher.c ****     pad_idx = input_len - padding_len;
 1648              		.loc 2 623 25
 1649 0092 0FB645E7 		movzbl	-25(%rbp), %eax
 1650              		.loc 2 623 13
 1651 0096 488B55D0 		movq	-48(%rbp), %rdx
 1652 009a 4829C2   		subq	%rax, %rdx
 1653 009d 4889D0   		movq	%rdx, %rax
 1654 00a0 488945F0 		movq	%rax, -16(%rbp)
 624:/home/xingli/share/LiteOS_Lab/network/dtls/mbedtls/mbedtls-2.16.2/library/cipher.c ****     for( i = 0; i < input_len; i++ )
 1655              		.loc 2 624 12
 1656 00a4 48C745E8 		movq	$0, -24(%rbp)
 1656      00000000 
 1657              		.loc 2 624 5
 1658 00ac EB38     		jmp	.L109
 1659              	.L110:
 625:/home/xingli/share/LiteOS_Lab/network/dtls/mbedtls/mbedtls-2.16.2/library/cipher.c ****         bad |= ( input[i] ^ padding_len ) * ( i >= pad_idx );
 1660              		.loc 2 625 23 discriminator 3
 1661 00ae 488B55D8 		movq	-40(%rbp), %rdx
 1662 00b2 488B45E8 		movq	-24(%rbp), %rax
 1663 00b6 4801D0   		addq	%rdx, %rax
 1664 00b9 0FB600   		movzbl	(%rax), %eax
 1665              		.loc 2 625 13 discriminator 3
 1666 00bc 3245E7   		xorb	-25(%rbp), %al
 1667 00bf 89C2     		movl	%eax, %edx
 1668              		.loc 2 625 49 discriminator 3
 1669 00c1 488B45E8 		movq	-24(%rbp), %rax
 1670 00c5 483B45F0 		cmpq	-16(%rbp), %rax
 1671 00c9 0F93C0   		setnb	%al
 1672 00cc 0FB6C0   		movzbl	%al, %eax
 1673              		.loc 2 625 13 discriminator 3
 1674 00cf 89C1     		movl	%eax, %ecx
 1675 00d1 89D0     		movl	%edx, %eax
 1676 00d3 0FAFC1   		imull	%ecx, %eax
GAS LISTING /tmp/ccaq2TqD.s 			page 53


 1677 00d6 89C2     		movl	%eax, %edx
 1678 00d8 0FB645E6 		movzbl	-26(%rbp), %eax
 1679 00dc 09D0     		orl	%edx, %eax
 1680 00de 8845E6   		movb	%al, -26(%rbp)
 624:/home/xingli/share/LiteOS_Lab/network/dtls/mbedtls/mbedtls-2.16.2/library/cipher.c ****     for( i = 0; i < input_len; i++ )
 1681              		.loc 2 624 33 discriminator 3
 1682 00e1 488345E8 		addq	$1, -24(%rbp)
 1682      01
 1683              	.L109:
 624:/home/xingli/share/LiteOS_Lab/network/dtls/mbedtls/mbedtls-2.16.2/library/cipher.c ****     for( i = 0; i < input_len; i++ )
 1684              		.loc 2 624 5 discriminator 1
 1685 00e6 488B45E8 		movq	-24(%rbp), %rax
 1686 00ea 483B45D0 		cmpq	-48(%rbp), %rax
 1687 00ee 72BE     		jb	.L110
 626:/home/xingli/share/LiteOS_Lab/network/dtls/mbedtls/mbedtls-2.16.2/library/cipher.c **** 
 627:/home/xingli/share/LiteOS_Lab/network/dtls/mbedtls/mbedtls-2.16.2/library/cipher.c ****     return( MBEDTLS_ERR_CIPHER_INVALID_PADDING * ( bad != 0 ) );
 1688              		.loc 2 627 48
 1689 00f0 807DE600 		cmpb	$0, -26(%rbp)
 1690 00f4 7407     		je	.L111
 1691              		.loc 2 627 48 is_stmt 0 discriminator 1
 1692 00f6 B8009EFF 		movl	$-25088, %eax
 1692      FF
 1693 00fb EB05     		jmp	.L108
 1694              	.L111:
 1695              		.loc 2 627 48 discriminator 2
 1696 00fd B8000000 		movl	$0, %eax
 1696      00
 1697              	.L108:
 628:/home/xingli/share/LiteOS_Lab/network/dtls/mbedtls/mbedtls-2.16.2/library/cipher.c **** }
 1698              		.loc 2 628 1 is_stmt 1
 1699 0102 488B75F8 		movq	-8(%rbp), %rsi
 1700 0106 64483334 		xorq	%fs:40, %rsi
 1700      25280000 
 1700      00
 1701 010f 7405     		je	.L113
 1702 0111 E8000000 		call	__stack_chk_fail@PLT
 1702      00
 1703              	.L113:
 1704 0116 C9       		leave
 1705              	.LCFI50:
 1706              		.cfi_def_cfa 7, 8
 1707 0117 C3       		ret
 1708              		.cfi_endproc
 1709              	.LFE27:
 1711              		.section	.text.add_one_and_zeros_padding,"ax",@progbits
 1713              	add_one_and_zeros_padding:
 1714              	.LFB28:
 629:/home/xingli/share/LiteOS_Lab/network/dtls/mbedtls/mbedtls-2.16.2/library/cipher.c **** #endif /* MBEDTLS_CIPHER_PADDING_PKCS7 */
 630:/home/xingli/share/LiteOS_Lab/network/dtls/mbedtls/mbedtls-2.16.2/library/cipher.c **** 
 631:/home/xingli/share/LiteOS_Lab/network/dtls/mbedtls/mbedtls-2.16.2/library/cipher.c **** #if defined(MBEDTLS_CIPHER_PADDING_ONE_AND_ZEROS)
 632:/home/xingli/share/LiteOS_Lab/network/dtls/mbedtls/mbedtls-2.16.2/library/cipher.c **** /*
 633:/home/xingli/share/LiteOS_Lab/network/dtls/mbedtls/mbedtls-2.16.2/library/cipher.c ****  * One and zeros padding: fill with 80 00 ... 00
 634:/home/xingli/share/LiteOS_Lab/network/dtls/mbedtls/mbedtls-2.16.2/library/cipher.c ****  */
 635:/home/xingli/share/LiteOS_Lab/network/dtls/mbedtls/mbedtls-2.16.2/library/cipher.c **** static void add_one_and_zeros_padding( unsigned char *output,
 636:/home/xingli/share/LiteOS_Lab/network/dtls/mbedtls/mbedtls-2.16.2/library/cipher.c ****                                        size_t output_len, size_t data_len )
 637:/home/xingli/share/LiteOS_Lab/network/dtls/mbedtls/mbedtls-2.16.2/library/cipher.c **** {
 1715              		.loc 2 637 1
GAS LISTING /tmp/ccaq2TqD.s 			page 54


 1716              		.cfi_startproc
 1717 0000 F30F1EFA 		endbr64
 1718 0004 55       		pushq	%rbp
 1719              	.LCFI51:
 1720              		.cfi_def_cfa_offset 16
 1721              		.cfi_offset 6, -16
 1722 0005 4889E5   		movq	%rsp, %rbp
 1723              	.LCFI52:
 1724              		.cfi_def_cfa_register 6
 1725 0008 4883EC40 		subq	$64, %rsp
 1726 000c 48897DD8 		movq	%rdi, -40(%rbp)
 1727 0010 488975D0 		movq	%rsi, -48(%rbp)
 1728 0014 488955C8 		movq	%rdx, -56(%rbp)
 1729              		.loc 2 637 1
 1730 0018 64488B04 		movq	%fs:40, %rax
 1730      25280000 
 1730      00
 1731 0021 488945F8 		movq	%rax, -8(%rbp)
 1732 0025 31C0     		xorl	%eax, %eax
 638:/home/xingli/share/LiteOS_Lab/network/dtls/mbedtls/mbedtls-2.16.2/library/cipher.c ****     size_t padding_len = output_len - data_len;
 1733              		.loc 2 638 12
 1734 0027 488B45D0 		movq	-48(%rbp), %rax
 1735 002b 482B45C8 		subq	-56(%rbp), %rax
 1736 002f 488945F0 		movq	%rax, -16(%rbp)
 639:/home/xingli/share/LiteOS_Lab/network/dtls/mbedtls/mbedtls-2.16.2/library/cipher.c ****     unsigned char i = 0;
 1737              		.loc 2 639 19
 1738 0033 C645EF00 		movb	$0, -17(%rbp)
 640:/home/xingli/share/LiteOS_Lab/network/dtls/mbedtls/mbedtls-2.16.2/library/cipher.c **** 
 641:/home/xingli/share/LiteOS_Lab/network/dtls/mbedtls/mbedtls-2.16.2/library/cipher.c ****     output[data_len] = 0x80;
 1739              		.loc 2 641 11
 1740 0037 488B55D8 		movq	-40(%rbp), %rdx
 1741 003b 488B45C8 		movq	-56(%rbp), %rax
 1742 003f 4801D0   		addq	%rdx, %rax
 1743              		.loc 2 641 22
 1744 0042 C60080   		movb	$-128, (%rax)
 642:/home/xingli/share/LiteOS_Lab/network/dtls/mbedtls/mbedtls-2.16.2/library/cipher.c ****     for( i = 1; i < padding_len; i++ )
 1745              		.loc 2 642 12
 1746 0045 C645EF01 		movb	$1, -17(%rbp)
 1747              		.loc 2 642 5
 1748 0049 EB1F     		jmp	.L115
 1749              	.L116:
 643:/home/xingli/share/LiteOS_Lab/network/dtls/mbedtls/mbedtls-2.16.2/library/cipher.c ****         output[data_len + i] = 0x00;
 1750              		.loc 2 643 25 discriminator 3
 1751 004b 0FB655EF 		movzbl	-17(%rbp), %edx
 1752 004f 488B45C8 		movq	-56(%rbp), %rax
 1753 0053 4801C2   		addq	%rax, %rdx
 1754              		.loc 2 643 15 discriminator 3
 1755 0056 488B45D8 		movq	-40(%rbp), %rax
 1756 005a 4801D0   		addq	%rdx, %rax
 1757              		.loc 2 643 30 discriminator 3
 1758 005d C60000   		movb	$0, (%rax)
 642:/home/xingli/share/LiteOS_Lab/network/dtls/mbedtls/mbedtls-2.16.2/library/cipher.c ****     for( i = 1; i < padding_len; i++ )
 1759              		.loc 2 642 35 discriminator 3
 1760 0060 0FB645EF 		movzbl	-17(%rbp), %eax
 1761 0064 83C001   		addl	$1, %eax
 1762 0067 8845EF   		movb	%al, -17(%rbp)
 1763              	.L115:
GAS LISTING /tmp/ccaq2TqD.s 			page 55


 642:/home/xingli/share/LiteOS_Lab/network/dtls/mbedtls/mbedtls-2.16.2/library/cipher.c ****     for( i = 1; i < padding_len; i++ )
 1764              		.loc 2 642 19 discriminator 1
 1765 006a 0FB645EF 		movzbl	-17(%rbp), %eax
 642:/home/xingli/share/LiteOS_Lab/network/dtls/mbedtls/mbedtls-2.16.2/library/cipher.c ****     for( i = 1; i < padding_len; i++ )
 1766              		.loc 2 642 5 discriminator 1
 1767 006e 483945F0 		cmpq	%rax, -16(%rbp)
 1768 0072 77D7     		ja	.L116
 644:/home/xingli/share/LiteOS_Lab/network/dtls/mbedtls/mbedtls-2.16.2/library/cipher.c **** }
 1769              		.loc 2 644 1
 1770 0074 90       		nop
 1771 0075 488B45F8 		movq	-8(%rbp), %rax
 1772 0079 64483304 		xorq	%fs:40, %rax
 1772      25280000 
 1772      00
 1773 0082 7405     		je	.L117
 1774 0084 E8000000 		call	__stack_chk_fail@PLT
 1774      00
 1775              	.L117:
 1776 0089 C9       		leave
 1777              	.LCFI53:
 1778              		.cfi_def_cfa 7, 8
 1779 008a C3       		ret
 1780              		.cfi_endproc
 1781              	.LFE28:
 1783              		.section	.text.get_one_and_zeros_padding,"ax",@progbits
 1785              	get_one_and_zeros_padding:
 1786              	.LFB29:
 645:/home/xingli/share/LiteOS_Lab/network/dtls/mbedtls/mbedtls-2.16.2/library/cipher.c **** 
 646:/home/xingli/share/LiteOS_Lab/network/dtls/mbedtls/mbedtls-2.16.2/library/cipher.c **** static int get_one_and_zeros_padding( unsigned char *input, size_t input_len,
 647:/home/xingli/share/LiteOS_Lab/network/dtls/mbedtls/mbedtls-2.16.2/library/cipher.c ****                                       size_t *data_len )
 648:/home/xingli/share/LiteOS_Lab/network/dtls/mbedtls/mbedtls-2.16.2/library/cipher.c **** {
 1787              		.loc 2 648 1
 1788              		.cfi_startproc
 1789 0000 F30F1EFA 		endbr64
 1790 0004 55       		pushq	%rbp
 1791              	.LCFI54:
 1792              		.cfi_def_cfa_offset 16
 1793              		.cfi_offset 6, -16
 1794 0005 4889E5   		movq	%rsp, %rbp
 1795              	.LCFI55:
 1796              		.cfi_def_cfa_register 6
 1797 0008 4883EC40 		subq	$64, %rsp
 1798 000c 48897DD8 		movq	%rdi, -40(%rbp)
 1799 0010 488975D0 		movq	%rsi, -48(%rbp)
 1800 0014 488955C8 		movq	%rdx, -56(%rbp)
 1801              		.loc 2 648 1
 1802 0018 64488B04 		movq	%fs:40, %rax
 1802      25280000 
 1802      00
 1803 0021 488945F8 		movq	%rax, -8(%rbp)
 1804 0025 31C0     		xorl	%eax, %eax
 649:/home/xingli/share/LiteOS_Lab/network/dtls/mbedtls/mbedtls-2.16.2/library/cipher.c ****     size_t i;
 650:/home/xingli/share/LiteOS_Lab/network/dtls/mbedtls/mbedtls-2.16.2/library/cipher.c ****     unsigned char done = 0, prev_done, bad;
 1805              		.loc 2 650 19
 1806 0027 C645ED00 		movb	$0, -19(%rbp)
 651:/home/xingli/share/LiteOS_Lab/network/dtls/mbedtls/mbedtls-2.16.2/library/cipher.c **** 
 652:/home/xingli/share/LiteOS_Lab/network/dtls/mbedtls/mbedtls-2.16.2/library/cipher.c ****     if( NULL == input || NULL == data_len )
GAS LISTING /tmp/ccaq2TqD.s 			page 56


 1807              		.loc 2 652 7
 1808 002b 48837DD8 		cmpq	$0, -40(%rbp)
 1808      00
 1809 0030 7407     		je	.L119
 1810              		.loc 2 652 23 discriminator 1
 1811 0032 48837DC8 		cmpq	$0, -56(%rbp)
 1811      00
 1812 0037 750A     		jne	.L120
 1813              	.L119:
 653:/home/xingli/share/LiteOS_Lab/network/dtls/mbedtls/mbedtls-2.16.2/library/cipher.c ****         return( MBEDTLS_ERR_CIPHER_BAD_INPUT_DATA );
 1814              		.loc 2 653 15
 1815 0039 B8009FFF 		movl	$-24832, %eax
 1815      FF
 1816 003e E9C20000 		jmp	.L121
 1816      00
 1817              	.L120:
 654:/home/xingli/share/LiteOS_Lab/network/dtls/mbedtls/mbedtls-2.16.2/library/cipher.c **** 
 655:/home/xingli/share/LiteOS_Lab/network/dtls/mbedtls/mbedtls-2.16.2/library/cipher.c ****     bad = 0x80;
 1818              		.loc 2 655 9
 1819 0043 C645EE80 		movb	$-128, -18(%rbp)
 656:/home/xingli/share/LiteOS_Lab/network/dtls/mbedtls/mbedtls-2.16.2/library/cipher.c ****     *data_len = 0;
 1820              		.loc 2 656 15
 1821 0047 488B45C8 		movq	-56(%rbp), %rax
 1822 004b 48C70000 		movq	$0, (%rax)
 1822      000000
 657:/home/xingli/share/LiteOS_Lab/network/dtls/mbedtls/mbedtls-2.16.2/library/cipher.c ****     for( i = input_len; i > 0; i-- )
 1823              		.loc 2 657 12
 1824 0052 488B45D0 		movq	-48(%rbp), %rax
 1825 0056 488945F0 		movq	%rax, -16(%rbp)
 1826              		.loc 2 657 5
 1827 005a E9890000 		jmp	.L122
 1827      00
 1828              	.L123:
 658:/home/xingli/share/LiteOS_Lab/network/dtls/mbedtls/mbedtls-2.16.2/library/cipher.c ****     {
 659:/home/xingli/share/LiteOS_Lab/network/dtls/mbedtls/mbedtls-2.16.2/library/cipher.c ****         prev_done = done;
 1829              		.loc 2 659 19 discriminator 3
 1830 005f 0FB645ED 		movzbl	-19(%rbp), %eax
 1831 0063 8845EF   		movb	%al, -17(%rbp)
 660:/home/xingli/share/LiteOS_Lab/network/dtls/mbedtls/mbedtls-2.16.2/library/cipher.c ****         done |= ( input[i - 1] != 0 );
 1832              		.loc 2 660 24 discriminator 3
 1833 0066 488B45F0 		movq	-16(%rbp), %rax
 1834 006a 488D50FF 		leaq	-1(%rax), %rdx
 1835 006e 488B45D8 		movq	-40(%rbp), %rax
 1836 0072 4801D0   		addq	%rdx, %rax
 1837 0075 0FB600   		movzbl	(%rax), %eax
 1838              		.loc 2 660 32 discriminator 3
 1839 0078 84C0     		testb	%al, %al
 1840 007a 0F95C0   		setne	%al
 1841 007d 89C2     		movl	%eax, %edx
 1842              		.loc 2 660 14 discriminator 3
 1843 007f 0FB645ED 		movzbl	-19(%rbp), %eax
 1844 0083 09D0     		orl	%edx, %eax
 1845 0085 8845ED   		movb	%al, -19(%rbp)
 661:/home/xingli/share/LiteOS_Lab/network/dtls/mbedtls/mbedtls-2.16.2/library/cipher.c ****         *data_len |= ( i - 1 ) * ( done != prev_done );
 1846              		.loc 2 661 19 discriminator 3
 1847 0088 488B45C8 		movq	-56(%rbp), %rax
 1848 008c 488B10   		movq	(%rax), %rdx
GAS LISTING /tmp/ccaq2TqD.s 			page 57


 1849              		.loc 2 661 26 discriminator 3
 1850 008f 488B45F0 		movq	-16(%rbp), %rax
 1851 0093 488D48FF 		leaq	-1(%rax), %rcx
 1852              		.loc 2 661 41 discriminator 3
 1853 0097 0FB645ED 		movzbl	-19(%rbp), %eax
 1854 009b 3A45EF   		cmpb	-17(%rbp), %al
 1855 009e 0F95C0   		setne	%al
 1856 00a1 0FB6C0   		movzbl	%al, %eax
 1857              		.loc 2 661 32 discriminator 3
 1858 00a4 480FAFC1 		imulq	%rcx, %rax
 1859              		.loc 2 661 19 discriminator 3
 1860 00a8 4809C2   		orq	%rax, %rdx
 1861 00ab 488B45C8 		movq	-56(%rbp), %rax
 1862 00af 488910   		movq	%rdx, (%rax)
 662:/home/xingli/share/LiteOS_Lab/network/dtls/mbedtls/mbedtls-2.16.2/library/cipher.c ****         bad ^= input[i - 1] * ( done != prev_done );
 1863              		.loc 2 662 21 discriminator 3
 1864 00b2 488B45F0 		movq	-16(%rbp), %rax
 1865 00b6 488D50FF 		leaq	-1(%rax), %rdx
 1866 00ba 488B45D8 		movq	-40(%rbp), %rax
 1867 00be 4801D0   		addq	%rdx, %rax
 1868              		.loc 2 662 13 discriminator 3
 1869 00c1 0FB610   		movzbl	(%rax), %edx
 1870              		.loc 2 662 38 discriminator 3
 1871 00c4 0FB645ED 		movzbl	-19(%rbp), %eax
 1872 00c8 3A45EF   		cmpb	-17(%rbp), %al
 1873 00cb 0F95C0   		setne	%al
 1874 00ce 0FB6C0   		movzbl	%al, %eax
 1875              		.loc 2 662 13 discriminator 3
 1876 00d1 89C1     		movl	%eax, %ecx
 1877 00d3 89D0     		movl	%edx, %eax
 1878 00d5 0FAFC1   		imull	%ecx, %eax
 1879 00d8 89C2     		movl	%eax, %edx
 1880 00da 0FB645EE 		movzbl	-18(%rbp), %eax
 1881 00de 31D0     		xorl	%edx, %eax
 1882 00e0 8845EE   		movb	%al, -18(%rbp)
 657:/home/xingli/share/LiteOS_Lab/network/dtls/mbedtls/mbedtls-2.16.2/library/cipher.c ****     {
 1883              		.loc 2 657 33 discriminator 3
 1884 00e3 48836DF0 		subq	$1, -16(%rbp)
 1884      01
 1885              	.L122:
 657:/home/xingli/share/LiteOS_Lab/network/dtls/mbedtls/mbedtls-2.16.2/library/cipher.c ****     {
 1886              		.loc 2 657 5 discriminator 1
 1887 00e8 48837DF0 		cmpq	$0, -16(%rbp)
 1887      00
 1888 00ed 0F856CFF 		jne	.L123
 1888      FFFF
 663:/home/xingli/share/LiteOS_Lab/network/dtls/mbedtls/mbedtls-2.16.2/library/cipher.c ****     }
 664:/home/xingli/share/LiteOS_Lab/network/dtls/mbedtls/mbedtls-2.16.2/library/cipher.c **** 
 665:/home/xingli/share/LiteOS_Lab/network/dtls/mbedtls/mbedtls-2.16.2/library/cipher.c ****     return( MBEDTLS_ERR_CIPHER_INVALID_PADDING * ( bad != 0 ) );
 1889              		.loc 2 665 48
 1890 00f3 807DEE00 		cmpb	$0, -18(%rbp)
 1891 00f7 7407     		je	.L124
 1892              		.loc 2 665 48 is_stmt 0 discriminator 1
 1893 00f9 B8009EFF 		movl	$-25088, %eax
 1893      FF
 1894 00fe EB05     		jmp	.L121
 1895              	.L124:
GAS LISTING /tmp/ccaq2TqD.s 			page 58


 1896              		.loc 2 665 48 discriminator 2
 1897 0100 B8000000 		movl	$0, %eax
 1897      00
 1898              	.L121:
 666:/home/xingli/share/LiteOS_Lab/network/dtls/mbedtls/mbedtls-2.16.2/library/cipher.c **** 
 667:/home/xingli/share/LiteOS_Lab/network/dtls/mbedtls/mbedtls-2.16.2/library/cipher.c **** }
 1899              		.loc 2 667 1 is_stmt 1
 1900 0105 488B75F8 		movq	-8(%rbp), %rsi
 1901 0109 64483334 		xorq	%fs:40, %rsi
 1901      25280000 
 1901      00
 1902 0112 7405     		je	.L126
 1903 0114 E8000000 		call	__stack_chk_fail@PLT
 1903      00
 1904              	.L126:
 1905 0119 C9       		leave
 1906              	.LCFI56:
 1907              		.cfi_def_cfa 7, 8
 1908 011a C3       		ret
 1909              		.cfi_endproc
 1910              	.LFE29:
 1912              		.section	.text.add_zeros_and_len_padding,"ax",@progbits
 1914              	add_zeros_and_len_padding:
 1915              	.LFB30:
 668:/home/xingli/share/LiteOS_Lab/network/dtls/mbedtls/mbedtls-2.16.2/library/cipher.c **** #endif /* MBEDTLS_CIPHER_PADDING_ONE_AND_ZEROS */
 669:/home/xingli/share/LiteOS_Lab/network/dtls/mbedtls/mbedtls-2.16.2/library/cipher.c **** 
 670:/home/xingli/share/LiteOS_Lab/network/dtls/mbedtls/mbedtls-2.16.2/library/cipher.c **** #if defined(MBEDTLS_CIPHER_PADDING_ZEROS_AND_LEN)
 671:/home/xingli/share/LiteOS_Lab/network/dtls/mbedtls/mbedtls-2.16.2/library/cipher.c **** /*
 672:/home/xingli/share/LiteOS_Lab/network/dtls/mbedtls/mbedtls-2.16.2/library/cipher.c ****  * Zeros and len padding: fill with 00 ... 00 ll, where ll is padding length
 673:/home/xingli/share/LiteOS_Lab/network/dtls/mbedtls/mbedtls-2.16.2/library/cipher.c ****  */
 674:/home/xingli/share/LiteOS_Lab/network/dtls/mbedtls/mbedtls-2.16.2/library/cipher.c **** static void add_zeros_and_len_padding( unsigned char *output,
 675:/home/xingli/share/LiteOS_Lab/network/dtls/mbedtls/mbedtls-2.16.2/library/cipher.c ****                                        size_t output_len, size_t data_len )
 676:/home/xingli/share/LiteOS_Lab/network/dtls/mbedtls/mbedtls-2.16.2/library/cipher.c **** {
 1916              		.loc 2 676 1
 1917              		.cfi_startproc
 1918 0000 F30F1EFA 		endbr64
 1919 0004 55       		pushq	%rbp
 1920              	.LCFI57:
 1921              		.cfi_def_cfa_offset 16
 1922              		.cfi_offset 6, -16
 1923 0005 4889E5   		movq	%rsp, %rbp
 1924              	.LCFI58:
 1925              		.cfi_def_cfa_register 6
 1926 0008 4883EC40 		subq	$64, %rsp
 1927 000c 48897DD8 		movq	%rdi, -40(%rbp)
 1928 0010 488975D0 		movq	%rsi, -48(%rbp)
 1929 0014 488955C8 		movq	%rdx, -56(%rbp)
 1930              		.loc 2 676 1
 1931 0018 64488B04 		movq	%fs:40, %rax
 1931      25280000 
 1931      00
 1932 0021 488945F8 		movq	%rax, -8(%rbp)
 1933 0025 31C0     		xorl	%eax, %eax
 677:/home/xingli/share/LiteOS_Lab/network/dtls/mbedtls/mbedtls-2.16.2/library/cipher.c ****     size_t padding_len = output_len - data_len;
 1934              		.loc 2 677 12
 1935 0027 488B45D0 		movq	-48(%rbp), %rax
 1936 002b 482B45C8 		subq	-56(%rbp), %rax
GAS LISTING /tmp/ccaq2TqD.s 			page 59


 1937 002f 488945F0 		movq	%rax, -16(%rbp)
 678:/home/xingli/share/LiteOS_Lab/network/dtls/mbedtls/mbedtls-2.16.2/library/cipher.c ****     unsigned char i = 0;
 1938              		.loc 2 678 19
 1939 0033 C645EF00 		movb	$0, -17(%rbp)
 679:/home/xingli/share/LiteOS_Lab/network/dtls/mbedtls/mbedtls-2.16.2/library/cipher.c **** 
 680:/home/xingli/share/LiteOS_Lab/network/dtls/mbedtls/mbedtls-2.16.2/library/cipher.c ****     for( i = 1; i < padding_len; i++ )
 1940              		.loc 2 680 12
 1941 0037 C645EF01 		movb	$1, -17(%rbp)
 1942              		.loc 2 680 5
 1943 003b EB23     		jmp	.L128
 1944              	.L129:
 681:/home/xingli/share/LiteOS_Lab/network/dtls/mbedtls/mbedtls-2.16.2/library/cipher.c ****         output[data_len + i - 1] = 0x00;
 1945              		.loc 2 681 25 discriminator 3
 1946 003d 0FB655EF 		movzbl	-17(%rbp), %edx
 1947 0041 488B45C8 		movq	-56(%rbp), %rax
 1948 0045 4801D0   		addq	%rdx, %rax
 1949              		.loc 2 681 15 discriminator 3
 1950 0048 488D50FF 		leaq	-1(%rax), %rdx
 1951 004c 488B45D8 		movq	-40(%rbp), %rax
 1952 0050 4801D0   		addq	%rdx, %rax
 1953              		.loc 2 681 34 discriminator 3
 1954 0053 C60000   		movb	$0, (%rax)
 680:/home/xingli/share/LiteOS_Lab/network/dtls/mbedtls/mbedtls-2.16.2/library/cipher.c ****         output[data_len + i - 1] = 0x00;
 1955              		.loc 2 680 35 discriminator 3
 1956 0056 0FB645EF 		movzbl	-17(%rbp), %eax
 1957 005a 83C001   		addl	$1, %eax
 1958 005d 8845EF   		movb	%al, -17(%rbp)
 1959              	.L128:
 680:/home/xingli/share/LiteOS_Lab/network/dtls/mbedtls/mbedtls-2.16.2/library/cipher.c ****         output[data_len + i - 1] = 0x00;
 1960              		.loc 2 680 19 discriminator 1
 1961 0060 0FB645EF 		movzbl	-17(%rbp), %eax
 680:/home/xingli/share/LiteOS_Lab/network/dtls/mbedtls/mbedtls-2.16.2/library/cipher.c ****         output[data_len + i - 1] = 0x00;
 1962              		.loc 2 680 5 discriminator 1
 1963 0064 483945F0 		cmpq	%rax, -16(%rbp)
 1964 0068 77D3     		ja	.L129
 682:/home/xingli/share/LiteOS_Lab/network/dtls/mbedtls/mbedtls-2.16.2/library/cipher.c ****     output[output_len - 1] = (unsigned char) padding_len;
 1965              		.loc 2 682 11
 1966 006a 488B45D0 		movq	-48(%rbp), %rax
 1967 006e 488D50FF 		leaq	-1(%rax), %rdx
 1968 0072 488B45D8 		movq	-40(%rbp), %rax
 1969 0076 4801D0   		addq	%rdx, %rax
 1970              		.loc 2 682 30
 1971 0079 488B55F0 		movq	-16(%rbp), %rdx
 1972              		.loc 2 682 28
 1973 007d 8810     		movb	%dl, (%rax)
 683:/home/xingli/share/LiteOS_Lab/network/dtls/mbedtls/mbedtls-2.16.2/library/cipher.c **** }
 1974              		.loc 2 683 1
 1975 007f 90       		nop
 1976 0080 488B45F8 		movq	-8(%rbp), %rax
 1977 0084 64483304 		xorq	%fs:40, %rax
 1977      25280000 
 1977      00
 1978 008d 7405     		je	.L130
 1979 008f E8000000 		call	__stack_chk_fail@PLT
 1979      00
 1980              	.L130:
 1981 0094 C9       		leave
GAS LISTING /tmp/ccaq2TqD.s 			page 60


 1982              	.LCFI59:
 1983              		.cfi_def_cfa 7, 8
 1984 0095 C3       		ret
 1985              		.cfi_endproc
 1986              	.LFE30:
 1988              		.section	.text.get_zeros_and_len_padding,"ax",@progbits
 1990              	get_zeros_and_len_padding:
 1991              	.LFB31:
 684:/home/xingli/share/LiteOS_Lab/network/dtls/mbedtls/mbedtls-2.16.2/library/cipher.c **** 
 685:/home/xingli/share/LiteOS_Lab/network/dtls/mbedtls/mbedtls-2.16.2/library/cipher.c **** static int get_zeros_and_len_padding( unsigned char *input, size_t input_len,
 686:/home/xingli/share/LiteOS_Lab/network/dtls/mbedtls/mbedtls-2.16.2/library/cipher.c ****                                       size_t *data_len )
 687:/home/xingli/share/LiteOS_Lab/network/dtls/mbedtls/mbedtls-2.16.2/library/cipher.c **** {
 1992              		.loc 2 687 1
 1993              		.cfi_startproc
 1994 0000 F30F1EFA 		endbr64
 1995 0004 55       		pushq	%rbp
 1996              	.LCFI60:
 1997              		.cfi_def_cfa_offset 16
 1998              		.cfi_offset 6, -16
 1999 0005 4889E5   		movq	%rsp, %rbp
 2000              	.LCFI61:
 2001              		.cfi_def_cfa_register 6
 2002 0008 4883EC40 		subq	$64, %rsp
 2003 000c 48897DD8 		movq	%rdi, -40(%rbp)
 2004 0010 488975D0 		movq	%rsi, -48(%rbp)
 2005 0014 488955C8 		movq	%rdx, -56(%rbp)
 2006              		.loc 2 687 1
 2007 0018 64488B04 		movq	%fs:40, %rax
 2007      25280000 
 2007      00
 2008 0021 488945F8 		movq	%rax, -8(%rbp)
 2009 0025 31C0     		xorl	%eax, %eax
 688:/home/xingli/share/LiteOS_Lab/network/dtls/mbedtls/mbedtls-2.16.2/library/cipher.c ****     size_t i, pad_idx;
 689:/home/xingli/share/LiteOS_Lab/network/dtls/mbedtls/mbedtls-2.16.2/library/cipher.c ****     unsigned char padding_len, bad = 0;
 2010              		.loc 2 689 32
 2011 0027 C645E600 		movb	$0, -26(%rbp)
 690:/home/xingli/share/LiteOS_Lab/network/dtls/mbedtls/mbedtls-2.16.2/library/cipher.c **** 
 691:/home/xingli/share/LiteOS_Lab/network/dtls/mbedtls/mbedtls-2.16.2/library/cipher.c ****     if( NULL == input || NULL == data_len )
 2012              		.loc 2 691 7
 2013 002b 48837DD8 		cmpq	$0, -40(%rbp)
 2013      00
 2014 0030 7407     		je	.L132
 2015              		.loc 2 691 23 discriminator 1
 2016 0032 48837DC8 		cmpq	$0, -56(%rbp)
 2016      00
 2017 0037 750A     		jne	.L133
 2018              	.L132:
 692:/home/xingli/share/LiteOS_Lab/network/dtls/mbedtls/mbedtls-2.16.2/library/cipher.c ****         return( MBEDTLS_ERR_CIPHER_BAD_INPUT_DATA );
 2019              		.loc 2 692 15
 2020 0039 B8009FFF 		movl	$-24832, %eax
 2020      FF
 2021 003e E9BE0000 		jmp	.L134
 2021      00
 2022              	.L133:
 693:/home/xingli/share/LiteOS_Lab/network/dtls/mbedtls/mbedtls-2.16.2/library/cipher.c **** 
 694:/home/xingli/share/LiteOS_Lab/network/dtls/mbedtls/mbedtls-2.16.2/library/cipher.c ****     padding_len = input[input_len - 1];
 2023              		.loc 2 694 24
GAS LISTING /tmp/ccaq2TqD.s 			page 61


 2024 0043 488B45D0 		movq	-48(%rbp), %rax
 2025 0047 488D50FF 		leaq	-1(%rax), %rdx
 2026 004b 488B45D8 		movq	-40(%rbp), %rax
 2027 004f 4801D0   		addq	%rdx, %rax
 2028              		.loc 2 694 17
 2029 0052 0FB600   		movzbl	(%rax), %eax
 2030 0055 8845E7   		movb	%al, -25(%rbp)
 695:/home/xingli/share/LiteOS_Lab/network/dtls/mbedtls/mbedtls-2.16.2/library/cipher.c ****     *data_len = input_len - padding_len;
 2031              		.loc 2 695 27
 2032 0058 0FB645E7 		movzbl	-25(%rbp), %eax
 2033 005c 488B55D0 		movq	-48(%rbp), %rdx
 2034 0060 4829C2   		subq	%rax, %rdx
 2035              		.loc 2 695 15
 2036 0063 488B45C8 		movq	-56(%rbp), %rax
 2037 0067 488910   		movq	%rdx, (%rax)
 696:/home/xingli/share/LiteOS_Lab/network/dtls/mbedtls/mbedtls-2.16.2/library/cipher.c **** 
 697:/home/xingli/share/LiteOS_Lab/network/dtls/mbedtls/mbedtls-2.16.2/library/cipher.c ****     /* Avoid logical || since it results in a branch */
 698:/home/xingli/share/LiteOS_Lab/network/dtls/mbedtls/mbedtls-2.16.2/library/cipher.c ****     bad |= padding_len > input_len;
 2038              		.loc 2 698 24
 2039 006a 0FB645E7 		movzbl	-25(%rbp), %eax
 2040 006e 483945D0 		cmpq	%rax, -48(%rbp)
 2041 0072 0F92C0   		setb	%al
 2042 0075 89C2     		movl	%eax, %edx
 2043              		.loc 2 698 9
 2044 0077 0FB645E6 		movzbl	-26(%rbp), %eax
 2045 007b 09D0     		orl	%edx, %eax
 2046 007d 8845E6   		movb	%al, -26(%rbp)
 699:/home/xingli/share/LiteOS_Lab/network/dtls/mbedtls/mbedtls-2.16.2/library/cipher.c ****     bad |= padding_len == 0;
 2047              		.loc 2 699 24
 2048 0080 807DE700 		cmpb	$0, -25(%rbp)
 2049 0084 0F94C0   		sete	%al
 2050 0087 89C2     		movl	%eax, %edx
 2051              		.loc 2 699 9
 2052 0089 0FB645E6 		movzbl	-26(%rbp), %eax
 2053 008d 09D0     		orl	%edx, %eax
 2054 008f 8845E6   		movb	%al, -26(%rbp)
 700:/home/xingli/share/LiteOS_Lab/network/dtls/mbedtls/mbedtls-2.16.2/library/cipher.c **** 
 701:/home/xingli/share/LiteOS_Lab/network/dtls/mbedtls/mbedtls-2.16.2/library/cipher.c ****     /* The number of bytes checked must be independent of padding_len */
 702:/home/xingli/share/LiteOS_Lab/network/dtls/mbedtls/mbedtls-2.16.2/library/cipher.c ****     pad_idx = input_len - padding_len;
 2055              		.loc 2 702 25
 2056 0092 0FB645E7 		movzbl	-25(%rbp), %eax
 2057              		.loc 2 702 13
 2058 0096 488B55D0 		movq	-48(%rbp), %rdx
 2059 009a 4829C2   		subq	%rax, %rdx
 2060 009d 4889D0   		movq	%rdx, %rax
 2061 00a0 488945F0 		movq	%rax, -16(%rbp)
 703:/home/xingli/share/LiteOS_Lab/network/dtls/mbedtls/mbedtls-2.16.2/library/cipher.c ****     for( i = 0; i < input_len - 1; i++ )
 2062              		.loc 2 703 12
 2063 00a4 48C745E8 		movq	$0, -24(%rbp)
 2063      00000000 
 2064              		.loc 2 703 5
 2065 00ac EB33     		jmp	.L135
 2066              	.L136:
 704:/home/xingli/share/LiteOS_Lab/network/dtls/mbedtls/mbedtls-2.16.2/library/cipher.c ****         bad |= input[i] * ( i >= pad_idx );
 2067              		.loc 2 704 21 discriminator 3
 2068 00ae 488B55D8 		movq	-40(%rbp), %rdx
 2069 00b2 488B45E8 		movq	-24(%rbp), %rax
GAS LISTING /tmp/ccaq2TqD.s 			page 62


 2070 00b6 4801D0   		addq	%rdx, %rax
 2071              		.loc 2 704 13 discriminator 3
 2072 00b9 0FB610   		movzbl	(%rax), %edx
 2073              		.loc 2 704 31 discriminator 3
 2074 00bc 488B45E8 		movq	-24(%rbp), %rax
 2075 00c0 483B45F0 		cmpq	-16(%rbp), %rax
 2076 00c4 0F93C0   		setnb	%al
 2077 00c7 0FB6C0   		movzbl	%al, %eax
 2078              		.loc 2 704 13 discriminator 3
 2079 00ca 89C1     		movl	%eax, %ecx
 2080 00cc 89D0     		movl	%edx, %eax
 2081 00ce 0FAFC1   		imull	%ecx, %eax
 2082 00d1 89C2     		movl	%eax, %edx
 2083 00d3 0FB645E6 		movzbl	-26(%rbp), %eax
 2084 00d7 09D0     		orl	%edx, %eax
 2085 00d9 8845E6   		movb	%al, -26(%rbp)
 703:/home/xingli/share/LiteOS_Lab/network/dtls/mbedtls/mbedtls-2.16.2/library/cipher.c ****     for( i = 0; i < input_len - 1; i++ )
 2086              		.loc 2 703 37 discriminator 3
 2087 00dc 488345E8 		addq	$1, -24(%rbp)
 2087      01
 2088              	.L135:
 703:/home/xingli/share/LiteOS_Lab/network/dtls/mbedtls/mbedtls-2.16.2/library/cipher.c ****     for( i = 0; i < input_len - 1; i++ )
 2089              		.loc 2 703 31 discriminator 1
 2090 00e1 488B45D0 		movq	-48(%rbp), %rax
 2091 00e5 4883E801 		subq	$1, %rax
 703:/home/xingli/share/LiteOS_Lab/network/dtls/mbedtls/mbedtls-2.16.2/library/cipher.c ****     for( i = 0; i < input_len - 1; i++ )
 2092              		.loc 2 703 5 discriminator 1
 2093 00e9 483945E8 		cmpq	%rax, -24(%rbp)
 2094 00ed 72BF     		jb	.L136
 705:/home/xingli/share/LiteOS_Lab/network/dtls/mbedtls/mbedtls-2.16.2/library/cipher.c **** 
 706:/home/xingli/share/LiteOS_Lab/network/dtls/mbedtls/mbedtls-2.16.2/library/cipher.c ****     return( MBEDTLS_ERR_CIPHER_INVALID_PADDING * ( bad != 0 ) );
 2095              		.loc 2 706 48
 2096 00ef 807DE600 		cmpb	$0, -26(%rbp)
 2097 00f3 7407     		je	.L137
 2098              		.loc 2 706 48 is_stmt 0 discriminator 1
 2099 00f5 B8009EFF 		movl	$-25088, %eax
 2099      FF
 2100 00fa EB05     		jmp	.L134
 2101              	.L137:
 2102              		.loc 2 706 48 discriminator 2
 2103 00fc B8000000 		movl	$0, %eax
 2103      00
 2104              	.L134:
 707:/home/xingli/share/LiteOS_Lab/network/dtls/mbedtls/mbedtls-2.16.2/library/cipher.c **** }
 2105              		.loc 2 707 1 is_stmt 1
 2106 0101 488B75F8 		movq	-8(%rbp), %rsi
 2107 0105 64483334 		xorq	%fs:40, %rsi
 2107      25280000 
 2107      00
 2108 010e 7405     		je	.L139
 2109 0110 E8000000 		call	__stack_chk_fail@PLT
 2109      00
 2110              	.L139:
 2111 0115 C9       		leave
 2112              	.LCFI62:
 2113              		.cfi_def_cfa 7, 8
 2114 0116 C3       		ret
GAS LISTING /tmp/ccaq2TqD.s 			page 63


 2115              		.cfi_endproc
 2116              	.LFE31:
 2118              		.section	.text.add_zeros_padding,"ax",@progbits
 2120              	add_zeros_padding:
 2121              	.LFB32:
 708:/home/xingli/share/LiteOS_Lab/network/dtls/mbedtls/mbedtls-2.16.2/library/cipher.c **** #endif /* MBEDTLS_CIPHER_PADDING_ZEROS_AND_LEN */
 709:/home/xingli/share/LiteOS_Lab/network/dtls/mbedtls/mbedtls-2.16.2/library/cipher.c **** 
 710:/home/xingli/share/LiteOS_Lab/network/dtls/mbedtls/mbedtls-2.16.2/library/cipher.c **** #if defined(MBEDTLS_CIPHER_PADDING_ZEROS)
 711:/home/xingli/share/LiteOS_Lab/network/dtls/mbedtls/mbedtls-2.16.2/library/cipher.c **** /*
 712:/home/xingli/share/LiteOS_Lab/network/dtls/mbedtls/mbedtls-2.16.2/library/cipher.c ****  * Zero padding: fill with 00 ... 00
 713:/home/xingli/share/LiteOS_Lab/network/dtls/mbedtls/mbedtls-2.16.2/library/cipher.c ****  */
 714:/home/xingli/share/LiteOS_Lab/network/dtls/mbedtls/mbedtls-2.16.2/library/cipher.c **** static void add_zeros_padding( unsigned char *output,
 715:/home/xingli/share/LiteOS_Lab/network/dtls/mbedtls/mbedtls-2.16.2/library/cipher.c ****                                size_t output_len, size_t data_len )
 716:/home/xingli/share/LiteOS_Lab/network/dtls/mbedtls/mbedtls-2.16.2/library/cipher.c **** {
 2122              		.loc 2 716 1
 2123              		.cfi_startproc
 2124 0000 F30F1EFA 		endbr64
 2125 0004 55       		pushq	%rbp
 2126              	.LCFI63:
 2127              		.cfi_def_cfa_offset 16
 2128              		.cfi_offset 6, -16
 2129 0005 4889E5   		movq	%rsp, %rbp
 2130              	.LCFI64:
 2131              		.cfi_def_cfa_register 6
 2132 0008 4883EC30 		subq	$48, %rsp
 2133 000c 48897DE8 		movq	%rdi, -24(%rbp)
 2134 0010 488975E0 		movq	%rsi, -32(%rbp)
 2135 0014 488955D8 		movq	%rdx, -40(%rbp)
 2136              		.loc 2 716 1
 2137 0018 64488B04 		movq	%fs:40, %rax
 2137      25280000 
 2137      00
 2138 0021 488945F8 		movq	%rax, -8(%rbp)
 2139 0025 31C0     		xorl	%eax, %eax
 717:/home/xingli/share/LiteOS_Lab/network/dtls/mbedtls/mbedtls-2.16.2/library/cipher.c ****     size_t i;
 718:/home/xingli/share/LiteOS_Lab/network/dtls/mbedtls/mbedtls-2.16.2/library/cipher.c **** 
 719:/home/xingli/share/LiteOS_Lab/network/dtls/mbedtls/mbedtls-2.16.2/library/cipher.c ****     for( i = data_len; i < output_len; i++ )
 2140              		.loc 2 719 12
 2141 0027 488B45D8 		movq	-40(%rbp), %rax
 2142 002b 488945F0 		movq	%rax, -16(%rbp)
 2143              		.loc 2 719 5
 2144 002f EB13     		jmp	.L141
 2145              	.L142:
 720:/home/xingli/share/LiteOS_Lab/network/dtls/mbedtls/mbedtls-2.16.2/library/cipher.c ****         output[i] = 0x00;
 2146              		.loc 2 720 15 discriminator 3
 2147 0031 488B55E8 		movq	-24(%rbp), %rdx
 2148 0035 488B45F0 		movq	-16(%rbp), %rax
 2149 0039 4801D0   		addq	%rdx, %rax
 2150              		.loc 2 720 19 discriminator 3
 2151 003c C60000   		movb	$0, (%rax)
 719:/home/xingli/share/LiteOS_Lab/network/dtls/mbedtls/mbedtls-2.16.2/library/cipher.c ****         output[i] = 0x00;
 2152              		.loc 2 719 41 discriminator 3
 2153 003f 488345F0 		addq	$1, -16(%rbp)
 2153      01
 2154              	.L141:
 719:/home/xingli/share/LiteOS_Lab/network/dtls/mbedtls/mbedtls-2.16.2/library/cipher.c ****         output[i] = 0x00;
 2155              		.loc 2 719 5 discriminator 1
GAS LISTING /tmp/ccaq2TqD.s 			page 64


 2156 0044 488B45F0 		movq	-16(%rbp), %rax
 2157 0048 483B45E0 		cmpq	-32(%rbp), %rax
 2158 004c 72E3     		jb	.L142
 721:/home/xingli/share/LiteOS_Lab/network/dtls/mbedtls/mbedtls-2.16.2/library/cipher.c **** }
 2159              		.loc 2 721 1
 2160 004e 90       		nop
 2161 004f 488B45F8 		movq	-8(%rbp), %rax
 2162 0053 64483304 		xorq	%fs:40, %rax
 2162      25280000 
 2162      00
 2163 005c 7405     		je	.L143
 2164 005e E8000000 		call	__stack_chk_fail@PLT
 2164      00
 2165              	.L143:
 2166 0063 C9       		leave
 2167              	.LCFI65:
 2168              		.cfi_def_cfa 7, 8
 2169 0064 C3       		ret
 2170              		.cfi_endproc
 2171              	.LFE32:
 2173              		.section	.text.get_zeros_padding,"ax",@progbits
 2175              	get_zeros_padding:
 2176              	.LFB33:
 722:/home/xingli/share/LiteOS_Lab/network/dtls/mbedtls/mbedtls-2.16.2/library/cipher.c **** 
 723:/home/xingli/share/LiteOS_Lab/network/dtls/mbedtls/mbedtls-2.16.2/library/cipher.c **** static int get_zeros_padding( unsigned char *input, size_t input_len,
 724:/home/xingli/share/LiteOS_Lab/network/dtls/mbedtls/mbedtls-2.16.2/library/cipher.c ****                               size_t *data_len )
 725:/home/xingli/share/LiteOS_Lab/network/dtls/mbedtls/mbedtls-2.16.2/library/cipher.c **** {
 2177              		.loc 2 725 1
 2178              		.cfi_startproc
 2179 0000 F30F1EFA 		endbr64
 2180 0004 55       		pushq	%rbp
 2181              	.LCFI66:
 2182              		.cfi_def_cfa_offset 16
 2183              		.cfi_offset 6, -16
 2184 0005 4889E5   		movq	%rsp, %rbp
 2185              	.LCFI67:
 2186              		.cfi_def_cfa_register 6
 2187 0008 4883EC40 		subq	$64, %rsp
 2188 000c 48897DD8 		movq	%rdi, -40(%rbp)
 2189 0010 488975D0 		movq	%rsi, -48(%rbp)
 2190 0014 488955C8 		movq	%rdx, -56(%rbp)
 2191              		.loc 2 725 1
 2192 0018 64488B04 		movq	%fs:40, %rax
 2192      25280000 
 2192      00
 2193 0021 488945F8 		movq	%rax, -8(%rbp)
 2194 0025 31C0     		xorl	%eax, %eax
 726:/home/xingli/share/LiteOS_Lab/network/dtls/mbedtls/mbedtls-2.16.2/library/cipher.c ****     size_t i;
 727:/home/xingli/share/LiteOS_Lab/network/dtls/mbedtls/mbedtls-2.16.2/library/cipher.c ****     unsigned char done = 0, prev_done;
 2195              		.loc 2 727 19
 2196 0027 C645EE00 		movb	$0, -18(%rbp)
 728:/home/xingli/share/LiteOS_Lab/network/dtls/mbedtls/mbedtls-2.16.2/library/cipher.c **** 
 729:/home/xingli/share/LiteOS_Lab/network/dtls/mbedtls/mbedtls-2.16.2/library/cipher.c ****     if( NULL == input || NULL == data_len )
 2197              		.loc 2 729 7
 2198 002b 48837DD8 		cmpq	$0, -40(%rbp)
 2198      00
 2199 0030 7407     		je	.L145
GAS LISTING /tmp/ccaq2TqD.s 			page 65


 2200              		.loc 2 729 23 discriminator 1
 2201 0032 48837DC8 		cmpq	$0, -56(%rbp)
 2201      00
 2202 0037 7507     		jne	.L146
 2203              	.L145:
 730:/home/xingli/share/LiteOS_Lab/network/dtls/mbedtls/mbedtls-2.16.2/library/cipher.c ****         return( MBEDTLS_ERR_CIPHER_BAD_INPUT_DATA );
 2204              		.loc 2 730 15
 2205 0039 B8009FFF 		movl	$-24832, %eax
 2205      FF
 2206 003e EB72     		jmp	.L147
 2207              	.L146:
 731:/home/xingli/share/LiteOS_Lab/network/dtls/mbedtls/mbedtls-2.16.2/library/cipher.c **** 
 732:/home/xingli/share/LiteOS_Lab/network/dtls/mbedtls/mbedtls-2.16.2/library/cipher.c ****     *data_len = 0;
 2208              		.loc 2 732 15
 2209 0040 488B45C8 		movq	-56(%rbp), %rax
 2210 0044 48C70000 		movq	$0, (%rax)
 2210      000000
 733:/home/xingli/share/LiteOS_Lab/network/dtls/mbedtls/mbedtls-2.16.2/library/cipher.c ****     for( i = input_len; i > 0; i-- )
 2211              		.loc 2 733 12
 2212 004b 488B45D0 		movq	-48(%rbp), %rax
 2213 004f 488945F0 		movq	%rax, -16(%rbp)
 2214              		.loc 2 733 5
 2215 0053 EB51     		jmp	.L148
 2216              	.L149:
 734:/home/xingli/share/LiteOS_Lab/network/dtls/mbedtls/mbedtls-2.16.2/library/cipher.c ****     {
 735:/home/xingli/share/LiteOS_Lab/network/dtls/mbedtls/mbedtls-2.16.2/library/cipher.c ****         prev_done = done;
 2217              		.loc 2 735 19 discriminator 3
 2218 0055 0FB645EE 		movzbl	-18(%rbp), %eax
 2219 0059 8845EF   		movb	%al, -17(%rbp)
 736:/home/xingli/share/LiteOS_Lab/network/dtls/mbedtls/mbedtls-2.16.2/library/cipher.c ****         done |= ( input[i-1] != 0 );
 2220              		.loc 2 736 24 discriminator 3
 2221 005c 488B45F0 		movq	-16(%rbp), %rax
 2222 0060 488D50FF 		leaq	-1(%rax), %rdx
 2223 0064 488B45D8 		movq	-40(%rbp), %rax
 2224 0068 4801D0   		addq	%rdx, %rax
 2225 006b 0FB600   		movzbl	(%rax), %eax
 2226              		.loc 2 736 30 discriminator 3
 2227 006e 84C0     		testb	%al, %al
 2228 0070 0F95C0   		setne	%al
 2229 0073 89C2     		movl	%eax, %edx
 2230              		.loc 2 736 14 discriminator 3
 2231 0075 0FB645EE 		movzbl	-18(%rbp), %eax
 2232 0079 09D0     		orl	%edx, %eax
 2233 007b 8845EE   		movb	%al, -18(%rbp)
 737:/home/xingli/share/LiteOS_Lab/network/dtls/mbedtls/mbedtls-2.16.2/library/cipher.c ****         *data_len |= i * ( done != prev_done );
 2234              		.loc 2 737 19 discriminator 3
 2235 007e 488B45C8 		movq	-56(%rbp), %rax
 2236 0082 488B10   		movq	(%rax), %rdx
 2237              		.loc 2 737 33 discriminator 3
 2238 0085 0FB645EE 		movzbl	-18(%rbp), %eax
 2239 0089 3A45EF   		cmpb	-17(%rbp), %al
 2240 008c 0F95C0   		setne	%al
 2241 008f 0FB6C0   		movzbl	%al, %eax
 2242              		.loc 2 737 24 discriminator 3
 2243 0092 480FAF45 		imulq	-16(%rbp), %rax
 2243      F0
 2244              		.loc 2 737 19 discriminator 3
GAS LISTING /tmp/ccaq2TqD.s 			page 66


 2245 0097 4809C2   		orq	%rax, %rdx
 2246 009a 488B45C8 		movq	-56(%rbp), %rax
 2247 009e 488910   		movq	%rdx, (%rax)
 733:/home/xingli/share/LiteOS_Lab/network/dtls/mbedtls/mbedtls-2.16.2/library/cipher.c ****     {
 2248              		.loc 2 733 33 discriminator 3
 2249 00a1 48836DF0 		subq	$1, -16(%rbp)
 2249      01
 2250              	.L148:
 733:/home/xingli/share/LiteOS_Lab/network/dtls/mbedtls/mbedtls-2.16.2/library/cipher.c ****     {
 2251              		.loc 2 733 5 discriminator 1
 2252 00a6 48837DF0 		cmpq	$0, -16(%rbp)
 2252      00
 2253 00ab 75A8     		jne	.L149
 738:/home/xingli/share/LiteOS_Lab/network/dtls/mbedtls/mbedtls-2.16.2/library/cipher.c ****     }
 739:/home/xingli/share/LiteOS_Lab/network/dtls/mbedtls/mbedtls-2.16.2/library/cipher.c **** 
 740:/home/xingli/share/LiteOS_Lab/network/dtls/mbedtls/mbedtls-2.16.2/library/cipher.c ****     return( 0 );
 2254              		.loc 2 740 11
 2255 00ad B8000000 		movl	$0, %eax
 2255      00
 2256              	.L147:
 741:/home/xingli/share/LiteOS_Lab/network/dtls/mbedtls/mbedtls-2.16.2/library/cipher.c **** }
 2257              		.loc 2 741 1
 2258 00b2 488B4DF8 		movq	-8(%rbp), %rcx
 2259 00b6 6448330C 		xorq	%fs:40, %rcx
 2259      25280000 
 2259      00
 2260 00bf 7405     		je	.L150
 2261 00c1 E8000000 		call	__stack_chk_fail@PLT
 2261      00
 2262              	.L150:
 2263 00c6 C9       		leave
 2264              	.LCFI68:
 2265              		.cfi_def_cfa 7, 8
 2266 00c7 C3       		ret
 2267              		.cfi_endproc
 2268              	.LFE33:
 2270              		.section	.text.get_no_padding,"ax",@progbits
 2272              	get_no_padding:
 2273              	.LFB34:
 742:/home/xingli/share/LiteOS_Lab/network/dtls/mbedtls/mbedtls-2.16.2/library/cipher.c **** #endif /* MBEDTLS_CIPHER_PADDING_ZEROS */
 743:/home/xingli/share/LiteOS_Lab/network/dtls/mbedtls/mbedtls-2.16.2/library/cipher.c **** 
 744:/home/xingli/share/LiteOS_Lab/network/dtls/mbedtls/mbedtls-2.16.2/library/cipher.c **** /*
 745:/home/xingli/share/LiteOS_Lab/network/dtls/mbedtls/mbedtls-2.16.2/library/cipher.c ****  * No padding: don't pad :)
 746:/home/xingli/share/LiteOS_Lab/network/dtls/mbedtls/mbedtls-2.16.2/library/cipher.c ****  *
 747:/home/xingli/share/LiteOS_Lab/network/dtls/mbedtls/mbedtls-2.16.2/library/cipher.c ****  * There is no add_padding function (check for NULL in mbedtls_cipher_finish)
 748:/home/xingli/share/LiteOS_Lab/network/dtls/mbedtls/mbedtls-2.16.2/library/cipher.c ****  * but a trivial get_padding function
 749:/home/xingli/share/LiteOS_Lab/network/dtls/mbedtls/mbedtls-2.16.2/library/cipher.c ****  */
 750:/home/xingli/share/LiteOS_Lab/network/dtls/mbedtls/mbedtls-2.16.2/library/cipher.c **** static int get_no_padding( unsigned char *input, size_t input_len,
 751:/home/xingli/share/LiteOS_Lab/network/dtls/mbedtls/mbedtls-2.16.2/library/cipher.c ****                               size_t *data_len )
 752:/home/xingli/share/LiteOS_Lab/network/dtls/mbedtls/mbedtls-2.16.2/library/cipher.c **** {
 2274              		.loc 2 752 1
 2275              		.cfi_startproc
 2276 0000 F30F1EFA 		endbr64
 2277 0004 55       		pushq	%rbp
 2278              	.LCFI69:
 2279              		.cfi_def_cfa_offset 16
 2280              		.cfi_offset 6, -16
GAS LISTING /tmp/ccaq2TqD.s 			page 67


 2281 0005 4889E5   		movq	%rsp, %rbp
 2282              	.LCFI70:
 2283              		.cfi_def_cfa_register 6
 2284 0008 4883EC30 		subq	$48, %rsp
 2285 000c 48897DE8 		movq	%rdi, -24(%rbp)
 2286 0010 488975E0 		movq	%rsi, -32(%rbp)
 2287 0014 488955D8 		movq	%rdx, -40(%rbp)
 2288              		.loc 2 752 1
 2289 0018 64488B04 		movq	%fs:40, %rax
 2289      25280000 
 2289      00
 2290 0021 488945F8 		movq	%rax, -8(%rbp)
 2291 0025 31C0     		xorl	%eax, %eax
 753:/home/xingli/share/LiteOS_Lab/network/dtls/mbedtls/mbedtls-2.16.2/library/cipher.c ****     if( NULL == input || NULL == data_len )
 2292              		.loc 2 753 7
 2293 0027 48837DE8 		cmpq	$0, -24(%rbp)
 2293      00
 2294 002c 7407     		je	.L152
 2295              		.loc 2 753 23 discriminator 1
 2296 002e 48837DD8 		cmpq	$0, -40(%rbp)
 2296      00
 2297 0033 7507     		jne	.L153
 2298              	.L152:
 754:/home/xingli/share/LiteOS_Lab/network/dtls/mbedtls/mbedtls-2.16.2/library/cipher.c ****         return( MBEDTLS_ERR_CIPHER_BAD_INPUT_DATA );
 2299              		.loc 2 754 15
 2300 0035 B8009FFF 		movl	$-24832, %eax
 2300      FF
 2301 003a EB10     		jmp	.L154
 2302              	.L153:
 755:/home/xingli/share/LiteOS_Lab/network/dtls/mbedtls/mbedtls-2.16.2/library/cipher.c **** 
 756:/home/xingli/share/LiteOS_Lab/network/dtls/mbedtls/mbedtls-2.16.2/library/cipher.c ****     *data_len = input_len;
 2303              		.loc 2 756 15
 2304 003c 488B45D8 		movq	-40(%rbp), %rax
 2305 0040 488B55E0 		movq	-32(%rbp), %rdx
 2306 0044 488910   		movq	%rdx, (%rax)
 757:/home/xingli/share/LiteOS_Lab/network/dtls/mbedtls/mbedtls-2.16.2/library/cipher.c **** 
 758:/home/xingli/share/LiteOS_Lab/network/dtls/mbedtls/mbedtls-2.16.2/library/cipher.c ****     return( 0 );
 2307              		.loc 2 758 11
 2308 0047 B8000000 		movl	$0, %eax
 2308      00
 2309              	.L154:
 759:/home/xingli/share/LiteOS_Lab/network/dtls/mbedtls/mbedtls-2.16.2/library/cipher.c **** }
 2310              		.loc 2 759 1
 2311 004c 488B4DF8 		movq	-8(%rbp), %rcx
 2312 0050 6448330C 		xorq	%fs:40, %rcx
 2312      25280000 
 2312      00
 2313 0059 7405     		je	.L155
 2314 005b E8000000 		call	__stack_chk_fail@PLT
 2314      00
 2315              	.L155:
 2316 0060 C9       		leave
 2317              	.LCFI71:
 2318              		.cfi_def_cfa 7, 8
 2319 0061 C3       		ret
 2320              		.cfi_endproc
 2321              	.LFE34:
GAS LISTING /tmp/ccaq2TqD.s 			page 68


 2323              		.section	.text.mbedtls_cipher_finish,"ax",@progbits
 2324              		.globl	mbedtls_cipher_finish
 2326              	mbedtls_cipher_finish:
 2327              	.LFB35:
 760:/home/xingli/share/LiteOS_Lab/network/dtls/mbedtls/mbedtls-2.16.2/library/cipher.c **** #endif /* MBEDTLS_CIPHER_MODE_WITH_PADDING */
 761:/home/xingli/share/LiteOS_Lab/network/dtls/mbedtls/mbedtls-2.16.2/library/cipher.c **** 
 762:/home/xingli/share/LiteOS_Lab/network/dtls/mbedtls/mbedtls-2.16.2/library/cipher.c **** int mbedtls_cipher_finish( mbedtls_cipher_context_t *ctx,
 763:/home/xingli/share/LiteOS_Lab/network/dtls/mbedtls/mbedtls-2.16.2/library/cipher.c ****                    unsigned char *output, size_t *olen )
 764:/home/xingli/share/LiteOS_Lab/network/dtls/mbedtls/mbedtls-2.16.2/library/cipher.c **** {
 2328              		.loc 2 764 1
 2329              		.cfi_startproc
 2330 0000 F30F1EFA 		endbr64
 2331 0004 55       		pushq	%rbp
 2332              	.LCFI72:
 2333              		.cfi_def_cfa_offset 16
 2334              		.cfi_offset 6, -16
 2335 0005 4889E5   		movq	%rsp, %rbp
 2336              	.LCFI73:
 2337              		.cfi_def_cfa_register 6
 2338 0008 4155     		pushq	%r13
 2339 000a 4154     		pushq	%r12
 2340 000c 53       		pushq	%rbx
 2341 000d 4883EC38 		subq	$56, %rsp
 2342              		.cfi_offset 13, -24
 2343              		.cfi_offset 12, -32
 2344              		.cfi_offset 3, -40
 2345 0011 48897DC8 		movq	%rdi, -56(%rbp)
 2346 0015 488975C0 		movq	%rsi, -64(%rbp)
 2347 0019 488955B8 		movq	%rdx, -72(%rbp)
 2348              		.loc 2 764 1
 2349 001d 64488B04 		movq	%fs:40, %rax
 2349      25280000 
 2349      00
 2350 0026 488945D8 		movq	%rax, -40(%rbp)
 2351 002a 31C0     		xorl	%eax, %eax
 765:/home/xingli/share/LiteOS_Lab/network/dtls/mbedtls/mbedtls-2.16.2/library/cipher.c ****     CIPHER_VALIDATE_RET( ctx != NULL );
 766:/home/xingli/share/LiteOS_Lab/network/dtls/mbedtls/mbedtls-2.16.2/library/cipher.c ****     CIPHER_VALIDATE_RET( output != NULL );
 767:/home/xingli/share/LiteOS_Lab/network/dtls/mbedtls/mbedtls-2.16.2/library/cipher.c ****     CIPHER_VALIDATE_RET( olen != NULL );
 768:/home/xingli/share/LiteOS_Lab/network/dtls/mbedtls/mbedtls-2.16.2/library/cipher.c ****     if( ctx->cipher_info == NULL )
 2352              		.loc 2 768 12
 2353 002c 488B45C8 		movq	-56(%rbp), %rax
 2354 0030 488B00   		movq	(%rax), %rax
 2355              		.loc 2 768 7
 2356 0033 4885C0   		testq	%rax, %rax
 2357 0036 750A     		jne	.L157
 769:/home/xingli/share/LiteOS_Lab/network/dtls/mbedtls/mbedtls-2.16.2/library/cipher.c ****         return( MBEDTLS_ERR_CIPHER_BAD_INPUT_DATA );
 2358              		.loc 2 769 15
 2359 0038 B8009FFF 		movl	$-24832, %eax
 2359      FF
 2360 003d E9490200 		jmp	.L158
 2360      00
 2361              	.L157:
 770:/home/xingli/share/LiteOS_Lab/network/dtls/mbedtls/mbedtls-2.16.2/library/cipher.c **** 
 771:/home/xingli/share/LiteOS_Lab/network/dtls/mbedtls/mbedtls-2.16.2/library/cipher.c ****     *olen = 0;
 2362              		.loc 2 771 11
 2363 0042 488B45B8 		movq	-72(%rbp), %rax
 2364 0046 48C70000 		movq	$0, (%rax)
GAS LISTING /tmp/ccaq2TqD.s 			page 69


 2364      000000
 772:/home/xingli/share/LiteOS_Lab/network/dtls/mbedtls/mbedtls-2.16.2/library/cipher.c **** 
 773:/home/xingli/share/LiteOS_Lab/network/dtls/mbedtls/mbedtls-2.16.2/library/cipher.c ****     if( MBEDTLS_MODE_CFB == ctx->cipher_info->mode ||
 2365              		.loc 2 773 32
 2366 004d 488B45C8 		movq	-56(%rbp), %rax
 2367 0051 488B00   		movq	(%rax), %rax
 2368              		.loc 2 773 45
 2369 0054 8B4004   		movl	4(%rax), %eax
 2370              		.loc 2 773 7
 2371 0057 83F803   		cmpl	$3, %eax
 2372 005a 744B     		je	.L159
 774:/home/xingli/share/LiteOS_Lab/network/dtls/mbedtls/mbedtls-2.16.2/library/cipher.c ****         MBEDTLS_MODE_OFB == ctx->cipher_info->mode ||
 2373              		.loc 2 774 32 discriminator 1
 2374 005c 488B45C8 		movq	-56(%rbp), %rax
 2375 0060 488B00   		movq	(%rax), %rax
 2376              		.loc 2 774 45 discriminator 1
 2377 0063 8B4004   		movl	4(%rax), %eax
 773:/home/xingli/share/LiteOS_Lab/network/dtls/mbedtls/mbedtls-2.16.2/library/cipher.c ****         MBEDTLS_MODE_OFB == ctx->cipher_info->mode ||
 2378              		.loc 2 773 52 discriminator 1
 2379 0066 83F804   		cmpl	$4, %eax
 2380 0069 743C     		je	.L159
 775:/home/xingli/share/LiteOS_Lab/network/dtls/mbedtls/mbedtls-2.16.2/library/cipher.c ****         MBEDTLS_MODE_CTR == ctx->cipher_info->mode ||
 2381              		.loc 2 775 32
 2382 006b 488B45C8 		movq	-56(%rbp), %rax
 2383 006f 488B00   		movq	(%rax), %rax
 2384              		.loc 2 775 45
 2385 0072 8B4004   		movl	4(%rax), %eax
 774:/home/xingli/share/LiteOS_Lab/network/dtls/mbedtls/mbedtls-2.16.2/library/cipher.c ****         MBEDTLS_MODE_OFB == ctx->cipher_info->mode ||
 2386              		.loc 2 774 52
 2387 0075 83F805   		cmpl	$5, %eax
 2388 0078 742D     		je	.L159
 776:/home/xingli/share/LiteOS_Lab/network/dtls/mbedtls/mbedtls-2.16.2/library/cipher.c ****         MBEDTLS_MODE_GCM == ctx->cipher_info->mode ||
 2389              		.loc 2 776 32
 2390 007a 488B45C8 		movq	-56(%rbp), %rax
 2391 007e 488B00   		movq	(%rax), %rax
 2392              		.loc 2 776 45
 2393 0081 8B4004   		movl	4(%rax), %eax
 775:/home/xingli/share/LiteOS_Lab/network/dtls/mbedtls/mbedtls-2.16.2/library/cipher.c ****         MBEDTLS_MODE_CTR == ctx->cipher_info->mode ||
 2394              		.loc 2 775 52
 2395 0084 83F806   		cmpl	$6, %eax
 2396 0087 741E     		je	.L159
 777:/home/xingli/share/LiteOS_Lab/network/dtls/mbedtls/mbedtls-2.16.2/library/cipher.c ****         MBEDTLS_MODE_XTS == ctx->cipher_info->mode ||
 2397              		.loc 2 777 32
 2398 0089 488B45C8 		movq	-56(%rbp), %rax
 2399 008d 488B00   		movq	(%rax), %rax
 2400              		.loc 2 777 45
 2401 0090 8B4004   		movl	4(%rax), %eax
 776:/home/xingli/share/LiteOS_Lab/network/dtls/mbedtls/mbedtls-2.16.2/library/cipher.c ****         MBEDTLS_MODE_GCM == ctx->cipher_info->mode ||
 2402              		.loc 2 776 52
 2403 0093 83F809   		cmpl	$9, %eax
 2404 0096 740F     		je	.L159
 778:/home/xingli/share/LiteOS_Lab/network/dtls/mbedtls/mbedtls-2.16.2/library/cipher.c ****         MBEDTLS_MODE_STREAM == ctx->cipher_info->mode )
 2405              		.loc 2 778 35
 2406 0098 488B45C8 		movq	-56(%rbp), %rax
 2407 009c 488B00   		movq	(%rax), %rax
 2408              		.loc 2 778 48
 2409 009f 8B4004   		movl	4(%rax), %eax
GAS LISTING /tmp/ccaq2TqD.s 			page 70


 777:/home/xingli/share/LiteOS_Lab/network/dtls/mbedtls/mbedtls-2.16.2/library/cipher.c ****         MBEDTLS_MODE_XTS == ctx->cipher_info->mode ||
 2410              		.loc 2 777 52
 2411 00a2 83F807   		cmpl	$7, %eax
 2412 00a5 750A     		jne	.L160
 2413              	.L159:
 779:/home/xingli/share/LiteOS_Lab/network/dtls/mbedtls/mbedtls-2.16.2/library/cipher.c ****     {
 780:/home/xingli/share/LiteOS_Lab/network/dtls/mbedtls/mbedtls-2.16.2/library/cipher.c ****         return( 0 );
 2414              		.loc 2 780 15
 2415 00a7 B8000000 		movl	$0, %eax
 2415      00
 2416 00ac E9DA0100 		jmp	.L158
 2416      00
 2417              	.L160:
 781:/home/xingli/share/LiteOS_Lab/network/dtls/mbedtls/mbedtls-2.16.2/library/cipher.c ****     }
 782:/home/xingli/share/LiteOS_Lab/network/dtls/mbedtls/mbedtls-2.16.2/library/cipher.c **** 
 783:/home/xingli/share/LiteOS_Lab/network/dtls/mbedtls/mbedtls-2.16.2/library/cipher.c ****     if ( ( MBEDTLS_CIPHER_CHACHA20          == ctx->cipher_info->type ) ||
 2418              		.loc 2 783 51
 2419 00b1 488B45C8 		movq	-56(%rbp), %rax
 2420 00b5 488B00   		movq	(%rax), %rax
 2421              		.loc 2 783 64
 2422 00b8 8B00     		movl	(%rax), %eax
 2423              		.loc 2 783 8
 2424 00ba 83F848   		cmpl	$72, %eax
 2425 00bd 740E     		je	.L161
 784:/home/xingli/share/LiteOS_Lab/network/dtls/mbedtls/mbedtls-2.16.2/library/cipher.c ****          ( MBEDTLS_CIPHER_CHACHA20_POLY1305 == ctx->cipher_info->type ) )
 2426              		.loc 2 784 51 discriminator 1
 2427 00bf 488B45C8 		movq	-56(%rbp), %rax
 2428 00c3 488B00   		movq	(%rax), %rax
 2429              		.loc 2 784 64 discriminator 1
 2430 00c6 8B00     		movl	(%rax), %eax
 783:/home/xingli/share/LiteOS_Lab/network/dtls/mbedtls/mbedtls-2.16.2/library/cipher.c ****          ( MBEDTLS_CIPHER_CHACHA20_POLY1305 == ctx->cipher_info->type ) )
 2431              		.loc 2 783 73 discriminator 1
 2432 00c8 83F849   		cmpl	$73, %eax
 2433 00cb 750A     		jne	.L162
 2434              	.L161:
 785:/home/xingli/share/LiteOS_Lab/network/dtls/mbedtls/mbedtls-2.16.2/library/cipher.c ****     {
 786:/home/xingli/share/LiteOS_Lab/network/dtls/mbedtls/mbedtls-2.16.2/library/cipher.c ****         return( 0 );
 2435              		.loc 2 786 15
 2436 00cd B8000000 		movl	$0, %eax
 2436      00
 2437 00d2 E9B40100 		jmp	.L158
 2437      00
 2438              	.L162:
 787:/home/xingli/share/LiteOS_Lab/network/dtls/mbedtls/mbedtls-2.16.2/library/cipher.c ****     }
 788:/home/xingli/share/LiteOS_Lab/network/dtls/mbedtls/mbedtls-2.16.2/library/cipher.c **** 
 789:/home/xingli/share/LiteOS_Lab/network/dtls/mbedtls/mbedtls-2.16.2/library/cipher.c ****     if( MBEDTLS_MODE_ECB == ctx->cipher_info->mode )
 2439              		.loc 2 789 32
 2440 00d7 488B45C8 		movq	-56(%rbp), %rax
 2441 00db 488B00   		movq	(%rax), %rax
 2442              		.loc 2 789 45
 2443 00de 8B4004   		movl	4(%rax), %eax
 2444              		.loc 2 789 7
 2445 00e1 83F801   		cmpl	$1, %eax
 2446 00e4 7521     		jne	.L163
 790:/home/xingli/share/LiteOS_Lab/network/dtls/mbedtls/mbedtls-2.16.2/library/cipher.c ****     {
 791:/home/xingli/share/LiteOS_Lab/network/dtls/mbedtls/mbedtls-2.16.2/library/cipher.c ****         if( ctx->unprocessed_len != 0 )
 2447              		.loc 2 791 16
GAS LISTING /tmp/ccaq2TqD.s 			page 71


 2448 00e6 488B45C8 		movq	-56(%rbp), %rax
 2449 00ea 488B4030 		movq	48(%rax), %rax
 2450              		.loc 2 791 11
 2451 00ee 4885C0   		testq	%rax, %rax
 2452 00f1 740A     		je	.L164
 792:/home/xingli/share/LiteOS_Lab/network/dtls/mbedtls/mbedtls-2.16.2/library/cipher.c ****             return( MBEDTLS_ERR_CIPHER_FULL_BLOCK_EXPECTED );
 2453              		.loc 2 792 19
 2454 00f3 B8809DFF 		movl	$-25216, %eax
 2454      FF
 2455 00f8 E98E0100 		jmp	.L158
 2455      00
 2456              	.L164:
 793:/home/xingli/share/LiteOS_Lab/network/dtls/mbedtls/mbedtls-2.16.2/library/cipher.c **** 
 794:/home/xingli/share/LiteOS_Lab/network/dtls/mbedtls/mbedtls-2.16.2/library/cipher.c ****         return( 0 );
 2457              		.loc 2 794 15
 2458 00fd B8000000 		movl	$0, %eax
 2458      00
 2459 0102 E9840100 		jmp	.L158
 2459      00
 2460              	.L163:
 795:/home/xingli/share/LiteOS_Lab/network/dtls/mbedtls/mbedtls-2.16.2/library/cipher.c ****     }
 796:/home/xingli/share/LiteOS_Lab/network/dtls/mbedtls/mbedtls-2.16.2/library/cipher.c **** 
 797:/home/xingli/share/LiteOS_Lab/network/dtls/mbedtls/mbedtls-2.16.2/library/cipher.c **** #if defined(MBEDTLS_CIPHER_MODE_CBC)
 798:/home/xingli/share/LiteOS_Lab/network/dtls/mbedtls/mbedtls-2.16.2/library/cipher.c ****     if( MBEDTLS_MODE_CBC == ctx->cipher_info->mode )
 2461              		.loc 2 798 32
 2462 0107 488B45C8 		movq	-56(%rbp), %rax
 2463 010b 488B00   		movq	(%rax), %rax
 2464              		.loc 2 798 45
 2465 010e 8B4004   		movl	4(%rax), %eax
 2466              		.loc 2 798 7
 2467 0111 83F802   		cmpl	$2, %eax
 2468 0114 0F856C01 		jne	.L165
 2468      0000
 2469              	.LBB3:
 799:/home/xingli/share/LiteOS_Lab/network/dtls/mbedtls/mbedtls-2.16.2/library/cipher.c ****     {
 800:/home/xingli/share/LiteOS_Lab/network/dtls/mbedtls/mbedtls-2.16.2/library/cipher.c ****         int ret = 0;
 2470              		.loc 2 800 13
 2471 011a C745D400 		movl	$0, -44(%rbp)
 2471      000000
 801:/home/xingli/share/LiteOS_Lab/network/dtls/mbedtls/mbedtls-2.16.2/library/cipher.c **** 
 802:/home/xingli/share/LiteOS_Lab/network/dtls/mbedtls/mbedtls-2.16.2/library/cipher.c ****         if( MBEDTLS_ENCRYPT == ctx->operation )
 2472              		.loc 2 802 35
 2473 0121 488B45C8 		movq	-56(%rbp), %rax
 2474 0125 8B400C   		movl	12(%rax), %eax
 2475              		.loc 2 802 11
 2476 0128 83F801   		cmpl	$1, %eax
 2477 012b 7562     		jne	.L166
 803:/home/xingli/share/LiteOS_Lab/network/dtls/mbedtls/mbedtls-2.16.2/library/cipher.c ****         {
 804:/home/xingli/share/LiteOS_Lab/network/dtls/mbedtls/mbedtls-2.16.2/library/cipher.c ****             /* check for 'no padding' mode */
 805:/home/xingli/share/LiteOS_Lab/network/dtls/mbedtls/mbedtls-2.16.2/library/cipher.c ****             if( NULL == ctx->add_padding )
 2478              		.loc 2 805 28
 2479 012d 488B45C8 		movq	-56(%rbp), %rax
 2480 0131 488B4010 		movq	16(%rax), %rax
 2481              		.loc 2 805 15
 2482 0135 4885C0   		testq	%rax, %rax
 2483 0138 7521     		jne	.L167
 806:/home/xingli/share/LiteOS_Lab/network/dtls/mbedtls/mbedtls-2.16.2/library/cipher.c ****             {
GAS LISTING /tmp/ccaq2TqD.s 			page 72


 807:/home/xingli/share/LiteOS_Lab/network/dtls/mbedtls/mbedtls-2.16.2/library/cipher.c ****                 if( 0 != ctx->unprocessed_len )
 2484              		.loc 2 807 29
 2485 013a 488B45C8 		movq	-56(%rbp), %rax
 2486 013e 488B4030 		movq	48(%rax), %rax
 2487              		.loc 2 807 19
 2488 0142 4885C0   		testq	%rax, %rax
 2489 0145 740A     		je	.L168
 808:/home/xingli/share/LiteOS_Lab/network/dtls/mbedtls/mbedtls-2.16.2/library/cipher.c ****                     return( MBEDTLS_ERR_CIPHER_FULL_BLOCK_EXPECTED );
 2490              		.loc 2 808 27
 2491 0147 B8809DFF 		movl	$-25216, %eax
 2491      FF
 2492 014c E93A0100 		jmp	.L158
 2492      00
 2493              	.L168:
 809:/home/xingli/share/LiteOS_Lab/network/dtls/mbedtls/mbedtls-2.16.2/library/cipher.c **** 
 810:/home/xingli/share/LiteOS_Lab/network/dtls/mbedtls/mbedtls-2.16.2/library/cipher.c ****                 return( 0 );
 2494              		.loc 2 810 23
 2495 0151 B8000000 		movl	$0, %eax
 2495      00
 2496 0156 E9300100 		jmp	.L158
 2496      00
 2497              	.L167:
 811:/home/xingli/share/LiteOS_Lab/network/dtls/mbedtls/mbedtls-2.16.2/library/cipher.c ****             }
 812:/home/xingli/share/LiteOS_Lab/network/dtls/mbedtls/mbedtls-2.16.2/library/cipher.c **** 
 813:/home/xingli/share/LiteOS_Lab/network/dtls/mbedtls/mbedtls-2.16.2/library/cipher.c ****             ctx->add_padding( ctx->unprocessed_data, mbedtls_cipher_get_iv_size( ctx ),
 2498              		.loc 2 813 16
 2499 015b 488B45C8 		movq	-56(%rbp), %rax
 2500 015f 4C8B6010 		movq	16(%rax), %r12
 2501              		.loc 2 813 13
 2502 0163 488B45C8 		movq	-56(%rbp), %rax
 2503 0167 488B5830 		movq	48(%rax), %rbx
 2504              		.loc 2 813 54
 2505 016b 488B45C8 		movq	-56(%rbp), %rax
 2506 016f 4889C7   		movq	%rax, %rdi
 2507 0172 E8000000 		call	mbedtls_cipher_get_iv_size
 2507      00
 2508              		.loc 2 813 13
 2509 0177 4898     		cltq
 2510              		.loc 2 813 34
 2511 0179 488B55C8 		movq	-56(%rbp), %rdx
 2512 017d 488D4A20 		leaq	32(%rdx), %rcx
 2513              		.loc 2 813 13
 2514 0181 4889DA   		movq	%rbx, %rdx
 2515 0184 4889C6   		movq	%rax, %rsi
 2516 0187 4889CF   		movq	%rcx, %rdi
 2517 018a 41FFD4   		call	*%r12
 2518              	.LVL7:
 2519 018d EB49     		jmp	.L169
 2520              	.L166:
 814:/home/xingli/share/LiteOS_Lab/network/dtls/mbedtls/mbedtls-2.16.2/library/cipher.c ****                     ctx->unprocessed_len );
 815:/home/xingli/share/LiteOS_Lab/network/dtls/mbedtls/mbedtls-2.16.2/library/cipher.c ****         }
 816:/home/xingli/share/LiteOS_Lab/network/dtls/mbedtls/mbedtls-2.16.2/library/cipher.c ****         else if( mbedtls_cipher_get_block_size( ctx ) != ctx->unprocessed_len )
 2521              		.loc 2 816 18
 2522 018f 488B45C8 		movq	-56(%rbp), %rax
 2523 0193 4889C7   		movq	%rax, %rdi
 2524 0196 E8000000 		call	mbedtls_cipher_get_block_size
 2524      00
GAS LISTING /tmp/ccaq2TqD.s 			page 73


 2525 019b 89C2     		movl	%eax, %edx
 2526              		.loc 2 816 61
 2527 019d 488B45C8 		movq	-56(%rbp), %rax
 2528 01a1 488B4030 		movq	48(%rax), %rax
 2529              		.loc 2 816 16
 2530 01a5 4839C2   		cmpq	%rax, %rdx
 2531 01a8 742E     		je	.L169
 817:/home/xingli/share/LiteOS_Lab/network/dtls/mbedtls/mbedtls-2.16.2/library/cipher.c ****         {
 818:/home/xingli/share/LiteOS_Lab/network/dtls/mbedtls/mbedtls-2.16.2/library/cipher.c ****             /*
 819:/home/xingli/share/LiteOS_Lab/network/dtls/mbedtls/mbedtls-2.16.2/library/cipher.c ****              * For decrypt operations, expect a full block,
 820:/home/xingli/share/LiteOS_Lab/network/dtls/mbedtls/mbedtls-2.16.2/library/cipher.c ****              * or an empty block if no padding
 821:/home/xingli/share/LiteOS_Lab/network/dtls/mbedtls/mbedtls-2.16.2/library/cipher.c ****              */
 822:/home/xingli/share/LiteOS_Lab/network/dtls/mbedtls/mbedtls-2.16.2/library/cipher.c ****             if( NULL == ctx->add_padding && 0 == ctx->unprocessed_len )
 2532              		.loc 2 822 28
 2533 01aa 488B45C8 		movq	-56(%rbp), %rax
 2534 01ae 488B4010 		movq	16(%rax), %rax
 2535              		.loc 2 822 15
 2536 01b2 4885C0   		testq	%rax, %rax
 2537 01b5 7517     		jne	.L170
 2538              		.loc 2 822 53 discriminator 1
 2539 01b7 488B45C8 		movq	-56(%rbp), %rax
 2540 01bb 488B4030 		movq	48(%rax), %rax
 2541              		.loc 2 822 42 discriminator 1
 2542 01bf 4885C0   		testq	%rax, %rax
 2543 01c2 750A     		jne	.L170
 823:/home/xingli/share/LiteOS_Lab/network/dtls/mbedtls/mbedtls-2.16.2/library/cipher.c ****                 return( 0 );
 2544              		.loc 2 823 23
 2545 01c4 B8000000 		movl	$0, %eax
 2545      00
 2546 01c9 E9BD0000 		jmp	.L158
 2546      00
 2547              	.L170:
 824:/home/xingli/share/LiteOS_Lab/network/dtls/mbedtls/mbedtls-2.16.2/library/cipher.c **** 
 825:/home/xingli/share/LiteOS_Lab/network/dtls/mbedtls/mbedtls-2.16.2/library/cipher.c ****             return( MBEDTLS_ERR_CIPHER_FULL_BLOCK_EXPECTED );
 2548              		.loc 2 825 19
 2549 01ce B8809DFF 		movl	$-25216, %eax
 2549      FF
 2550 01d3 E9B30000 		jmp	.L158
 2550      00
 2551              	.L169:
 826:/home/xingli/share/LiteOS_Lab/network/dtls/mbedtls/mbedtls-2.16.2/library/cipher.c ****         }
 827:/home/xingli/share/LiteOS_Lab/network/dtls/mbedtls/mbedtls-2.16.2/library/cipher.c **** 
 828:/home/xingli/share/LiteOS_Lab/network/dtls/mbedtls/mbedtls-2.16.2/library/cipher.c ****         /* cipher block */
 829:/home/xingli/share/LiteOS_Lab/network/dtls/mbedtls/mbedtls-2.16.2/library/cipher.c ****         if( 0 != ( ret = ctx->cipher_info->base->cbc_func( ctx->cipher_ctx,
 2552              		.loc 2 829 29
 2553 01d8 488B45C8 		movq	-56(%rbp), %rax
 2554 01dc 488B00   		movq	(%rax), %rax
 2555              		.loc 2 829 42
 2556 01df 488B4028 		movq	40(%rax), %rax
 2557              		.loc 2 829 48
 2558 01e3 488B5810 		movq	16(%rax), %rbx
 830:/home/xingli/share/LiteOS_Lab/network/dtls/mbedtls/mbedtls-2.16.2/library/cipher.c ****                 ctx->operation, mbedtls_cipher_get_block_size( ctx ), ctx->iv,
 831:/home/xingli/share/LiteOS_Lab/network/dtls/mbedtls/mbedtls-2.16.2/library/cipher.c ****                 ctx->unprocessed_data, output ) ) )
 2559              		.loc 2 831 20
 2560 01e7 488B45C8 		movq	-56(%rbp), %rax
 2561 01eb 4C8D6820 		leaq	32(%rax), %r13
 830:/home/xingli/share/LiteOS_Lab/network/dtls/mbedtls/mbedtls-2.16.2/library/cipher.c ****                 ctx->operation, mbedtls_cipher_get_block_size( ctx ), ctx->iv,
GAS LISTING /tmp/ccaq2TqD.s 			page 74


 2562              		.loc 2 830 74
 2563 01ef 488B45C8 		movq	-56(%rbp), %rax
 2564 01f3 4C8D6038 		leaq	56(%rax), %r12
 830:/home/xingli/share/LiteOS_Lab/network/dtls/mbedtls/mbedtls-2.16.2/library/cipher.c ****                 ctx->operation, mbedtls_cipher_get_block_size( ctx ), ctx->iv,
 2565              		.loc 2 830 33
 2566 01f7 488B45C8 		movq	-56(%rbp), %rax
 2567 01fb 4889C7   		movq	%rax, %rdi
 2568 01fe E8000000 		call	mbedtls_cipher_get_block_size
 2568      00
 829:/home/xingli/share/LiteOS_Lab/network/dtls/mbedtls/mbedtls-2.16.2/library/cipher.c ****                 ctx->operation, mbedtls_cipher_get_block_size( ctx ), ctx->iv,
 2569              		.loc 2 829 26
 2570 0203 89C7     		movl	%eax, %edi
 2571 0205 488B45C8 		movq	-56(%rbp), %rax
 2572 0209 8B700C   		movl	12(%rax), %esi
 2573 020c 488B45C8 		movq	-56(%rbp), %rax
 2574 0210 488B4050 		movq	80(%rax), %rax
 2575 0214 488B55C0 		movq	-64(%rbp), %rdx
 2576 0218 4989D1   		movq	%rdx, %r9
 2577 021b 4D89E8   		movq	%r13, %r8
 2578 021e 4C89E1   		movq	%r12, %rcx
 2579 0221 4889FA   		movq	%rdi, %rdx
 2580 0224 4889C7   		movq	%rax, %rdi
 2581 0227 FFD3     		call	*%rbx
 2582              	.LVL8:
 2583 0229 8945D4   		movl	%eax, -44(%rbp)
 829:/home/xingli/share/LiteOS_Lab/network/dtls/mbedtls/mbedtls-2.16.2/library/cipher.c ****                 ctx->operation, mbedtls_cipher_get_block_size( ctx ), ctx->iv,
 2584              		.loc 2 829 11
 2585 022c 837DD400 		cmpl	$0, -44(%rbp)
 2586 0230 7405     		je	.L171
 832:/home/xingli/share/LiteOS_Lab/network/dtls/mbedtls/mbedtls-2.16.2/library/cipher.c ****         {
 833:/home/xingli/share/LiteOS_Lab/network/dtls/mbedtls/mbedtls-2.16.2/library/cipher.c ****             return( ret );
 2587              		.loc 2 833 19
 2588 0232 8B45D4   		movl	-44(%rbp), %eax
 2589 0235 EB54     		jmp	.L158
 2590              	.L171:
 834:/home/xingli/share/LiteOS_Lab/network/dtls/mbedtls/mbedtls-2.16.2/library/cipher.c ****         }
 835:/home/xingli/share/LiteOS_Lab/network/dtls/mbedtls/mbedtls-2.16.2/library/cipher.c **** 
 836:/home/xingli/share/LiteOS_Lab/network/dtls/mbedtls/mbedtls-2.16.2/library/cipher.c ****         /* Set output size for decryption */
 837:/home/xingli/share/LiteOS_Lab/network/dtls/mbedtls/mbedtls-2.16.2/library/cipher.c ****         if( MBEDTLS_DECRYPT == ctx->operation )
 2591              		.loc 2 837 35
 2592 0237 488B45C8 		movq	-56(%rbp), %rax
 2593 023b 8B400C   		movl	12(%rax), %eax
 2594              		.loc 2 837 11
 2595 023e 85C0     		testl	%eax, %eax
 2596 0240 7528     		jne	.L172
 838:/home/xingli/share/LiteOS_Lab/network/dtls/mbedtls/mbedtls-2.16.2/library/cipher.c ****             return( ctx->get_padding( output, mbedtls_cipher_get_block_size( ctx ),
 2597              		.loc 2 838 24
 2598 0242 488B45C8 		movq	-56(%rbp), %rax
 2599 0246 488B5818 		movq	24(%rax), %rbx
 2600              		.loc 2 838 47
 2601 024a 488B45C8 		movq	-56(%rbp), %rax
 2602 024e 4889C7   		movq	%rax, %rdi
 2603 0251 E8000000 		call	mbedtls_cipher_get_block_size
 2603      00
 2604              		.loc 2 838 21
 2605 0256 89C1     		movl	%eax, %ecx
 2606 0258 488B55B8 		movq	-72(%rbp), %rdx
GAS LISTING /tmp/ccaq2TqD.s 			page 75


 2607 025c 488B45C0 		movq	-64(%rbp), %rax
 2608 0260 4889CE   		movq	%rcx, %rsi
 2609 0263 4889C7   		movq	%rax, %rdi
 2610 0266 FFD3     		call	*%rbx
 2611              	.LVL9:
 2612 0268 EB21     		jmp	.L158
 2613              	.L172:
 839:/home/xingli/share/LiteOS_Lab/network/dtls/mbedtls/mbedtls-2.16.2/library/cipher.c ****                                       olen ) );
 840:/home/xingli/share/LiteOS_Lab/network/dtls/mbedtls/mbedtls-2.16.2/library/cipher.c **** 
 841:/home/xingli/share/LiteOS_Lab/network/dtls/mbedtls/mbedtls-2.16.2/library/cipher.c ****         /* Set output size for encryption */
 842:/home/xingli/share/LiteOS_Lab/network/dtls/mbedtls/mbedtls-2.16.2/library/cipher.c ****         *olen = mbedtls_cipher_get_block_size( ctx );
 2614              		.loc 2 842 17
 2615 026a 488B45C8 		movq	-56(%rbp), %rax
 2616 026e 4889C7   		movq	%rax, %rdi
 2617 0271 E8000000 		call	mbedtls_cipher_get_block_size
 2617      00
 2618 0276 89C2     		movl	%eax, %edx
 2619              		.loc 2 842 15
 2620 0278 488B45B8 		movq	-72(%rbp), %rax
 2621 027c 488910   		movq	%rdx, (%rax)
 843:/home/xingli/share/LiteOS_Lab/network/dtls/mbedtls/mbedtls-2.16.2/library/cipher.c ****         return( 0 );
 2622              		.loc 2 843 15
 2623 027f B8000000 		movl	$0, %eax
 2623      00
 2624 0284 EB05     		jmp	.L158
 2625              	.L165:
 2626              	.LBE3:
 844:/home/xingli/share/LiteOS_Lab/network/dtls/mbedtls/mbedtls-2.16.2/library/cipher.c ****     }
 845:/home/xingli/share/LiteOS_Lab/network/dtls/mbedtls/mbedtls-2.16.2/library/cipher.c **** #else
 846:/home/xingli/share/LiteOS_Lab/network/dtls/mbedtls/mbedtls-2.16.2/library/cipher.c ****     ((void) output);
 847:/home/xingli/share/LiteOS_Lab/network/dtls/mbedtls/mbedtls-2.16.2/library/cipher.c **** #endif /* MBEDTLS_CIPHER_MODE_CBC */
 848:/home/xingli/share/LiteOS_Lab/network/dtls/mbedtls/mbedtls-2.16.2/library/cipher.c **** 
 849:/home/xingli/share/LiteOS_Lab/network/dtls/mbedtls/mbedtls-2.16.2/library/cipher.c ****     return( MBEDTLS_ERR_CIPHER_FEATURE_UNAVAILABLE );
 2627              		.loc 2 849 11
 2628 0286 B8809FFF 		movl	$-24704, %eax
 2628      FF
 2629              	.L158:
 850:/home/xingli/share/LiteOS_Lab/network/dtls/mbedtls/mbedtls-2.16.2/library/cipher.c **** }
 2630              		.loc 2 850 1
 2631 028b 488B4DD8 		movq	-40(%rbp), %rcx
 2632 028f 6448330C 		xorq	%fs:40, %rcx
 2632      25280000 
 2632      00
 2633 0298 7405     		je	.L173
 2634 029a E8000000 		call	__stack_chk_fail@PLT
 2634      00
 2635              	.L173:
 2636 029f 4883C438 		addq	$56, %rsp
 2637 02a3 5B       		popq	%rbx
 2638 02a4 415C     		popq	%r12
 2639 02a6 415D     		popq	%r13
 2640 02a8 5D       		popq	%rbp
 2641              	.LCFI74:
 2642              		.cfi_def_cfa 7, 8
 2643 02a9 C3       		ret
 2644              		.cfi_endproc
 2645              	.LFE35:
GAS LISTING /tmp/ccaq2TqD.s 			page 76


 2647              		.section	.text.mbedtls_cipher_set_padding_mode,"ax",@progbits
 2648              		.globl	mbedtls_cipher_set_padding_mode
 2650              	mbedtls_cipher_set_padding_mode:
 2651              	.LFB36:
 851:/home/xingli/share/LiteOS_Lab/network/dtls/mbedtls/mbedtls-2.16.2/library/cipher.c **** 
 852:/home/xingli/share/LiteOS_Lab/network/dtls/mbedtls/mbedtls-2.16.2/library/cipher.c **** #if defined(MBEDTLS_CIPHER_MODE_WITH_PADDING)
 853:/home/xingli/share/LiteOS_Lab/network/dtls/mbedtls/mbedtls-2.16.2/library/cipher.c **** int mbedtls_cipher_set_padding_mode( mbedtls_cipher_context_t *ctx,
 854:/home/xingli/share/LiteOS_Lab/network/dtls/mbedtls/mbedtls-2.16.2/library/cipher.c ****                                      mbedtls_cipher_padding_t mode )
 855:/home/xingli/share/LiteOS_Lab/network/dtls/mbedtls/mbedtls-2.16.2/library/cipher.c **** {
 2652              		.loc 2 855 1
 2653              		.cfi_startproc
 2654 0000 F30F1EFA 		endbr64
 2655 0004 55       		pushq	%rbp
 2656              	.LCFI75:
 2657              		.cfi_def_cfa_offset 16
 2658              		.cfi_offset 6, -16
 2659 0005 4889E5   		movq	%rsp, %rbp
 2660              	.LCFI76:
 2661              		.cfi_def_cfa_register 6
 2662 0008 4883EC20 		subq	$32, %rsp
 2663 000c 48897DE8 		movq	%rdi, -24(%rbp)
 2664 0010 8975E4   		movl	%esi, -28(%rbp)
 2665              		.loc 2 855 1
 2666 0013 64488B04 		movq	%fs:40, %rax
 2666      25280000 
 2666      00
 2667 001c 488945F8 		movq	%rax, -8(%rbp)
 2668 0020 31C0     		xorl	%eax, %eax
 856:/home/xingli/share/LiteOS_Lab/network/dtls/mbedtls/mbedtls-2.16.2/library/cipher.c ****     CIPHER_VALIDATE_RET( ctx != NULL );
 857:/home/xingli/share/LiteOS_Lab/network/dtls/mbedtls/mbedtls-2.16.2/library/cipher.c **** 
 858:/home/xingli/share/LiteOS_Lab/network/dtls/mbedtls/mbedtls-2.16.2/library/cipher.c ****     if( NULL == ctx->cipher_info || MBEDTLS_MODE_CBC != ctx->cipher_info->mode )
 2669              		.loc 2 858 20
 2670 0022 488B45E8 		movq	-24(%rbp), %rax
 2671 0026 488B00   		movq	(%rax), %rax
 2672              		.loc 2 858 7
 2673 0029 4885C0   		testq	%rax, %rax
 2674 002c 740F     		je	.L175
 2675              		.loc 2 858 60 discriminator 1
 2676 002e 488B45E8 		movq	-24(%rbp), %rax
 2677 0032 488B00   		movq	(%rax), %rax
 2678              		.loc 2 858 73 discriminator 1
 2679 0035 8B4004   		movl	4(%rax), %eax
 2680              		.loc 2 858 34 discriminator 1
 2681 0038 83F802   		cmpl	$2, %eax
 2682 003b 740A     		je	.L176
 2683              	.L175:
 859:/home/xingli/share/LiteOS_Lab/network/dtls/mbedtls/mbedtls-2.16.2/library/cipher.c ****     {
 860:/home/xingli/share/LiteOS_Lab/network/dtls/mbedtls/mbedtls-2.16.2/library/cipher.c ****         return( MBEDTLS_ERR_CIPHER_BAD_INPUT_DATA );
 2684              		.loc 2 860 15
 2685 003d B8009FFF 		movl	$-24832, %eax
 2685      FF
 2686 0042 E9DA0000 		jmp	.L177
 2686      00
 2687              	.L176:
 2688 0047 837DE404 		cmpl	$4, -28(%rbp)
 2689 004b 0F87C400 		ja	.L178
 2689      0000
GAS LISTING /tmp/ccaq2TqD.s 			page 77


 2690 0051 8B45E4   		movl	-28(%rbp), %eax
 2691 0054 488D1485 		leaq	0(,%rax,4), %rdx
 2691      00000000 
 2692 005c 488D0500 		leaq	.L180(%rip), %rax
 2692      000000
 2693 0063 8B0402   		movl	(%rdx,%rax), %eax
 2694 0066 4898     		cltq
 2695 0068 488D1500 		leaq	.L180(%rip), %rdx
 2695      000000
 2696 006f 4801D0   		addq	%rdx, %rax
 2697 0072 3EFFE0   		notrack jmp	*%rax
 2698              		.section	.rodata.mbedtls_cipher_set_padding_mode,"a",@progbits
 2699              		.align 4
 2700              		.align 4
 2701              	.L180:
 2702 0000 00000000 		.long	.L184-.L180
 2703 0004 00000000 		.long	.L183-.L180
 2704 0008 00000000 		.long	.L182-.L180
 2705 000c 00000000 		.long	.L181-.L180
 2706 0010 00000000 		.long	.L179-.L180
 2707              		.section	.text.mbedtls_cipher_set_padding_mode
 2708              	.L184:
 861:/home/xingli/share/LiteOS_Lab/network/dtls/mbedtls/mbedtls-2.16.2/library/cipher.c ****     }
 862:/home/xingli/share/LiteOS_Lab/network/dtls/mbedtls/mbedtls-2.16.2/library/cipher.c **** 
 863:/home/xingli/share/LiteOS_Lab/network/dtls/mbedtls/mbedtls-2.16.2/library/cipher.c ****     switch( mode )
 864:/home/xingli/share/LiteOS_Lab/network/dtls/mbedtls/mbedtls-2.16.2/library/cipher.c ****     {
 865:/home/xingli/share/LiteOS_Lab/network/dtls/mbedtls/mbedtls-2.16.2/library/cipher.c **** #if defined(MBEDTLS_CIPHER_PADDING_PKCS7)
 866:/home/xingli/share/LiteOS_Lab/network/dtls/mbedtls/mbedtls-2.16.2/library/cipher.c ****     case MBEDTLS_PADDING_PKCS7:
 867:/home/xingli/share/LiteOS_Lab/network/dtls/mbedtls/mbedtls-2.16.2/library/cipher.c ****         ctx->add_padding = add_pkcs_padding;
 2709              		.loc 2 867 26
 2710 0075 488B45E8 		movq	-24(%rbp), %rax
 2711 0079 488D1500 		leaq	add_pkcs_padding(%rip), %rdx
 2711      000000
 2712 0080 48895010 		movq	%rdx, 16(%rax)
 868:/home/xingli/share/LiteOS_Lab/network/dtls/mbedtls/mbedtls-2.16.2/library/cipher.c ****         ctx->get_padding = get_pkcs_padding;
 2713              		.loc 2 868 26
 2714 0084 488B45E8 		movq	-24(%rbp), %rax
 2715 0088 488D1500 		leaq	get_pkcs_padding(%rip), %rdx
 2715      000000
 2716 008f 48895018 		movq	%rdx, 24(%rax)
 869:/home/xingli/share/LiteOS_Lab/network/dtls/mbedtls/mbedtls-2.16.2/library/cipher.c ****         break;
 2717              		.loc 2 869 9
 2718 0093 E9840000 		jmp	.L185
 2718      00
 2719              	.L183:
 870:/home/xingli/share/LiteOS_Lab/network/dtls/mbedtls/mbedtls-2.16.2/library/cipher.c **** #endif
 871:/home/xingli/share/LiteOS_Lab/network/dtls/mbedtls/mbedtls-2.16.2/library/cipher.c **** #if defined(MBEDTLS_CIPHER_PADDING_ONE_AND_ZEROS)
 872:/home/xingli/share/LiteOS_Lab/network/dtls/mbedtls/mbedtls-2.16.2/library/cipher.c ****     case MBEDTLS_PADDING_ONE_AND_ZEROS:
 873:/home/xingli/share/LiteOS_Lab/network/dtls/mbedtls/mbedtls-2.16.2/library/cipher.c ****         ctx->add_padding = add_one_and_zeros_padding;
 2720              		.loc 2 873 26
 2721 0098 488B45E8 		movq	-24(%rbp), %rax
 2722 009c 488D1500 		leaq	add_one_and_zeros_padding(%rip), %rdx
 2722      000000
 2723 00a3 48895010 		movq	%rdx, 16(%rax)
 874:/home/xingli/share/LiteOS_Lab/network/dtls/mbedtls/mbedtls-2.16.2/library/cipher.c ****         ctx->get_padding = get_one_and_zeros_padding;
 2724              		.loc 2 874 26
 2725 00a7 488B45E8 		movq	-24(%rbp), %rax
GAS LISTING /tmp/ccaq2TqD.s 			page 78


 2726 00ab 488D1500 		leaq	get_one_and_zeros_padding(%rip), %rdx
 2726      000000
 2727 00b2 48895018 		movq	%rdx, 24(%rax)
 875:/home/xingli/share/LiteOS_Lab/network/dtls/mbedtls/mbedtls-2.16.2/library/cipher.c ****         break;
 2728              		.loc 2 875 9
 2729 00b6 EB64     		jmp	.L185
 2730              	.L182:
 876:/home/xingli/share/LiteOS_Lab/network/dtls/mbedtls/mbedtls-2.16.2/library/cipher.c **** #endif
 877:/home/xingli/share/LiteOS_Lab/network/dtls/mbedtls/mbedtls-2.16.2/library/cipher.c **** #if defined(MBEDTLS_CIPHER_PADDING_ZEROS_AND_LEN)
 878:/home/xingli/share/LiteOS_Lab/network/dtls/mbedtls/mbedtls-2.16.2/library/cipher.c ****     case MBEDTLS_PADDING_ZEROS_AND_LEN:
 879:/home/xingli/share/LiteOS_Lab/network/dtls/mbedtls/mbedtls-2.16.2/library/cipher.c ****         ctx->add_padding = add_zeros_and_len_padding;
 2731              		.loc 2 879 26
 2732 00b8 488B45E8 		movq	-24(%rbp), %rax
 2733 00bc 488D1500 		leaq	add_zeros_and_len_padding(%rip), %rdx
 2733      000000
 2734 00c3 48895010 		movq	%rdx, 16(%rax)
 880:/home/xingli/share/LiteOS_Lab/network/dtls/mbedtls/mbedtls-2.16.2/library/cipher.c ****         ctx->get_padding = get_zeros_and_len_padding;
 2735              		.loc 2 880 26
 2736 00c7 488B45E8 		movq	-24(%rbp), %rax
 2737 00cb 488D1500 		leaq	get_zeros_and_len_padding(%rip), %rdx
 2737      000000
 2738 00d2 48895018 		movq	%rdx, 24(%rax)
 881:/home/xingli/share/LiteOS_Lab/network/dtls/mbedtls/mbedtls-2.16.2/library/cipher.c ****         break;
 2739              		.loc 2 881 9
 2740 00d6 EB44     		jmp	.L185
 2741              	.L181:
 882:/home/xingli/share/LiteOS_Lab/network/dtls/mbedtls/mbedtls-2.16.2/library/cipher.c **** #endif
 883:/home/xingli/share/LiteOS_Lab/network/dtls/mbedtls/mbedtls-2.16.2/library/cipher.c **** #if defined(MBEDTLS_CIPHER_PADDING_ZEROS)
 884:/home/xingli/share/LiteOS_Lab/network/dtls/mbedtls/mbedtls-2.16.2/library/cipher.c ****     case MBEDTLS_PADDING_ZEROS:
 885:/home/xingli/share/LiteOS_Lab/network/dtls/mbedtls/mbedtls-2.16.2/library/cipher.c ****         ctx->add_padding = add_zeros_padding;
 2742              		.loc 2 885 26
 2743 00d8 488B45E8 		movq	-24(%rbp), %rax
 2744 00dc 488D1500 		leaq	add_zeros_padding(%rip), %rdx
 2744      000000
 2745 00e3 48895010 		movq	%rdx, 16(%rax)
 886:/home/xingli/share/LiteOS_Lab/network/dtls/mbedtls/mbedtls-2.16.2/library/cipher.c ****         ctx->get_padding = get_zeros_padding;
 2746              		.loc 2 886 26
 2747 00e7 488B45E8 		movq	-24(%rbp), %rax
 2748 00eb 488D1500 		leaq	get_zeros_padding(%rip), %rdx
 2748      000000
 2749 00f2 48895018 		movq	%rdx, 24(%rax)
 887:/home/xingli/share/LiteOS_Lab/network/dtls/mbedtls/mbedtls-2.16.2/library/cipher.c ****         break;
 2750              		.loc 2 887 9
 2751 00f6 EB24     		jmp	.L185
 2752              	.L179:
 888:/home/xingli/share/LiteOS_Lab/network/dtls/mbedtls/mbedtls-2.16.2/library/cipher.c **** #endif
 889:/home/xingli/share/LiteOS_Lab/network/dtls/mbedtls/mbedtls-2.16.2/library/cipher.c ****     case MBEDTLS_PADDING_NONE:
 890:/home/xingli/share/LiteOS_Lab/network/dtls/mbedtls/mbedtls-2.16.2/library/cipher.c ****         ctx->add_padding = NULL;
 2753              		.loc 2 890 26
 2754 00f8 488B45E8 		movq	-24(%rbp), %rax
 2755 00fc 48C74010 		movq	$0, 16(%rax)
 2755      00000000 
 891:/home/xingli/share/LiteOS_Lab/network/dtls/mbedtls/mbedtls-2.16.2/library/cipher.c ****         ctx->get_padding = get_no_padding;
 2756              		.loc 2 891 26
 2757 0104 488B45E8 		movq	-24(%rbp), %rax
 2758 0108 488D1500 		leaq	get_no_padding(%rip), %rdx
 2758      000000
GAS LISTING /tmp/ccaq2TqD.s 			page 79


 2759 010f 48895018 		movq	%rdx, 24(%rax)
 892:/home/xingli/share/LiteOS_Lab/network/dtls/mbedtls/mbedtls-2.16.2/library/cipher.c ****         break;
 2760              		.loc 2 892 9
 2761 0113 EB07     		jmp	.L185
 2762              	.L178:
 893:/home/xingli/share/LiteOS_Lab/network/dtls/mbedtls/mbedtls-2.16.2/library/cipher.c **** 
 894:/home/xingli/share/LiteOS_Lab/network/dtls/mbedtls/mbedtls-2.16.2/library/cipher.c ****     default:
 895:/home/xingli/share/LiteOS_Lab/network/dtls/mbedtls/mbedtls-2.16.2/library/cipher.c ****         return( MBEDTLS_ERR_CIPHER_FEATURE_UNAVAILABLE );
 2763              		.loc 2 895 15
 2764 0115 B8809FFF 		movl	$-24704, %eax
 2764      FF
 2765 011a EB05     		jmp	.L177
 2766              	.L185:
 896:/home/xingli/share/LiteOS_Lab/network/dtls/mbedtls/mbedtls-2.16.2/library/cipher.c ****     }
 897:/home/xingli/share/LiteOS_Lab/network/dtls/mbedtls/mbedtls-2.16.2/library/cipher.c **** 
 898:/home/xingli/share/LiteOS_Lab/network/dtls/mbedtls/mbedtls-2.16.2/library/cipher.c ****     return( 0 );
 2767              		.loc 2 898 11
 2768 011c B8000000 		movl	$0, %eax
 2768      00
 2769              	.L177:
 899:/home/xingli/share/LiteOS_Lab/network/dtls/mbedtls/mbedtls-2.16.2/library/cipher.c **** }
 2770              		.loc 2 899 1
 2771 0121 488B4DF8 		movq	-8(%rbp), %rcx
 2772 0125 6448330C 		xorq	%fs:40, %rcx
 2772      25280000 
 2772      00
 2773 012e 7405     		je	.L186
 2774 0130 E8000000 		call	__stack_chk_fail@PLT
 2774      00
 2775              	.L186:
 2776 0135 C9       		leave
 2777              	.LCFI77:
 2778              		.cfi_def_cfa 7, 8
 2779 0136 C3       		ret
 2780              		.cfi_endproc
 2781              	.LFE36:
 2783              		.section	.text.mbedtls_cipher_write_tag,"ax",@progbits
 2784              		.globl	mbedtls_cipher_write_tag
 2786              	mbedtls_cipher_write_tag:
 2787              	.LFB37:
 900:/home/xingli/share/LiteOS_Lab/network/dtls/mbedtls/mbedtls-2.16.2/library/cipher.c **** #endif /* MBEDTLS_CIPHER_MODE_WITH_PADDING */
 901:/home/xingli/share/LiteOS_Lab/network/dtls/mbedtls/mbedtls-2.16.2/library/cipher.c **** 
 902:/home/xingli/share/LiteOS_Lab/network/dtls/mbedtls/mbedtls-2.16.2/library/cipher.c **** #if defined(MBEDTLS_GCM_C) || defined(MBEDTLS_CHACHAPOLY_C)
 903:/home/xingli/share/LiteOS_Lab/network/dtls/mbedtls/mbedtls-2.16.2/library/cipher.c **** int mbedtls_cipher_write_tag( mbedtls_cipher_context_t *ctx,
 904:/home/xingli/share/LiteOS_Lab/network/dtls/mbedtls/mbedtls-2.16.2/library/cipher.c ****                       unsigned char *tag, size_t tag_len )
 905:/home/xingli/share/LiteOS_Lab/network/dtls/mbedtls/mbedtls-2.16.2/library/cipher.c **** {
 2788              		.loc 2 905 1
 2789              		.cfi_startproc
 2790 0000 F30F1EFA 		endbr64
 2791 0004 55       		pushq	%rbp
 2792              	.LCFI78:
 2793              		.cfi_def_cfa_offset 16
 2794              		.cfi_offset 6, -16
 2795 0005 4889E5   		movq	%rsp, %rbp
 2796              	.LCFI79:
 2797              		.cfi_def_cfa_register 6
 2798 0008 4883EC30 		subq	$48, %rsp
GAS LISTING /tmp/ccaq2TqD.s 			page 80


 2799 000c 48897DE8 		movq	%rdi, -24(%rbp)
 2800 0010 488975E0 		movq	%rsi, -32(%rbp)
 2801 0014 488955D8 		movq	%rdx, -40(%rbp)
 2802              		.loc 2 905 1
 2803 0018 64488B04 		movq	%fs:40, %rax
 2803      25280000 
 2803      00
 2804 0021 488945F8 		movq	%rax, -8(%rbp)
 2805 0025 31C0     		xorl	%eax, %eax
 906:/home/xingli/share/LiteOS_Lab/network/dtls/mbedtls/mbedtls-2.16.2/library/cipher.c ****     CIPHER_VALIDATE_RET( ctx != NULL );
 907:/home/xingli/share/LiteOS_Lab/network/dtls/mbedtls/mbedtls-2.16.2/library/cipher.c ****     CIPHER_VALIDATE_RET( tag_len == 0 || tag != NULL );
 908:/home/xingli/share/LiteOS_Lab/network/dtls/mbedtls/mbedtls-2.16.2/library/cipher.c ****     if( ctx->cipher_info == NULL )
 2806              		.loc 2 908 12
 2807 0027 488B45E8 		movq	-24(%rbp), %rax
 2808 002b 488B00   		movq	(%rax), %rax
 2809              		.loc 2 908 7
 2810 002e 4885C0   		testq	%rax, %rax
 2811 0031 7507     		jne	.L188
 909:/home/xingli/share/LiteOS_Lab/network/dtls/mbedtls/mbedtls-2.16.2/library/cipher.c ****         return( MBEDTLS_ERR_CIPHER_BAD_INPUT_DATA );
 2812              		.loc 2 909 15
 2813 0033 B8009FFF 		movl	$-24832, %eax
 2813      FF
 2814 0038 EB44     		jmp	.L189
 2815              	.L188:
 910:/home/xingli/share/LiteOS_Lab/network/dtls/mbedtls/mbedtls-2.16.2/library/cipher.c **** 
 911:/home/xingli/share/LiteOS_Lab/network/dtls/mbedtls/mbedtls-2.16.2/library/cipher.c ****     if( MBEDTLS_ENCRYPT != ctx->operation )
 2816              		.loc 2 911 31
 2817 003a 488B45E8 		movq	-24(%rbp), %rax
 2818 003e 8B400C   		movl	12(%rax), %eax
 2819              		.loc 2 911 7
 2820 0041 83F801   		cmpl	$1, %eax
 2821 0044 7407     		je	.L190
 912:/home/xingli/share/LiteOS_Lab/network/dtls/mbedtls/mbedtls-2.16.2/library/cipher.c ****         return( MBEDTLS_ERR_CIPHER_BAD_INPUT_DATA );
 2822              		.loc 2 912 15
 2823 0046 B8009FFF 		movl	$-24832, %eax
 2823      FF
 2824 004b EB31     		jmp	.L189
 2825              	.L190:
 913:/home/xingli/share/LiteOS_Lab/network/dtls/mbedtls/mbedtls-2.16.2/library/cipher.c **** 
 914:/home/xingli/share/LiteOS_Lab/network/dtls/mbedtls/mbedtls-2.16.2/library/cipher.c **** #if defined(MBEDTLS_GCM_C)
 915:/home/xingli/share/LiteOS_Lab/network/dtls/mbedtls/mbedtls-2.16.2/library/cipher.c ****     if( MBEDTLS_MODE_GCM == ctx->cipher_info->mode )
 2826              		.loc 2 915 32
 2827 004d 488B45E8 		movq	-24(%rbp), %rax
 2828 0051 488B00   		movq	(%rax), %rax
 2829              		.loc 2 915 45
 2830 0054 8B4004   		movl	4(%rax), %eax
 2831              		.loc 2 915 7
 2832 0057 83F806   		cmpl	$6, %eax
 2833 005a 751D     		jne	.L191
 916:/home/xingli/share/LiteOS_Lab/network/dtls/mbedtls/mbedtls-2.16.2/library/cipher.c ****         return( mbedtls_gcm_finish( (mbedtls_gcm_context *) ctx->cipher_ctx,
 2834              		.loc 2 916 64
 2835 005c 488B45E8 		movq	-24(%rbp), %rax
 2836 0060 488B4050 		movq	80(%rax), %rax
 2837              		.loc 2 916 17
 2838 0064 488B55D8 		movq	-40(%rbp), %rdx
 2839 0068 488B4DE0 		movq	-32(%rbp), %rcx
 2840 006c 4889CE   		movq	%rcx, %rsi
GAS LISTING /tmp/ccaq2TqD.s 			page 81


 2841 006f 4889C7   		movq	%rax, %rdi
 2842 0072 E8000000 		call	mbedtls_gcm_finish@PLT
 2842      00
 2843 0077 EB05     		jmp	.L189
 2844              	.L191:
 917:/home/xingli/share/LiteOS_Lab/network/dtls/mbedtls/mbedtls-2.16.2/library/cipher.c ****                                     tag, tag_len ) );
 918:/home/xingli/share/LiteOS_Lab/network/dtls/mbedtls/mbedtls-2.16.2/library/cipher.c **** #endif
 919:/home/xingli/share/LiteOS_Lab/network/dtls/mbedtls/mbedtls-2.16.2/library/cipher.c **** 
 920:/home/xingli/share/LiteOS_Lab/network/dtls/mbedtls/mbedtls-2.16.2/library/cipher.c **** #if defined(MBEDTLS_CHACHAPOLY_C)
 921:/home/xingli/share/LiteOS_Lab/network/dtls/mbedtls/mbedtls-2.16.2/library/cipher.c ****     if ( MBEDTLS_CIPHER_CHACHA20_POLY1305 == ctx->cipher_info->type )
 922:/home/xingli/share/LiteOS_Lab/network/dtls/mbedtls/mbedtls-2.16.2/library/cipher.c ****     {
 923:/home/xingli/share/LiteOS_Lab/network/dtls/mbedtls/mbedtls-2.16.2/library/cipher.c ****         /* Don't allow truncated MAC for Poly1305 */
 924:/home/xingli/share/LiteOS_Lab/network/dtls/mbedtls/mbedtls-2.16.2/library/cipher.c ****         if ( tag_len != 16U )
 925:/home/xingli/share/LiteOS_Lab/network/dtls/mbedtls/mbedtls-2.16.2/library/cipher.c ****             return( MBEDTLS_ERR_CIPHER_BAD_INPUT_DATA );
 926:/home/xingli/share/LiteOS_Lab/network/dtls/mbedtls/mbedtls-2.16.2/library/cipher.c **** 
 927:/home/xingli/share/LiteOS_Lab/network/dtls/mbedtls/mbedtls-2.16.2/library/cipher.c ****         return( mbedtls_chachapoly_finish( (mbedtls_chachapoly_context*) ctx->cipher_ctx,
 928:/home/xingli/share/LiteOS_Lab/network/dtls/mbedtls/mbedtls-2.16.2/library/cipher.c ****                                            tag ) );
 929:/home/xingli/share/LiteOS_Lab/network/dtls/mbedtls/mbedtls-2.16.2/library/cipher.c ****     }
 930:/home/xingli/share/LiteOS_Lab/network/dtls/mbedtls/mbedtls-2.16.2/library/cipher.c **** #endif
 931:/home/xingli/share/LiteOS_Lab/network/dtls/mbedtls/mbedtls-2.16.2/library/cipher.c **** 
 932:/home/xingli/share/LiteOS_Lab/network/dtls/mbedtls/mbedtls-2.16.2/library/cipher.c ****     return( 0 );
 2845              		.loc 2 932 11
 2846 0079 B8000000 		movl	$0, %eax
 2846      00
 2847              	.L189:
 933:/home/xingli/share/LiteOS_Lab/network/dtls/mbedtls/mbedtls-2.16.2/library/cipher.c **** }
 2848              		.loc 2 933 1
 2849 007e 488B4DF8 		movq	-8(%rbp), %rcx
 2850 0082 6448330C 		xorq	%fs:40, %rcx
 2850      25280000 
 2850      00
 2851 008b 7405     		je	.L192
 2852 008d E8000000 		call	__stack_chk_fail@PLT
 2852      00
 2853              	.L192:
 2854 0092 C9       		leave
 2855              	.LCFI80:
 2856              		.cfi_def_cfa 7, 8
 2857 0093 C3       		ret
 2858              		.cfi_endproc
 2859              	.LFE37:
 2861              		.section	.text.mbedtls_cipher_check_tag,"ax",@progbits
 2862              		.globl	mbedtls_cipher_check_tag
 2864              	mbedtls_cipher_check_tag:
 2865              	.LFB38:
 934:/home/xingli/share/LiteOS_Lab/network/dtls/mbedtls/mbedtls-2.16.2/library/cipher.c **** 
 935:/home/xingli/share/LiteOS_Lab/network/dtls/mbedtls/mbedtls-2.16.2/library/cipher.c **** int mbedtls_cipher_check_tag( mbedtls_cipher_context_t *ctx,
 936:/home/xingli/share/LiteOS_Lab/network/dtls/mbedtls/mbedtls-2.16.2/library/cipher.c ****                       const unsigned char *tag, size_t tag_len )
 937:/home/xingli/share/LiteOS_Lab/network/dtls/mbedtls/mbedtls-2.16.2/library/cipher.c **** {
 2866              		.loc 2 937 1
 2867              		.cfi_startproc
 2868 0000 F30F1EFA 		endbr64
 2869 0004 55       		pushq	%rbp
 2870              	.LCFI81:
 2871              		.cfi_def_cfa_offset 16
 2872              		.cfi_offset 6, -16
 2873 0005 4889E5   		movq	%rsp, %rbp
GAS LISTING /tmp/ccaq2TqD.s 			page 82


 2874              	.LCFI82:
 2875              		.cfi_def_cfa_register 6
 2876 0008 4883EC50 		subq	$80, %rsp
 2877 000c 48897DC8 		movq	%rdi, -56(%rbp)
 2878 0010 488975C0 		movq	%rsi, -64(%rbp)
 2879 0014 488955B8 		movq	%rdx, -72(%rbp)
 2880              		.loc 2 937 1
 2881 0018 64488B04 		movq	%fs:40, %rax
 2881      25280000 
 2881      00
 2882 0021 488945F8 		movq	%rax, -8(%rbp)
 2883 0025 31C0     		xorl	%eax, %eax
 938:/home/xingli/share/LiteOS_Lab/network/dtls/mbedtls/mbedtls-2.16.2/library/cipher.c ****     unsigned char check_tag[16];
 939:/home/xingli/share/LiteOS_Lab/network/dtls/mbedtls/mbedtls-2.16.2/library/cipher.c ****     int ret;
 940:/home/xingli/share/LiteOS_Lab/network/dtls/mbedtls/mbedtls-2.16.2/library/cipher.c **** 
 941:/home/xingli/share/LiteOS_Lab/network/dtls/mbedtls/mbedtls-2.16.2/library/cipher.c ****     CIPHER_VALIDATE_RET( ctx != NULL );
 942:/home/xingli/share/LiteOS_Lab/network/dtls/mbedtls/mbedtls-2.16.2/library/cipher.c ****     CIPHER_VALIDATE_RET( tag_len == 0 || tag != NULL );
 943:/home/xingli/share/LiteOS_Lab/network/dtls/mbedtls/mbedtls-2.16.2/library/cipher.c ****     if( ctx->cipher_info == NULL )
 2884              		.loc 2 943 12
 2885 0027 488B45C8 		movq	-56(%rbp), %rax
 2886 002b 488B00   		movq	(%rax), %rax
 2887              		.loc 2 943 7
 2888 002e 4885C0   		testq	%rax, %rax
 2889 0031 750A     		jne	.L194
 944:/home/xingli/share/LiteOS_Lab/network/dtls/mbedtls/mbedtls-2.16.2/library/cipher.c ****         return( MBEDTLS_ERR_CIPHER_BAD_INPUT_DATA );
 2890              		.loc 2 944 15
 2891 0033 B8009FFF 		movl	$-24832, %eax
 2891      FF
 2892 0038 E9860000 		jmp	.L201
 2892      00
 2893              	.L194:
 945:/home/xingli/share/LiteOS_Lab/network/dtls/mbedtls/mbedtls-2.16.2/library/cipher.c **** 
 946:/home/xingli/share/LiteOS_Lab/network/dtls/mbedtls/mbedtls-2.16.2/library/cipher.c ****     if( MBEDTLS_DECRYPT != ctx->operation )
 2894              		.loc 2 946 31
 2895 003d 488B45C8 		movq	-56(%rbp), %rax
 2896 0041 8B400C   		movl	12(%rax), %eax
 2897              		.loc 2 946 7
 2898 0044 85C0     		testl	%eax, %eax
 2899 0046 7407     		je	.L196
 947:/home/xingli/share/LiteOS_Lab/network/dtls/mbedtls/mbedtls-2.16.2/library/cipher.c ****     {
 948:/home/xingli/share/LiteOS_Lab/network/dtls/mbedtls/mbedtls-2.16.2/library/cipher.c ****         return( MBEDTLS_ERR_CIPHER_BAD_INPUT_DATA );
 2900              		.loc 2 948 15
 2901 0048 B8009FFF 		movl	$-24832, %eax
 2901      FF
 2902 004d EB74     		jmp	.L201
 2903              	.L196:
 949:/home/xingli/share/LiteOS_Lab/network/dtls/mbedtls/mbedtls-2.16.2/library/cipher.c ****     }
 950:/home/xingli/share/LiteOS_Lab/network/dtls/mbedtls/mbedtls-2.16.2/library/cipher.c **** 
 951:/home/xingli/share/LiteOS_Lab/network/dtls/mbedtls/mbedtls-2.16.2/library/cipher.c **** #if defined(MBEDTLS_GCM_C)
 952:/home/xingli/share/LiteOS_Lab/network/dtls/mbedtls/mbedtls-2.16.2/library/cipher.c ****     if( MBEDTLS_MODE_GCM == ctx->cipher_info->mode )
 2904              		.loc 2 952 32
 2905 004f 488B45C8 		movq	-56(%rbp), %rax
 2906 0053 488B00   		movq	(%rax), %rax
 2907              		.loc 2 952 45
 2908 0056 8B4004   		movl	4(%rax), %eax
 2909              		.loc 2 952 7
 2910 0059 83F806   		cmpl	$6, %eax
GAS LISTING /tmp/ccaq2TqD.s 			page 83


 2911 005c 7560     		jne	.L197
 953:/home/xingli/share/LiteOS_Lab/network/dtls/mbedtls/mbedtls-2.16.2/library/cipher.c ****     {
 954:/home/xingli/share/LiteOS_Lab/network/dtls/mbedtls/mbedtls-2.16.2/library/cipher.c ****         if( tag_len > sizeof( check_tag ) )
 2912              		.loc 2 954 11
 2913 005e 48837DB8 		cmpq	$16, -72(%rbp)
 2913      10
 2914 0063 7607     		jbe	.L198
 955:/home/xingli/share/LiteOS_Lab/network/dtls/mbedtls/mbedtls-2.16.2/library/cipher.c ****             return( MBEDTLS_ERR_CIPHER_BAD_INPUT_DATA );
 2915              		.loc 2 955 19
 2916 0065 B8009FFF 		movl	$-24832, %eax
 2916      FF
 2917 006a EB57     		jmp	.L201
 2918              	.L198:
 956:/home/xingli/share/LiteOS_Lab/network/dtls/mbedtls/mbedtls-2.16.2/library/cipher.c **** 
 957:/home/xingli/share/LiteOS_Lab/network/dtls/mbedtls/mbedtls-2.16.2/library/cipher.c ****         if( 0 != ( ret = mbedtls_gcm_finish( (mbedtls_gcm_context *) ctx->cipher_ctx,
 2919              		.loc 2 957 73
 2920 006c 488B45C8 		movq	-56(%rbp), %rax
 2921 0070 488B4050 		movq	80(%rax), %rax
 2922              		.loc 2 957 26
 2923 0074 488B55B8 		movq	-72(%rbp), %rdx
 2924 0078 488D4DE0 		leaq	-32(%rbp), %rcx
 2925 007c 4889CE   		movq	%rcx, %rsi
 2926 007f 4889C7   		movq	%rax, %rdi
 2927 0082 E8000000 		call	mbedtls_gcm_finish@PLT
 2927      00
 2928 0087 8945DC   		movl	%eax, -36(%rbp)
 2929              		.loc 2 957 11
 2930 008a 837DDC00 		cmpl	$0, -36(%rbp)
 2931 008e 7405     		je	.L199
 958:/home/xingli/share/LiteOS_Lab/network/dtls/mbedtls/mbedtls-2.16.2/library/cipher.c ****                                      check_tag, tag_len ) ) )
 959:/home/xingli/share/LiteOS_Lab/network/dtls/mbedtls/mbedtls-2.16.2/library/cipher.c ****         {
 960:/home/xingli/share/LiteOS_Lab/network/dtls/mbedtls/mbedtls-2.16.2/library/cipher.c ****             return( ret );
 2932              		.loc 2 960 19
 2933 0090 8B45DC   		movl	-36(%rbp), %eax
 2934 0093 EB2E     		jmp	.L201
 2935              	.L199:
 961:/home/xingli/share/LiteOS_Lab/network/dtls/mbedtls/mbedtls-2.16.2/library/cipher.c ****         }
 962:/home/xingli/share/LiteOS_Lab/network/dtls/mbedtls/mbedtls-2.16.2/library/cipher.c **** 
 963:/home/xingli/share/LiteOS_Lab/network/dtls/mbedtls/mbedtls-2.16.2/library/cipher.c ****         /* Check the tag in "constant-time" */
 964:/home/xingli/share/LiteOS_Lab/network/dtls/mbedtls/mbedtls-2.16.2/library/cipher.c ****         if( mbedtls_constant_time_memcmp( tag, check_tag, tag_len ) != 0 )
 2936              		.loc 2 964 13
 2937 0095 488B55B8 		movq	-72(%rbp), %rdx
 2938 0099 488D4DE0 		leaq	-32(%rbp), %rcx
 2939 009d 488B45C0 		movq	-64(%rbp), %rax
 2940 00a1 4889CE   		movq	%rcx, %rsi
 2941 00a4 4889C7   		movq	%rax, %rdi
 2942 00a7 E8000000 		call	mbedtls_constant_time_memcmp
 2942      00
 2943              		.loc 2 964 11
 2944 00ac 85C0     		testl	%eax, %eax
 2945 00ae 7407     		je	.L200
 965:/home/xingli/share/LiteOS_Lab/network/dtls/mbedtls/mbedtls-2.16.2/library/cipher.c ****             return( MBEDTLS_ERR_CIPHER_AUTH_FAILED );
 2946              		.loc 2 965 19
 2947 00b0 B8009DFF 		movl	$-25344, %eax
 2947      FF
 2948 00b5 EB0C     		jmp	.L201
 2949              	.L200:
GAS LISTING /tmp/ccaq2TqD.s 			page 84


 966:/home/xingli/share/LiteOS_Lab/network/dtls/mbedtls/mbedtls-2.16.2/library/cipher.c **** 
 967:/home/xingli/share/LiteOS_Lab/network/dtls/mbedtls/mbedtls-2.16.2/library/cipher.c ****         return( 0 );
 2950              		.loc 2 967 15
 2951 00b7 B8000000 		movl	$0, %eax
 2951      00
 2952 00bc EB05     		jmp	.L201
 2953              	.L197:
 968:/home/xingli/share/LiteOS_Lab/network/dtls/mbedtls/mbedtls-2.16.2/library/cipher.c ****     }
 969:/home/xingli/share/LiteOS_Lab/network/dtls/mbedtls/mbedtls-2.16.2/library/cipher.c **** #endif /* MBEDTLS_GCM_C */
 970:/home/xingli/share/LiteOS_Lab/network/dtls/mbedtls/mbedtls-2.16.2/library/cipher.c **** 
 971:/home/xingli/share/LiteOS_Lab/network/dtls/mbedtls/mbedtls-2.16.2/library/cipher.c **** #if defined(MBEDTLS_CHACHAPOLY_C)
 972:/home/xingli/share/LiteOS_Lab/network/dtls/mbedtls/mbedtls-2.16.2/library/cipher.c ****     if ( MBEDTLS_CIPHER_CHACHA20_POLY1305 == ctx->cipher_info->type )
 973:/home/xingli/share/LiteOS_Lab/network/dtls/mbedtls/mbedtls-2.16.2/library/cipher.c ****     {
 974:/home/xingli/share/LiteOS_Lab/network/dtls/mbedtls/mbedtls-2.16.2/library/cipher.c ****         /* Don't allow truncated MAC for Poly1305 */
 975:/home/xingli/share/LiteOS_Lab/network/dtls/mbedtls/mbedtls-2.16.2/library/cipher.c ****         if ( tag_len != sizeof( check_tag ) )
 976:/home/xingli/share/LiteOS_Lab/network/dtls/mbedtls/mbedtls-2.16.2/library/cipher.c ****             return( MBEDTLS_ERR_CIPHER_BAD_INPUT_DATA );
 977:/home/xingli/share/LiteOS_Lab/network/dtls/mbedtls/mbedtls-2.16.2/library/cipher.c **** 
 978:/home/xingli/share/LiteOS_Lab/network/dtls/mbedtls/mbedtls-2.16.2/library/cipher.c ****         ret = mbedtls_chachapoly_finish( (mbedtls_chachapoly_context*) ctx->cipher_ctx,
 979:/home/xingli/share/LiteOS_Lab/network/dtls/mbedtls/mbedtls-2.16.2/library/cipher.c ****                                                      check_tag );
 980:/home/xingli/share/LiteOS_Lab/network/dtls/mbedtls/mbedtls-2.16.2/library/cipher.c ****         if ( ret != 0 )
 981:/home/xingli/share/LiteOS_Lab/network/dtls/mbedtls/mbedtls-2.16.2/library/cipher.c ****         {
 982:/home/xingli/share/LiteOS_Lab/network/dtls/mbedtls/mbedtls-2.16.2/library/cipher.c ****             return( ret );
 983:/home/xingli/share/LiteOS_Lab/network/dtls/mbedtls/mbedtls-2.16.2/library/cipher.c ****         }
 984:/home/xingli/share/LiteOS_Lab/network/dtls/mbedtls/mbedtls-2.16.2/library/cipher.c **** 
 985:/home/xingli/share/LiteOS_Lab/network/dtls/mbedtls/mbedtls-2.16.2/library/cipher.c ****         /* Check the tag in "constant-time" */
 986:/home/xingli/share/LiteOS_Lab/network/dtls/mbedtls/mbedtls-2.16.2/library/cipher.c ****         if( mbedtls_constant_time_memcmp( tag, check_tag, tag_len ) != 0 )
 987:/home/xingli/share/LiteOS_Lab/network/dtls/mbedtls/mbedtls-2.16.2/library/cipher.c ****             return( MBEDTLS_ERR_CIPHER_AUTH_FAILED );
 988:/home/xingli/share/LiteOS_Lab/network/dtls/mbedtls/mbedtls-2.16.2/library/cipher.c **** 
 989:/home/xingli/share/LiteOS_Lab/network/dtls/mbedtls/mbedtls-2.16.2/library/cipher.c ****         return( 0 );
 990:/home/xingli/share/LiteOS_Lab/network/dtls/mbedtls/mbedtls-2.16.2/library/cipher.c ****     }
 991:/home/xingli/share/LiteOS_Lab/network/dtls/mbedtls/mbedtls-2.16.2/library/cipher.c **** #endif /* MBEDTLS_CHACHAPOLY_C */
 992:/home/xingli/share/LiteOS_Lab/network/dtls/mbedtls/mbedtls-2.16.2/library/cipher.c **** 
 993:/home/xingli/share/LiteOS_Lab/network/dtls/mbedtls/mbedtls-2.16.2/library/cipher.c ****     return( 0 );
 2954              		.loc 2 993 11
 2955 00be B8000000 		movl	$0, %eax
 2955      00
 2956              	.L201:
 994:/home/xingli/share/LiteOS_Lab/network/dtls/mbedtls/mbedtls-2.16.2/library/cipher.c **** }
 2957              		.loc 2 994 1 discriminator 1
 2958 00c3 488B75F8 		movq	-8(%rbp), %rsi
 2959 00c7 64483334 		xorq	%fs:40, %rsi
 2959      25280000 
 2959      00
 2960 00d0 7405     		je	.L202
 2961              		.loc 2 994 1 is_stmt 0
 2962 00d2 E8000000 		call	__stack_chk_fail@PLT
 2962      00
 2963              	.L202:
 2964 00d7 C9       		leave
 2965              	.LCFI83:
 2966              		.cfi_def_cfa 7, 8
 2967 00d8 C3       		ret
 2968              		.cfi_endproc
 2969              	.LFE38:
 2971              		.section	.text.mbedtls_cipher_crypt,"ax",@progbits
 2972              		.globl	mbedtls_cipher_crypt
 2974              	mbedtls_cipher_crypt:
GAS LISTING /tmp/ccaq2TqD.s 			page 85


 2975              	.LFB39:
 995:/home/xingli/share/LiteOS_Lab/network/dtls/mbedtls/mbedtls-2.16.2/library/cipher.c **** #endif /* MBEDTLS_GCM_C || MBEDTLS_CHACHAPOLY_C */
 996:/home/xingli/share/LiteOS_Lab/network/dtls/mbedtls/mbedtls-2.16.2/library/cipher.c **** 
 997:/home/xingli/share/LiteOS_Lab/network/dtls/mbedtls/mbedtls-2.16.2/library/cipher.c **** /*
 998:/home/xingli/share/LiteOS_Lab/network/dtls/mbedtls/mbedtls-2.16.2/library/cipher.c ****  * Packet-oriented wrapper for non-AEAD modes
 999:/home/xingli/share/LiteOS_Lab/network/dtls/mbedtls/mbedtls-2.16.2/library/cipher.c ****  */
1000:/home/xingli/share/LiteOS_Lab/network/dtls/mbedtls/mbedtls-2.16.2/library/cipher.c **** int mbedtls_cipher_crypt( mbedtls_cipher_context_t *ctx,
1001:/home/xingli/share/LiteOS_Lab/network/dtls/mbedtls/mbedtls-2.16.2/library/cipher.c ****                   const unsigned char *iv, size_t iv_len,
1002:/home/xingli/share/LiteOS_Lab/network/dtls/mbedtls/mbedtls-2.16.2/library/cipher.c ****                   const unsigned char *input, size_t ilen,
1003:/home/xingli/share/LiteOS_Lab/network/dtls/mbedtls/mbedtls-2.16.2/library/cipher.c ****                   unsigned char *output, size_t *olen )
1004:/home/xingli/share/LiteOS_Lab/network/dtls/mbedtls/mbedtls-2.16.2/library/cipher.c **** {
 2976              		.loc 2 1004 1 is_stmt 1
 2977              		.cfi_startproc
 2978 0000 F30F1EFA 		endbr64
 2979 0004 55       		pushq	%rbp
 2980              	.LCFI84:
 2981              		.cfi_def_cfa_offset 16
 2982              		.cfi_offset 6, -16
 2983 0005 4889E5   		movq	%rsp, %rbp
 2984              	.LCFI85:
 2985              		.cfi_def_cfa_register 6
 2986 0008 4883EC60 		subq	$96, %rsp
 2987 000c 48897DD8 		movq	%rdi, -40(%rbp)
 2988 0010 488975D0 		movq	%rsi, -48(%rbp)
 2989 0014 488955C8 		movq	%rdx, -56(%rbp)
 2990 0018 48894DC0 		movq	%rcx, -64(%rbp)
 2991 001c 4C8945B8 		movq	%r8, -72(%rbp)
 2992 0020 4C894DB0 		movq	%r9, -80(%rbp)
 2993 0024 488B4510 		movq	16(%rbp), %rax
 2994 0028 488945A8 		movq	%rax, -88(%rbp)
 2995              		.loc 2 1004 1
 2996 002c 64488B04 		movq	%fs:40, %rax
 2996      25280000 
 2996      00
 2997 0035 488945F8 		movq	%rax, -8(%rbp)
 2998 0039 31C0     		xorl	%eax, %eax
1005:/home/xingli/share/LiteOS_Lab/network/dtls/mbedtls/mbedtls-2.16.2/library/cipher.c ****     int ret;
1006:/home/xingli/share/LiteOS_Lab/network/dtls/mbedtls/mbedtls-2.16.2/library/cipher.c ****     size_t finish_olen;
1007:/home/xingli/share/LiteOS_Lab/network/dtls/mbedtls/mbedtls-2.16.2/library/cipher.c **** 
1008:/home/xingli/share/LiteOS_Lab/network/dtls/mbedtls/mbedtls-2.16.2/library/cipher.c ****     CIPHER_VALIDATE_RET( ctx != NULL );
1009:/home/xingli/share/LiteOS_Lab/network/dtls/mbedtls/mbedtls-2.16.2/library/cipher.c ****     CIPHER_VALIDATE_RET( iv_len == 0 || iv != NULL );
1010:/home/xingli/share/LiteOS_Lab/network/dtls/mbedtls/mbedtls-2.16.2/library/cipher.c ****     CIPHER_VALIDATE_RET( ilen == 0 || input != NULL );
1011:/home/xingli/share/LiteOS_Lab/network/dtls/mbedtls/mbedtls-2.16.2/library/cipher.c ****     CIPHER_VALIDATE_RET( output != NULL );
1012:/home/xingli/share/LiteOS_Lab/network/dtls/mbedtls/mbedtls-2.16.2/library/cipher.c ****     CIPHER_VALIDATE_RET( olen != NULL );
1013:/home/xingli/share/LiteOS_Lab/network/dtls/mbedtls/mbedtls-2.16.2/library/cipher.c **** 
1014:/home/xingli/share/LiteOS_Lab/network/dtls/mbedtls/mbedtls-2.16.2/library/cipher.c ****     if( ( ret = mbedtls_cipher_set_iv( ctx, iv, iv_len ) ) != 0 )
 2999              		.loc 2 1014 17
 3000 003b 488B55C8 		movq	-56(%rbp), %rdx
 3001 003f 488B4DD0 		movq	-48(%rbp), %rcx
 3002 0043 488B45D8 		movq	-40(%rbp), %rax
 3003 0047 4889CE   		movq	%rcx, %rsi
 3004 004a 4889C7   		movq	%rax, %rdi
 3005 004d E8000000 		call	mbedtls_cipher_set_iv
 3005      00
 3006 0052 8945EC   		movl	%eax, -20(%rbp)
 3007              		.loc 2 1014 7
 3008 0055 837DEC00 		cmpl	$0, -20(%rbp)
GAS LISTING /tmp/ccaq2TqD.s 			page 86


 3009 0059 7408     		je	.L204
1015:/home/xingli/share/LiteOS_Lab/network/dtls/mbedtls/mbedtls-2.16.2/library/cipher.c ****         return( ret );
 3010              		.loc 2 1015 15
 3011 005b 8B45EC   		movl	-20(%rbp), %eax
 3012 005e E9910000 		jmp	.L209
 3012      00
 3013              	.L204:
1016:/home/xingli/share/LiteOS_Lab/network/dtls/mbedtls/mbedtls-2.16.2/library/cipher.c **** 
1017:/home/xingli/share/LiteOS_Lab/network/dtls/mbedtls/mbedtls-2.16.2/library/cipher.c ****     if( ( ret = mbedtls_cipher_reset( ctx ) ) != 0 )
 3014              		.loc 2 1017 17
 3015 0063 488B45D8 		movq	-40(%rbp), %rax
 3016 0067 4889C7   		movq	%rax, %rdi
 3017 006a E8000000 		call	mbedtls_cipher_reset
 3017      00
 3018 006f 8945EC   		movl	%eax, -20(%rbp)
 3019              		.loc 2 1017 7
 3020 0072 837DEC00 		cmpl	$0, -20(%rbp)
 3021 0076 7405     		je	.L206
1018:/home/xingli/share/LiteOS_Lab/network/dtls/mbedtls/mbedtls-2.16.2/library/cipher.c ****         return( ret );
 3022              		.loc 2 1018 15
 3023 0078 8B45EC   		movl	-20(%rbp), %eax
 3024 007b EB77     		jmp	.L209
 3025              	.L206:
1019:/home/xingli/share/LiteOS_Lab/network/dtls/mbedtls/mbedtls-2.16.2/library/cipher.c **** 
1020:/home/xingli/share/LiteOS_Lab/network/dtls/mbedtls/mbedtls-2.16.2/library/cipher.c ****     if( ( ret = mbedtls_cipher_update( ctx, input, ilen, output, olen ) ) != 0 )
 3026              		.loc 2 1020 17
 3027 007d 488B7DA8 		movq	-88(%rbp), %rdi
 3028 0081 488B4DB0 		movq	-80(%rbp), %rcx
 3029 0085 488B55B8 		movq	-72(%rbp), %rdx
 3030 0089 488B75C0 		movq	-64(%rbp), %rsi
 3031 008d 488B45D8 		movq	-40(%rbp), %rax
 3032 0091 4989F8   		movq	%rdi, %r8
 3033 0094 4889C7   		movq	%rax, %rdi
 3034 0097 E8000000 		call	mbedtls_cipher_update
 3034      00
 3035 009c 8945EC   		movl	%eax, -20(%rbp)
 3036              		.loc 2 1020 7
 3037 009f 837DEC00 		cmpl	$0, -20(%rbp)
 3038 00a3 7405     		je	.L207
1021:/home/xingli/share/LiteOS_Lab/network/dtls/mbedtls/mbedtls-2.16.2/library/cipher.c ****         return( ret );
 3039              		.loc 2 1021 15
 3040 00a5 8B45EC   		movl	-20(%rbp), %eax
 3041 00a8 EB4A     		jmp	.L209
 3042              	.L207:
1022:/home/xingli/share/LiteOS_Lab/network/dtls/mbedtls/mbedtls-2.16.2/library/cipher.c **** 
1023:/home/xingli/share/LiteOS_Lab/network/dtls/mbedtls/mbedtls-2.16.2/library/cipher.c ****     if( ( ret = mbedtls_cipher_finish( ctx, output + *olen, &finish_olen ) ) != 0 )
 3043              		.loc 2 1023 54
 3044 00aa 488B45A8 		movq	-88(%rbp), %rax
 3045 00ae 488B10   		movq	(%rax), %rdx
 3046              		.loc 2 1023 17
 3047 00b1 488B45B0 		movq	-80(%rbp), %rax
 3048 00b5 488D0C02 		leaq	(%rdx,%rax), %rcx
 3049 00b9 488D55F0 		leaq	-16(%rbp), %rdx
 3050 00bd 488B45D8 		movq	-40(%rbp), %rax
 3051 00c1 4889CE   		movq	%rcx, %rsi
 3052 00c4 4889C7   		movq	%rax, %rdi
 3053 00c7 E8000000 		call	mbedtls_cipher_finish
GAS LISTING /tmp/ccaq2TqD.s 			page 87


 3053      00
 3054 00cc 8945EC   		movl	%eax, -20(%rbp)
 3055              		.loc 2 1023 7
 3056 00cf 837DEC00 		cmpl	$0, -20(%rbp)
 3057 00d3 7405     		je	.L208
1024:/home/xingli/share/LiteOS_Lab/network/dtls/mbedtls/mbedtls-2.16.2/library/cipher.c ****         return( ret );
 3058              		.loc 2 1024 15
 3059 00d5 8B45EC   		movl	-20(%rbp), %eax
 3060 00d8 EB1A     		jmp	.L209
 3061              	.L208:
1025:/home/xingli/share/LiteOS_Lab/network/dtls/mbedtls/mbedtls-2.16.2/library/cipher.c **** 
1026:/home/xingli/share/LiteOS_Lab/network/dtls/mbedtls/mbedtls-2.16.2/library/cipher.c ****     *olen += finish_olen;
 3062              		.loc 2 1026 11
 3063 00da 488B45A8 		movq	-88(%rbp), %rax
 3064 00de 488B10   		movq	(%rax), %rdx
 3065 00e1 488B45F0 		movq	-16(%rbp), %rax
 3066 00e5 4801C2   		addq	%rax, %rdx
 3067 00e8 488B45A8 		movq	-88(%rbp), %rax
 3068 00ec 488910   		movq	%rdx, (%rax)
1027:/home/xingli/share/LiteOS_Lab/network/dtls/mbedtls/mbedtls-2.16.2/library/cipher.c **** 
1028:/home/xingli/share/LiteOS_Lab/network/dtls/mbedtls/mbedtls-2.16.2/library/cipher.c ****     return( 0 );
 3069              		.loc 2 1028 11
 3070 00ef B8000000 		movl	$0, %eax
 3070      00
 3071              	.L209:
1029:/home/xingli/share/LiteOS_Lab/network/dtls/mbedtls/mbedtls-2.16.2/library/cipher.c **** }
 3072              		.loc 2 1029 1 discriminator 1
 3073 00f4 488B75F8 		movq	-8(%rbp), %rsi
 3074 00f8 64483334 		xorq	%fs:40, %rsi
 3074      25280000 
 3074      00
 3075 0101 7405     		je	.L210
 3076              		.loc 2 1029 1 is_stmt 0
 3077 0103 E8000000 		call	__stack_chk_fail@PLT
 3077      00
 3078              	.L210:
 3079 0108 C9       		leave
 3080              	.LCFI86:
 3081              		.cfi_def_cfa 7, 8
 3082 0109 C3       		ret
 3083              		.cfi_endproc
 3084              	.LFE39:
 3086              		.section	.text.mbedtls_cipher_auth_encrypt,"ax",@progbits
 3087              		.globl	mbedtls_cipher_auth_encrypt
 3089              	mbedtls_cipher_auth_encrypt:
 3090              	.LFB40:
1030:/home/xingli/share/LiteOS_Lab/network/dtls/mbedtls/mbedtls-2.16.2/library/cipher.c **** 
1031:/home/xingli/share/LiteOS_Lab/network/dtls/mbedtls/mbedtls-2.16.2/library/cipher.c **** #if defined(MBEDTLS_CIPHER_MODE_AEAD)
1032:/home/xingli/share/LiteOS_Lab/network/dtls/mbedtls/mbedtls-2.16.2/library/cipher.c **** /*
1033:/home/xingli/share/LiteOS_Lab/network/dtls/mbedtls/mbedtls-2.16.2/library/cipher.c ****  * Packet-oriented encryption for AEAD modes
1034:/home/xingli/share/LiteOS_Lab/network/dtls/mbedtls/mbedtls-2.16.2/library/cipher.c ****  */
1035:/home/xingli/share/LiteOS_Lab/network/dtls/mbedtls/mbedtls-2.16.2/library/cipher.c **** int mbedtls_cipher_auth_encrypt( mbedtls_cipher_context_t *ctx,
1036:/home/xingli/share/LiteOS_Lab/network/dtls/mbedtls/mbedtls-2.16.2/library/cipher.c ****                          const unsigned char *iv, size_t iv_len,
1037:/home/xingli/share/LiteOS_Lab/network/dtls/mbedtls/mbedtls-2.16.2/library/cipher.c ****                          const unsigned char *ad, size_t ad_len,
1038:/home/xingli/share/LiteOS_Lab/network/dtls/mbedtls/mbedtls-2.16.2/library/cipher.c ****                          const unsigned char *input, size_t ilen,
1039:/home/xingli/share/LiteOS_Lab/network/dtls/mbedtls/mbedtls-2.16.2/library/cipher.c ****                          unsigned char *output, size_t *olen,
1040:/home/xingli/share/LiteOS_Lab/network/dtls/mbedtls/mbedtls-2.16.2/library/cipher.c ****                          unsigned char *tag, size_t tag_len )
GAS LISTING /tmp/ccaq2TqD.s 			page 88


1041:/home/xingli/share/LiteOS_Lab/network/dtls/mbedtls/mbedtls-2.16.2/library/cipher.c **** {
 3091              		.loc 2 1041 1 is_stmt 1
 3092              		.cfi_startproc
 3093 0000 F30F1EFA 		endbr64
 3094 0004 55       		pushq	%rbp
 3095              	.LCFI87:
 3096              		.cfi_def_cfa_offset 16
 3097              		.cfi_offset 6, -16
 3098 0005 4889E5   		movq	%rsp, %rbp
 3099              	.LCFI88:
 3100              		.cfi_def_cfa_register 6
 3101 0008 4883EC70 		subq	$112, %rsp
 3102 000c 48897DE8 		movq	%rdi, -24(%rbp)
 3103 0010 488975E0 		movq	%rsi, -32(%rbp)
 3104 0014 488955D8 		movq	%rdx, -40(%rbp)
 3105 0018 48894DD0 		movq	%rcx, -48(%rbp)
 3106 001c 4C8945C8 		movq	%r8, -56(%rbp)
 3107 0020 4C894DC0 		movq	%r9, -64(%rbp)
 3108 0024 488B4510 		movq	16(%rbp), %rax
 3109 0028 488945B8 		movq	%rax, -72(%rbp)
 3110 002c 488B4518 		movq	24(%rbp), %rax
 3111 0030 488945B0 		movq	%rax, -80(%rbp)
 3112 0034 488B4520 		movq	32(%rbp), %rax
 3113 0038 488945A8 		movq	%rax, -88(%rbp)
 3114 003c 488B4528 		movq	40(%rbp), %rax
 3115 0040 488945A0 		movq	%rax, -96(%rbp)
 3116 0044 488B4530 		movq	48(%rbp), %rax
 3117 0048 48894598 		movq	%rax, -104(%rbp)
 3118              		.loc 2 1041 1
 3119 004c 64488B04 		movq	%fs:40, %rax
 3119      25280000 
 3119      00
 3120 0055 488945F8 		movq	%rax, -8(%rbp)
 3121 0059 31C0     		xorl	%eax, %eax
1042:/home/xingli/share/LiteOS_Lab/network/dtls/mbedtls/mbedtls-2.16.2/library/cipher.c ****     CIPHER_VALIDATE_RET( ctx != NULL );
1043:/home/xingli/share/LiteOS_Lab/network/dtls/mbedtls/mbedtls-2.16.2/library/cipher.c ****     CIPHER_VALIDATE_RET( iv != NULL );
1044:/home/xingli/share/LiteOS_Lab/network/dtls/mbedtls/mbedtls-2.16.2/library/cipher.c ****     CIPHER_VALIDATE_RET( ad_len == 0 || ad != NULL );
1045:/home/xingli/share/LiteOS_Lab/network/dtls/mbedtls/mbedtls-2.16.2/library/cipher.c ****     CIPHER_VALIDATE_RET( ilen == 0 || input != NULL );
1046:/home/xingli/share/LiteOS_Lab/network/dtls/mbedtls/mbedtls-2.16.2/library/cipher.c ****     CIPHER_VALIDATE_RET( output != NULL );
1047:/home/xingli/share/LiteOS_Lab/network/dtls/mbedtls/mbedtls-2.16.2/library/cipher.c ****     CIPHER_VALIDATE_RET( olen != NULL );
1048:/home/xingli/share/LiteOS_Lab/network/dtls/mbedtls/mbedtls-2.16.2/library/cipher.c ****     CIPHER_VALIDATE_RET( tag_len == 0 || tag != NULL );
1049:/home/xingli/share/LiteOS_Lab/network/dtls/mbedtls/mbedtls-2.16.2/library/cipher.c **** 
1050:/home/xingli/share/LiteOS_Lab/network/dtls/mbedtls/mbedtls-2.16.2/library/cipher.c **** #if defined(MBEDTLS_GCM_C)
1051:/home/xingli/share/LiteOS_Lab/network/dtls/mbedtls/mbedtls-2.16.2/library/cipher.c ****     if( MBEDTLS_MODE_GCM == ctx->cipher_info->mode )
 3122              		.loc 2 1051 32
 3123 005b 488B45E8 		movq	-24(%rbp), %rax
 3124 005f 488B00   		movq	(%rax), %rax
 3125              		.loc 2 1051 45
 3126 0062 8B4004   		movl	4(%rax), %eax
 3127              		.loc 2 1051 7
 3128 0065 83F806   		cmpl	$6, %eax
 3129 0068 754F     		jne	.L212
1052:/home/xingli/share/LiteOS_Lab/network/dtls/mbedtls/mbedtls-2.16.2/library/cipher.c ****     {
1053:/home/xingli/share/LiteOS_Lab/network/dtls/mbedtls/mbedtls-2.16.2/library/cipher.c ****         *olen = ilen;
 3130              		.loc 2 1053 15
 3131 006a 488B45A8 		movq	-88(%rbp), %rax
 3132 006e 488B55B8 		movq	-72(%rbp), %rdx
GAS LISTING /tmp/ccaq2TqD.s 			page 89


 3133 0072 488910   		movq	%rdx, (%rax)
1054:/home/xingli/share/LiteOS_Lab/network/dtls/mbedtls/mbedtls-2.16.2/library/cipher.c ****         return( mbedtls_gcm_crypt_and_tag( ctx->cipher_ctx, MBEDTLS_GCM_ENCRYPT, ilen,
 3134              		.loc 2 1054 47
 3135 0075 488B45E8 		movq	-24(%rbp), %rax
 3136 0079 488B4050 		movq	80(%rax), %rax
 3137              		.loc 2 1054 17
 3138 007d 488B7DD0 		movq	-48(%rbp), %rdi
 3139 0081 488B75D8 		movq	-40(%rbp), %rsi
 3140 0085 488B4DE0 		movq	-32(%rbp), %rcx
 3141 0089 488B55B8 		movq	-72(%rbp), %rdx
 3142 008d 4883EC08 		subq	$8, %rsp
 3143 0091 FF75A0   		pushq	-96(%rbp)
 3144 0094 FF7598   		pushq	-104(%rbp)
 3145 0097 FF75B0   		pushq	-80(%rbp)
 3146 009a FF75C0   		pushq	-64(%rbp)
 3147 009d FF75C8   		pushq	-56(%rbp)
 3148 00a0 4989F9   		movq	%rdi, %r9
 3149 00a3 4989F0   		movq	%rsi, %r8
 3150 00a6 BE010000 		movl	$1, %esi
 3150      00
 3151 00ab 4889C7   		movq	%rax, %rdi
 3152 00ae E8000000 		call	mbedtls_gcm_crypt_and_tag@PLT
 3152      00
 3153 00b3 4883C430 		addq	$48, %rsp
 3154 00b7 EB05     		jmp	.L213
 3155              	.L212:
1055:/home/xingli/share/LiteOS_Lab/network/dtls/mbedtls/mbedtls-2.16.2/library/cipher.c ****                                    iv, iv_len, ad, ad_len, input, output,
1056:/home/xingli/share/LiteOS_Lab/network/dtls/mbedtls/mbedtls-2.16.2/library/cipher.c ****                                    tag_len, tag ) );
1057:/home/xingli/share/LiteOS_Lab/network/dtls/mbedtls/mbedtls-2.16.2/library/cipher.c ****     }
1058:/home/xingli/share/LiteOS_Lab/network/dtls/mbedtls/mbedtls-2.16.2/library/cipher.c **** #endif /* MBEDTLS_GCM_C */
1059:/home/xingli/share/LiteOS_Lab/network/dtls/mbedtls/mbedtls-2.16.2/library/cipher.c **** #if defined(MBEDTLS_CCM_C)
1060:/home/xingli/share/LiteOS_Lab/network/dtls/mbedtls/mbedtls-2.16.2/library/cipher.c ****     if( MBEDTLS_MODE_CCM == ctx->cipher_info->mode )
1061:/home/xingli/share/LiteOS_Lab/network/dtls/mbedtls/mbedtls-2.16.2/library/cipher.c ****     {
1062:/home/xingli/share/LiteOS_Lab/network/dtls/mbedtls/mbedtls-2.16.2/library/cipher.c ****         *olen = ilen;
1063:/home/xingli/share/LiteOS_Lab/network/dtls/mbedtls/mbedtls-2.16.2/library/cipher.c ****         return( mbedtls_ccm_encrypt_and_tag( ctx->cipher_ctx, ilen,
1064:/home/xingli/share/LiteOS_Lab/network/dtls/mbedtls/mbedtls-2.16.2/library/cipher.c ****                                      iv, iv_len, ad, ad_len, input, output,
1065:/home/xingli/share/LiteOS_Lab/network/dtls/mbedtls/mbedtls-2.16.2/library/cipher.c ****                                      tag, tag_len ) );
1066:/home/xingli/share/LiteOS_Lab/network/dtls/mbedtls/mbedtls-2.16.2/library/cipher.c ****     }
1067:/home/xingli/share/LiteOS_Lab/network/dtls/mbedtls/mbedtls-2.16.2/library/cipher.c **** #endif /* MBEDTLS_CCM_C */
1068:/home/xingli/share/LiteOS_Lab/network/dtls/mbedtls/mbedtls-2.16.2/library/cipher.c **** #if defined(MBEDTLS_CHACHAPOLY_C)
1069:/home/xingli/share/LiteOS_Lab/network/dtls/mbedtls/mbedtls-2.16.2/library/cipher.c ****     if ( MBEDTLS_CIPHER_CHACHA20_POLY1305 == ctx->cipher_info->type )
1070:/home/xingli/share/LiteOS_Lab/network/dtls/mbedtls/mbedtls-2.16.2/library/cipher.c ****     {
1071:/home/xingli/share/LiteOS_Lab/network/dtls/mbedtls/mbedtls-2.16.2/library/cipher.c ****         /* ChachaPoly has fixed length nonce and MAC (tag) */
1072:/home/xingli/share/LiteOS_Lab/network/dtls/mbedtls/mbedtls-2.16.2/library/cipher.c ****         if ( ( iv_len != ctx->cipher_info->iv_size ) ||
1073:/home/xingli/share/LiteOS_Lab/network/dtls/mbedtls/mbedtls-2.16.2/library/cipher.c ****              ( tag_len != 16U ) )
1074:/home/xingli/share/LiteOS_Lab/network/dtls/mbedtls/mbedtls-2.16.2/library/cipher.c ****         {
1075:/home/xingli/share/LiteOS_Lab/network/dtls/mbedtls/mbedtls-2.16.2/library/cipher.c ****             return( MBEDTLS_ERR_CIPHER_BAD_INPUT_DATA );
1076:/home/xingli/share/LiteOS_Lab/network/dtls/mbedtls/mbedtls-2.16.2/library/cipher.c ****         }
1077:/home/xingli/share/LiteOS_Lab/network/dtls/mbedtls/mbedtls-2.16.2/library/cipher.c **** 
1078:/home/xingli/share/LiteOS_Lab/network/dtls/mbedtls/mbedtls-2.16.2/library/cipher.c ****         *olen = ilen;
1079:/home/xingli/share/LiteOS_Lab/network/dtls/mbedtls/mbedtls-2.16.2/library/cipher.c ****         return( mbedtls_chachapoly_encrypt_and_tag( ctx->cipher_ctx,
1080:/home/xingli/share/LiteOS_Lab/network/dtls/mbedtls/mbedtls-2.16.2/library/cipher.c ****                                 ilen, iv, ad, ad_len, input, output, tag ) );
1081:/home/xingli/share/LiteOS_Lab/network/dtls/mbedtls/mbedtls-2.16.2/library/cipher.c ****     }
1082:/home/xingli/share/LiteOS_Lab/network/dtls/mbedtls/mbedtls-2.16.2/library/cipher.c **** #endif /* MBEDTLS_CHACHAPOLY_C */
1083:/home/xingli/share/LiteOS_Lab/network/dtls/mbedtls/mbedtls-2.16.2/library/cipher.c **** 
1084:/home/xingli/share/LiteOS_Lab/network/dtls/mbedtls/mbedtls-2.16.2/library/cipher.c ****     return( MBEDTLS_ERR_CIPHER_FEATURE_UNAVAILABLE );
 3156              		.loc 2 1084 11
GAS LISTING /tmp/ccaq2TqD.s 			page 90


 3157 00b9 B8809FFF 		movl	$-24704, %eax
 3157      FF
 3158              	.L213:
1085:/home/xingli/share/LiteOS_Lab/network/dtls/mbedtls/mbedtls-2.16.2/library/cipher.c **** }
 3159              		.loc 2 1085 1
 3160 00be 488B4DF8 		movq	-8(%rbp), %rcx
 3161 00c2 6448330C 		xorq	%fs:40, %rcx
 3161      25280000 
 3161      00
 3162 00cb 7405     		je	.L214
 3163 00cd E8000000 		call	__stack_chk_fail@PLT
 3163      00
 3164              	.L214:
 3165 00d2 C9       		leave
 3166              	.LCFI89:
 3167              		.cfi_def_cfa 7, 8
 3168 00d3 C3       		ret
 3169              		.cfi_endproc
 3170              	.LFE40:
 3172              		.section	.text.mbedtls_cipher_auth_decrypt,"ax",@progbits
 3173              		.globl	mbedtls_cipher_auth_decrypt
 3175              	mbedtls_cipher_auth_decrypt:
 3176              	.LFB41:
1086:/home/xingli/share/LiteOS_Lab/network/dtls/mbedtls/mbedtls-2.16.2/library/cipher.c **** 
1087:/home/xingli/share/LiteOS_Lab/network/dtls/mbedtls/mbedtls-2.16.2/library/cipher.c **** /*
1088:/home/xingli/share/LiteOS_Lab/network/dtls/mbedtls/mbedtls-2.16.2/library/cipher.c ****  * Packet-oriented decryption for AEAD modes
1089:/home/xingli/share/LiteOS_Lab/network/dtls/mbedtls/mbedtls-2.16.2/library/cipher.c ****  */
1090:/home/xingli/share/LiteOS_Lab/network/dtls/mbedtls/mbedtls-2.16.2/library/cipher.c **** int mbedtls_cipher_auth_decrypt( mbedtls_cipher_context_t *ctx,
1091:/home/xingli/share/LiteOS_Lab/network/dtls/mbedtls/mbedtls-2.16.2/library/cipher.c ****                          const unsigned char *iv, size_t iv_len,
1092:/home/xingli/share/LiteOS_Lab/network/dtls/mbedtls/mbedtls-2.16.2/library/cipher.c ****                          const unsigned char *ad, size_t ad_len,
1093:/home/xingli/share/LiteOS_Lab/network/dtls/mbedtls/mbedtls-2.16.2/library/cipher.c ****                          const unsigned char *input, size_t ilen,
1094:/home/xingli/share/LiteOS_Lab/network/dtls/mbedtls/mbedtls-2.16.2/library/cipher.c ****                          unsigned char *output, size_t *olen,
1095:/home/xingli/share/LiteOS_Lab/network/dtls/mbedtls/mbedtls-2.16.2/library/cipher.c ****                          const unsigned char *tag, size_t tag_len )
1096:/home/xingli/share/LiteOS_Lab/network/dtls/mbedtls/mbedtls-2.16.2/library/cipher.c **** {
 3177              		.loc 2 1096 1
 3178              		.cfi_startproc
 3179 0000 F30F1EFA 		endbr64
 3180 0004 55       		pushq	%rbp
 3181              	.LCFI90:
 3182              		.cfi_def_cfa_offset 16
 3183              		.cfi_offset 6, -16
 3184 0005 4889E5   		movq	%rsp, %rbp
 3185              	.LCFI91:
 3186              		.cfi_def_cfa_register 6
 3187 0008 4883EC70 		subq	$112, %rsp
 3188 000c 48897DE8 		movq	%rdi, -24(%rbp)
 3189 0010 488975E0 		movq	%rsi, -32(%rbp)
 3190 0014 488955D8 		movq	%rdx, -40(%rbp)
 3191 0018 48894DD0 		movq	%rcx, -48(%rbp)
 3192 001c 4C8945C8 		movq	%r8, -56(%rbp)
 3193 0020 4C894DC0 		movq	%r9, -64(%rbp)
 3194 0024 488B4510 		movq	16(%rbp), %rax
 3195 0028 488945B8 		movq	%rax, -72(%rbp)
 3196 002c 488B4518 		movq	24(%rbp), %rax
 3197 0030 488945B0 		movq	%rax, -80(%rbp)
 3198 0034 488B4520 		movq	32(%rbp), %rax
 3199 0038 488945A8 		movq	%rax, -88(%rbp)
GAS LISTING /tmp/ccaq2TqD.s 			page 91


 3200 003c 488B4528 		movq	40(%rbp), %rax
 3201 0040 488945A0 		movq	%rax, -96(%rbp)
 3202 0044 488B4530 		movq	48(%rbp), %rax
 3203 0048 48894598 		movq	%rax, -104(%rbp)
 3204              		.loc 2 1096 1
 3205 004c 64488B04 		movq	%fs:40, %rax
 3205      25280000 
 3205      00
 3206 0055 488945F8 		movq	%rax, -8(%rbp)
 3207 0059 31C0     		xorl	%eax, %eax
1097:/home/xingli/share/LiteOS_Lab/network/dtls/mbedtls/mbedtls-2.16.2/library/cipher.c ****     CIPHER_VALIDATE_RET( ctx != NULL );
1098:/home/xingli/share/LiteOS_Lab/network/dtls/mbedtls/mbedtls-2.16.2/library/cipher.c ****     CIPHER_VALIDATE_RET( iv != NULL );
1099:/home/xingli/share/LiteOS_Lab/network/dtls/mbedtls/mbedtls-2.16.2/library/cipher.c ****     CIPHER_VALIDATE_RET( ad_len == 0 || ad != NULL );
1100:/home/xingli/share/LiteOS_Lab/network/dtls/mbedtls/mbedtls-2.16.2/library/cipher.c ****     CIPHER_VALIDATE_RET( ilen == 0 || input != NULL );
1101:/home/xingli/share/LiteOS_Lab/network/dtls/mbedtls/mbedtls-2.16.2/library/cipher.c ****     CIPHER_VALIDATE_RET( output != NULL );
1102:/home/xingli/share/LiteOS_Lab/network/dtls/mbedtls/mbedtls-2.16.2/library/cipher.c ****     CIPHER_VALIDATE_RET( olen != NULL );
1103:/home/xingli/share/LiteOS_Lab/network/dtls/mbedtls/mbedtls-2.16.2/library/cipher.c ****     CIPHER_VALIDATE_RET( tag_len == 0 || tag != NULL );
1104:/home/xingli/share/LiteOS_Lab/network/dtls/mbedtls/mbedtls-2.16.2/library/cipher.c **** 
1105:/home/xingli/share/LiteOS_Lab/network/dtls/mbedtls/mbedtls-2.16.2/library/cipher.c **** #if defined(MBEDTLS_GCM_C)
1106:/home/xingli/share/LiteOS_Lab/network/dtls/mbedtls/mbedtls-2.16.2/library/cipher.c ****     if( MBEDTLS_MODE_GCM == ctx->cipher_info->mode )
 3208              		.loc 2 1106 32
 3209 005b 488B45E8 		movq	-24(%rbp), %rax
 3210 005f 488B00   		movq	(%rax), %rax
 3211              		.loc 2 1106 45
 3212 0062 8B4004   		movl	4(%rax), %eax
 3213              		.loc 2 1106 7
 3214 0065 83F806   		cmpl	$6, %eax
 3215 0068 755A     		jne	.L216
 3216              	.LBB4:
1107:/home/xingli/share/LiteOS_Lab/network/dtls/mbedtls/mbedtls-2.16.2/library/cipher.c ****     {
1108:/home/xingli/share/LiteOS_Lab/network/dtls/mbedtls/mbedtls-2.16.2/library/cipher.c ****         int ret;
1109:/home/xingli/share/LiteOS_Lab/network/dtls/mbedtls/mbedtls-2.16.2/library/cipher.c **** 
1110:/home/xingli/share/LiteOS_Lab/network/dtls/mbedtls/mbedtls-2.16.2/library/cipher.c ****         *olen = ilen;
 3217              		.loc 2 1110 15
 3218 006a 488B45A8 		movq	-88(%rbp), %rax
 3219 006e 488B55B8 		movq	-72(%rbp), %rdx
 3220 0072 488910   		movq	%rdx, (%rax)
1111:/home/xingli/share/LiteOS_Lab/network/dtls/mbedtls/mbedtls-2.16.2/library/cipher.c ****         ret = mbedtls_gcm_auth_decrypt( ctx->cipher_ctx, ilen,
 3221              		.loc 2 1111 44
 3222 0075 488B45E8 		movq	-24(%rbp), %rax
 3223 0079 488B4050 		movq	80(%rax), %rax
 3224              		.loc 2 1111 15
 3225 007d 4C8B45C8 		movq	-56(%rbp), %r8
 3226 0081 488B7DD0 		movq	-48(%rbp), %rdi
 3227 0085 488B4DD8 		movq	-40(%rbp), %rcx
 3228 0089 488B55E0 		movq	-32(%rbp), %rdx
 3229 008d 488B75B8 		movq	-72(%rbp), %rsi
 3230 0091 FF75B0   		pushq	-80(%rbp)
 3231 0094 FF75C0   		pushq	-64(%rbp)
 3232 0097 FF7598   		pushq	-104(%rbp)
 3233 009a FF75A0   		pushq	-96(%rbp)
 3234 009d 4D89C1   		movq	%r8, %r9
 3235 00a0 4989F8   		movq	%rdi, %r8
 3236 00a3 4889C7   		movq	%rax, %rdi
 3237 00a6 E8000000 		call	mbedtls_gcm_auth_decrypt@PLT
 3237      00
 3238 00ab 4883C420 		addq	$32, %rsp
GAS LISTING /tmp/ccaq2TqD.s 			page 92


 3239 00af 8945F4   		movl	%eax, -12(%rbp)
1112:/home/xingli/share/LiteOS_Lab/network/dtls/mbedtls/mbedtls-2.16.2/library/cipher.c ****                                 iv, iv_len, ad, ad_len,
1113:/home/xingli/share/LiteOS_Lab/network/dtls/mbedtls/mbedtls-2.16.2/library/cipher.c ****                                 tag, tag_len, input, output );
1114:/home/xingli/share/LiteOS_Lab/network/dtls/mbedtls/mbedtls-2.16.2/library/cipher.c **** 
1115:/home/xingli/share/LiteOS_Lab/network/dtls/mbedtls/mbedtls-2.16.2/library/cipher.c ****         if( ret == MBEDTLS_ERR_GCM_AUTH_FAILED )
 3240              		.loc 2 1115 11
 3241 00b2 837DF4EE 		cmpl	$-18, -12(%rbp)
 3242 00b6 7507     		jne	.L217
1116:/home/xingli/share/LiteOS_Lab/network/dtls/mbedtls/mbedtls-2.16.2/library/cipher.c ****             ret = MBEDTLS_ERR_CIPHER_AUTH_FAILED;
 3243              		.loc 2 1116 17
 3244 00b8 C745F400 		movl	$-25344, -12(%rbp)
 3244      9DFFFF
 3245              	.L217:
1117:/home/xingli/share/LiteOS_Lab/network/dtls/mbedtls/mbedtls-2.16.2/library/cipher.c **** 
1118:/home/xingli/share/LiteOS_Lab/network/dtls/mbedtls/mbedtls-2.16.2/library/cipher.c ****         return( ret );
 3246              		.loc 2 1118 15
 3247 00bf 8B45F4   		movl	-12(%rbp), %eax
 3248 00c2 EB05     		jmp	.L218
 3249              	.L216:
 3250              	.LBE4:
1119:/home/xingli/share/LiteOS_Lab/network/dtls/mbedtls/mbedtls-2.16.2/library/cipher.c ****     }
1120:/home/xingli/share/LiteOS_Lab/network/dtls/mbedtls/mbedtls-2.16.2/library/cipher.c **** #endif /* MBEDTLS_GCM_C */
1121:/home/xingli/share/LiteOS_Lab/network/dtls/mbedtls/mbedtls-2.16.2/library/cipher.c **** #if defined(MBEDTLS_CCM_C)
1122:/home/xingli/share/LiteOS_Lab/network/dtls/mbedtls/mbedtls-2.16.2/library/cipher.c ****     if( MBEDTLS_MODE_CCM == ctx->cipher_info->mode )
1123:/home/xingli/share/LiteOS_Lab/network/dtls/mbedtls/mbedtls-2.16.2/library/cipher.c ****     {
1124:/home/xingli/share/LiteOS_Lab/network/dtls/mbedtls/mbedtls-2.16.2/library/cipher.c ****         int ret;
1125:/home/xingli/share/LiteOS_Lab/network/dtls/mbedtls/mbedtls-2.16.2/library/cipher.c **** 
1126:/home/xingli/share/LiteOS_Lab/network/dtls/mbedtls/mbedtls-2.16.2/library/cipher.c ****         *olen = ilen;
1127:/home/xingli/share/LiteOS_Lab/network/dtls/mbedtls/mbedtls-2.16.2/library/cipher.c ****         ret = mbedtls_ccm_auth_decrypt( ctx->cipher_ctx, ilen,
1128:/home/xingli/share/LiteOS_Lab/network/dtls/mbedtls/mbedtls-2.16.2/library/cipher.c ****                                 iv, iv_len, ad, ad_len,
1129:/home/xingli/share/LiteOS_Lab/network/dtls/mbedtls/mbedtls-2.16.2/library/cipher.c ****                                 input, output, tag, tag_len );
1130:/home/xingli/share/LiteOS_Lab/network/dtls/mbedtls/mbedtls-2.16.2/library/cipher.c **** 
1131:/home/xingli/share/LiteOS_Lab/network/dtls/mbedtls/mbedtls-2.16.2/library/cipher.c ****         if( ret == MBEDTLS_ERR_CCM_AUTH_FAILED )
1132:/home/xingli/share/LiteOS_Lab/network/dtls/mbedtls/mbedtls-2.16.2/library/cipher.c ****             ret = MBEDTLS_ERR_CIPHER_AUTH_FAILED;
1133:/home/xingli/share/LiteOS_Lab/network/dtls/mbedtls/mbedtls-2.16.2/library/cipher.c **** 
1134:/home/xingli/share/LiteOS_Lab/network/dtls/mbedtls/mbedtls-2.16.2/library/cipher.c ****         return( ret );
1135:/home/xingli/share/LiteOS_Lab/network/dtls/mbedtls/mbedtls-2.16.2/library/cipher.c ****     }
1136:/home/xingli/share/LiteOS_Lab/network/dtls/mbedtls/mbedtls-2.16.2/library/cipher.c **** #endif /* MBEDTLS_CCM_C */
1137:/home/xingli/share/LiteOS_Lab/network/dtls/mbedtls/mbedtls-2.16.2/library/cipher.c **** #if defined(MBEDTLS_CHACHAPOLY_C)
1138:/home/xingli/share/LiteOS_Lab/network/dtls/mbedtls/mbedtls-2.16.2/library/cipher.c ****     if ( MBEDTLS_CIPHER_CHACHA20_POLY1305 == ctx->cipher_info->type )
1139:/home/xingli/share/LiteOS_Lab/network/dtls/mbedtls/mbedtls-2.16.2/library/cipher.c ****     {
1140:/home/xingli/share/LiteOS_Lab/network/dtls/mbedtls/mbedtls-2.16.2/library/cipher.c ****         int ret;
1141:/home/xingli/share/LiteOS_Lab/network/dtls/mbedtls/mbedtls-2.16.2/library/cipher.c **** 
1142:/home/xingli/share/LiteOS_Lab/network/dtls/mbedtls/mbedtls-2.16.2/library/cipher.c ****         /* ChachaPoly has fixed length nonce and MAC (tag) */
1143:/home/xingli/share/LiteOS_Lab/network/dtls/mbedtls/mbedtls-2.16.2/library/cipher.c ****         if ( ( iv_len != ctx->cipher_info->iv_size ) ||
1144:/home/xingli/share/LiteOS_Lab/network/dtls/mbedtls/mbedtls-2.16.2/library/cipher.c ****              ( tag_len != 16U ) )
1145:/home/xingli/share/LiteOS_Lab/network/dtls/mbedtls/mbedtls-2.16.2/library/cipher.c ****         {
1146:/home/xingli/share/LiteOS_Lab/network/dtls/mbedtls/mbedtls-2.16.2/library/cipher.c ****             return( MBEDTLS_ERR_CIPHER_BAD_INPUT_DATA );
1147:/home/xingli/share/LiteOS_Lab/network/dtls/mbedtls/mbedtls-2.16.2/library/cipher.c ****         }
1148:/home/xingli/share/LiteOS_Lab/network/dtls/mbedtls/mbedtls-2.16.2/library/cipher.c **** 
1149:/home/xingli/share/LiteOS_Lab/network/dtls/mbedtls/mbedtls-2.16.2/library/cipher.c ****         *olen = ilen;
1150:/home/xingli/share/LiteOS_Lab/network/dtls/mbedtls/mbedtls-2.16.2/library/cipher.c ****         ret = mbedtls_chachapoly_auth_decrypt( ctx->cipher_ctx, ilen,
1151:/home/xingli/share/LiteOS_Lab/network/dtls/mbedtls/mbedtls-2.16.2/library/cipher.c ****                                 iv, ad, ad_len, tag, input, output );
1152:/home/xingli/share/LiteOS_Lab/network/dtls/mbedtls/mbedtls-2.16.2/library/cipher.c **** 
1153:/home/xingli/share/LiteOS_Lab/network/dtls/mbedtls/mbedtls-2.16.2/library/cipher.c ****         if( ret == MBEDTLS_ERR_CHACHAPOLY_AUTH_FAILED )
1154:/home/xingli/share/LiteOS_Lab/network/dtls/mbedtls/mbedtls-2.16.2/library/cipher.c ****             ret = MBEDTLS_ERR_CIPHER_AUTH_FAILED;
1155:/home/xingli/share/LiteOS_Lab/network/dtls/mbedtls/mbedtls-2.16.2/library/cipher.c **** 
GAS LISTING /tmp/ccaq2TqD.s 			page 93


1156:/home/xingli/share/LiteOS_Lab/network/dtls/mbedtls/mbedtls-2.16.2/library/cipher.c ****         return( ret );
1157:/home/xingli/share/LiteOS_Lab/network/dtls/mbedtls/mbedtls-2.16.2/library/cipher.c ****     }
1158:/home/xingli/share/LiteOS_Lab/network/dtls/mbedtls/mbedtls-2.16.2/library/cipher.c **** #endif /* MBEDTLS_CHACHAPOLY_C */
1159:/home/xingli/share/LiteOS_Lab/network/dtls/mbedtls/mbedtls-2.16.2/library/cipher.c **** 
1160:/home/xingli/share/LiteOS_Lab/network/dtls/mbedtls/mbedtls-2.16.2/library/cipher.c ****     return( MBEDTLS_ERR_CIPHER_FEATURE_UNAVAILABLE );
 3251              		.loc 2 1160 11
 3252 00c4 B8809FFF 		movl	$-24704, %eax
 3252      FF
 3253              	.L218:
1161:/home/xingli/share/LiteOS_Lab/network/dtls/mbedtls/mbedtls-2.16.2/library/cipher.c **** }
 3254              		.loc 2 1161 1
 3255 00c9 488B4DF8 		movq	-8(%rbp), %rcx
 3256 00cd 6448330C 		xorq	%fs:40, %rcx
 3256      25280000 
 3256      00
 3257 00d6 7405     		je	.L219
 3258 00d8 E8000000 		call	__stack_chk_fail@PLT
 3258      00
 3259              	.L219:
 3260 00dd C9       		leave
 3261              	.LCFI92:
 3262              		.cfi_def_cfa 7, 8
 3263 00de C3       		ret
 3264              		.cfi_endproc
 3265              	.LFE41:
 3267              		.text
 3268              	.Letext0:
 3269              		.file 3 "/usr/lib/gcc/x86_64-linux-gnu/9/include/stddef.h"
 3270              		.file 4 "/home/xingli/share/LiteOS_Lab/network/dtls/mbedtls/mbedtls-2.16.2/include/mbedtls/cipher_
 3271              		.file 5 "/usr/include/x86_64-linux-gnu/bits/types.h"
 3272              		.file 6 "/usr/include/x86_64-linux-gnu/bits/stdint-uintn.h"
 3273              		.file 7 "/home/xingli/share/LiteOS_Lab/network/dtls/mbedtls/mbedtls-2.16.2/include/mbedtls/gcm.h"
 3274              		.file 8 "/usr/include/x86_64-linux-gnu/bits/types/struct_FILE.h"
 3275              		.file 9 "/usr/include/x86_64-linux-gnu/bits/types/FILE.h"
 3276              		.file 10 "/usr/include/stdio.h"
 3277              		.file 11 "/usr/include/x86_64-linux-gnu/bits/sys_errlist.h"
 3278              		.file 12 "/usr/include/time.h"
 3279              		.file 13 "/home/xingli/share/LiteOS_Lab/network/dtls/mbedtls/mbedtls-2.16.2/include/mbedtls/platfo
 8588              		.section	.note.gnu.property,"a"
 8589              		.align 8
 8590 0000 04000000 		.long	 1f - 0f
 8591 0004 10000000 		.long	 4f - 1f
 8592 0008 05000000 		.long	 5
 8593              	0:
 8594 000c 474E5500 		.string	 "GNU"
 8595              	1:
 8596              		.align 8
 8597 0010 020000C0 		.long	 0xc0000002
 8598 0014 04000000 		.long	 3f - 2f
 8599              	2:
 8600 0018 03000000 		.long	 0x3
 8601              	3:
 8602 001c 00000000 		.align 8
 8603              	4:
GAS LISTING /tmp/ccaq2TqD.s 			page 94


DEFINED SYMBOLS
                            *ABS*:0000000000000000 cipher.c
     /tmp/ccaq2TqD.s:6      .text.mbedtls_cipher_get_block_size:0000000000000000 mbedtls_cipher_get_block_size
     /tmp/ccaq2TqD.s:55     .text.mbedtls_cipher_get_iv_size:0000000000000000 mbedtls_cipher_get_iv_size
     /tmp/ccaq2TqD.s:115    .text.mbedtls_constant_time_memcmp:0000000000000000 mbedtls_constant_time_memcmp
     /tmp/ccaq2TqD.s:188    .bss.supported_init:0000000000000000 supported_init
     /tmp/ccaq2TqD.s:193    .text.mbedtls_cipher_list:0000000000000000 mbedtls_cipher_list
     /tmp/ccaq2TqD.s:269    .text.mbedtls_cipher_info_from_type:0000000000000000 mbedtls_cipher_info_from_type
     /tmp/ccaq2TqD.s:332    .text.mbedtls_cipher_info_from_string:0000000000000000 mbedtls_cipher_info_from_string
     /tmp/ccaq2TqD.s:408    .text.mbedtls_cipher_info_from_values:0000000000000000 mbedtls_cipher_info_from_values
     /tmp/ccaq2TqD.s:495    .text.mbedtls_cipher_init:0000000000000000 mbedtls_cipher_init
     /tmp/ccaq2TqD.s:536    .text.mbedtls_cipher_free:0000000000000000 mbedtls_cipher_free
     /tmp/ccaq2TqD.s:603    .text.mbedtls_cipher_setup:0000000000000000 mbedtls_cipher_setup
     /tmp/ccaq2TqD.s:2650   .text.mbedtls_cipher_set_padding_mode:0000000000000000 mbedtls_cipher_set_padding_mode
     /tmp/ccaq2TqD.s:684    .text.mbedtls_cipher_setkey:0000000000000000 mbedtls_cipher_setkey
     /tmp/ccaq2TqD.s:837    .text.mbedtls_cipher_set_iv:0000000000000000 mbedtls_cipher_set_iv
     /tmp/ccaq2TqD.s:941    .text.mbedtls_cipher_reset:0000000000000000 mbedtls_cipher_reset
     /tmp/ccaq2TqD.s:991    .text.mbedtls_cipher_update_ad:0000000000000000 mbedtls_cipher_update_ad
     /tmp/ccaq2TqD.s:1071   .text.mbedtls_cipher_update:0000000000000000 mbedtls_cipher_update
     /tmp/ccaq2TqD.s:1517   .text.add_pkcs_padding:0000000000000000 add_pkcs_padding
     /tmp/ccaq2TqD.s:1583   .text.get_pkcs_padding:0000000000000000 get_pkcs_padding
     /tmp/ccaq2TqD.s:1713   .text.add_one_and_zeros_padding:0000000000000000 add_one_and_zeros_padding
     /tmp/ccaq2TqD.s:1785   .text.get_one_and_zeros_padding:0000000000000000 get_one_and_zeros_padding
     /tmp/ccaq2TqD.s:1914   .text.add_zeros_and_len_padding:0000000000000000 add_zeros_and_len_padding
     /tmp/ccaq2TqD.s:1990   .text.get_zeros_and_len_padding:0000000000000000 get_zeros_and_len_padding
     /tmp/ccaq2TqD.s:2120   .text.add_zeros_padding:0000000000000000 add_zeros_padding
     /tmp/ccaq2TqD.s:2175   .text.get_zeros_padding:0000000000000000 get_zeros_padding
     /tmp/ccaq2TqD.s:2272   .text.get_no_padding:0000000000000000 get_no_padding
     /tmp/ccaq2TqD.s:2326   .text.mbedtls_cipher_finish:0000000000000000 mbedtls_cipher_finish
     /tmp/ccaq2TqD.s:2786   .text.mbedtls_cipher_write_tag:0000000000000000 mbedtls_cipher_write_tag
     /tmp/ccaq2TqD.s:2864   .text.mbedtls_cipher_check_tag:0000000000000000 mbedtls_cipher_check_tag
     /tmp/ccaq2TqD.s:2974   .text.mbedtls_cipher_crypt:0000000000000000 mbedtls_cipher_crypt
     /tmp/ccaq2TqD.s:3089   .text.mbedtls_cipher_auth_encrypt:0000000000000000 mbedtls_cipher_auth_encrypt
     /tmp/ccaq2TqD.s:3175   .text.mbedtls_cipher_auth_decrypt:0000000000000000 mbedtls_cipher_auth_decrypt

UNDEFINED SYMBOLS
_GLOBAL_OFFSET_TABLE_
__stack_chk_fail
mbedtls_cipher_definitions
mbedtls_cipher_supported
strcmp
memset
mbedtls_platform_zeroize
memcpy
mbedtls_gcm_starts
mbedtls_gcm_update
mbedtls_gcm_finish
mbedtls_gcm_crypt_and_tag
mbedtls_gcm_auth_decrypt
