GAS LISTING /tmp/ccajKZL5.s 			page 1


   1              		.file	"ecp.c"
   2              		.text
   3              	.Ltext0:
   4              		.section	.rodata
   5              	.LC0:
   6 0000 73656370 		.string	"secp521r1"
   6      35323172 
   6      3100
   7              	.LC1:
   8 000a 73656370 		.string	"secp384r1"
   8      33383472 
   8      3100
   9              	.LC2:
  10 0014 73656370 		.string	"secp256r1"
  10      32353672 
  10      3100
  11              	.LC3:
  12 001e 73656370 		.string	"secp256k1"
  12      3235366B 
  12      3100
  13              	.LC4:
  14 0028 73656370 		.string	"secp224r1"
  14      32323472 
  14      3100
  15              	.LC5:
  16 0032 73656370 		.string	"secp224k1"
  16      3232346B 
  16      3100
  17              	.LC6:
  18 003c 73656370 		.string	"secp192r1"
  18      31393272 
  18      3100
  19              	.LC7:
  20 0046 73656370 		.string	"secp192k1"
  20      3139326B 
  20      3100
  21              		.section	.data.rel.ro.local.ecp_supported_curves,"aw"
  22              		.align 32
  25              	ecp_supported_curves:
  26 0000 05000000 		.long	5
  29 0008 00000000 		.quad	.LC0
  29      00000000 
  30 0010 04000000 		.long	4
  33 0018 00000000 		.quad	.LC1
  33      00000000 
  34 0020 03000000 		.long	3
  37 0028 00000000 		.quad	.LC2
  37      00000000 
  38 0030 0C000000 		.long	12
  41 0038 00000000 		.quad	.LC3
  41      00000000 
  42 0040 02000000 		.long	2
  45 0048 00000000 		.quad	.LC4
  45      00000000 
  46 0050 0B000000 		.long	11
  49 0058 00000000 		.quad	.LC5
  49      00000000 
GAS LISTING /tmp/ccajKZL5.s 			page 2


  50 0060 01000000 		.long	1
  53 0068 00000000 		.quad	.LC6
  53      00000000 
  54 0070 0A000000 		.long	10
  57 0078 00000000 		.quad	.LC7
  57      00000000 
  58 0080 00000000 		.long	0
  61 0088 00000000 		.quad	0
  61      00000000 
  62              		.section	.bss.ecp_supported_grp_id,"aw",@nobits
  63              		.align 32
  66              	ecp_supported_grp_id:
  67 0000 00000000 		.zero	36
  67      00000000 
  67      00000000 
  67      00000000 
  67      00000000 
  68              		.section	.text.mbedtls_ecp_curve_list,"ax",@progbits
  69              		.globl	mbedtls_ecp_curve_list
  71              	mbedtls_ecp_curve_list:
  72              	.LFB6:
  73              		.file 1 "/home/xingli/share/LiteOS_Lab/network/dtls/mbedtls/mbedtls-2.16.2/library/ecp.c"
   1:/home/xingli/share/LiteOS_Lab/network/dtls/mbedtls/mbedtls-2.16.2/library/ecp.c **** /*
   2:/home/xingli/share/LiteOS_Lab/network/dtls/mbedtls/mbedtls-2.16.2/library/ecp.c ****  *  Elliptic curves over GF(p): generic functions
   3:/home/xingli/share/LiteOS_Lab/network/dtls/mbedtls/mbedtls-2.16.2/library/ecp.c ****  *
   4:/home/xingli/share/LiteOS_Lab/network/dtls/mbedtls/mbedtls-2.16.2/library/ecp.c ****  *  Copyright (C) 2006-2015, ARM Limited, All Rights Reserved
   5:/home/xingli/share/LiteOS_Lab/network/dtls/mbedtls/mbedtls-2.16.2/library/ecp.c ****  *  SPDX-License-Identifier: Apache-2.0
   6:/home/xingli/share/LiteOS_Lab/network/dtls/mbedtls/mbedtls-2.16.2/library/ecp.c ****  *
   7:/home/xingli/share/LiteOS_Lab/network/dtls/mbedtls/mbedtls-2.16.2/library/ecp.c ****  *  Licensed under the Apache License, Version 2.0 (the "License"); you may
   8:/home/xingli/share/LiteOS_Lab/network/dtls/mbedtls/mbedtls-2.16.2/library/ecp.c ****  *  not use this file except in compliance with the License.
   9:/home/xingli/share/LiteOS_Lab/network/dtls/mbedtls/mbedtls-2.16.2/library/ecp.c ****  *  You may obtain a copy of the License at
  10:/home/xingli/share/LiteOS_Lab/network/dtls/mbedtls/mbedtls-2.16.2/library/ecp.c ****  *
  11:/home/xingli/share/LiteOS_Lab/network/dtls/mbedtls/mbedtls-2.16.2/library/ecp.c ****  *  http://www.apache.org/licenses/LICENSE-2.0
  12:/home/xingli/share/LiteOS_Lab/network/dtls/mbedtls/mbedtls-2.16.2/library/ecp.c ****  *
  13:/home/xingli/share/LiteOS_Lab/network/dtls/mbedtls/mbedtls-2.16.2/library/ecp.c ****  *  Unless required by applicable law or agreed to in writing, software
  14:/home/xingli/share/LiteOS_Lab/network/dtls/mbedtls/mbedtls-2.16.2/library/ecp.c ****  *  distributed under the License is distributed on an "AS IS" BASIS, WITHOUT
  15:/home/xingli/share/LiteOS_Lab/network/dtls/mbedtls/mbedtls-2.16.2/library/ecp.c ****  *  WARRANTIES OR CONDITIONS OF ANY KIND, either express or implied.
  16:/home/xingli/share/LiteOS_Lab/network/dtls/mbedtls/mbedtls-2.16.2/library/ecp.c ****  *  See the License for the specific language governing permissions and
  17:/home/xingli/share/LiteOS_Lab/network/dtls/mbedtls/mbedtls-2.16.2/library/ecp.c ****  *  limitations under the License.
  18:/home/xingli/share/LiteOS_Lab/network/dtls/mbedtls/mbedtls-2.16.2/library/ecp.c ****  *
  19:/home/xingli/share/LiteOS_Lab/network/dtls/mbedtls/mbedtls-2.16.2/library/ecp.c ****  *  This file is part of mbed TLS (https://tls.mbed.org)
  20:/home/xingli/share/LiteOS_Lab/network/dtls/mbedtls/mbedtls-2.16.2/library/ecp.c ****  */
  21:/home/xingli/share/LiteOS_Lab/network/dtls/mbedtls/mbedtls-2.16.2/library/ecp.c **** 
  22:/home/xingli/share/LiteOS_Lab/network/dtls/mbedtls/mbedtls-2.16.2/library/ecp.c **** /*
  23:/home/xingli/share/LiteOS_Lab/network/dtls/mbedtls/mbedtls-2.16.2/library/ecp.c ****  * References:
  24:/home/xingli/share/LiteOS_Lab/network/dtls/mbedtls/mbedtls-2.16.2/library/ecp.c ****  *
  25:/home/xingli/share/LiteOS_Lab/network/dtls/mbedtls/mbedtls-2.16.2/library/ecp.c ****  * SEC1 http://www.secg.org/index.php?action=secg,docs_secg
  26:/home/xingli/share/LiteOS_Lab/network/dtls/mbedtls/mbedtls-2.16.2/library/ecp.c ****  * GECC = Guide to Elliptic Curve Cryptography - Hankerson, Menezes, Vanstone
  27:/home/xingli/share/LiteOS_Lab/network/dtls/mbedtls/mbedtls-2.16.2/library/ecp.c ****  * FIPS 186-3 http://csrc.nist.gov/publications/fips/fips186-3/fips_186-3.pdf
  28:/home/xingli/share/LiteOS_Lab/network/dtls/mbedtls/mbedtls-2.16.2/library/ecp.c ****  * RFC 4492 for the related TLS structures and constants
  29:/home/xingli/share/LiteOS_Lab/network/dtls/mbedtls/mbedtls-2.16.2/library/ecp.c ****  * RFC 7748 for the Curve448 and Curve25519 curve definitions
  30:/home/xingli/share/LiteOS_Lab/network/dtls/mbedtls/mbedtls-2.16.2/library/ecp.c ****  *
  31:/home/xingli/share/LiteOS_Lab/network/dtls/mbedtls/mbedtls-2.16.2/library/ecp.c ****  * [Curve25519] http://cr.yp.to/ecdh/curve25519-20060209.pdf
  32:/home/xingli/share/LiteOS_Lab/network/dtls/mbedtls/mbedtls-2.16.2/library/ecp.c ****  *
  33:/home/xingli/share/LiteOS_Lab/network/dtls/mbedtls/mbedtls-2.16.2/library/ecp.c ****  * [2] CORON, Jean-S'ebastien. Resistance against differential power analysis
  34:/home/xingli/share/LiteOS_Lab/network/dtls/mbedtls/mbedtls-2.16.2/library/ecp.c ****  *     for elliptic curve cryptosystems. In : Cryptographic Hardware and
  35:/home/xingli/share/LiteOS_Lab/network/dtls/mbedtls/mbedtls-2.16.2/library/ecp.c ****  *     Embedded Systems. Springer Berlin Heidelberg, 1999. p. 292-302.
GAS LISTING /tmp/ccajKZL5.s 			page 3


  36:/home/xingli/share/LiteOS_Lab/network/dtls/mbedtls/mbedtls-2.16.2/library/ecp.c ****  *     <http://link.springer.com/chapter/10.1007/3-540-48059-5_25>
  37:/home/xingli/share/LiteOS_Lab/network/dtls/mbedtls/mbedtls-2.16.2/library/ecp.c ****  *
  38:/home/xingli/share/LiteOS_Lab/network/dtls/mbedtls/mbedtls-2.16.2/library/ecp.c ****  * [3] HEDABOU, Mustapha, PINEL, Pierre, et B'EN'ETEAU, Lucien. A comb method to
  39:/home/xingli/share/LiteOS_Lab/network/dtls/mbedtls/mbedtls-2.16.2/library/ecp.c ****  *     render ECC resistant against Side Channel Attacks. IACR Cryptology
  40:/home/xingli/share/LiteOS_Lab/network/dtls/mbedtls/mbedtls-2.16.2/library/ecp.c ****  *     ePrint Archive, 2004, vol. 2004, p. 342.
  41:/home/xingli/share/LiteOS_Lab/network/dtls/mbedtls/mbedtls-2.16.2/library/ecp.c ****  *     <http://eprint.iacr.org/2004/342.pdf>
  42:/home/xingli/share/LiteOS_Lab/network/dtls/mbedtls/mbedtls-2.16.2/library/ecp.c ****  */
  43:/home/xingli/share/LiteOS_Lab/network/dtls/mbedtls/mbedtls-2.16.2/library/ecp.c **** 
  44:/home/xingli/share/LiteOS_Lab/network/dtls/mbedtls/mbedtls-2.16.2/library/ecp.c **** #if !defined(MBEDTLS_CONFIG_FILE)
  45:/home/xingli/share/LiteOS_Lab/network/dtls/mbedtls/mbedtls-2.16.2/library/ecp.c **** #include "mbedtls/config.h"
  46:/home/xingli/share/LiteOS_Lab/network/dtls/mbedtls/mbedtls-2.16.2/library/ecp.c **** #else
  47:/home/xingli/share/LiteOS_Lab/network/dtls/mbedtls/mbedtls-2.16.2/library/ecp.c **** #include MBEDTLS_CONFIG_FILE
  48:/home/xingli/share/LiteOS_Lab/network/dtls/mbedtls/mbedtls-2.16.2/library/ecp.c **** #endif
  49:/home/xingli/share/LiteOS_Lab/network/dtls/mbedtls/mbedtls-2.16.2/library/ecp.c **** 
  50:/home/xingli/share/LiteOS_Lab/network/dtls/mbedtls/mbedtls-2.16.2/library/ecp.c **** /**
  51:/home/xingli/share/LiteOS_Lab/network/dtls/mbedtls/mbedtls-2.16.2/library/ecp.c ****  * \brief Function level alternative implementation.
  52:/home/xingli/share/LiteOS_Lab/network/dtls/mbedtls/mbedtls-2.16.2/library/ecp.c ****  *
  53:/home/xingli/share/LiteOS_Lab/network/dtls/mbedtls/mbedtls-2.16.2/library/ecp.c ****  * The MBEDTLS_ECP_INTERNAL_ALT macro enables alternative implementations to
  54:/home/xingli/share/LiteOS_Lab/network/dtls/mbedtls/mbedtls-2.16.2/library/ecp.c ****  * replace certain functions in this module. The alternative implementations are
  55:/home/xingli/share/LiteOS_Lab/network/dtls/mbedtls/mbedtls-2.16.2/library/ecp.c ****  * typically hardware accelerators and need to activate the hardware before the
  56:/home/xingli/share/LiteOS_Lab/network/dtls/mbedtls/mbedtls-2.16.2/library/ecp.c ****  * computation starts and deactivate it after it finishes. The
  57:/home/xingli/share/LiteOS_Lab/network/dtls/mbedtls/mbedtls-2.16.2/library/ecp.c ****  * mbedtls_internal_ecp_init() and mbedtls_internal_ecp_free() functions serve
  58:/home/xingli/share/LiteOS_Lab/network/dtls/mbedtls/mbedtls-2.16.2/library/ecp.c ****  * this purpose.
  59:/home/xingli/share/LiteOS_Lab/network/dtls/mbedtls/mbedtls-2.16.2/library/ecp.c ****  *
  60:/home/xingli/share/LiteOS_Lab/network/dtls/mbedtls/mbedtls-2.16.2/library/ecp.c ****  * To preserve the correct functionality the following conditions must hold:
  61:/home/xingli/share/LiteOS_Lab/network/dtls/mbedtls/mbedtls-2.16.2/library/ecp.c ****  *
  62:/home/xingli/share/LiteOS_Lab/network/dtls/mbedtls/mbedtls-2.16.2/library/ecp.c ****  * - The alternative implementation must be activated by
  63:/home/xingli/share/LiteOS_Lab/network/dtls/mbedtls/mbedtls-2.16.2/library/ecp.c ****  *   mbedtls_internal_ecp_init() before any of the replaceable functions is
  64:/home/xingli/share/LiteOS_Lab/network/dtls/mbedtls/mbedtls-2.16.2/library/ecp.c ****  *   called.
  65:/home/xingli/share/LiteOS_Lab/network/dtls/mbedtls/mbedtls-2.16.2/library/ecp.c ****  * - mbedtls_internal_ecp_free() must \b only be called when the alternative
  66:/home/xingli/share/LiteOS_Lab/network/dtls/mbedtls/mbedtls-2.16.2/library/ecp.c ****  *   implementation is activated.
  67:/home/xingli/share/LiteOS_Lab/network/dtls/mbedtls/mbedtls-2.16.2/library/ecp.c ****  * - mbedtls_internal_ecp_init() must \b not be called when the alternative
  68:/home/xingli/share/LiteOS_Lab/network/dtls/mbedtls/mbedtls-2.16.2/library/ecp.c ****  *   implementation is activated.
  69:/home/xingli/share/LiteOS_Lab/network/dtls/mbedtls/mbedtls-2.16.2/library/ecp.c ****  * - Public functions must not return while the alternative implementation is
  70:/home/xingli/share/LiteOS_Lab/network/dtls/mbedtls/mbedtls-2.16.2/library/ecp.c ****  *   activated.
  71:/home/xingli/share/LiteOS_Lab/network/dtls/mbedtls/mbedtls-2.16.2/library/ecp.c ****  * - Replaceable functions are guarded by \c MBEDTLS_ECP_XXX_ALT macros and
  72:/home/xingli/share/LiteOS_Lab/network/dtls/mbedtls/mbedtls-2.16.2/library/ecp.c ****  *   before calling them an \code if( mbedtls_internal_ecp_grp_capable( grp ) )
  73:/home/xingli/share/LiteOS_Lab/network/dtls/mbedtls/mbedtls-2.16.2/library/ecp.c ****  *   \endcode ensures that the alternative implementation supports the current
  74:/home/xingli/share/LiteOS_Lab/network/dtls/mbedtls/mbedtls-2.16.2/library/ecp.c ****  *   group.
  75:/home/xingli/share/LiteOS_Lab/network/dtls/mbedtls/mbedtls-2.16.2/library/ecp.c ****  */
  76:/home/xingli/share/LiteOS_Lab/network/dtls/mbedtls/mbedtls-2.16.2/library/ecp.c **** #if defined(MBEDTLS_ECP_INTERNAL_ALT)
  77:/home/xingli/share/LiteOS_Lab/network/dtls/mbedtls/mbedtls-2.16.2/library/ecp.c **** #endif
  78:/home/xingli/share/LiteOS_Lab/network/dtls/mbedtls/mbedtls-2.16.2/library/ecp.c **** 
  79:/home/xingli/share/LiteOS_Lab/network/dtls/mbedtls/mbedtls-2.16.2/library/ecp.c **** #if defined(MBEDTLS_ECP_C)
  80:/home/xingli/share/LiteOS_Lab/network/dtls/mbedtls/mbedtls-2.16.2/library/ecp.c **** 
  81:/home/xingli/share/LiteOS_Lab/network/dtls/mbedtls/mbedtls-2.16.2/library/ecp.c **** #include "mbedtls/ecp.h"
  82:/home/xingli/share/LiteOS_Lab/network/dtls/mbedtls/mbedtls-2.16.2/library/ecp.c **** #include "mbedtls/threading.h"
  83:/home/xingli/share/LiteOS_Lab/network/dtls/mbedtls/mbedtls-2.16.2/library/ecp.c **** #include "mbedtls/platform_util.h"
  84:/home/xingli/share/LiteOS_Lab/network/dtls/mbedtls/mbedtls-2.16.2/library/ecp.c **** 
  85:/home/xingli/share/LiteOS_Lab/network/dtls/mbedtls/mbedtls-2.16.2/library/ecp.c **** #include <string.h>
  86:/home/xingli/share/LiteOS_Lab/network/dtls/mbedtls/mbedtls-2.16.2/library/ecp.c **** 
  87:/home/xingli/share/LiteOS_Lab/network/dtls/mbedtls/mbedtls-2.16.2/library/ecp.c **** #if !defined(MBEDTLS_ECP_ALT)
  88:/home/xingli/share/LiteOS_Lab/network/dtls/mbedtls/mbedtls-2.16.2/library/ecp.c **** 
  89:/home/xingli/share/LiteOS_Lab/network/dtls/mbedtls/mbedtls-2.16.2/library/ecp.c **** /* Parameter validation macros based on platform_util.h */
  90:/home/xingli/share/LiteOS_Lab/network/dtls/mbedtls/mbedtls-2.16.2/library/ecp.c **** #define ECP_VALIDATE_RET( cond )    \
  91:/home/xingli/share/LiteOS_Lab/network/dtls/mbedtls/mbedtls-2.16.2/library/ecp.c ****     MBEDTLS_INTERNAL_VALIDATE_RET( cond, MBEDTLS_ERR_ECP_BAD_INPUT_DATA )
  92:/home/xingli/share/LiteOS_Lab/network/dtls/mbedtls/mbedtls-2.16.2/library/ecp.c **** #define ECP_VALIDATE( cond )        \
GAS LISTING /tmp/ccajKZL5.s 			page 4


  93:/home/xingli/share/LiteOS_Lab/network/dtls/mbedtls/mbedtls-2.16.2/library/ecp.c ****     MBEDTLS_INTERNAL_VALIDATE( cond )
  94:/home/xingli/share/LiteOS_Lab/network/dtls/mbedtls/mbedtls-2.16.2/library/ecp.c **** 
  95:/home/xingli/share/LiteOS_Lab/network/dtls/mbedtls/mbedtls-2.16.2/library/ecp.c **** #if defined(MBEDTLS_PLATFORM_C)
  96:/home/xingli/share/LiteOS_Lab/network/dtls/mbedtls/mbedtls-2.16.2/library/ecp.c **** #include "mbedtls/platform.h"
  97:/home/xingli/share/LiteOS_Lab/network/dtls/mbedtls/mbedtls-2.16.2/library/ecp.c **** #else
  98:/home/xingli/share/LiteOS_Lab/network/dtls/mbedtls/mbedtls-2.16.2/library/ecp.c **** #include <stdlib.h>
  99:/home/xingli/share/LiteOS_Lab/network/dtls/mbedtls/mbedtls-2.16.2/library/ecp.c **** #include <stdio.h>
 100:/home/xingli/share/LiteOS_Lab/network/dtls/mbedtls/mbedtls-2.16.2/library/ecp.c **** #define mbedtls_printf     printf
 101:/home/xingli/share/LiteOS_Lab/network/dtls/mbedtls/mbedtls-2.16.2/library/ecp.c **** #define mbedtls_calloc    calloc
 102:/home/xingli/share/LiteOS_Lab/network/dtls/mbedtls/mbedtls-2.16.2/library/ecp.c **** #define mbedtls_free       free
 103:/home/xingli/share/LiteOS_Lab/network/dtls/mbedtls/mbedtls-2.16.2/library/ecp.c **** #endif
 104:/home/xingli/share/LiteOS_Lab/network/dtls/mbedtls/mbedtls-2.16.2/library/ecp.c **** 
 105:/home/xingli/share/LiteOS_Lab/network/dtls/mbedtls/mbedtls-2.16.2/library/ecp.c **** #include "mbedtls/ecp_internal.h"
 106:/home/xingli/share/LiteOS_Lab/network/dtls/mbedtls/mbedtls-2.16.2/library/ecp.c **** 
 107:/home/xingli/share/LiteOS_Lab/network/dtls/mbedtls/mbedtls-2.16.2/library/ecp.c **** #if ( defined(__ARMCC_VERSION) || defined(_MSC_VER) ) && \
 108:/home/xingli/share/LiteOS_Lab/network/dtls/mbedtls/mbedtls-2.16.2/library/ecp.c ****     !defined(inline) && !defined(__cplusplus)
 109:/home/xingli/share/LiteOS_Lab/network/dtls/mbedtls/mbedtls-2.16.2/library/ecp.c **** #define inline __inline
 110:/home/xingli/share/LiteOS_Lab/network/dtls/mbedtls/mbedtls-2.16.2/library/ecp.c **** #endif
 111:/home/xingli/share/LiteOS_Lab/network/dtls/mbedtls/mbedtls-2.16.2/library/ecp.c **** 
 112:/home/xingli/share/LiteOS_Lab/network/dtls/mbedtls/mbedtls-2.16.2/library/ecp.c **** #if defined(MBEDTLS_SELF_TEST)
 113:/home/xingli/share/LiteOS_Lab/network/dtls/mbedtls/mbedtls-2.16.2/library/ecp.c **** /*
 114:/home/xingli/share/LiteOS_Lab/network/dtls/mbedtls/mbedtls-2.16.2/library/ecp.c ****  * Counts of point addition and doubling, and field multiplications.
 115:/home/xingli/share/LiteOS_Lab/network/dtls/mbedtls/mbedtls-2.16.2/library/ecp.c ****  * Used to test resistance of point multiplication to simple timing attacks.
 116:/home/xingli/share/LiteOS_Lab/network/dtls/mbedtls/mbedtls-2.16.2/library/ecp.c ****  */
 117:/home/xingli/share/LiteOS_Lab/network/dtls/mbedtls/mbedtls-2.16.2/library/ecp.c **** static unsigned long add_count, dbl_count, mul_count;
 118:/home/xingli/share/LiteOS_Lab/network/dtls/mbedtls/mbedtls-2.16.2/library/ecp.c **** #endif
 119:/home/xingli/share/LiteOS_Lab/network/dtls/mbedtls/mbedtls-2.16.2/library/ecp.c **** 
 120:/home/xingli/share/LiteOS_Lab/network/dtls/mbedtls/mbedtls-2.16.2/library/ecp.c **** #if defined(MBEDTLS_ECP_RESTARTABLE)
 121:/home/xingli/share/LiteOS_Lab/network/dtls/mbedtls/mbedtls-2.16.2/library/ecp.c **** /*
 122:/home/xingli/share/LiteOS_Lab/network/dtls/mbedtls/mbedtls-2.16.2/library/ecp.c ****  * Maximum number of "basic operations" to be done in a row.
 123:/home/xingli/share/LiteOS_Lab/network/dtls/mbedtls/mbedtls-2.16.2/library/ecp.c ****  *
 124:/home/xingli/share/LiteOS_Lab/network/dtls/mbedtls/mbedtls-2.16.2/library/ecp.c ****  * Default value 0 means that ECC operations will not yield.
 125:/home/xingli/share/LiteOS_Lab/network/dtls/mbedtls/mbedtls-2.16.2/library/ecp.c ****  * Note that regardless of the value of ecp_max_ops, always at
 126:/home/xingli/share/LiteOS_Lab/network/dtls/mbedtls/mbedtls-2.16.2/library/ecp.c ****  * least one step is performed before yielding.
 127:/home/xingli/share/LiteOS_Lab/network/dtls/mbedtls/mbedtls-2.16.2/library/ecp.c ****  *
 128:/home/xingli/share/LiteOS_Lab/network/dtls/mbedtls/mbedtls-2.16.2/library/ecp.c ****  * Setting ecp_max_ops=1 can be suitable for testing purposes
 129:/home/xingli/share/LiteOS_Lab/network/dtls/mbedtls/mbedtls-2.16.2/library/ecp.c ****  * as it will interrupt computation at all possible points.
 130:/home/xingli/share/LiteOS_Lab/network/dtls/mbedtls/mbedtls-2.16.2/library/ecp.c ****  */
 131:/home/xingli/share/LiteOS_Lab/network/dtls/mbedtls/mbedtls-2.16.2/library/ecp.c **** static unsigned ecp_max_ops = 0;
 132:/home/xingli/share/LiteOS_Lab/network/dtls/mbedtls/mbedtls-2.16.2/library/ecp.c **** 
 133:/home/xingli/share/LiteOS_Lab/network/dtls/mbedtls/mbedtls-2.16.2/library/ecp.c **** /*
 134:/home/xingli/share/LiteOS_Lab/network/dtls/mbedtls/mbedtls-2.16.2/library/ecp.c ****  * Set ecp_max_ops
 135:/home/xingli/share/LiteOS_Lab/network/dtls/mbedtls/mbedtls-2.16.2/library/ecp.c ****  */
 136:/home/xingli/share/LiteOS_Lab/network/dtls/mbedtls/mbedtls-2.16.2/library/ecp.c **** void mbedtls_ecp_set_max_ops( unsigned max_ops )
 137:/home/xingli/share/LiteOS_Lab/network/dtls/mbedtls/mbedtls-2.16.2/library/ecp.c **** {
 138:/home/xingli/share/LiteOS_Lab/network/dtls/mbedtls/mbedtls-2.16.2/library/ecp.c ****     ecp_max_ops = max_ops;
 139:/home/xingli/share/LiteOS_Lab/network/dtls/mbedtls/mbedtls-2.16.2/library/ecp.c **** }
 140:/home/xingli/share/LiteOS_Lab/network/dtls/mbedtls/mbedtls-2.16.2/library/ecp.c **** 
 141:/home/xingli/share/LiteOS_Lab/network/dtls/mbedtls/mbedtls-2.16.2/library/ecp.c **** /*
 142:/home/xingli/share/LiteOS_Lab/network/dtls/mbedtls/mbedtls-2.16.2/library/ecp.c ****  * Check if restart is enabled
 143:/home/xingli/share/LiteOS_Lab/network/dtls/mbedtls/mbedtls-2.16.2/library/ecp.c ****  */
 144:/home/xingli/share/LiteOS_Lab/network/dtls/mbedtls/mbedtls-2.16.2/library/ecp.c **** int mbedtls_ecp_restart_is_enabled( void )
 145:/home/xingli/share/LiteOS_Lab/network/dtls/mbedtls/mbedtls-2.16.2/library/ecp.c **** {
 146:/home/xingli/share/LiteOS_Lab/network/dtls/mbedtls/mbedtls-2.16.2/library/ecp.c ****     return( ecp_max_ops != 0 );
 147:/home/xingli/share/LiteOS_Lab/network/dtls/mbedtls/mbedtls-2.16.2/library/ecp.c **** }
 148:/home/xingli/share/LiteOS_Lab/network/dtls/mbedtls/mbedtls-2.16.2/library/ecp.c **** 
 149:/home/xingli/share/LiteOS_Lab/network/dtls/mbedtls/mbedtls-2.16.2/library/ecp.c **** /*
GAS LISTING /tmp/ccajKZL5.s 			page 5


 150:/home/xingli/share/LiteOS_Lab/network/dtls/mbedtls/mbedtls-2.16.2/library/ecp.c ****  * Restart sub-context for ecp_mul_comb()
 151:/home/xingli/share/LiteOS_Lab/network/dtls/mbedtls/mbedtls-2.16.2/library/ecp.c ****  */
 152:/home/xingli/share/LiteOS_Lab/network/dtls/mbedtls/mbedtls-2.16.2/library/ecp.c **** struct mbedtls_ecp_restart_mul
 153:/home/xingli/share/LiteOS_Lab/network/dtls/mbedtls/mbedtls-2.16.2/library/ecp.c **** {
 154:/home/xingli/share/LiteOS_Lab/network/dtls/mbedtls/mbedtls-2.16.2/library/ecp.c ****     mbedtls_ecp_point R;    /* current intermediate result                  */
 155:/home/xingli/share/LiteOS_Lab/network/dtls/mbedtls/mbedtls-2.16.2/library/ecp.c ****     size_t i;               /* current index in various loops, 0 outside    */
 156:/home/xingli/share/LiteOS_Lab/network/dtls/mbedtls/mbedtls-2.16.2/library/ecp.c ****     mbedtls_ecp_point *T;   /* table for precomputed points                 */
 157:/home/xingli/share/LiteOS_Lab/network/dtls/mbedtls/mbedtls-2.16.2/library/ecp.c ****     unsigned char T_size;   /* number of points in table T                  */
 158:/home/xingli/share/LiteOS_Lab/network/dtls/mbedtls/mbedtls-2.16.2/library/ecp.c ****     enum {                  /* what were we doing last time we returned?    */
 159:/home/xingli/share/LiteOS_Lab/network/dtls/mbedtls/mbedtls-2.16.2/library/ecp.c ****         ecp_rsm_init = 0,       /* nothing so far, dummy initial state      */
 160:/home/xingli/share/LiteOS_Lab/network/dtls/mbedtls/mbedtls-2.16.2/library/ecp.c ****         ecp_rsm_pre_dbl,        /* precompute 2^n multiples                 */
 161:/home/xingli/share/LiteOS_Lab/network/dtls/mbedtls/mbedtls-2.16.2/library/ecp.c ****         ecp_rsm_pre_norm_dbl,   /* normalize precomputed 2^n multiples      */
 162:/home/xingli/share/LiteOS_Lab/network/dtls/mbedtls/mbedtls-2.16.2/library/ecp.c ****         ecp_rsm_pre_add,        /* precompute remaining points by adding    */
 163:/home/xingli/share/LiteOS_Lab/network/dtls/mbedtls/mbedtls-2.16.2/library/ecp.c ****         ecp_rsm_pre_norm_add,   /* normalize all precomputed points         */
 164:/home/xingli/share/LiteOS_Lab/network/dtls/mbedtls/mbedtls-2.16.2/library/ecp.c ****         ecp_rsm_comb_core,      /* ecp_mul_comb_core()                      */
 165:/home/xingli/share/LiteOS_Lab/network/dtls/mbedtls/mbedtls-2.16.2/library/ecp.c ****         ecp_rsm_final_norm,     /* do the final normalization               */
 166:/home/xingli/share/LiteOS_Lab/network/dtls/mbedtls/mbedtls-2.16.2/library/ecp.c ****     } state;
 167:/home/xingli/share/LiteOS_Lab/network/dtls/mbedtls/mbedtls-2.16.2/library/ecp.c **** };
 168:/home/xingli/share/LiteOS_Lab/network/dtls/mbedtls/mbedtls-2.16.2/library/ecp.c **** 
 169:/home/xingli/share/LiteOS_Lab/network/dtls/mbedtls/mbedtls-2.16.2/library/ecp.c **** /*
 170:/home/xingli/share/LiteOS_Lab/network/dtls/mbedtls/mbedtls-2.16.2/library/ecp.c ****  * Init restart_mul sub-context
 171:/home/xingli/share/LiteOS_Lab/network/dtls/mbedtls/mbedtls-2.16.2/library/ecp.c ****  */
 172:/home/xingli/share/LiteOS_Lab/network/dtls/mbedtls/mbedtls-2.16.2/library/ecp.c **** static void ecp_restart_rsm_init( mbedtls_ecp_restart_mul_ctx *ctx )
 173:/home/xingli/share/LiteOS_Lab/network/dtls/mbedtls/mbedtls-2.16.2/library/ecp.c **** {
 174:/home/xingli/share/LiteOS_Lab/network/dtls/mbedtls/mbedtls-2.16.2/library/ecp.c ****     mbedtls_ecp_point_init( &ctx->R );
 175:/home/xingli/share/LiteOS_Lab/network/dtls/mbedtls/mbedtls-2.16.2/library/ecp.c ****     ctx->i = 0;
 176:/home/xingli/share/LiteOS_Lab/network/dtls/mbedtls/mbedtls-2.16.2/library/ecp.c ****     ctx->T = NULL;
 177:/home/xingli/share/LiteOS_Lab/network/dtls/mbedtls/mbedtls-2.16.2/library/ecp.c ****     ctx->T_size = 0;
 178:/home/xingli/share/LiteOS_Lab/network/dtls/mbedtls/mbedtls-2.16.2/library/ecp.c ****     ctx->state = ecp_rsm_init;
 179:/home/xingli/share/LiteOS_Lab/network/dtls/mbedtls/mbedtls-2.16.2/library/ecp.c **** }
 180:/home/xingli/share/LiteOS_Lab/network/dtls/mbedtls/mbedtls-2.16.2/library/ecp.c **** 
 181:/home/xingli/share/LiteOS_Lab/network/dtls/mbedtls/mbedtls-2.16.2/library/ecp.c **** /*
 182:/home/xingli/share/LiteOS_Lab/network/dtls/mbedtls/mbedtls-2.16.2/library/ecp.c ****  * Free the components of a restart_mul sub-context
 183:/home/xingli/share/LiteOS_Lab/network/dtls/mbedtls/mbedtls-2.16.2/library/ecp.c ****  */
 184:/home/xingli/share/LiteOS_Lab/network/dtls/mbedtls/mbedtls-2.16.2/library/ecp.c **** static void ecp_restart_rsm_free( mbedtls_ecp_restart_mul_ctx *ctx )
 185:/home/xingli/share/LiteOS_Lab/network/dtls/mbedtls/mbedtls-2.16.2/library/ecp.c **** {
 186:/home/xingli/share/LiteOS_Lab/network/dtls/mbedtls/mbedtls-2.16.2/library/ecp.c ****     unsigned char i;
 187:/home/xingli/share/LiteOS_Lab/network/dtls/mbedtls/mbedtls-2.16.2/library/ecp.c **** 
 188:/home/xingli/share/LiteOS_Lab/network/dtls/mbedtls/mbedtls-2.16.2/library/ecp.c ****     if( ctx == NULL )
 189:/home/xingli/share/LiteOS_Lab/network/dtls/mbedtls/mbedtls-2.16.2/library/ecp.c ****         return;
 190:/home/xingli/share/LiteOS_Lab/network/dtls/mbedtls/mbedtls-2.16.2/library/ecp.c **** 
 191:/home/xingli/share/LiteOS_Lab/network/dtls/mbedtls/mbedtls-2.16.2/library/ecp.c ****     mbedtls_ecp_point_free( &ctx->R );
 192:/home/xingli/share/LiteOS_Lab/network/dtls/mbedtls/mbedtls-2.16.2/library/ecp.c **** 
 193:/home/xingli/share/LiteOS_Lab/network/dtls/mbedtls/mbedtls-2.16.2/library/ecp.c ****     if( ctx->T != NULL )
 194:/home/xingli/share/LiteOS_Lab/network/dtls/mbedtls/mbedtls-2.16.2/library/ecp.c ****     {
 195:/home/xingli/share/LiteOS_Lab/network/dtls/mbedtls/mbedtls-2.16.2/library/ecp.c ****         for( i = 0; i < ctx->T_size; i++ )
 196:/home/xingli/share/LiteOS_Lab/network/dtls/mbedtls/mbedtls-2.16.2/library/ecp.c ****             mbedtls_ecp_point_free( ctx->T + i );
 197:/home/xingli/share/LiteOS_Lab/network/dtls/mbedtls/mbedtls-2.16.2/library/ecp.c ****         mbedtls_free( ctx->T );
 198:/home/xingli/share/LiteOS_Lab/network/dtls/mbedtls/mbedtls-2.16.2/library/ecp.c ****     }
 199:/home/xingli/share/LiteOS_Lab/network/dtls/mbedtls/mbedtls-2.16.2/library/ecp.c **** 
 200:/home/xingli/share/LiteOS_Lab/network/dtls/mbedtls/mbedtls-2.16.2/library/ecp.c ****     ecp_restart_rsm_init( ctx );
 201:/home/xingli/share/LiteOS_Lab/network/dtls/mbedtls/mbedtls-2.16.2/library/ecp.c **** }
 202:/home/xingli/share/LiteOS_Lab/network/dtls/mbedtls/mbedtls-2.16.2/library/ecp.c **** 
 203:/home/xingli/share/LiteOS_Lab/network/dtls/mbedtls/mbedtls-2.16.2/library/ecp.c **** /*
 204:/home/xingli/share/LiteOS_Lab/network/dtls/mbedtls/mbedtls-2.16.2/library/ecp.c ****  * Restart context for ecp_muladd()
 205:/home/xingli/share/LiteOS_Lab/network/dtls/mbedtls/mbedtls-2.16.2/library/ecp.c ****  */
 206:/home/xingli/share/LiteOS_Lab/network/dtls/mbedtls/mbedtls-2.16.2/library/ecp.c **** struct mbedtls_ecp_restart_muladd
GAS LISTING /tmp/ccajKZL5.s 			page 6


 207:/home/xingli/share/LiteOS_Lab/network/dtls/mbedtls/mbedtls-2.16.2/library/ecp.c **** {
 208:/home/xingli/share/LiteOS_Lab/network/dtls/mbedtls/mbedtls-2.16.2/library/ecp.c ****     mbedtls_ecp_point mP;       /* mP value                             */
 209:/home/xingli/share/LiteOS_Lab/network/dtls/mbedtls/mbedtls-2.16.2/library/ecp.c ****     mbedtls_ecp_point R;        /* R intermediate result                */
 210:/home/xingli/share/LiteOS_Lab/network/dtls/mbedtls/mbedtls-2.16.2/library/ecp.c ****     enum {                      /* what should we do next?              */
 211:/home/xingli/share/LiteOS_Lab/network/dtls/mbedtls/mbedtls-2.16.2/library/ecp.c ****         ecp_rsma_mul1 = 0,      /* first multiplication                 */
 212:/home/xingli/share/LiteOS_Lab/network/dtls/mbedtls/mbedtls-2.16.2/library/ecp.c ****         ecp_rsma_mul2,          /* second multiplication                */
 213:/home/xingli/share/LiteOS_Lab/network/dtls/mbedtls/mbedtls-2.16.2/library/ecp.c ****         ecp_rsma_add,           /* addition                             */
 214:/home/xingli/share/LiteOS_Lab/network/dtls/mbedtls/mbedtls-2.16.2/library/ecp.c ****         ecp_rsma_norm,          /* normalization                        */
 215:/home/xingli/share/LiteOS_Lab/network/dtls/mbedtls/mbedtls-2.16.2/library/ecp.c ****     } state;
 216:/home/xingli/share/LiteOS_Lab/network/dtls/mbedtls/mbedtls-2.16.2/library/ecp.c **** };
 217:/home/xingli/share/LiteOS_Lab/network/dtls/mbedtls/mbedtls-2.16.2/library/ecp.c **** 
 218:/home/xingli/share/LiteOS_Lab/network/dtls/mbedtls/mbedtls-2.16.2/library/ecp.c **** /*
 219:/home/xingli/share/LiteOS_Lab/network/dtls/mbedtls/mbedtls-2.16.2/library/ecp.c ****  * Init restart_muladd sub-context
 220:/home/xingli/share/LiteOS_Lab/network/dtls/mbedtls/mbedtls-2.16.2/library/ecp.c ****  */
 221:/home/xingli/share/LiteOS_Lab/network/dtls/mbedtls/mbedtls-2.16.2/library/ecp.c **** static void ecp_restart_ma_init( mbedtls_ecp_restart_muladd_ctx *ctx )
 222:/home/xingli/share/LiteOS_Lab/network/dtls/mbedtls/mbedtls-2.16.2/library/ecp.c **** {
 223:/home/xingli/share/LiteOS_Lab/network/dtls/mbedtls/mbedtls-2.16.2/library/ecp.c ****     mbedtls_ecp_point_init( &ctx->mP );
 224:/home/xingli/share/LiteOS_Lab/network/dtls/mbedtls/mbedtls-2.16.2/library/ecp.c ****     mbedtls_ecp_point_init( &ctx->R );
 225:/home/xingli/share/LiteOS_Lab/network/dtls/mbedtls/mbedtls-2.16.2/library/ecp.c ****     ctx->state = ecp_rsma_mul1;
 226:/home/xingli/share/LiteOS_Lab/network/dtls/mbedtls/mbedtls-2.16.2/library/ecp.c **** }
 227:/home/xingli/share/LiteOS_Lab/network/dtls/mbedtls/mbedtls-2.16.2/library/ecp.c **** 
 228:/home/xingli/share/LiteOS_Lab/network/dtls/mbedtls/mbedtls-2.16.2/library/ecp.c **** /*
 229:/home/xingli/share/LiteOS_Lab/network/dtls/mbedtls/mbedtls-2.16.2/library/ecp.c ****  * Free the components of a restart_muladd sub-context
 230:/home/xingli/share/LiteOS_Lab/network/dtls/mbedtls/mbedtls-2.16.2/library/ecp.c ****  */
 231:/home/xingli/share/LiteOS_Lab/network/dtls/mbedtls/mbedtls-2.16.2/library/ecp.c **** static void ecp_restart_ma_free( mbedtls_ecp_restart_muladd_ctx *ctx )
 232:/home/xingli/share/LiteOS_Lab/network/dtls/mbedtls/mbedtls-2.16.2/library/ecp.c **** {
 233:/home/xingli/share/LiteOS_Lab/network/dtls/mbedtls/mbedtls-2.16.2/library/ecp.c ****     if( ctx == NULL )
 234:/home/xingli/share/LiteOS_Lab/network/dtls/mbedtls/mbedtls-2.16.2/library/ecp.c ****         return;
 235:/home/xingli/share/LiteOS_Lab/network/dtls/mbedtls/mbedtls-2.16.2/library/ecp.c **** 
 236:/home/xingli/share/LiteOS_Lab/network/dtls/mbedtls/mbedtls-2.16.2/library/ecp.c ****     mbedtls_ecp_point_free( &ctx->mP );
 237:/home/xingli/share/LiteOS_Lab/network/dtls/mbedtls/mbedtls-2.16.2/library/ecp.c ****     mbedtls_ecp_point_free( &ctx->R );
 238:/home/xingli/share/LiteOS_Lab/network/dtls/mbedtls/mbedtls-2.16.2/library/ecp.c **** 
 239:/home/xingli/share/LiteOS_Lab/network/dtls/mbedtls/mbedtls-2.16.2/library/ecp.c ****     ecp_restart_ma_init( ctx );
 240:/home/xingli/share/LiteOS_Lab/network/dtls/mbedtls/mbedtls-2.16.2/library/ecp.c **** }
 241:/home/xingli/share/LiteOS_Lab/network/dtls/mbedtls/mbedtls-2.16.2/library/ecp.c **** 
 242:/home/xingli/share/LiteOS_Lab/network/dtls/mbedtls/mbedtls-2.16.2/library/ecp.c **** /*
 243:/home/xingli/share/LiteOS_Lab/network/dtls/mbedtls/mbedtls-2.16.2/library/ecp.c ****  * Initialize a restart context
 244:/home/xingli/share/LiteOS_Lab/network/dtls/mbedtls/mbedtls-2.16.2/library/ecp.c ****  */
 245:/home/xingli/share/LiteOS_Lab/network/dtls/mbedtls/mbedtls-2.16.2/library/ecp.c **** void mbedtls_ecp_restart_init( mbedtls_ecp_restart_ctx *ctx )
 246:/home/xingli/share/LiteOS_Lab/network/dtls/mbedtls/mbedtls-2.16.2/library/ecp.c **** {
 247:/home/xingli/share/LiteOS_Lab/network/dtls/mbedtls/mbedtls-2.16.2/library/ecp.c ****     ECP_VALIDATE( ctx != NULL );
 248:/home/xingli/share/LiteOS_Lab/network/dtls/mbedtls/mbedtls-2.16.2/library/ecp.c ****     ctx->ops_done = 0;
 249:/home/xingli/share/LiteOS_Lab/network/dtls/mbedtls/mbedtls-2.16.2/library/ecp.c ****     ctx->depth = 0;
 250:/home/xingli/share/LiteOS_Lab/network/dtls/mbedtls/mbedtls-2.16.2/library/ecp.c ****     ctx->rsm = NULL;
 251:/home/xingli/share/LiteOS_Lab/network/dtls/mbedtls/mbedtls-2.16.2/library/ecp.c ****     ctx->ma = NULL;
 252:/home/xingli/share/LiteOS_Lab/network/dtls/mbedtls/mbedtls-2.16.2/library/ecp.c **** }
 253:/home/xingli/share/LiteOS_Lab/network/dtls/mbedtls/mbedtls-2.16.2/library/ecp.c **** 
 254:/home/xingli/share/LiteOS_Lab/network/dtls/mbedtls/mbedtls-2.16.2/library/ecp.c **** /*
 255:/home/xingli/share/LiteOS_Lab/network/dtls/mbedtls/mbedtls-2.16.2/library/ecp.c ****  * Free the components of a restart context
 256:/home/xingli/share/LiteOS_Lab/network/dtls/mbedtls/mbedtls-2.16.2/library/ecp.c ****  */
 257:/home/xingli/share/LiteOS_Lab/network/dtls/mbedtls/mbedtls-2.16.2/library/ecp.c **** void mbedtls_ecp_restart_free( mbedtls_ecp_restart_ctx *ctx )
 258:/home/xingli/share/LiteOS_Lab/network/dtls/mbedtls/mbedtls-2.16.2/library/ecp.c **** {
 259:/home/xingli/share/LiteOS_Lab/network/dtls/mbedtls/mbedtls-2.16.2/library/ecp.c ****     if( ctx == NULL )
 260:/home/xingli/share/LiteOS_Lab/network/dtls/mbedtls/mbedtls-2.16.2/library/ecp.c ****         return;
 261:/home/xingli/share/LiteOS_Lab/network/dtls/mbedtls/mbedtls-2.16.2/library/ecp.c **** 
 262:/home/xingli/share/LiteOS_Lab/network/dtls/mbedtls/mbedtls-2.16.2/library/ecp.c ****     ecp_restart_rsm_free( ctx->rsm );
 263:/home/xingli/share/LiteOS_Lab/network/dtls/mbedtls/mbedtls-2.16.2/library/ecp.c ****     mbedtls_free( ctx->rsm );
GAS LISTING /tmp/ccajKZL5.s 			page 7


 264:/home/xingli/share/LiteOS_Lab/network/dtls/mbedtls/mbedtls-2.16.2/library/ecp.c **** 
 265:/home/xingli/share/LiteOS_Lab/network/dtls/mbedtls/mbedtls-2.16.2/library/ecp.c ****     ecp_restart_ma_free( ctx->ma );
 266:/home/xingli/share/LiteOS_Lab/network/dtls/mbedtls/mbedtls-2.16.2/library/ecp.c ****     mbedtls_free( ctx->ma );
 267:/home/xingli/share/LiteOS_Lab/network/dtls/mbedtls/mbedtls-2.16.2/library/ecp.c **** 
 268:/home/xingli/share/LiteOS_Lab/network/dtls/mbedtls/mbedtls-2.16.2/library/ecp.c ****     mbedtls_ecp_restart_init( ctx );
 269:/home/xingli/share/LiteOS_Lab/network/dtls/mbedtls/mbedtls-2.16.2/library/ecp.c **** }
 270:/home/xingli/share/LiteOS_Lab/network/dtls/mbedtls/mbedtls-2.16.2/library/ecp.c **** 
 271:/home/xingli/share/LiteOS_Lab/network/dtls/mbedtls/mbedtls-2.16.2/library/ecp.c **** /*
 272:/home/xingli/share/LiteOS_Lab/network/dtls/mbedtls/mbedtls-2.16.2/library/ecp.c ****  * Check if we can do the next step
 273:/home/xingli/share/LiteOS_Lab/network/dtls/mbedtls/mbedtls-2.16.2/library/ecp.c ****  */
 274:/home/xingli/share/LiteOS_Lab/network/dtls/mbedtls/mbedtls-2.16.2/library/ecp.c **** int mbedtls_ecp_check_budget( const mbedtls_ecp_group *grp,
 275:/home/xingli/share/LiteOS_Lab/network/dtls/mbedtls/mbedtls-2.16.2/library/ecp.c ****                               mbedtls_ecp_restart_ctx *rs_ctx,
 276:/home/xingli/share/LiteOS_Lab/network/dtls/mbedtls/mbedtls-2.16.2/library/ecp.c ****                               unsigned ops )
 277:/home/xingli/share/LiteOS_Lab/network/dtls/mbedtls/mbedtls-2.16.2/library/ecp.c **** {
 278:/home/xingli/share/LiteOS_Lab/network/dtls/mbedtls/mbedtls-2.16.2/library/ecp.c ****     ECP_VALIDATE_RET( grp != NULL );
 279:/home/xingli/share/LiteOS_Lab/network/dtls/mbedtls/mbedtls-2.16.2/library/ecp.c **** 
 280:/home/xingli/share/LiteOS_Lab/network/dtls/mbedtls/mbedtls-2.16.2/library/ecp.c ****     if( rs_ctx != NULL && ecp_max_ops != 0 )
 281:/home/xingli/share/LiteOS_Lab/network/dtls/mbedtls/mbedtls-2.16.2/library/ecp.c ****     {
 282:/home/xingli/share/LiteOS_Lab/network/dtls/mbedtls/mbedtls-2.16.2/library/ecp.c ****         /* scale depending on curve size: the chosen reference is 256-bit,
 283:/home/xingli/share/LiteOS_Lab/network/dtls/mbedtls/mbedtls-2.16.2/library/ecp.c ****          * and multiplication is quadratic. Round to the closest integer. */
 284:/home/xingli/share/LiteOS_Lab/network/dtls/mbedtls/mbedtls-2.16.2/library/ecp.c ****         if( grp->pbits >= 512 )
 285:/home/xingli/share/LiteOS_Lab/network/dtls/mbedtls/mbedtls-2.16.2/library/ecp.c ****             ops *= 4;
 286:/home/xingli/share/LiteOS_Lab/network/dtls/mbedtls/mbedtls-2.16.2/library/ecp.c ****         else if( grp->pbits >= 384 )
 287:/home/xingli/share/LiteOS_Lab/network/dtls/mbedtls/mbedtls-2.16.2/library/ecp.c ****             ops *= 2;
 288:/home/xingli/share/LiteOS_Lab/network/dtls/mbedtls/mbedtls-2.16.2/library/ecp.c **** 
 289:/home/xingli/share/LiteOS_Lab/network/dtls/mbedtls/mbedtls-2.16.2/library/ecp.c ****         /* Avoid infinite loops: always allow first step.
 290:/home/xingli/share/LiteOS_Lab/network/dtls/mbedtls/mbedtls-2.16.2/library/ecp.c ****          * Because of that, however, it's not generally true
 291:/home/xingli/share/LiteOS_Lab/network/dtls/mbedtls/mbedtls-2.16.2/library/ecp.c ****          * that ops_done <= ecp_max_ops, so the check
 292:/home/xingli/share/LiteOS_Lab/network/dtls/mbedtls/mbedtls-2.16.2/library/ecp.c ****          * ops_done > ecp_max_ops below is mandatory. */
 293:/home/xingli/share/LiteOS_Lab/network/dtls/mbedtls/mbedtls-2.16.2/library/ecp.c ****         if( ( rs_ctx->ops_done != 0 ) &&
 294:/home/xingli/share/LiteOS_Lab/network/dtls/mbedtls/mbedtls-2.16.2/library/ecp.c ****             ( rs_ctx->ops_done > ecp_max_ops ||
 295:/home/xingli/share/LiteOS_Lab/network/dtls/mbedtls/mbedtls-2.16.2/library/ecp.c ****               ops > ecp_max_ops - rs_ctx->ops_done ) )
 296:/home/xingli/share/LiteOS_Lab/network/dtls/mbedtls/mbedtls-2.16.2/library/ecp.c ****         {
 297:/home/xingli/share/LiteOS_Lab/network/dtls/mbedtls/mbedtls-2.16.2/library/ecp.c ****             return( MBEDTLS_ERR_ECP_IN_PROGRESS );
 298:/home/xingli/share/LiteOS_Lab/network/dtls/mbedtls/mbedtls-2.16.2/library/ecp.c ****         }
 299:/home/xingli/share/LiteOS_Lab/network/dtls/mbedtls/mbedtls-2.16.2/library/ecp.c **** 
 300:/home/xingli/share/LiteOS_Lab/network/dtls/mbedtls/mbedtls-2.16.2/library/ecp.c ****         /* update running count */
 301:/home/xingli/share/LiteOS_Lab/network/dtls/mbedtls/mbedtls-2.16.2/library/ecp.c ****         rs_ctx->ops_done += ops;
 302:/home/xingli/share/LiteOS_Lab/network/dtls/mbedtls/mbedtls-2.16.2/library/ecp.c ****     }
 303:/home/xingli/share/LiteOS_Lab/network/dtls/mbedtls/mbedtls-2.16.2/library/ecp.c **** 
 304:/home/xingli/share/LiteOS_Lab/network/dtls/mbedtls/mbedtls-2.16.2/library/ecp.c ****     return( 0 );
 305:/home/xingli/share/LiteOS_Lab/network/dtls/mbedtls/mbedtls-2.16.2/library/ecp.c **** }
 306:/home/xingli/share/LiteOS_Lab/network/dtls/mbedtls/mbedtls-2.16.2/library/ecp.c **** 
 307:/home/xingli/share/LiteOS_Lab/network/dtls/mbedtls/mbedtls-2.16.2/library/ecp.c **** /* Call this when entering a function that needs its own sub-context */
 308:/home/xingli/share/LiteOS_Lab/network/dtls/mbedtls/mbedtls-2.16.2/library/ecp.c **** #define ECP_RS_ENTER( SUB )   do {                                      \
 309:/home/xingli/share/LiteOS_Lab/network/dtls/mbedtls/mbedtls-2.16.2/library/ecp.c ****     /* reset ops count for this call if top-level */                    \
 310:/home/xingli/share/LiteOS_Lab/network/dtls/mbedtls/mbedtls-2.16.2/library/ecp.c ****     if( rs_ctx != NULL && rs_ctx->depth++ == 0 )                        \
 311:/home/xingli/share/LiteOS_Lab/network/dtls/mbedtls/mbedtls-2.16.2/library/ecp.c ****         rs_ctx->ops_done = 0;                                           \
 312:/home/xingli/share/LiteOS_Lab/network/dtls/mbedtls/mbedtls-2.16.2/library/ecp.c ****                                                                         \
 313:/home/xingli/share/LiteOS_Lab/network/dtls/mbedtls/mbedtls-2.16.2/library/ecp.c ****     /* set up our own sub-context if needed */                          \
 314:/home/xingli/share/LiteOS_Lab/network/dtls/mbedtls/mbedtls-2.16.2/library/ecp.c ****     if( mbedtls_ecp_restart_is_enabled() &&                             \
 315:/home/xingli/share/LiteOS_Lab/network/dtls/mbedtls/mbedtls-2.16.2/library/ecp.c ****         rs_ctx != NULL && rs_ctx->SUB == NULL )                         \
 316:/home/xingli/share/LiteOS_Lab/network/dtls/mbedtls/mbedtls-2.16.2/library/ecp.c ****     {                                                                   \
 317:/home/xingli/share/LiteOS_Lab/network/dtls/mbedtls/mbedtls-2.16.2/library/ecp.c ****         rs_ctx->SUB = mbedtls_calloc( 1, sizeof( *rs_ctx->SUB ) );      \
 318:/home/xingli/share/LiteOS_Lab/network/dtls/mbedtls/mbedtls-2.16.2/library/ecp.c ****         if( rs_ctx->SUB == NULL )                                       \
 319:/home/xingli/share/LiteOS_Lab/network/dtls/mbedtls/mbedtls-2.16.2/library/ecp.c ****             return( MBEDTLS_ERR_ECP_ALLOC_FAILED );                     \
 320:/home/xingli/share/LiteOS_Lab/network/dtls/mbedtls/mbedtls-2.16.2/library/ecp.c ****                                                                         \
GAS LISTING /tmp/ccajKZL5.s 			page 8


 321:/home/xingli/share/LiteOS_Lab/network/dtls/mbedtls/mbedtls-2.16.2/library/ecp.c ****         ecp_restart_## SUB ##_init( rs_ctx->SUB );                      \
 322:/home/xingli/share/LiteOS_Lab/network/dtls/mbedtls/mbedtls-2.16.2/library/ecp.c ****     }                                                                   \
 323:/home/xingli/share/LiteOS_Lab/network/dtls/mbedtls/mbedtls-2.16.2/library/ecp.c **** } while( 0 )
 324:/home/xingli/share/LiteOS_Lab/network/dtls/mbedtls/mbedtls-2.16.2/library/ecp.c **** 
 325:/home/xingli/share/LiteOS_Lab/network/dtls/mbedtls/mbedtls-2.16.2/library/ecp.c **** /* Call this when leaving a function that needs its own sub-context */
 326:/home/xingli/share/LiteOS_Lab/network/dtls/mbedtls/mbedtls-2.16.2/library/ecp.c **** #define ECP_RS_LEAVE( SUB )   do {                                      \
 327:/home/xingli/share/LiteOS_Lab/network/dtls/mbedtls/mbedtls-2.16.2/library/ecp.c ****     /* clear our sub-context when not in progress (done or error) */    \
 328:/home/xingli/share/LiteOS_Lab/network/dtls/mbedtls/mbedtls-2.16.2/library/ecp.c ****     if( rs_ctx != NULL && rs_ctx->SUB != NULL &&                        \
 329:/home/xingli/share/LiteOS_Lab/network/dtls/mbedtls/mbedtls-2.16.2/library/ecp.c ****         ret != MBEDTLS_ERR_ECP_IN_PROGRESS )                            \
 330:/home/xingli/share/LiteOS_Lab/network/dtls/mbedtls/mbedtls-2.16.2/library/ecp.c ****     {                                                                   \
 331:/home/xingli/share/LiteOS_Lab/network/dtls/mbedtls/mbedtls-2.16.2/library/ecp.c ****         ecp_restart_## SUB ##_free( rs_ctx->SUB );                      \
 332:/home/xingli/share/LiteOS_Lab/network/dtls/mbedtls/mbedtls-2.16.2/library/ecp.c ****         mbedtls_free( rs_ctx->SUB );                                    \
 333:/home/xingli/share/LiteOS_Lab/network/dtls/mbedtls/mbedtls-2.16.2/library/ecp.c ****         rs_ctx->SUB = NULL;                                             \
 334:/home/xingli/share/LiteOS_Lab/network/dtls/mbedtls/mbedtls-2.16.2/library/ecp.c ****     }                                                                   \
 335:/home/xingli/share/LiteOS_Lab/network/dtls/mbedtls/mbedtls-2.16.2/library/ecp.c ****                                                                         \
 336:/home/xingli/share/LiteOS_Lab/network/dtls/mbedtls/mbedtls-2.16.2/library/ecp.c ****     if( rs_ctx != NULL )                                                \
 337:/home/xingli/share/LiteOS_Lab/network/dtls/mbedtls/mbedtls-2.16.2/library/ecp.c ****         rs_ctx->depth--;                                                \
 338:/home/xingli/share/LiteOS_Lab/network/dtls/mbedtls/mbedtls-2.16.2/library/ecp.c **** } while( 0 )
 339:/home/xingli/share/LiteOS_Lab/network/dtls/mbedtls/mbedtls-2.16.2/library/ecp.c **** 
 340:/home/xingli/share/LiteOS_Lab/network/dtls/mbedtls/mbedtls-2.16.2/library/ecp.c **** #else /* MBEDTLS_ECP_RESTARTABLE */
 341:/home/xingli/share/LiteOS_Lab/network/dtls/mbedtls/mbedtls-2.16.2/library/ecp.c **** 
 342:/home/xingli/share/LiteOS_Lab/network/dtls/mbedtls/mbedtls-2.16.2/library/ecp.c **** #define ECP_RS_ENTER( sub )     (void) rs_ctx;
 343:/home/xingli/share/LiteOS_Lab/network/dtls/mbedtls/mbedtls-2.16.2/library/ecp.c **** #define ECP_RS_LEAVE( sub )     (void) rs_ctx;
 344:/home/xingli/share/LiteOS_Lab/network/dtls/mbedtls/mbedtls-2.16.2/library/ecp.c **** 
 345:/home/xingli/share/LiteOS_Lab/network/dtls/mbedtls/mbedtls-2.16.2/library/ecp.c **** #endif /* MBEDTLS_ECP_RESTARTABLE */
 346:/home/xingli/share/LiteOS_Lab/network/dtls/mbedtls/mbedtls-2.16.2/library/ecp.c **** 
 347:/home/xingli/share/LiteOS_Lab/network/dtls/mbedtls/mbedtls-2.16.2/library/ecp.c **** #if defined(MBEDTLS_ECP_DP_SECP192R1_ENABLED) ||   \
 348:/home/xingli/share/LiteOS_Lab/network/dtls/mbedtls/mbedtls-2.16.2/library/ecp.c ****     defined(MBEDTLS_ECP_DP_SECP224R1_ENABLED) ||   \
 349:/home/xingli/share/LiteOS_Lab/network/dtls/mbedtls/mbedtls-2.16.2/library/ecp.c ****     defined(MBEDTLS_ECP_DP_SECP256R1_ENABLED) ||   \
 350:/home/xingli/share/LiteOS_Lab/network/dtls/mbedtls/mbedtls-2.16.2/library/ecp.c ****     defined(MBEDTLS_ECP_DP_SECP384R1_ENABLED) ||   \
 351:/home/xingli/share/LiteOS_Lab/network/dtls/mbedtls/mbedtls-2.16.2/library/ecp.c ****     defined(MBEDTLS_ECP_DP_SECP521R1_ENABLED) ||   \
 352:/home/xingli/share/LiteOS_Lab/network/dtls/mbedtls/mbedtls-2.16.2/library/ecp.c ****     defined(MBEDTLS_ECP_DP_BP256R1_ENABLED)   ||   \
 353:/home/xingli/share/LiteOS_Lab/network/dtls/mbedtls/mbedtls-2.16.2/library/ecp.c ****     defined(MBEDTLS_ECP_DP_BP384R1_ENABLED)   ||   \
 354:/home/xingli/share/LiteOS_Lab/network/dtls/mbedtls/mbedtls-2.16.2/library/ecp.c ****     defined(MBEDTLS_ECP_DP_BP512R1_ENABLED)   ||   \
 355:/home/xingli/share/LiteOS_Lab/network/dtls/mbedtls/mbedtls-2.16.2/library/ecp.c ****     defined(MBEDTLS_ECP_DP_SECP192K1_ENABLED) ||   \
 356:/home/xingli/share/LiteOS_Lab/network/dtls/mbedtls/mbedtls-2.16.2/library/ecp.c ****     defined(MBEDTLS_ECP_DP_SECP224K1_ENABLED) ||   \
 357:/home/xingli/share/LiteOS_Lab/network/dtls/mbedtls/mbedtls-2.16.2/library/ecp.c ****     defined(MBEDTLS_ECP_DP_SECP256K1_ENABLED)
 358:/home/xingli/share/LiteOS_Lab/network/dtls/mbedtls/mbedtls-2.16.2/library/ecp.c **** #define ECP_SHORTWEIERSTRASS
 359:/home/xingli/share/LiteOS_Lab/network/dtls/mbedtls/mbedtls-2.16.2/library/ecp.c **** #endif
 360:/home/xingli/share/LiteOS_Lab/network/dtls/mbedtls/mbedtls-2.16.2/library/ecp.c **** 
 361:/home/xingli/share/LiteOS_Lab/network/dtls/mbedtls/mbedtls-2.16.2/library/ecp.c **** #if defined(MBEDTLS_ECP_DP_CURVE25519_ENABLED) || \
 362:/home/xingli/share/LiteOS_Lab/network/dtls/mbedtls/mbedtls-2.16.2/library/ecp.c ****     defined(MBEDTLS_ECP_DP_CURVE448_ENABLED)
 363:/home/xingli/share/LiteOS_Lab/network/dtls/mbedtls/mbedtls-2.16.2/library/ecp.c **** #define ECP_MONTGOMERY
 364:/home/xingli/share/LiteOS_Lab/network/dtls/mbedtls/mbedtls-2.16.2/library/ecp.c **** #endif
 365:/home/xingli/share/LiteOS_Lab/network/dtls/mbedtls/mbedtls-2.16.2/library/ecp.c **** 
 366:/home/xingli/share/LiteOS_Lab/network/dtls/mbedtls/mbedtls-2.16.2/library/ecp.c **** /*
 367:/home/xingli/share/LiteOS_Lab/network/dtls/mbedtls/mbedtls-2.16.2/library/ecp.c ****  * Curve types: internal for now, might be exposed later
 368:/home/xingli/share/LiteOS_Lab/network/dtls/mbedtls/mbedtls-2.16.2/library/ecp.c ****  */
 369:/home/xingli/share/LiteOS_Lab/network/dtls/mbedtls/mbedtls-2.16.2/library/ecp.c **** typedef enum
 370:/home/xingli/share/LiteOS_Lab/network/dtls/mbedtls/mbedtls-2.16.2/library/ecp.c **** {
 371:/home/xingli/share/LiteOS_Lab/network/dtls/mbedtls/mbedtls-2.16.2/library/ecp.c ****     ECP_TYPE_NONE = 0,
 372:/home/xingli/share/LiteOS_Lab/network/dtls/mbedtls/mbedtls-2.16.2/library/ecp.c ****     ECP_TYPE_SHORT_WEIERSTRASS,    /* y^2 = x^3 + a x + b      */
 373:/home/xingli/share/LiteOS_Lab/network/dtls/mbedtls/mbedtls-2.16.2/library/ecp.c ****     ECP_TYPE_MONTGOMERY,           /* y^2 = x^3 + a x^2 + x    */
 374:/home/xingli/share/LiteOS_Lab/network/dtls/mbedtls/mbedtls-2.16.2/library/ecp.c **** } ecp_curve_type;
 375:/home/xingli/share/LiteOS_Lab/network/dtls/mbedtls/mbedtls-2.16.2/library/ecp.c **** 
 376:/home/xingli/share/LiteOS_Lab/network/dtls/mbedtls/mbedtls-2.16.2/library/ecp.c **** /*
 377:/home/xingli/share/LiteOS_Lab/network/dtls/mbedtls/mbedtls-2.16.2/library/ecp.c ****  * List of supported curves:
GAS LISTING /tmp/ccajKZL5.s 			page 9


 378:/home/xingli/share/LiteOS_Lab/network/dtls/mbedtls/mbedtls-2.16.2/library/ecp.c ****  *  - internal ID
 379:/home/xingli/share/LiteOS_Lab/network/dtls/mbedtls/mbedtls-2.16.2/library/ecp.c ****  *  - TLS NamedCurve ID (RFC 4492 sec. 5.1.1, RFC 7071 sec. 2)
 380:/home/xingli/share/LiteOS_Lab/network/dtls/mbedtls/mbedtls-2.16.2/library/ecp.c ****  *  - size in bits
 381:/home/xingli/share/LiteOS_Lab/network/dtls/mbedtls/mbedtls-2.16.2/library/ecp.c ****  *  - readable name
 382:/home/xingli/share/LiteOS_Lab/network/dtls/mbedtls/mbedtls-2.16.2/library/ecp.c ****  *
 383:/home/xingli/share/LiteOS_Lab/network/dtls/mbedtls/mbedtls-2.16.2/library/ecp.c ****  * Curves are listed in order: largest curves first, and for a given size,
 384:/home/xingli/share/LiteOS_Lab/network/dtls/mbedtls/mbedtls-2.16.2/library/ecp.c ****  * fastest curves first. This provides the default order for the SSL module.
 385:/home/xingli/share/LiteOS_Lab/network/dtls/mbedtls/mbedtls-2.16.2/library/ecp.c ****  *
 386:/home/xingli/share/LiteOS_Lab/network/dtls/mbedtls/mbedtls-2.16.2/library/ecp.c ****  * Reminder: update profiles in x509_crt.c when adding a new curves!
 387:/home/xingli/share/LiteOS_Lab/network/dtls/mbedtls/mbedtls-2.16.2/library/ecp.c ****  */
 388:/home/xingli/share/LiteOS_Lab/network/dtls/mbedtls/mbedtls-2.16.2/library/ecp.c **** static const mbedtls_ecp_curve_info ecp_supported_curves[] =
 389:/home/xingli/share/LiteOS_Lab/network/dtls/mbedtls/mbedtls-2.16.2/library/ecp.c **** {
 390:/home/xingli/share/LiteOS_Lab/network/dtls/mbedtls/mbedtls-2.16.2/library/ecp.c **** #if defined(MBEDTLS_ECP_DP_SECP521R1_ENABLED)
 391:/home/xingli/share/LiteOS_Lab/network/dtls/mbedtls/mbedtls-2.16.2/library/ecp.c ****     { MBEDTLS_ECP_DP_SECP521R1,    25,     521,    "secp521r1"         },
 392:/home/xingli/share/LiteOS_Lab/network/dtls/mbedtls/mbedtls-2.16.2/library/ecp.c **** #endif
 393:/home/xingli/share/LiteOS_Lab/network/dtls/mbedtls/mbedtls-2.16.2/library/ecp.c **** #if defined(MBEDTLS_ECP_DP_BP512R1_ENABLED)
 394:/home/xingli/share/LiteOS_Lab/network/dtls/mbedtls/mbedtls-2.16.2/library/ecp.c ****     { MBEDTLS_ECP_DP_BP512R1,      28,     512,    "brainpoolP512r1"   },
 395:/home/xingli/share/LiteOS_Lab/network/dtls/mbedtls/mbedtls-2.16.2/library/ecp.c **** #endif
 396:/home/xingli/share/LiteOS_Lab/network/dtls/mbedtls/mbedtls-2.16.2/library/ecp.c **** #if defined(MBEDTLS_ECP_DP_SECP384R1_ENABLED)
 397:/home/xingli/share/LiteOS_Lab/network/dtls/mbedtls/mbedtls-2.16.2/library/ecp.c ****     { MBEDTLS_ECP_DP_SECP384R1,    24,     384,    "secp384r1"         },
 398:/home/xingli/share/LiteOS_Lab/network/dtls/mbedtls/mbedtls-2.16.2/library/ecp.c **** #endif
 399:/home/xingli/share/LiteOS_Lab/network/dtls/mbedtls/mbedtls-2.16.2/library/ecp.c **** #if defined(MBEDTLS_ECP_DP_BP384R1_ENABLED)
 400:/home/xingli/share/LiteOS_Lab/network/dtls/mbedtls/mbedtls-2.16.2/library/ecp.c ****     { MBEDTLS_ECP_DP_BP384R1,      27,     384,    "brainpoolP384r1"   },
 401:/home/xingli/share/LiteOS_Lab/network/dtls/mbedtls/mbedtls-2.16.2/library/ecp.c **** #endif
 402:/home/xingli/share/LiteOS_Lab/network/dtls/mbedtls/mbedtls-2.16.2/library/ecp.c **** #if defined(MBEDTLS_ECP_DP_SECP256R1_ENABLED)
 403:/home/xingli/share/LiteOS_Lab/network/dtls/mbedtls/mbedtls-2.16.2/library/ecp.c ****     { MBEDTLS_ECP_DP_SECP256R1,    23,     256,    "secp256r1"         },
 404:/home/xingli/share/LiteOS_Lab/network/dtls/mbedtls/mbedtls-2.16.2/library/ecp.c **** #endif
 405:/home/xingli/share/LiteOS_Lab/network/dtls/mbedtls/mbedtls-2.16.2/library/ecp.c **** #if defined(MBEDTLS_ECP_DP_SECP256K1_ENABLED)
 406:/home/xingli/share/LiteOS_Lab/network/dtls/mbedtls/mbedtls-2.16.2/library/ecp.c ****     { MBEDTLS_ECP_DP_SECP256K1,    22,     256,    "secp256k1"         },
 407:/home/xingli/share/LiteOS_Lab/network/dtls/mbedtls/mbedtls-2.16.2/library/ecp.c **** #endif
 408:/home/xingli/share/LiteOS_Lab/network/dtls/mbedtls/mbedtls-2.16.2/library/ecp.c **** #if defined(MBEDTLS_ECP_DP_BP256R1_ENABLED)
 409:/home/xingli/share/LiteOS_Lab/network/dtls/mbedtls/mbedtls-2.16.2/library/ecp.c ****     { MBEDTLS_ECP_DP_BP256R1,      26,     256,    "brainpoolP256r1"   },
 410:/home/xingli/share/LiteOS_Lab/network/dtls/mbedtls/mbedtls-2.16.2/library/ecp.c **** #endif
 411:/home/xingli/share/LiteOS_Lab/network/dtls/mbedtls/mbedtls-2.16.2/library/ecp.c **** #if defined(MBEDTLS_ECP_DP_SECP224R1_ENABLED)
 412:/home/xingli/share/LiteOS_Lab/network/dtls/mbedtls/mbedtls-2.16.2/library/ecp.c ****     { MBEDTLS_ECP_DP_SECP224R1,    21,     224,    "secp224r1"         },
 413:/home/xingli/share/LiteOS_Lab/network/dtls/mbedtls/mbedtls-2.16.2/library/ecp.c **** #endif
 414:/home/xingli/share/LiteOS_Lab/network/dtls/mbedtls/mbedtls-2.16.2/library/ecp.c **** #if defined(MBEDTLS_ECP_DP_SECP224K1_ENABLED)
 415:/home/xingli/share/LiteOS_Lab/network/dtls/mbedtls/mbedtls-2.16.2/library/ecp.c ****     { MBEDTLS_ECP_DP_SECP224K1,    20,     224,    "secp224k1"         },
 416:/home/xingli/share/LiteOS_Lab/network/dtls/mbedtls/mbedtls-2.16.2/library/ecp.c **** #endif
 417:/home/xingli/share/LiteOS_Lab/network/dtls/mbedtls/mbedtls-2.16.2/library/ecp.c **** #if defined(MBEDTLS_ECP_DP_SECP192R1_ENABLED)
 418:/home/xingli/share/LiteOS_Lab/network/dtls/mbedtls/mbedtls-2.16.2/library/ecp.c ****     { MBEDTLS_ECP_DP_SECP192R1,    19,     192,    "secp192r1"         },
 419:/home/xingli/share/LiteOS_Lab/network/dtls/mbedtls/mbedtls-2.16.2/library/ecp.c **** #endif
 420:/home/xingli/share/LiteOS_Lab/network/dtls/mbedtls/mbedtls-2.16.2/library/ecp.c **** #if defined(MBEDTLS_ECP_DP_SECP192K1_ENABLED)
 421:/home/xingli/share/LiteOS_Lab/network/dtls/mbedtls/mbedtls-2.16.2/library/ecp.c ****     { MBEDTLS_ECP_DP_SECP192K1,    18,     192,    "secp192k1"         },
 422:/home/xingli/share/LiteOS_Lab/network/dtls/mbedtls/mbedtls-2.16.2/library/ecp.c **** #endif
 423:/home/xingli/share/LiteOS_Lab/network/dtls/mbedtls/mbedtls-2.16.2/library/ecp.c ****     { MBEDTLS_ECP_DP_NONE,          0,     0,      NULL                },
 424:/home/xingli/share/LiteOS_Lab/network/dtls/mbedtls/mbedtls-2.16.2/library/ecp.c **** };
 425:/home/xingli/share/LiteOS_Lab/network/dtls/mbedtls/mbedtls-2.16.2/library/ecp.c **** 
 426:/home/xingli/share/LiteOS_Lab/network/dtls/mbedtls/mbedtls-2.16.2/library/ecp.c **** #define ECP_NB_CURVES   sizeof( ecp_supported_curves ) /    \
 427:/home/xingli/share/LiteOS_Lab/network/dtls/mbedtls/mbedtls-2.16.2/library/ecp.c ****                         sizeof( ecp_supported_curves[0] )
 428:/home/xingli/share/LiteOS_Lab/network/dtls/mbedtls/mbedtls-2.16.2/library/ecp.c **** 
 429:/home/xingli/share/LiteOS_Lab/network/dtls/mbedtls/mbedtls-2.16.2/library/ecp.c **** static mbedtls_ecp_group_id ecp_supported_grp_id[ECP_NB_CURVES];
 430:/home/xingli/share/LiteOS_Lab/network/dtls/mbedtls/mbedtls-2.16.2/library/ecp.c **** 
 431:/home/xingli/share/LiteOS_Lab/network/dtls/mbedtls/mbedtls-2.16.2/library/ecp.c **** /*
 432:/home/xingli/share/LiteOS_Lab/network/dtls/mbedtls/mbedtls-2.16.2/library/ecp.c ****  * List of supported curves and associated info
 433:/home/xingli/share/LiteOS_Lab/network/dtls/mbedtls/mbedtls-2.16.2/library/ecp.c ****  */
 434:/home/xingli/share/LiteOS_Lab/network/dtls/mbedtls/mbedtls-2.16.2/library/ecp.c **** const mbedtls_ecp_curve_info *mbedtls_ecp_curve_list( void )
GAS LISTING /tmp/ccajKZL5.s 			page 10


 435:/home/xingli/share/LiteOS_Lab/network/dtls/mbedtls/mbedtls-2.16.2/library/ecp.c **** {
  74              		.loc 1 435 1
  75              		.cfi_startproc
  76 0000 F30F1EFA 		endbr64
  77 0004 55       		pushq	%rbp
  78              	.LCFI0:
  79              		.cfi_def_cfa_offset 16
  80              		.cfi_offset 6, -16
  81 0005 4889E5   		movq	%rsp, %rbp
  82              	.LCFI1:
  83              		.cfi_def_cfa_register 6
  84 0008 4883EC10 		subq	$16, %rsp
  85              		.loc 1 435 1
  86 000c 64488B04 		movq	%fs:40, %rax
  86      25280000 
  86      00
  87 0015 488945F8 		movq	%rax, -8(%rbp)
  88 0019 31C0     		xorl	%eax, %eax
 436:/home/xingli/share/LiteOS_Lab/network/dtls/mbedtls/mbedtls-2.16.2/library/ecp.c ****     return( ecp_supported_curves );
  89              		.loc 1 436 11
  90 001b 488D0500 		leaq	ecp_supported_curves(%rip), %rax
  90      000000
 437:/home/xingli/share/LiteOS_Lab/network/dtls/mbedtls/mbedtls-2.16.2/library/ecp.c **** }
  91              		.loc 1 437 1
  92 0022 488B55F8 		movq	-8(%rbp), %rdx
  93 0026 64483314 		xorq	%fs:40, %rdx
  93      25280000 
  93      00
  94 002f 7405     		je	.L3
  95 0031 E8000000 		call	__stack_chk_fail@PLT
  95      00
  96              	.L3:
  97 0036 C9       		leave
  98              	.LCFI2:
  99              		.cfi_def_cfa 7, 8
 100 0037 C3       		ret
 101              		.cfi_endproc
 102              	.LFE6:
 104              		.section	.text.mbedtls_ecp_grp_id_list,"ax",@progbits
 105              		.globl	mbedtls_ecp_grp_id_list
 107              	mbedtls_ecp_grp_id_list:
 108              	.LFB7:
 438:/home/xingli/share/LiteOS_Lab/network/dtls/mbedtls/mbedtls-2.16.2/library/ecp.c **** 
 439:/home/xingli/share/LiteOS_Lab/network/dtls/mbedtls/mbedtls-2.16.2/library/ecp.c **** /*
 440:/home/xingli/share/LiteOS_Lab/network/dtls/mbedtls/mbedtls-2.16.2/library/ecp.c ****  * List of supported curves, group ID only
 441:/home/xingli/share/LiteOS_Lab/network/dtls/mbedtls/mbedtls-2.16.2/library/ecp.c ****  */
 442:/home/xingli/share/LiteOS_Lab/network/dtls/mbedtls/mbedtls-2.16.2/library/ecp.c **** const mbedtls_ecp_group_id *mbedtls_ecp_grp_id_list( void )
 443:/home/xingli/share/LiteOS_Lab/network/dtls/mbedtls/mbedtls-2.16.2/library/ecp.c **** {
 109              		.loc 1 443 1
 110              		.cfi_startproc
 111 0000 F30F1EFA 		endbr64
 112 0004 55       		pushq	%rbp
 113              	.LCFI3:
 114              		.cfi_def_cfa_offset 16
 115              		.cfi_offset 6, -16
 116 0005 4889E5   		movq	%rsp, %rbp
 117              	.LCFI4:
GAS LISTING /tmp/ccajKZL5.s 			page 11


 118              		.cfi_def_cfa_register 6
 119 0008 4883EC20 		subq	$32, %rsp
 120              		.loc 1 443 1
 121 000c 64488B04 		movq	%fs:40, %rax
 121      25280000 
 121      00
 122 0015 488945F8 		movq	%rax, -8(%rbp)
 123 0019 31C0     		xorl	%eax, %eax
 444:/home/xingli/share/LiteOS_Lab/network/dtls/mbedtls/mbedtls-2.16.2/library/ecp.c ****     static int init_done = 0;
 445:/home/xingli/share/LiteOS_Lab/network/dtls/mbedtls/mbedtls-2.16.2/library/ecp.c **** 
 446:/home/xingli/share/LiteOS_Lab/network/dtls/mbedtls/mbedtls-2.16.2/library/ecp.c ****     if( ! init_done )
 124              		.loc 1 446 9
 125 001b 8B050000 		movl	init_done.3593(%rip), %eax
 125      0000
 126              		.loc 1 446 7
 127 0021 85C0     		testl	%eax, %eax
 128 0023 756A     		jne	.L5
 129              	.LBB2:
 447:/home/xingli/share/LiteOS_Lab/network/dtls/mbedtls/mbedtls-2.16.2/library/ecp.c ****     {
 448:/home/xingli/share/LiteOS_Lab/network/dtls/mbedtls/mbedtls-2.16.2/library/ecp.c ****         size_t i = 0;
 130              		.loc 1 448 16
 131 0025 48C745E8 		movq	$0, -24(%rbp)
 131      00000000 
 449:/home/xingli/share/LiteOS_Lab/network/dtls/mbedtls/mbedtls-2.16.2/library/ecp.c ****         const mbedtls_ecp_curve_info *curve_info;
 450:/home/xingli/share/LiteOS_Lab/network/dtls/mbedtls/mbedtls-2.16.2/library/ecp.c **** 
 451:/home/xingli/share/LiteOS_Lab/network/dtls/mbedtls/mbedtls-2.16.2/library/ecp.c ****         for( curve_info = mbedtls_ecp_curve_list();
 132              		.loc 1 451 27
 133 002d E8000000 		call	mbedtls_ecp_curve_list
 133      00
 134 0032 488945F0 		movq	%rax, -16(%rbp)
 135              		.loc 1 451 9
 136 0036 EB29     		jmp	.L6
 137              	.L7:
 452:/home/xingli/share/LiteOS_Lab/network/dtls/mbedtls/mbedtls-2.16.2/library/ecp.c ****              curve_info->grp_id != MBEDTLS_ECP_DP_NONE;
 453:/home/xingli/share/LiteOS_Lab/network/dtls/mbedtls/mbedtls-2.16.2/library/ecp.c ****              curve_info++ )
 454:/home/xingli/share/LiteOS_Lab/network/dtls/mbedtls/mbedtls-2.16.2/library/ecp.c ****         {
 455:/home/xingli/share/LiteOS_Lab/network/dtls/mbedtls/mbedtls-2.16.2/library/ecp.c ****             ecp_supported_grp_id[i++] = curve_info->grp_id;
 138              		.loc 1 455 35
 139 0038 488B45E8 		movq	-24(%rbp), %rax
 140 003c 488D5001 		leaq	1(%rax), %rdx
 141 0040 488955E8 		movq	%rdx, -24(%rbp)
 142              		.loc 1 455 51
 143 0044 488B55F0 		movq	-16(%rbp), %rdx
 144 0048 8B12     		movl	(%rdx), %edx
 145              		.loc 1 455 39
 146 004a 488D0C85 		leaq	0(,%rax,4), %rcx
 146      00000000 
 147 0052 488D0500 		leaq	ecp_supported_grp_id(%rip), %rax
 147      000000
 148 0059 891401   		movl	%edx, (%rcx,%rax)
 453:/home/xingli/share/LiteOS_Lab/network/dtls/mbedtls/mbedtls-2.16.2/library/ecp.c ****         {
 149              		.loc 1 453 24
 150 005c 488345F0 		addq	$16, -16(%rbp)
 150      10
 151              	.L6:
 452:/home/xingli/share/LiteOS_Lab/network/dtls/mbedtls/mbedtls-2.16.2/library/ecp.c ****              curve_info->grp_id != MBEDTLS_ECP_DP_NONE;
 152              		.loc 1 452 24 discriminator 1
GAS LISTING /tmp/ccajKZL5.s 			page 12


 153 0061 488B45F0 		movq	-16(%rbp), %rax
 154 0065 8B00     		movl	(%rax), %eax
 451:/home/xingli/share/LiteOS_Lab/network/dtls/mbedtls/mbedtls-2.16.2/library/ecp.c ****              curve_info->grp_id != MBEDTLS_ECP_DP_NONE;
 155              		.loc 1 451 9 discriminator 1
 156 0067 85C0     		testl	%eax, %eax
 157 0069 75CD     		jne	.L7
 456:/home/xingli/share/LiteOS_Lab/network/dtls/mbedtls/mbedtls-2.16.2/library/ecp.c ****         }
 457:/home/xingli/share/LiteOS_Lab/network/dtls/mbedtls/mbedtls-2.16.2/library/ecp.c ****         ecp_supported_grp_id[i] = MBEDTLS_ECP_DP_NONE;
 158              		.loc 1 457 33
 159 006b 488B45E8 		movq	-24(%rbp), %rax
 160 006f 488D1485 		leaq	0(,%rax,4), %rdx
 160      00000000 
 161 0077 488D0500 		leaq	ecp_supported_grp_id(%rip), %rax
 161      000000
 162 007e C7040200 		movl	$0, (%rdx,%rax)
 162      000000
 458:/home/xingli/share/LiteOS_Lab/network/dtls/mbedtls/mbedtls-2.16.2/library/ecp.c **** 
 459:/home/xingli/share/LiteOS_Lab/network/dtls/mbedtls/mbedtls-2.16.2/library/ecp.c ****         init_done = 1;
 163              		.loc 1 459 19
 164 0085 C7050000 		movl	$1, init_done.3593(%rip)
 164      00000100 
 164      0000
 165              	.L5:
 166              	.LBE2:
 460:/home/xingli/share/LiteOS_Lab/network/dtls/mbedtls/mbedtls-2.16.2/library/ecp.c ****     }
 461:/home/xingli/share/LiteOS_Lab/network/dtls/mbedtls/mbedtls-2.16.2/library/ecp.c **** 
 462:/home/xingli/share/LiteOS_Lab/network/dtls/mbedtls/mbedtls-2.16.2/library/ecp.c ****     return( ecp_supported_grp_id );
 167              		.loc 1 462 11
 168 008f 488D0500 		leaq	ecp_supported_grp_id(%rip), %rax
 168      000000
 463:/home/xingli/share/LiteOS_Lab/network/dtls/mbedtls/mbedtls-2.16.2/library/ecp.c **** }
 169              		.loc 1 463 1
 170 0096 488B75F8 		movq	-8(%rbp), %rsi
 171 009a 64483334 		xorq	%fs:40, %rsi
 171      25280000 
 171      00
 172 00a3 7405     		je	.L9
 173 00a5 E8000000 		call	__stack_chk_fail@PLT
 173      00
 174              	.L9:
 175 00aa C9       		leave
 176              	.LCFI5:
 177              		.cfi_def_cfa 7, 8
 178 00ab C3       		ret
 179              		.cfi_endproc
 180              	.LFE7:
 182              		.section	.text.mbedtls_ecp_curve_info_from_grp_id,"ax",@progbits
 183              		.globl	mbedtls_ecp_curve_info_from_grp_id
 185              	mbedtls_ecp_curve_info_from_grp_id:
 186              	.LFB8:
 464:/home/xingli/share/LiteOS_Lab/network/dtls/mbedtls/mbedtls-2.16.2/library/ecp.c **** 
 465:/home/xingli/share/LiteOS_Lab/network/dtls/mbedtls/mbedtls-2.16.2/library/ecp.c **** /*
 466:/home/xingli/share/LiteOS_Lab/network/dtls/mbedtls/mbedtls-2.16.2/library/ecp.c ****  * Get the curve info for the internal identifier
 467:/home/xingli/share/LiteOS_Lab/network/dtls/mbedtls/mbedtls-2.16.2/library/ecp.c ****  */
 468:/home/xingli/share/LiteOS_Lab/network/dtls/mbedtls/mbedtls-2.16.2/library/ecp.c **** const mbedtls_ecp_curve_info *mbedtls_ecp_curve_info_from_grp_id( mbedtls_ecp_group_id grp_id )
 469:/home/xingli/share/LiteOS_Lab/network/dtls/mbedtls/mbedtls-2.16.2/library/ecp.c **** {
 187              		.loc 1 469 1
GAS LISTING /tmp/ccajKZL5.s 			page 13


 188              		.cfi_startproc
 189 0000 F30F1EFA 		endbr64
 190 0004 55       		pushq	%rbp
 191              	.LCFI6:
 192              		.cfi_def_cfa_offset 16
 193              		.cfi_offset 6, -16
 194 0005 4889E5   		movq	%rsp, %rbp
 195              	.LCFI7:
 196              		.cfi_def_cfa_register 6
 197 0008 4883EC20 		subq	$32, %rsp
 198 000c 897DEC   		movl	%edi, -20(%rbp)
 199              		.loc 1 469 1
 200 000f 64488B04 		movq	%fs:40, %rax
 200      25280000 
 200      00
 201 0018 488945F8 		movq	%rax, -8(%rbp)
 202 001c 31C0     		xorl	%eax, %eax
 470:/home/xingli/share/LiteOS_Lab/network/dtls/mbedtls/mbedtls-2.16.2/library/ecp.c ****     const mbedtls_ecp_curve_info *curve_info;
 471:/home/xingli/share/LiteOS_Lab/network/dtls/mbedtls/mbedtls-2.16.2/library/ecp.c **** 
 472:/home/xingli/share/LiteOS_Lab/network/dtls/mbedtls/mbedtls-2.16.2/library/ecp.c ****     for( curve_info = mbedtls_ecp_curve_list();
 203              		.loc 1 472 23
 204 001e E8000000 		call	mbedtls_ecp_curve_list
 204      00
 205 0023 488945F0 		movq	%rax, -16(%rbp)
 206              		.loc 1 472 5
 207 0027 EB16     		jmp	.L11
 208              	.L14:
 473:/home/xingli/share/LiteOS_Lab/network/dtls/mbedtls/mbedtls-2.16.2/library/ecp.c ****          curve_info->grp_id != MBEDTLS_ECP_DP_NONE;
 474:/home/xingli/share/LiteOS_Lab/network/dtls/mbedtls/mbedtls-2.16.2/library/ecp.c ****          curve_info++ )
 475:/home/xingli/share/LiteOS_Lab/network/dtls/mbedtls/mbedtls-2.16.2/library/ecp.c ****     {
 476:/home/xingli/share/LiteOS_Lab/network/dtls/mbedtls/mbedtls-2.16.2/library/ecp.c ****         if( curve_info->grp_id == grp_id )
 209              		.loc 1 476 23
 210 0029 488B45F0 		movq	-16(%rbp), %rax
 211 002d 8B00     		movl	(%rax), %eax
 212              		.loc 1 476 11
 213 002f 3945EC   		cmpl	%eax, -20(%rbp)
 214 0032 7506     		jne	.L12
 477:/home/xingli/share/LiteOS_Lab/network/dtls/mbedtls/mbedtls-2.16.2/library/ecp.c ****             return( curve_info );
 215              		.loc 1 477 19
 216 0034 488B45F0 		movq	-16(%rbp), %rax
 217 0038 EB14     		jmp	.L13
 218              	.L12:
 474:/home/xingli/share/LiteOS_Lab/network/dtls/mbedtls/mbedtls-2.16.2/library/ecp.c ****     {
 219              		.loc 1 474 20
 220 003a 488345F0 		addq	$16, -16(%rbp)
 220      10
 221              	.L11:
 473:/home/xingli/share/LiteOS_Lab/network/dtls/mbedtls/mbedtls-2.16.2/library/ecp.c ****          curve_info->grp_id != MBEDTLS_ECP_DP_NONE;
 222              		.loc 1 473 20 discriminator 1
 223 003f 488B45F0 		movq	-16(%rbp), %rax
 224 0043 8B00     		movl	(%rax), %eax
 472:/home/xingli/share/LiteOS_Lab/network/dtls/mbedtls/mbedtls-2.16.2/library/ecp.c ****          curve_info->grp_id != MBEDTLS_ECP_DP_NONE;
 225              		.loc 1 472 5 discriminator 1
 226 0045 85C0     		testl	%eax, %eax
 227 0047 75E0     		jne	.L14
 478:/home/xingli/share/LiteOS_Lab/network/dtls/mbedtls/mbedtls-2.16.2/library/ecp.c ****     }
 479:/home/xingli/share/LiteOS_Lab/network/dtls/mbedtls/mbedtls-2.16.2/library/ecp.c **** 
GAS LISTING /tmp/ccajKZL5.s 			page 14


 480:/home/xingli/share/LiteOS_Lab/network/dtls/mbedtls/mbedtls-2.16.2/library/ecp.c ****     return( NULL );
 228              		.loc 1 480 11
 229 0049 B8000000 		movl	$0, %eax
 229      00
 230              	.L13:
 481:/home/xingli/share/LiteOS_Lab/network/dtls/mbedtls/mbedtls-2.16.2/library/ecp.c **** }
 231              		.loc 1 481 1
 232 004e 488B55F8 		movq	-8(%rbp), %rdx
 233 0052 64483314 		xorq	%fs:40, %rdx
 233      25280000 
 233      00
 234 005b 7405     		je	.L15
 235 005d E8000000 		call	__stack_chk_fail@PLT
 235      00
 236              	.L15:
 237 0062 C9       		leave
 238              	.LCFI8:
 239              		.cfi_def_cfa 7, 8
 240 0063 C3       		ret
 241              		.cfi_endproc
 242              	.LFE8:
 244              		.section	.text.mbedtls_ecp_curve_info_from_tls_id,"ax",@progbits
 245              		.globl	mbedtls_ecp_curve_info_from_tls_id
 247              	mbedtls_ecp_curve_info_from_tls_id:
 248              	.LFB9:
 482:/home/xingli/share/LiteOS_Lab/network/dtls/mbedtls/mbedtls-2.16.2/library/ecp.c **** 
 483:/home/xingli/share/LiteOS_Lab/network/dtls/mbedtls/mbedtls-2.16.2/library/ecp.c **** /*
 484:/home/xingli/share/LiteOS_Lab/network/dtls/mbedtls/mbedtls-2.16.2/library/ecp.c ****  * Get the curve info from the TLS identifier
 485:/home/xingli/share/LiteOS_Lab/network/dtls/mbedtls/mbedtls-2.16.2/library/ecp.c ****  */
 486:/home/xingli/share/LiteOS_Lab/network/dtls/mbedtls/mbedtls-2.16.2/library/ecp.c **** const mbedtls_ecp_curve_info *mbedtls_ecp_curve_info_from_tls_id( uint16_t tls_id )
 487:/home/xingli/share/LiteOS_Lab/network/dtls/mbedtls/mbedtls-2.16.2/library/ecp.c **** {
 249              		.loc 1 487 1
 250              		.cfi_startproc
 251 0000 F30F1EFA 		endbr64
 252 0004 55       		pushq	%rbp
 253              	.LCFI9:
 254              		.cfi_def_cfa_offset 16
 255              		.cfi_offset 6, -16
 256 0005 4889E5   		movq	%rsp, %rbp
 257              	.LCFI10:
 258              		.cfi_def_cfa_register 6
 259 0008 4883EC20 		subq	$32, %rsp
 260 000c 89F8     		movl	%edi, %eax
 261 000e 668945EC 		movw	%ax, -20(%rbp)
 262              		.loc 1 487 1
 263 0012 64488B04 		movq	%fs:40, %rax
 263      25280000 
 263      00
 264 001b 488945F8 		movq	%rax, -8(%rbp)
 265 001f 31C0     		xorl	%eax, %eax
 488:/home/xingli/share/LiteOS_Lab/network/dtls/mbedtls/mbedtls-2.16.2/library/ecp.c ****     const mbedtls_ecp_curve_info *curve_info;
 489:/home/xingli/share/LiteOS_Lab/network/dtls/mbedtls/mbedtls-2.16.2/library/ecp.c **** 
 490:/home/xingli/share/LiteOS_Lab/network/dtls/mbedtls/mbedtls-2.16.2/library/ecp.c ****     for( curve_info = mbedtls_ecp_curve_list();
 266              		.loc 1 490 23
 267 0021 E8000000 		call	mbedtls_ecp_curve_list
 267      00
 268 0026 488945F0 		movq	%rax, -16(%rbp)
GAS LISTING /tmp/ccajKZL5.s 			page 15


 269              		.loc 1 490 5
 270 002a EB19     		jmp	.L17
 271              	.L20:
 491:/home/xingli/share/LiteOS_Lab/network/dtls/mbedtls/mbedtls-2.16.2/library/ecp.c ****          curve_info->grp_id != MBEDTLS_ECP_DP_NONE;
 492:/home/xingli/share/LiteOS_Lab/network/dtls/mbedtls/mbedtls-2.16.2/library/ecp.c ****          curve_info++ )
 493:/home/xingli/share/LiteOS_Lab/network/dtls/mbedtls/mbedtls-2.16.2/library/ecp.c ****     {
 494:/home/xingli/share/LiteOS_Lab/network/dtls/mbedtls/mbedtls-2.16.2/library/ecp.c ****         if( curve_info->tls_id == tls_id )
 272              		.loc 1 494 23
 273 002c 488B45F0 		movq	-16(%rbp), %rax
 274 0030 0FB74004 		movzwl	4(%rax), %eax
 275              		.loc 1 494 11
 276 0034 663945EC 		cmpw	%ax, -20(%rbp)
 277 0038 7506     		jne	.L18
 495:/home/xingli/share/LiteOS_Lab/network/dtls/mbedtls/mbedtls-2.16.2/library/ecp.c ****             return( curve_info );
 278              		.loc 1 495 19
 279 003a 488B45F0 		movq	-16(%rbp), %rax
 280 003e EB14     		jmp	.L19
 281              	.L18:
 492:/home/xingli/share/LiteOS_Lab/network/dtls/mbedtls/mbedtls-2.16.2/library/ecp.c ****     {
 282              		.loc 1 492 20
 283 0040 488345F0 		addq	$16, -16(%rbp)
 283      10
 284              	.L17:
 491:/home/xingli/share/LiteOS_Lab/network/dtls/mbedtls/mbedtls-2.16.2/library/ecp.c ****          curve_info->grp_id != MBEDTLS_ECP_DP_NONE;
 285              		.loc 1 491 20 discriminator 1
 286 0045 488B45F0 		movq	-16(%rbp), %rax
 287 0049 8B00     		movl	(%rax), %eax
 490:/home/xingli/share/LiteOS_Lab/network/dtls/mbedtls/mbedtls-2.16.2/library/ecp.c ****          curve_info->grp_id != MBEDTLS_ECP_DP_NONE;
 288              		.loc 1 490 5 discriminator 1
 289 004b 85C0     		testl	%eax, %eax
 290 004d 75DD     		jne	.L20
 496:/home/xingli/share/LiteOS_Lab/network/dtls/mbedtls/mbedtls-2.16.2/library/ecp.c ****     }
 497:/home/xingli/share/LiteOS_Lab/network/dtls/mbedtls/mbedtls-2.16.2/library/ecp.c **** 
 498:/home/xingli/share/LiteOS_Lab/network/dtls/mbedtls/mbedtls-2.16.2/library/ecp.c ****     return( NULL );
 291              		.loc 1 498 11
 292 004f B8000000 		movl	$0, %eax
 292      00
 293              	.L19:
 499:/home/xingli/share/LiteOS_Lab/network/dtls/mbedtls/mbedtls-2.16.2/library/ecp.c **** }
 294              		.loc 1 499 1
 295 0054 488B55F8 		movq	-8(%rbp), %rdx
 296 0058 64483314 		xorq	%fs:40, %rdx
 296      25280000 
 296      00
 297 0061 7405     		je	.L21
 298 0063 E8000000 		call	__stack_chk_fail@PLT
 298      00
 299              	.L21:
 300 0068 C9       		leave
 301              	.LCFI11:
 302              		.cfi_def_cfa 7, 8
 303 0069 C3       		ret
 304              		.cfi_endproc
 305              	.LFE9:
 307              		.section	.text.mbedtls_ecp_curve_info_from_name,"ax",@progbits
 308              		.globl	mbedtls_ecp_curve_info_from_name
 310              	mbedtls_ecp_curve_info_from_name:
GAS LISTING /tmp/ccajKZL5.s 			page 16


 311              	.LFB10:
 500:/home/xingli/share/LiteOS_Lab/network/dtls/mbedtls/mbedtls-2.16.2/library/ecp.c **** 
 501:/home/xingli/share/LiteOS_Lab/network/dtls/mbedtls/mbedtls-2.16.2/library/ecp.c **** /*
 502:/home/xingli/share/LiteOS_Lab/network/dtls/mbedtls/mbedtls-2.16.2/library/ecp.c ****  * Get the curve info from the name
 503:/home/xingli/share/LiteOS_Lab/network/dtls/mbedtls/mbedtls-2.16.2/library/ecp.c ****  */
 504:/home/xingli/share/LiteOS_Lab/network/dtls/mbedtls/mbedtls-2.16.2/library/ecp.c **** const mbedtls_ecp_curve_info *mbedtls_ecp_curve_info_from_name( const char *name )
 505:/home/xingli/share/LiteOS_Lab/network/dtls/mbedtls/mbedtls-2.16.2/library/ecp.c **** {
 312              		.loc 1 505 1
 313              		.cfi_startproc
 314 0000 F30F1EFA 		endbr64
 315 0004 55       		pushq	%rbp
 316              	.LCFI12:
 317              		.cfi_def_cfa_offset 16
 318              		.cfi_offset 6, -16
 319 0005 4889E5   		movq	%rsp, %rbp
 320              	.LCFI13:
 321              		.cfi_def_cfa_register 6
 322 0008 4883EC20 		subq	$32, %rsp
 323 000c 48897DE8 		movq	%rdi, -24(%rbp)
 324              		.loc 1 505 1
 325 0010 64488B04 		movq	%fs:40, %rax
 325      25280000 
 325      00
 326 0019 488945F8 		movq	%rax, -8(%rbp)
 327 001d 31C0     		xorl	%eax, %eax
 506:/home/xingli/share/LiteOS_Lab/network/dtls/mbedtls/mbedtls-2.16.2/library/ecp.c ****     const mbedtls_ecp_curve_info *curve_info;
 507:/home/xingli/share/LiteOS_Lab/network/dtls/mbedtls/mbedtls-2.16.2/library/ecp.c **** 
 508:/home/xingli/share/LiteOS_Lab/network/dtls/mbedtls/mbedtls-2.16.2/library/ecp.c ****     if( name == NULL )
 328              		.loc 1 508 7
 329 001f 48837DE8 		cmpq	$0, -24(%rbp)
 329      00
 330 0024 7507     		jne	.L23
 509:/home/xingli/share/LiteOS_Lab/network/dtls/mbedtls/mbedtls-2.16.2/library/ecp.c ****         return( NULL );
 331              		.loc 1 509 15
 332 0026 B8000000 		movl	$0, %eax
 332      00
 333 002b EB40     		jmp	.L24
 334              	.L23:
 510:/home/xingli/share/LiteOS_Lab/network/dtls/mbedtls/mbedtls-2.16.2/library/ecp.c **** 
 511:/home/xingli/share/LiteOS_Lab/network/dtls/mbedtls/mbedtls-2.16.2/library/ecp.c ****     for( curve_info = mbedtls_ecp_curve_list();
 335              		.loc 1 511 23
 336 002d E8000000 		call	mbedtls_ecp_curve_list
 336      00
 337 0032 488945F0 		movq	%rax, -16(%rbp)
 338              		.loc 1 511 5
 339 0036 EB26     		jmp	.L25
 340              	.L27:
 512:/home/xingli/share/LiteOS_Lab/network/dtls/mbedtls/mbedtls-2.16.2/library/ecp.c ****          curve_info->grp_id != MBEDTLS_ECP_DP_NONE;
 513:/home/xingli/share/LiteOS_Lab/network/dtls/mbedtls/mbedtls-2.16.2/library/ecp.c ****          curve_info++ )
 514:/home/xingli/share/LiteOS_Lab/network/dtls/mbedtls/mbedtls-2.16.2/library/ecp.c ****     {
 515:/home/xingli/share/LiteOS_Lab/network/dtls/mbedtls/mbedtls-2.16.2/library/ecp.c ****         if( strcmp( curve_info->name, name ) == 0 )
 341              		.loc 1 515 13
 342 0038 488B45F0 		movq	-16(%rbp), %rax
 343 003c 488B4008 		movq	8(%rax), %rax
 344 0040 488B55E8 		movq	-24(%rbp), %rdx
 345 0044 4889D6   		movq	%rdx, %rsi
 346 0047 4889C7   		movq	%rax, %rdi
GAS LISTING /tmp/ccajKZL5.s 			page 17


 347 004a E8000000 		call	strcmp@PLT
 347      00
 348              		.loc 1 515 11
 349 004f 85C0     		testl	%eax, %eax
 350 0051 7506     		jne	.L26
 516:/home/xingli/share/LiteOS_Lab/network/dtls/mbedtls/mbedtls-2.16.2/library/ecp.c ****             return( curve_info );
 351              		.loc 1 516 19
 352 0053 488B45F0 		movq	-16(%rbp), %rax
 353 0057 EB14     		jmp	.L24
 354              	.L26:
 513:/home/xingli/share/LiteOS_Lab/network/dtls/mbedtls/mbedtls-2.16.2/library/ecp.c ****     {
 355              		.loc 1 513 20
 356 0059 488345F0 		addq	$16, -16(%rbp)
 356      10
 357              	.L25:
 512:/home/xingli/share/LiteOS_Lab/network/dtls/mbedtls/mbedtls-2.16.2/library/ecp.c ****          curve_info->grp_id != MBEDTLS_ECP_DP_NONE;
 358              		.loc 1 512 20 discriminator 1
 359 005e 488B45F0 		movq	-16(%rbp), %rax
 360 0062 8B00     		movl	(%rax), %eax
 511:/home/xingli/share/LiteOS_Lab/network/dtls/mbedtls/mbedtls-2.16.2/library/ecp.c ****          curve_info->grp_id != MBEDTLS_ECP_DP_NONE;
 361              		.loc 1 511 5 discriminator 1
 362 0064 85C0     		testl	%eax, %eax
 363 0066 75D0     		jne	.L27
 517:/home/xingli/share/LiteOS_Lab/network/dtls/mbedtls/mbedtls-2.16.2/library/ecp.c ****     }
 518:/home/xingli/share/LiteOS_Lab/network/dtls/mbedtls/mbedtls-2.16.2/library/ecp.c **** 
 519:/home/xingli/share/LiteOS_Lab/network/dtls/mbedtls/mbedtls-2.16.2/library/ecp.c ****     return( NULL );
 364              		.loc 1 519 11
 365 0068 B8000000 		movl	$0, %eax
 365      00
 366              	.L24:
 520:/home/xingli/share/LiteOS_Lab/network/dtls/mbedtls/mbedtls-2.16.2/library/ecp.c **** }
 367              		.loc 1 520 1
 368 006d 488B4DF8 		movq	-8(%rbp), %rcx
 369 0071 6448330C 		xorq	%fs:40, %rcx
 369      25280000 
 369      00
 370 007a 7405     		je	.L28
 371 007c E8000000 		call	__stack_chk_fail@PLT
 371      00
 372              	.L28:
 373 0081 C9       		leave
 374              	.LCFI14:
 375              		.cfi_def_cfa 7, 8
 376 0082 C3       		ret
 377              		.cfi_endproc
 378              	.LFE10:
 380              		.section	.text.ecp_get_type,"ax",@progbits
 382              	ecp_get_type:
 383              	.LFB11:
 521:/home/xingli/share/LiteOS_Lab/network/dtls/mbedtls/mbedtls-2.16.2/library/ecp.c **** 
 522:/home/xingli/share/LiteOS_Lab/network/dtls/mbedtls/mbedtls-2.16.2/library/ecp.c **** /*
 523:/home/xingli/share/LiteOS_Lab/network/dtls/mbedtls/mbedtls-2.16.2/library/ecp.c ****  * Get the type of a curve
 524:/home/xingli/share/LiteOS_Lab/network/dtls/mbedtls/mbedtls-2.16.2/library/ecp.c ****  */
 525:/home/xingli/share/LiteOS_Lab/network/dtls/mbedtls/mbedtls-2.16.2/library/ecp.c **** static inline ecp_curve_type ecp_get_type( const mbedtls_ecp_group *grp )
 526:/home/xingli/share/LiteOS_Lab/network/dtls/mbedtls/mbedtls-2.16.2/library/ecp.c **** {
 384              		.loc 1 526 1
 385              		.cfi_startproc
GAS LISTING /tmp/ccajKZL5.s 			page 18


 386 0000 55       		pushq	%rbp
 387              	.LCFI15:
 388              		.cfi_def_cfa_offset 16
 389              		.cfi_offset 6, -16
 390 0001 4889E5   		movq	%rsp, %rbp
 391              	.LCFI16:
 392              		.cfi_def_cfa_register 6
 393 0004 4883EC20 		subq	$32, %rsp
 394 0008 48897DE8 		movq	%rdi, -24(%rbp)
 395              		.loc 1 526 1
 396 000c 64488B04 		movq	%fs:40, %rax
 396      25280000 
 396      00
 397 0015 488945F8 		movq	%rax, -8(%rbp)
 398 0019 31C0     		xorl	%eax, %eax
 527:/home/xingli/share/LiteOS_Lab/network/dtls/mbedtls/mbedtls-2.16.2/library/ecp.c ****     if( grp->G.X.p == NULL )
 399              		.loc 1 527 17
 400 001b 488B45E8 		movq	-24(%rbp), %rax
 401 001f 488B4060 		movq	96(%rax), %rax
 402              		.loc 1 527 7
 403 0023 4885C0   		testq	%rax, %rax
 404 0026 7507     		jne	.L30
 528:/home/xingli/share/LiteOS_Lab/network/dtls/mbedtls/mbedtls-2.16.2/library/ecp.c ****         return( ECP_TYPE_NONE );
 405              		.loc 1 528 15
 406 0028 B8000000 		movl	$0, %eax
 406      00
 407 002d EB19     		jmp	.L31
 408              	.L30:
 529:/home/xingli/share/LiteOS_Lab/network/dtls/mbedtls/mbedtls-2.16.2/library/ecp.c **** 
 530:/home/xingli/share/LiteOS_Lab/network/dtls/mbedtls/mbedtls-2.16.2/library/ecp.c ****     if( grp->G.Y.p == NULL )
 409              		.loc 1 530 17
 410 002f 488B45E8 		movq	-24(%rbp), %rax
 411 0033 488B4078 		movq	120(%rax), %rax
 412              		.loc 1 530 7
 413 0037 4885C0   		testq	%rax, %rax
 414 003a 7507     		jne	.L32
 531:/home/xingli/share/LiteOS_Lab/network/dtls/mbedtls/mbedtls-2.16.2/library/ecp.c ****         return( ECP_TYPE_MONTGOMERY );
 415              		.loc 1 531 15
 416 003c B8020000 		movl	$2, %eax
 416      00
 417 0041 EB05     		jmp	.L31
 418              	.L32:
 532:/home/xingli/share/LiteOS_Lab/network/dtls/mbedtls/mbedtls-2.16.2/library/ecp.c ****     else
 533:/home/xingli/share/LiteOS_Lab/network/dtls/mbedtls/mbedtls-2.16.2/library/ecp.c ****         return( ECP_TYPE_SHORT_WEIERSTRASS );
 419              		.loc 1 533 15
 420 0043 B8010000 		movl	$1, %eax
 420      00
 421              	.L31:
 534:/home/xingli/share/LiteOS_Lab/network/dtls/mbedtls/mbedtls-2.16.2/library/ecp.c **** }
 422              		.loc 1 534 1
 423 0048 488B55F8 		movq	-8(%rbp), %rdx
 424 004c 64483314 		xorq	%fs:40, %rdx
 424      25280000 
 424      00
 425 0055 7405     		je	.L33
 426 0057 E8000000 		call	__stack_chk_fail@PLT
 426      00
GAS LISTING /tmp/ccajKZL5.s 			page 19


 427              	.L33:
 428 005c C9       		leave
 429              	.LCFI17:
 430              		.cfi_def_cfa 7, 8
 431 005d C3       		ret
 432              		.cfi_endproc
 433              	.LFE11:
 435              		.section	.text.mbedtls_ecp_point_init,"ax",@progbits
 436              		.globl	mbedtls_ecp_point_init
 438              	mbedtls_ecp_point_init:
 439              	.LFB12:
 535:/home/xingli/share/LiteOS_Lab/network/dtls/mbedtls/mbedtls-2.16.2/library/ecp.c **** 
 536:/home/xingli/share/LiteOS_Lab/network/dtls/mbedtls/mbedtls-2.16.2/library/ecp.c **** /*
 537:/home/xingli/share/LiteOS_Lab/network/dtls/mbedtls/mbedtls-2.16.2/library/ecp.c ****  * Initialize (the components of) a point
 538:/home/xingli/share/LiteOS_Lab/network/dtls/mbedtls/mbedtls-2.16.2/library/ecp.c ****  */
 539:/home/xingli/share/LiteOS_Lab/network/dtls/mbedtls/mbedtls-2.16.2/library/ecp.c **** void mbedtls_ecp_point_init( mbedtls_ecp_point *pt )
 540:/home/xingli/share/LiteOS_Lab/network/dtls/mbedtls/mbedtls-2.16.2/library/ecp.c **** {
 440              		.loc 1 540 1
 441              		.cfi_startproc
 442 0000 F30F1EFA 		endbr64
 443 0004 55       		pushq	%rbp
 444              	.LCFI18:
 445              		.cfi_def_cfa_offset 16
 446              		.cfi_offset 6, -16
 447 0005 4889E5   		movq	%rsp, %rbp
 448              	.LCFI19:
 449              		.cfi_def_cfa_register 6
 450 0008 4883EC20 		subq	$32, %rsp
 451 000c 48897DE8 		movq	%rdi, -24(%rbp)
 452              		.loc 1 540 1
 453 0010 64488B04 		movq	%fs:40, %rax
 453      25280000 
 453      00
 454 0019 488945F8 		movq	%rax, -8(%rbp)
 455 001d 31C0     		xorl	%eax, %eax
 541:/home/xingli/share/LiteOS_Lab/network/dtls/mbedtls/mbedtls-2.16.2/library/ecp.c ****     ECP_VALIDATE( pt != NULL );
 542:/home/xingli/share/LiteOS_Lab/network/dtls/mbedtls/mbedtls-2.16.2/library/ecp.c **** 
 543:/home/xingli/share/LiteOS_Lab/network/dtls/mbedtls/mbedtls-2.16.2/library/ecp.c ****     mbedtls_mpi_init( &pt->X );
 456              		.loc 1 543 5
 457 001f 488B45E8 		movq	-24(%rbp), %rax
 458 0023 4889C7   		movq	%rax, %rdi
 459 0026 E8000000 		call	mbedtls_mpi_init@PLT
 459      00
 544:/home/xingli/share/LiteOS_Lab/network/dtls/mbedtls/mbedtls-2.16.2/library/ecp.c ****     mbedtls_mpi_init( &pt->Y );
 460              		.loc 1 544 5
 461 002b 488B45E8 		movq	-24(%rbp), %rax
 462 002f 4883C018 		addq	$24, %rax
 463 0033 4889C7   		movq	%rax, %rdi
 464 0036 E8000000 		call	mbedtls_mpi_init@PLT
 464      00
 545:/home/xingli/share/LiteOS_Lab/network/dtls/mbedtls/mbedtls-2.16.2/library/ecp.c ****     mbedtls_mpi_init( &pt->Z );
 465              		.loc 1 545 5
 466 003b 488B45E8 		movq	-24(%rbp), %rax
 467 003f 4883C030 		addq	$48, %rax
 468 0043 4889C7   		movq	%rax, %rdi
 469 0046 E8000000 		call	mbedtls_mpi_init@PLT
 469      00
GAS LISTING /tmp/ccajKZL5.s 			page 20


 546:/home/xingli/share/LiteOS_Lab/network/dtls/mbedtls/mbedtls-2.16.2/library/ecp.c **** }
 470              		.loc 1 546 1
 471 004b 90       		nop
 472 004c 488B45F8 		movq	-8(%rbp), %rax
 473 0050 64483304 		xorq	%fs:40, %rax
 473      25280000 
 473      00
 474 0059 7405     		je	.L35
 475 005b E8000000 		call	__stack_chk_fail@PLT
 475      00
 476              	.L35:
 477 0060 C9       		leave
 478              	.LCFI20:
 479              		.cfi_def_cfa 7, 8
 480 0061 C3       		ret
 481              		.cfi_endproc
 482              	.LFE12:
 484              		.section	.text.mbedtls_ecp_group_init,"ax",@progbits
 485              		.globl	mbedtls_ecp_group_init
 487              	mbedtls_ecp_group_init:
 488              	.LFB13:
 547:/home/xingli/share/LiteOS_Lab/network/dtls/mbedtls/mbedtls-2.16.2/library/ecp.c **** 
 548:/home/xingli/share/LiteOS_Lab/network/dtls/mbedtls/mbedtls-2.16.2/library/ecp.c **** /*
 549:/home/xingli/share/LiteOS_Lab/network/dtls/mbedtls/mbedtls-2.16.2/library/ecp.c ****  * Initialize (the components of) a group
 550:/home/xingli/share/LiteOS_Lab/network/dtls/mbedtls/mbedtls-2.16.2/library/ecp.c ****  */
 551:/home/xingli/share/LiteOS_Lab/network/dtls/mbedtls/mbedtls-2.16.2/library/ecp.c **** void mbedtls_ecp_group_init( mbedtls_ecp_group *grp )
 552:/home/xingli/share/LiteOS_Lab/network/dtls/mbedtls/mbedtls-2.16.2/library/ecp.c **** {
 489              		.loc 1 552 1
 490              		.cfi_startproc
 491 0000 F30F1EFA 		endbr64
 492 0004 55       		pushq	%rbp
 493              	.LCFI21:
 494              		.cfi_def_cfa_offset 16
 495              		.cfi_offset 6, -16
 496 0005 4889E5   		movq	%rsp, %rbp
 497              	.LCFI22:
 498              		.cfi_def_cfa_register 6
 499 0008 4883EC20 		subq	$32, %rsp
 500 000c 48897DE8 		movq	%rdi, -24(%rbp)
 501              		.loc 1 552 1
 502 0010 64488B04 		movq	%fs:40, %rax
 502      25280000 
 502      00
 503 0019 488945F8 		movq	%rax, -8(%rbp)
 504 001d 31C0     		xorl	%eax, %eax
 553:/home/xingli/share/LiteOS_Lab/network/dtls/mbedtls/mbedtls-2.16.2/library/ecp.c ****     ECP_VALIDATE( grp != NULL );
 554:/home/xingli/share/LiteOS_Lab/network/dtls/mbedtls/mbedtls-2.16.2/library/ecp.c **** 
 555:/home/xingli/share/LiteOS_Lab/network/dtls/mbedtls/mbedtls-2.16.2/library/ecp.c ****     grp->id = MBEDTLS_ECP_DP_NONE;
 505              		.loc 1 555 13
 506 001f 488B45E8 		movq	-24(%rbp), %rax
 507 0023 C7000000 		movl	$0, (%rax)
 507      0000
 556:/home/xingli/share/LiteOS_Lab/network/dtls/mbedtls/mbedtls-2.16.2/library/ecp.c ****     mbedtls_mpi_init( &grp->P );
 508              		.loc 1 556 5
 509 0029 488B45E8 		movq	-24(%rbp), %rax
 510 002d 4883C008 		addq	$8, %rax
 511 0031 4889C7   		movq	%rax, %rdi
GAS LISTING /tmp/ccajKZL5.s 			page 21


 512 0034 E8000000 		call	mbedtls_mpi_init@PLT
 512      00
 557:/home/xingli/share/LiteOS_Lab/network/dtls/mbedtls/mbedtls-2.16.2/library/ecp.c ****     mbedtls_mpi_init( &grp->A );
 513              		.loc 1 557 5
 514 0039 488B45E8 		movq	-24(%rbp), %rax
 515 003d 4883C020 		addq	$32, %rax
 516 0041 4889C7   		movq	%rax, %rdi
 517 0044 E8000000 		call	mbedtls_mpi_init@PLT
 517      00
 558:/home/xingli/share/LiteOS_Lab/network/dtls/mbedtls/mbedtls-2.16.2/library/ecp.c ****     mbedtls_mpi_init( &grp->B );
 518              		.loc 1 558 5
 519 0049 488B45E8 		movq	-24(%rbp), %rax
 520 004d 4883C038 		addq	$56, %rax
 521 0051 4889C7   		movq	%rax, %rdi
 522 0054 E8000000 		call	mbedtls_mpi_init@PLT
 522      00
 559:/home/xingli/share/LiteOS_Lab/network/dtls/mbedtls/mbedtls-2.16.2/library/ecp.c ****     mbedtls_ecp_point_init( &grp->G );
 523              		.loc 1 559 5
 524 0059 488B45E8 		movq	-24(%rbp), %rax
 525 005d 4883C050 		addq	$80, %rax
 526 0061 4889C7   		movq	%rax, %rdi
 527 0064 E8000000 		call	mbedtls_ecp_point_init
 527      00
 560:/home/xingli/share/LiteOS_Lab/network/dtls/mbedtls/mbedtls-2.16.2/library/ecp.c ****     mbedtls_mpi_init( &grp->N );
 528              		.loc 1 560 5
 529 0069 488B45E8 		movq	-24(%rbp), %rax
 530 006d 48059800 		addq	$152, %rax
 530      0000
 531 0073 4889C7   		movq	%rax, %rdi
 532 0076 E8000000 		call	mbedtls_mpi_init@PLT
 532      00
 561:/home/xingli/share/LiteOS_Lab/network/dtls/mbedtls/mbedtls-2.16.2/library/ecp.c ****     grp->pbits = 0;
 533              		.loc 1 561 16
 534 007b 488B45E8 		movq	-24(%rbp), %rax
 535 007f 48C780B0 		movq	$0, 176(%rax)
 535      00000000 
 535      000000
 562:/home/xingli/share/LiteOS_Lab/network/dtls/mbedtls/mbedtls-2.16.2/library/ecp.c ****     grp->nbits = 0;
 536              		.loc 1 562 16
 537 008a 488B45E8 		movq	-24(%rbp), %rax
 538 008e 48C780B8 		movq	$0, 184(%rax)
 538      00000000 
 538      000000
 563:/home/xingli/share/LiteOS_Lab/network/dtls/mbedtls/mbedtls-2.16.2/library/ecp.c ****     grp->h = 0;
 539              		.loc 1 563 12
 540 0099 488B45E8 		movq	-24(%rbp), %rax
 541 009d C780C000 		movl	$0, 192(%rax)
 541      00000000 
 541      0000
 564:/home/xingli/share/LiteOS_Lab/network/dtls/mbedtls/mbedtls-2.16.2/library/ecp.c ****     grp->modp = NULL;
 542              		.loc 1 564 15
 543 00a7 488B45E8 		movq	-24(%rbp), %rax
 544 00ab 48C780C8 		movq	$0, 200(%rax)
 544      00000000 
 544      000000
 565:/home/xingli/share/LiteOS_Lab/network/dtls/mbedtls/mbedtls-2.16.2/library/ecp.c ****     grp->t_pre = NULL;
 545              		.loc 1 565 16
GAS LISTING /tmp/ccajKZL5.s 			page 22


 546 00b6 488B45E8 		movq	-24(%rbp), %rax
 547 00ba 48C780D0 		movq	$0, 208(%rax)
 547      00000000 
 547      000000
 566:/home/xingli/share/LiteOS_Lab/network/dtls/mbedtls/mbedtls-2.16.2/library/ecp.c ****     grp->t_post = NULL;
 548              		.loc 1 566 17
 549 00c5 488B45E8 		movq	-24(%rbp), %rax
 550 00c9 48C780D8 		movq	$0, 216(%rax)
 550      00000000 
 550      000000
 567:/home/xingli/share/LiteOS_Lab/network/dtls/mbedtls/mbedtls-2.16.2/library/ecp.c ****     grp->t_data = NULL;
 551              		.loc 1 567 17
 552 00d4 488B45E8 		movq	-24(%rbp), %rax
 553 00d8 48C780E0 		movq	$0, 224(%rax)
 553      00000000 
 553      000000
 568:/home/xingli/share/LiteOS_Lab/network/dtls/mbedtls/mbedtls-2.16.2/library/ecp.c ****     grp->T = NULL;
 554              		.loc 1 568 12
 555 00e3 488B45E8 		movq	-24(%rbp), %rax
 556 00e7 48C780E8 		movq	$0, 232(%rax)
 556      00000000 
 556      000000
 569:/home/xingli/share/LiteOS_Lab/network/dtls/mbedtls/mbedtls-2.16.2/library/ecp.c ****     grp->T_size = 0;
 557              		.loc 1 569 17
 558 00f2 488B45E8 		movq	-24(%rbp), %rax
 559 00f6 48C780F0 		movq	$0, 240(%rax)
 559      00000000 
 559      000000
 570:/home/xingli/share/LiteOS_Lab/network/dtls/mbedtls/mbedtls-2.16.2/library/ecp.c **** }
 560              		.loc 1 570 1
 561 0101 90       		nop
 562 0102 488B45F8 		movq	-8(%rbp), %rax
 563 0106 64483304 		xorq	%fs:40, %rax
 563      25280000 
 563      00
 564 010f 7405     		je	.L37
 565 0111 E8000000 		call	__stack_chk_fail@PLT
 565      00
 566              	.L37:
 567 0116 C9       		leave
 568              	.LCFI23:
 569              		.cfi_def_cfa 7, 8
 570 0117 C3       		ret
 571              		.cfi_endproc
 572              	.LFE13:
 574              		.section	.text.mbedtls_ecp_keypair_init,"ax",@progbits
 575              		.globl	mbedtls_ecp_keypair_init
 577              	mbedtls_ecp_keypair_init:
 578              	.LFB14:
 571:/home/xingli/share/LiteOS_Lab/network/dtls/mbedtls/mbedtls-2.16.2/library/ecp.c **** 
 572:/home/xingli/share/LiteOS_Lab/network/dtls/mbedtls/mbedtls-2.16.2/library/ecp.c **** /*
 573:/home/xingli/share/LiteOS_Lab/network/dtls/mbedtls/mbedtls-2.16.2/library/ecp.c ****  * Initialize (the components of) a key pair
 574:/home/xingli/share/LiteOS_Lab/network/dtls/mbedtls/mbedtls-2.16.2/library/ecp.c ****  */
 575:/home/xingli/share/LiteOS_Lab/network/dtls/mbedtls/mbedtls-2.16.2/library/ecp.c **** void mbedtls_ecp_keypair_init( mbedtls_ecp_keypair *key )
 576:/home/xingli/share/LiteOS_Lab/network/dtls/mbedtls/mbedtls-2.16.2/library/ecp.c **** {
 579              		.loc 1 576 1
 580              		.cfi_startproc
GAS LISTING /tmp/ccajKZL5.s 			page 23


 581 0000 F30F1EFA 		endbr64
 582 0004 55       		pushq	%rbp
 583              	.LCFI24:
 584              		.cfi_def_cfa_offset 16
 585              		.cfi_offset 6, -16
 586 0005 4889E5   		movq	%rsp, %rbp
 587              	.LCFI25:
 588              		.cfi_def_cfa_register 6
 589 0008 4883EC20 		subq	$32, %rsp
 590 000c 48897DE8 		movq	%rdi, -24(%rbp)
 591              		.loc 1 576 1
 592 0010 64488B04 		movq	%fs:40, %rax
 592      25280000 
 592      00
 593 0019 488945F8 		movq	%rax, -8(%rbp)
 594 001d 31C0     		xorl	%eax, %eax
 577:/home/xingli/share/LiteOS_Lab/network/dtls/mbedtls/mbedtls-2.16.2/library/ecp.c ****     ECP_VALIDATE( key != NULL );
 578:/home/xingli/share/LiteOS_Lab/network/dtls/mbedtls/mbedtls-2.16.2/library/ecp.c **** 
 579:/home/xingli/share/LiteOS_Lab/network/dtls/mbedtls/mbedtls-2.16.2/library/ecp.c ****     mbedtls_ecp_group_init( &key->grp );
 595              		.loc 1 579 5
 596 001f 488B45E8 		movq	-24(%rbp), %rax
 597 0023 4889C7   		movq	%rax, %rdi
 598 0026 E8000000 		call	mbedtls_ecp_group_init
 598      00
 580:/home/xingli/share/LiteOS_Lab/network/dtls/mbedtls/mbedtls-2.16.2/library/ecp.c ****     mbedtls_mpi_init( &key->d );
 599              		.loc 1 580 5
 600 002b 488B45E8 		movq	-24(%rbp), %rax
 601 002f 4805F800 		addq	$248, %rax
 601      0000
 602 0035 4889C7   		movq	%rax, %rdi
 603 0038 E8000000 		call	mbedtls_mpi_init@PLT
 603      00
 581:/home/xingli/share/LiteOS_Lab/network/dtls/mbedtls/mbedtls-2.16.2/library/ecp.c ****     mbedtls_ecp_point_init( &key->Q );
 604              		.loc 1 581 5
 605 003d 488B45E8 		movq	-24(%rbp), %rax
 606 0041 48051001 		addq	$272, %rax
 606      0000
 607 0047 4889C7   		movq	%rax, %rdi
 608 004a E8000000 		call	mbedtls_ecp_point_init
 608      00
 582:/home/xingli/share/LiteOS_Lab/network/dtls/mbedtls/mbedtls-2.16.2/library/ecp.c **** }
 609              		.loc 1 582 1
 610 004f 90       		nop
 611 0050 488B45F8 		movq	-8(%rbp), %rax
 612 0054 64483304 		xorq	%fs:40, %rax
 612      25280000 
 612      00
 613 005d 7405     		je	.L39
 614 005f E8000000 		call	__stack_chk_fail@PLT
 614      00
 615              	.L39:
 616 0064 C9       		leave
 617              	.LCFI26:
 618              		.cfi_def_cfa 7, 8
 619 0065 C3       		ret
 620              		.cfi_endproc
 621              	.LFE14:
GAS LISTING /tmp/ccajKZL5.s 			page 24


 623              		.section	.text.mbedtls_ecp_point_free,"ax",@progbits
 624              		.globl	mbedtls_ecp_point_free
 626              	mbedtls_ecp_point_free:
 627              	.LFB15:
 583:/home/xingli/share/LiteOS_Lab/network/dtls/mbedtls/mbedtls-2.16.2/library/ecp.c **** 
 584:/home/xingli/share/LiteOS_Lab/network/dtls/mbedtls/mbedtls-2.16.2/library/ecp.c **** /*
 585:/home/xingli/share/LiteOS_Lab/network/dtls/mbedtls/mbedtls-2.16.2/library/ecp.c ****  * Unallocate (the components of) a point
 586:/home/xingli/share/LiteOS_Lab/network/dtls/mbedtls/mbedtls-2.16.2/library/ecp.c ****  */
 587:/home/xingli/share/LiteOS_Lab/network/dtls/mbedtls/mbedtls-2.16.2/library/ecp.c **** void mbedtls_ecp_point_free( mbedtls_ecp_point *pt )
 588:/home/xingli/share/LiteOS_Lab/network/dtls/mbedtls/mbedtls-2.16.2/library/ecp.c **** {
 628              		.loc 1 588 1
 629              		.cfi_startproc
 630 0000 F30F1EFA 		endbr64
 631 0004 55       		pushq	%rbp
 632              	.LCFI27:
 633              		.cfi_def_cfa_offset 16
 634              		.cfi_offset 6, -16
 635 0005 4889E5   		movq	%rsp, %rbp
 636              	.LCFI28:
 637              		.cfi_def_cfa_register 6
 638 0008 4883EC20 		subq	$32, %rsp
 639 000c 48897DE8 		movq	%rdi, -24(%rbp)
 640              		.loc 1 588 1
 641 0010 64488B04 		movq	%fs:40, %rax
 641      25280000 
 641      00
 642 0019 488945F8 		movq	%rax, -8(%rbp)
 643 001d 31C0     		xorl	%eax, %eax
 589:/home/xingli/share/LiteOS_Lab/network/dtls/mbedtls/mbedtls-2.16.2/library/ecp.c ****     if( pt == NULL )
 644              		.loc 1 589 7
 645 001f 48837DE8 		cmpq	$0, -24(%rbp)
 645      00
 646 0024 742E     		je	.L44
 590:/home/xingli/share/LiteOS_Lab/network/dtls/mbedtls/mbedtls-2.16.2/library/ecp.c ****         return;
 591:/home/xingli/share/LiteOS_Lab/network/dtls/mbedtls/mbedtls-2.16.2/library/ecp.c **** 
 592:/home/xingli/share/LiteOS_Lab/network/dtls/mbedtls/mbedtls-2.16.2/library/ecp.c ****     mbedtls_mpi_free( &( pt->X ) );
 647              		.loc 1 592 5
 648 0026 488B45E8 		movq	-24(%rbp), %rax
 649 002a 4889C7   		movq	%rax, %rdi
 650 002d E8000000 		call	mbedtls_mpi_free@PLT
 650      00
 593:/home/xingli/share/LiteOS_Lab/network/dtls/mbedtls/mbedtls-2.16.2/library/ecp.c ****     mbedtls_mpi_free( &( pt->Y ) );
 651              		.loc 1 593 5
 652 0032 488B45E8 		movq	-24(%rbp), %rax
 653 0036 4883C018 		addq	$24, %rax
 654 003a 4889C7   		movq	%rax, %rdi
 655 003d E8000000 		call	mbedtls_mpi_free@PLT
 655      00
 594:/home/xingli/share/LiteOS_Lab/network/dtls/mbedtls/mbedtls-2.16.2/library/ecp.c ****     mbedtls_mpi_free( &( pt->Z ) );
 656              		.loc 1 594 5
 657 0042 488B45E8 		movq	-24(%rbp), %rax
 658 0046 4883C030 		addq	$48, %rax
 659 004a 4889C7   		movq	%rax, %rdi
 660 004d E8000000 		call	mbedtls_mpi_free@PLT
 660      00
 661 0052 EB01     		jmp	.L40
 662              	.L44:
GAS LISTING /tmp/ccajKZL5.s 			page 25


 590:/home/xingli/share/LiteOS_Lab/network/dtls/mbedtls/mbedtls-2.16.2/library/ecp.c ****         return;
 663              		.loc 1 590 9
 664 0054 90       		nop
 665              	.L40:
 595:/home/xingli/share/LiteOS_Lab/network/dtls/mbedtls/mbedtls-2.16.2/library/ecp.c **** }
 666              		.loc 1 595 1
 667 0055 488B45F8 		movq	-8(%rbp), %rax
 668 0059 64483304 		xorq	%fs:40, %rax
 668      25280000 
 668      00
 669 0062 7405     		je	.L43
 670 0064 E8000000 		call	__stack_chk_fail@PLT
 670      00
 671              	.L43:
 672 0069 C9       		leave
 673              	.LCFI29:
 674              		.cfi_def_cfa 7, 8
 675 006a C3       		ret
 676              		.cfi_endproc
 677              	.LFE15:
 679              		.section	.text.mbedtls_ecp_group_free,"ax",@progbits
 680              		.globl	mbedtls_ecp_group_free
 682              	mbedtls_ecp_group_free:
 683              	.LFB16:
 596:/home/xingli/share/LiteOS_Lab/network/dtls/mbedtls/mbedtls-2.16.2/library/ecp.c **** 
 597:/home/xingli/share/LiteOS_Lab/network/dtls/mbedtls/mbedtls-2.16.2/library/ecp.c **** /*
 598:/home/xingli/share/LiteOS_Lab/network/dtls/mbedtls/mbedtls-2.16.2/library/ecp.c ****  * Unallocate (the components of) a group
 599:/home/xingli/share/LiteOS_Lab/network/dtls/mbedtls/mbedtls-2.16.2/library/ecp.c ****  */
 600:/home/xingli/share/LiteOS_Lab/network/dtls/mbedtls/mbedtls-2.16.2/library/ecp.c **** void mbedtls_ecp_group_free( mbedtls_ecp_group *grp )
 601:/home/xingli/share/LiteOS_Lab/network/dtls/mbedtls/mbedtls-2.16.2/library/ecp.c **** {
 684              		.loc 1 601 1
 685              		.cfi_startproc
 686 0000 F30F1EFA 		endbr64
 687 0004 55       		pushq	%rbp
 688              	.LCFI30:
 689              		.cfi_def_cfa_offset 16
 690              		.cfi_offset 6, -16
 691 0005 4889E5   		movq	%rsp, %rbp
 692              	.LCFI31:
 693              		.cfi_def_cfa_register 6
 694 0008 4883EC20 		subq	$32, %rsp
 695 000c 48897DE8 		movq	%rdi, -24(%rbp)
 696              		.loc 1 601 1
 697 0010 64488B04 		movq	%fs:40, %rax
 697      25280000 
 697      00
 698 0019 488945F8 		movq	%rax, -8(%rbp)
 699 001d 31C0     		xorl	%eax, %eax
 602:/home/xingli/share/LiteOS_Lab/network/dtls/mbedtls/mbedtls-2.16.2/library/ecp.c ****     size_t i;
 603:/home/xingli/share/LiteOS_Lab/network/dtls/mbedtls/mbedtls-2.16.2/library/ecp.c **** 
 604:/home/xingli/share/LiteOS_Lab/network/dtls/mbedtls/mbedtls-2.16.2/library/ecp.c ****     if( grp == NULL )
 700              		.loc 1 604 7
 701 001f 48837DE8 		cmpq	$0, -24(%rbp)
 701      00
 702 0024 0F84DF00 		je	.L53
 702      0000
 605:/home/xingli/share/LiteOS_Lab/network/dtls/mbedtls/mbedtls-2.16.2/library/ecp.c ****         return;
GAS LISTING /tmp/ccajKZL5.s 			page 26


 606:/home/xingli/share/LiteOS_Lab/network/dtls/mbedtls/mbedtls-2.16.2/library/ecp.c **** 
 607:/home/xingli/share/LiteOS_Lab/network/dtls/mbedtls/mbedtls-2.16.2/library/ecp.c ****     if( grp->h != 1 )
 703              		.loc 1 607 12
 704 002a 488B45E8 		movq	-24(%rbp), %rax
 705 002e 8B80C000 		movl	192(%rax), %eax
 705      0000
 706              		.loc 1 607 7
 707 0034 83F801   		cmpl	$1, %eax
 708 0037 7452     		je	.L48
 608:/home/xingli/share/LiteOS_Lab/network/dtls/mbedtls/mbedtls-2.16.2/library/ecp.c ****     {
 609:/home/xingli/share/LiteOS_Lab/network/dtls/mbedtls/mbedtls-2.16.2/library/ecp.c ****         mbedtls_mpi_free( &grp->P );
 709              		.loc 1 609 9
 710 0039 488B45E8 		movq	-24(%rbp), %rax
 711 003d 4883C008 		addq	$8, %rax
 712 0041 4889C7   		movq	%rax, %rdi
 713 0044 E8000000 		call	mbedtls_mpi_free@PLT
 713      00
 610:/home/xingli/share/LiteOS_Lab/network/dtls/mbedtls/mbedtls-2.16.2/library/ecp.c ****         mbedtls_mpi_free( &grp->A );
 714              		.loc 1 610 9
 715 0049 488B45E8 		movq	-24(%rbp), %rax
 716 004d 4883C020 		addq	$32, %rax
 717 0051 4889C7   		movq	%rax, %rdi
 718 0054 E8000000 		call	mbedtls_mpi_free@PLT
 718      00
 611:/home/xingli/share/LiteOS_Lab/network/dtls/mbedtls/mbedtls-2.16.2/library/ecp.c ****         mbedtls_mpi_free( &grp->B );
 719              		.loc 1 611 9
 720 0059 488B45E8 		movq	-24(%rbp), %rax
 721 005d 4883C038 		addq	$56, %rax
 722 0061 4889C7   		movq	%rax, %rdi
 723 0064 E8000000 		call	mbedtls_mpi_free@PLT
 723      00
 612:/home/xingli/share/LiteOS_Lab/network/dtls/mbedtls/mbedtls-2.16.2/library/ecp.c ****         mbedtls_ecp_point_free( &grp->G );
 724              		.loc 1 612 9
 725 0069 488B45E8 		movq	-24(%rbp), %rax
 726 006d 4883C050 		addq	$80, %rax
 727 0071 4889C7   		movq	%rax, %rdi
 728 0074 E8000000 		call	mbedtls_ecp_point_free
 728      00
 613:/home/xingli/share/LiteOS_Lab/network/dtls/mbedtls/mbedtls-2.16.2/library/ecp.c ****         mbedtls_mpi_free( &grp->N );
 729              		.loc 1 613 9
 730 0079 488B45E8 		movq	-24(%rbp), %rax
 731 007d 48059800 		addq	$152, %rax
 731      0000
 732 0083 4889C7   		movq	%rax, %rdi
 733 0086 E8000000 		call	mbedtls_mpi_free@PLT
 733      00
 734              	.L48:
 614:/home/xingli/share/LiteOS_Lab/network/dtls/mbedtls/mbedtls-2.16.2/library/ecp.c ****     }
 615:/home/xingli/share/LiteOS_Lab/network/dtls/mbedtls/mbedtls-2.16.2/library/ecp.c **** 
 616:/home/xingli/share/LiteOS_Lab/network/dtls/mbedtls/mbedtls-2.16.2/library/ecp.c ****     if( grp->T != NULL )
 735              		.loc 1 616 12
 736 008b 488B45E8 		movq	-24(%rbp), %rax
 737 008f 488B80E8 		movq	232(%rax), %rax
 737      000000
 738              		.loc 1 616 7
 739 0096 4885C0   		testq	%rax, %rax
 740 0099 745B     		je	.L49
GAS LISTING /tmp/ccajKZL5.s 			page 27


 617:/home/xingli/share/LiteOS_Lab/network/dtls/mbedtls/mbedtls-2.16.2/library/ecp.c ****     {
 618:/home/xingli/share/LiteOS_Lab/network/dtls/mbedtls/mbedtls-2.16.2/library/ecp.c ****         for( i = 0; i < grp->T_size; i++ )
 741              		.loc 1 618 16
 742 009b 48C745F0 		movq	$0, -16(%rbp)
 742      00000000 
 743              		.loc 1 618 9
 744 00a3 EB2D     		jmp	.L50
 745              	.L51:
 619:/home/xingli/share/LiteOS_Lab/network/dtls/mbedtls/mbedtls-2.16.2/library/ecp.c ****             mbedtls_ecp_point_free( &grp->T[i] );
 746              		.loc 1 619 41 discriminator 3
 747 00a5 488B45E8 		movq	-24(%rbp), %rax
 748 00a9 488B88E8 		movq	232(%rax), %rcx
 748      000000
 749              		.loc 1 619 44 discriminator 3
 750 00b0 488B55F0 		movq	-16(%rbp), %rdx
 751 00b4 4889D0   		movq	%rdx, %rax
 752 00b7 48C1E003 		salq	$3, %rax
 753 00bb 4801D0   		addq	%rdx, %rax
 754 00be 48C1E003 		salq	$3, %rax
 755              		.loc 1 619 13 discriminator 3
 756 00c2 4801C8   		addq	%rcx, %rax
 757 00c5 4889C7   		movq	%rax, %rdi
 758 00c8 E8000000 		call	mbedtls_ecp_point_free
 758      00
 618:/home/xingli/share/LiteOS_Lab/network/dtls/mbedtls/mbedtls-2.16.2/library/ecp.c ****             mbedtls_ecp_point_free( &grp->T[i] );
 759              		.loc 1 618 39 discriminator 3
 760 00cd 488345F0 		addq	$1, -16(%rbp)
 760      01
 761              	.L50:
 618:/home/xingli/share/LiteOS_Lab/network/dtls/mbedtls/mbedtls-2.16.2/library/ecp.c ****             mbedtls_ecp_point_free( &grp->T[i] );
 762              		.loc 1 618 28 discriminator 1
 763 00d2 488B45E8 		movq	-24(%rbp), %rax
 764 00d6 488B80F0 		movq	240(%rax), %rax
 764      000000
 618:/home/xingli/share/LiteOS_Lab/network/dtls/mbedtls/mbedtls-2.16.2/library/ecp.c ****             mbedtls_ecp_point_free( &grp->T[i] );
 765              		.loc 1 618 9 discriminator 1
 766 00dd 483945F0 		cmpq	%rax, -16(%rbp)
 767 00e1 72C2     		jb	.L51
 620:/home/xingli/share/LiteOS_Lab/network/dtls/mbedtls/mbedtls-2.16.2/library/ecp.c ****         mbedtls_free( grp->T );
 768              		.loc 1 620 26
 769 00e3 488B45E8 		movq	-24(%rbp), %rax
 770 00e7 488B80E8 		movq	232(%rax), %rax
 770      000000
 771              		.loc 1 620 9
 772 00ee 4889C7   		movq	%rax, %rdi
 773 00f1 E8000000 		call	mbedtls_free@PLT
 773      00
 774              	.L49:
 621:/home/xingli/share/LiteOS_Lab/network/dtls/mbedtls/mbedtls-2.16.2/library/ecp.c ****     }
 622:/home/xingli/share/LiteOS_Lab/network/dtls/mbedtls/mbedtls-2.16.2/library/ecp.c **** 
 623:/home/xingli/share/LiteOS_Lab/network/dtls/mbedtls/mbedtls-2.16.2/library/ecp.c ****     mbedtls_platform_zeroize( grp, sizeof( mbedtls_ecp_group ) );
 775              		.loc 1 623 5
 776 00f6 488B45E8 		movq	-24(%rbp), %rax
 777 00fa BEF80000 		movl	$248, %esi
 777      00
 778 00ff 4889C7   		movq	%rax, %rdi
 779 0102 E8000000 		call	mbedtls_platform_zeroize@PLT
GAS LISTING /tmp/ccajKZL5.s 			page 28


 779      00
 780 0107 EB01     		jmp	.L45
 781              	.L53:
 605:/home/xingli/share/LiteOS_Lab/network/dtls/mbedtls/mbedtls-2.16.2/library/ecp.c **** 
 782              		.loc 1 605 9
 783 0109 90       		nop
 784              	.L45:
 624:/home/xingli/share/LiteOS_Lab/network/dtls/mbedtls/mbedtls-2.16.2/library/ecp.c **** }
 785              		.loc 1 624 1
 786 010a 488B45F8 		movq	-8(%rbp), %rax
 787 010e 64483304 		xorq	%fs:40, %rax
 787      25280000 
 787      00
 788 0117 7405     		je	.L52
 789 0119 E8000000 		call	__stack_chk_fail@PLT
 789      00
 790              	.L52:
 791 011e C9       		leave
 792              	.LCFI32:
 793              		.cfi_def_cfa 7, 8
 794 011f C3       		ret
 795              		.cfi_endproc
 796              	.LFE16:
 798              		.section	.text.mbedtls_ecp_keypair_free,"ax",@progbits
 799              		.globl	mbedtls_ecp_keypair_free
 801              	mbedtls_ecp_keypair_free:
 802              	.LFB17:
 625:/home/xingli/share/LiteOS_Lab/network/dtls/mbedtls/mbedtls-2.16.2/library/ecp.c **** 
 626:/home/xingli/share/LiteOS_Lab/network/dtls/mbedtls/mbedtls-2.16.2/library/ecp.c **** /*
 627:/home/xingli/share/LiteOS_Lab/network/dtls/mbedtls/mbedtls-2.16.2/library/ecp.c ****  * Unallocate (the components of) a key pair
 628:/home/xingli/share/LiteOS_Lab/network/dtls/mbedtls/mbedtls-2.16.2/library/ecp.c ****  */
 629:/home/xingli/share/LiteOS_Lab/network/dtls/mbedtls/mbedtls-2.16.2/library/ecp.c **** void mbedtls_ecp_keypair_free( mbedtls_ecp_keypair *key )
 630:/home/xingli/share/LiteOS_Lab/network/dtls/mbedtls/mbedtls-2.16.2/library/ecp.c **** {
 803              		.loc 1 630 1
 804              		.cfi_startproc
 805 0000 F30F1EFA 		endbr64
 806 0004 55       		pushq	%rbp
 807              	.LCFI33:
 808              		.cfi_def_cfa_offset 16
 809              		.cfi_offset 6, -16
 810 0005 4889E5   		movq	%rsp, %rbp
 811              	.LCFI34:
 812              		.cfi_def_cfa_register 6
 813 0008 4883EC20 		subq	$32, %rsp
 814 000c 48897DE8 		movq	%rdi, -24(%rbp)
 815              		.loc 1 630 1
 816 0010 64488B04 		movq	%fs:40, %rax
 816      25280000 
 816      00
 817 0019 488945F8 		movq	%rax, -8(%rbp)
 818 001d 31C0     		xorl	%eax, %eax
 631:/home/xingli/share/LiteOS_Lab/network/dtls/mbedtls/mbedtls-2.16.2/library/ecp.c ****     if( key == NULL )
 819              		.loc 1 631 7
 820 001f 48837DE8 		cmpq	$0, -24(%rbp)
 820      00
 821 0024 7432     		je	.L58
 632:/home/xingli/share/LiteOS_Lab/network/dtls/mbedtls/mbedtls-2.16.2/library/ecp.c ****         return;
GAS LISTING /tmp/ccajKZL5.s 			page 29


 633:/home/xingli/share/LiteOS_Lab/network/dtls/mbedtls/mbedtls-2.16.2/library/ecp.c **** 
 634:/home/xingli/share/LiteOS_Lab/network/dtls/mbedtls/mbedtls-2.16.2/library/ecp.c ****     mbedtls_ecp_group_free( &key->grp );
 822              		.loc 1 634 5
 823 0026 488B45E8 		movq	-24(%rbp), %rax
 824 002a 4889C7   		movq	%rax, %rdi
 825 002d E8000000 		call	mbedtls_ecp_group_free
 825      00
 635:/home/xingli/share/LiteOS_Lab/network/dtls/mbedtls/mbedtls-2.16.2/library/ecp.c ****     mbedtls_mpi_free( &key->d );
 826              		.loc 1 635 5
 827 0032 488B45E8 		movq	-24(%rbp), %rax
 828 0036 4805F800 		addq	$248, %rax
 828      0000
 829 003c 4889C7   		movq	%rax, %rdi
 830 003f E8000000 		call	mbedtls_mpi_free@PLT
 830      00
 636:/home/xingli/share/LiteOS_Lab/network/dtls/mbedtls/mbedtls-2.16.2/library/ecp.c ****     mbedtls_ecp_point_free( &key->Q );
 831              		.loc 1 636 5
 832 0044 488B45E8 		movq	-24(%rbp), %rax
 833 0048 48051001 		addq	$272, %rax
 833      0000
 834 004e 4889C7   		movq	%rax, %rdi
 835 0051 E8000000 		call	mbedtls_ecp_point_free
 835      00
 836 0056 EB01     		jmp	.L54
 837              	.L58:
 632:/home/xingli/share/LiteOS_Lab/network/dtls/mbedtls/mbedtls-2.16.2/library/ecp.c ****         return;
 838              		.loc 1 632 9
 839 0058 90       		nop
 840              	.L54:
 637:/home/xingli/share/LiteOS_Lab/network/dtls/mbedtls/mbedtls-2.16.2/library/ecp.c **** }
 841              		.loc 1 637 1
 842 0059 488B45F8 		movq	-8(%rbp), %rax
 843 005d 64483304 		xorq	%fs:40, %rax
 843      25280000 
 843      00
 844 0066 7405     		je	.L57
 845 0068 E8000000 		call	__stack_chk_fail@PLT
 845      00
 846              	.L57:
 847 006d C9       		leave
 848              	.LCFI35:
 849              		.cfi_def_cfa 7, 8
 850 006e C3       		ret
 851              		.cfi_endproc
 852              	.LFE17:
 854              		.section	.text.mbedtls_ecp_copy,"ax",@progbits
 855              		.globl	mbedtls_ecp_copy
 857              	mbedtls_ecp_copy:
 858              	.LFB18:
 638:/home/xingli/share/LiteOS_Lab/network/dtls/mbedtls/mbedtls-2.16.2/library/ecp.c **** 
 639:/home/xingli/share/LiteOS_Lab/network/dtls/mbedtls/mbedtls-2.16.2/library/ecp.c **** /*
 640:/home/xingli/share/LiteOS_Lab/network/dtls/mbedtls/mbedtls-2.16.2/library/ecp.c ****  * Copy the contents of a point
 641:/home/xingli/share/LiteOS_Lab/network/dtls/mbedtls/mbedtls-2.16.2/library/ecp.c ****  */
 642:/home/xingli/share/LiteOS_Lab/network/dtls/mbedtls/mbedtls-2.16.2/library/ecp.c **** int mbedtls_ecp_copy( mbedtls_ecp_point *P, const mbedtls_ecp_point *Q )
 643:/home/xingli/share/LiteOS_Lab/network/dtls/mbedtls/mbedtls-2.16.2/library/ecp.c **** {
 859              		.loc 1 643 1
 860              		.cfi_startproc
GAS LISTING /tmp/ccajKZL5.s 			page 30


 861 0000 F30F1EFA 		endbr64
 862 0004 55       		pushq	%rbp
 863              	.LCFI36:
 864              		.cfi_def_cfa_offset 16
 865              		.cfi_offset 6, -16
 866 0005 4889E5   		movq	%rsp, %rbp
 867              	.LCFI37:
 868              		.cfi_def_cfa_register 6
 869 0008 4883EC20 		subq	$32, %rsp
 870 000c 48897DE8 		movq	%rdi, -24(%rbp)
 871 0010 488975E0 		movq	%rsi, -32(%rbp)
 872              		.loc 1 643 1
 873 0014 64488B04 		movq	%fs:40, %rax
 873      25280000 
 873      00
 874 001d 488945F8 		movq	%rax, -8(%rbp)
 875 0021 31C0     		xorl	%eax, %eax
 644:/home/xingli/share/LiteOS_Lab/network/dtls/mbedtls/mbedtls-2.16.2/library/ecp.c ****     int ret;
 645:/home/xingli/share/LiteOS_Lab/network/dtls/mbedtls/mbedtls-2.16.2/library/ecp.c ****     ECP_VALIDATE_RET( P != NULL );
 646:/home/xingli/share/LiteOS_Lab/network/dtls/mbedtls/mbedtls-2.16.2/library/ecp.c ****     ECP_VALIDATE_RET( Q != NULL );
 647:/home/xingli/share/LiteOS_Lab/network/dtls/mbedtls/mbedtls-2.16.2/library/ecp.c **** 
 648:/home/xingli/share/LiteOS_Lab/network/dtls/mbedtls/mbedtls-2.16.2/library/ecp.c ****     MBEDTLS_MPI_CHK( mbedtls_mpi_copy( &P->X, &Q->X ) );
 876              		.loc 1 648 5
 877 0023 488B55E0 		movq	-32(%rbp), %rdx
 878 0027 488B45E8 		movq	-24(%rbp), %rax
 879 002b 4889D6   		movq	%rdx, %rsi
 880 002e 4889C7   		movq	%rax, %rdi
 881 0031 E8000000 		call	mbedtls_mpi_copy@PLT
 881      00
 882 0036 8945F4   		movl	%eax, -12(%rbp)
 883 0039 837DF400 		cmpl	$0, -12(%rbp)
 884 003d 7548     		jne	.L65
 649:/home/xingli/share/LiteOS_Lab/network/dtls/mbedtls/mbedtls-2.16.2/library/ecp.c ****     MBEDTLS_MPI_CHK( mbedtls_mpi_copy( &P->Y, &Q->Y ) );
 885              		.loc 1 649 5
 886 003f 488B45E0 		movq	-32(%rbp), %rax
 887 0043 488D5018 		leaq	24(%rax), %rdx
 888 0047 488B45E8 		movq	-24(%rbp), %rax
 889 004b 4883C018 		addq	$24, %rax
 890 004f 4889D6   		movq	%rdx, %rsi
 891 0052 4889C7   		movq	%rax, %rdi
 892 0055 E8000000 		call	mbedtls_mpi_copy@PLT
 892      00
 893 005a 8945F4   		movl	%eax, -12(%rbp)
 894 005d 837DF400 		cmpl	$0, -12(%rbp)
 895 0061 7527     		jne	.L66
 650:/home/xingli/share/LiteOS_Lab/network/dtls/mbedtls/mbedtls-2.16.2/library/ecp.c ****     MBEDTLS_MPI_CHK( mbedtls_mpi_copy( &P->Z, &Q->Z ) );
 896              		.loc 1 650 5
 897 0063 488B45E0 		movq	-32(%rbp), %rax
 898 0067 488D5030 		leaq	48(%rax), %rdx
 899 006b 488B45E8 		movq	-24(%rbp), %rax
 900 006f 4883C030 		addq	$48, %rax
 901 0073 4889D6   		movq	%rdx, %rsi
 902 0076 4889C7   		movq	%rax, %rdi
 903 0079 E8000000 		call	mbedtls_mpi_copy@PLT
 903      00
 904 007e 8945F4   		movl	%eax, -12(%rbp)
 905 0081 837DF400 		cmpl	$0, -12(%rbp)
GAS LISTING /tmp/ccajKZL5.s 			page 31


 651:/home/xingli/share/LiteOS_Lab/network/dtls/mbedtls/mbedtls-2.16.2/library/ecp.c **** 
 652:/home/xingli/share/LiteOS_Lab/network/dtls/mbedtls/mbedtls-2.16.2/library/ecp.c **** cleanup:
 906              		.loc 1 652 1
 907 0085 EB04     		jmp	.L61
 908              	.L65:
 648:/home/xingli/share/LiteOS_Lab/network/dtls/mbedtls/mbedtls-2.16.2/library/ecp.c ****     MBEDTLS_MPI_CHK( mbedtls_mpi_copy( &P->Y, &Q->Y ) );
 909              		.loc 1 648 5
 910 0087 90       		nop
 911 0088 EB01     		jmp	.L61
 912              	.L66:
 649:/home/xingli/share/LiteOS_Lab/network/dtls/mbedtls/mbedtls-2.16.2/library/ecp.c ****     MBEDTLS_MPI_CHK( mbedtls_mpi_copy( &P->Z, &Q->Z ) );
 913              		.loc 1 649 5
 914 008a 90       		nop
 915              	.L61:
 653:/home/xingli/share/LiteOS_Lab/network/dtls/mbedtls/mbedtls-2.16.2/library/ecp.c ****     return( ret );
 916              		.loc 1 653 11
 917 008b 8B45F4   		movl	-12(%rbp), %eax
 654:/home/xingli/share/LiteOS_Lab/network/dtls/mbedtls/mbedtls-2.16.2/library/ecp.c **** }
 918              		.loc 1 654 1
 919 008e 488B4DF8 		movq	-8(%rbp), %rcx
 920 0092 6448330C 		xorq	%fs:40, %rcx
 920      25280000 
 920      00
 921 009b 7405     		je	.L64
 922 009d E8000000 		call	__stack_chk_fail@PLT
 922      00
 923              	.L64:
 924 00a2 C9       		leave
 925              	.LCFI38:
 926              		.cfi_def_cfa 7, 8
 927 00a3 C3       		ret
 928              		.cfi_endproc
 929              	.LFE18:
 931              		.section	.text.mbedtls_ecp_group_copy,"ax",@progbits
 932              		.globl	mbedtls_ecp_group_copy
 934              	mbedtls_ecp_group_copy:
 935              	.LFB19:
 655:/home/xingli/share/LiteOS_Lab/network/dtls/mbedtls/mbedtls-2.16.2/library/ecp.c **** 
 656:/home/xingli/share/LiteOS_Lab/network/dtls/mbedtls/mbedtls-2.16.2/library/ecp.c **** /*
 657:/home/xingli/share/LiteOS_Lab/network/dtls/mbedtls/mbedtls-2.16.2/library/ecp.c ****  * Copy the contents of a group object
 658:/home/xingli/share/LiteOS_Lab/network/dtls/mbedtls/mbedtls-2.16.2/library/ecp.c ****  */
 659:/home/xingli/share/LiteOS_Lab/network/dtls/mbedtls/mbedtls-2.16.2/library/ecp.c **** int mbedtls_ecp_group_copy( mbedtls_ecp_group *dst, const mbedtls_ecp_group *src )
 660:/home/xingli/share/LiteOS_Lab/network/dtls/mbedtls/mbedtls-2.16.2/library/ecp.c **** {
 936              		.loc 1 660 1
 937              		.cfi_startproc
 938 0000 F30F1EFA 		endbr64
 939 0004 55       		pushq	%rbp
 940              	.LCFI39:
 941              		.cfi_def_cfa_offset 16
 942              		.cfi_offset 6, -16
 943 0005 4889E5   		movq	%rsp, %rbp
 944              	.LCFI40:
 945              		.cfi_def_cfa_register 6
 946 0008 4883EC20 		subq	$32, %rsp
 947 000c 48897DE8 		movq	%rdi, -24(%rbp)
 948 0010 488975E0 		movq	%rsi, -32(%rbp)
 949              		.loc 1 660 1
GAS LISTING /tmp/ccajKZL5.s 			page 32


 950 0014 64488B04 		movq	%fs:40, %rax
 950      25280000 
 950      00
 951 001d 488945F8 		movq	%rax, -8(%rbp)
 952 0021 31C0     		xorl	%eax, %eax
 661:/home/xingli/share/LiteOS_Lab/network/dtls/mbedtls/mbedtls-2.16.2/library/ecp.c ****     ECP_VALIDATE_RET( dst != NULL );
 662:/home/xingli/share/LiteOS_Lab/network/dtls/mbedtls/mbedtls-2.16.2/library/ecp.c ****     ECP_VALIDATE_RET( src != NULL );
 663:/home/xingli/share/LiteOS_Lab/network/dtls/mbedtls/mbedtls-2.16.2/library/ecp.c **** 
 664:/home/xingli/share/LiteOS_Lab/network/dtls/mbedtls/mbedtls-2.16.2/library/ecp.c ****     return( mbedtls_ecp_group_load( dst, src->id ) );
 953              		.loc 1 664 13
 954 0023 488B45E0 		movq	-32(%rbp), %rax
 955 0027 8B10     		movl	(%rax), %edx
 956 0029 488B45E8 		movq	-24(%rbp), %rax
 957 002d 89D6     		movl	%edx, %esi
 958 002f 4889C7   		movq	%rax, %rdi
 959 0032 E8000000 		call	mbedtls_ecp_group_load@PLT
 959      00
 665:/home/xingli/share/LiteOS_Lab/network/dtls/mbedtls/mbedtls-2.16.2/library/ecp.c **** }
 960              		.loc 1 665 1
 961 0037 488B4DF8 		movq	-8(%rbp), %rcx
 962 003b 6448330C 		xorq	%fs:40, %rcx
 962      25280000 
 962      00
 963 0044 7405     		je	.L69
 964 0046 E8000000 		call	__stack_chk_fail@PLT
 964      00
 965              	.L69:
 966 004b C9       		leave
 967              	.LCFI41:
 968              		.cfi_def_cfa 7, 8
 969 004c C3       		ret
 970              		.cfi_endproc
 971              	.LFE19:
 973              		.section	.text.mbedtls_ecp_set_zero,"ax",@progbits
 974              		.globl	mbedtls_ecp_set_zero
 976              	mbedtls_ecp_set_zero:
 977              	.LFB20:
 666:/home/xingli/share/LiteOS_Lab/network/dtls/mbedtls/mbedtls-2.16.2/library/ecp.c **** 
 667:/home/xingli/share/LiteOS_Lab/network/dtls/mbedtls/mbedtls-2.16.2/library/ecp.c **** /*
 668:/home/xingli/share/LiteOS_Lab/network/dtls/mbedtls/mbedtls-2.16.2/library/ecp.c ****  * Set point to zero
 669:/home/xingli/share/LiteOS_Lab/network/dtls/mbedtls/mbedtls-2.16.2/library/ecp.c ****  */
 670:/home/xingli/share/LiteOS_Lab/network/dtls/mbedtls/mbedtls-2.16.2/library/ecp.c **** int mbedtls_ecp_set_zero( mbedtls_ecp_point *pt )
 671:/home/xingli/share/LiteOS_Lab/network/dtls/mbedtls/mbedtls-2.16.2/library/ecp.c **** {
 978              		.loc 1 671 1
 979              		.cfi_startproc
 980 0000 F30F1EFA 		endbr64
 981 0004 55       		pushq	%rbp
 982              	.LCFI42:
 983              		.cfi_def_cfa_offset 16
 984              		.cfi_offset 6, -16
 985 0005 4889E5   		movq	%rsp, %rbp
 986              	.LCFI43:
 987              		.cfi_def_cfa_register 6
 988 0008 4883EC20 		subq	$32, %rsp
 989 000c 48897DE8 		movq	%rdi, -24(%rbp)
 990              		.loc 1 671 1
 991 0010 64488B04 		movq	%fs:40, %rax
GAS LISTING /tmp/ccajKZL5.s 			page 33


 991      25280000 
 991      00
 992 0019 488945F8 		movq	%rax, -8(%rbp)
 993 001d 31C0     		xorl	%eax, %eax
 672:/home/xingli/share/LiteOS_Lab/network/dtls/mbedtls/mbedtls-2.16.2/library/ecp.c ****     int ret;
 673:/home/xingli/share/LiteOS_Lab/network/dtls/mbedtls/mbedtls-2.16.2/library/ecp.c ****     ECP_VALIDATE_RET( pt != NULL );
 674:/home/xingli/share/LiteOS_Lab/network/dtls/mbedtls/mbedtls-2.16.2/library/ecp.c **** 
 675:/home/xingli/share/LiteOS_Lab/network/dtls/mbedtls/mbedtls-2.16.2/library/ecp.c ****     MBEDTLS_MPI_CHK( mbedtls_mpi_lset( &pt->X , 1 ) );
 994              		.loc 1 675 5
 995 001f 488B45E8 		movq	-24(%rbp), %rax
 996 0023 BE010000 		movl	$1, %esi
 996      00
 997 0028 4889C7   		movq	%rax, %rdi
 998 002b E8000000 		call	mbedtls_mpi_lset@PLT
 998      00
 999 0030 8945F4   		movl	%eax, -12(%rbp)
 1000 0033 837DF400 		cmpl	$0, -12(%rbp)
 1001 0037 753C     		jne	.L76
 676:/home/xingli/share/LiteOS_Lab/network/dtls/mbedtls/mbedtls-2.16.2/library/ecp.c ****     MBEDTLS_MPI_CHK( mbedtls_mpi_lset( &pt->Y , 1 ) );
 1002              		.loc 1 676 5
 1003 0039 488B45E8 		movq	-24(%rbp), %rax
 1004 003d 4883C018 		addq	$24, %rax
 1005 0041 BE010000 		movl	$1, %esi
 1005      00
 1006 0046 4889C7   		movq	%rax, %rdi
 1007 0049 E8000000 		call	mbedtls_mpi_lset@PLT
 1007      00
 1008 004e 8945F4   		movl	%eax, -12(%rbp)
 1009 0051 837DF400 		cmpl	$0, -12(%rbp)
 1010 0055 7521     		jne	.L77
 677:/home/xingli/share/LiteOS_Lab/network/dtls/mbedtls/mbedtls-2.16.2/library/ecp.c ****     MBEDTLS_MPI_CHK( mbedtls_mpi_lset( &pt->Z , 0 ) );
 1011              		.loc 1 677 5
 1012 0057 488B45E8 		movq	-24(%rbp), %rax
 1013 005b 4883C030 		addq	$48, %rax
 1014 005f BE000000 		movl	$0, %esi
 1014      00
 1015 0064 4889C7   		movq	%rax, %rdi
 1016 0067 E8000000 		call	mbedtls_mpi_lset@PLT
 1016      00
 1017 006c 8945F4   		movl	%eax, -12(%rbp)
 1018 006f 837DF400 		cmpl	$0, -12(%rbp)
 678:/home/xingli/share/LiteOS_Lab/network/dtls/mbedtls/mbedtls-2.16.2/library/ecp.c **** 
 679:/home/xingli/share/LiteOS_Lab/network/dtls/mbedtls/mbedtls-2.16.2/library/ecp.c **** cleanup:
 1019              		.loc 1 679 1
 1020 0073 EB04     		jmp	.L72
 1021              	.L76:
 675:/home/xingli/share/LiteOS_Lab/network/dtls/mbedtls/mbedtls-2.16.2/library/ecp.c ****     MBEDTLS_MPI_CHK( mbedtls_mpi_lset( &pt->Y , 1 ) );
 1022              		.loc 1 675 5
 1023 0075 90       		nop
 1024 0076 EB01     		jmp	.L72
 1025              	.L77:
 676:/home/xingli/share/LiteOS_Lab/network/dtls/mbedtls/mbedtls-2.16.2/library/ecp.c ****     MBEDTLS_MPI_CHK( mbedtls_mpi_lset( &pt->Z , 0 ) );
 1026              		.loc 1 676 5
 1027 0078 90       		nop
 1028              	.L72:
 680:/home/xingli/share/LiteOS_Lab/network/dtls/mbedtls/mbedtls-2.16.2/library/ecp.c ****     return( ret );
 1029              		.loc 1 680 11
GAS LISTING /tmp/ccajKZL5.s 			page 34


 1030 0079 8B45F4   		movl	-12(%rbp), %eax
 681:/home/xingli/share/LiteOS_Lab/network/dtls/mbedtls/mbedtls-2.16.2/library/ecp.c **** }
 1031              		.loc 1 681 1
 1032 007c 488B55F8 		movq	-8(%rbp), %rdx
 1033 0080 64483314 		xorq	%fs:40, %rdx
 1033      25280000 
 1033      00
 1034 0089 7405     		je	.L75
 1035 008b E8000000 		call	__stack_chk_fail@PLT
 1035      00
 1036              	.L75:
 1037 0090 C9       		leave
 1038              	.LCFI44:
 1039              		.cfi_def_cfa 7, 8
 1040 0091 C3       		ret
 1041              		.cfi_endproc
 1042              	.LFE20:
 1044              		.section	.text.mbedtls_ecp_is_zero,"ax",@progbits
 1045              		.globl	mbedtls_ecp_is_zero
 1047              	mbedtls_ecp_is_zero:
 1048              	.LFB21:
 682:/home/xingli/share/LiteOS_Lab/network/dtls/mbedtls/mbedtls-2.16.2/library/ecp.c **** 
 683:/home/xingli/share/LiteOS_Lab/network/dtls/mbedtls/mbedtls-2.16.2/library/ecp.c **** /*
 684:/home/xingli/share/LiteOS_Lab/network/dtls/mbedtls/mbedtls-2.16.2/library/ecp.c ****  * Tell if a point is zero
 685:/home/xingli/share/LiteOS_Lab/network/dtls/mbedtls/mbedtls-2.16.2/library/ecp.c ****  */
 686:/home/xingli/share/LiteOS_Lab/network/dtls/mbedtls/mbedtls-2.16.2/library/ecp.c **** int mbedtls_ecp_is_zero( mbedtls_ecp_point *pt )
 687:/home/xingli/share/LiteOS_Lab/network/dtls/mbedtls/mbedtls-2.16.2/library/ecp.c **** {
 1049              		.loc 1 687 1
 1050              		.cfi_startproc
 1051 0000 F30F1EFA 		endbr64
 1052 0004 55       		pushq	%rbp
 1053              	.LCFI45:
 1054              		.cfi_def_cfa_offset 16
 1055              		.cfi_offset 6, -16
 1056 0005 4889E5   		movq	%rsp, %rbp
 1057              	.LCFI46:
 1058              		.cfi_def_cfa_register 6
 1059 0008 4883EC20 		subq	$32, %rsp
 1060 000c 48897DE8 		movq	%rdi, -24(%rbp)
 1061              		.loc 1 687 1
 1062 0010 64488B04 		movq	%fs:40, %rax
 1062      25280000 
 1062      00
 1063 0019 488945F8 		movq	%rax, -8(%rbp)
 1064 001d 31C0     		xorl	%eax, %eax
 688:/home/xingli/share/LiteOS_Lab/network/dtls/mbedtls/mbedtls-2.16.2/library/ecp.c ****     ECP_VALIDATE_RET( pt != NULL );
 689:/home/xingli/share/LiteOS_Lab/network/dtls/mbedtls/mbedtls-2.16.2/library/ecp.c **** 
 690:/home/xingli/share/LiteOS_Lab/network/dtls/mbedtls/mbedtls-2.16.2/library/ecp.c ****     return( mbedtls_mpi_cmp_int( &pt->Z, 0 ) == 0 );
 1065              		.loc 1 690 34
 1066 001f 488B45E8 		movq	-24(%rbp), %rax
 1067 0023 4883C030 		addq	$48, %rax
 1068              		.loc 1 690 13
 1069 0027 BE000000 		movl	$0, %esi
 1069      00
 1070 002c 4889C7   		movq	%rax, %rdi
 1071 002f E8000000 		call	mbedtls_mpi_cmp_int@PLT
 1071      00
GAS LISTING /tmp/ccajKZL5.s 			page 35


 1072              		.loc 1 690 46
 1073 0034 85C0     		testl	%eax, %eax
 1074 0036 0F94C0   		sete	%al
 1075 0039 0FB6C0   		movzbl	%al, %eax
 691:/home/xingli/share/LiteOS_Lab/network/dtls/mbedtls/mbedtls-2.16.2/library/ecp.c **** }
 1076              		.loc 1 691 1
 1077 003c 488B55F8 		movq	-8(%rbp), %rdx
 1078 0040 64483314 		xorq	%fs:40, %rdx
 1078      25280000 
 1078      00
 1079 0049 7405     		je	.L80
 1080 004b E8000000 		call	__stack_chk_fail@PLT
 1080      00
 1081              	.L80:
 1082 0050 C9       		leave
 1083              	.LCFI47:
 1084              		.cfi_def_cfa 7, 8
 1085 0051 C3       		ret
 1086              		.cfi_endproc
 1087              	.LFE21:
 1089              		.section	.text.mbedtls_ecp_point_cmp,"ax",@progbits
 1090              		.globl	mbedtls_ecp_point_cmp
 1092              	mbedtls_ecp_point_cmp:
 1093              	.LFB22:
 692:/home/xingli/share/LiteOS_Lab/network/dtls/mbedtls/mbedtls-2.16.2/library/ecp.c **** 
 693:/home/xingli/share/LiteOS_Lab/network/dtls/mbedtls/mbedtls-2.16.2/library/ecp.c **** /*
 694:/home/xingli/share/LiteOS_Lab/network/dtls/mbedtls/mbedtls-2.16.2/library/ecp.c ****  * Compare two points lazily
 695:/home/xingli/share/LiteOS_Lab/network/dtls/mbedtls/mbedtls-2.16.2/library/ecp.c ****  */
 696:/home/xingli/share/LiteOS_Lab/network/dtls/mbedtls/mbedtls-2.16.2/library/ecp.c **** int mbedtls_ecp_point_cmp( const mbedtls_ecp_point *P,
 697:/home/xingli/share/LiteOS_Lab/network/dtls/mbedtls/mbedtls-2.16.2/library/ecp.c ****                            const mbedtls_ecp_point *Q )
 698:/home/xingli/share/LiteOS_Lab/network/dtls/mbedtls/mbedtls-2.16.2/library/ecp.c **** {
 1094              		.loc 1 698 1
 1095              		.cfi_startproc
 1096 0000 F30F1EFA 		endbr64
 1097 0004 55       		pushq	%rbp
 1098              	.LCFI48:
 1099              		.cfi_def_cfa_offset 16
 1100              		.cfi_offset 6, -16
 1101 0005 4889E5   		movq	%rsp, %rbp
 1102              	.LCFI49:
 1103              		.cfi_def_cfa_register 6
 1104 0008 4883EC20 		subq	$32, %rsp
 1105 000c 48897DE8 		movq	%rdi, -24(%rbp)
 1106 0010 488975E0 		movq	%rsi, -32(%rbp)
 1107              		.loc 1 698 1
 1108 0014 64488B04 		movq	%fs:40, %rax
 1108      25280000 
 1108      00
 1109 001d 488945F8 		movq	%rax, -8(%rbp)
 1110 0021 31C0     		xorl	%eax, %eax
 699:/home/xingli/share/LiteOS_Lab/network/dtls/mbedtls/mbedtls-2.16.2/library/ecp.c ****     ECP_VALIDATE_RET( P != NULL );
 700:/home/xingli/share/LiteOS_Lab/network/dtls/mbedtls/mbedtls-2.16.2/library/ecp.c ****     ECP_VALIDATE_RET( Q != NULL );
 701:/home/xingli/share/LiteOS_Lab/network/dtls/mbedtls/mbedtls-2.16.2/library/ecp.c **** 
 702:/home/xingli/share/LiteOS_Lab/network/dtls/mbedtls/mbedtls-2.16.2/library/ecp.c ****     if( mbedtls_mpi_cmp_mpi( &P->X, &Q->X ) == 0 &&
 1111              		.loc 1 702 9
 1112 0023 488B55E0 		movq	-32(%rbp), %rdx
 1113 0027 488B45E8 		movq	-24(%rbp), %rax
GAS LISTING /tmp/ccajKZL5.s 			page 36


 1114 002b 4889D6   		movq	%rdx, %rsi
 1115 002e 4889C7   		movq	%rax, %rdi
 1116 0031 E8000000 		call	mbedtls_mpi_cmp_mpi@PLT
 1116      00
 1117              		.loc 1 702 7
 1118 0036 85C0     		testl	%eax, %eax
 1119 0038 7545     		jne	.L82
 703:/home/xingli/share/LiteOS_Lab/network/dtls/mbedtls/mbedtls-2.16.2/library/ecp.c ****         mbedtls_mpi_cmp_mpi( &P->Y, &Q->Y ) == 0 &&
 1120              		.loc 1 703 9 discriminator 1
 1121 003a 488B45E0 		movq	-32(%rbp), %rax
 1122 003e 488D5018 		leaq	24(%rax), %rdx
 1123 0042 488B45E8 		movq	-24(%rbp), %rax
 1124 0046 4883C018 		addq	$24, %rax
 1125 004a 4889D6   		movq	%rdx, %rsi
 1126 004d 4889C7   		movq	%rax, %rdi
 1127 0050 E8000000 		call	mbedtls_mpi_cmp_mpi@PLT
 1127      00
 702:/home/xingli/share/LiteOS_Lab/network/dtls/mbedtls/mbedtls-2.16.2/library/ecp.c ****         mbedtls_mpi_cmp_mpi( &P->Y, &Q->Y ) == 0 &&
 1128              		.loc 1 702 50 discriminator 1
 1129 0055 85C0     		testl	%eax, %eax
 1130 0057 7526     		jne	.L82
 704:/home/xingli/share/LiteOS_Lab/network/dtls/mbedtls/mbedtls-2.16.2/library/ecp.c ****         mbedtls_mpi_cmp_mpi( &P->Z, &Q->Z ) == 0 )
 1131              		.loc 1 704 9
 1132 0059 488B45E0 		movq	-32(%rbp), %rax
 1133 005d 488D5030 		leaq	48(%rax), %rdx
 1134 0061 488B45E8 		movq	-24(%rbp), %rax
 1135 0065 4883C030 		addq	$48, %rax
 1136 0069 4889D6   		movq	%rdx, %rsi
 1137 006c 4889C7   		movq	%rax, %rdi
 1138 006f E8000000 		call	mbedtls_mpi_cmp_mpi@PLT
 1138      00
 703:/home/xingli/share/LiteOS_Lab/network/dtls/mbedtls/mbedtls-2.16.2/library/ecp.c ****         mbedtls_mpi_cmp_mpi( &P->Y, &Q->Y ) == 0 &&
 1139              		.loc 1 703 50
 1140 0074 85C0     		testl	%eax, %eax
 1141 0076 7507     		jne	.L82
 705:/home/xingli/share/LiteOS_Lab/network/dtls/mbedtls/mbedtls-2.16.2/library/ecp.c ****     {
 706:/home/xingli/share/LiteOS_Lab/network/dtls/mbedtls/mbedtls-2.16.2/library/ecp.c ****         return( 0 );
 1142              		.loc 1 706 15
 1143 0078 B8000000 		movl	$0, %eax
 1143      00
 1144 007d EB05     		jmp	.L83
 1145              	.L82:
 707:/home/xingli/share/LiteOS_Lab/network/dtls/mbedtls/mbedtls-2.16.2/library/ecp.c ****     }
 708:/home/xingli/share/LiteOS_Lab/network/dtls/mbedtls/mbedtls-2.16.2/library/ecp.c **** 
 709:/home/xingli/share/LiteOS_Lab/network/dtls/mbedtls/mbedtls-2.16.2/library/ecp.c ****     return( MBEDTLS_ERR_ECP_BAD_INPUT_DATA );
 1146              		.loc 1 709 11
 1147 007f B880B0FF 		movl	$-20352, %eax
 1147      FF
 1148              	.L83:
 710:/home/xingli/share/LiteOS_Lab/network/dtls/mbedtls/mbedtls-2.16.2/library/ecp.c **** }
 1149              		.loc 1 710 1
 1150 0084 488B4DF8 		movq	-8(%rbp), %rcx
 1151 0088 6448330C 		xorq	%fs:40, %rcx
 1151      25280000 
 1151      00
 1152 0091 7405     		je	.L84
 1153 0093 E8000000 		call	__stack_chk_fail@PLT
GAS LISTING /tmp/ccajKZL5.s 			page 37


 1153      00
 1154              	.L84:
 1155 0098 C9       		leave
 1156              	.LCFI50:
 1157              		.cfi_def_cfa 7, 8
 1158 0099 C3       		ret
 1159              		.cfi_endproc
 1160              	.LFE22:
 1162              		.section	.text.mbedtls_ecp_point_read_string,"ax",@progbits
 1163              		.globl	mbedtls_ecp_point_read_string
 1165              	mbedtls_ecp_point_read_string:
 1166              	.LFB23:
 711:/home/xingli/share/LiteOS_Lab/network/dtls/mbedtls/mbedtls-2.16.2/library/ecp.c **** 
 712:/home/xingli/share/LiteOS_Lab/network/dtls/mbedtls/mbedtls-2.16.2/library/ecp.c **** /*
 713:/home/xingli/share/LiteOS_Lab/network/dtls/mbedtls/mbedtls-2.16.2/library/ecp.c ****  * Import a non-zero point from ASCII strings
 714:/home/xingli/share/LiteOS_Lab/network/dtls/mbedtls/mbedtls-2.16.2/library/ecp.c ****  */
 715:/home/xingli/share/LiteOS_Lab/network/dtls/mbedtls/mbedtls-2.16.2/library/ecp.c **** int mbedtls_ecp_point_read_string( mbedtls_ecp_point *P, int radix,
 716:/home/xingli/share/LiteOS_Lab/network/dtls/mbedtls/mbedtls-2.16.2/library/ecp.c ****                            const char *x, const char *y )
 717:/home/xingli/share/LiteOS_Lab/network/dtls/mbedtls/mbedtls-2.16.2/library/ecp.c **** {
 1167              		.loc 1 717 1
 1168              		.cfi_startproc
 1169 0000 F30F1EFA 		endbr64
 1170 0004 55       		pushq	%rbp
 1171              	.LCFI51:
 1172              		.cfi_def_cfa_offset 16
 1173              		.cfi_offset 6, -16
 1174 0005 4889E5   		movq	%rsp, %rbp
 1175              	.LCFI52:
 1176              		.cfi_def_cfa_register 6
 1177 0008 4883EC30 		subq	$48, %rsp
 1178 000c 48897DE8 		movq	%rdi, -24(%rbp)
 1179 0010 8975E4   		movl	%esi, -28(%rbp)
 1180 0013 488955D8 		movq	%rdx, -40(%rbp)
 1181 0017 48894DD0 		movq	%rcx, -48(%rbp)
 1182              		.loc 1 717 1
 1183 001b 64488B04 		movq	%fs:40, %rax
 1183      25280000 
 1183      00
 1184 0024 488945F8 		movq	%rax, -8(%rbp)
 1185 0028 31C0     		xorl	%eax, %eax
 718:/home/xingli/share/LiteOS_Lab/network/dtls/mbedtls/mbedtls-2.16.2/library/ecp.c ****     int ret;
 719:/home/xingli/share/LiteOS_Lab/network/dtls/mbedtls/mbedtls-2.16.2/library/ecp.c ****     ECP_VALIDATE_RET( P != NULL );
 720:/home/xingli/share/LiteOS_Lab/network/dtls/mbedtls/mbedtls-2.16.2/library/ecp.c ****     ECP_VALIDATE_RET( x != NULL );
 721:/home/xingli/share/LiteOS_Lab/network/dtls/mbedtls/mbedtls-2.16.2/library/ecp.c ****     ECP_VALIDATE_RET( y != NULL );
 722:/home/xingli/share/LiteOS_Lab/network/dtls/mbedtls/mbedtls-2.16.2/library/ecp.c **** 
 723:/home/xingli/share/LiteOS_Lab/network/dtls/mbedtls/mbedtls-2.16.2/library/ecp.c ****     MBEDTLS_MPI_CHK( mbedtls_mpi_read_string( &P->X, radix, x ) );
 1186              		.loc 1 723 5
 1187 002a 488B45E8 		movq	-24(%rbp), %rax
 1188 002e 488B55D8 		movq	-40(%rbp), %rdx
 1189 0032 8B4DE4   		movl	-28(%rbp), %ecx
 1190 0035 89CE     		movl	%ecx, %esi
 1191 0037 4889C7   		movq	%rax, %rdi
 1192 003a E8000000 		call	mbedtls_mpi_read_string@PLT
 1192      00
 1193 003f 8945F4   		movl	%eax, -12(%rbp)
 1194 0042 837DF400 		cmpl	$0, -12(%rbp)
 1195 0046 7540     		jne	.L91
GAS LISTING /tmp/ccajKZL5.s 			page 38


 724:/home/xingli/share/LiteOS_Lab/network/dtls/mbedtls/mbedtls-2.16.2/library/ecp.c ****     MBEDTLS_MPI_CHK( mbedtls_mpi_read_string( &P->Y, radix, y ) );
 1196              		.loc 1 724 5
 1197 0048 488B45E8 		movq	-24(%rbp), %rax
 1198 004c 488D4818 		leaq	24(%rax), %rcx
 1199 0050 488B55D0 		movq	-48(%rbp), %rdx
 1200 0054 8B45E4   		movl	-28(%rbp), %eax
 1201 0057 89C6     		movl	%eax, %esi
 1202 0059 4889CF   		movq	%rcx, %rdi
 1203 005c E8000000 		call	mbedtls_mpi_read_string@PLT
 1203      00
 1204 0061 8945F4   		movl	%eax, -12(%rbp)
 1205 0064 837DF400 		cmpl	$0, -12(%rbp)
 1206 0068 7521     		jne	.L92
 725:/home/xingli/share/LiteOS_Lab/network/dtls/mbedtls/mbedtls-2.16.2/library/ecp.c ****     MBEDTLS_MPI_CHK( mbedtls_mpi_lset( &P->Z, 1 ) );
 1207              		.loc 1 725 5
 1208 006a 488B45E8 		movq	-24(%rbp), %rax
 1209 006e 4883C030 		addq	$48, %rax
 1210 0072 BE010000 		movl	$1, %esi
 1210      00
 1211 0077 4889C7   		movq	%rax, %rdi
 1212 007a E8000000 		call	mbedtls_mpi_lset@PLT
 1212      00
 1213 007f 8945F4   		movl	%eax, -12(%rbp)
 1214 0082 837DF400 		cmpl	$0, -12(%rbp)
 726:/home/xingli/share/LiteOS_Lab/network/dtls/mbedtls/mbedtls-2.16.2/library/ecp.c **** 
 727:/home/xingli/share/LiteOS_Lab/network/dtls/mbedtls/mbedtls-2.16.2/library/ecp.c **** cleanup:
 1215              		.loc 1 727 1
 1216 0086 EB04     		jmp	.L87
 1217              	.L91:
 723:/home/xingli/share/LiteOS_Lab/network/dtls/mbedtls/mbedtls-2.16.2/library/ecp.c ****     MBEDTLS_MPI_CHK( mbedtls_mpi_read_string( &P->Y, radix, y ) );
 1218              		.loc 1 723 5
 1219 0088 90       		nop
 1220 0089 EB01     		jmp	.L87
 1221              	.L92:
 724:/home/xingli/share/LiteOS_Lab/network/dtls/mbedtls/mbedtls-2.16.2/library/ecp.c ****     MBEDTLS_MPI_CHK( mbedtls_mpi_lset( &P->Z, 1 ) );
 1222              		.loc 1 724 5
 1223 008b 90       		nop
 1224              	.L87:
 728:/home/xingli/share/LiteOS_Lab/network/dtls/mbedtls/mbedtls-2.16.2/library/ecp.c ****     return( ret );
 1225              		.loc 1 728 11
 1226 008c 8B45F4   		movl	-12(%rbp), %eax
 729:/home/xingli/share/LiteOS_Lab/network/dtls/mbedtls/mbedtls-2.16.2/library/ecp.c **** }
 1227              		.loc 1 729 1
 1228 008f 488B75F8 		movq	-8(%rbp), %rsi
 1229 0093 64483334 		xorq	%fs:40, %rsi
 1229      25280000 
 1229      00
 1230 009c 7405     		je	.L90
 1231 009e E8000000 		call	__stack_chk_fail@PLT
 1231      00
 1232              	.L90:
 1233 00a3 C9       		leave
 1234              	.LCFI53:
 1235              		.cfi_def_cfa 7, 8
 1236 00a4 C3       		ret
 1237              		.cfi_endproc
 1238              	.LFE23:
GAS LISTING /tmp/ccajKZL5.s 			page 39


 1240              		.section	.text.mbedtls_ecp_point_write_binary,"ax",@progbits
 1241              		.globl	mbedtls_ecp_point_write_binary
 1243              	mbedtls_ecp_point_write_binary:
 1244              	.LFB24:
 730:/home/xingli/share/LiteOS_Lab/network/dtls/mbedtls/mbedtls-2.16.2/library/ecp.c **** 
 731:/home/xingli/share/LiteOS_Lab/network/dtls/mbedtls/mbedtls-2.16.2/library/ecp.c **** /*
 732:/home/xingli/share/LiteOS_Lab/network/dtls/mbedtls/mbedtls-2.16.2/library/ecp.c ****  * Export a point into unsigned binary data (SEC1 2.3.3)
 733:/home/xingli/share/LiteOS_Lab/network/dtls/mbedtls/mbedtls-2.16.2/library/ecp.c ****  */
 734:/home/xingli/share/LiteOS_Lab/network/dtls/mbedtls/mbedtls-2.16.2/library/ecp.c **** int mbedtls_ecp_point_write_binary( const mbedtls_ecp_group *grp,
 735:/home/xingli/share/LiteOS_Lab/network/dtls/mbedtls/mbedtls-2.16.2/library/ecp.c ****                                     const mbedtls_ecp_point *P,
 736:/home/xingli/share/LiteOS_Lab/network/dtls/mbedtls/mbedtls-2.16.2/library/ecp.c ****                                     int format, size_t *olen,
 737:/home/xingli/share/LiteOS_Lab/network/dtls/mbedtls/mbedtls-2.16.2/library/ecp.c ****                                     unsigned char *buf, size_t buflen )
 738:/home/xingli/share/LiteOS_Lab/network/dtls/mbedtls/mbedtls-2.16.2/library/ecp.c **** {
 1245              		.loc 1 738 1
 1246              		.cfi_startproc
 1247 0000 F30F1EFA 		endbr64
 1248 0004 55       		pushq	%rbp
 1249              	.LCFI54:
 1250              		.cfi_def_cfa_offset 16
 1251              		.cfi_offset 6, -16
 1252 0005 4889E5   		movq	%rsp, %rbp
 1253              	.LCFI55:
 1254              		.cfi_def_cfa_register 6
 1255 0008 4883EC50 		subq	$80, %rsp
 1256 000c 48897DD8 		movq	%rdi, -40(%rbp)
 1257 0010 488975D0 		movq	%rsi, -48(%rbp)
 1258 0014 8955CC   		movl	%edx, -52(%rbp)
 1259 0017 48894DC0 		movq	%rcx, -64(%rbp)
 1260 001b 4C8945B8 		movq	%r8, -72(%rbp)
 1261 001f 4C894DB0 		movq	%r9, -80(%rbp)
 1262              		.loc 1 738 1
 1263 0023 64488B04 		movq	%fs:40, %rax
 1263      25280000 
 1263      00
 1264 002c 488945F8 		movq	%rax, -8(%rbp)
 1265 0030 31C0     		xorl	%eax, %eax
 739:/home/xingli/share/LiteOS_Lab/network/dtls/mbedtls/mbedtls-2.16.2/library/ecp.c ****     int ret = 0;
 1266              		.loc 1 739 9
 1267 0032 C745EC00 		movl	$0, -20(%rbp)
 1267      000000
 740:/home/xingli/share/LiteOS_Lab/network/dtls/mbedtls/mbedtls-2.16.2/library/ecp.c ****     size_t plen;
 741:/home/xingli/share/LiteOS_Lab/network/dtls/mbedtls/mbedtls-2.16.2/library/ecp.c ****     ECP_VALIDATE_RET( grp  != NULL );
 742:/home/xingli/share/LiteOS_Lab/network/dtls/mbedtls/mbedtls-2.16.2/library/ecp.c ****     ECP_VALIDATE_RET( P    != NULL );
 743:/home/xingli/share/LiteOS_Lab/network/dtls/mbedtls/mbedtls-2.16.2/library/ecp.c ****     ECP_VALIDATE_RET( olen != NULL );
 744:/home/xingli/share/LiteOS_Lab/network/dtls/mbedtls/mbedtls-2.16.2/library/ecp.c ****     ECP_VALIDATE_RET( buf  != NULL );
 745:/home/xingli/share/LiteOS_Lab/network/dtls/mbedtls/mbedtls-2.16.2/library/ecp.c ****     ECP_VALIDATE_RET( format == MBEDTLS_ECP_PF_UNCOMPRESSED ||
 746:/home/xingli/share/LiteOS_Lab/network/dtls/mbedtls/mbedtls-2.16.2/library/ecp.c ****                       format == MBEDTLS_ECP_PF_COMPRESSED );
 747:/home/xingli/share/LiteOS_Lab/network/dtls/mbedtls/mbedtls-2.16.2/library/ecp.c **** 
 748:/home/xingli/share/LiteOS_Lab/network/dtls/mbedtls/mbedtls-2.16.2/library/ecp.c ****     /*
 749:/home/xingli/share/LiteOS_Lab/network/dtls/mbedtls/mbedtls-2.16.2/library/ecp.c ****      * Common case: P == 0
 750:/home/xingli/share/LiteOS_Lab/network/dtls/mbedtls/mbedtls-2.16.2/library/ecp.c ****      */
 751:/home/xingli/share/LiteOS_Lab/network/dtls/mbedtls/mbedtls-2.16.2/library/ecp.c ****     if( mbedtls_mpi_cmp_int( &P->Z, 0 ) == 0 )
 1268              		.loc 1 751 9
 1269 0039 488B45D0 		movq	-48(%rbp), %rax
 1270 003d 4883C030 		addq	$48, %rax
 1271 0041 BE000000 		movl	$0, %esi
 1271      00
GAS LISTING /tmp/ccajKZL5.s 			page 40


 1272 0046 4889C7   		movq	%rax, %rdi
 1273 0049 E8000000 		call	mbedtls_mpi_cmp_int@PLT
 1273      00
 1274              		.loc 1 751 7
 1275 004e 85C0     		testl	%eax, %eax
 1276 0050 752D     		jne	.L94
 752:/home/xingli/share/LiteOS_Lab/network/dtls/mbedtls/mbedtls-2.16.2/library/ecp.c ****     {
 753:/home/xingli/share/LiteOS_Lab/network/dtls/mbedtls/mbedtls-2.16.2/library/ecp.c ****         if( buflen < 1 )
 1277              		.loc 1 753 11
 1278 0052 48837DB0 		cmpq	$0, -80(%rbp)
 1278      00
 1279 0057 750A     		jne	.L95
 754:/home/xingli/share/LiteOS_Lab/network/dtls/mbedtls/mbedtls-2.16.2/library/ecp.c ****             return( MBEDTLS_ERR_ECP_BUFFER_TOO_SMALL );
 1280              		.loc 1 754 19
 1281 0059 B800B1FF 		movl	$-20224, %eax
 1281      FF
 1282 005e E9340100 		jmp	.L96
 1282      00
 1283              	.L95:
 755:/home/xingli/share/LiteOS_Lab/network/dtls/mbedtls/mbedtls-2.16.2/library/ecp.c **** 
 756:/home/xingli/share/LiteOS_Lab/network/dtls/mbedtls/mbedtls-2.16.2/library/ecp.c ****         buf[0] = 0x00;
 1284              		.loc 1 756 16
 1285 0063 488B45B8 		movq	-72(%rbp), %rax
 1286 0067 C60000   		movb	$0, (%rax)
 757:/home/xingli/share/LiteOS_Lab/network/dtls/mbedtls/mbedtls-2.16.2/library/ecp.c ****         *olen = 1;
 1287              		.loc 1 757 15
 1288 006a 488B45C0 		movq	-64(%rbp), %rax
 1289 006e 48C70001 		movq	$1, (%rax)
 1289      000000
 758:/home/xingli/share/LiteOS_Lab/network/dtls/mbedtls/mbedtls-2.16.2/library/ecp.c **** 
 759:/home/xingli/share/LiteOS_Lab/network/dtls/mbedtls/mbedtls-2.16.2/library/ecp.c ****         return( 0 );
 1290              		.loc 1 759 15
 1291 0075 B8000000 		movl	$0, %eax
 1291      00
 1292 007a E9180100 		jmp	.L96
 1292      00
 1293              	.L94:
 760:/home/xingli/share/LiteOS_Lab/network/dtls/mbedtls/mbedtls-2.16.2/library/ecp.c ****     }
 761:/home/xingli/share/LiteOS_Lab/network/dtls/mbedtls/mbedtls-2.16.2/library/ecp.c **** 
 762:/home/xingli/share/LiteOS_Lab/network/dtls/mbedtls/mbedtls-2.16.2/library/ecp.c ****     plen = mbedtls_mpi_size( &grp->P );
 1294              		.loc 1 762 12
 1295 007f 488B45D8 		movq	-40(%rbp), %rax
 1296 0083 4883C008 		addq	$8, %rax
 1297 0087 4889C7   		movq	%rax, %rdi
 1298 008a E8000000 		call	mbedtls_mpi_size@PLT
 1298      00
 1299 008f 488945F0 		movq	%rax, -16(%rbp)
 763:/home/xingli/share/LiteOS_Lab/network/dtls/mbedtls/mbedtls-2.16.2/library/ecp.c **** 
 764:/home/xingli/share/LiteOS_Lab/network/dtls/mbedtls/mbedtls-2.16.2/library/ecp.c ****     if( format == MBEDTLS_ECP_PF_UNCOMPRESSED )
 1300              		.loc 1 764 7
 1301 0093 837DCC00 		cmpl	$0, -52(%rbp)
 1302 0097 0F858800 		jne	.L97
 1302      0000
 765:/home/xingli/share/LiteOS_Lab/network/dtls/mbedtls/mbedtls-2.16.2/library/ecp.c ****     {
 766:/home/xingli/share/LiteOS_Lab/network/dtls/mbedtls/mbedtls-2.16.2/library/ecp.c ****         *olen = 2 * plen + 1;
 1303              		.loc 1 766 19
 1304 009d 488B45F0 		movq	-16(%rbp), %rax
GAS LISTING /tmp/ccajKZL5.s 			page 41


 1305 00a1 4801C0   		addq	%rax, %rax
 1306              		.loc 1 766 26
 1307 00a4 488D5001 		leaq	1(%rax), %rdx
 1308              		.loc 1 766 15
 1309 00a8 488B45C0 		movq	-64(%rbp), %rax
 1310 00ac 488910   		movq	%rdx, (%rax)
 767:/home/xingli/share/LiteOS_Lab/network/dtls/mbedtls/mbedtls-2.16.2/library/ecp.c **** 
 768:/home/xingli/share/LiteOS_Lab/network/dtls/mbedtls/mbedtls-2.16.2/library/ecp.c ****         if( buflen < *olen )
 1311              		.loc 1 768 22
 1312 00af 488B45C0 		movq	-64(%rbp), %rax
 1313 00b3 488B00   		movq	(%rax), %rax
 1314              		.loc 1 768 11
 1315 00b6 483945B0 		cmpq	%rax, -80(%rbp)
 1316 00ba 730A     		jnb	.L98
 769:/home/xingli/share/LiteOS_Lab/network/dtls/mbedtls/mbedtls-2.16.2/library/ecp.c ****             return( MBEDTLS_ERR_ECP_BUFFER_TOO_SMALL );
 1317              		.loc 1 769 19
 1318 00bc B800B1FF 		movl	$-20224, %eax
 1318      FF
 1319 00c1 E9D10000 		jmp	.L96
 1319      00
 1320              	.L98:
 770:/home/xingli/share/LiteOS_Lab/network/dtls/mbedtls/mbedtls-2.16.2/library/ecp.c **** 
 771:/home/xingli/share/LiteOS_Lab/network/dtls/mbedtls/mbedtls-2.16.2/library/ecp.c ****         buf[0] = 0x04;
 1321              		.loc 1 771 16
 1322 00c6 488B45B8 		movq	-72(%rbp), %rax
 1323 00ca C60004   		movb	$4, (%rax)
 772:/home/xingli/share/LiteOS_Lab/network/dtls/mbedtls/mbedtls-2.16.2/library/ecp.c ****         MBEDTLS_MPI_CHK( mbedtls_mpi_write_binary( &P->X, buf + 1, plen ) );
 1324              		.loc 1 772 9
 1325 00cd 488B45B8 		movq	-72(%rbp), %rax
 1326 00d1 488D4801 		leaq	1(%rax), %rcx
 1327 00d5 488B45D0 		movq	-48(%rbp), %rax
 1328 00d9 488B55F0 		movq	-16(%rbp), %rdx
 1329 00dd 4889CE   		movq	%rcx, %rsi
 1330 00e0 4889C7   		movq	%rax, %rdi
 1331 00e3 E8000000 		call	mbedtls_mpi_write_binary@PLT
 1331      00
 1332 00e8 8945EC   		movl	%eax, -20(%rbp)
 1333 00eb 837DEC00 		cmpl	$0, -20(%rbp)
 1334 00ef 0F859B00 		jne	.L103
 1334      0000
 773:/home/xingli/share/LiteOS_Lab/network/dtls/mbedtls/mbedtls-2.16.2/library/ecp.c ****         MBEDTLS_MPI_CHK( mbedtls_mpi_write_binary( &P->Y, buf + 1 + plen, plen ) );
 1335              		.loc 1 773 9
 1336 00f5 488B45F0 		movq	-16(%rbp), %rax
 1337 00f9 488D5001 		leaq	1(%rax), %rdx
 1338 00fd 488B45B8 		movq	-72(%rbp), %rax
 1339 0101 488D3402 		leaq	(%rdx,%rax), %rsi
 1340 0105 488B45D0 		movq	-48(%rbp), %rax
 1341 0109 488D4818 		leaq	24(%rax), %rcx
 1342 010d 488B45F0 		movq	-16(%rbp), %rax
 1343 0111 4889C2   		movq	%rax, %rdx
 1344 0114 4889CF   		movq	%rcx, %rdi
 1345 0117 E8000000 		call	mbedtls_mpi_write_binary@PLT
 1345      00
 1346 011c 8945EC   		movl	%eax, -20(%rbp)
 1347 011f 837DEC00 		cmpl	$0, -20(%rbp)
 1348 0123 EB6F     		jmp	.L100
 1349              	.L97:
GAS LISTING /tmp/ccajKZL5.s 			page 42


 774:/home/xingli/share/LiteOS_Lab/network/dtls/mbedtls/mbedtls-2.16.2/library/ecp.c ****     }
 775:/home/xingli/share/LiteOS_Lab/network/dtls/mbedtls/mbedtls-2.16.2/library/ecp.c ****     else if( format == MBEDTLS_ECP_PF_COMPRESSED )
 1350              		.loc 1 775 12
 1351 0125 837DCC01 		cmpl	$1, -52(%rbp)
 1352 0129 7568     		jne	.L104
 776:/home/xingli/share/LiteOS_Lab/network/dtls/mbedtls/mbedtls-2.16.2/library/ecp.c ****     {
 777:/home/xingli/share/LiteOS_Lab/network/dtls/mbedtls/mbedtls-2.16.2/library/ecp.c ****         *olen = plen + 1;
 1353              		.loc 1 777 22
 1354 012b 488B45F0 		movq	-16(%rbp), %rax
 1355 012f 488D5001 		leaq	1(%rax), %rdx
 1356              		.loc 1 777 15
 1357 0133 488B45C0 		movq	-64(%rbp), %rax
 1358 0137 488910   		movq	%rdx, (%rax)
 778:/home/xingli/share/LiteOS_Lab/network/dtls/mbedtls/mbedtls-2.16.2/library/ecp.c **** 
 779:/home/xingli/share/LiteOS_Lab/network/dtls/mbedtls/mbedtls-2.16.2/library/ecp.c ****         if( buflen < *olen )
 1359              		.loc 1 779 22
 1360 013a 488B45C0 		movq	-64(%rbp), %rax
 1361 013e 488B00   		movq	(%rax), %rax
 1362              		.loc 1 779 11
 1363 0141 483945B0 		cmpq	%rax, -80(%rbp)
 1364 0145 7307     		jnb	.L101
 780:/home/xingli/share/LiteOS_Lab/network/dtls/mbedtls/mbedtls-2.16.2/library/ecp.c ****             return( MBEDTLS_ERR_ECP_BUFFER_TOO_SMALL );
 1365              		.loc 1 780 19
 1366 0147 B800B1FF 		movl	$-20224, %eax
 1366      FF
 1367 014c EB49     		jmp	.L96
 1368              	.L101:
 781:/home/xingli/share/LiteOS_Lab/network/dtls/mbedtls/mbedtls-2.16.2/library/ecp.c **** 
 782:/home/xingli/share/LiteOS_Lab/network/dtls/mbedtls/mbedtls-2.16.2/library/ecp.c ****         buf[0] = 0x02 + mbedtls_mpi_get_bit( &P->Y, 0 );
 1369              		.loc 1 782 25
 1370 014e 488B45D0 		movq	-48(%rbp), %rax
 1371 0152 4883C018 		addq	$24, %rax
 1372 0156 BE000000 		movl	$0, %esi
 1372      00
 1373 015b 4889C7   		movq	%rax, %rdi
 1374 015e E8000000 		call	mbedtls_mpi_get_bit@PLT
 1374      00
 1375              		.loc 1 782 23
 1376 0163 8D5002   		leal	2(%rax), %edx
 1377              		.loc 1 782 16
 1378 0166 488B45B8 		movq	-72(%rbp), %rax
 1379 016a 8810     		movb	%dl, (%rax)
 783:/home/xingli/share/LiteOS_Lab/network/dtls/mbedtls/mbedtls-2.16.2/library/ecp.c ****         MBEDTLS_MPI_CHK( mbedtls_mpi_write_binary( &P->X, buf + 1, plen ) );
 1380              		.loc 1 783 9
 1381 016c 488B45B8 		movq	-72(%rbp), %rax
 1382 0170 488D4801 		leaq	1(%rax), %rcx
 1383 0174 488B45D0 		movq	-48(%rbp), %rax
 1384 0178 488B55F0 		movq	-16(%rbp), %rdx
 1385 017c 4889CE   		movq	%rcx, %rsi
 1386 017f 4889C7   		movq	%rax, %rdi
 1387 0182 E8000000 		call	mbedtls_mpi_write_binary@PLT
 1387      00
 1388 0187 8945EC   		movl	%eax, -20(%rbp)
 1389 018a 837DEC00 		cmpl	$0, -20(%rbp)
 784:/home/xingli/share/LiteOS_Lab/network/dtls/mbedtls/mbedtls-2.16.2/library/ecp.c ****     }
 785:/home/xingli/share/LiteOS_Lab/network/dtls/mbedtls/mbedtls-2.16.2/library/ecp.c **** 
 786:/home/xingli/share/LiteOS_Lab/network/dtls/mbedtls/mbedtls-2.16.2/library/ecp.c **** cleanup:
GAS LISTING /tmp/ccajKZL5.s 			page 43


 1390              		.loc 1 786 1
 1391 018e EB03     		jmp	.L104
 1392              	.L103:
 772:/home/xingli/share/LiteOS_Lab/network/dtls/mbedtls/mbedtls-2.16.2/library/ecp.c ****         MBEDTLS_MPI_CHK( mbedtls_mpi_write_binary( &P->Y, buf + 1 + plen, plen ) );
 1393              		.loc 1 772 9
 1394 0190 90       		nop
 1395 0191 EB01     		jmp	.L100
 1396              	.L104:
 1397              		.loc 1 786 1
 1398 0193 90       		nop
 1399              	.L100:
 787:/home/xingli/share/LiteOS_Lab/network/dtls/mbedtls/mbedtls-2.16.2/library/ecp.c ****     return( ret );
 1400              		.loc 1 787 11
 1401 0194 8B45EC   		movl	-20(%rbp), %eax
 1402              	.L96:
 788:/home/xingli/share/LiteOS_Lab/network/dtls/mbedtls/mbedtls-2.16.2/library/ecp.c **** }
 1403              		.loc 1 788 1
 1404 0197 488B4DF8 		movq	-8(%rbp), %rcx
 1405 019b 6448330C 		xorq	%fs:40, %rcx
 1405      25280000 
 1405      00
 1406 01a4 7405     		je	.L102
 1407 01a6 E8000000 		call	__stack_chk_fail@PLT
 1407      00
 1408              	.L102:
 1409 01ab C9       		leave
 1410              	.LCFI56:
 1411              		.cfi_def_cfa 7, 8
 1412 01ac C3       		ret
 1413              		.cfi_endproc
 1414              	.LFE24:
 1416              		.section	.text.mbedtls_ecp_point_read_binary,"ax",@progbits
 1417              		.globl	mbedtls_ecp_point_read_binary
 1419              	mbedtls_ecp_point_read_binary:
 1420              	.LFB25:
 789:/home/xingli/share/LiteOS_Lab/network/dtls/mbedtls/mbedtls-2.16.2/library/ecp.c **** 
 790:/home/xingli/share/LiteOS_Lab/network/dtls/mbedtls/mbedtls-2.16.2/library/ecp.c **** /*
 791:/home/xingli/share/LiteOS_Lab/network/dtls/mbedtls/mbedtls-2.16.2/library/ecp.c ****  * Import a point from unsigned binary data (SEC1 2.3.4)
 792:/home/xingli/share/LiteOS_Lab/network/dtls/mbedtls/mbedtls-2.16.2/library/ecp.c ****  */
 793:/home/xingli/share/LiteOS_Lab/network/dtls/mbedtls/mbedtls-2.16.2/library/ecp.c **** int mbedtls_ecp_point_read_binary( const mbedtls_ecp_group *grp,
 794:/home/xingli/share/LiteOS_Lab/network/dtls/mbedtls/mbedtls-2.16.2/library/ecp.c ****                                    mbedtls_ecp_point *pt,
 795:/home/xingli/share/LiteOS_Lab/network/dtls/mbedtls/mbedtls-2.16.2/library/ecp.c ****                                    const unsigned char *buf, size_t ilen )
 796:/home/xingli/share/LiteOS_Lab/network/dtls/mbedtls/mbedtls-2.16.2/library/ecp.c **** {
 1421              		.loc 1 796 1
 1422              		.cfi_startproc
 1423 0000 F30F1EFA 		endbr64
 1424 0004 55       		pushq	%rbp
 1425              	.LCFI57:
 1426              		.cfi_def_cfa_offset 16
 1427              		.cfi_offset 6, -16
 1428 0005 4889E5   		movq	%rsp, %rbp
 1429              	.LCFI58:
 1430              		.cfi_def_cfa_register 6
 1431 0008 4883EC40 		subq	$64, %rsp
 1432 000c 48897DD8 		movq	%rdi, -40(%rbp)
 1433 0010 488975D0 		movq	%rsi, -48(%rbp)
 1434 0014 488955C8 		movq	%rdx, -56(%rbp)
GAS LISTING /tmp/ccajKZL5.s 			page 44


 1435 0018 48894DC0 		movq	%rcx, -64(%rbp)
 1436              		.loc 1 796 1
 1437 001c 64488B04 		movq	%fs:40, %rax
 1437      25280000 
 1437      00
 1438 0025 488945F8 		movq	%rax, -8(%rbp)
 1439 0029 31C0     		xorl	%eax, %eax
 797:/home/xingli/share/LiteOS_Lab/network/dtls/mbedtls/mbedtls-2.16.2/library/ecp.c ****     int ret;
 798:/home/xingli/share/LiteOS_Lab/network/dtls/mbedtls/mbedtls-2.16.2/library/ecp.c ****     size_t plen;
 799:/home/xingli/share/LiteOS_Lab/network/dtls/mbedtls/mbedtls-2.16.2/library/ecp.c ****     ECP_VALIDATE_RET( grp != NULL );
 800:/home/xingli/share/LiteOS_Lab/network/dtls/mbedtls/mbedtls-2.16.2/library/ecp.c ****     ECP_VALIDATE_RET( pt  != NULL );
 801:/home/xingli/share/LiteOS_Lab/network/dtls/mbedtls/mbedtls-2.16.2/library/ecp.c ****     ECP_VALIDATE_RET( buf != NULL );
 802:/home/xingli/share/LiteOS_Lab/network/dtls/mbedtls/mbedtls-2.16.2/library/ecp.c **** 
 803:/home/xingli/share/LiteOS_Lab/network/dtls/mbedtls/mbedtls-2.16.2/library/ecp.c ****     if( ilen < 1 )
 1440              		.loc 1 803 7
 1441 002b 48837DC0 		cmpq	$0, -64(%rbp)
 1441      00
 1442 0030 750A     		jne	.L106
 804:/home/xingli/share/LiteOS_Lab/network/dtls/mbedtls/mbedtls-2.16.2/library/ecp.c ****         return( MBEDTLS_ERR_ECP_BAD_INPUT_DATA );
 1443              		.loc 1 804 15
 1444 0032 B880B0FF 		movl	$-20352, %eax
 1444      FF
 1445 0037 E9E70000 		jmp	.L107
 1445      00
 1446              	.L106:
 805:/home/xingli/share/LiteOS_Lab/network/dtls/mbedtls/mbedtls-2.16.2/library/ecp.c **** 
 806:/home/xingli/share/LiteOS_Lab/network/dtls/mbedtls/mbedtls-2.16.2/library/ecp.c ****     if( buf[0] == 0x00 )
 1447              		.loc 1 806 12
 1448 003c 488B45C8 		movq	-56(%rbp), %rax
 1449 0040 0FB600   		movzbl	(%rax), %eax
 1450              		.loc 1 806 7
 1451 0043 84C0     		testb	%al, %al
 1452 0045 7522     		jne	.L108
 807:/home/xingli/share/LiteOS_Lab/network/dtls/mbedtls/mbedtls-2.16.2/library/ecp.c ****     {
 808:/home/xingli/share/LiteOS_Lab/network/dtls/mbedtls/mbedtls-2.16.2/library/ecp.c ****         if( ilen == 1 )
 1453              		.loc 1 808 11
 1454 0047 48837DC0 		cmpq	$1, -64(%rbp)
 1454      01
 1455 004c 7511     		jne	.L109
 809:/home/xingli/share/LiteOS_Lab/network/dtls/mbedtls/mbedtls-2.16.2/library/ecp.c ****             return( mbedtls_ecp_set_zero( pt ) );
 1456              		.loc 1 809 21
 1457 004e 488B45D0 		movq	-48(%rbp), %rax
 1458 0052 4889C7   		movq	%rax, %rdi
 1459 0055 E8000000 		call	mbedtls_ecp_set_zero
 1459      00
 1460 005a E9C40000 		jmp	.L107
 1460      00
 1461              	.L109:
 810:/home/xingli/share/LiteOS_Lab/network/dtls/mbedtls/mbedtls-2.16.2/library/ecp.c ****         else
 811:/home/xingli/share/LiteOS_Lab/network/dtls/mbedtls/mbedtls-2.16.2/library/ecp.c ****             return( MBEDTLS_ERR_ECP_BAD_INPUT_DATA );
 1462              		.loc 1 811 19
 1463 005f B880B0FF 		movl	$-20352, %eax
 1463      FF
 1464 0064 E9BA0000 		jmp	.L107
 1464      00
 1465              	.L108:
 812:/home/xingli/share/LiteOS_Lab/network/dtls/mbedtls/mbedtls-2.16.2/library/ecp.c ****     }
GAS LISTING /tmp/ccajKZL5.s 			page 45


 813:/home/xingli/share/LiteOS_Lab/network/dtls/mbedtls/mbedtls-2.16.2/library/ecp.c **** 
 814:/home/xingli/share/LiteOS_Lab/network/dtls/mbedtls/mbedtls-2.16.2/library/ecp.c ****     plen = mbedtls_mpi_size( &grp->P );
 1466              		.loc 1 814 12
 1467 0069 488B45D8 		movq	-40(%rbp), %rax
 1468 006d 4883C008 		addq	$8, %rax
 1469 0071 4889C7   		movq	%rax, %rdi
 1470 0074 E8000000 		call	mbedtls_mpi_size@PLT
 1470      00
 1471 0079 488945F0 		movq	%rax, -16(%rbp)
 815:/home/xingli/share/LiteOS_Lab/network/dtls/mbedtls/mbedtls-2.16.2/library/ecp.c **** 
 816:/home/xingli/share/LiteOS_Lab/network/dtls/mbedtls/mbedtls-2.16.2/library/ecp.c ****     if( buf[0] != 0x04 )
 1472              		.loc 1 816 12
 1473 007d 488B45C8 		movq	-56(%rbp), %rax
 1474 0081 0FB600   		movzbl	(%rax), %eax
 1475              		.loc 1 816 7
 1476 0084 3C04     		cmpb	$4, %al
 1477 0086 740A     		je	.L110
 817:/home/xingli/share/LiteOS_Lab/network/dtls/mbedtls/mbedtls-2.16.2/library/ecp.c ****         return( MBEDTLS_ERR_ECP_FEATURE_UNAVAILABLE );
 1478              		.loc 1 817 15
 1479 0088 B880B1FF 		movl	$-20096, %eax
 1479      FF
 1480 008d E9910000 		jmp	.L107
 1480      00
 1481              	.L110:
 818:/home/xingli/share/LiteOS_Lab/network/dtls/mbedtls/mbedtls-2.16.2/library/ecp.c **** 
 819:/home/xingli/share/LiteOS_Lab/network/dtls/mbedtls/mbedtls-2.16.2/library/ecp.c ****     if( ilen != 2 * plen + 1 )
 1482              		.loc 1 819 19
 1483 0092 488B45F0 		movq	-16(%rbp), %rax
 1484 0096 4801C0   		addq	%rax, %rax
 1485              		.loc 1 819 26
 1486 0099 4883C001 		addq	$1, %rax
 1487              		.loc 1 819 7
 1488 009d 483945C0 		cmpq	%rax, -64(%rbp)
 1489 00a1 7407     		je	.L111
 820:/home/xingli/share/LiteOS_Lab/network/dtls/mbedtls/mbedtls-2.16.2/library/ecp.c ****         return( MBEDTLS_ERR_ECP_BAD_INPUT_DATA );
 1490              		.loc 1 820 15
 1491 00a3 B880B0FF 		movl	$-20352, %eax
 1491      FF
 1492 00a8 EB79     		jmp	.L107
 1493              	.L111:
 821:/home/xingli/share/LiteOS_Lab/network/dtls/mbedtls/mbedtls-2.16.2/library/ecp.c **** 
 822:/home/xingli/share/LiteOS_Lab/network/dtls/mbedtls/mbedtls-2.16.2/library/ecp.c ****     MBEDTLS_MPI_CHK( mbedtls_mpi_read_binary( &pt->X, buf + 1, plen ) );
 1494              		.loc 1 822 5
 1495 00aa 488B45C8 		movq	-56(%rbp), %rax
 1496 00ae 488D4801 		leaq	1(%rax), %rcx
 1497 00b2 488B45D0 		movq	-48(%rbp), %rax
 1498 00b6 488B55F0 		movq	-16(%rbp), %rdx
 1499 00ba 4889CE   		movq	%rcx, %rsi
 1500 00bd 4889C7   		movq	%rax, %rdi
 1501 00c0 E8000000 		call	mbedtls_mpi_read_binary@PLT
 1501      00
 1502 00c5 8945EC   		movl	%eax, -20(%rbp)
 1503 00c8 837DEC00 		cmpl	$0, -20(%rbp)
 1504 00cc 754E     		jne	.L116
 823:/home/xingli/share/LiteOS_Lab/network/dtls/mbedtls/mbedtls-2.16.2/library/ecp.c ****     MBEDTLS_MPI_CHK( mbedtls_mpi_read_binary( &pt->Y, buf + 1 + plen, plen ) );
 1505              		.loc 1 823 5
 1506 00ce 488B45F0 		movq	-16(%rbp), %rax
GAS LISTING /tmp/ccajKZL5.s 			page 46


 1507 00d2 488D5001 		leaq	1(%rax), %rdx
 1508 00d6 488B45C8 		movq	-56(%rbp), %rax
 1509 00da 488D3402 		leaq	(%rdx,%rax), %rsi
 1510 00de 488B45D0 		movq	-48(%rbp), %rax
 1511 00e2 488D4818 		leaq	24(%rax), %rcx
 1512 00e6 488B45F0 		movq	-16(%rbp), %rax
 1513 00ea 4889C2   		movq	%rax, %rdx
 1514 00ed 4889CF   		movq	%rcx, %rdi
 1515 00f0 E8000000 		call	mbedtls_mpi_read_binary@PLT
 1515      00
 1516 00f5 8945EC   		movl	%eax, -20(%rbp)
 1517 00f8 837DEC00 		cmpl	$0, -20(%rbp)
 1518 00fc 7521     		jne	.L117
 824:/home/xingli/share/LiteOS_Lab/network/dtls/mbedtls/mbedtls-2.16.2/library/ecp.c ****     MBEDTLS_MPI_CHK( mbedtls_mpi_lset( &pt->Z, 1 ) );
 1519              		.loc 1 824 5
 1520 00fe 488B45D0 		movq	-48(%rbp), %rax
 1521 0102 4883C030 		addq	$48, %rax
 1522 0106 BE010000 		movl	$1, %esi
 1522      00
 1523 010b 4889C7   		movq	%rax, %rdi
 1524 010e E8000000 		call	mbedtls_mpi_lset@PLT
 1524      00
 1525 0113 8945EC   		movl	%eax, -20(%rbp)
 1526 0116 837DEC00 		cmpl	$0, -20(%rbp)
 825:/home/xingli/share/LiteOS_Lab/network/dtls/mbedtls/mbedtls-2.16.2/library/ecp.c **** 
 826:/home/xingli/share/LiteOS_Lab/network/dtls/mbedtls/mbedtls-2.16.2/library/ecp.c **** cleanup:
 1527              		.loc 1 826 1
 1528 011a EB04     		jmp	.L113
 1529              	.L116:
 822:/home/xingli/share/LiteOS_Lab/network/dtls/mbedtls/mbedtls-2.16.2/library/ecp.c ****     MBEDTLS_MPI_CHK( mbedtls_mpi_read_binary( &pt->Y, buf + 1 + plen, plen ) );
 1530              		.loc 1 822 5
 1531 011c 90       		nop
 1532 011d EB01     		jmp	.L113
 1533              	.L117:
 823:/home/xingli/share/LiteOS_Lab/network/dtls/mbedtls/mbedtls-2.16.2/library/ecp.c ****     MBEDTLS_MPI_CHK( mbedtls_mpi_lset( &pt->Z, 1 ) );
 1534              		.loc 1 823 5
 1535 011f 90       		nop
 1536              	.L113:
 827:/home/xingli/share/LiteOS_Lab/network/dtls/mbedtls/mbedtls-2.16.2/library/ecp.c ****     return( ret );
 1537              		.loc 1 827 11
 1538 0120 8B45EC   		movl	-20(%rbp), %eax
 1539              	.L107:
 828:/home/xingli/share/LiteOS_Lab/network/dtls/mbedtls/mbedtls-2.16.2/library/ecp.c **** }
 1540              		.loc 1 828 1
 1541 0123 488B4DF8 		movq	-8(%rbp), %rcx
 1542 0127 6448330C 		xorq	%fs:40, %rcx
 1542      25280000 
 1542      00
 1543 0130 7405     		je	.L115
 1544 0132 E8000000 		call	__stack_chk_fail@PLT
 1544      00
 1545              	.L115:
 1546 0137 C9       		leave
 1547              	.LCFI59:
 1548              		.cfi_def_cfa 7, 8
 1549 0138 C3       		ret
 1550              		.cfi_endproc
GAS LISTING /tmp/ccajKZL5.s 			page 47


 1551              	.LFE25:
 1553              		.section	.text.mbedtls_ecp_tls_read_point,"ax",@progbits
 1554              		.globl	mbedtls_ecp_tls_read_point
 1556              	mbedtls_ecp_tls_read_point:
 1557              	.LFB26:
 829:/home/xingli/share/LiteOS_Lab/network/dtls/mbedtls/mbedtls-2.16.2/library/ecp.c **** 
 830:/home/xingli/share/LiteOS_Lab/network/dtls/mbedtls/mbedtls-2.16.2/library/ecp.c **** /*
 831:/home/xingli/share/LiteOS_Lab/network/dtls/mbedtls/mbedtls-2.16.2/library/ecp.c ****  * Import a point from a TLS ECPoint record (RFC 4492)
 832:/home/xingli/share/LiteOS_Lab/network/dtls/mbedtls/mbedtls-2.16.2/library/ecp.c ****  *      struct {
 833:/home/xingli/share/LiteOS_Lab/network/dtls/mbedtls/mbedtls-2.16.2/library/ecp.c ****  *          opaque point <1..2^8-1>;
 834:/home/xingli/share/LiteOS_Lab/network/dtls/mbedtls/mbedtls-2.16.2/library/ecp.c ****  *      } ECPoint;
 835:/home/xingli/share/LiteOS_Lab/network/dtls/mbedtls/mbedtls-2.16.2/library/ecp.c ****  */
 836:/home/xingli/share/LiteOS_Lab/network/dtls/mbedtls/mbedtls-2.16.2/library/ecp.c **** int mbedtls_ecp_tls_read_point( const mbedtls_ecp_group *grp,
 837:/home/xingli/share/LiteOS_Lab/network/dtls/mbedtls/mbedtls-2.16.2/library/ecp.c ****                                 mbedtls_ecp_point *pt,
 838:/home/xingli/share/LiteOS_Lab/network/dtls/mbedtls/mbedtls-2.16.2/library/ecp.c ****                                 const unsigned char **buf, size_t buf_len )
 839:/home/xingli/share/LiteOS_Lab/network/dtls/mbedtls/mbedtls-2.16.2/library/ecp.c **** {
 1558              		.loc 1 839 1
 1559              		.cfi_startproc
 1560 0000 F30F1EFA 		endbr64
 1561 0004 55       		pushq	%rbp
 1562              	.LCFI60:
 1563              		.cfi_def_cfa_offset 16
 1564              		.cfi_offset 6, -16
 1565 0005 4889E5   		movq	%rsp, %rbp
 1566              	.LCFI61:
 1567              		.cfi_def_cfa_register 6
 1568 0008 4883EC40 		subq	$64, %rsp
 1569 000c 48897DD8 		movq	%rdi, -40(%rbp)
 1570 0010 488975D0 		movq	%rsi, -48(%rbp)
 1571 0014 488955C8 		movq	%rdx, -56(%rbp)
 1572 0018 48894DC0 		movq	%rcx, -64(%rbp)
 1573              		.loc 1 839 1
 1574 001c 64488B04 		movq	%fs:40, %rax
 1574      25280000 
 1574      00
 1575 0025 488945F8 		movq	%rax, -8(%rbp)
 1576 0029 31C0     		xorl	%eax, %eax
 840:/home/xingli/share/LiteOS_Lab/network/dtls/mbedtls/mbedtls-2.16.2/library/ecp.c ****     unsigned char data_len;
 841:/home/xingli/share/LiteOS_Lab/network/dtls/mbedtls/mbedtls-2.16.2/library/ecp.c ****     const unsigned char *buf_start;
 842:/home/xingli/share/LiteOS_Lab/network/dtls/mbedtls/mbedtls-2.16.2/library/ecp.c ****     ECP_VALIDATE_RET( grp != NULL );
 843:/home/xingli/share/LiteOS_Lab/network/dtls/mbedtls/mbedtls-2.16.2/library/ecp.c ****     ECP_VALIDATE_RET( pt  != NULL );
 844:/home/xingli/share/LiteOS_Lab/network/dtls/mbedtls/mbedtls-2.16.2/library/ecp.c ****     ECP_VALIDATE_RET( buf != NULL );
 845:/home/xingli/share/LiteOS_Lab/network/dtls/mbedtls/mbedtls-2.16.2/library/ecp.c ****     ECP_VALIDATE_RET( *buf != NULL );
 846:/home/xingli/share/LiteOS_Lab/network/dtls/mbedtls/mbedtls-2.16.2/library/ecp.c **** 
 847:/home/xingli/share/LiteOS_Lab/network/dtls/mbedtls/mbedtls-2.16.2/library/ecp.c ****     /*
 848:/home/xingli/share/LiteOS_Lab/network/dtls/mbedtls/mbedtls-2.16.2/library/ecp.c ****      * We must have at least two bytes (1 for length, at least one for data)
 849:/home/xingli/share/LiteOS_Lab/network/dtls/mbedtls/mbedtls-2.16.2/library/ecp.c ****      */
 850:/home/xingli/share/LiteOS_Lab/network/dtls/mbedtls/mbedtls-2.16.2/library/ecp.c ****     if( buf_len < 2 )
 1577              		.loc 1 850 7
 1578 002b 48837DC0 		cmpq	$1, -64(%rbp)
 1578      01
 1579 0030 7707     		ja	.L119
 851:/home/xingli/share/LiteOS_Lab/network/dtls/mbedtls/mbedtls-2.16.2/library/ecp.c ****         return( MBEDTLS_ERR_ECP_BAD_INPUT_DATA );
 1580              		.loc 1 851 15
 1581 0032 B880B0FF 		movl	$-20352, %eax
 1581      FF
 1582 0037 EB6E     		jmp	.L120
GAS LISTING /tmp/ccajKZL5.s 			page 48


 1583              	.L119:
 852:/home/xingli/share/LiteOS_Lab/network/dtls/mbedtls/mbedtls-2.16.2/library/ecp.c **** 
 853:/home/xingli/share/LiteOS_Lab/network/dtls/mbedtls/mbedtls-2.16.2/library/ecp.c ****     data_len = *(*buf)++;
 1584              		.loc 1 853 18
 1585 0039 488B45C8 		movq	-56(%rbp), %rax
 1586 003d 488B00   		movq	(%rax), %rax
 1587              		.loc 1 853 23
 1588 0040 488D4801 		leaq	1(%rax), %rcx
 1589 0044 488B55C8 		movq	-56(%rbp), %rdx
 1590 0048 48890A   		movq	%rcx, (%rdx)
 1591              		.loc 1 853 14
 1592 004b 0FB600   		movzbl	(%rax), %eax
 1593 004e 8845EF   		movb	%al, -17(%rbp)
 854:/home/xingli/share/LiteOS_Lab/network/dtls/mbedtls/mbedtls-2.16.2/library/ecp.c ****     if( data_len < 1 || data_len > buf_len - 1 )
 1594              		.loc 1 854 7
 1595 0051 807DEF00 		cmpb	$0, -17(%rbp)
 1596 0055 7411     		je	.L121
 1597              		.loc 1 854 34 discriminator 1
 1598 0057 0FB645EF 		movzbl	-17(%rbp), %eax
 1599              		.loc 1 854 44 discriminator 1
 1600 005b 488B55C0 		movq	-64(%rbp), %rdx
 1601 005f 4883EA01 		subq	$1, %rdx
 1602              		.loc 1 854 22 discriminator 1
 1603 0063 4839D0   		cmpq	%rdx, %rax
 1604 0066 7607     		jbe	.L122
 1605              	.L121:
 855:/home/xingli/share/LiteOS_Lab/network/dtls/mbedtls/mbedtls-2.16.2/library/ecp.c ****         return( MBEDTLS_ERR_ECP_BAD_INPUT_DATA );
 1606              		.loc 1 855 15
 1607 0068 B880B0FF 		movl	$-20352, %eax
 1607      FF
 1608 006d EB38     		jmp	.L120
 1609              	.L122:
 856:/home/xingli/share/LiteOS_Lab/network/dtls/mbedtls/mbedtls-2.16.2/library/ecp.c **** 
 857:/home/xingli/share/LiteOS_Lab/network/dtls/mbedtls/mbedtls-2.16.2/library/ecp.c ****     /*
 858:/home/xingli/share/LiteOS_Lab/network/dtls/mbedtls/mbedtls-2.16.2/library/ecp.c ****      * Save buffer start for read_binary and update buf
 859:/home/xingli/share/LiteOS_Lab/network/dtls/mbedtls/mbedtls-2.16.2/library/ecp.c ****      */
 860:/home/xingli/share/LiteOS_Lab/network/dtls/mbedtls/mbedtls-2.16.2/library/ecp.c ****     buf_start = *buf;
 1610              		.loc 1 860 15
 1611 006f 488B45C8 		movq	-56(%rbp), %rax
 1612 0073 488B00   		movq	(%rax), %rax
 1613 0076 488945F0 		movq	%rax, -16(%rbp)
 861:/home/xingli/share/LiteOS_Lab/network/dtls/mbedtls/mbedtls-2.16.2/library/ecp.c ****     *buf += data_len;
 1614              		.loc 1 861 10
 1615 007a 488B45C8 		movq	-56(%rbp), %rax
 1616 007e 488B10   		movq	(%rax), %rdx
 1617 0081 0FB645EF 		movzbl	-17(%rbp), %eax
 1618 0085 4801C2   		addq	%rax, %rdx
 1619 0088 488B45C8 		movq	-56(%rbp), %rax
 1620 008c 488910   		movq	%rdx, (%rax)
 862:/home/xingli/share/LiteOS_Lab/network/dtls/mbedtls/mbedtls-2.16.2/library/ecp.c **** 
 863:/home/xingli/share/LiteOS_Lab/network/dtls/mbedtls/mbedtls-2.16.2/library/ecp.c ****     return( mbedtls_ecp_point_read_binary( grp, pt, buf_start, data_len ) );
 1621              		.loc 1 863 13
 1622 008f 0FB64DEF 		movzbl	-17(%rbp), %ecx
 1623 0093 488B55F0 		movq	-16(%rbp), %rdx
 1624 0097 488B75D0 		movq	-48(%rbp), %rsi
 1625 009b 488B45D8 		movq	-40(%rbp), %rax
 1626 009f 4889C7   		movq	%rax, %rdi
GAS LISTING /tmp/ccajKZL5.s 			page 49


 1627 00a2 E8000000 		call	mbedtls_ecp_point_read_binary
 1627      00
 1628              	.L120:
 864:/home/xingli/share/LiteOS_Lab/network/dtls/mbedtls/mbedtls-2.16.2/library/ecp.c **** }
 1629              		.loc 1 864 1
 1630 00a7 488B7DF8 		movq	-8(%rbp), %rdi
 1631 00ab 6448333C 		xorq	%fs:40, %rdi
 1631      25280000 
 1631      00
 1632 00b4 7405     		je	.L123
 1633 00b6 E8000000 		call	__stack_chk_fail@PLT
 1633      00
 1634              	.L123:
 1635 00bb C9       		leave
 1636              	.LCFI62:
 1637              		.cfi_def_cfa 7, 8
 1638 00bc C3       		ret
 1639              		.cfi_endproc
 1640              	.LFE26:
 1642              		.section	.text.mbedtls_ecp_tls_write_point,"ax",@progbits
 1643              		.globl	mbedtls_ecp_tls_write_point
 1645              	mbedtls_ecp_tls_write_point:
 1646              	.LFB27:
 865:/home/xingli/share/LiteOS_Lab/network/dtls/mbedtls/mbedtls-2.16.2/library/ecp.c **** 
 866:/home/xingli/share/LiteOS_Lab/network/dtls/mbedtls/mbedtls-2.16.2/library/ecp.c **** /*
 867:/home/xingli/share/LiteOS_Lab/network/dtls/mbedtls/mbedtls-2.16.2/library/ecp.c ****  * Export a point as a TLS ECPoint record (RFC 4492)
 868:/home/xingli/share/LiteOS_Lab/network/dtls/mbedtls/mbedtls-2.16.2/library/ecp.c ****  *      struct {
 869:/home/xingli/share/LiteOS_Lab/network/dtls/mbedtls/mbedtls-2.16.2/library/ecp.c ****  *          opaque point <1..2^8-1>;
 870:/home/xingli/share/LiteOS_Lab/network/dtls/mbedtls/mbedtls-2.16.2/library/ecp.c ****  *      } ECPoint;
 871:/home/xingli/share/LiteOS_Lab/network/dtls/mbedtls/mbedtls-2.16.2/library/ecp.c ****  */
 872:/home/xingli/share/LiteOS_Lab/network/dtls/mbedtls/mbedtls-2.16.2/library/ecp.c **** int mbedtls_ecp_tls_write_point( const mbedtls_ecp_group *grp, const mbedtls_ecp_point *pt,
 873:/home/xingli/share/LiteOS_Lab/network/dtls/mbedtls/mbedtls-2.16.2/library/ecp.c ****                          int format, size_t *olen,
 874:/home/xingli/share/LiteOS_Lab/network/dtls/mbedtls/mbedtls-2.16.2/library/ecp.c ****                          unsigned char *buf, size_t blen )
 875:/home/xingli/share/LiteOS_Lab/network/dtls/mbedtls/mbedtls-2.16.2/library/ecp.c **** {
 1647              		.loc 1 875 1
 1648              		.cfi_startproc
 1649 0000 F30F1EFA 		endbr64
 1650 0004 55       		pushq	%rbp
 1651              	.LCFI63:
 1652              		.cfi_def_cfa_offset 16
 1653              		.cfi_offset 6, -16
 1654 0005 4889E5   		movq	%rsp, %rbp
 1655              	.LCFI64:
 1656              		.cfi_def_cfa_register 6
 1657 0008 4883EC40 		subq	$64, %rsp
 1658 000c 48897DE8 		movq	%rdi, -24(%rbp)
 1659 0010 488975E0 		movq	%rsi, -32(%rbp)
 1660 0014 8955DC   		movl	%edx, -36(%rbp)
 1661 0017 48894DD0 		movq	%rcx, -48(%rbp)
 1662 001b 4C8945C8 		movq	%r8, -56(%rbp)
 1663 001f 4C894DC0 		movq	%r9, -64(%rbp)
 1664              		.loc 1 875 1
 1665 0023 64488B04 		movq	%fs:40, %rax
 1665      25280000 
 1665      00
 1666 002c 488945F8 		movq	%rax, -8(%rbp)
 1667 0030 31C0     		xorl	%eax, %eax
GAS LISTING /tmp/ccajKZL5.s 			page 50


 876:/home/xingli/share/LiteOS_Lab/network/dtls/mbedtls/mbedtls-2.16.2/library/ecp.c ****     int ret;
 877:/home/xingli/share/LiteOS_Lab/network/dtls/mbedtls/mbedtls-2.16.2/library/ecp.c ****     ECP_VALIDATE_RET( grp  != NULL );
 878:/home/xingli/share/LiteOS_Lab/network/dtls/mbedtls/mbedtls-2.16.2/library/ecp.c ****     ECP_VALIDATE_RET( pt   != NULL );
 879:/home/xingli/share/LiteOS_Lab/network/dtls/mbedtls/mbedtls-2.16.2/library/ecp.c ****     ECP_VALIDATE_RET( olen != NULL );
 880:/home/xingli/share/LiteOS_Lab/network/dtls/mbedtls/mbedtls-2.16.2/library/ecp.c ****     ECP_VALIDATE_RET( buf  != NULL );
 881:/home/xingli/share/LiteOS_Lab/network/dtls/mbedtls/mbedtls-2.16.2/library/ecp.c ****     ECP_VALIDATE_RET( format == MBEDTLS_ECP_PF_UNCOMPRESSED ||
 882:/home/xingli/share/LiteOS_Lab/network/dtls/mbedtls/mbedtls-2.16.2/library/ecp.c ****                       format == MBEDTLS_ECP_PF_COMPRESSED );
 883:/home/xingli/share/LiteOS_Lab/network/dtls/mbedtls/mbedtls-2.16.2/library/ecp.c **** 
 884:/home/xingli/share/LiteOS_Lab/network/dtls/mbedtls/mbedtls-2.16.2/library/ecp.c ****     /*
 885:/home/xingli/share/LiteOS_Lab/network/dtls/mbedtls/mbedtls-2.16.2/library/ecp.c ****      * buffer length must be at least one, for our length byte
 886:/home/xingli/share/LiteOS_Lab/network/dtls/mbedtls/mbedtls-2.16.2/library/ecp.c ****      */
 887:/home/xingli/share/LiteOS_Lab/network/dtls/mbedtls/mbedtls-2.16.2/library/ecp.c ****     if( blen < 1 )
 1668              		.loc 1 887 7
 1669 0032 48837DC0 		cmpq	$0, -64(%rbp)
 1669      00
 1670 0037 7507     		jne	.L125
 888:/home/xingli/share/LiteOS_Lab/network/dtls/mbedtls/mbedtls-2.16.2/library/ecp.c ****         return( MBEDTLS_ERR_ECP_BAD_INPUT_DATA );
 1671              		.loc 1 888 15
 1672 0039 B880B0FF 		movl	$-20352, %eax
 1672      FF
 1673 003e EB61     		jmp	.L126
 1674              	.L125:
 889:/home/xingli/share/LiteOS_Lab/network/dtls/mbedtls/mbedtls-2.16.2/library/ecp.c **** 
 890:/home/xingli/share/LiteOS_Lab/network/dtls/mbedtls/mbedtls-2.16.2/library/ecp.c ****     if( ( ret = mbedtls_ecp_point_write_binary( grp, pt, format,
 1675              		.loc 1 890 17
 1676 0040 488B45C0 		movq	-64(%rbp), %rax
 1677 0044 4C8D40FF 		leaq	-1(%rax), %r8
 1678 0048 488B45C8 		movq	-56(%rbp), %rax
 1679 004c 488D7801 		leaq	1(%rax), %rdi
 1680 0050 488B4DD0 		movq	-48(%rbp), %rcx
 1681 0054 8B55DC   		movl	-36(%rbp), %edx
 1682 0057 488B75E0 		movq	-32(%rbp), %rsi
 1683 005b 488B45E8 		movq	-24(%rbp), %rax
 1684 005f 4D89C1   		movq	%r8, %r9
 1685 0062 4989F8   		movq	%rdi, %r8
 1686 0065 4889C7   		movq	%rax, %rdi
 1687 0068 E8000000 		call	mbedtls_ecp_point_write_binary
 1687      00
 1688 006d 8945F4   		movl	%eax, -12(%rbp)
 1689              		.loc 1 890 7
 1690 0070 837DF400 		cmpl	$0, -12(%rbp)
 1691 0074 7405     		je	.L127
 891:/home/xingli/share/LiteOS_Lab/network/dtls/mbedtls/mbedtls-2.16.2/library/ecp.c ****                     olen, buf + 1, blen - 1) ) != 0 )
 892:/home/xingli/share/LiteOS_Lab/network/dtls/mbedtls/mbedtls-2.16.2/library/ecp.c ****         return( ret );
 1692              		.loc 1 892 15
 1693 0076 8B45F4   		movl	-12(%rbp), %eax
 1694 0079 EB26     		jmp	.L126
 1695              	.L127:
 893:/home/xingli/share/LiteOS_Lab/network/dtls/mbedtls/mbedtls-2.16.2/library/ecp.c **** 
 894:/home/xingli/share/LiteOS_Lab/network/dtls/mbedtls/mbedtls-2.16.2/library/ecp.c ****     /*
 895:/home/xingli/share/LiteOS_Lab/network/dtls/mbedtls/mbedtls-2.16.2/library/ecp.c ****      * write length to the first byte and update total length
 896:/home/xingli/share/LiteOS_Lab/network/dtls/mbedtls/mbedtls-2.16.2/library/ecp.c ****      */
 897:/home/xingli/share/LiteOS_Lab/network/dtls/mbedtls/mbedtls-2.16.2/library/ecp.c ****     buf[0] = (unsigned char) *olen;
 1696              		.loc 1 897 30
 1697 007b 488B45D0 		movq	-48(%rbp), %rax
 1698 007f 488B00   		movq	(%rax), %rax
 1699              		.loc 1 897 14
GAS LISTING /tmp/ccajKZL5.s 			page 51


 1700 0082 89C2     		movl	%eax, %edx
 1701              		.loc 1 897 12
 1702 0084 488B45C8 		movq	-56(%rbp), %rax
 1703 0088 8810     		movb	%dl, (%rax)
 898:/home/xingli/share/LiteOS_Lab/network/dtls/mbedtls/mbedtls-2.16.2/library/ecp.c ****     ++*olen;
 1704              		.loc 1 898 7
 1705 008a 488B45D0 		movq	-48(%rbp), %rax
 1706 008e 488B00   		movq	(%rax), %rax
 1707              		.loc 1 898 5
 1708 0091 488D5001 		leaq	1(%rax), %rdx
 1709 0095 488B45D0 		movq	-48(%rbp), %rax
 1710 0099 488910   		movq	%rdx, (%rax)
 899:/home/xingli/share/LiteOS_Lab/network/dtls/mbedtls/mbedtls-2.16.2/library/ecp.c **** 
 900:/home/xingli/share/LiteOS_Lab/network/dtls/mbedtls/mbedtls-2.16.2/library/ecp.c ****     return( 0 );
 1711              		.loc 1 900 11
 1712 009c B8000000 		movl	$0, %eax
 1712      00
 1713              	.L126:
 901:/home/xingli/share/LiteOS_Lab/network/dtls/mbedtls/mbedtls-2.16.2/library/ecp.c **** }
 1714              		.loc 1 901 1
 1715 00a1 488B4DF8 		movq	-8(%rbp), %rcx
 1716 00a5 6448330C 		xorq	%fs:40, %rcx
 1716      25280000 
 1716      00
 1717 00ae 7405     		je	.L128
 1718 00b0 E8000000 		call	__stack_chk_fail@PLT
 1718      00
 1719              	.L128:
 1720 00b5 C9       		leave
 1721              	.LCFI65:
 1722              		.cfi_def_cfa 7, 8
 1723 00b6 C3       		ret
 1724              		.cfi_endproc
 1725              	.LFE27:
 1727              		.section	.text.mbedtls_ecp_tls_read_group,"ax",@progbits
 1728              		.globl	mbedtls_ecp_tls_read_group
 1730              	mbedtls_ecp_tls_read_group:
 1731              	.LFB28:
 902:/home/xingli/share/LiteOS_Lab/network/dtls/mbedtls/mbedtls-2.16.2/library/ecp.c **** 
 903:/home/xingli/share/LiteOS_Lab/network/dtls/mbedtls/mbedtls-2.16.2/library/ecp.c **** /*
 904:/home/xingli/share/LiteOS_Lab/network/dtls/mbedtls/mbedtls-2.16.2/library/ecp.c ****  * Set a group from an ECParameters record (RFC 4492)
 905:/home/xingli/share/LiteOS_Lab/network/dtls/mbedtls/mbedtls-2.16.2/library/ecp.c ****  */
 906:/home/xingli/share/LiteOS_Lab/network/dtls/mbedtls/mbedtls-2.16.2/library/ecp.c **** int mbedtls_ecp_tls_read_group( mbedtls_ecp_group *grp,
 907:/home/xingli/share/LiteOS_Lab/network/dtls/mbedtls/mbedtls-2.16.2/library/ecp.c ****                                 const unsigned char **buf, size_t len )
 908:/home/xingli/share/LiteOS_Lab/network/dtls/mbedtls/mbedtls-2.16.2/library/ecp.c **** {
 1732              		.loc 1 908 1
 1733              		.cfi_startproc
 1734 0000 F30F1EFA 		endbr64
 1735 0004 55       		pushq	%rbp
 1736              	.LCFI66:
 1737              		.cfi_def_cfa_offset 16
 1738              		.cfi_offset 6, -16
 1739 0005 4889E5   		movq	%rsp, %rbp
 1740              	.LCFI67:
 1741              		.cfi_def_cfa_register 6
 1742 0008 4883EC30 		subq	$48, %rsp
 1743 000c 48897DE8 		movq	%rdi, -24(%rbp)
GAS LISTING /tmp/ccajKZL5.s 			page 52


 1744 0010 488975E0 		movq	%rsi, -32(%rbp)
 1745 0014 488955D8 		movq	%rdx, -40(%rbp)
 1746              		.loc 1 908 1
 1747 0018 64488B04 		movq	%fs:40, %rax
 1747      25280000 
 1747      00
 1748 0021 488945F8 		movq	%rax, -8(%rbp)
 1749 0025 31C0     		xorl	%eax, %eax
 909:/home/xingli/share/LiteOS_Lab/network/dtls/mbedtls/mbedtls-2.16.2/library/ecp.c ****     int ret;
 910:/home/xingli/share/LiteOS_Lab/network/dtls/mbedtls/mbedtls-2.16.2/library/ecp.c ****     mbedtls_ecp_group_id grp_id;
 911:/home/xingli/share/LiteOS_Lab/network/dtls/mbedtls/mbedtls-2.16.2/library/ecp.c ****     ECP_VALIDATE_RET( grp  != NULL );
 912:/home/xingli/share/LiteOS_Lab/network/dtls/mbedtls/mbedtls-2.16.2/library/ecp.c ****     ECP_VALIDATE_RET( buf  != NULL );
 913:/home/xingli/share/LiteOS_Lab/network/dtls/mbedtls/mbedtls-2.16.2/library/ecp.c ****     ECP_VALIDATE_RET( *buf != NULL );
 914:/home/xingli/share/LiteOS_Lab/network/dtls/mbedtls/mbedtls-2.16.2/library/ecp.c **** 
 915:/home/xingli/share/LiteOS_Lab/network/dtls/mbedtls/mbedtls-2.16.2/library/ecp.c ****     if( ( ret = mbedtls_ecp_tls_read_group_id( &grp_id, buf, len ) ) != 0 )
 1750              		.loc 1 915 17
 1751 0027 488B55D8 		movq	-40(%rbp), %rdx
 1752 002b 488B4DE0 		movq	-32(%rbp), %rcx
 1753 002f 488D45F0 		leaq	-16(%rbp), %rax
 1754 0033 4889CE   		movq	%rcx, %rsi
 1755 0036 4889C7   		movq	%rax, %rdi
 1756 0039 E8000000 		call	mbedtls_ecp_tls_read_group_id
 1756      00
 1757 003e 8945F4   		movl	%eax, -12(%rbp)
 1758              		.loc 1 915 7
 1759 0041 837DF400 		cmpl	$0, -12(%rbp)
 1760 0045 7405     		je	.L130
 916:/home/xingli/share/LiteOS_Lab/network/dtls/mbedtls/mbedtls-2.16.2/library/ecp.c ****         return( ret );
 1761              		.loc 1 916 15
 1762 0047 8B45F4   		movl	-12(%rbp), %eax
 1763 004a EB11     		jmp	.L132
 1764              	.L130:
 917:/home/xingli/share/LiteOS_Lab/network/dtls/mbedtls/mbedtls-2.16.2/library/ecp.c **** 
 918:/home/xingli/share/LiteOS_Lab/network/dtls/mbedtls/mbedtls-2.16.2/library/ecp.c ****     return( mbedtls_ecp_group_load( grp, grp_id ) );
 1765              		.loc 1 918 13
 1766 004c 8B55F0   		movl	-16(%rbp), %edx
 1767 004f 488B45E8 		movq	-24(%rbp), %rax
 1768 0053 89D6     		movl	%edx, %esi
 1769 0055 4889C7   		movq	%rax, %rdi
 1770 0058 E8000000 		call	mbedtls_ecp_group_load@PLT
 1770      00
 1771              	.L132:
 919:/home/xingli/share/LiteOS_Lab/network/dtls/mbedtls/mbedtls-2.16.2/library/ecp.c **** }
 1772              		.loc 1 919 1 discriminator 1
 1773 005d 488B4DF8 		movq	-8(%rbp), %rcx
 1774 0061 6448330C 		xorq	%fs:40, %rcx
 1774      25280000 
 1774      00
 1775 006a 7405     		je	.L133
 1776              		.loc 1 919 1 is_stmt 0
 1777 006c E8000000 		call	__stack_chk_fail@PLT
 1777      00
 1778              	.L133:
 1779 0071 C9       		leave
 1780              	.LCFI68:
 1781              		.cfi_def_cfa 7, 8
 1782 0072 C3       		ret
GAS LISTING /tmp/ccajKZL5.s 			page 53


 1783              		.cfi_endproc
 1784              	.LFE28:
 1786              		.section	.text.mbedtls_ecp_tls_read_group_id,"ax",@progbits
 1787              		.globl	mbedtls_ecp_tls_read_group_id
 1789              	mbedtls_ecp_tls_read_group_id:
 1790              	.LFB29:
 920:/home/xingli/share/LiteOS_Lab/network/dtls/mbedtls/mbedtls-2.16.2/library/ecp.c **** 
 921:/home/xingli/share/LiteOS_Lab/network/dtls/mbedtls/mbedtls-2.16.2/library/ecp.c **** /*
 922:/home/xingli/share/LiteOS_Lab/network/dtls/mbedtls/mbedtls-2.16.2/library/ecp.c ****  * Read a group id from an ECParameters record (RFC 4492) and convert it to
 923:/home/xingli/share/LiteOS_Lab/network/dtls/mbedtls/mbedtls-2.16.2/library/ecp.c ****  * mbedtls_ecp_group_id.
 924:/home/xingli/share/LiteOS_Lab/network/dtls/mbedtls/mbedtls-2.16.2/library/ecp.c ****  */
 925:/home/xingli/share/LiteOS_Lab/network/dtls/mbedtls/mbedtls-2.16.2/library/ecp.c **** int mbedtls_ecp_tls_read_group_id( mbedtls_ecp_group_id *grp,
 926:/home/xingli/share/LiteOS_Lab/network/dtls/mbedtls/mbedtls-2.16.2/library/ecp.c ****                                    const unsigned char **buf, size_t len )
 927:/home/xingli/share/LiteOS_Lab/network/dtls/mbedtls/mbedtls-2.16.2/library/ecp.c **** {
 1791              		.loc 1 927 1 is_stmt 1
 1792              		.cfi_startproc
 1793 0000 F30F1EFA 		endbr64
 1794 0004 55       		pushq	%rbp
 1795              	.LCFI69:
 1796              		.cfi_def_cfa_offset 16
 1797              		.cfi_offset 6, -16
 1798 0005 4889E5   		movq	%rsp, %rbp
 1799              	.LCFI70:
 1800              		.cfi_def_cfa_register 6
 1801 0008 4883EC40 		subq	$64, %rsp
 1802 000c 48897DD8 		movq	%rdi, -40(%rbp)
 1803 0010 488975D0 		movq	%rsi, -48(%rbp)
 1804 0014 488955C8 		movq	%rdx, -56(%rbp)
 1805              		.loc 1 927 1
 1806 0018 64488B04 		movq	%fs:40, %rax
 1806      25280000 
 1806      00
 1807 0021 488945F8 		movq	%rax, -8(%rbp)
 1808 0025 31C0     		xorl	%eax, %eax
 928:/home/xingli/share/LiteOS_Lab/network/dtls/mbedtls/mbedtls-2.16.2/library/ecp.c ****     uint16_t tls_id;
 929:/home/xingli/share/LiteOS_Lab/network/dtls/mbedtls/mbedtls-2.16.2/library/ecp.c ****     const mbedtls_ecp_curve_info *curve_info;
 930:/home/xingli/share/LiteOS_Lab/network/dtls/mbedtls/mbedtls-2.16.2/library/ecp.c ****     ECP_VALIDATE_RET( grp  != NULL );
 931:/home/xingli/share/LiteOS_Lab/network/dtls/mbedtls/mbedtls-2.16.2/library/ecp.c ****     ECP_VALIDATE_RET( buf  != NULL );
 932:/home/xingli/share/LiteOS_Lab/network/dtls/mbedtls/mbedtls-2.16.2/library/ecp.c ****     ECP_VALIDATE_RET( *buf != NULL );
 933:/home/xingli/share/LiteOS_Lab/network/dtls/mbedtls/mbedtls-2.16.2/library/ecp.c **** 
 934:/home/xingli/share/LiteOS_Lab/network/dtls/mbedtls/mbedtls-2.16.2/library/ecp.c ****     /*
 935:/home/xingli/share/LiteOS_Lab/network/dtls/mbedtls/mbedtls-2.16.2/library/ecp.c ****      * We expect at least three bytes (see below)
 936:/home/xingli/share/LiteOS_Lab/network/dtls/mbedtls/mbedtls-2.16.2/library/ecp.c ****      */
 937:/home/xingli/share/LiteOS_Lab/network/dtls/mbedtls/mbedtls-2.16.2/library/ecp.c ****     if( len < 3 )
 1809              		.loc 1 937 7
 1810 0027 48837DC8 		cmpq	$2, -56(%rbp)
 1810      02
 1811 002c 770A     		ja	.L135
 938:/home/xingli/share/LiteOS_Lab/network/dtls/mbedtls/mbedtls-2.16.2/library/ecp.c ****         return( MBEDTLS_ERR_ECP_BAD_INPUT_DATA );
 1812              		.loc 1 938 15
 1813 002e B880B0FF 		movl	$-20352, %eax
 1813      FF
 1814 0033 E98B0000 		jmp	.L136
 1814      00
 1815              	.L135:
 939:/home/xingli/share/LiteOS_Lab/network/dtls/mbedtls/mbedtls-2.16.2/library/ecp.c **** 
 940:/home/xingli/share/LiteOS_Lab/network/dtls/mbedtls/mbedtls-2.16.2/library/ecp.c ****     /*
GAS LISTING /tmp/ccajKZL5.s 			page 54


 941:/home/xingli/share/LiteOS_Lab/network/dtls/mbedtls/mbedtls-2.16.2/library/ecp.c ****      * First byte is curve_type; only named_curve is handled
 942:/home/xingli/share/LiteOS_Lab/network/dtls/mbedtls/mbedtls-2.16.2/library/ecp.c ****      */
 943:/home/xingli/share/LiteOS_Lab/network/dtls/mbedtls/mbedtls-2.16.2/library/ecp.c ****     if( *(*buf)++ != MBEDTLS_ECP_TLS_NAMED_CURVE )
 1816              		.loc 1 943 11
 1817 0038 488B45D0 		movq	-48(%rbp), %rax
 1818 003c 488B00   		movq	(%rax), %rax
 1819              		.loc 1 943 16
 1820 003f 488D4801 		leaq	1(%rax), %rcx
 1821 0043 488B55D0 		movq	-48(%rbp), %rdx
 1822 0047 48890A   		movq	%rcx, (%rdx)
 1823              		.loc 1 943 9
 1824 004a 0FB600   		movzbl	(%rax), %eax
 1825              		.loc 1 943 7
 1826 004d 3C03     		cmpb	$3, %al
 1827 004f 7407     		je	.L137
 944:/home/xingli/share/LiteOS_Lab/network/dtls/mbedtls/mbedtls-2.16.2/library/ecp.c ****         return( MBEDTLS_ERR_ECP_BAD_INPUT_DATA );
 1828              		.loc 1 944 15
 1829 0051 B880B0FF 		movl	$-20352, %eax
 1829      FF
 1830 0056 EB6B     		jmp	.L136
 1831              	.L137:
 945:/home/xingli/share/LiteOS_Lab/network/dtls/mbedtls/mbedtls-2.16.2/library/ecp.c **** 
 946:/home/xingli/share/LiteOS_Lab/network/dtls/mbedtls/mbedtls-2.16.2/library/ecp.c ****     /*
 947:/home/xingli/share/LiteOS_Lab/network/dtls/mbedtls/mbedtls-2.16.2/library/ecp.c ****      * Next two bytes are the namedcurve value
 948:/home/xingli/share/LiteOS_Lab/network/dtls/mbedtls/mbedtls-2.16.2/library/ecp.c ****      */
 949:/home/xingli/share/LiteOS_Lab/network/dtls/mbedtls/mbedtls-2.16.2/library/ecp.c ****     tls_id = *(*buf)++;
 1832              		.loc 1 949 16
 1833 0058 488B45D0 		movq	-48(%rbp), %rax
 1834 005c 488B00   		movq	(%rax), %rax
 1835              		.loc 1 949 21
 1836 005f 488D4801 		leaq	1(%rax), %rcx
 1837 0063 488B55D0 		movq	-48(%rbp), %rdx
 1838 0067 48890A   		movq	%rcx, (%rdx)
 1839              		.loc 1 949 14
 1840 006a 0FB600   		movzbl	(%rax), %eax
 1841              		.loc 1 949 12
 1842 006d 0FB6C0   		movzbl	%al, %eax
 1843 0070 668945EE 		movw	%ax, -18(%rbp)
 950:/home/xingli/share/LiteOS_Lab/network/dtls/mbedtls/mbedtls-2.16.2/library/ecp.c ****     tls_id <<= 8;
 1844              		.loc 1 950 12
 1845 0074 66C165EE 		salw	$8, -18(%rbp)
 1845      08
 951:/home/xingli/share/LiteOS_Lab/network/dtls/mbedtls/mbedtls-2.16.2/library/ecp.c ****     tls_id |= *(*buf)++;
 1846              		.loc 1 951 17
 1847 0079 488B45D0 		movq	-48(%rbp), %rax
 1848 007d 488B00   		movq	(%rax), %rax
 1849              		.loc 1 951 22
 1850 0080 488D4801 		leaq	1(%rax), %rcx
 1851 0084 488B55D0 		movq	-48(%rbp), %rdx
 1852 0088 48890A   		movq	%rcx, (%rdx)
 1853              		.loc 1 951 15
 1854 008b 0FB600   		movzbl	(%rax), %eax
 1855 008e 0FB6C0   		movzbl	%al, %eax
 1856              		.loc 1 951 12
 1857 0091 660945EE 		orw	%ax, -18(%rbp)
 952:/home/xingli/share/LiteOS_Lab/network/dtls/mbedtls/mbedtls-2.16.2/library/ecp.c **** 
 953:/home/xingli/share/LiteOS_Lab/network/dtls/mbedtls/mbedtls-2.16.2/library/ecp.c ****     if( ( curve_info = mbedtls_ecp_curve_info_from_tls_id( tls_id ) ) == NULL )
GAS LISTING /tmp/ccajKZL5.s 			page 55


 1858              		.loc 1 953 24
 1859 0095 0FB745EE 		movzwl	-18(%rbp), %eax
 1860 0099 89C7     		movl	%eax, %edi
 1861 009b E8000000 		call	mbedtls_ecp_curve_info_from_tls_id
 1861      00
 1862 00a0 488945F0 		movq	%rax, -16(%rbp)
 1863              		.loc 1 953 7
 1864 00a4 48837DF0 		cmpq	$0, -16(%rbp)
 1864      00
 1865 00a9 7507     		jne	.L138
 954:/home/xingli/share/LiteOS_Lab/network/dtls/mbedtls/mbedtls-2.16.2/library/ecp.c ****         return( MBEDTLS_ERR_ECP_FEATURE_UNAVAILABLE );
 1866              		.loc 1 954 15
 1867 00ab B880B1FF 		movl	$-20096, %eax
 1867      FF
 1868 00b0 EB11     		jmp	.L136
 1869              	.L138:
 955:/home/xingli/share/LiteOS_Lab/network/dtls/mbedtls/mbedtls-2.16.2/library/ecp.c **** 
 956:/home/xingli/share/LiteOS_Lab/network/dtls/mbedtls/mbedtls-2.16.2/library/ecp.c ****     *grp = curve_info->grp_id;
 1870              		.loc 1 956 22
 1871 00b2 488B45F0 		movq	-16(%rbp), %rax
 1872 00b6 8B10     		movl	(%rax), %edx
 1873              		.loc 1 956 10
 1874 00b8 488B45D8 		movq	-40(%rbp), %rax
 1875 00bc 8910     		movl	%edx, (%rax)
 957:/home/xingli/share/LiteOS_Lab/network/dtls/mbedtls/mbedtls-2.16.2/library/ecp.c **** 
 958:/home/xingli/share/LiteOS_Lab/network/dtls/mbedtls/mbedtls-2.16.2/library/ecp.c ****     return( 0 );
 1876              		.loc 1 958 11
 1877 00be B8000000 		movl	$0, %eax
 1877      00
 1878              	.L136:
 959:/home/xingli/share/LiteOS_Lab/network/dtls/mbedtls/mbedtls-2.16.2/library/ecp.c **** }
 1879              		.loc 1 959 1
 1880 00c3 488B75F8 		movq	-8(%rbp), %rsi
 1881 00c7 64483334 		xorq	%fs:40, %rsi
 1881      25280000 
 1881      00
 1882 00d0 7405     		je	.L139
 1883 00d2 E8000000 		call	__stack_chk_fail@PLT
 1883      00
 1884              	.L139:
 1885 00d7 C9       		leave
 1886              	.LCFI71:
 1887              		.cfi_def_cfa 7, 8
 1888 00d8 C3       		ret
 1889              		.cfi_endproc
 1890              	.LFE29:
 1892              		.section	.text.mbedtls_ecp_tls_write_group,"ax",@progbits
 1893              		.globl	mbedtls_ecp_tls_write_group
 1895              	mbedtls_ecp_tls_write_group:
 1896              	.LFB30:
 960:/home/xingli/share/LiteOS_Lab/network/dtls/mbedtls/mbedtls-2.16.2/library/ecp.c **** 
 961:/home/xingli/share/LiteOS_Lab/network/dtls/mbedtls/mbedtls-2.16.2/library/ecp.c **** /*
 962:/home/xingli/share/LiteOS_Lab/network/dtls/mbedtls/mbedtls-2.16.2/library/ecp.c ****  * Write the ECParameters record corresponding to a group (RFC 4492)
 963:/home/xingli/share/LiteOS_Lab/network/dtls/mbedtls/mbedtls-2.16.2/library/ecp.c ****  */
 964:/home/xingli/share/LiteOS_Lab/network/dtls/mbedtls/mbedtls-2.16.2/library/ecp.c **** int mbedtls_ecp_tls_write_group( const mbedtls_ecp_group *grp, size_t *olen,
 965:/home/xingli/share/LiteOS_Lab/network/dtls/mbedtls/mbedtls-2.16.2/library/ecp.c ****                          unsigned char *buf, size_t blen )
 966:/home/xingli/share/LiteOS_Lab/network/dtls/mbedtls/mbedtls-2.16.2/library/ecp.c **** {
GAS LISTING /tmp/ccajKZL5.s 			page 56


 1897              		.loc 1 966 1
 1898              		.cfi_startproc
 1899 0000 F30F1EFA 		endbr64
 1900 0004 55       		pushq	%rbp
 1901              	.LCFI72:
 1902              		.cfi_def_cfa_offset 16
 1903              		.cfi_offset 6, -16
 1904 0005 4889E5   		movq	%rsp, %rbp
 1905              	.LCFI73:
 1906              		.cfi_def_cfa_register 6
 1907 0008 4883EC30 		subq	$48, %rsp
 1908 000c 48897DE8 		movq	%rdi, -24(%rbp)
 1909 0010 488975E0 		movq	%rsi, -32(%rbp)
 1910 0014 488955D8 		movq	%rdx, -40(%rbp)
 1911 0018 48894DD0 		movq	%rcx, -48(%rbp)
 1912              		.loc 1 966 1
 1913 001c 64488B04 		movq	%fs:40, %rax
 1913      25280000 
 1913      00
 1914 0025 488945F8 		movq	%rax, -8(%rbp)
 1915 0029 31C0     		xorl	%eax, %eax
 967:/home/xingli/share/LiteOS_Lab/network/dtls/mbedtls/mbedtls-2.16.2/library/ecp.c ****     const mbedtls_ecp_curve_info *curve_info;
 968:/home/xingli/share/LiteOS_Lab/network/dtls/mbedtls/mbedtls-2.16.2/library/ecp.c ****     ECP_VALIDATE_RET( grp  != NULL );
 969:/home/xingli/share/LiteOS_Lab/network/dtls/mbedtls/mbedtls-2.16.2/library/ecp.c ****     ECP_VALIDATE_RET( buf  != NULL );
 970:/home/xingli/share/LiteOS_Lab/network/dtls/mbedtls/mbedtls-2.16.2/library/ecp.c ****     ECP_VALIDATE_RET( olen != NULL );
 971:/home/xingli/share/LiteOS_Lab/network/dtls/mbedtls/mbedtls-2.16.2/library/ecp.c **** 
 972:/home/xingli/share/LiteOS_Lab/network/dtls/mbedtls/mbedtls-2.16.2/library/ecp.c ****     if( ( curve_info = mbedtls_ecp_curve_info_from_grp_id( grp->id ) ) == NULL )
 1916              		.loc 1 972 24
 1917 002b 488B45E8 		movq	-24(%rbp), %rax
 1918 002f 8B00     		movl	(%rax), %eax
 1919 0031 89C7     		movl	%eax, %edi
 1920 0033 E8000000 		call	mbedtls_ecp_curve_info_from_grp_id
 1920      00
 1921 0038 488945F0 		movq	%rax, -16(%rbp)
 1922              		.loc 1 972 7
 1923 003c 48837DF0 		cmpq	$0, -16(%rbp)
 1923      00
 1924 0041 7507     		jne	.L141
 973:/home/xingli/share/LiteOS_Lab/network/dtls/mbedtls/mbedtls-2.16.2/library/ecp.c ****         return( MBEDTLS_ERR_ECP_BAD_INPUT_DATA );
 1925              		.loc 1 973 15
 1926 0043 B880B0FF 		movl	$-20352, %eax
 1926      FF
 1927 0048 EB59     		jmp	.L142
 1928              	.L141:
 974:/home/xingli/share/LiteOS_Lab/network/dtls/mbedtls/mbedtls-2.16.2/library/ecp.c **** 
 975:/home/xingli/share/LiteOS_Lab/network/dtls/mbedtls/mbedtls-2.16.2/library/ecp.c ****     /*
 976:/home/xingli/share/LiteOS_Lab/network/dtls/mbedtls/mbedtls-2.16.2/library/ecp.c ****      * We are going to write 3 bytes (see below)
 977:/home/xingli/share/LiteOS_Lab/network/dtls/mbedtls/mbedtls-2.16.2/library/ecp.c ****      */
 978:/home/xingli/share/LiteOS_Lab/network/dtls/mbedtls/mbedtls-2.16.2/library/ecp.c ****     *olen = 3;
 1929              		.loc 1 978 11
 1930 004a 488B45E0 		movq	-32(%rbp), %rax
 1931 004e 48C70003 		movq	$3, (%rax)
 1931      000000
 979:/home/xingli/share/LiteOS_Lab/network/dtls/mbedtls/mbedtls-2.16.2/library/ecp.c ****     if( blen < *olen )
 1932              		.loc 1 979 16
 1933 0055 488B45E0 		movq	-32(%rbp), %rax
 1934 0059 488B00   		movq	(%rax), %rax
GAS LISTING /tmp/ccajKZL5.s 			page 57


 1935              		.loc 1 979 7
 1936 005c 483945D0 		cmpq	%rax, -48(%rbp)
 1937 0060 7307     		jnb	.L143
 980:/home/xingli/share/LiteOS_Lab/network/dtls/mbedtls/mbedtls-2.16.2/library/ecp.c ****         return( MBEDTLS_ERR_ECP_BUFFER_TOO_SMALL );
 1938              		.loc 1 980 15
 1939 0062 B800B1FF 		movl	$-20224, %eax
 1939      FF
 1940 0067 EB3A     		jmp	.L142
 1941              	.L143:
 981:/home/xingli/share/LiteOS_Lab/network/dtls/mbedtls/mbedtls-2.16.2/library/ecp.c **** 
 982:/home/xingli/share/LiteOS_Lab/network/dtls/mbedtls/mbedtls-2.16.2/library/ecp.c ****     /*
 983:/home/xingli/share/LiteOS_Lab/network/dtls/mbedtls/mbedtls-2.16.2/library/ecp.c ****      * First byte is curve_type, always named_curve
 984:/home/xingli/share/LiteOS_Lab/network/dtls/mbedtls/mbedtls-2.16.2/library/ecp.c ****      */
 985:/home/xingli/share/LiteOS_Lab/network/dtls/mbedtls/mbedtls-2.16.2/library/ecp.c ****     *buf++ = MBEDTLS_ECP_TLS_NAMED_CURVE;
 1942              		.loc 1 985 9
 1943 0069 488B45D8 		movq	-40(%rbp), %rax
 1944 006d 488D5001 		leaq	1(%rax), %rdx
 1945 0071 488955D8 		movq	%rdx, -40(%rbp)
 1946              		.loc 1 985 12
 1947 0075 C60003   		movb	$3, (%rax)
 986:/home/xingli/share/LiteOS_Lab/network/dtls/mbedtls/mbedtls-2.16.2/library/ecp.c **** 
 987:/home/xingli/share/LiteOS_Lab/network/dtls/mbedtls/mbedtls-2.16.2/library/ecp.c ****     /*
 988:/home/xingli/share/LiteOS_Lab/network/dtls/mbedtls/mbedtls-2.16.2/library/ecp.c ****      * Next two bytes are the namedcurve value
 989:/home/xingli/share/LiteOS_Lab/network/dtls/mbedtls/mbedtls-2.16.2/library/ecp.c ****      */
 990:/home/xingli/share/LiteOS_Lab/network/dtls/mbedtls/mbedtls-2.16.2/library/ecp.c ****     buf[0] = curve_info->tls_id >> 8;
 1948              		.loc 1 990 24
 1949 0078 488B45F0 		movq	-16(%rbp), %rax
 1950 007c 0FB74004 		movzwl	4(%rax), %eax
 1951              		.loc 1 990 12
 1952 0080 66C1E808 		shrw	$8, %ax
 1953 0084 89C2     		movl	%eax, %edx
 1954 0086 488B45D8 		movq	-40(%rbp), %rax
 1955 008a 8810     		movb	%dl, (%rax)
 991:/home/xingli/share/LiteOS_Lab/network/dtls/mbedtls/mbedtls-2.16.2/library/ecp.c ****     buf[1] = curve_info->tls_id & 0xFF;
 1956              		.loc 1 991 24
 1957 008c 488B45F0 		movq	-16(%rbp), %rax
 1958 0090 0FB75004 		movzwl	4(%rax), %edx
 1959              		.loc 1 991 8
 1960 0094 488B45D8 		movq	-40(%rbp), %rax
 1961 0098 4883C001 		addq	$1, %rax
 1962              		.loc 1 991 12
 1963 009c 8810     		movb	%dl, (%rax)
 992:/home/xingli/share/LiteOS_Lab/network/dtls/mbedtls/mbedtls-2.16.2/library/ecp.c **** 
 993:/home/xingli/share/LiteOS_Lab/network/dtls/mbedtls/mbedtls-2.16.2/library/ecp.c ****     return( 0 );
 1964              		.loc 1 993 11
 1965 009e B8000000 		movl	$0, %eax
 1965      00
 1966              	.L142:
 994:/home/xingli/share/LiteOS_Lab/network/dtls/mbedtls/mbedtls-2.16.2/library/ecp.c **** }
 1967              		.loc 1 994 1
 1968 00a3 488B4DF8 		movq	-8(%rbp), %rcx
 1969 00a7 6448330C 		xorq	%fs:40, %rcx
 1969      25280000 
 1969      00
 1970 00b0 7405     		je	.L144
 1971 00b2 E8000000 		call	__stack_chk_fail@PLT
 1971      00
GAS LISTING /tmp/ccajKZL5.s 			page 58


 1972              	.L144:
 1973 00b7 C9       		leave
 1974              	.LCFI74:
 1975              		.cfi_def_cfa 7, 8
 1976 00b8 C3       		ret
 1977              		.cfi_endproc
 1978              	.LFE30:
 1980              		.section	.text.ecp_modp,"ax",@progbits
 1982              	ecp_modp:
 1983              	.LFB31:
 995:/home/xingli/share/LiteOS_Lab/network/dtls/mbedtls/mbedtls-2.16.2/library/ecp.c **** 
 996:/home/xingli/share/LiteOS_Lab/network/dtls/mbedtls/mbedtls-2.16.2/library/ecp.c **** /*
 997:/home/xingli/share/LiteOS_Lab/network/dtls/mbedtls/mbedtls-2.16.2/library/ecp.c ****  * Wrapper around fast quasi-modp functions, with fall-back to mbedtls_mpi_mod_mpi.
 998:/home/xingli/share/LiteOS_Lab/network/dtls/mbedtls/mbedtls-2.16.2/library/ecp.c ****  * See the documentation of struct mbedtls_ecp_group.
 999:/home/xingli/share/LiteOS_Lab/network/dtls/mbedtls/mbedtls-2.16.2/library/ecp.c ****  *
1000:/home/xingli/share/LiteOS_Lab/network/dtls/mbedtls/mbedtls-2.16.2/library/ecp.c ****  * This function is in the critial loop for mbedtls_ecp_mul, so pay attention to perf.
1001:/home/xingli/share/LiteOS_Lab/network/dtls/mbedtls/mbedtls-2.16.2/library/ecp.c ****  */
1002:/home/xingli/share/LiteOS_Lab/network/dtls/mbedtls/mbedtls-2.16.2/library/ecp.c **** static int ecp_modp( mbedtls_mpi *N, const mbedtls_ecp_group *grp )
1003:/home/xingli/share/LiteOS_Lab/network/dtls/mbedtls/mbedtls-2.16.2/library/ecp.c **** {
 1984              		.loc 1 1003 1
 1985              		.cfi_startproc
 1986 0000 F30F1EFA 		endbr64
 1987 0004 55       		pushq	%rbp
 1988              	.LCFI75:
 1989              		.cfi_def_cfa_offset 16
 1990              		.cfi_offset 6, -16
 1991 0005 4889E5   		movq	%rsp, %rbp
 1992              	.LCFI76:
 1993              		.cfi_def_cfa_register 6
 1994 0008 4883EC20 		subq	$32, %rsp
 1995 000c 48897DE8 		movq	%rdi, -24(%rbp)
 1996 0010 488975E0 		movq	%rsi, -32(%rbp)
 1997              		.loc 1 1003 1
 1998 0014 64488B04 		movq	%fs:40, %rax
 1998      25280000 
 1998      00
 1999 001d 488945F8 		movq	%rax, -8(%rbp)
 2000 0021 31C0     		xorl	%eax, %eax
1004:/home/xingli/share/LiteOS_Lab/network/dtls/mbedtls/mbedtls-2.16.2/library/ecp.c ****     int ret;
1005:/home/xingli/share/LiteOS_Lab/network/dtls/mbedtls/mbedtls-2.16.2/library/ecp.c **** 
1006:/home/xingli/share/LiteOS_Lab/network/dtls/mbedtls/mbedtls-2.16.2/library/ecp.c ****     if( grp->modp == NULL )
 2001              		.loc 1 1006 12
 2002 0023 488B45E0 		movq	-32(%rbp), %rax
 2003 0027 488B80C8 		movq	200(%rax), %rax
 2003      000000
 2004              		.loc 1 1006 7
 2005 002e 4885C0   		testq	%rax, %rax
 2006 0031 7520     		jne	.L146
1007:/home/xingli/share/LiteOS_Lab/network/dtls/mbedtls/mbedtls-2.16.2/library/ecp.c ****         return( mbedtls_mpi_mod_mpi( N, N, &grp->P ) );
 2007              		.loc 1 1007 17
 2008 0033 488B45E0 		movq	-32(%rbp), %rax
 2009 0037 488D5008 		leaq	8(%rax), %rdx
 2010 003b 488B4DE8 		movq	-24(%rbp), %rcx
 2011 003f 488B45E8 		movq	-24(%rbp), %rax
 2012 0043 4889CE   		movq	%rcx, %rsi
 2013 0046 4889C7   		movq	%rax, %rdi
 2014 0049 E8000000 		call	mbedtls_mpi_mod_mpi@PLT
GAS LISTING /tmp/ccajKZL5.s 			page 59


 2014      00
 2015 004e E9FB0000 		jmp	.L147
 2015      00
 2016              	.L146:
1008:/home/xingli/share/LiteOS_Lab/network/dtls/mbedtls/mbedtls-2.16.2/library/ecp.c **** 
1009:/home/xingli/share/LiteOS_Lab/network/dtls/mbedtls/mbedtls-2.16.2/library/ecp.c ****     /* N->s < 0 is a much faster test, which fails only if N is 0 */
1010:/home/xingli/share/LiteOS_Lab/network/dtls/mbedtls/mbedtls-2.16.2/library/ecp.c ****     if( ( N->s < 0 && mbedtls_mpi_cmp_int( N, 0 ) != 0 ) ||
 2017              		.loc 1 1010 12
 2018 0053 488B45E8 		movq	-24(%rbp), %rax
 2019 0057 8B00     		movl	(%rax), %eax
 2020              		.loc 1 1010 7
 2021 0059 85C0     		testl	%eax, %eax
 2022 005b 7915     		jns	.L148
 2023              		.loc 1 1010 23 discriminator 1
 2024 005d 488B45E8 		movq	-24(%rbp), %rax
 2025 0061 BE000000 		movl	$0, %esi
 2025      00
 2026 0066 4889C7   		movq	%rax, %rdi
 2027 0069 E8000000 		call	mbedtls_mpi_cmp_int@PLT
 2027      00
 2028              		.loc 1 1010 20 discriminator 1
 2029 006e 85C0     		testl	%eax, %eax
 2030 0070 751F     		jne	.L149
 2031              	.L148:
1011:/home/xingli/share/LiteOS_Lab/network/dtls/mbedtls/mbedtls-2.16.2/library/ecp.c ****         mbedtls_mpi_bitlen( N ) > 2 * grp->pbits )
 2032              		.loc 1 1011 9 discriminator 3
 2033 0072 488B45E8 		movq	-24(%rbp), %rax
 2034 0076 4889C7   		movq	%rax, %rdi
 2035 0079 E8000000 		call	mbedtls_mpi_bitlen@PLT
 2035      00
 2036              		.loc 1 1011 42 discriminator 3
 2037 007e 488B55E0 		movq	-32(%rbp), %rdx
 2038 0082 488B92B0 		movq	176(%rdx), %rdx
 2038      000000
 2039              		.loc 1 1011 37 discriminator 3
 2040 0089 4801D2   		addq	%rdx, %rdx
1010:/home/xingli/share/LiteOS_Lab/network/dtls/mbedtls/mbedtls-2.16.2/library/ecp.c ****         mbedtls_mpi_bitlen( N ) > 2 * grp->pbits )
 2041              		.loc 1 1010 58 discriminator 3
 2042 008c 4839D0   		cmpq	%rdx, %rax
 2043 008f 760A     		jbe	.L150
 2044              	.L149:
1012:/home/xingli/share/LiteOS_Lab/network/dtls/mbedtls/mbedtls-2.16.2/library/ecp.c ****     {
1013:/home/xingli/share/LiteOS_Lab/network/dtls/mbedtls/mbedtls-2.16.2/library/ecp.c ****         return( MBEDTLS_ERR_ECP_BAD_INPUT_DATA );
 2045              		.loc 1 1013 15
 2046 0091 B880B0FF 		movl	$-20352, %eax
 2046      FF
 2047 0096 E9B30000 		jmp	.L147
 2047      00
 2048              	.L150:
1014:/home/xingli/share/LiteOS_Lab/network/dtls/mbedtls/mbedtls-2.16.2/library/ecp.c ****     }
1015:/home/xingli/share/LiteOS_Lab/network/dtls/mbedtls/mbedtls-2.16.2/library/ecp.c **** 
1016:/home/xingli/share/LiteOS_Lab/network/dtls/mbedtls/mbedtls-2.16.2/library/ecp.c ****     MBEDTLS_MPI_CHK( grp->modp( N ) );
 2049              		.loc 1 1016 5
 2050 009b 488B45E0 		movq	-32(%rbp), %rax
 2051 009f 488B90C8 		movq	200(%rax), %rdx
 2051      000000
 2052 00a6 488B45E8 		movq	-24(%rbp), %rax
GAS LISTING /tmp/ccajKZL5.s 			page 60


 2053 00aa 4889C7   		movq	%rax, %rdi
 2054 00ad FFD2     		call	*%rdx
 2055              	.LVL0:
 2056 00af 8945F4   		movl	%eax, -12(%rbp)
 2057 00b2 837DF400 		cmpl	$0, -12(%rbp)
 2058 00b6 0F858800 		jne	.L159
 2058      0000
1017:/home/xingli/share/LiteOS_Lab/network/dtls/mbedtls/mbedtls-2.16.2/library/ecp.c **** 
1018:/home/xingli/share/LiteOS_Lab/network/dtls/mbedtls/mbedtls-2.16.2/library/ecp.c ****     /* N->s < 0 is a much faster test, which fails only if N is 0 */
1019:/home/xingli/share/LiteOS_Lab/network/dtls/mbedtls/mbedtls-2.16.2/library/ecp.c ****     while( N->s < 0 && mbedtls_mpi_cmp_int( N, 0 ) != 0 )
 2059              		.loc 1 1019 10
 2060 00bc EB24     		jmp	.L153
 2061              	.L155:
1020:/home/xingli/share/LiteOS_Lab/network/dtls/mbedtls/mbedtls-2.16.2/library/ecp.c ****         MBEDTLS_MPI_CHK( mbedtls_mpi_add_mpi( N, N, &grp->P ) );
 2062              		.loc 1 1020 9
 2063 00be 488B45E0 		movq	-32(%rbp), %rax
 2064 00c2 488D5008 		leaq	8(%rax), %rdx
 2065 00c6 488B4DE8 		movq	-24(%rbp), %rcx
 2066 00ca 488B45E8 		movq	-24(%rbp), %rax
 2067 00ce 4889CE   		movq	%rcx, %rsi
 2068 00d1 4889C7   		movq	%rax, %rdi
 2069 00d4 E8000000 		call	mbedtls_mpi_add_mpi@PLT
 2069      00
 2070 00d9 8945F4   		movl	%eax, -12(%rbp)
 2071 00dc 837DF400 		cmpl	$0, -12(%rbp)
 2072 00e0 7565     		jne	.L160
 2073              	.L153:
1019:/home/xingli/share/LiteOS_Lab/network/dtls/mbedtls/mbedtls-2.16.2/library/ecp.c ****         MBEDTLS_MPI_CHK( mbedtls_mpi_add_mpi( N, N, &grp->P ) );
 2074              		.loc 1 1019 13
 2075 00e2 488B45E8 		movq	-24(%rbp), %rax
 2076 00e6 8B00     		movl	(%rax), %eax
1019:/home/xingli/share/LiteOS_Lab/network/dtls/mbedtls/mbedtls-2.16.2/library/ecp.c ****         MBEDTLS_MPI_CHK( mbedtls_mpi_add_mpi( N, N, &grp->P ) );
 2077              		.loc 1 1019 10
 2078 00e8 85C0     		testl	%eax, %eax
 2079 00ea 793B     		jns	.L156
1019:/home/xingli/share/LiteOS_Lab/network/dtls/mbedtls/mbedtls-2.16.2/library/ecp.c ****         MBEDTLS_MPI_CHK( mbedtls_mpi_add_mpi( N, N, &grp->P ) );
 2080              		.loc 1 1019 24 discriminator 1
 2081 00ec 488B45E8 		movq	-24(%rbp), %rax
 2082 00f0 BE000000 		movl	$0, %esi
 2082      00
 2083 00f5 4889C7   		movq	%rax, %rdi
 2084 00f8 E8000000 		call	mbedtls_mpi_cmp_int@PLT
 2084      00
1019:/home/xingli/share/LiteOS_Lab/network/dtls/mbedtls/mbedtls-2.16.2/library/ecp.c ****         MBEDTLS_MPI_CHK( mbedtls_mpi_add_mpi( N, N, &grp->P ) );
 2085              		.loc 1 1019 21 discriminator 1
 2086 00fd 85C0     		testl	%eax, %eax
 2087 00ff 75BD     		jne	.L155
1021:/home/xingli/share/LiteOS_Lab/network/dtls/mbedtls/mbedtls-2.16.2/library/ecp.c **** 
1022:/home/xingli/share/LiteOS_Lab/network/dtls/mbedtls/mbedtls-2.16.2/library/ecp.c ****     while( mbedtls_mpi_cmp_mpi( N, &grp->P ) >= 0 )
 2088              		.loc 1 1022 10
 2089 0101 EB24     		jmp	.L156
 2090              	.L157:
1023:/home/xingli/share/LiteOS_Lab/network/dtls/mbedtls/mbedtls-2.16.2/library/ecp.c ****         /* we known P, N and the result are positive */
1024:/home/xingli/share/LiteOS_Lab/network/dtls/mbedtls/mbedtls-2.16.2/library/ecp.c ****         MBEDTLS_MPI_CHK( mbedtls_mpi_sub_abs( N, N, &grp->P ) );
 2091              		.loc 1 1024 9
 2092 0103 488B45E0 		movq	-32(%rbp), %rax
 2093 0107 488D5008 		leaq	8(%rax), %rdx
GAS LISTING /tmp/ccajKZL5.s 			page 61


 2094 010b 488B4DE8 		movq	-24(%rbp), %rcx
 2095 010f 488B45E8 		movq	-24(%rbp), %rax
 2096 0113 4889CE   		movq	%rcx, %rsi
 2097 0116 4889C7   		movq	%rax, %rdi
 2098 0119 E8000000 		call	mbedtls_mpi_sub_abs@PLT
 2098      00
 2099 011e 8945F4   		movl	%eax, -12(%rbp)
 2100 0121 837DF400 		cmpl	$0, -12(%rbp)
 2101 0125 7523     		jne	.L161
 2102              	.L156:
1022:/home/xingli/share/LiteOS_Lab/network/dtls/mbedtls/mbedtls-2.16.2/library/ecp.c ****         /* we known P, N and the result are positive */
 2103              		.loc 1 1022 12
 2104 0127 488B45E0 		movq	-32(%rbp), %rax
 2105 012b 488D5008 		leaq	8(%rax), %rdx
 2106 012f 488B45E8 		movq	-24(%rbp), %rax
 2107 0133 4889D6   		movq	%rdx, %rsi
 2108 0136 4889C7   		movq	%rax, %rdi
 2109 0139 E8000000 		call	mbedtls_mpi_cmp_mpi@PLT
 2109      00
1022:/home/xingli/share/LiteOS_Lab/network/dtls/mbedtls/mbedtls-2.16.2/library/ecp.c ****         /* we known P, N and the result are positive */
 2110              		.loc 1 1022 10
 2111 013e 85C0     		testl	%eax, %eax
 2112 0140 79C1     		jns	.L157
1025:/home/xingli/share/LiteOS_Lab/network/dtls/mbedtls/mbedtls-2.16.2/library/ecp.c **** 
1026:/home/xingli/share/LiteOS_Lab/network/dtls/mbedtls/mbedtls-2.16.2/library/ecp.c **** cleanup:
 2113              		.loc 1 1026 1
 2114 0142 EB07     		jmp	.L152
 2115              	.L159:
1016:/home/xingli/share/LiteOS_Lab/network/dtls/mbedtls/mbedtls-2.16.2/library/ecp.c **** 
 2116              		.loc 1 1016 5
 2117 0144 90       		nop
 2118 0145 EB04     		jmp	.L152
 2119              	.L160:
1020:/home/xingli/share/LiteOS_Lab/network/dtls/mbedtls/mbedtls-2.16.2/library/ecp.c **** 
 2120              		.loc 1 1020 9
 2121 0147 90       		nop
 2122 0148 EB01     		jmp	.L152
 2123              	.L161:
1024:/home/xingli/share/LiteOS_Lab/network/dtls/mbedtls/mbedtls-2.16.2/library/ecp.c **** 
 2124              		.loc 1 1024 9
 2125 014a 90       		nop
 2126              	.L152:
1027:/home/xingli/share/LiteOS_Lab/network/dtls/mbedtls/mbedtls-2.16.2/library/ecp.c ****     return( ret );
 2127              		.loc 1 1027 11
 2128 014b 8B45F4   		movl	-12(%rbp), %eax
 2129              	.L147:
1028:/home/xingli/share/LiteOS_Lab/network/dtls/mbedtls/mbedtls-2.16.2/library/ecp.c **** }
 2130              		.loc 1 1028 1
 2131 014e 488B4DF8 		movq	-8(%rbp), %rcx
 2132 0152 6448330C 		xorq	%fs:40, %rcx
 2132      25280000 
 2132      00
 2133 015b 7405     		je	.L158
 2134 015d E8000000 		call	__stack_chk_fail@PLT
 2134      00
 2135              	.L158:
 2136 0162 C9       		leave
GAS LISTING /tmp/ccajKZL5.s 			page 62


 2137              	.LCFI77:
 2138              		.cfi_def_cfa 7, 8
 2139 0163 C3       		ret
 2140              		.cfi_endproc
 2141              	.LFE31:
 2143              		.section	.text.ecp_normalize_jac,"ax",@progbits
 2145              	ecp_normalize_jac:
 2146              	.LFB32:
1029:/home/xingli/share/LiteOS_Lab/network/dtls/mbedtls/mbedtls-2.16.2/library/ecp.c **** 
1030:/home/xingli/share/LiteOS_Lab/network/dtls/mbedtls/mbedtls-2.16.2/library/ecp.c **** /*
1031:/home/xingli/share/LiteOS_Lab/network/dtls/mbedtls/mbedtls-2.16.2/library/ecp.c ****  * Fast mod-p functions expect their argument to be in the 0..p^2 range.
1032:/home/xingli/share/LiteOS_Lab/network/dtls/mbedtls/mbedtls-2.16.2/library/ecp.c ****  *
1033:/home/xingli/share/LiteOS_Lab/network/dtls/mbedtls/mbedtls-2.16.2/library/ecp.c ****  * In order to guarantee that, we need to ensure that operands of
1034:/home/xingli/share/LiteOS_Lab/network/dtls/mbedtls/mbedtls-2.16.2/library/ecp.c ****  * mbedtls_mpi_mul_mpi are in the 0..p range. So, after each operation we will
1035:/home/xingli/share/LiteOS_Lab/network/dtls/mbedtls/mbedtls-2.16.2/library/ecp.c ****  * bring the result back to this range.
1036:/home/xingli/share/LiteOS_Lab/network/dtls/mbedtls/mbedtls-2.16.2/library/ecp.c ****  *
1037:/home/xingli/share/LiteOS_Lab/network/dtls/mbedtls/mbedtls-2.16.2/library/ecp.c ****  * The following macros are shortcuts for doing that.
1038:/home/xingli/share/LiteOS_Lab/network/dtls/mbedtls/mbedtls-2.16.2/library/ecp.c ****  */
1039:/home/xingli/share/LiteOS_Lab/network/dtls/mbedtls/mbedtls-2.16.2/library/ecp.c **** 
1040:/home/xingli/share/LiteOS_Lab/network/dtls/mbedtls/mbedtls-2.16.2/library/ecp.c **** /*
1041:/home/xingli/share/LiteOS_Lab/network/dtls/mbedtls/mbedtls-2.16.2/library/ecp.c ****  * Reduce a mbedtls_mpi mod p in-place, general case, to use after mbedtls_mpi_mul_mpi
1042:/home/xingli/share/LiteOS_Lab/network/dtls/mbedtls/mbedtls-2.16.2/library/ecp.c ****  */
1043:/home/xingli/share/LiteOS_Lab/network/dtls/mbedtls/mbedtls-2.16.2/library/ecp.c **** #if defined(MBEDTLS_SELF_TEST)
1044:/home/xingli/share/LiteOS_Lab/network/dtls/mbedtls/mbedtls-2.16.2/library/ecp.c **** #define INC_MUL_COUNT   mul_count++;
1045:/home/xingli/share/LiteOS_Lab/network/dtls/mbedtls/mbedtls-2.16.2/library/ecp.c **** #else
1046:/home/xingli/share/LiteOS_Lab/network/dtls/mbedtls/mbedtls-2.16.2/library/ecp.c **** #define INC_MUL_COUNT
1047:/home/xingli/share/LiteOS_Lab/network/dtls/mbedtls/mbedtls-2.16.2/library/ecp.c **** #endif
1048:/home/xingli/share/LiteOS_Lab/network/dtls/mbedtls/mbedtls-2.16.2/library/ecp.c **** 
1049:/home/xingli/share/LiteOS_Lab/network/dtls/mbedtls/mbedtls-2.16.2/library/ecp.c **** #define MOD_MUL( N )                                                    \
1050:/home/xingli/share/LiteOS_Lab/network/dtls/mbedtls/mbedtls-2.16.2/library/ecp.c ****     do                                                                  \
1051:/home/xingli/share/LiteOS_Lab/network/dtls/mbedtls/mbedtls-2.16.2/library/ecp.c ****     {                                                                   \
1052:/home/xingli/share/LiteOS_Lab/network/dtls/mbedtls/mbedtls-2.16.2/library/ecp.c ****         MBEDTLS_MPI_CHK( ecp_modp( &(N), grp ) );                       \
1053:/home/xingli/share/LiteOS_Lab/network/dtls/mbedtls/mbedtls-2.16.2/library/ecp.c ****         INC_MUL_COUNT                                                   \
1054:/home/xingli/share/LiteOS_Lab/network/dtls/mbedtls/mbedtls-2.16.2/library/ecp.c ****     } while( 0 )
1055:/home/xingli/share/LiteOS_Lab/network/dtls/mbedtls/mbedtls-2.16.2/library/ecp.c **** 
1056:/home/xingli/share/LiteOS_Lab/network/dtls/mbedtls/mbedtls-2.16.2/library/ecp.c **** /*
1057:/home/xingli/share/LiteOS_Lab/network/dtls/mbedtls/mbedtls-2.16.2/library/ecp.c ****  * Reduce a mbedtls_mpi mod p in-place, to use after mbedtls_mpi_sub_mpi
1058:/home/xingli/share/LiteOS_Lab/network/dtls/mbedtls/mbedtls-2.16.2/library/ecp.c ****  * N->s < 0 is a very fast test, which fails only if N is 0
1059:/home/xingli/share/LiteOS_Lab/network/dtls/mbedtls/mbedtls-2.16.2/library/ecp.c ****  */
1060:/home/xingli/share/LiteOS_Lab/network/dtls/mbedtls/mbedtls-2.16.2/library/ecp.c **** #define MOD_SUB( N )                                                    \
1061:/home/xingli/share/LiteOS_Lab/network/dtls/mbedtls/mbedtls-2.16.2/library/ecp.c ****     while( (N).s < 0 && mbedtls_mpi_cmp_int( &(N), 0 ) != 0 )           \
1062:/home/xingli/share/LiteOS_Lab/network/dtls/mbedtls/mbedtls-2.16.2/library/ecp.c ****         MBEDTLS_MPI_CHK( mbedtls_mpi_add_mpi( &(N), &(N), &grp->P ) )
1063:/home/xingli/share/LiteOS_Lab/network/dtls/mbedtls/mbedtls-2.16.2/library/ecp.c **** 
1064:/home/xingli/share/LiteOS_Lab/network/dtls/mbedtls/mbedtls-2.16.2/library/ecp.c **** /*
1065:/home/xingli/share/LiteOS_Lab/network/dtls/mbedtls/mbedtls-2.16.2/library/ecp.c ****  * Reduce a mbedtls_mpi mod p in-place, to use after mbedtls_mpi_add_mpi and mbedtls_mpi_mul_int.
1066:/home/xingli/share/LiteOS_Lab/network/dtls/mbedtls/mbedtls-2.16.2/library/ecp.c ****  * We known P, N and the result are positive, so sub_abs is correct, and
1067:/home/xingli/share/LiteOS_Lab/network/dtls/mbedtls/mbedtls-2.16.2/library/ecp.c ****  * a bit faster.
1068:/home/xingli/share/LiteOS_Lab/network/dtls/mbedtls/mbedtls-2.16.2/library/ecp.c ****  */
1069:/home/xingli/share/LiteOS_Lab/network/dtls/mbedtls/mbedtls-2.16.2/library/ecp.c **** #define MOD_ADD( N )                                                    \
1070:/home/xingli/share/LiteOS_Lab/network/dtls/mbedtls/mbedtls-2.16.2/library/ecp.c ****     while( mbedtls_mpi_cmp_mpi( &(N), &grp->P ) >= 0 )                  \
1071:/home/xingli/share/LiteOS_Lab/network/dtls/mbedtls/mbedtls-2.16.2/library/ecp.c ****         MBEDTLS_MPI_CHK( mbedtls_mpi_sub_abs( &(N), &(N), &grp->P ) )
1072:/home/xingli/share/LiteOS_Lab/network/dtls/mbedtls/mbedtls-2.16.2/library/ecp.c **** 
1073:/home/xingli/share/LiteOS_Lab/network/dtls/mbedtls/mbedtls-2.16.2/library/ecp.c **** #if defined(ECP_SHORTWEIERSTRASS)
1074:/home/xingli/share/LiteOS_Lab/network/dtls/mbedtls/mbedtls-2.16.2/library/ecp.c **** /*
1075:/home/xingli/share/LiteOS_Lab/network/dtls/mbedtls/mbedtls-2.16.2/library/ecp.c ****  * For curves in short Weierstrass form, we do all the internal operations in
1076:/home/xingli/share/LiteOS_Lab/network/dtls/mbedtls/mbedtls-2.16.2/library/ecp.c ****  * Jacobian coordinates.
1077:/home/xingli/share/LiteOS_Lab/network/dtls/mbedtls/mbedtls-2.16.2/library/ecp.c ****  *
GAS LISTING /tmp/ccajKZL5.s 			page 63


1078:/home/xingli/share/LiteOS_Lab/network/dtls/mbedtls/mbedtls-2.16.2/library/ecp.c ****  * For multiplication, we'll use a comb method with coutermeasueres against
1079:/home/xingli/share/LiteOS_Lab/network/dtls/mbedtls/mbedtls-2.16.2/library/ecp.c ****  * SPA, hence timing attacks.
1080:/home/xingli/share/LiteOS_Lab/network/dtls/mbedtls/mbedtls-2.16.2/library/ecp.c ****  */
1081:/home/xingli/share/LiteOS_Lab/network/dtls/mbedtls/mbedtls-2.16.2/library/ecp.c **** 
1082:/home/xingli/share/LiteOS_Lab/network/dtls/mbedtls/mbedtls-2.16.2/library/ecp.c **** /*
1083:/home/xingli/share/LiteOS_Lab/network/dtls/mbedtls/mbedtls-2.16.2/library/ecp.c ****  * Normalize jacobian coordinates so that Z == 0 || Z == 1  (GECC 3.2.1)
1084:/home/xingli/share/LiteOS_Lab/network/dtls/mbedtls/mbedtls-2.16.2/library/ecp.c ****  * Cost: 1N := 1I + 3M + 1S
1085:/home/xingli/share/LiteOS_Lab/network/dtls/mbedtls/mbedtls-2.16.2/library/ecp.c ****  */
1086:/home/xingli/share/LiteOS_Lab/network/dtls/mbedtls/mbedtls-2.16.2/library/ecp.c **** static int ecp_normalize_jac( const mbedtls_ecp_group *grp, mbedtls_ecp_point *pt )
1087:/home/xingli/share/LiteOS_Lab/network/dtls/mbedtls/mbedtls-2.16.2/library/ecp.c **** {
 2147              		.loc 1 1087 1
 2148              		.cfi_startproc
 2149 0000 F30F1EFA 		endbr64
 2150 0004 55       		pushq	%rbp
 2151              	.LCFI78:
 2152              		.cfi_def_cfa_offset 16
 2153              		.cfi_offset 6, -16
 2154 0005 4889E5   		movq	%rsp, %rbp
 2155              	.LCFI79:
 2156              		.cfi_def_cfa_register 6
 2157 0008 4883EC60 		subq	$96, %rsp
 2158 000c 48897DA8 		movq	%rdi, -88(%rbp)
 2159 0010 488975A0 		movq	%rsi, -96(%rbp)
 2160              		.loc 1 1087 1
 2161 0014 64488B04 		movq	%fs:40, %rax
 2161      25280000 
 2161      00
 2162 001d 488945F8 		movq	%rax, -8(%rbp)
 2163 0021 31C0     		xorl	%eax, %eax
1088:/home/xingli/share/LiteOS_Lab/network/dtls/mbedtls/mbedtls-2.16.2/library/ecp.c ****     int ret;
1089:/home/xingli/share/LiteOS_Lab/network/dtls/mbedtls/mbedtls-2.16.2/library/ecp.c ****     mbedtls_mpi Zi, ZZi;
1090:/home/xingli/share/LiteOS_Lab/network/dtls/mbedtls/mbedtls-2.16.2/library/ecp.c **** 
1091:/home/xingli/share/LiteOS_Lab/network/dtls/mbedtls/mbedtls-2.16.2/library/ecp.c ****     if( mbedtls_mpi_cmp_int( &pt->Z, 0 ) == 0 )
 2164              		.loc 1 1091 30
 2165 0023 488B45A0 		movq	-96(%rbp), %rax
 2166 0027 4883C030 		addq	$48, %rax
 2167              		.loc 1 1091 9
 2168 002b BE000000 		movl	$0, %esi
 2168      00
 2169 0030 4889C7   		movq	%rax, %rdi
 2170 0033 E8000000 		call	mbedtls_mpi_cmp_int@PLT
 2170      00
 2171              		.loc 1 1091 7
 2172 0038 85C0     		testl	%eax, %eax
 2173 003a 750A     		jne	.L163
1092:/home/xingli/share/LiteOS_Lab/network/dtls/mbedtls/mbedtls-2.16.2/library/ecp.c ****         return( 0 );
 2174              		.loc 1 1092 15
 2175 003c B8000000 		movl	$0, %eax
 2175      00
 2176 0041 E9B20100 		jmp	.L175
 2176      00
 2177              	.L163:
1093:/home/xingli/share/LiteOS_Lab/network/dtls/mbedtls/mbedtls-2.16.2/library/ecp.c **** 
1094:/home/xingli/share/LiteOS_Lab/network/dtls/mbedtls/mbedtls-2.16.2/library/ecp.c **** #if defined(MBEDTLS_ECP_NORMALIZE_JAC_ALT)
1095:/home/xingli/share/LiteOS_Lab/network/dtls/mbedtls/mbedtls-2.16.2/library/ecp.c ****     if( mbedtls_internal_ecp_grp_capable( grp ) )
1096:/home/xingli/share/LiteOS_Lab/network/dtls/mbedtls/mbedtls-2.16.2/library/ecp.c ****         return( mbedtls_internal_ecp_normalize_jac( grp, pt ) );
1097:/home/xingli/share/LiteOS_Lab/network/dtls/mbedtls/mbedtls-2.16.2/library/ecp.c **** #endif /* MBEDTLS_ECP_NORMALIZE_JAC_ALT */
GAS LISTING /tmp/ccajKZL5.s 			page 64


1098:/home/xingli/share/LiteOS_Lab/network/dtls/mbedtls/mbedtls-2.16.2/library/ecp.c **** 
1099:/home/xingli/share/LiteOS_Lab/network/dtls/mbedtls/mbedtls-2.16.2/library/ecp.c ****     mbedtls_mpi_init( &Zi ); mbedtls_mpi_init( &ZZi );
 2178              		.loc 1 1099 5
 2179 0046 488D45C0 		leaq	-64(%rbp), %rax
 2180 004a 4889C7   		movq	%rax, %rdi
 2181 004d E8000000 		call	mbedtls_mpi_init@PLT
 2181      00
 2182              		.loc 1 1099 30
 2183 0052 488D45E0 		leaq	-32(%rbp), %rax
 2184 0056 4889C7   		movq	%rax, %rdi
 2185 0059 E8000000 		call	mbedtls_mpi_init@PLT
 2185      00
1100:/home/xingli/share/LiteOS_Lab/network/dtls/mbedtls/mbedtls-2.16.2/library/ecp.c **** 
1101:/home/xingli/share/LiteOS_Lab/network/dtls/mbedtls/mbedtls-2.16.2/library/ecp.c ****     /*
1102:/home/xingli/share/LiteOS_Lab/network/dtls/mbedtls/mbedtls-2.16.2/library/ecp.c ****      * X = X / Z^2  mod p
1103:/home/xingli/share/LiteOS_Lab/network/dtls/mbedtls/mbedtls-2.16.2/library/ecp.c ****      */
1104:/home/xingli/share/LiteOS_Lab/network/dtls/mbedtls/mbedtls-2.16.2/library/ecp.c ****     MBEDTLS_MPI_CHK( mbedtls_mpi_inv_mod( &Zi,      &pt->Z,     &grp->P ) );
 2186              		.loc 1 1104 5
 2187 005e 488B45A8 		movq	-88(%rbp), %rax
 2188 0062 488D5008 		leaq	8(%rax), %rdx
 2189 0066 488B45A0 		movq	-96(%rbp), %rax
 2190 006a 488D4830 		leaq	48(%rax), %rcx
 2191 006e 488D45C0 		leaq	-64(%rbp), %rax
 2192 0072 4889CE   		movq	%rcx, %rsi
 2193 0075 4889C7   		movq	%rax, %rdi
 2194 0078 E8000000 		call	mbedtls_mpi_inv_mod@PLT
 2194      00
 2195 007d 8945BC   		movl	%eax, -68(%rbp)
 2196 0080 837DBC00 		cmpl	$0, -68(%rbp)
 2197 0084 0F853A01 		jne	.L177
 2197      0000
1105:/home/xingli/share/LiteOS_Lab/network/dtls/mbedtls/mbedtls-2.16.2/library/ecp.c ****     MBEDTLS_MPI_CHK( mbedtls_mpi_mul_mpi( &ZZi,     &Zi,        &Zi     ) ); MOD_MUL( ZZi );
 2198              		.loc 1 1105 5
 2199 008a 488D55C0 		leaq	-64(%rbp), %rdx
 2200 008e 488D4DC0 		leaq	-64(%rbp), %rcx
 2201 0092 488D45E0 		leaq	-32(%rbp), %rax
 2202 0096 4889CE   		movq	%rcx, %rsi
 2203 0099 4889C7   		movq	%rax, %rdi
 2204 009c E8000000 		call	mbedtls_mpi_mul_mpi@PLT
 2204      00
 2205 00a1 8945BC   		movl	%eax, -68(%rbp)
 2206 00a4 837DBC00 		cmpl	$0, -68(%rbp)
 2207 00a8 0F851901 		jne	.L178
 2207      0000
 2208              		.loc 1 1105 78 discriminator 2
 2209 00ae 488B55A8 		movq	-88(%rbp), %rdx
 2210 00b2 488D45E0 		leaq	-32(%rbp), %rax
 2211 00b6 4889D6   		movq	%rdx, %rsi
 2212 00b9 4889C7   		movq	%rax, %rdi
 2213 00bc E8000000 		call	ecp_modp
 2213      00
 2214 00c1 8945BC   		movl	%eax, -68(%rbp)
 2215 00c4 837DBC00 		cmpl	$0, -68(%rbp)
 2216 00c8 0F85FC00 		jne	.L179
 2216      0000
1106:/home/xingli/share/LiteOS_Lab/network/dtls/mbedtls/mbedtls-2.16.2/library/ecp.c ****     MBEDTLS_MPI_CHK( mbedtls_mpi_mul_mpi( &pt->X,   &pt->X,     &ZZi    ) ); MOD_MUL( pt->X );
 2217              		.loc 1 1106 5
GAS LISTING /tmp/ccajKZL5.s 			page 65


 2218 00ce 488B4DA0 		movq	-96(%rbp), %rcx
 2219 00d2 488B45A0 		movq	-96(%rbp), %rax
 2220 00d6 488D55E0 		leaq	-32(%rbp), %rdx
 2221 00da 4889CE   		movq	%rcx, %rsi
 2222 00dd 4889C7   		movq	%rax, %rdi
 2223 00e0 E8000000 		call	mbedtls_mpi_mul_mpi@PLT
 2223      00
 2224 00e5 8945BC   		movl	%eax, -68(%rbp)
 2225 00e8 837DBC00 		cmpl	$0, -68(%rbp)
 2226 00ec 0F85DB00 		jne	.L180
 2226      0000
 2227              		.loc 1 1106 78 discriminator 2
 2228 00f2 488B45A0 		movq	-96(%rbp), %rax
 2229 00f6 488B55A8 		movq	-88(%rbp), %rdx
 2230 00fa 4889D6   		movq	%rdx, %rsi
 2231 00fd 4889C7   		movq	%rax, %rdi
 2232 0100 E8000000 		call	ecp_modp
 2232      00
 2233 0105 8945BC   		movl	%eax, -68(%rbp)
 2234 0108 837DBC00 		cmpl	$0, -68(%rbp)
 2235 010c 0F85BE00 		jne	.L181
 2235      0000
1107:/home/xingli/share/LiteOS_Lab/network/dtls/mbedtls/mbedtls-2.16.2/library/ecp.c **** 
1108:/home/xingli/share/LiteOS_Lab/network/dtls/mbedtls/mbedtls-2.16.2/library/ecp.c ****     /*
1109:/home/xingli/share/LiteOS_Lab/network/dtls/mbedtls/mbedtls-2.16.2/library/ecp.c ****      * Y = Y / Z^3  mod p
1110:/home/xingli/share/LiteOS_Lab/network/dtls/mbedtls/mbedtls-2.16.2/library/ecp.c ****      */
1111:/home/xingli/share/LiteOS_Lab/network/dtls/mbedtls/mbedtls-2.16.2/library/ecp.c ****     MBEDTLS_MPI_CHK( mbedtls_mpi_mul_mpi( &pt->Y,   &pt->Y,     &ZZi    ) ); MOD_MUL( pt->Y );
 2236              		.loc 1 1111 5
 2237 0112 488B45A0 		movq	-96(%rbp), %rax
 2238 0116 488D7018 		leaq	24(%rax), %rsi
 2239 011a 488B45A0 		movq	-96(%rbp), %rax
 2240 011e 488D4818 		leaq	24(%rax), %rcx
 2241 0122 488D45E0 		leaq	-32(%rbp), %rax
 2242 0126 4889C2   		movq	%rax, %rdx
 2243 0129 4889CF   		movq	%rcx, %rdi
 2244 012c E8000000 		call	mbedtls_mpi_mul_mpi@PLT
 2244      00
 2245 0131 8945BC   		movl	%eax, -68(%rbp)
 2246 0134 837DBC00 		cmpl	$0, -68(%rbp)
 2247 0138 0F859500 		jne	.L182
 2247      0000
 2248              		.loc 1 1111 78 discriminator 2
 2249 013e 488B45A0 		movq	-96(%rbp), %rax
 2250 0142 488D5018 		leaq	24(%rax), %rdx
 2251 0146 488B45A8 		movq	-88(%rbp), %rax
 2252 014a 4889C6   		movq	%rax, %rsi
 2253 014d 4889D7   		movq	%rdx, %rdi
 2254 0150 E8000000 		call	ecp_modp
 2254      00
 2255 0155 8945BC   		movl	%eax, -68(%rbp)
 2256 0158 837DBC00 		cmpl	$0, -68(%rbp)
 2257 015c 7578     		jne	.L183
1112:/home/xingli/share/LiteOS_Lab/network/dtls/mbedtls/mbedtls-2.16.2/library/ecp.c ****     MBEDTLS_MPI_CHK( mbedtls_mpi_mul_mpi( &pt->Y,   &pt->Y,     &Zi     ) ); MOD_MUL( pt->Y );
 2258              		.loc 1 1112 5
 2259 015e 488B45A0 		movq	-96(%rbp), %rax
 2260 0162 488D7018 		leaq	24(%rax), %rsi
 2261 0166 488B45A0 		movq	-96(%rbp), %rax
GAS LISTING /tmp/ccajKZL5.s 			page 66


 2262 016a 488D4818 		leaq	24(%rax), %rcx
 2263 016e 488D45C0 		leaq	-64(%rbp), %rax
 2264 0172 4889C2   		movq	%rax, %rdx
 2265 0175 4889CF   		movq	%rcx, %rdi
 2266 0178 E8000000 		call	mbedtls_mpi_mul_mpi@PLT
 2266      00
 2267 017d 8945BC   		movl	%eax, -68(%rbp)
 2268 0180 837DBC00 		cmpl	$0, -68(%rbp)
 2269 0184 7553     		jne	.L184
 2270              		.loc 1 1112 78 discriminator 2
 2271 0186 488B45A0 		movq	-96(%rbp), %rax
 2272 018a 488D5018 		leaq	24(%rax), %rdx
 2273 018e 488B45A8 		movq	-88(%rbp), %rax
 2274 0192 4889C6   		movq	%rax, %rsi
 2275 0195 4889D7   		movq	%rdx, %rdi
 2276 0198 E8000000 		call	ecp_modp
 2276      00
 2277 019d 8945BC   		movl	%eax, -68(%rbp)
 2278 01a0 837DBC00 		cmpl	$0, -68(%rbp)
 2279 01a4 7536     		jne	.L185
1113:/home/xingli/share/LiteOS_Lab/network/dtls/mbedtls/mbedtls-2.16.2/library/ecp.c **** 
1114:/home/xingli/share/LiteOS_Lab/network/dtls/mbedtls/mbedtls-2.16.2/library/ecp.c ****     /*
1115:/home/xingli/share/LiteOS_Lab/network/dtls/mbedtls/mbedtls-2.16.2/library/ecp.c ****      * Z = 1
1116:/home/xingli/share/LiteOS_Lab/network/dtls/mbedtls/mbedtls-2.16.2/library/ecp.c ****      */
1117:/home/xingli/share/LiteOS_Lab/network/dtls/mbedtls/mbedtls-2.16.2/library/ecp.c ****     MBEDTLS_MPI_CHK( mbedtls_mpi_lset( &pt->Z, 1 ) );
 2280              		.loc 1 1117 5
 2281 01a6 488B45A0 		movq	-96(%rbp), %rax
 2282 01aa 4883C030 		addq	$48, %rax
 2283 01ae BE010000 		movl	$1, %esi
 2283      00
 2284 01b3 4889C7   		movq	%rax, %rdi
 2285 01b6 E8000000 		call	mbedtls_mpi_lset@PLT
 2285      00
 2286 01bb 8945BC   		movl	%eax, -68(%rbp)
 2287 01be 837DBC00 		cmpl	$0, -68(%rbp)
1118:/home/xingli/share/LiteOS_Lab/network/dtls/mbedtls/mbedtls-2.16.2/library/ecp.c **** 
1119:/home/xingli/share/LiteOS_Lab/network/dtls/mbedtls/mbedtls-2.16.2/library/ecp.c **** cleanup:
 2288              		.loc 1 1119 1
 2289 01c2 EB19     		jmp	.L166
 2290              	.L177:
1104:/home/xingli/share/LiteOS_Lab/network/dtls/mbedtls/mbedtls-2.16.2/library/ecp.c ****     MBEDTLS_MPI_CHK( mbedtls_mpi_mul_mpi( &ZZi,     &Zi,        &Zi     ) ); MOD_MUL( ZZi );
 2291              		.loc 1 1104 5
 2292 01c4 90       		nop
 2293 01c5 EB16     		jmp	.L166
 2294              	.L178:
1105:/home/xingli/share/LiteOS_Lab/network/dtls/mbedtls/mbedtls-2.16.2/library/ecp.c ****     MBEDTLS_MPI_CHK( mbedtls_mpi_mul_mpi( &pt->X,   &pt->X,     &ZZi    ) ); MOD_MUL( pt->X );
 2295              		.loc 1 1105 5
 2296 01c7 90       		nop
 2297 01c8 EB13     		jmp	.L166
 2298              	.L179:
1105:/home/xingli/share/LiteOS_Lab/network/dtls/mbedtls/mbedtls-2.16.2/library/ecp.c ****     MBEDTLS_MPI_CHK( mbedtls_mpi_mul_mpi( &pt->X,   &pt->X,     &ZZi    ) ); MOD_MUL( pt->X );
 2299              		.loc 1 1105 78
 2300 01ca 90       		nop
 2301 01cb EB10     		jmp	.L166
 2302              	.L180:
1106:/home/xingli/share/LiteOS_Lab/network/dtls/mbedtls/mbedtls-2.16.2/library/ecp.c **** 
 2303              		.loc 1 1106 5
GAS LISTING /tmp/ccajKZL5.s 			page 67


 2304 01cd 90       		nop
 2305 01ce EB0D     		jmp	.L166
 2306              	.L181:
1106:/home/xingli/share/LiteOS_Lab/network/dtls/mbedtls/mbedtls-2.16.2/library/ecp.c **** 
 2307              		.loc 1 1106 78
 2308 01d0 90       		nop
 2309 01d1 EB0A     		jmp	.L166
 2310              	.L182:
1111:/home/xingli/share/LiteOS_Lab/network/dtls/mbedtls/mbedtls-2.16.2/library/ecp.c ****     MBEDTLS_MPI_CHK( mbedtls_mpi_mul_mpi( &pt->Y,   &pt->Y,     &Zi     ) ); MOD_MUL( pt->Y );
 2311              		.loc 1 1111 5
 2312 01d3 90       		nop
 2313 01d4 EB07     		jmp	.L166
 2314              	.L183:
1111:/home/xingli/share/LiteOS_Lab/network/dtls/mbedtls/mbedtls-2.16.2/library/ecp.c ****     MBEDTLS_MPI_CHK( mbedtls_mpi_mul_mpi( &pt->Y,   &pt->Y,     &Zi     ) ); MOD_MUL( pt->Y );
 2315              		.loc 1 1111 78
 2316 01d6 90       		nop
 2317 01d7 EB04     		jmp	.L166
 2318              	.L184:
1112:/home/xingli/share/LiteOS_Lab/network/dtls/mbedtls/mbedtls-2.16.2/library/ecp.c **** 
 2319              		.loc 1 1112 5
 2320 01d9 90       		nop
 2321 01da EB01     		jmp	.L166
 2322              	.L185:
1112:/home/xingli/share/LiteOS_Lab/network/dtls/mbedtls/mbedtls-2.16.2/library/ecp.c **** 
 2323              		.loc 1 1112 78
 2324 01dc 90       		nop
 2325              	.L166:
1120:/home/xingli/share/LiteOS_Lab/network/dtls/mbedtls/mbedtls-2.16.2/library/ecp.c **** 
1121:/home/xingli/share/LiteOS_Lab/network/dtls/mbedtls/mbedtls-2.16.2/library/ecp.c ****     mbedtls_mpi_free( &Zi ); mbedtls_mpi_free( &ZZi );
 2326              		.loc 1 1121 5
 2327 01dd 488D45C0 		leaq	-64(%rbp), %rax
 2328 01e1 4889C7   		movq	%rax, %rdi
 2329 01e4 E8000000 		call	mbedtls_mpi_free@PLT
 2329      00
 2330              		.loc 1 1121 30
 2331 01e9 488D45E0 		leaq	-32(%rbp), %rax
 2332 01ed 4889C7   		movq	%rax, %rdi
 2333 01f0 E8000000 		call	mbedtls_mpi_free@PLT
 2333      00
1122:/home/xingli/share/LiteOS_Lab/network/dtls/mbedtls/mbedtls-2.16.2/library/ecp.c **** 
1123:/home/xingli/share/LiteOS_Lab/network/dtls/mbedtls/mbedtls-2.16.2/library/ecp.c ****     return( ret );
 2334              		.loc 1 1123 11
 2335 01f5 8B45BC   		movl	-68(%rbp), %eax
 2336              	.L175:
1124:/home/xingli/share/LiteOS_Lab/network/dtls/mbedtls/mbedtls-2.16.2/library/ecp.c **** }
 2337              		.loc 1 1124 1 discriminator 1
 2338 01f8 488B4DF8 		movq	-8(%rbp), %rcx
 2339 01fc 6448330C 		xorq	%fs:40, %rcx
 2339      25280000 
 2339      00
 2340 0205 7405     		je	.L176
 2341              		.loc 1 1124 1 is_stmt 0
 2342 0207 E8000000 		call	__stack_chk_fail@PLT
 2342      00
 2343              	.L176:
 2344 020c C9       		leave
 2345              	.LCFI80:
GAS LISTING /tmp/ccajKZL5.s 			page 68


 2346              		.cfi_def_cfa 7, 8
 2347 020d C3       		ret
 2348              		.cfi_endproc
 2349              	.LFE32:
 2351              		.section	.text.ecp_normalize_jac_many,"ax",@progbits
 2353              	ecp_normalize_jac_many:
 2354              	.LFB33:
1125:/home/xingli/share/LiteOS_Lab/network/dtls/mbedtls/mbedtls-2.16.2/library/ecp.c **** 
1126:/home/xingli/share/LiteOS_Lab/network/dtls/mbedtls/mbedtls-2.16.2/library/ecp.c **** /*
1127:/home/xingli/share/LiteOS_Lab/network/dtls/mbedtls/mbedtls-2.16.2/library/ecp.c ****  * Normalize jacobian coordinates of an array of (pointers to) points,
1128:/home/xingli/share/LiteOS_Lab/network/dtls/mbedtls/mbedtls-2.16.2/library/ecp.c ****  * using Montgomery's trick to perform only one inversion mod P.
1129:/home/xingli/share/LiteOS_Lab/network/dtls/mbedtls/mbedtls-2.16.2/library/ecp.c ****  * (See for example Cohen's "A Course in Computational Algebraic Number
1130:/home/xingli/share/LiteOS_Lab/network/dtls/mbedtls/mbedtls-2.16.2/library/ecp.c ****  * Theory", Algorithm 10.3.4.)
1131:/home/xingli/share/LiteOS_Lab/network/dtls/mbedtls/mbedtls-2.16.2/library/ecp.c ****  *
1132:/home/xingli/share/LiteOS_Lab/network/dtls/mbedtls/mbedtls-2.16.2/library/ecp.c ****  * Warning: fails (returning an error) if one of the points is zero!
1133:/home/xingli/share/LiteOS_Lab/network/dtls/mbedtls/mbedtls-2.16.2/library/ecp.c ****  * This should never happen, see choice of w in ecp_mul_comb().
1134:/home/xingli/share/LiteOS_Lab/network/dtls/mbedtls/mbedtls-2.16.2/library/ecp.c ****  *
1135:/home/xingli/share/LiteOS_Lab/network/dtls/mbedtls/mbedtls-2.16.2/library/ecp.c ****  * Cost: 1N(t) := 1I + (6t - 3)M + 1S
1136:/home/xingli/share/LiteOS_Lab/network/dtls/mbedtls/mbedtls-2.16.2/library/ecp.c ****  */
1137:/home/xingli/share/LiteOS_Lab/network/dtls/mbedtls/mbedtls-2.16.2/library/ecp.c **** static int ecp_normalize_jac_many( const mbedtls_ecp_group *grp,
1138:/home/xingli/share/LiteOS_Lab/network/dtls/mbedtls/mbedtls-2.16.2/library/ecp.c ****                                    mbedtls_ecp_point *T[], size_t T_size )
1139:/home/xingli/share/LiteOS_Lab/network/dtls/mbedtls/mbedtls-2.16.2/library/ecp.c **** {
 2355              		.loc 1 1139 1 is_stmt 1
 2356              		.cfi_startproc
 2357 0000 F30F1EFA 		endbr64
 2358 0004 55       		pushq	%rbp
 2359              	.LCFI81:
 2360              		.cfi_def_cfa_offset 16
 2361              		.cfi_offset 6, -16
 2362 0005 4889E5   		movq	%rsp, %rbp
 2363              	.LCFI82:
 2364              		.cfi_def_cfa_register 6
 2365 0008 4881ECA0 		subq	$160, %rsp
 2365      000000
 2366 000f 4889BD78 		movq	%rdi, -136(%rbp)
 2366      FFFFFF
 2367 0016 4889B570 		movq	%rsi, -144(%rbp)
 2367      FFFFFF
 2368 001d 48899568 		movq	%rdx, -152(%rbp)
 2368      FFFFFF
 2369              		.loc 1 1139 1
 2370 0024 64488B04 		movq	%fs:40, %rax
 2370      25280000 
 2370      00
 2371 002d 488945F8 		movq	%rax, -8(%rbp)
 2372 0031 31C0     		xorl	%eax, %eax
1140:/home/xingli/share/LiteOS_Lab/network/dtls/mbedtls/mbedtls-2.16.2/library/ecp.c ****     int ret;
1141:/home/xingli/share/LiteOS_Lab/network/dtls/mbedtls/mbedtls-2.16.2/library/ecp.c ****     size_t i;
1142:/home/xingli/share/LiteOS_Lab/network/dtls/mbedtls/mbedtls-2.16.2/library/ecp.c ****     mbedtls_mpi *c, u, Zi, ZZi;
1143:/home/xingli/share/LiteOS_Lab/network/dtls/mbedtls/mbedtls-2.16.2/library/ecp.c **** 
1144:/home/xingli/share/LiteOS_Lab/network/dtls/mbedtls/mbedtls-2.16.2/library/ecp.c ****     if( T_size < 2 )
 2373              		.loc 1 1144 7
 2374 0033 4883BD68 		cmpq	$1, -152(%rbp)
 2374      FFFFFF01 
 2375 003b 7721     		ja	.L187
1145:/home/xingli/share/LiteOS_Lab/network/dtls/mbedtls/mbedtls-2.16.2/library/ecp.c ****         return( ecp_normalize_jac( grp, *T ) );
 2376              		.loc 1 1145 17
GAS LISTING /tmp/ccajKZL5.s 			page 69


 2377 003d 488B8570 		movq	-144(%rbp), %rax
 2377      FFFFFF
 2378 0044 488B10   		movq	(%rax), %rdx
 2379 0047 488B8578 		movq	-136(%rbp), %rax
 2379      FFFFFF
 2380 004e 4889D6   		movq	%rdx, %rsi
 2381 0051 4889C7   		movq	%rax, %rdi
 2382 0054 E8000000 		call	ecp_normalize_jac
 2382      00
 2383 0059 E9180600 		jmp	.L218
 2383      00
 2384              	.L187:
1146:/home/xingli/share/LiteOS_Lab/network/dtls/mbedtls/mbedtls-2.16.2/library/ecp.c **** 
1147:/home/xingli/share/LiteOS_Lab/network/dtls/mbedtls/mbedtls-2.16.2/library/ecp.c **** #if defined(MBEDTLS_ECP_NORMALIZE_JAC_MANY_ALT)
1148:/home/xingli/share/LiteOS_Lab/network/dtls/mbedtls/mbedtls-2.16.2/library/ecp.c ****     if( mbedtls_internal_ecp_grp_capable( grp ) )
1149:/home/xingli/share/LiteOS_Lab/network/dtls/mbedtls/mbedtls-2.16.2/library/ecp.c ****         return( mbedtls_internal_ecp_normalize_jac_many( grp, T, T_size ) );
1150:/home/xingli/share/LiteOS_Lab/network/dtls/mbedtls/mbedtls-2.16.2/library/ecp.c **** #endif
1151:/home/xingli/share/LiteOS_Lab/network/dtls/mbedtls/mbedtls-2.16.2/library/ecp.c **** 
1152:/home/xingli/share/LiteOS_Lab/network/dtls/mbedtls/mbedtls-2.16.2/library/ecp.c ****     if( ( c = mbedtls_calloc( T_size, sizeof( mbedtls_mpi ) ) ) == NULL )
 2385              		.loc 1 1152 15
 2386 005e 488B8568 		movq	-152(%rbp), %rax
 2386      FFFFFF
 2387 0065 BE180000 		movl	$24, %esi
 2387      00
 2388 006a 4889C7   		movq	%rax, %rdi
 2389 006d E8000000 		call	mbedtls_calloc@PLT
 2389      00
 2390 0072 48894598 		movq	%rax, -104(%rbp)
 2391              		.loc 1 1152 7
 2392 0076 48837D98 		cmpq	$0, -104(%rbp)
 2392      00
 2393 007b 750A     		jne	.L189
1153:/home/xingli/share/LiteOS_Lab/network/dtls/mbedtls/mbedtls-2.16.2/library/ecp.c ****         return( MBEDTLS_ERR_ECP_ALLOC_FAILED );
 2394              		.loc 1 1153 15
 2395 007d B880B2FF 		movl	$-19840, %eax
 2395      FF
 2396 0082 E9EF0500 		jmp	.L218
 2396      00
 2397              	.L189:
1154:/home/xingli/share/LiteOS_Lab/network/dtls/mbedtls/mbedtls-2.16.2/library/ecp.c **** 
1155:/home/xingli/share/LiteOS_Lab/network/dtls/mbedtls/mbedtls-2.16.2/library/ecp.c ****     for( i = 0; i < T_size; i++ )
 2398              		.loc 1 1155 12
 2399 0087 48C74590 		movq	$0, -112(%rbp)
 2399      00000000 
 2400              		.loc 1 1155 5
 2401 008f EB28     		jmp	.L190
 2402              	.L191:
1156:/home/xingli/share/LiteOS_Lab/network/dtls/mbedtls/mbedtls-2.16.2/library/ecp.c ****         mbedtls_mpi_init( &c[i] );
 2403              		.loc 1 1156 29 discriminator 3
 2404 0091 488B5590 		movq	-112(%rbp), %rdx
 2405 0095 4889D0   		movq	%rdx, %rax
 2406 0098 4801C0   		addq	%rax, %rax
 2407 009b 4801D0   		addq	%rdx, %rax
 2408 009e 48C1E003 		salq	$3, %rax
 2409 00a2 4889C2   		movq	%rax, %rdx
 2410              		.loc 1 1156 9 discriminator 3
 2411 00a5 488B4598 		movq	-104(%rbp), %rax
GAS LISTING /tmp/ccajKZL5.s 			page 70


 2412 00a9 4801D0   		addq	%rdx, %rax
 2413 00ac 4889C7   		movq	%rax, %rdi
 2414 00af E8000000 		call	mbedtls_mpi_init@PLT
 2414      00
1155:/home/xingli/share/LiteOS_Lab/network/dtls/mbedtls/mbedtls-2.16.2/library/ecp.c ****         mbedtls_mpi_init( &c[i] );
 2415              		.loc 1 1155 30 discriminator 3
 2416 00b4 48834590 		addq	$1, -112(%rbp)
 2416      01
 2417              	.L190:
1155:/home/xingli/share/LiteOS_Lab/network/dtls/mbedtls/mbedtls-2.16.2/library/ecp.c ****         mbedtls_mpi_init( &c[i] );
 2418              		.loc 1 1155 5 discriminator 1
 2419 00b9 488B4590 		movq	-112(%rbp), %rax
 2420 00bd 483B8568 		cmpq	-152(%rbp), %rax
 2420      FFFFFF
 2421 00c4 72CB     		jb	.L191
1157:/home/xingli/share/LiteOS_Lab/network/dtls/mbedtls/mbedtls-2.16.2/library/ecp.c **** 
1158:/home/xingli/share/LiteOS_Lab/network/dtls/mbedtls/mbedtls-2.16.2/library/ecp.c ****     mbedtls_mpi_init( &u ); mbedtls_mpi_init( &Zi ); mbedtls_mpi_init( &ZZi );
 2422              		.loc 1 1158 5
 2423 00c6 488D45A0 		leaq	-96(%rbp), %rax
 2424 00ca 4889C7   		movq	%rax, %rdi
 2425 00cd E8000000 		call	mbedtls_mpi_init@PLT
 2425      00
 2426              		.loc 1 1158 29
 2427 00d2 488D45C0 		leaq	-64(%rbp), %rax
 2428 00d6 4889C7   		movq	%rax, %rdi
 2429 00d9 E8000000 		call	mbedtls_mpi_init@PLT
 2429      00
 2430              		.loc 1 1158 54
 2431 00de 488D45E0 		leaq	-32(%rbp), %rax
 2432 00e2 4889C7   		movq	%rax, %rdi
 2433 00e5 E8000000 		call	mbedtls_mpi_init@PLT
 2433      00
1159:/home/xingli/share/LiteOS_Lab/network/dtls/mbedtls/mbedtls-2.16.2/library/ecp.c **** 
1160:/home/xingli/share/LiteOS_Lab/network/dtls/mbedtls/mbedtls-2.16.2/library/ecp.c ****     /*
1161:/home/xingli/share/LiteOS_Lab/network/dtls/mbedtls/mbedtls-2.16.2/library/ecp.c ****      * c[i] = Z_0 * ... * Z_i
1162:/home/xingli/share/LiteOS_Lab/network/dtls/mbedtls/mbedtls-2.16.2/library/ecp.c ****      */
1163:/home/xingli/share/LiteOS_Lab/network/dtls/mbedtls/mbedtls-2.16.2/library/ecp.c ****     MBEDTLS_MPI_CHK( mbedtls_mpi_copy( &c[0], &T[0]->Z ) );
 2434              		.loc 1 1163 5
 2435 00ea 488B8570 		movq	-144(%rbp), %rax
 2435      FFFFFF
 2436 00f1 488B00   		movq	(%rax), %rax
 2437 00f4 488D5030 		leaq	48(%rax), %rdx
 2438 00f8 488B4598 		movq	-104(%rbp), %rax
 2439 00fc 4889D6   		movq	%rdx, %rsi
 2440 00ff 4889C7   		movq	%rax, %rdi
 2441 0102 E8000000 		call	mbedtls_mpi_copy@PLT
 2441      00
 2442 0107 89458C   		movl	%eax, -116(%rbp)
 2443 010a 837D8C00 		cmpl	$0, -116(%rbp)
 2444 010e 0F85B904 		jne	.L220
 2444      0000
1164:/home/xingli/share/LiteOS_Lab/network/dtls/mbedtls/mbedtls-2.16.2/library/ecp.c ****     for( i = 1; i < T_size; i++ )
 2445              		.loc 1 1164 12
 2446 0114 48C74590 		movq	$1, -112(%rbp)
 2446      01000000 
 2447              		.loc 1 1164 5
 2448 011c E9AF0000 		jmp	.L194
GAS LISTING /tmp/ccajKZL5.s 			page 71


 2448      00
 2449              	.L197:
1165:/home/xingli/share/LiteOS_Lab/network/dtls/mbedtls/mbedtls-2.16.2/library/ecp.c ****     {
1166:/home/xingli/share/LiteOS_Lab/network/dtls/mbedtls/mbedtls-2.16.2/library/ecp.c ****         MBEDTLS_MPI_CHK( mbedtls_mpi_mul_mpi( &c[i], &c[i-1], &T[i]->Z ) );
 2450              		.loc 1 1166 9
 2451 0121 488B4590 		movq	-112(%rbp), %rax
 2452 0125 488D14C5 		leaq	0(,%rax,8), %rdx
 2452      00000000 
 2453 012d 488B8570 		movq	-144(%rbp), %rax
 2453      FFFFFF
 2454 0134 4801D0   		addq	%rdx, %rax
 2455 0137 488B00   		movq	(%rax), %rax
 2456 013a 488D7030 		leaq	48(%rax), %rsi
 2457 013e 488B5590 		movq	-112(%rbp), %rdx
 2458 0142 4889D0   		movq	%rdx, %rax
 2459 0145 4801C0   		addq	%rax, %rax
 2460 0148 4801D0   		addq	%rdx, %rax
 2461 014b 48C1E003 		salq	$3, %rax
 2462 014f 488D50E8 		leaq	-24(%rax), %rdx
 2463 0153 488B4598 		movq	-104(%rbp), %rax
 2464 0157 488D0C02 		leaq	(%rdx,%rax), %rcx
 2465 015b 488B5590 		movq	-112(%rbp), %rdx
 2466 015f 4889D0   		movq	%rdx, %rax
 2467 0162 4801C0   		addq	%rax, %rax
 2468 0165 4801D0   		addq	%rdx, %rax
 2469 0168 48C1E003 		salq	$3, %rax
 2470 016c 4889C2   		movq	%rax, %rdx
 2471 016f 488B4598 		movq	-104(%rbp), %rax
 2472 0173 4801D0   		addq	%rdx, %rax
 2473 0176 4889F2   		movq	%rsi, %rdx
 2474 0179 4889CE   		movq	%rcx, %rsi
 2475 017c 4889C7   		movq	%rax, %rdi
 2476 017f E8000000 		call	mbedtls_mpi_mul_mpi@PLT
 2476      00
 2477 0184 89458C   		movl	%eax, -116(%rbp)
 2478 0187 837D8C00 		cmpl	$0, -116(%rbp)
 2479 018b 0F853F04 		jne	.L221
 2479      0000
1167:/home/xingli/share/LiteOS_Lab/network/dtls/mbedtls/mbedtls-2.16.2/library/ecp.c ****         MOD_MUL( c[i] );
 2480              		.loc 1 1167 9
 2481 0191 488B5590 		movq	-112(%rbp), %rdx
 2482 0195 4889D0   		movq	%rdx, %rax
 2483 0198 4801C0   		addq	%rax, %rax
 2484 019b 4801D0   		addq	%rdx, %rax
 2485 019e 48C1E003 		salq	$3, %rax
 2486 01a2 4889C2   		movq	%rax, %rdx
 2487 01a5 488B4598 		movq	-104(%rbp), %rax
 2488 01a9 4801C2   		addq	%rax, %rdx
 2489 01ac 488B8578 		movq	-136(%rbp), %rax
 2489      FFFFFF
 2490 01b3 4889C6   		movq	%rax, %rsi
 2491 01b6 4889D7   		movq	%rdx, %rdi
 2492 01b9 E8000000 		call	ecp_modp
 2492      00
 2493 01be 89458C   		movl	%eax, -116(%rbp)
 2494 01c1 837D8C00 		cmpl	$0, -116(%rbp)
 2495 01c5 0F850804 		jne	.L222
GAS LISTING /tmp/ccajKZL5.s 			page 72


 2495      0000
1164:/home/xingli/share/LiteOS_Lab/network/dtls/mbedtls/mbedtls-2.16.2/library/ecp.c ****     for( i = 1; i < T_size; i++ )
 2496              		.loc 1 1164 30 discriminator 2
 2497 01cb 48834590 		addq	$1, -112(%rbp)
 2497      01
 2498              	.L194:
1164:/home/xingli/share/LiteOS_Lab/network/dtls/mbedtls/mbedtls-2.16.2/library/ecp.c ****     for( i = 1; i < T_size; i++ )
 2499              		.loc 1 1164 5 discriminator 1
 2500 01d0 488B4590 		movq	-112(%rbp), %rax
 2501 01d4 483B8568 		cmpq	-152(%rbp), %rax
 2501      FFFFFF
 2502 01db 0F8240FF 		jb	.L197
 2502      FFFF
1168:/home/xingli/share/LiteOS_Lab/network/dtls/mbedtls/mbedtls-2.16.2/library/ecp.c ****     }
1169:/home/xingli/share/LiteOS_Lab/network/dtls/mbedtls/mbedtls-2.16.2/library/ecp.c **** 
1170:/home/xingli/share/LiteOS_Lab/network/dtls/mbedtls/mbedtls-2.16.2/library/ecp.c ****     /*
1171:/home/xingli/share/LiteOS_Lab/network/dtls/mbedtls/mbedtls-2.16.2/library/ecp.c ****      * u = 1 / (Z_0 * ... * Z_n) mod P
1172:/home/xingli/share/LiteOS_Lab/network/dtls/mbedtls/mbedtls-2.16.2/library/ecp.c ****      */
1173:/home/xingli/share/LiteOS_Lab/network/dtls/mbedtls/mbedtls-2.16.2/library/ecp.c ****     MBEDTLS_MPI_CHK( mbedtls_mpi_inv_mod( &u, &c[T_size-1], &grp->P ) );
 2503              		.loc 1 1173 5
 2504 01e1 488B8578 		movq	-136(%rbp), %rax
 2504      FFFFFF
 2505 01e8 488D7008 		leaq	8(%rax), %rsi
 2506 01ec 488B9568 		movq	-152(%rbp), %rdx
 2506      FFFFFF
 2507 01f3 4889D0   		movq	%rdx, %rax
 2508 01f6 4801C0   		addq	%rax, %rax
 2509 01f9 4801D0   		addq	%rdx, %rax
 2510 01fc 48C1E003 		salq	$3, %rax
 2511 0200 488D50E8 		leaq	-24(%rax), %rdx
 2512 0204 488B4598 		movq	-104(%rbp), %rax
 2513 0208 488D0C02 		leaq	(%rdx,%rax), %rcx
 2514 020c 488D45A0 		leaq	-96(%rbp), %rax
 2515 0210 4889F2   		movq	%rsi, %rdx
 2516 0213 4889CE   		movq	%rcx, %rsi
 2517 0216 4889C7   		movq	%rax, %rdi
 2518 0219 E8000000 		call	mbedtls_mpi_inv_mod@PLT
 2518      00
 2519 021e 89458C   		movl	%eax, -116(%rbp)
 2520 0221 837D8C00 		cmpl	$0, -116(%rbp)
 2521 0225 0F85AB03 		jne	.L223
 2521      0000
1174:/home/xingli/share/LiteOS_Lab/network/dtls/mbedtls/mbedtls-2.16.2/library/ecp.c **** 
1175:/home/xingli/share/LiteOS_Lab/network/dtls/mbedtls/mbedtls-2.16.2/library/ecp.c ****     for( i = T_size - 1; ; i-- )
 2522              		.loc 1 1175 12
 2523 022b 488B8568 		movq	-152(%rbp), %rax
 2523      FFFFFF
 2524 0232 4883E801 		subq	$1, %rax
 2525 0236 48894590 		movq	%rax, -112(%rbp)
 2526              	.L215:
1176:/home/xingli/share/LiteOS_Lab/network/dtls/mbedtls/mbedtls-2.16.2/library/ecp.c ****     {
1177:/home/xingli/share/LiteOS_Lab/network/dtls/mbedtls/mbedtls-2.16.2/library/ecp.c ****         /*
1178:/home/xingli/share/LiteOS_Lab/network/dtls/mbedtls/mbedtls-2.16.2/library/ecp.c ****          * Zi = 1 / Z_i mod p
1179:/home/xingli/share/LiteOS_Lab/network/dtls/mbedtls/mbedtls-2.16.2/library/ecp.c ****          * u = 1 / (Z_0 * ... * Z_i) mod P
1180:/home/xingli/share/LiteOS_Lab/network/dtls/mbedtls/mbedtls-2.16.2/library/ecp.c ****          */
1181:/home/xingli/share/LiteOS_Lab/network/dtls/mbedtls/mbedtls-2.16.2/library/ecp.c ****         if( i == 0 ) {
 2527              		.loc 1 1181 11
GAS LISTING /tmp/ccajKZL5.s 			page 73


 2528 023a 48837D90 		cmpq	$0, -112(%rbp)
 2528      00
 2529 023f 7525     		jne	.L199
