GAS LISTING /tmp/ccBClcmz.s 			page 1


   1              		.file	"ecp_curves.c"
   2              		.text
   3              	.Ltext0:
   4              		.section	.rodata.secp192r1_p,"a"
   5              		.align 16
   8              	secp192r1_p:
   9 0000 FFFFFFFF 		.quad	-1
   9      FFFFFFFF 
  10 0008 FEFFFFFF 		.quad	-2
  10      FFFFFFFF 
  11 0010 FFFFFFFF 		.quad	-1
  11      FFFFFFFF 
  12              		.section	.rodata.secp192r1_b,"a"
  13              		.align 16
  16              	secp192r1_b:
  17 0000 B1B946C1 		.quad	-92078683924809295
  17      ECDEB8FE 
  18 0008 49302472 		.quad	1128127154243252297
  18      ABE9A70F 
  19 0010 E7809CE5 		.quad	7215053686808805607
  19      19052164 
  20              		.section	.rodata.secp192r1_gx,"a"
  21              		.align 16
  24              	secp192r1_gx:
  25 0000 1210FF82 		.quad	-792902925453160430
  25      FD0AFFF4 
  26 0008 0088A143 		.quad	8988939576078862336
  26      EB20BF7C 
  27 0010 F69030B0 		.quad	1769255009665454326
  27      0EA88D18 
  28              		.section	.rodata.secp192r1_gy,"a"
  29              		.align 16
  32              	secp192r1_gy:
  33 0000 1148791E 		.quad	8356842117447370769
  33      A177F973 
  34 0008 D5CD246B 		.quad	7138225120784731605
  34      ED111063 
  35 0010 78DAC8FF 		.quad	511487955924736632
  35      952B1907 
  36              		.section	.rodata.secp192r1_n,"a"
  37              		.align 16
  40              	secp192r1_n:
  41 0000 3128D2B4 		.quad	1471491468346665009
  41      B1C96B14 
  42 0008 36F8DE99 		.quad	-1713440714
  42      FFFFFFFF 
  43 0010 FFFFFFFF 		.quad	-1
  43      FFFFFFFF 
  44              		.section	.rodata.secp224r1_p,"a"
  45              		.align 32
  48              	secp224r1_p:
  49 0000 01000000 		.quad	1
  49      00000000 
  50 0008 00000000 		.quad	-4294967296
  50      FFFFFFFF 
  51 0010 FFFFFFFF 		.quad	-1
  51      FFFFFFFF 
GAS LISTING /tmp/ccBClcmz.s 			page 2


  52 0018 FFFFFFFF 		.quad	4294967295
  52      00000000 
  53              		.section	.rodata.secp224r1_b,"a"
  54              		.align 32
  57              	secp224r1_b:
  58 0000 B4FF5523 		.quad	2813405352741437364
  58      43390B27 
  59 0008 BAD8BFD7 		.quad	5783942125095737530
  59      B7B04450 
  60 0010 563241F5 		.quad	866014579497448022
  60      ABB3040C 
  61 0018 850A05B4 		.quad	3020229253
  61      00000000 
  62              		.section	.rodata.secp224r1_gx,"a"
  63              		.align 32
  66              	secp224r1_gx:
  67 0000 211D5C11 		.quad	3761210295710391585
  67      D6803234 
  68 0008 2211C256 		.quad	5333319497174618402
  68      D3C1034A 
  69 0010 B9901332 		.quad	7761038610888102073
  69      7FBFB46B 
  70 0018 BD0C0EB7 		.quad	3071151293
  70      00000000 
  71              		.section	.rodata.secp224r1_gy,"a"
  72              		.align 32
  75              	secp224r1_gy:
  76 0000 347E0085 		.quad	4960013060979850804
  76      9981D544 
  77 0008 6447075A 		.quad	-3655949140929067164
  77      A07543CD 
  78 0010 E6DF224C 		.quad	-5334755671375945754
  78      FB23F7B5 
  79 0018 886337BD 		.quad	3174523784
  79      00000000 
  80              		.section	.rodata.secp224r1_n,"a"
  81              		.align 32
  84              	secp224r1_n:
  85 0000 3D2A5C5C 		.quad	1431345634452711997
  85      4529DD13 
  86 0008 3EF0B8E0 		.quad	-256586165981122
  86      A216FFFF 
  87 0010 FFFFFFFF 		.quad	-1
  87      FFFFFFFF 
  88 0018 FFFFFFFF 		.quad	4294967295
  88      00000000 
  89              		.section	.rodata.secp256r1_p,"a"
  90              		.align 32
  93              	secp256r1_p:
  94 0000 FFFFFFFF 		.quad	-1
  94      FFFFFFFF 
  95 0008 FFFFFFFF 		.quad	4294967295
  95      00000000 
  96 0010 00000000 		.quad	0
  96      00000000 
  97 0018 01000000 		.quad	-4294967295
  97      FFFFFFFF 
GAS LISTING /tmp/ccBClcmz.s 			page 3


  98              		.section	.rodata.secp256r1_b,"a"
  99              		.align 32
 102              	secp256r1_b:
 103 0000 4B60D227 		.quad	4309448131093880907
 103      3E3CCE3B 
 104 0008 F6B053CC 		.quad	7285987128567378166
 104      B0061D65 
 105 0010 BC869876 		.quad	-5482079946633869636
 105      55BDEBB3 
 106 0018 E7933AAA 		.quad	6540974713487397863
 106      D835C65A 
 107              		.section	.rodata.secp256r1_gx,"a"
 108              		.align 32
 111              	secp256r1_gx:
 112 0000 96C298D8 		.quad	-819310685055303018
 112      4539A1F4 
 113 0008 A033EB2D 		.quad	8575836109218198432
 113      817D0377 
 114 0010 F240A463 		.quad	-523289583788211982
 114      E5E6BCF8 
 115 0018 47422CE1 		.quad	7716867327612699207
 115      F2D1176B 
 116              		.section	.rodata.secp256r1_gy,"a"
 117              		.align 32
 120              	secp256r1_gy:
 121 0000 F551BF37 		.quad	-3767753221892779531
 121      6840B6CB 
 122 0008 CE5E316B 		.quad	3156516839386865358
 122      5733CE2B 
 123 0010 169E0F7C 		.quad	-8149286295562117610
 123      4AEBE78E 
 124 0018 9B7F1AFE 		.quad	5756518291402817435
 124      E242E34F 
 125              		.section	.rodata.secp256r1_n,"a"
 126              		.align 32
 129              	secp256r1_n:
 130 0000 512563FC 		.quad	-884452912994769583
 130      C2CAB9F3 
 131 0008 849E17A7 		.quad	-4834901526196019580
 131      ADFAE6BC 
 132 0010 FFFFFFFF 		.quad	-1
 132      FFFFFFFF 
 133 0018 00000000 		.quad	-4294967296
 133      FFFFFFFF 
 134              		.section	.rodata.secp384r1_p,"a"
 135              		.align 32
 138              	secp384r1_p:
 139 0000 FFFFFFFF 		.quad	4294967295
 139      00000000 
 140 0008 00000000 		.quad	-4294967296
 140      FFFFFFFF 
 141 0010 FEFFFFFF 		.quad	-2
 141      FFFFFFFF 
 142 0018 FFFFFFFF 		.quad	-1
 142      FFFFFFFF 
 143 0020 FFFFFFFF 		.quad	-1
 143      FFFFFFFF 
GAS LISTING /tmp/ccBClcmz.s 			page 4


 144 0028 FFFFFFFF 		.quad	-1
 144      FFFFFFFF 
 145              		.section	.rodata.secp384r1_b,"a"
 146              		.align 32
 149              	secp384r1_b:
 150 0000 EF2AECD3 		.quad	3064076045283764975
 150      EDC8852A 
 151 0008 9DD12E8A 		.quad	-4155070326131207779
 151      8D3956C6 
 152 0010 5A871350 		.quad	221811693264799578
 152      8F081403 
 153 0018 124181FE 		.quad	1737717031765098770
 153      6E9C1D18 
 154 0020 192DF8E3 		.quad	-7454014372307260135
 154      6B058E98 
 155 0028 E4E73EE2 		.quad	-5534590068959811612
 155      A72F31B3 
 156              		.section	.rodata.secp384r1_gx,"a"
 157              		.align 32
 160              	secp384r1_gx:
 161 0000 B70A7672 		.quad	4203087948775033527
 161      385E543A 
 162 0008 6C2955BF 		.quad	6125724927633205612
 162      5DF20255 
 163 0010 382A5482 		.quad	6482722621138151992
 163      E041F759 
 164 0018 989BA78B 		.quad	7934563412932533144
 164      623B1D6E 
 165 0020 74AD20F3 		.quad	-8164525713704047244
 165      1EC7B18E 
 166 0028 37058BBE 		.quad	-6158731714831383241
 166      22CA87AA 
 167              		.section	.rodata.secp384r1_gy,"a"
 168              		.align 32
 171              	secp384r1_gy:
 172 0000 5F0EEA90 		.quad	8809917716911230559
 172      7C1D437A 
 173 0008 9D817E1D 		.quad	747793036959711645
 173      CEB1600A 
 174 0010 C0B8F0B5 		.quad	-1595909157222827840
 174      1331DAE9 
 175 0018 7C149A28 		.quad	-507748159718812548
 175      BD1DF4F8 
 176 0020 29DC9292 		.quad	6745997240412855337
 176      BF989E5D 
 177 0028 6F2C2696 		.quad	3897828414440483951
 177      4ADE1736 
 178              		.section	.rodata.secp384r1_n,"a"
 179              		.align 32
 182              	secp384r1_n:
 183 0000 7329C5CC 		.quad	-1374695839762142861
 183      6A19ECEC 
 184 0008 7AA7B048 		.quad	6348401684107011962
 184      B20D1A58 
 185 0010 DF2D37F4 		.quad	-4079331616924160545
 185      814D63C7 
 186 0018 FFFFFFFF 		.quad	-1
GAS LISTING /tmp/ccBClcmz.s 			page 5


 186      FFFFFFFF 
 187 0020 FFFFFFFF 		.quad	-1
 187      FFFFFFFF 
 188 0028 FFFFFFFF 		.quad	-1
 188      FFFFFFFF 
 189              		.section	.rodata.secp521r1_p,"a"
 190              		.align 32
 193              	secp521r1_p:
 194 0000 FFFFFFFF 		.quad	-1
 194      FFFFFFFF 
 195 0008 FFFFFFFF 		.quad	-1
 195      FFFFFFFF 
 196 0010 FFFFFFFF 		.quad	-1
 196      FFFFFFFF 
 197 0018 FFFFFFFF 		.quad	-1
 197      FFFFFFFF 
 198 0020 FFFFFFFF 		.quad	-1
 198      FFFFFFFF 
 199 0028 FFFFFFFF 		.quad	-1
 199      FFFFFFFF 
 200 0030 FFFFFFFF 		.quad	-1
 200      FFFFFFFF 
 201 0038 FFFFFFFF 		.quad	-1
 201      FFFFFFFF 
 202 0040 FF010000 		.quad	511
 202      00000000 
 203              		.section	.rodata.secp521r1_b,"a"
 204              		.align 32
 207              	secp521r1_b:
 208 0000 003F506B 		.quad	-1205522328057790720
 208      D41F45EF 
 209 0008 F1342C3D 		.quad	3851667882566759665
 209      88DF7335 
 210 0010 07BFB13B 		.quad	1608559935907544839
 210      BDC05216 
 211 0018 7B937EEC 		.quad	6204052985702421371
 211      51391956 
 212 0020 E109F18E 		.quad	-5137330016661468703
 212      9189B4B8 
 213 0028 F315B399 		.quad	-6711926556896061965
 213      5B72DAA2 
 214 0030 EE4085B6 		.quad	-7882951223617961746
 214      A0219A92 
 215 0038 1F9A1C8E 		.quad	-7692507284855023073
 215      61B93E95 
 216 0040 51000000 		.quad	81
 216      00000000 
 217              		.section	.rodata.secp521r1_gx,"a"
 218              		.align 32
 221              	secp521r1_gx:
 222 0000 66BDE5C2 		.quad	-468798559011619482
 222      317E7EF9 
 223 0008 9B426A85 		.quad	3695401138005885595
 223      C1B34833 
 224 0010 DEA8FFA2 		.quad	-135740037768697634
 224      27C11DFE 
 225 0018 2859E7EF 		.quad	-6824256941130819288
GAS LISTING /tmp/ccBClcmz.s 			page 6


 225      775E4BA1 
 226 0020 BA3D4D6B 		.quad	-565008924583051846
 226      60AF28F8 
 227 0028 21B53F05 		.quad	-7177469824220547807
 227      3981649C 
 228 0030 42B49523 		.quad	-7043969127616760766
 228      66CB3E9E 
 229 0038 CDE90404 		.quad	-8823107236856010291
 229      B7068E85 
 230 0040 C6000000 		.quad	198
 230      00000000 
 231              		.section	.rodata.secp521r1_gy,"a"
 232              		.align 32
 235              	secp521r1_gy:
 236 0000 5066D19F 		.quad	-8593267801767975344
 236      7694BE88 
 237 0008 40C272A2 		.quad	3836064706166178368
 237      86703C35 
 238 0010 6107AD3F 		.quad	-4228676635086485663
 238      01B950C5 
 239 0018 4026F45E 		.quad	-7498930326476675520
 239      9972EE97 
 240 0020 2C663E27 		.quad	1706790690937005612
 240      17BDAF17 
 241 0028 68449B57 		.quad	-7424953328857299864
 241      4944F598 
 242 0030 D91B7D2C 		.quad	6668247425720589273
 242      B45F8A5C 
 243 0038 04C03B9A 		.quad	4118940400423256068
 243      786A2939 
 244 0040 18010000 		.quad	280
 244      00000000 
 245              		.section	.rodata.secp521r1_n,"a"
 246              		.align 32
 249              	secp521r1_n:
 250 0000 09643891 		.quad	-4940528924288850935
 250      1EB76FBB 
 251 0008 AE479C89 		.quad	4302566813442262958
 251      B8C9B53B 
 252 0010 D0A509F7 		.quad	9208736750959699408
 252      4801CC7F 
 253 0018 6B962FBF 		.quad	5874531763869423211
 253      83878651 
 254 0020 FAFFFFFF 		.quad	-6
 254      FFFFFFFF 
 255 0028 FFFFFFFF 		.quad	-1
 255      FFFFFFFF 
 256 0030 FFFFFFFF 		.quad	-1
 256      FFFFFFFF 
 257 0038 FFFFFFFF 		.quad	-1
 257      FFFFFFFF 
 258 0040 FF010000 		.quad	511
 258      00000000 
 259              		.section	.rodata.secp192k1_p,"a"
 260              		.align 16
 263              	secp192k1_p:
 264 0000 37EEFFFF 		.quad	-4294971849
GAS LISTING /tmp/ccBClcmz.s 			page 7


 264      FEFFFFFF 
 265 0008 FFFFFFFF 		.quad	-1
 265      FFFFFFFF 
 266 0010 FFFFFFFF 		.quad	-1
 266      FFFFFFFF 
 267              		.section	.rodata.secp192k1_a,"a"
 268              		.align 8
 271              	secp192k1_a:
 272 0000 00000000 		.zero	8
 272      00000000 
 273              		.section	.rodata.secp192k1_b,"a"
 274              		.align 8
 277              	secp192k1_b:
 278 0000 03000000 		.quad	3
 278      00000000 
 279              		.section	.rodata.secp192k1_gx,"a"
 280              		.align 16
 283              	secp192k1_gx:
 284 0000 7D6CE0EA 		.quad	2136344160337161341
 284      B1D1A51D 
 285 0008 34F4B780 		.quad	2787865619045282868
 285      027DB026 
 286 0010 AEE957C0 		.quad	-2643629410584368722
 286      0EF14FDB 
 287              		.section	.rodata.secp192k1_gy,"a"
 288              		.align 16
 291              	secp192k1_gy:
 292 0000 9D2F5ED9 		.quad	4648465270138875805
 292      88AA8240 
 293 0008 3486BE15 		.quad	-8916736041847716300
 293      D0634184 
 294 0010 A728569C 		.quad	-7264535526104487769
 294      6D2F2F9B 
 295              		.section	.rodata.secp192k1_n,"a"
 296              		.align 16
 299              	secp192k1_n:
 300 0000 8DFDDE74 		.quad	1110496206164786573
 300      6A46690F 
 301 0008 17FCF226 		.quad	-7936476137
 301      FEFFFFFF 
 302 0010 FFFFFFFF 		.quad	-1
 302      FFFFFFFF 
 303              		.section	.rodata.secp224k1_p,"a"
 304              		.align 32
 307              	secp224k1_p:
 308 0000 6DE5FFFF 		.quad	-4294974099
 308      FEFFFFFF 
 309 0008 FFFFFFFF 		.quad	-1
 309      FFFFFFFF 
 310 0010 FFFFFFFF 		.quad	-1
 310      FFFFFFFF 
 311 0018 FFFFFFFF 		.quad	4294967295
 311      00000000 
 312              		.section	.rodata.secp224k1_a,"a"
 313              		.align 8
 316              	secp224k1_a:
 317 0000 00000000 		.zero	8
GAS LISTING /tmp/ccBClcmz.s 			page 8


 317      00000000 
 318              		.section	.rodata.secp224k1_b,"a"
 319              		.align 8
 322              	secp224k1_b:
 323 0000 05000000 		.quad	5
 323      00000000 
 324              		.section	.rodata.secp224k1_gx,"a"
 325              		.align 32
 328              	secp224k1_gx:
 329 0000 5CA4B7B6 		.quad	1116440871503897692
 329      0E657E0F 
 330 0008 A97570E4 		.quad	7612323524420597161
 330      E967A469 
 331 0010 A128FC30 		.quad	5616157919209597089
 331      DF99F04D 
 332 0018 335B45A1 		.quad	2705677107
 332      00000000 
 333              		.section	.rodata.secp224k1_gy,"a"
 334              		.align 32
 337              	secp224k1_gy:
 338 0000 A5616D55 		.quad	-2104786470439132763
 338      DB4BCAE2 
 339 0008 59BDB0C0 		.quad	-584594974747607719
 339      F719E3F7 
 340 0010 D6FBCA82 		.quad	9203726248751856598
 340      4234BA7F 
 341 0018 ED9F087E 		.quad	2114494445
 341      00000000 
 342              		.section	.rodata.secp224k1_n,"a"
 343              		.align 32
 346              	secp224k1_n:
 347 0000 F7B19F76 		.quad	-3823369778850975241
 347      71A9F0CA 
 348 0008 8461ECD2 		.quad	524367505940868
 348      E8DC0100 
 349 0010 00000000 		.quad	0
 349      00000000 
 350 0018 00000000 		.quad	4294967296
 350      01000000 
 351              		.section	.rodata.secp256k1_p,"a"
 352              		.align 32
 355              	secp256k1_p:
 356 0000 2FFCFFFF 		.quad	-4294968273
 356      FEFFFFFF 
 357 0008 FFFFFFFF 		.quad	-1
 357      FFFFFFFF 
 358 0010 FFFFFFFF 		.quad	-1
 358      FFFFFFFF 
 359 0018 FFFFFFFF 		.quad	-1
 359      FFFFFFFF 
 360              		.section	.rodata.secp256k1_a,"a"
 361              		.align 8
 364              	secp256k1_a:
 365 0000 00000000 		.zero	8
 365      00000000 
 366              		.section	.rodata.secp256k1_b,"a"
 367              		.align 8
GAS LISTING /tmp/ccBClcmz.s 			page 9


 370              	secp256k1_b:
 371 0000 07000000 		.quad	7
 371      00000000 
 372              		.section	.rodata.secp256k1_gx,"a"
 373              		.align 32
 376              	secp256k1_gx:
 377 0000 9817F816 		.quad	6481385041966929816
 377      5B81F259 
 378 0008 D928CE2D 		.quad	188021827762530521
 378      DBFC9B02 
 379 0010 070B87CE 		.quad	6170039885052185351
 379      9562A055 
 380 0018 ACBBDCF9 		.quad	8772561819708210092
 380      7E66BE79 
 381              		.section	.rodata.secp256k1_gy,"a"
 382              		.align 32
 385              	secp256k1_gy:
 386 0000 B8D410FB 		.quad	-7185545363635252040
 386      8FD0479C 
 387 0008 195485A6 		.quad	-209500633525038055
 387      48B417FD 
 388 0010 A808110E 		.quad	6747795201694173352
 388      FCFBA45D 
 389 0018 65C4A326 		.quad	5204712524664259685
 389      77DA3A48 
 390              		.section	.rodata.secp256k1_n,"a"
 391              		.align 32
 394              	secp256k1_n:
 395 0000 414136D0 		.quad	-4624529908474429119
 395      8C5ED2BF 
 396 0008 3BA048AF 		.quad	-4994812053365940165
 396      E6DCAEBA 
 397 0010 FEFFFFFF 		.quad	-2
 397      FFFFFFFF 
 398 0018 FFFFFFFF 		.quad	-1
 398      FFFFFFFF 
 399              		.section	.text.ecp_mpi_load,"ax",@progbits
 401              	ecp_mpi_load:
 402              	.LFB0:
 403              		.file 1 "/home/xingli/share/LiteOS_Lab/network/dtls/mbedtls/mbedtls-2.16.2/library/ecp_curves.c"
   1:/home/xingli/share/LiteOS_Lab/network/dtls/mbedtls/mbedtls-2.16.2/library/ecp_curves.c **** /*
   2:/home/xingli/share/LiteOS_Lab/network/dtls/mbedtls/mbedtls-2.16.2/library/ecp_curves.c ****  *  Elliptic curves over GF(p): curve-specific data and functions
   3:/home/xingli/share/LiteOS_Lab/network/dtls/mbedtls/mbedtls-2.16.2/library/ecp_curves.c ****  *
   4:/home/xingli/share/LiteOS_Lab/network/dtls/mbedtls/mbedtls-2.16.2/library/ecp_curves.c ****  *  Copyright (C) 2006-2015, ARM Limited, All Rights Reserved
   5:/home/xingli/share/LiteOS_Lab/network/dtls/mbedtls/mbedtls-2.16.2/library/ecp_curves.c ****  *  SPDX-License-Identifier: Apache-2.0
   6:/home/xingli/share/LiteOS_Lab/network/dtls/mbedtls/mbedtls-2.16.2/library/ecp_curves.c ****  *
   7:/home/xingli/share/LiteOS_Lab/network/dtls/mbedtls/mbedtls-2.16.2/library/ecp_curves.c ****  *  Licensed under the Apache License, Version 2.0 (the "License"); you may
   8:/home/xingli/share/LiteOS_Lab/network/dtls/mbedtls/mbedtls-2.16.2/library/ecp_curves.c ****  *  not use this file except in compliance with the License.
   9:/home/xingli/share/LiteOS_Lab/network/dtls/mbedtls/mbedtls-2.16.2/library/ecp_curves.c ****  *  You may obtain a copy of the License at
  10:/home/xingli/share/LiteOS_Lab/network/dtls/mbedtls/mbedtls-2.16.2/library/ecp_curves.c ****  *
  11:/home/xingli/share/LiteOS_Lab/network/dtls/mbedtls/mbedtls-2.16.2/library/ecp_curves.c ****  *  http://www.apache.org/licenses/LICENSE-2.0
  12:/home/xingli/share/LiteOS_Lab/network/dtls/mbedtls/mbedtls-2.16.2/library/ecp_curves.c ****  *
  13:/home/xingli/share/LiteOS_Lab/network/dtls/mbedtls/mbedtls-2.16.2/library/ecp_curves.c ****  *  Unless required by applicable law or agreed to in writing, software
  14:/home/xingli/share/LiteOS_Lab/network/dtls/mbedtls/mbedtls-2.16.2/library/ecp_curves.c ****  *  distributed under the License is distributed on an "AS IS" BASIS, WITHOUT
  15:/home/xingli/share/LiteOS_Lab/network/dtls/mbedtls/mbedtls-2.16.2/library/ecp_curves.c ****  *  WARRANTIES OR CONDITIONS OF ANY KIND, either express or implied.
  16:/home/xingli/share/LiteOS_Lab/network/dtls/mbedtls/mbedtls-2.16.2/library/ecp_curves.c ****  *  See the License for the specific language governing permissions and
  17:/home/xingli/share/LiteOS_Lab/network/dtls/mbedtls/mbedtls-2.16.2/library/ecp_curves.c ****  *  limitations under the License.
GAS LISTING /tmp/ccBClcmz.s 			page 10


  18:/home/xingli/share/LiteOS_Lab/network/dtls/mbedtls/mbedtls-2.16.2/library/ecp_curves.c ****  *
  19:/home/xingli/share/LiteOS_Lab/network/dtls/mbedtls/mbedtls-2.16.2/library/ecp_curves.c ****  *  This file is part of mbed TLS (https://tls.mbed.org)
  20:/home/xingli/share/LiteOS_Lab/network/dtls/mbedtls/mbedtls-2.16.2/library/ecp_curves.c ****  */
  21:/home/xingli/share/LiteOS_Lab/network/dtls/mbedtls/mbedtls-2.16.2/library/ecp_curves.c **** 
  22:/home/xingli/share/LiteOS_Lab/network/dtls/mbedtls/mbedtls-2.16.2/library/ecp_curves.c **** #if !defined(MBEDTLS_CONFIG_FILE)
  23:/home/xingli/share/LiteOS_Lab/network/dtls/mbedtls/mbedtls-2.16.2/library/ecp_curves.c **** #include "mbedtls/config.h"
  24:/home/xingli/share/LiteOS_Lab/network/dtls/mbedtls/mbedtls-2.16.2/library/ecp_curves.c **** #else
  25:/home/xingli/share/LiteOS_Lab/network/dtls/mbedtls/mbedtls-2.16.2/library/ecp_curves.c **** #include MBEDTLS_CONFIG_FILE
  26:/home/xingli/share/LiteOS_Lab/network/dtls/mbedtls/mbedtls-2.16.2/library/ecp_curves.c **** #endif
  27:/home/xingli/share/LiteOS_Lab/network/dtls/mbedtls/mbedtls-2.16.2/library/ecp_curves.c **** 
  28:/home/xingli/share/LiteOS_Lab/network/dtls/mbedtls/mbedtls-2.16.2/library/ecp_curves.c **** #if defined(MBEDTLS_ECP_C)
  29:/home/xingli/share/LiteOS_Lab/network/dtls/mbedtls/mbedtls-2.16.2/library/ecp_curves.c **** 
  30:/home/xingli/share/LiteOS_Lab/network/dtls/mbedtls/mbedtls-2.16.2/library/ecp_curves.c **** #include "mbedtls/ecp.h"
  31:/home/xingli/share/LiteOS_Lab/network/dtls/mbedtls/mbedtls-2.16.2/library/ecp_curves.c **** #include "mbedtls/platform_util.h"
  32:/home/xingli/share/LiteOS_Lab/network/dtls/mbedtls/mbedtls-2.16.2/library/ecp_curves.c **** 
  33:/home/xingli/share/LiteOS_Lab/network/dtls/mbedtls/mbedtls-2.16.2/library/ecp_curves.c **** #include <string.h>
  34:/home/xingli/share/LiteOS_Lab/network/dtls/mbedtls/mbedtls-2.16.2/library/ecp_curves.c **** 
  35:/home/xingli/share/LiteOS_Lab/network/dtls/mbedtls/mbedtls-2.16.2/library/ecp_curves.c **** #if !defined(MBEDTLS_ECP_ALT)
  36:/home/xingli/share/LiteOS_Lab/network/dtls/mbedtls/mbedtls-2.16.2/library/ecp_curves.c **** 
  37:/home/xingli/share/LiteOS_Lab/network/dtls/mbedtls/mbedtls-2.16.2/library/ecp_curves.c **** /* Parameter validation macros based on platform_util.h */
  38:/home/xingli/share/LiteOS_Lab/network/dtls/mbedtls/mbedtls-2.16.2/library/ecp_curves.c **** #define ECP_VALIDATE_RET( cond )    \
  39:/home/xingli/share/LiteOS_Lab/network/dtls/mbedtls/mbedtls-2.16.2/library/ecp_curves.c ****     MBEDTLS_INTERNAL_VALIDATE_RET( cond, MBEDTLS_ERR_ECP_BAD_INPUT_DATA )
  40:/home/xingli/share/LiteOS_Lab/network/dtls/mbedtls/mbedtls-2.16.2/library/ecp_curves.c **** #define ECP_VALIDATE( cond )        \
  41:/home/xingli/share/LiteOS_Lab/network/dtls/mbedtls/mbedtls-2.16.2/library/ecp_curves.c ****     MBEDTLS_INTERNAL_VALIDATE( cond )
  42:/home/xingli/share/LiteOS_Lab/network/dtls/mbedtls/mbedtls-2.16.2/library/ecp_curves.c **** 
  43:/home/xingli/share/LiteOS_Lab/network/dtls/mbedtls/mbedtls-2.16.2/library/ecp_curves.c **** #if ( defined(__ARMCC_VERSION) || defined(_MSC_VER) ) && \
  44:/home/xingli/share/LiteOS_Lab/network/dtls/mbedtls/mbedtls-2.16.2/library/ecp_curves.c ****     !defined(inline) && !defined(__cplusplus)
  45:/home/xingli/share/LiteOS_Lab/network/dtls/mbedtls/mbedtls-2.16.2/library/ecp_curves.c **** #define inline __inline
  46:/home/xingli/share/LiteOS_Lab/network/dtls/mbedtls/mbedtls-2.16.2/library/ecp_curves.c **** #endif
  47:/home/xingli/share/LiteOS_Lab/network/dtls/mbedtls/mbedtls-2.16.2/library/ecp_curves.c **** 
  48:/home/xingli/share/LiteOS_Lab/network/dtls/mbedtls/mbedtls-2.16.2/library/ecp_curves.c **** /*
  49:/home/xingli/share/LiteOS_Lab/network/dtls/mbedtls/mbedtls-2.16.2/library/ecp_curves.c ****  * Conversion macros for embedded constants:
  50:/home/xingli/share/LiteOS_Lab/network/dtls/mbedtls/mbedtls-2.16.2/library/ecp_curves.c ****  * build lists of mbedtls_mpi_uint's from lists of unsigned char's grouped by 8, 4 or 2
  51:/home/xingli/share/LiteOS_Lab/network/dtls/mbedtls/mbedtls-2.16.2/library/ecp_curves.c ****  */
  52:/home/xingli/share/LiteOS_Lab/network/dtls/mbedtls/mbedtls-2.16.2/library/ecp_curves.c **** #if defined(MBEDTLS_HAVE_INT32)
  53:/home/xingli/share/LiteOS_Lab/network/dtls/mbedtls/mbedtls-2.16.2/library/ecp_curves.c **** 
  54:/home/xingli/share/LiteOS_Lab/network/dtls/mbedtls/mbedtls-2.16.2/library/ecp_curves.c **** #define BYTES_TO_T_UINT_4( a, b, c, d )                       \
  55:/home/xingli/share/LiteOS_Lab/network/dtls/mbedtls/mbedtls-2.16.2/library/ecp_curves.c ****     ( (mbedtls_mpi_uint) (a) <<  0 ) |                        \
  56:/home/xingli/share/LiteOS_Lab/network/dtls/mbedtls/mbedtls-2.16.2/library/ecp_curves.c ****     ( (mbedtls_mpi_uint) (b) <<  8 ) |                        \
  57:/home/xingli/share/LiteOS_Lab/network/dtls/mbedtls/mbedtls-2.16.2/library/ecp_curves.c ****     ( (mbedtls_mpi_uint) (c) << 16 ) |                        \
  58:/home/xingli/share/LiteOS_Lab/network/dtls/mbedtls/mbedtls-2.16.2/library/ecp_curves.c ****     ( (mbedtls_mpi_uint) (d) << 24 )
  59:/home/xingli/share/LiteOS_Lab/network/dtls/mbedtls/mbedtls-2.16.2/library/ecp_curves.c **** 
  60:/home/xingli/share/LiteOS_Lab/network/dtls/mbedtls/mbedtls-2.16.2/library/ecp_curves.c **** #define BYTES_TO_T_UINT_2( a, b )                   \
  61:/home/xingli/share/LiteOS_Lab/network/dtls/mbedtls/mbedtls-2.16.2/library/ecp_curves.c ****     BYTES_TO_T_UINT_4( a, b, 0, 0 )
  62:/home/xingli/share/LiteOS_Lab/network/dtls/mbedtls/mbedtls-2.16.2/library/ecp_curves.c **** 
  63:/home/xingli/share/LiteOS_Lab/network/dtls/mbedtls/mbedtls-2.16.2/library/ecp_curves.c **** #define BYTES_TO_T_UINT_8( a, b, c, d, e, f, g, h ) \
  64:/home/xingli/share/LiteOS_Lab/network/dtls/mbedtls/mbedtls-2.16.2/library/ecp_curves.c ****     BYTES_TO_T_UINT_4( a, b, c, d ),                \
  65:/home/xingli/share/LiteOS_Lab/network/dtls/mbedtls/mbedtls-2.16.2/library/ecp_curves.c ****     BYTES_TO_T_UINT_4( e, f, g, h )
  66:/home/xingli/share/LiteOS_Lab/network/dtls/mbedtls/mbedtls-2.16.2/library/ecp_curves.c **** 
  67:/home/xingli/share/LiteOS_Lab/network/dtls/mbedtls/mbedtls-2.16.2/library/ecp_curves.c **** #else /* 64-bits */
  68:/home/xingli/share/LiteOS_Lab/network/dtls/mbedtls/mbedtls-2.16.2/library/ecp_curves.c **** 
  69:/home/xingli/share/LiteOS_Lab/network/dtls/mbedtls/mbedtls-2.16.2/library/ecp_curves.c **** #define BYTES_TO_T_UINT_8( a, b, c, d, e, f, g, h ) \
  70:/home/xingli/share/LiteOS_Lab/network/dtls/mbedtls/mbedtls-2.16.2/library/ecp_curves.c ****     ( (mbedtls_mpi_uint) (a) <<  0 ) |                        \
  71:/home/xingli/share/LiteOS_Lab/network/dtls/mbedtls/mbedtls-2.16.2/library/ecp_curves.c ****     ( (mbedtls_mpi_uint) (b) <<  8 ) |                        \
  72:/home/xingli/share/LiteOS_Lab/network/dtls/mbedtls/mbedtls-2.16.2/library/ecp_curves.c ****     ( (mbedtls_mpi_uint) (c) << 16 ) |                        \
  73:/home/xingli/share/LiteOS_Lab/network/dtls/mbedtls/mbedtls-2.16.2/library/ecp_curves.c ****     ( (mbedtls_mpi_uint) (d) << 24 ) |                        \
  74:/home/xingli/share/LiteOS_Lab/network/dtls/mbedtls/mbedtls-2.16.2/library/ecp_curves.c ****     ( (mbedtls_mpi_uint) (e) << 32 ) |                        \
GAS LISTING /tmp/ccBClcmz.s 			page 11


  75:/home/xingli/share/LiteOS_Lab/network/dtls/mbedtls/mbedtls-2.16.2/library/ecp_curves.c ****     ( (mbedtls_mpi_uint) (f) << 40 ) |                        \
  76:/home/xingli/share/LiteOS_Lab/network/dtls/mbedtls/mbedtls-2.16.2/library/ecp_curves.c ****     ( (mbedtls_mpi_uint) (g) << 48 ) |                        \
  77:/home/xingli/share/LiteOS_Lab/network/dtls/mbedtls/mbedtls-2.16.2/library/ecp_curves.c ****     ( (mbedtls_mpi_uint) (h) << 56 )
  78:/home/xingli/share/LiteOS_Lab/network/dtls/mbedtls/mbedtls-2.16.2/library/ecp_curves.c **** 
  79:/home/xingli/share/LiteOS_Lab/network/dtls/mbedtls/mbedtls-2.16.2/library/ecp_curves.c **** #define BYTES_TO_T_UINT_4( a, b, c, d )             \
  80:/home/xingli/share/LiteOS_Lab/network/dtls/mbedtls/mbedtls-2.16.2/library/ecp_curves.c ****     BYTES_TO_T_UINT_8( a, b, c, d, 0, 0, 0, 0 )
  81:/home/xingli/share/LiteOS_Lab/network/dtls/mbedtls/mbedtls-2.16.2/library/ecp_curves.c **** 
  82:/home/xingli/share/LiteOS_Lab/network/dtls/mbedtls/mbedtls-2.16.2/library/ecp_curves.c **** #define BYTES_TO_T_UINT_2( a, b )                   \
  83:/home/xingli/share/LiteOS_Lab/network/dtls/mbedtls/mbedtls-2.16.2/library/ecp_curves.c ****     BYTES_TO_T_UINT_8( a, b, 0, 0, 0, 0, 0, 0 )
  84:/home/xingli/share/LiteOS_Lab/network/dtls/mbedtls/mbedtls-2.16.2/library/ecp_curves.c **** 
  85:/home/xingli/share/LiteOS_Lab/network/dtls/mbedtls/mbedtls-2.16.2/library/ecp_curves.c **** #endif /* bits in mbedtls_mpi_uint */
  86:/home/xingli/share/LiteOS_Lab/network/dtls/mbedtls/mbedtls-2.16.2/library/ecp_curves.c **** 
  87:/home/xingli/share/LiteOS_Lab/network/dtls/mbedtls/mbedtls-2.16.2/library/ecp_curves.c **** /*
  88:/home/xingli/share/LiteOS_Lab/network/dtls/mbedtls/mbedtls-2.16.2/library/ecp_curves.c ****  * Note: the constants are in little-endian order
  89:/home/xingli/share/LiteOS_Lab/network/dtls/mbedtls/mbedtls-2.16.2/library/ecp_curves.c ****  * to be directly usable in MPIs
  90:/home/xingli/share/LiteOS_Lab/network/dtls/mbedtls/mbedtls-2.16.2/library/ecp_curves.c ****  */
  91:/home/xingli/share/LiteOS_Lab/network/dtls/mbedtls/mbedtls-2.16.2/library/ecp_curves.c **** 
  92:/home/xingli/share/LiteOS_Lab/network/dtls/mbedtls/mbedtls-2.16.2/library/ecp_curves.c **** /*
  93:/home/xingli/share/LiteOS_Lab/network/dtls/mbedtls/mbedtls-2.16.2/library/ecp_curves.c ****  * Domain parameters for secp192r1
  94:/home/xingli/share/LiteOS_Lab/network/dtls/mbedtls/mbedtls-2.16.2/library/ecp_curves.c ****  */
  95:/home/xingli/share/LiteOS_Lab/network/dtls/mbedtls/mbedtls-2.16.2/library/ecp_curves.c **** #if defined(MBEDTLS_ECP_DP_SECP192R1_ENABLED)
  96:/home/xingli/share/LiteOS_Lab/network/dtls/mbedtls/mbedtls-2.16.2/library/ecp_curves.c **** static const mbedtls_mpi_uint secp192r1_p[] = {
  97:/home/xingli/share/LiteOS_Lab/network/dtls/mbedtls/mbedtls-2.16.2/library/ecp_curves.c ****     BYTES_TO_T_UINT_8( 0xFF, 0xFF, 0xFF, 0xFF, 0xFF, 0xFF, 0xFF, 0xFF ),
  98:/home/xingli/share/LiteOS_Lab/network/dtls/mbedtls/mbedtls-2.16.2/library/ecp_curves.c ****     BYTES_TO_T_UINT_8( 0xFE, 0xFF, 0xFF, 0xFF, 0xFF, 0xFF, 0xFF, 0xFF ),
  99:/home/xingli/share/LiteOS_Lab/network/dtls/mbedtls/mbedtls-2.16.2/library/ecp_curves.c ****     BYTES_TO_T_UINT_8( 0xFF, 0xFF, 0xFF, 0xFF, 0xFF, 0xFF, 0xFF, 0xFF ),
 100:/home/xingli/share/LiteOS_Lab/network/dtls/mbedtls/mbedtls-2.16.2/library/ecp_curves.c **** };
 101:/home/xingli/share/LiteOS_Lab/network/dtls/mbedtls/mbedtls-2.16.2/library/ecp_curves.c **** static const mbedtls_mpi_uint secp192r1_b[] = {
 102:/home/xingli/share/LiteOS_Lab/network/dtls/mbedtls/mbedtls-2.16.2/library/ecp_curves.c ****     BYTES_TO_T_UINT_8( 0xB1, 0xB9, 0x46, 0xC1, 0xEC, 0xDE, 0xB8, 0xFE ),
 103:/home/xingli/share/LiteOS_Lab/network/dtls/mbedtls/mbedtls-2.16.2/library/ecp_curves.c ****     BYTES_TO_T_UINT_8( 0x49, 0x30, 0x24, 0x72, 0xAB, 0xE9, 0xA7, 0x0F ),
 104:/home/xingli/share/LiteOS_Lab/network/dtls/mbedtls/mbedtls-2.16.2/library/ecp_curves.c ****     BYTES_TO_T_UINT_8( 0xE7, 0x80, 0x9C, 0xE5, 0x19, 0x05, 0x21, 0x64 ),
 105:/home/xingli/share/LiteOS_Lab/network/dtls/mbedtls/mbedtls-2.16.2/library/ecp_curves.c **** };
 106:/home/xingli/share/LiteOS_Lab/network/dtls/mbedtls/mbedtls-2.16.2/library/ecp_curves.c **** static const mbedtls_mpi_uint secp192r1_gx[] = {
 107:/home/xingli/share/LiteOS_Lab/network/dtls/mbedtls/mbedtls-2.16.2/library/ecp_curves.c ****     BYTES_TO_T_UINT_8( 0x12, 0x10, 0xFF, 0x82, 0xFD, 0x0A, 0xFF, 0xF4 ),
 108:/home/xingli/share/LiteOS_Lab/network/dtls/mbedtls/mbedtls-2.16.2/library/ecp_curves.c ****     BYTES_TO_T_UINT_8( 0x00, 0x88, 0xA1, 0x43, 0xEB, 0x20, 0xBF, 0x7C ),
 109:/home/xingli/share/LiteOS_Lab/network/dtls/mbedtls/mbedtls-2.16.2/library/ecp_curves.c ****     BYTES_TO_T_UINT_8( 0xF6, 0x90, 0x30, 0xB0, 0x0E, 0xA8, 0x8D, 0x18 ),
 110:/home/xingli/share/LiteOS_Lab/network/dtls/mbedtls/mbedtls-2.16.2/library/ecp_curves.c **** };
 111:/home/xingli/share/LiteOS_Lab/network/dtls/mbedtls/mbedtls-2.16.2/library/ecp_curves.c **** static const mbedtls_mpi_uint secp192r1_gy[] = {
 112:/home/xingli/share/LiteOS_Lab/network/dtls/mbedtls/mbedtls-2.16.2/library/ecp_curves.c ****     BYTES_TO_T_UINT_8( 0x11, 0x48, 0x79, 0x1E, 0xA1, 0x77, 0xF9, 0x73 ),
 113:/home/xingli/share/LiteOS_Lab/network/dtls/mbedtls/mbedtls-2.16.2/library/ecp_curves.c ****     BYTES_TO_T_UINT_8( 0xD5, 0xCD, 0x24, 0x6B, 0xED, 0x11, 0x10, 0x63 ),
 114:/home/xingli/share/LiteOS_Lab/network/dtls/mbedtls/mbedtls-2.16.2/library/ecp_curves.c ****     BYTES_TO_T_UINT_8( 0x78, 0xDA, 0xC8, 0xFF, 0x95, 0x2B, 0x19, 0x07 ),
 115:/home/xingli/share/LiteOS_Lab/network/dtls/mbedtls/mbedtls-2.16.2/library/ecp_curves.c **** };
 116:/home/xingli/share/LiteOS_Lab/network/dtls/mbedtls/mbedtls-2.16.2/library/ecp_curves.c **** static const mbedtls_mpi_uint secp192r1_n[] = {
 117:/home/xingli/share/LiteOS_Lab/network/dtls/mbedtls/mbedtls-2.16.2/library/ecp_curves.c ****     BYTES_TO_T_UINT_8( 0x31, 0x28, 0xD2, 0xB4, 0xB1, 0xC9, 0x6B, 0x14 ),
 118:/home/xingli/share/LiteOS_Lab/network/dtls/mbedtls/mbedtls-2.16.2/library/ecp_curves.c ****     BYTES_TO_T_UINT_8( 0x36, 0xF8, 0xDE, 0x99, 0xFF, 0xFF, 0xFF, 0xFF ),
 119:/home/xingli/share/LiteOS_Lab/network/dtls/mbedtls/mbedtls-2.16.2/library/ecp_curves.c ****     BYTES_TO_T_UINT_8( 0xFF, 0xFF, 0xFF, 0xFF, 0xFF, 0xFF, 0xFF, 0xFF ),
 120:/home/xingli/share/LiteOS_Lab/network/dtls/mbedtls/mbedtls-2.16.2/library/ecp_curves.c **** };
 121:/home/xingli/share/LiteOS_Lab/network/dtls/mbedtls/mbedtls-2.16.2/library/ecp_curves.c **** #endif /* MBEDTLS_ECP_DP_SECP192R1_ENABLED */
 122:/home/xingli/share/LiteOS_Lab/network/dtls/mbedtls/mbedtls-2.16.2/library/ecp_curves.c **** 
 123:/home/xingli/share/LiteOS_Lab/network/dtls/mbedtls/mbedtls-2.16.2/library/ecp_curves.c **** /*
 124:/home/xingli/share/LiteOS_Lab/network/dtls/mbedtls/mbedtls-2.16.2/library/ecp_curves.c ****  * Domain parameters for secp224r1
 125:/home/xingli/share/LiteOS_Lab/network/dtls/mbedtls/mbedtls-2.16.2/library/ecp_curves.c ****  */
 126:/home/xingli/share/LiteOS_Lab/network/dtls/mbedtls/mbedtls-2.16.2/library/ecp_curves.c **** #if defined(MBEDTLS_ECP_DP_SECP224R1_ENABLED)
 127:/home/xingli/share/LiteOS_Lab/network/dtls/mbedtls/mbedtls-2.16.2/library/ecp_curves.c **** static const mbedtls_mpi_uint secp224r1_p[] = {
 128:/home/xingli/share/LiteOS_Lab/network/dtls/mbedtls/mbedtls-2.16.2/library/ecp_curves.c ****     BYTES_TO_T_UINT_8( 0x01, 0x00, 0x00, 0x00, 0x00, 0x00, 0x00, 0x00 ),
 129:/home/xingli/share/LiteOS_Lab/network/dtls/mbedtls/mbedtls-2.16.2/library/ecp_curves.c ****     BYTES_TO_T_UINT_8( 0x00, 0x00, 0x00, 0x00, 0xFF, 0xFF, 0xFF, 0xFF ),
 130:/home/xingli/share/LiteOS_Lab/network/dtls/mbedtls/mbedtls-2.16.2/library/ecp_curves.c ****     BYTES_TO_T_UINT_8( 0xFF, 0xFF, 0xFF, 0xFF, 0xFF, 0xFF, 0xFF, 0xFF ),
 131:/home/xingli/share/LiteOS_Lab/network/dtls/mbedtls/mbedtls-2.16.2/library/ecp_curves.c ****     BYTES_TO_T_UINT_8( 0xFF, 0xFF, 0xFF, 0xFF, 0x00, 0x00, 0x00, 0x00 ),
GAS LISTING /tmp/ccBClcmz.s 			page 12


 132:/home/xingli/share/LiteOS_Lab/network/dtls/mbedtls/mbedtls-2.16.2/library/ecp_curves.c **** };
 133:/home/xingli/share/LiteOS_Lab/network/dtls/mbedtls/mbedtls-2.16.2/library/ecp_curves.c **** static const mbedtls_mpi_uint secp224r1_b[] = {
 134:/home/xingli/share/LiteOS_Lab/network/dtls/mbedtls/mbedtls-2.16.2/library/ecp_curves.c ****     BYTES_TO_T_UINT_8( 0xB4, 0xFF, 0x55, 0x23, 0x43, 0x39, 0x0B, 0x27 ),
 135:/home/xingli/share/LiteOS_Lab/network/dtls/mbedtls/mbedtls-2.16.2/library/ecp_curves.c ****     BYTES_TO_T_UINT_8( 0xBA, 0xD8, 0xBF, 0xD7, 0xB7, 0xB0, 0x44, 0x50 ),
 136:/home/xingli/share/LiteOS_Lab/network/dtls/mbedtls/mbedtls-2.16.2/library/ecp_curves.c ****     BYTES_TO_T_UINT_8( 0x56, 0x32, 0x41, 0xF5, 0xAB, 0xB3, 0x04, 0x0C ),
 137:/home/xingli/share/LiteOS_Lab/network/dtls/mbedtls/mbedtls-2.16.2/library/ecp_curves.c ****     BYTES_TO_T_UINT_4( 0x85, 0x0A, 0x05, 0xB4 ),
 138:/home/xingli/share/LiteOS_Lab/network/dtls/mbedtls/mbedtls-2.16.2/library/ecp_curves.c **** };
 139:/home/xingli/share/LiteOS_Lab/network/dtls/mbedtls/mbedtls-2.16.2/library/ecp_curves.c **** static const mbedtls_mpi_uint secp224r1_gx[] = {
 140:/home/xingli/share/LiteOS_Lab/network/dtls/mbedtls/mbedtls-2.16.2/library/ecp_curves.c ****     BYTES_TO_T_UINT_8( 0x21, 0x1D, 0x5C, 0x11, 0xD6, 0x80, 0x32, 0x34 ),
 141:/home/xingli/share/LiteOS_Lab/network/dtls/mbedtls/mbedtls-2.16.2/library/ecp_curves.c ****     BYTES_TO_T_UINT_8( 0x22, 0x11, 0xC2, 0x56, 0xD3, 0xC1, 0x03, 0x4A ),
 142:/home/xingli/share/LiteOS_Lab/network/dtls/mbedtls/mbedtls-2.16.2/library/ecp_curves.c ****     BYTES_TO_T_UINT_8( 0xB9, 0x90, 0x13, 0x32, 0x7F, 0xBF, 0xB4, 0x6B ),
 143:/home/xingli/share/LiteOS_Lab/network/dtls/mbedtls/mbedtls-2.16.2/library/ecp_curves.c ****     BYTES_TO_T_UINT_4( 0xBD, 0x0C, 0x0E, 0xB7 ),
 144:/home/xingli/share/LiteOS_Lab/network/dtls/mbedtls/mbedtls-2.16.2/library/ecp_curves.c **** };
 145:/home/xingli/share/LiteOS_Lab/network/dtls/mbedtls/mbedtls-2.16.2/library/ecp_curves.c **** static const mbedtls_mpi_uint secp224r1_gy[] = {
 146:/home/xingli/share/LiteOS_Lab/network/dtls/mbedtls/mbedtls-2.16.2/library/ecp_curves.c ****     BYTES_TO_T_UINT_8( 0x34, 0x7E, 0x00, 0x85, 0x99, 0x81, 0xD5, 0x44 ),
 147:/home/xingli/share/LiteOS_Lab/network/dtls/mbedtls/mbedtls-2.16.2/library/ecp_curves.c ****     BYTES_TO_T_UINT_8( 0x64, 0x47, 0x07, 0x5A, 0xA0, 0x75, 0x43, 0xCD ),
 148:/home/xingli/share/LiteOS_Lab/network/dtls/mbedtls/mbedtls-2.16.2/library/ecp_curves.c ****     BYTES_TO_T_UINT_8( 0xE6, 0xDF, 0x22, 0x4C, 0xFB, 0x23, 0xF7, 0xB5 ),
 149:/home/xingli/share/LiteOS_Lab/network/dtls/mbedtls/mbedtls-2.16.2/library/ecp_curves.c ****     BYTES_TO_T_UINT_4( 0x88, 0x63, 0x37, 0xBD ),
 150:/home/xingli/share/LiteOS_Lab/network/dtls/mbedtls/mbedtls-2.16.2/library/ecp_curves.c **** };
 151:/home/xingli/share/LiteOS_Lab/network/dtls/mbedtls/mbedtls-2.16.2/library/ecp_curves.c **** static const mbedtls_mpi_uint secp224r1_n[] = {
 152:/home/xingli/share/LiteOS_Lab/network/dtls/mbedtls/mbedtls-2.16.2/library/ecp_curves.c ****     BYTES_TO_T_UINT_8( 0x3D, 0x2A, 0x5C, 0x5C, 0x45, 0x29, 0xDD, 0x13 ),
 153:/home/xingli/share/LiteOS_Lab/network/dtls/mbedtls/mbedtls-2.16.2/library/ecp_curves.c ****     BYTES_TO_T_UINT_8( 0x3E, 0xF0, 0xB8, 0xE0, 0xA2, 0x16, 0xFF, 0xFF ),
 154:/home/xingli/share/LiteOS_Lab/network/dtls/mbedtls/mbedtls-2.16.2/library/ecp_curves.c ****     BYTES_TO_T_UINT_8( 0xFF, 0xFF, 0xFF, 0xFF, 0xFF, 0xFF, 0xFF, 0xFF ),
 155:/home/xingli/share/LiteOS_Lab/network/dtls/mbedtls/mbedtls-2.16.2/library/ecp_curves.c ****     BYTES_TO_T_UINT_4( 0xFF, 0xFF, 0xFF, 0xFF ),
 156:/home/xingli/share/LiteOS_Lab/network/dtls/mbedtls/mbedtls-2.16.2/library/ecp_curves.c **** };
 157:/home/xingli/share/LiteOS_Lab/network/dtls/mbedtls/mbedtls-2.16.2/library/ecp_curves.c **** #endif /* MBEDTLS_ECP_DP_SECP224R1_ENABLED */
 158:/home/xingli/share/LiteOS_Lab/network/dtls/mbedtls/mbedtls-2.16.2/library/ecp_curves.c **** 
 159:/home/xingli/share/LiteOS_Lab/network/dtls/mbedtls/mbedtls-2.16.2/library/ecp_curves.c **** /*
 160:/home/xingli/share/LiteOS_Lab/network/dtls/mbedtls/mbedtls-2.16.2/library/ecp_curves.c ****  * Domain parameters for secp256r1
 161:/home/xingli/share/LiteOS_Lab/network/dtls/mbedtls/mbedtls-2.16.2/library/ecp_curves.c ****  */
 162:/home/xingli/share/LiteOS_Lab/network/dtls/mbedtls/mbedtls-2.16.2/library/ecp_curves.c **** #if defined(MBEDTLS_ECP_DP_SECP256R1_ENABLED)
 163:/home/xingli/share/LiteOS_Lab/network/dtls/mbedtls/mbedtls-2.16.2/library/ecp_curves.c **** static const mbedtls_mpi_uint secp256r1_p[] = {
 164:/home/xingli/share/LiteOS_Lab/network/dtls/mbedtls/mbedtls-2.16.2/library/ecp_curves.c ****     BYTES_TO_T_UINT_8( 0xFF, 0xFF, 0xFF, 0xFF, 0xFF, 0xFF, 0xFF, 0xFF ),
 165:/home/xingli/share/LiteOS_Lab/network/dtls/mbedtls/mbedtls-2.16.2/library/ecp_curves.c ****     BYTES_TO_T_UINT_8( 0xFF, 0xFF, 0xFF, 0xFF, 0x00, 0x00, 0x00, 0x00 ),
 166:/home/xingli/share/LiteOS_Lab/network/dtls/mbedtls/mbedtls-2.16.2/library/ecp_curves.c ****     BYTES_TO_T_UINT_8( 0x00, 0x00, 0x00, 0x00, 0x00, 0x00, 0x00, 0x00 ),
 167:/home/xingli/share/LiteOS_Lab/network/dtls/mbedtls/mbedtls-2.16.2/library/ecp_curves.c ****     BYTES_TO_T_UINT_8( 0x01, 0x00, 0x00, 0x00, 0xFF, 0xFF, 0xFF, 0xFF ),
 168:/home/xingli/share/LiteOS_Lab/network/dtls/mbedtls/mbedtls-2.16.2/library/ecp_curves.c **** };
 169:/home/xingli/share/LiteOS_Lab/network/dtls/mbedtls/mbedtls-2.16.2/library/ecp_curves.c **** static const mbedtls_mpi_uint secp256r1_b[] = {
 170:/home/xingli/share/LiteOS_Lab/network/dtls/mbedtls/mbedtls-2.16.2/library/ecp_curves.c ****     BYTES_TO_T_UINT_8( 0x4B, 0x60, 0xD2, 0x27, 0x3E, 0x3C, 0xCE, 0x3B ),
 171:/home/xingli/share/LiteOS_Lab/network/dtls/mbedtls/mbedtls-2.16.2/library/ecp_curves.c ****     BYTES_TO_T_UINT_8( 0xF6, 0xB0, 0x53, 0xCC, 0xB0, 0x06, 0x1D, 0x65 ),
 172:/home/xingli/share/LiteOS_Lab/network/dtls/mbedtls/mbedtls-2.16.2/library/ecp_curves.c ****     BYTES_TO_T_UINT_8( 0xBC, 0x86, 0x98, 0x76, 0x55, 0xBD, 0xEB, 0xB3 ),
 173:/home/xingli/share/LiteOS_Lab/network/dtls/mbedtls/mbedtls-2.16.2/library/ecp_curves.c ****     BYTES_TO_T_UINT_8( 0xE7, 0x93, 0x3A, 0xAA, 0xD8, 0x35, 0xC6, 0x5A ),
 174:/home/xingli/share/LiteOS_Lab/network/dtls/mbedtls/mbedtls-2.16.2/library/ecp_curves.c **** };
 175:/home/xingli/share/LiteOS_Lab/network/dtls/mbedtls/mbedtls-2.16.2/library/ecp_curves.c **** static const mbedtls_mpi_uint secp256r1_gx[] = {
 176:/home/xingli/share/LiteOS_Lab/network/dtls/mbedtls/mbedtls-2.16.2/library/ecp_curves.c ****     BYTES_TO_T_UINT_8( 0x96, 0xC2, 0x98, 0xD8, 0x45, 0x39, 0xA1, 0xF4 ),
 177:/home/xingli/share/LiteOS_Lab/network/dtls/mbedtls/mbedtls-2.16.2/library/ecp_curves.c ****     BYTES_TO_T_UINT_8( 0xA0, 0x33, 0xEB, 0x2D, 0x81, 0x7D, 0x03, 0x77 ),
 178:/home/xingli/share/LiteOS_Lab/network/dtls/mbedtls/mbedtls-2.16.2/library/ecp_curves.c ****     BYTES_TO_T_UINT_8( 0xF2, 0x40, 0xA4, 0x63, 0xE5, 0xE6, 0xBC, 0xF8 ),
 179:/home/xingli/share/LiteOS_Lab/network/dtls/mbedtls/mbedtls-2.16.2/library/ecp_curves.c ****     BYTES_TO_T_UINT_8( 0x47, 0x42, 0x2C, 0xE1, 0xF2, 0xD1, 0x17, 0x6B ),
 180:/home/xingli/share/LiteOS_Lab/network/dtls/mbedtls/mbedtls-2.16.2/library/ecp_curves.c **** };
 181:/home/xingli/share/LiteOS_Lab/network/dtls/mbedtls/mbedtls-2.16.2/library/ecp_curves.c **** static const mbedtls_mpi_uint secp256r1_gy[] = {
 182:/home/xingli/share/LiteOS_Lab/network/dtls/mbedtls/mbedtls-2.16.2/library/ecp_curves.c ****     BYTES_TO_T_UINT_8( 0xF5, 0x51, 0xBF, 0x37, 0x68, 0x40, 0xB6, 0xCB ),
 183:/home/xingli/share/LiteOS_Lab/network/dtls/mbedtls/mbedtls-2.16.2/library/ecp_curves.c ****     BYTES_TO_T_UINT_8( 0xCE, 0x5E, 0x31, 0x6B, 0x57, 0x33, 0xCE, 0x2B ),
 184:/home/xingli/share/LiteOS_Lab/network/dtls/mbedtls/mbedtls-2.16.2/library/ecp_curves.c ****     BYTES_TO_T_UINT_8( 0x16, 0x9E, 0x0F, 0x7C, 0x4A, 0xEB, 0xE7, 0x8E ),
 185:/home/xingli/share/LiteOS_Lab/network/dtls/mbedtls/mbedtls-2.16.2/library/ecp_curves.c ****     BYTES_TO_T_UINT_8( 0x9B, 0x7F, 0x1A, 0xFE, 0xE2, 0x42, 0xE3, 0x4F ),
 186:/home/xingli/share/LiteOS_Lab/network/dtls/mbedtls/mbedtls-2.16.2/library/ecp_curves.c **** };
 187:/home/xingli/share/LiteOS_Lab/network/dtls/mbedtls/mbedtls-2.16.2/library/ecp_curves.c **** static const mbedtls_mpi_uint secp256r1_n[] = {
 188:/home/xingli/share/LiteOS_Lab/network/dtls/mbedtls/mbedtls-2.16.2/library/ecp_curves.c ****     BYTES_TO_T_UINT_8( 0x51, 0x25, 0x63, 0xFC, 0xC2, 0xCA, 0xB9, 0xF3 ),
GAS LISTING /tmp/ccBClcmz.s 			page 13


 189:/home/xingli/share/LiteOS_Lab/network/dtls/mbedtls/mbedtls-2.16.2/library/ecp_curves.c ****     BYTES_TO_T_UINT_8( 0x84, 0x9E, 0x17, 0xA7, 0xAD, 0xFA, 0xE6, 0xBC ),
 190:/home/xingli/share/LiteOS_Lab/network/dtls/mbedtls/mbedtls-2.16.2/library/ecp_curves.c ****     BYTES_TO_T_UINT_8( 0xFF, 0xFF, 0xFF, 0xFF, 0xFF, 0xFF, 0xFF, 0xFF ),
 191:/home/xingli/share/LiteOS_Lab/network/dtls/mbedtls/mbedtls-2.16.2/library/ecp_curves.c ****     BYTES_TO_T_UINT_8( 0x00, 0x00, 0x00, 0x00, 0xFF, 0xFF, 0xFF, 0xFF ),
 192:/home/xingli/share/LiteOS_Lab/network/dtls/mbedtls/mbedtls-2.16.2/library/ecp_curves.c **** };
 193:/home/xingli/share/LiteOS_Lab/network/dtls/mbedtls/mbedtls-2.16.2/library/ecp_curves.c **** #endif /* MBEDTLS_ECP_DP_SECP256R1_ENABLED */
 194:/home/xingli/share/LiteOS_Lab/network/dtls/mbedtls/mbedtls-2.16.2/library/ecp_curves.c **** 
 195:/home/xingli/share/LiteOS_Lab/network/dtls/mbedtls/mbedtls-2.16.2/library/ecp_curves.c **** /*
 196:/home/xingli/share/LiteOS_Lab/network/dtls/mbedtls/mbedtls-2.16.2/library/ecp_curves.c ****  * Domain parameters for secp384r1
 197:/home/xingli/share/LiteOS_Lab/network/dtls/mbedtls/mbedtls-2.16.2/library/ecp_curves.c ****  */
 198:/home/xingli/share/LiteOS_Lab/network/dtls/mbedtls/mbedtls-2.16.2/library/ecp_curves.c **** #if defined(MBEDTLS_ECP_DP_SECP384R1_ENABLED)
 199:/home/xingli/share/LiteOS_Lab/network/dtls/mbedtls/mbedtls-2.16.2/library/ecp_curves.c **** static const mbedtls_mpi_uint secp384r1_p[] = {
 200:/home/xingli/share/LiteOS_Lab/network/dtls/mbedtls/mbedtls-2.16.2/library/ecp_curves.c ****     BYTES_TO_T_UINT_8( 0xFF, 0xFF, 0xFF, 0xFF, 0x00, 0x00, 0x00, 0x00 ),
 201:/home/xingli/share/LiteOS_Lab/network/dtls/mbedtls/mbedtls-2.16.2/library/ecp_curves.c ****     BYTES_TO_T_UINT_8( 0x00, 0x00, 0x00, 0x00, 0xFF, 0xFF, 0xFF, 0xFF ),
 202:/home/xingli/share/LiteOS_Lab/network/dtls/mbedtls/mbedtls-2.16.2/library/ecp_curves.c ****     BYTES_TO_T_UINT_8( 0xFE, 0xFF, 0xFF, 0xFF, 0xFF, 0xFF, 0xFF, 0xFF ),
 203:/home/xingli/share/LiteOS_Lab/network/dtls/mbedtls/mbedtls-2.16.2/library/ecp_curves.c ****     BYTES_TO_T_UINT_8( 0xFF, 0xFF, 0xFF, 0xFF, 0xFF, 0xFF, 0xFF, 0xFF ),
 204:/home/xingli/share/LiteOS_Lab/network/dtls/mbedtls/mbedtls-2.16.2/library/ecp_curves.c ****     BYTES_TO_T_UINT_8( 0xFF, 0xFF, 0xFF, 0xFF, 0xFF, 0xFF, 0xFF, 0xFF ),
 205:/home/xingli/share/LiteOS_Lab/network/dtls/mbedtls/mbedtls-2.16.2/library/ecp_curves.c ****     BYTES_TO_T_UINT_8( 0xFF, 0xFF, 0xFF, 0xFF, 0xFF, 0xFF, 0xFF, 0xFF ),
 206:/home/xingli/share/LiteOS_Lab/network/dtls/mbedtls/mbedtls-2.16.2/library/ecp_curves.c **** };
 207:/home/xingli/share/LiteOS_Lab/network/dtls/mbedtls/mbedtls-2.16.2/library/ecp_curves.c **** static const mbedtls_mpi_uint secp384r1_b[] = {
 208:/home/xingli/share/LiteOS_Lab/network/dtls/mbedtls/mbedtls-2.16.2/library/ecp_curves.c ****     BYTES_TO_T_UINT_8( 0xEF, 0x2A, 0xEC, 0xD3, 0xED, 0xC8, 0x85, 0x2A ),
 209:/home/xingli/share/LiteOS_Lab/network/dtls/mbedtls/mbedtls-2.16.2/library/ecp_curves.c ****     BYTES_TO_T_UINT_8( 0x9D, 0xD1, 0x2E, 0x8A, 0x8D, 0x39, 0x56, 0xC6 ),
 210:/home/xingli/share/LiteOS_Lab/network/dtls/mbedtls/mbedtls-2.16.2/library/ecp_curves.c ****     BYTES_TO_T_UINT_8( 0x5A, 0x87, 0x13, 0x50, 0x8F, 0x08, 0x14, 0x03 ),
 211:/home/xingli/share/LiteOS_Lab/network/dtls/mbedtls/mbedtls-2.16.2/library/ecp_curves.c ****     BYTES_TO_T_UINT_8( 0x12, 0x41, 0x81, 0xFE, 0x6E, 0x9C, 0x1D, 0x18 ),
 212:/home/xingli/share/LiteOS_Lab/network/dtls/mbedtls/mbedtls-2.16.2/library/ecp_curves.c ****     BYTES_TO_T_UINT_8( 0x19, 0x2D, 0xF8, 0xE3, 0x6B, 0x05, 0x8E, 0x98 ),
 213:/home/xingli/share/LiteOS_Lab/network/dtls/mbedtls/mbedtls-2.16.2/library/ecp_curves.c ****     BYTES_TO_T_UINT_8( 0xE4, 0xE7, 0x3E, 0xE2, 0xA7, 0x2F, 0x31, 0xB3 ),
 214:/home/xingli/share/LiteOS_Lab/network/dtls/mbedtls/mbedtls-2.16.2/library/ecp_curves.c **** };
 215:/home/xingli/share/LiteOS_Lab/network/dtls/mbedtls/mbedtls-2.16.2/library/ecp_curves.c **** static const mbedtls_mpi_uint secp384r1_gx[] = {
 216:/home/xingli/share/LiteOS_Lab/network/dtls/mbedtls/mbedtls-2.16.2/library/ecp_curves.c ****     BYTES_TO_T_UINT_8( 0xB7, 0x0A, 0x76, 0x72, 0x38, 0x5E, 0x54, 0x3A ),
 217:/home/xingli/share/LiteOS_Lab/network/dtls/mbedtls/mbedtls-2.16.2/library/ecp_curves.c ****     BYTES_TO_T_UINT_8( 0x6C, 0x29, 0x55, 0xBF, 0x5D, 0xF2, 0x02, 0x55 ),
 218:/home/xingli/share/LiteOS_Lab/network/dtls/mbedtls/mbedtls-2.16.2/library/ecp_curves.c ****     BYTES_TO_T_UINT_8( 0x38, 0x2A, 0x54, 0x82, 0xE0, 0x41, 0xF7, 0x59 ),
 219:/home/xingli/share/LiteOS_Lab/network/dtls/mbedtls/mbedtls-2.16.2/library/ecp_curves.c ****     BYTES_TO_T_UINT_8( 0x98, 0x9B, 0xA7, 0x8B, 0x62, 0x3B, 0x1D, 0x6E ),
 220:/home/xingli/share/LiteOS_Lab/network/dtls/mbedtls/mbedtls-2.16.2/library/ecp_curves.c ****     BYTES_TO_T_UINT_8( 0x74, 0xAD, 0x20, 0xF3, 0x1E, 0xC7, 0xB1, 0x8E ),
 221:/home/xingli/share/LiteOS_Lab/network/dtls/mbedtls/mbedtls-2.16.2/library/ecp_curves.c ****     BYTES_TO_T_UINT_8( 0x37, 0x05, 0x8B, 0xBE, 0x22, 0xCA, 0x87, 0xAA ),
 222:/home/xingli/share/LiteOS_Lab/network/dtls/mbedtls/mbedtls-2.16.2/library/ecp_curves.c **** };
 223:/home/xingli/share/LiteOS_Lab/network/dtls/mbedtls/mbedtls-2.16.2/library/ecp_curves.c **** static const mbedtls_mpi_uint secp384r1_gy[] = {
 224:/home/xingli/share/LiteOS_Lab/network/dtls/mbedtls/mbedtls-2.16.2/library/ecp_curves.c ****     BYTES_TO_T_UINT_8( 0x5F, 0x0E, 0xEA, 0x90, 0x7C, 0x1D, 0x43, 0x7A ),
 225:/home/xingli/share/LiteOS_Lab/network/dtls/mbedtls/mbedtls-2.16.2/library/ecp_curves.c ****     BYTES_TO_T_UINT_8( 0x9D, 0x81, 0x7E, 0x1D, 0xCE, 0xB1, 0x60, 0x0A ),
 226:/home/xingli/share/LiteOS_Lab/network/dtls/mbedtls/mbedtls-2.16.2/library/ecp_curves.c ****     BYTES_TO_T_UINT_8( 0xC0, 0xB8, 0xF0, 0xB5, 0x13, 0x31, 0xDA, 0xE9 ),
 227:/home/xingli/share/LiteOS_Lab/network/dtls/mbedtls/mbedtls-2.16.2/library/ecp_curves.c ****     BYTES_TO_T_UINT_8( 0x7C, 0x14, 0x9A, 0x28, 0xBD, 0x1D, 0xF4, 0xF8 ),
 228:/home/xingli/share/LiteOS_Lab/network/dtls/mbedtls/mbedtls-2.16.2/library/ecp_curves.c ****     BYTES_TO_T_UINT_8( 0x29, 0xDC, 0x92, 0x92, 0xBF, 0x98, 0x9E, 0x5D ),
 229:/home/xingli/share/LiteOS_Lab/network/dtls/mbedtls/mbedtls-2.16.2/library/ecp_curves.c ****     BYTES_TO_T_UINT_8( 0x6F, 0x2C, 0x26, 0x96, 0x4A, 0xDE, 0x17, 0x36 ),
 230:/home/xingli/share/LiteOS_Lab/network/dtls/mbedtls/mbedtls-2.16.2/library/ecp_curves.c **** };
 231:/home/xingli/share/LiteOS_Lab/network/dtls/mbedtls/mbedtls-2.16.2/library/ecp_curves.c **** static const mbedtls_mpi_uint secp384r1_n[] = {
 232:/home/xingli/share/LiteOS_Lab/network/dtls/mbedtls/mbedtls-2.16.2/library/ecp_curves.c ****     BYTES_TO_T_UINT_8( 0x73, 0x29, 0xC5, 0xCC, 0x6A, 0x19, 0xEC, 0xEC ),
 233:/home/xingli/share/LiteOS_Lab/network/dtls/mbedtls/mbedtls-2.16.2/library/ecp_curves.c ****     BYTES_TO_T_UINT_8( 0x7A, 0xA7, 0xB0, 0x48, 0xB2, 0x0D, 0x1A, 0x58 ),
 234:/home/xingli/share/LiteOS_Lab/network/dtls/mbedtls/mbedtls-2.16.2/library/ecp_curves.c ****     BYTES_TO_T_UINT_8( 0xDF, 0x2D, 0x37, 0xF4, 0x81, 0x4D, 0x63, 0xC7 ),
 235:/home/xingli/share/LiteOS_Lab/network/dtls/mbedtls/mbedtls-2.16.2/library/ecp_curves.c ****     BYTES_TO_T_UINT_8( 0xFF, 0xFF, 0xFF, 0xFF, 0xFF, 0xFF, 0xFF, 0xFF ),
 236:/home/xingli/share/LiteOS_Lab/network/dtls/mbedtls/mbedtls-2.16.2/library/ecp_curves.c ****     BYTES_TO_T_UINT_8( 0xFF, 0xFF, 0xFF, 0xFF, 0xFF, 0xFF, 0xFF, 0xFF ),
 237:/home/xingli/share/LiteOS_Lab/network/dtls/mbedtls/mbedtls-2.16.2/library/ecp_curves.c ****     BYTES_TO_T_UINT_8( 0xFF, 0xFF, 0xFF, 0xFF, 0xFF, 0xFF, 0xFF, 0xFF ),
 238:/home/xingli/share/LiteOS_Lab/network/dtls/mbedtls/mbedtls-2.16.2/library/ecp_curves.c **** };
 239:/home/xingli/share/LiteOS_Lab/network/dtls/mbedtls/mbedtls-2.16.2/library/ecp_curves.c **** #endif /* MBEDTLS_ECP_DP_SECP384R1_ENABLED */
 240:/home/xingli/share/LiteOS_Lab/network/dtls/mbedtls/mbedtls-2.16.2/library/ecp_curves.c **** 
 241:/home/xingli/share/LiteOS_Lab/network/dtls/mbedtls/mbedtls-2.16.2/library/ecp_curves.c **** /*
 242:/home/xingli/share/LiteOS_Lab/network/dtls/mbedtls/mbedtls-2.16.2/library/ecp_curves.c ****  * Domain parameters for secp521r1
 243:/home/xingli/share/LiteOS_Lab/network/dtls/mbedtls/mbedtls-2.16.2/library/ecp_curves.c ****  */
 244:/home/xingli/share/LiteOS_Lab/network/dtls/mbedtls/mbedtls-2.16.2/library/ecp_curves.c **** #if defined(MBEDTLS_ECP_DP_SECP521R1_ENABLED)
 245:/home/xingli/share/LiteOS_Lab/network/dtls/mbedtls/mbedtls-2.16.2/library/ecp_curves.c **** static const mbedtls_mpi_uint secp521r1_p[] = {
GAS LISTING /tmp/ccBClcmz.s 			page 14


 246:/home/xingli/share/LiteOS_Lab/network/dtls/mbedtls/mbedtls-2.16.2/library/ecp_curves.c ****     BYTES_TO_T_UINT_8( 0xFF, 0xFF, 0xFF, 0xFF, 0xFF, 0xFF, 0xFF, 0xFF ),
 247:/home/xingli/share/LiteOS_Lab/network/dtls/mbedtls/mbedtls-2.16.2/library/ecp_curves.c ****     BYTES_TO_T_UINT_8( 0xFF, 0xFF, 0xFF, 0xFF, 0xFF, 0xFF, 0xFF, 0xFF ),
 248:/home/xingli/share/LiteOS_Lab/network/dtls/mbedtls/mbedtls-2.16.2/library/ecp_curves.c ****     BYTES_TO_T_UINT_8( 0xFF, 0xFF, 0xFF, 0xFF, 0xFF, 0xFF, 0xFF, 0xFF ),
 249:/home/xingli/share/LiteOS_Lab/network/dtls/mbedtls/mbedtls-2.16.2/library/ecp_curves.c ****     BYTES_TO_T_UINT_8( 0xFF, 0xFF, 0xFF, 0xFF, 0xFF, 0xFF, 0xFF, 0xFF ),
 250:/home/xingli/share/LiteOS_Lab/network/dtls/mbedtls/mbedtls-2.16.2/library/ecp_curves.c ****     BYTES_TO_T_UINT_8( 0xFF, 0xFF, 0xFF, 0xFF, 0xFF, 0xFF, 0xFF, 0xFF ),
 251:/home/xingli/share/LiteOS_Lab/network/dtls/mbedtls/mbedtls-2.16.2/library/ecp_curves.c ****     BYTES_TO_T_UINT_8( 0xFF, 0xFF, 0xFF, 0xFF, 0xFF, 0xFF, 0xFF, 0xFF ),
 252:/home/xingli/share/LiteOS_Lab/network/dtls/mbedtls/mbedtls-2.16.2/library/ecp_curves.c ****     BYTES_TO_T_UINT_8( 0xFF, 0xFF, 0xFF, 0xFF, 0xFF, 0xFF, 0xFF, 0xFF ),
 253:/home/xingli/share/LiteOS_Lab/network/dtls/mbedtls/mbedtls-2.16.2/library/ecp_curves.c ****     BYTES_TO_T_UINT_8( 0xFF, 0xFF, 0xFF, 0xFF, 0xFF, 0xFF, 0xFF, 0xFF ),
 254:/home/xingli/share/LiteOS_Lab/network/dtls/mbedtls/mbedtls-2.16.2/library/ecp_curves.c ****     BYTES_TO_T_UINT_2( 0xFF, 0x01 ),
 255:/home/xingli/share/LiteOS_Lab/network/dtls/mbedtls/mbedtls-2.16.2/library/ecp_curves.c **** };
 256:/home/xingli/share/LiteOS_Lab/network/dtls/mbedtls/mbedtls-2.16.2/library/ecp_curves.c **** static const mbedtls_mpi_uint secp521r1_b[] = {
 257:/home/xingli/share/LiteOS_Lab/network/dtls/mbedtls/mbedtls-2.16.2/library/ecp_curves.c ****     BYTES_TO_T_UINT_8( 0x00, 0x3F, 0x50, 0x6B, 0xD4, 0x1F, 0x45, 0xEF ),
 258:/home/xingli/share/LiteOS_Lab/network/dtls/mbedtls/mbedtls-2.16.2/library/ecp_curves.c ****     BYTES_TO_T_UINT_8( 0xF1, 0x34, 0x2C, 0x3D, 0x88, 0xDF, 0x73, 0x35 ),
 259:/home/xingli/share/LiteOS_Lab/network/dtls/mbedtls/mbedtls-2.16.2/library/ecp_curves.c ****     BYTES_TO_T_UINT_8( 0x07, 0xBF, 0xB1, 0x3B, 0xBD, 0xC0, 0x52, 0x16 ),
 260:/home/xingli/share/LiteOS_Lab/network/dtls/mbedtls/mbedtls-2.16.2/library/ecp_curves.c ****     BYTES_TO_T_UINT_8( 0x7B, 0x93, 0x7E, 0xEC, 0x51, 0x39, 0x19, 0x56 ),
 261:/home/xingli/share/LiteOS_Lab/network/dtls/mbedtls/mbedtls-2.16.2/library/ecp_curves.c ****     BYTES_TO_T_UINT_8( 0xE1, 0x09, 0xF1, 0x8E, 0x91, 0x89, 0xB4, 0xB8 ),
 262:/home/xingli/share/LiteOS_Lab/network/dtls/mbedtls/mbedtls-2.16.2/library/ecp_curves.c ****     BYTES_TO_T_UINT_8( 0xF3, 0x15, 0xB3, 0x99, 0x5B, 0x72, 0xDA, 0xA2 ),
 263:/home/xingli/share/LiteOS_Lab/network/dtls/mbedtls/mbedtls-2.16.2/library/ecp_curves.c ****     BYTES_TO_T_UINT_8( 0xEE, 0x40, 0x85, 0xB6, 0xA0, 0x21, 0x9A, 0x92 ),
 264:/home/xingli/share/LiteOS_Lab/network/dtls/mbedtls/mbedtls-2.16.2/library/ecp_curves.c ****     BYTES_TO_T_UINT_8( 0x1F, 0x9A, 0x1C, 0x8E, 0x61, 0xB9, 0x3E, 0x95 ),
 265:/home/xingli/share/LiteOS_Lab/network/dtls/mbedtls/mbedtls-2.16.2/library/ecp_curves.c ****     BYTES_TO_T_UINT_2( 0x51, 0x00 ),
 266:/home/xingli/share/LiteOS_Lab/network/dtls/mbedtls/mbedtls-2.16.2/library/ecp_curves.c **** };
 267:/home/xingli/share/LiteOS_Lab/network/dtls/mbedtls/mbedtls-2.16.2/library/ecp_curves.c **** static const mbedtls_mpi_uint secp521r1_gx[] = {
 268:/home/xingli/share/LiteOS_Lab/network/dtls/mbedtls/mbedtls-2.16.2/library/ecp_curves.c ****     BYTES_TO_T_UINT_8( 0x66, 0xBD, 0xE5, 0xC2, 0x31, 0x7E, 0x7E, 0xF9 ),
 269:/home/xingli/share/LiteOS_Lab/network/dtls/mbedtls/mbedtls-2.16.2/library/ecp_curves.c ****     BYTES_TO_T_UINT_8( 0x9B, 0x42, 0x6A, 0x85, 0xC1, 0xB3, 0x48, 0x33 ),
 270:/home/xingli/share/LiteOS_Lab/network/dtls/mbedtls/mbedtls-2.16.2/library/ecp_curves.c ****     BYTES_TO_T_UINT_8( 0xDE, 0xA8, 0xFF, 0xA2, 0x27, 0xC1, 0x1D, 0xFE ),
 271:/home/xingli/share/LiteOS_Lab/network/dtls/mbedtls/mbedtls-2.16.2/library/ecp_curves.c ****     BYTES_TO_T_UINT_8( 0x28, 0x59, 0xE7, 0xEF, 0x77, 0x5E, 0x4B, 0xA1 ),
 272:/home/xingli/share/LiteOS_Lab/network/dtls/mbedtls/mbedtls-2.16.2/library/ecp_curves.c ****     BYTES_TO_T_UINT_8( 0xBA, 0x3D, 0x4D, 0x6B, 0x60, 0xAF, 0x28, 0xF8 ),
 273:/home/xingli/share/LiteOS_Lab/network/dtls/mbedtls/mbedtls-2.16.2/library/ecp_curves.c ****     BYTES_TO_T_UINT_8( 0x21, 0xB5, 0x3F, 0x05, 0x39, 0x81, 0x64, 0x9C ),
 274:/home/xingli/share/LiteOS_Lab/network/dtls/mbedtls/mbedtls-2.16.2/library/ecp_curves.c ****     BYTES_TO_T_UINT_8( 0x42, 0xB4, 0x95, 0x23, 0x66, 0xCB, 0x3E, 0x9E ),
 275:/home/xingli/share/LiteOS_Lab/network/dtls/mbedtls/mbedtls-2.16.2/library/ecp_curves.c ****     BYTES_TO_T_UINT_8( 0xCD, 0xE9, 0x04, 0x04, 0xB7, 0x06, 0x8E, 0x85 ),
 276:/home/xingli/share/LiteOS_Lab/network/dtls/mbedtls/mbedtls-2.16.2/library/ecp_curves.c ****     BYTES_TO_T_UINT_2( 0xC6, 0x00 ),
 277:/home/xingli/share/LiteOS_Lab/network/dtls/mbedtls/mbedtls-2.16.2/library/ecp_curves.c **** };
 278:/home/xingli/share/LiteOS_Lab/network/dtls/mbedtls/mbedtls-2.16.2/library/ecp_curves.c **** static const mbedtls_mpi_uint secp521r1_gy[] = {
 279:/home/xingli/share/LiteOS_Lab/network/dtls/mbedtls/mbedtls-2.16.2/library/ecp_curves.c ****     BYTES_TO_T_UINT_8( 0x50, 0x66, 0xD1, 0x9F, 0x76, 0x94, 0xBE, 0x88 ),
 280:/home/xingli/share/LiteOS_Lab/network/dtls/mbedtls/mbedtls-2.16.2/library/ecp_curves.c ****     BYTES_TO_T_UINT_8( 0x40, 0xC2, 0x72, 0xA2, 0x86, 0x70, 0x3C, 0x35 ),
 281:/home/xingli/share/LiteOS_Lab/network/dtls/mbedtls/mbedtls-2.16.2/library/ecp_curves.c ****     BYTES_TO_T_UINT_8( 0x61, 0x07, 0xAD, 0x3F, 0x01, 0xB9, 0x50, 0xC5 ),
 282:/home/xingli/share/LiteOS_Lab/network/dtls/mbedtls/mbedtls-2.16.2/library/ecp_curves.c ****     BYTES_TO_T_UINT_8( 0x40, 0x26, 0xF4, 0x5E, 0x99, 0x72, 0xEE, 0x97 ),
 283:/home/xingli/share/LiteOS_Lab/network/dtls/mbedtls/mbedtls-2.16.2/library/ecp_curves.c ****     BYTES_TO_T_UINT_8( 0x2C, 0x66, 0x3E, 0x27, 0x17, 0xBD, 0xAF, 0x17 ),
 284:/home/xingli/share/LiteOS_Lab/network/dtls/mbedtls/mbedtls-2.16.2/library/ecp_curves.c ****     BYTES_TO_T_UINT_8( 0x68, 0x44, 0x9B, 0x57, 0x49, 0x44, 0xF5, 0x98 ),
 285:/home/xingli/share/LiteOS_Lab/network/dtls/mbedtls/mbedtls-2.16.2/library/ecp_curves.c ****     BYTES_TO_T_UINT_8( 0xD9, 0x1B, 0x7D, 0x2C, 0xB4, 0x5F, 0x8A, 0x5C ),
 286:/home/xingli/share/LiteOS_Lab/network/dtls/mbedtls/mbedtls-2.16.2/library/ecp_curves.c ****     BYTES_TO_T_UINT_8( 0x04, 0xC0, 0x3B, 0x9A, 0x78, 0x6A, 0x29, 0x39 ),
 287:/home/xingli/share/LiteOS_Lab/network/dtls/mbedtls/mbedtls-2.16.2/library/ecp_curves.c ****     BYTES_TO_T_UINT_2( 0x18, 0x01 ),
 288:/home/xingli/share/LiteOS_Lab/network/dtls/mbedtls/mbedtls-2.16.2/library/ecp_curves.c **** };
 289:/home/xingli/share/LiteOS_Lab/network/dtls/mbedtls/mbedtls-2.16.2/library/ecp_curves.c **** static const mbedtls_mpi_uint secp521r1_n[] = {
 290:/home/xingli/share/LiteOS_Lab/network/dtls/mbedtls/mbedtls-2.16.2/library/ecp_curves.c ****     BYTES_TO_T_UINT_8( 0x09, 0x64, 0x38, 0x91, 0x1E, 0xB7, 0x6F, 0xBB ),
 291:/home/xingli/share/LiteOS_Lab/network/dtls/mbedtls/mbedtls-2.16.2/library/ecp_curves.c ****     BYTES_TO_T_UINT_8( 0xAE, 0x47, 0x9C, 0x89, 0xB8, 0xC9, 0xB5, 0x3B ),
 292:/home/xingli/share/LiteOS_Lab/network/dtls/mbedtls/mbedtls-2.16.2/library/ecp_curves.c ****     BYTES_TO_T_UINT_8( 0xD0, 0xA5, 0x09, 0xF7, 0x48, 0x01, 0xCC, 0x7F ),
 293:/home/xingli/share/LiteOS_Lab/network/dtls/mbedtls/mbedtls-2.16.2/library/ecp_curves.c ****     BYTES_TO_T_UINT_8( 0x6B, 0x96, 0x2F, 0xBF, 0x83, 0x87, 0x86, 0x51 ),
 294:/home/xingli/share/LiteOS_Lab/network/dtls/mbedtls/mbedtls-2.16.2/library/ecp_curves.c ****     BYTES_TO_T_UINT_8( 0xFA, 0xFF, 0xFF, 0xFF, 0xFF, 0xFF, 0xFF, 0xFF ),
 295:/home/xingli/share/LiteOS_Lab/network/dtls/mbedtls/mbedtls-2.16.2/library/ecp_curves.c ****     BYTES_TO_T_UINT_8( 0xFF, 0xFF, 0xFF, 0xFF, 0xFF, 0xFF, 0xFF, 0xFF ),
 296:/home/xingli/share/LiteOS_Lab/network/dtls/mbedtls/mbedtls-2.16.2/library/ecp_curves.c ****     BYTES_TO_T_UINT_8( 0xFF, 0xFF, 0xFF, 0xFF, 0xFF, 0xFF, 0xFF, 0xFF ),
 297:/home/xingli/share/LiteOS_Lab/network/dtls/mbedtls/mbedtls-2.16.2/library/ecp_curves.c ****     BYTES_TO_T_UINT_8( 0xFF, 0xFF, 0xFF, 0xFF, 0xFF, 0xFF, 0xFF, 0xFF ),
 298:/home/xingli/share/LiteOS_Lab/network/dtls/mbedtls/mbedtls-2.16.2/library/ecp_curves.c ****     BYTES_TO_T_UINT_2( 0xFF, 0x01 ),
 299:/home/xingli/share/LiteOS_Lab/network/dtls/mbedtls/mbedtls-2.16.2/library/ecp_curves.c **** };
 300:/home/xingli/share/LiteOS_Lab/network/dtls/mbedtls/mbedtls-2.16.2/library/ecp_curves.c **** #endif /* MBEDTLS_ECP_DP_SECP521R1_ENABLED */
 301:/home/xingli/share/LiteOS_Lab/network/dtls/mbedtls/mbedtls-2.16.2/library/ecp_curves.c **** 
 302:/home/xingli/share/LiteOS_Lab/network/dtls/mbedtls/mbedtls-2.16.2/library/ecp_curves.c **** #if defined(MBEDTLS_ECP_DP_SECP192K1_ENABLED)
GAS LISTING /tmp/ccBClcmz.s 			page 15


 303:/home/xingli/share/LiteOS_Lab/network/dtls/mbedtls/mbedtls-2.16.2/library/ecp_curves.c **** static const mbedtls_mpi_uint secp192k1_p[] = {
 304:/home/xingli/share/LiteOS_Lab/network/dtls/mbedtls/mbedtls-2.16.2/library/ecp_curves.c ****     BYTES_TO_T_UINT_8( 0x37, 0xEE, 0xFF, 0xFF, 0xFE, 0xFF, 0xFF, 0xFF ),
 305:/home/xingli/share/LiteOS_Lab/network/dtls/mbedtls/mbedtls-2.16.2/library/ecp_curves.c ****     BYTES_TO_T_UINT_8( 0xFF, 0xFF, 0xFF, 0xFF, 0xFF, 0xFF, 0xFF, 0xFF ),
 306:/home/xingli/share/LiteOS_Lab/network/dtls/mbedtls/mbedtls-2.16.2/library/ecp_curves.c ****     BYTES_TO_T_UINT_8( 0xFF, 0xFF, 0xFF, 0xFF, 0xFF, 0xFF, 0xFF, 0xFF ),
 307:/home/xingli/share/LiteOS_Lab/network/dtls/mbedtls/mbedtls-2.16.2/library/ecp_curves.c **** };
 308:/home/xingli/share/LiteOS_Lab/network/dtls/mbedtls/mbedtls-2.16.2/library/ecp_curves.c **** static const mbedtls_mpi_uint secp192k1_a[] = {
 309:/home/xingli/share/LiteOS_Lab/network/dtls/mbedtls/mbedtls-2.16.2/library/ecp_curves.c ****     BYTES_TO_T_UINT_2( 0x00, 0x00 ),
 310:/home/xingli/share/LiteOS_Lab/network/dtls/mbedtls/mbedtls-2.16.2/library/ecp_curves.c **** };
 311:/home/xingli/share/LiteOS_Lab/network/dtls/mbedtls/mbedtls-2.16.2/library/ecp_curves.c **** static const mbedtls_mpi_uint secp192k1_b[] = {
 312:/home/xingli/share/LiteOS_Lab/network/dtls/mbedtls/mbedtls-2.16.2/library/ecp_curves.c ****     BYTES_TO_T_UINT_2( 0x03, 0x00 ),
 313:/home/xingli/share/LiteOS_Lab/network/dtls/mbedtls/mbedtls-2.16.2/library/ecp_curves.c **** };
 314:/home/xingli/share/LiteOS_Lab/network/dtls/mbedtls/mbedtls-2.16.2/library/ecp_curves.c **** static const mbedtls_mpi_uint secp192k1_gx[] = {
 315:/home/xingli/share/LiteOS_Lab/network/dtls/mbedtls/mbedtls-2.16.2/library/ecp_curves.c ****     BYTES_TO_T_UINT_8( 0x7D, 0x6C, 0xE0, 0xEA, 0xB1, 0xD1, 0xA5, 0x1D ),
 316:/home/xingli/share/LiteOS_Lab/network/dtls/mbedtls/mbedtls-2.16.2/library/ecp_curves.c ****     BYTES_TO_T_UINT_8( 0x34, 0xF4, 0xB7, 0x80, 0x02, 0x7D, 0xB0, 0x26 ),
 317:/home/xingli/share/LiteOS_Lab/network/dtls/mbedtls/mbedtls-2.16.2/library/ecp_curves.c ****     BYTES_TO_T_UINT_8( 0xAE, 0xE9, 0x57, 0xC0, 0x0E, 0xF1, 0x4F, 0xDB ),
 318:/home/xingli/share/LiteOS_Lab/network/dtls/mbedtls/mbedtls-2.16.2/library/ecp_curves.c **** };
 319:/home/xingli/share/LiteOS_Lab/network/dtls/mbedtls/mbedtls-2.16.2/library/ecp_curves.c **** static const mbedtls_mpi_uint secp192k1_gy[] = {
 320:/home/xingli/share/LiteOS_Lab/network/dtls/mbedtls/mbedtls-2.16.2/library/ecp_curves.c ****     BYTES_TO_T_UINT_8( 0x9D, 0x2F, 0x5E, 0xD9, 0x88, 0xAA, 0x82, 0x40 ),
 321:/home/xingli/share/LiteOS_Lab/network/dtls/mbedtls/mbedtls-2.16.2/library/ecp_curves.c ****     BYTES_TO_T_UINT_8( 0x34, 0x86, 0xBE, 0x15, 0xD0, 0x63, 0x41, 0x84 ),
 322:/home/xingli/share/LiteOS_Lab/network/dtls/mbedtls/mbedtls-2.16.2/library/ecp_curves.c ****     BYTES_TO_T_UINT_8( 0xA7, 0x28, 0x56, 0x9C, 0x6D, 0x2F, 0x2F, 0x9B ),
 323:/home/xingli/share/LiteOS_Lab/network/dtls/mbedtls/mbedtls-2.16.2/library/ecp_curves.c **** };
 324:/home/xingli/share/LiteOS_Lab/network/dtls/mbedtls/mbedtls-2.16.2/library/ecp_curves.c **** static const mbedtls_mpi_uint secp192k1_n[] = {
 325:/home/xingli/share/LiteOS_Lab/network/dtls/mbedtls/mbedtls-2.16.2/library/ecp_curves.c ****     BYTES_TO_T_UINT_8( 0x8D, 0xFD, 0xDE, 0x74, 0x6A, 0x46, 0x69, 0x0F ),
 326:/home/xingli/share/LiteOS_Lab/network/dtls/mbedtls/mbedtls-2.16.2/library/ecp_curves.c ****     BYTES_TO_T_UINT_8( 0x17, 0xFC, 0xF2, 0x26, 0xFE, 0xFF, 0xFF, 0xFF ),
 327:/home/xingli/share/LiteOS_Lab/network/dtls/mbedtls/mbedtls-2.16.2/library/ecp_curves.c ****     BYTES_TO_T_UINT_8( 0xFF, 0xFF, 0xFF, 0xFF, 0xFF, 0xFF, 0xFF, 0xFF ),
 328:/home/xingli/share/LiteOS_Lab/network/dtls/mbedtls/mbedtls-2.16.2/library/ecp_curves.c **** };
 329:/home/xingli/share/LiteOS_Lab/network/dtls/mbedtls/mbedtls-2.16.2/library/ecp_curves.c **** #endif /* MBEDTLS_ECP_DP_SECP192K1_ENABLED */
 330:/home/xingli/share/LiteOS_Lab/network/dtls/mbedtls/mbedtls-2.16.2/library/ecp_curves.c **** 
 331:/home/xingli/share/LiteOS_Lab/network/dtls/mbedtls/mbedtls-2.16.2/library/ecp_curves.c **** #if defined(MBEDTLS_ECP_DP_SECP224K1_ENABLED)
 332:/home/xingli/share/LiteOS_Lab/network/dtls/mbedtls/mbedtls-2.16.2/library/ecp_curves.c **** static const mbedtls_mpi_uint secp224k1_p[] = {
 333:/home/xingli/share/LiteOS_Lab/network/dtls/mbedtls/mbedtls-2.16.2/library/ecp_curves.c ****     BYTES_TO_T_UINT_8( 0x6D, 0xE5, 0xFF, 0xFF, 0xFE, 0xFF, 0xFF, 0xFF ),
 334:/home/xingli/share/LiteOS_Lab/network/dtls/mbedtls/mbedtls-2.16.2/library/ecp_curves.c ****     BYTES_TO_T_UINT_8( 0xFF, 0xFF, 0xFF, 0xFF, 0xFF, 0xFF, 0xFF, 0xFF ),
 335:/home/xingli/share/LiteOS_Lab/network/dtls/mbedtls/mbedtls-2.16.2/library/ecp_curves.c ****     BYTES_TO_T_UINT_8( 0xFF, 0xFF, 0xFF, 0xFF, 0xFF, 0xFF, 0xFF, 0xFF ),
 336:/home/xingli/share/LiteOS_Lab/network/dtls/mbedtls/mbedtls-2.16.2/library/ecp_curves.c ****     BYTES_TO_T_UINT_4( 0xFF, 0xFF, 0xFF, 0xFF ),
 337:/home/xingli/share/LiteOS_Lab/network/dtls/mbedtls/mbedtls-2.16.2/library/ecp_curves.c **** };
 338:/home/xingli/share/LiteOS_Lab/network/dtls/mbedtls/mbedtls-2.16.2/library/ecp_curves.c **** static const mbedtls_mpi_uint secp224k1_a[] = {
 339:/home/xingli/share/LiteOS_Lab/network/dtls/mbedtls/mbedtls-2.16.2/library/ecp_curves.c ****     BYTES_TO_T_UINT_2( 0x00, 0x00 ),
 340:/home/xingli/share/LiteOS_Lab/network/dtls/mbedtls/mbedtls-2.16.2/library/ecp_curves.c **** };
 341:/home/xingli/share/LiteOS_Lab/network/dtls/mbedtls/mbedtls-2.16.2/library/ecp_curves.c **** static const mbedtls_mpi_uint secp224k1_b[] = {
 342:/home/xingli/share/LiteOS_Lab/network/dtls/mbedtls/mbedtls-2.16.2/library/ecp_curves.c ****     BYTES_TO_T_UINT_2( 0x05, 0x00 ),
 343:/home/xingli/share/LiteOS_Lab/network/dtls/mbedtls/mbedtls-2.16.2/library/ecp_curves.c **** };
 344:/home/xingli/share/LiteOS_Lab/network/dtls/mbedtls/mbedtls-2.16.2/library/ecp_curves.c **** static const mbedtls_mpi_uint secp224k1_gx[] = {
 345:/home/xingli/share/LiteOS_Lab/network/dtls/mbedtls/mbedtls-2.16.2/library/ecp_curves.c ****     BYTES_TO_T_UINT_8( 0x5C, 0xA4, 0xB7, 0xB6, 0x0E, 0x65, 0x7E, 0x0F ),
 346:/home/xingli/share/LiteOS_Lab/network/dtls/mbedtls/mbedtls-2.16.2/library/ecp_curves.c ****     BYTES_TO_T_UINT_8( 0xA9, 0x75, 0x70, 0xE4, 0xE9, 0x67, 0xA4, 0x69 ),
 347:/home/xingli/share/LiteOS_Lab/network/dtls/mbedtls/mbedtls-2.16.2/library/ecp_curves.c ****     BYTES_TO_T_UINT_8( 0xA1, 0x28, 0xFC, 0x30, 0xDF, 0x99, 0xF0, 0x4D ),
 348:/home/xingli/share/LiteOS_Lab/network/dtls/mbedtls/mbedtls-2.16.2/library/ecp_curves.c ****     BYTES_TO_T_UINT_4( 0x33, 0x5B, 0x45, 0xA1 ),
 349:/home/xingli/share/LiteOS_Lab/network/dtls/mbedtls/mbedtls-2.16.2/library/ecp_curves.c **** };
 350:/home/xingli/share/LiteOS_Lab/network/dtls/mbedtls/mbedtls-2.16.2/library/ecp_curves.c **** static const mbedtls_mpi_uint secp224k1_gy[] = {
 351:/home/xingli/share/LiteOS_Lab/network/dtls/mbedtls/mbedtls-2.16.2/library/ecp_curves.c ****     BYTES_TO_T_UINT_8( 0xA5, 0x61, 0x6D, 0x55, 0xDB, 0x4B, 0xCA, 0xE2 ),
 352:/home/xingli/share/LiteOS_Lab/network/dtls/mbedtls/mbedtls-2.16.2/library/ecp_curves.c ****     BYTES_TO_T_UINT_8( 0x59, 0xBD, 0xB0, 0xC0, 0xF7, 0x19, 0xE3, 0xF7 ),
 353:/home/xingli/share/LiteOS_Lab/network/dtls/mbedtls/mbedtls-2.16.2/library/ecp_curves.c ****     BYTES_TO_T_UINT_8( 0xD6, 0xFB, 0xCA, 0x82, 0x42, 0x34, 0xBA, 0x7F ),
 354:/home/xingli/share/LiteOS_Lab/network/dtls/mbedtls/mbedtls-2.16.2/library/ecp_curves.c ****     BYTES_TO_T_UINT_4( 0xED, 0x9F, 0x08, 0x7E ),
 355:/home/xingli/share/LiteOS_Lab/network/dtls/mbedtls/mbedtls-2.16.2/library/ecp_curves.c **** };
 356:/home/xingli/share/LiteOS_Lab/network/dtls/mbedtls/mbedtls-2.16.2/library/ecp_curves.c **** static const mbedtls_mpi_uint secp224k1_n[] = {
 357:/home/xingli/share/LiteOS_Lab/network/dtls/mbedtls/mbedtls-2.16.2/library/ecp_curves.c ****     BYTES_TO_T_UINT_8( 0xF7, 0xB1, 0x9F, 0x76, 0x71, 0xA9, 0xF0, 0xCA ),
 358:/home/xingli/share/LiteOS_Lab/network/dtls/mbedtls/mbedtls-2.16.2/library/ecp_curves.c ****     BYTES_TO_T_UINT_8( 0x84, 0x61, 0xEC, 0xD2, 0xE8, 0xDC, 0x01, 0x00 ),
 359:/home/xingli/share/LiteOS_Lab/network/dtls/mbedtls/mbedtls-2.16.2/library/ecp_curves.c ****     BYTES_TO_T_UINT_8( 0x00, 0x00, 0x00, 0x00, 0x00, 0x00, 0x00, 0x00 ),
GAS LISTING /tmp/ccBClcmz.s 			page 16


 360:/home/xingli/share/LiteOS_Lab/network/dtls/mbedtls/mbedtls-2.16.2/library/ecp_curves.c ****     BYTES_TO_T_UINT_8( 0x00, 0x00, 0x00, 0x00, 0x01, 0x00, 0x00, 0x00 ),
 361:/home/xingli/share/LiteOS_Lab/network/dtls/mbedtls/mbedtls-2.16.2/library/ecp_curves.c **** };
 362:/home/xingli/share/LiteOS_Lab/network/dtls/mbedtls/mbedtls-2.16.2/library/ecp_curves.c **** #endif /* MBEDTLS_ECP_DP_SECP224K1_ENABLED */
 363:/home/xingli/share/LiteOS_Lab/network/dtls/mbedtls/mbedtls-2.16.2/library/ecp_curves.c **** 
 364:/home/xingli/share/LiteOS_Lab/network/dtls/mbedtls/mbedtls-2.16.2/library/ecp_curves.c **** #if defined(MBEDTLS_ECP_DP_SECP256K1_ENABLED)
 365:/home/xingli/share/LiteOS_Lab/network/dtls/mbedtls/mbedtls-2.16.2/library/ecp_curves.c **** static const mbedtls_mpi_uint secp256k1_p[] = {
 366:/home/xingli/share/LiteOS_Lab/network/dtls/mbedtls/mbedtls-2.16.2/library/ecp_curves.c ****     BYTES_TO_T_UINT_8( 0x2F, 0xFC, 0xFF, 0xFF, 0xFE, 0xFF, 0xFF, 0xFF ),
 367:/home/xingli/share/LiteOS_Lab/network/dtls/mbedtls/mbedtls-2.16.2/library/ecp_curves.c ****     BYTES_TO_T_UINT_8( 0xFF, 0xFF, 0xFF, 0xFF, 0xFF, 0xFF, 0xFF, 0xFF ),
 368:/home/xingli/share/LiteOS_Lab/network/dtls/mbedtls/mbedtls-2.16.2/library/ecp_curves.c ****     BYTES_TO_T_UINT_8( 0xFF, 0xFF, 0xFF, 0xFF, 0xFF, 0xFF, 0xFF, 0xFF ),
 369:/home/xingli/share/LiteOS_Lab/network/dtls/mbedtls/mbedtls-2.16.2/library/ecp_curves.c ****     BYTES_TO_T_UINT_8( 0xFF, 0xFF, 0xFF, 0xFF, 0xFF, 0xFF, 0xFF, 0xFF ),
 370:/home/xingli/share/LiteOS_Lab/network/dtls/mbedtls/mbedtls-2.16.2/library/ecp_curves.c **** };
 371:/home/xingli/share/LiteOS_Lab/network/dtls/mbedtls/mbedtls-2.16.2/library/ecp_curves.c **** static const mbedtls_mpi_uint secp256k1_a[] = {
 372:/home/xingli/share/LiteOS_Lab/network/dtls/mbedtls/mbedtls-2.16.2/library/ecp_curves.c ****     BYTES_TO_T_UINT_2( 0x00, 0x00 ),
 373:/home/xingli/share/LiteOS_Lab/network/dtls/mbedtls/mbedtls-2.16.2/library/ecp_curves.c **** };
 374:/home/xingli/share/LiteOS_Lab/network/dtls/mbedtls/mbedtls-2.16.2/library/ecp_curves.c **** static const mbedtls_mpi_uint secp256k1_b[] = {
 375:/home/xingli/share/LiteOS_Lab/network/dtls/mbedtls/mbedtls-2.16.2/library/ecp_curves.c ****     BYTES_TO_T_UINT_2( 0x07, 0x00 ),
 376:/home/xingli/share/LiteOS_Lab/network/dtls/mbedtls/mbedtls-2.16.2/library/ecp_curves.c **** };
 377:/home/xingli/share/LiteOS_Lab/network/dtls/mbedtls/mbedtls-2.16.2/library/ecp_curves.c **** static const mbedtls_mpi_uint secp256k1_gx[] = {
 378:/home/xingli/share/LiteOS_Lab/network/dtls/mbedtls/mbedtls-2.16.2/library/ecp_curves.c ****     BYTES_TO_T_UINT_8( 0x98, 0x17, 0xF8, 0x16, 0x5B, 0x81, 0xF2, 0x59 ),
 379:/home/xingli/share/LiteOS_Lab/network/dtls/mbedtls/mbedtls-2.16.2/library/ecp_curves.c ****     BYTES_TO_T_UINT_8( 0xD9, 0x28, 0xCE, 0x2D, 0xDB, 0xFC, 0x9B, 0x02 ),
 380:/home/xingli/share/LiteOS_Lab/network/dtls/mbedtls/mbedtls-2.16.2/library/ecp_curves.c ****     BYTES_TO_T_UINT_8( 0x07, 0x0B, 0x87, 0xCE, 0x95, 0x62, 0xA0, 0x55 ),
 381:/home/xingli/share/LiteOS_Lab/network/dtls/mbedtls/mbedtls-2.16.2/library/ecp_curves.c ****     BYTES_TO_T_UINT_8( 0xAC, 0xBB, 0xDC, 0xF9, 0x7E, 0x66, 0xBE, 0x79 ),
 382:/home/xingli/share/LiteOS_Lab/network/dtls/mbedtls/mbedtls-2.16.2/library/ecp_curves.c **** };
 383:/home/xingli/share/LiteOS_Lab/network/dtls/mbedtls/mbedtls-2.16.2/library/ecp_curves.c **** static const mbedtls_mpi_uint secp256k1_gy[] = {
 384:/home/xingli/share/LiteOS_Lab/network/dtls/mbedtls/mbedtls-2.16.2/library/ecp_curves.c ****     BYTES_TO_T_UINT_8( 0xB8, 0xD4, 0x10, 0xFB, 0x8F, 0xD0, 0x47, 0x9C ),
 385:/home/xingli/share/LiteOS_Lab/network/dtls/mbedtls/mbedtls-2.16.2/library/ecp_curves.c ****     BYTES_TO_T_UINT_8( 0x19, 0x54, 0x85, 0xA6, 0x48, 0xB4, 0x17, 0xFD ),
 386:/home/xingli/share/LiteOS_Lab/network/dtls/mbedtls/mbedtls-2.16.2/library/ecp_curves.c ****     BYTES_TO_T_UINT_8( 0xA8, 0x08, 0x11, 0x0E, 0xFC, 0xFB, 0xA4, 0x5D ),
 387:/home/xingli/share/LiteOS_Lab/network/dtls/mbedtls/mbedtls-2.16.2/library/ecp_curves.c ****     BYTES_TO_T_UINT_8( 0x65, 0xC4, 0xA3, 0x26, 0x77, 0xDA, 0x3A, 0x48 ),
 388:/home/xingli/share/LiteOS_Lab/network/dtls/mbedtls/mbedtls-2.16.2/library/ecp_curves.c **** };
 389:/home/xingli/share/LiteOS_Lab/network/dtls/mbedtls/mbedtls-2.16.2/library/ecp_curves.c **** static const mbedtls_mpi_uint secp256k1_n[] = {
 390:/home/xingli/share/LiteOS_Lab/network/dtls/mbedtls/mbedtls-2.16.2/library/ecp_curves.c ****     BYTES_TO_T_UINT_8( 0x41, 0x41, 0x36, 0xD0, 0x8C, 0x5E, 0xD2, 0xBF ),
 391:/home/xingli/share/LiteOS_Lab/network/dtls/mbedtls/mbedtls-2.16.2/library/ecp_curves.c ****     BYTES_TO_T_UINT_8( 0x3B, 0xA0, 0x48, 0xAF, 0xE6, 0xDC, 0xAE, 0xBA ),
 392:/home/xingli/share/LiteOS_Lab/network/dtls/mbedtls/mbedtls-2.16.2/library/ecp_curves.c ****     BYTES_TO_T_UINT_8( 0xFE, 0xFF, 0xFF, 0xFF, 0xFF, 0xFF, 0xFF, 0xFF ),
 393:/home/xingli/share/LiteOS_Lab/network/dtls/mbedtls/mbedtls-2.16.2/library/ecp_curves.c ****     BYTES_TO_T_UINT_8( 0xFF, 0xFF, 0xFF, 0xFF, 0xFF, 0xFF, 0xFF, 0xFF ),
 394:/home/xingli/share/LiteOS_Lab/network/dtls/mbedtls/mbedtls-2.16.2/library/ecp_curves.c **** };
 395:/home/xingli/share/LiteOS_Lab/network/dtls/mbedtls/mbedtls-2.16.2/library/ecp_curves.c **** #endif /* MBEDTLS_ECP_DP_SECP256K1_ENABLED */
 396:/home/xingli/share/LiteOS_Lab/network/dtls/mbedtls/mbedtls-2.16.2/library/ecp_curves.c **** 
 397:/home/xingli/share/LiteOS_Lab/network/dtls/mbedtls/mbedtls-2.16.2/library/ecp_curves.c **** /*
 398:/home/xingli/share/LiteOS_Lab/network/dtls/mbedtls/mbedtls-2.16.2/library/ecp_curves.c ****  * Domain parameters for brainpoolP256r1 (RFC 5639 3.4)
 399:/home/xingli/share/LiteOS_Lab/network/dtls/mbedtls/mbedtls-2.16.2/library/ecp_curves.c ****  */
 400:/home/xingli/share/LiteOS_Lab/network/dtls/mbedtls/mbedtls-2.16.2/library/ecp_curves.c **** #if defined(MBEDTLS_ECP_DP_BP256R1_ENABLED)
 401:/home/xingli/share/LiteOS_Lab/network/dtls/mbedtls/mbedtls-2.16.2/library/ecp_curves.c **** static const mbedtls_mpi_uint brainpoolP256r1_p[] = {
 402:/home/xingli/share/LiteOS_Lab/network/dtls/mbedtls/mbedtls-2.16.2/library/ecp_curves.c ****     BYTES_TO_T_UINT_8( 0x77, 0x53, 0x6E, 0x1F, 0x1D, 0x48, 0x13, 0x20 ),
 403:/home/xingli/share/LiteOS_Lab/network/dtls/mbedtls/mbedtls-2.16.2/library/ecp_curves.c ****     BYTES_TO_T_UINT_8( 0x28, 0x20, 0x26, 0xD5, 0x23, 0xF6, 0x3B, 0x6E ),
 404:/home/xingli/share/LiteOS_Lab/network/dtls/mbedtls/mbedtls-2.16.2/library/ecp_curves.c ****     BYTES_TO_T_UINT_8( 0x72, 0x8D, 0x83, 0x9D, 0x90, 0x0A, 0x66, 0x3E ),
 405:/home/xingli/share/LiteOS_Lab/network/dtls/mbedtls/mbedtls-2.16.2/library/ecp_curves.c ****     BYTES_TO_T_UINT_8( 0xBC, 0xA9, 0xEE, 0xA1, 0xDB, 0x57, 0xFB, 0xA9 ),
 406:/home/xingli/share/LiteOS_Lab/network/dtls/mbedtls/mbedtls-2.16.2/library/ecp_curves.c **** };
 407:/home/xingli/share/LiteOS_Lab/network/dtls/mbedtls/mbedtls-2.16.2/library/ecp_curves.c **** static const mbedtls_mpi_uint brainpoolP256r1_a[] = {
 408:/home/xingli/share/LiteOS_Lab/network/dtls/mbedtls/mbedtls-2.16.2/library/ecp_curves.c ****     BYTES_TO_T_UINT_8( 0xD9, 0xB5, 0x30, 0xF3, 0x44, 0x4B, 0x4A, 0xE9 ),
 409:/home/xingli/share/LiteOS_Lab/network/dtls/mbedtls/mbedtls-2.16.2/library/ecp_curves.c ****     BYTES_TO_T_UINT_8( 0x6C, 0x5C, 0xDC, 0x26, 0xC1, 0x55, 0x80, 0xFB ),
 410:/home/xingli/share/LiteOS_Lab/network/dtls/mbedtls/mbedtls-2.16.2/library/ecp_curves.c ****     BYTES_TO_T_UINT_8( 0xE7, 0xFF, 0x7A, 0x41, 0x30, 0x75, 0xF6, 0xEE ),
 411:/home/xingli/share/LiteOS_Lab/network/dtls/mbedtls/mbedtls-2.16.2/library/ecp_curves.c ****     BYTES_TO_T_UINT_8( 0x57, 0x30, 0x2C, 0xFC, 0x75, 0x09, 0x5A, 0x7D ),
 412:/home/xingli/share/LiteOS_Lab/network/dtls/mbedtls/mbedtls-2.16.2/library/ecp_curves.c **** };
 413:/home/xingli/share/LiteOS_Lab/network/dtls/mbedtls/mbedtls-2.16.2/library/ecp_curves.c **** static const mbedtls_mpi_uint brainpoolP256r1_b[] = {
 414:/home/xingli/share/LiteOS_Lab/network/dtls/mbedtls/mbedtls-2.16.2/library/ecp_curves.c ****     BYTES_TO_T_UINT_8( 0xB6, 0x07, 0x8C, 0xFF, 0x18, 0xDC, 0xCC, 0x6B ),
 415:/home/xingli/share/LiteOS_Lab/network/dtls/mbedtls/mbedtls-2.16.2/library/ecp_curves.c ****     BYTES_TO_T_UINT_8( 0xCE, 0xE1, 0xF7, 0x5C, 0x29, 0x16, 0x84, 0x95 ),
 416:/home/xingli/share/LiteOS_Lab/network/dtls/mbedtls/mbedtls-2.16.2/library/ecp_curves.c ****     BYTES_TO_T_UINT_8( 0xBF, 0x7C, 0xD7, 0xBB, 0xD9, 0xB5, 0x30, 0xF3 ),
GAS LISTING /tmp/ccBClcmz.s 			page 17


 417:/home/xingli/share/LiteOS_Lab/network/dtls/mbedtls/mbedtls-2.16.2/library/ecp_curves.c ****     BYTES_TO_T_UINT_8( 0x44, 0x4B, 0x4A, 0xE9, 0x6C, 0x5C, 0xDC, 0x26 ),
 418:/home/xingli/share/LiteOS_Lab/network/dtls/mbedtls/mbedtls-2.16.2/library/ecp_curves.c **** };
 419:/home/xingli/share/LiteOS_Lab/network/dtls/mbedtls/mbedtls-2.16.2/library/ecp_curves.c **** static const mbedtls_mpi_uint brainpoolP256r1_gx[] = {
 420:/home/xingli/share/LiteOS_Lab/network/dtls/mbedtls/mbedtls-2.16.2/library/ecp_curves.c ****     BYTES_TO_T_UINT_8( 0x62, 0x32, 0xCE, 0x9A, 0xBD, 0x53, 0x44, 0x3A ),
 421:/home/xingli/share/LiteOS_Lab/network/dtls/mbedtls/mbedtls-2.16.2/library/ecp_curves.c ****     BYTES_TO_T_UINT_8( 0xC2, 0x23, 0xBD, 0xE3, 0xE1, 0x27, 0xDE, 0xB9 ),
 422:/home/xingli/share/LiteOS_Lab/network/dtls/mbedtls/mbedtls-2.16.2/library/ecp_curves.c ****     BYTES_TO_T_UINT_8( 0xAF, 0xB7, 0x81, 0xFC, 0x2F, 0x48, 0x4B, 0x2C ),
 423:/home/xingli/share/LiteOS_Lab/network/dtls/mbedtls/mbedtls-2.16.2/library/ecp_curves.c ****     BYTES_TO_T_UINT_8( 0xCB, 0x57, 0x7E, 0xCB, 0xB9, 0xAE, 0xD2, 0x8B ),
 424:/home/xingli/share/LiteOS_Lab/network/dtls/mbedtls/mbedtls-2.16.2/library/ecp_curves.c **** };
 425:/home/xingli/share/LiteOS_Lab/network/dtls/mbedtls/mbedtls-2.16.2/library/ecp_curves.c **** static const mbedtls_mpi_uint brainpoolP256r1_gy[] = {
 426:/home/xingli/share/LiteOS_Lab/network/dtls/mbedtls/mbedtls-2.16.2/library/ecp_curves.c ****     BYTES_TO_T_UINT_8( 0x97, 0x69, 0x04, 0x2F, 0xC7, 0x54, 0x1D, 0x5C ),
 427:/home/xingli/share/LiteOS_Lab/network/dtls/mbedtls/mbedtls-2.16.2/library/ecp_curves.c ****     BYTES_TO_T_UINT_8( 0x54, 0x8E, 0xED, 0x2D, 0x13, 0x45, 0x77, 0xC2 ),
 428:/home/xingli/share/LiteOS_Lab/network/dtls/mbedtls/mbedtls-2.16.2/library/ecp_curves.c ****     BYTES_TO_T_UINT_8( 0xC9, 0x1D, 0x61, 0x14, 0x1A, 0x46, 0xF8, 0x97 ),
 429:/home/xingli/share/LiteOS_Lab/network/dtls/mbedtls/mbedtls-2.16.2/library/ecp_curves.c ****     BYTES_TO_T_UINT_8( 0xFD, 0xC4, 0xDA, 0xC3, 0x35, 0xF8, 0x7E, 0x54 ),
 430:/home/xingli/share/LiteOS_Lab/network/dtls/mbedtls/mbedtls-2.16.2/library/ecp_curves.c **** };
 431:/home/xingli/share/LiteOS_Lab/network/dtls/mbedtls/mbedtls-2.16.2/library/ecp_curves.c **** static const mbedtls_mpi_uint brainpoolP256r1_n[] = {
 432:/home/xingli/share/LiteOS_Lab/network/dtls/mbedtls/mbedtls-2.16.2/library/ecp_curves.c ****     BYTES_TO_T_UINT_8( 0xA7, 0x56, 0x48, 0x97, 0x82, 0x0E, 0x1E, 0x90 ),
 433:/home/xingli/share/LiteOS_Lab/network/dtls/mbedtls/mbedtls-2.16.2/library/ecp_curves.c ****     BYTES_TO_T_UINT_8( 0xF7, 0xA6, 0x61, 0xB5, 0xA3, 0x7A, 0x39, 0x8C ),
 434:/home/xingli/share/LiteOS_Lab/network/dtls/mbedtls/mbedtls-2.16.2/library/ecp_curves.c ****     BYTES_TO_T_UINT_8( 0x71, 0x8D, 0x83, 0x9D, 0x90, 0x0A, 0x66, 0x3E ),
 435:/home/xingli/share/LiteOS_Lab/network/dtls/mbedtls/mbedtls-2.16.2/library/ecp_curves.c ****     BYTES_TO_T_UINT_8( 0xBC, 0xA9, 0xEE, 0xA1, 0xDB, 0x57, 0xFB, 0xA9 ),
 436:/home/xingli/share/LiteOS_Lab/network/dtls/mbedtls/mbedtls-2.16.2/library/ecp_curves.c **** };
 437:/home/xingli/share/LiteOS_Lab/network/dtls/mbedtls/mbedtls-2.16.2/library/ecp_curves.c **** #endif /* MBEDTLS_ECP_DP_BP256R1_ENABLED */
 438:/home/xingli/share/LiteOS_Lab/network/dtls/mbedtls/mbedtls-2.16.2/library/ecp_curves.c **** 
 439:/home/xingli/share/LiteOS_Lab/network/dtls/mbedtls/mbedtls-2.16.2/library/ecp_curves.c **** /*
 440:/home/xingli/share/LiteOS_Lab/network/dtls/mbedtls/mbedtls-2.16.2/library/ecp_curves.c ****  * Domain parameters for brainpoolP384r1 (RFC 5639 3.6)
 441:/home/xingli/share/LiteOS_Lab/network/dtls/mbedtls/mbedtls-2.16.2/library/ecp_curves.c ****  */
 442:/home/xingli/share/LiteOS_Lab/network/dtls/mbedtls/mbedtls-2.16.2/library/ecp_curves.c **** #if defined(MBEDTLS_ECP_DP_BP384R1_ENABLED)
 443:/home/xingli/share/LiteOS_Lab/network/dtls/mbedtls/mbedtls-2.16.2/library/ecp_curves.c **** static const mbedtls_mpi_uint brainpoolP384r1_p[] = {
 444:/home/xingli/share/LiteOS_Lab/network/dtls/mbedtls/mbedtls-2.16.2/library/ecp_curves.c ****     BYTES_TO_T_UINT_8( 0x53, 0xEC, 0x07, 0x31, 0x13, 0x00, 0x47, 0x87 ),
 445:/home/xingli/share/LiteOS_Lab/network/dtls/mbedtls/mbedtls-2.16.2/library/ecp_curves.c ****     BYTES_TO_T_UINT_8( 0x71, 0x1A, 0x1D, 0x90, 0x29, 0xA7, 0xD3, 0xAC ),
 446:/home/xingli/share/LiteOS_Lab/network/dtls/mbedtls/mbedtls-2.16.2/library/ecp_curves.c ****     BYTES_TO_T_UINT_8( 0x23, 0x11, 0xB7, 0x7F, 0x19, 0xDA, 0xB1, 0x12 ),
 447:/home/xingli/share/LiteOS_Lab/network/dtls/mbedtls/mbedtls-2.16.2/library/ecp_curves.c ****     BYTES_TO_T_UINT_8( 0xB4, 0x56, 0x54, 0xED, 0x09, 0x71, 0x2F, 0x15 ),
 448:/home/xingli/share/LiteOS_Lab/network/dtls/mbedtls/mbedtls-2.16.2/library/ecp_curves.c ****     BYTES_TO_T_UINT_8( 0xDF, 0x41, 0xE6, 0x50, 0x7E, 0x6F, 0x5D, 0x0F ),
 449:/home/xingli/share/LiteOS_Lab/network/dtls/mbedtls/mbedtls-2.16.2/library/ecp_curves.c ****     BYTES_TO_T_UINT_8( 0x28, 0x6D, 0x38, 0xA3, 0x82, 0x1E, 0xB9, 0x8C ),
 450:/home/xingli/share/LiteOS_Lab/network/dtls/mbedtls/mbedtls-2.16.2/library/ecp_curves.c **** };
 451:/home/xingli/share/LiteOS_Lab/network/dtls/mbedtls/mbedtls-2.16.2/library/ecp_curves.c **** static const mbedtls_mpi_uint brainpoolP384r1_a[] = {
 452:/home/xingli/share/LiteOS_Lab/network/dtls/mbedtls/mbedtls-2.16.2/library/ecp_curves.c ****     BYTES_TO_T_UINT_8( 0x26, 0x28, 0xCE, 0x22, 0xDD, 0xC7, 0xA8, 0x04 ),
 453:/home/xingli/share/LiteOS_Lab/network/dtls/mbedtls/mbedtls-2.16.2/library/ecp_curves.c ****     BYTES_TO_T_UINT_8( 0xEB, 0xD4, 0x3A, 0x50, 0x4A, 0x81, 0xA5, 0x8A ),
 454:/home/xingli/share/LiteOS_Lab/network/dtls/mbedtls/mbedtls-2.16.2/library/ecp_curves.c ****     BYTES_TO_T_UINT_8( 0x0F, 0xF9, 0x91, 0xBA, 0xEF, 0x65, 0x91, 0x13 ),
 455:/home/xingli/share/LiteOS_Lab/network/dtls/mbedtls/mbedtls-2.16.2/library/ecp_curves.c ****     BYTES_TO_T_UINT_8( 0x87, 0x27, 0xB2, 0x4F, 0x8E, 0xA2, 0xBE, 0xC2 ),
 456:/home/xingli/share/LiteOS_Lab/network/dtls/mbedtls/mbedtls-2.16.2/library/ecp_curves.c ****     BYTES_TO_T_UINT_8( 0xA0, 0xAF, 0x05, 0xCE, 0x0A, 0x08, 0x72, 0x3C ),
 457:/home/xingli/share/LiteOS_Lab/network/dtls/mbedtls/mbedtls-2.16.2/library/ecp_curves.c ****     BYTES_TO_T_UINT_8( 0x0C, 0x15, 0x8C, 0x3D, 0xC6, 0x82, 0xC3, 0x7B ),
 458:/home/xingli/share/LiteOS_Lab/network/dtls/mbedtls/mbedtls-2.16.2/library/ecp_curves.c **** };
 459:/home/xingli/share/LiteOS_Lab/network/dtls/mbedtls/mbedtls-2.16.2/library/ecp_curves.c **** static const mbedtls_mpi_uint brainpoolP384r1_b[] = {
 460:/home/xingli/share/LiteOS_Lab/network/dtls/mbedtls/mbedtls-2.16.2/library/ecp_curves.c ****     BYTES_TO_T_UINT_8( 0x11, 0x4C, 0x50, 0xFA, 0x96, 0x86, 0xB7, 0x3A ),
 461:/home/xingli/share/LiteOS_Lab/network/dtls/mbedtls/mbedtls-2.16.2/library/ecp_curves.c ****     BYTES_TO_T_UINT_8( 0x94, 0xC9, 0xDB, 0x95, 0x02, 0x39, 0xB4, 0x7C ),
 462:/home/xingli/share/LiteOS_Lab/network/dtls/mbedtls/mbedtls-2.16.2/library/ecp_curves.c ****     BYTES_TO_T_UINT_8( 0xD5, 0x62, 0xEB, 0x3E, 0xA5, 0x0E, 0x88, 0x2E ),
 463:/home/xingli/share/LiteOS_Lab/network/dtls/mbedtls/mbedtls-2.16.2/library/ecp_curves.c ****     BYTES_TO_T_UINT_8( 0xA6, 0xD2, 0xDC, 0x07, 0xE1, 0x7D, 0xB7, 0x2F ),
 464:/home/xingli/share/LiteOS_Lab/network/dtls/mbedtls/mbedtls-2.16.2/library/ecp_curves.c ****     BYTES_TO_T_UINT_8( 0x7C, 0x44, 0xF0, 0x16, 0x54, 0xB5, 0x39, 0x8B ),
 465:/home/xingli/share/LiteOS_Lab/network/dtls/mbedtls/mbedtls-2.16.2/library/ecp_curves.c ****     BYTES_TO_T_UINT_8( 0x26, 0x28, 0xCE, 0x22, 0xDD, 0xC7, 0xA8, 0x04 ),
 466:/home/xingli/share/LiteOS_Lab/network/dtls/mbedtls/mbedtls-2.16.2/library/ecp_curves.c **** };
 467:/home/xingli/share/LiteOS_Lab/network/dtls/mbedtls/mbedtls-2.16.2/library/ecp_curves.c **** static const mbedtls_mpi_uint brainpoolP384r1_gx[] = {
 468:/home/xingli/share/LiteOS_Lab/network/dtls/mbedtls/mbedtls-2.16.2/library/ecp_curves.c ****     BYTES_TO_T_UINT_8( 0x1E, 0xAF, 0xD4, 0x47, 0xE2, 0xB2, 0x87, 0xEF ),
 469:/home/xingli/share/LiteOS_Lab/network/dtls/mbedtls/mbedtls-2.16.2/library/ecp_curves.c ****     BYTES_TO_T_UINT_8( 0xAA, 0x46, 0xD6, 0x36, 0x34, 0xE0, 0x26, 0xE8 ),
 470:/home/xingli/share/LiteOS_Lab/network/dtls/mbedtls/mbedtls-2.16.2/library/ecp_curves.c ****     BYTES_TO_T_UINT_8( 0xE8, 0x10, 0xBD, 0x0C, 0xFE, 0xCA, 0x7F, 0xDB ),
 471:/home/xingli/share/LiteOS_Lab/network/dtls/mbedtls/mbedtls-2.16.2/library/ecp_curves.c ****     BYTES_TO_T_UINT_8( 0xE3, 0x4F, 0xF1, 0x7E, 0xE7, 0xA3, 0x47, 0x88 ),
 472:/home/xingli/share/LiteOS_Lab/network/dtls/mbedtls/mbedtls-2.16.2/library/ecp_curves.c ****     BYTES_TO_T_UINT_8( 0x6B, 0x3F, 0xC1, 0xB7, 0x81, 0x3A, 0xA6, 0xA2 ),
 473:/home/xingli/share/LiteOS_Lab/network/dtls/mbedtls/mbedtls-2.16.2/library/ecp_curves.c ****     BYTES_TO_T_UINT_8( 0xFF, 0x45, 0xCF, 0x68, 0xF0, 0x64, 0x1C, 0x1D ),
GAS LISTING /tmp/ccBClcmz.s 			page 18


 474:/home/xingli/share/LiteOS_Lab/network/dtls/mbedtls/mbedtls-2.16.2/library/ecp_curves.c **** };
 475:/home/xingli/share/LiteOS_Lab/network/dtls/mbedtls/mbedtls-2.16.2/library/ecp_curves.c **** static const mbedtls_mpi_uint brainpoolP384r1_gy[] = {
 476:/home/xingli/share/LiteOS_Lab/network/dtls/mbedtls/mbedtls-2.16.2/library/ecp_curves.c ****     BYTES_TO_T_UINT_8( 0x15, 0x53, 0x3C, 0x26, 0x41, 0x03, 0x82, 0x42 ),
 477:/home/xingli/share/LiteOS_Lab/network/dtls/mbedtls/mbedtls-2.16.2/library/ecp_curves.c ****     BYTES_TO_T_UINT_8( 0x11, 0x81, 0x91, 0x77, 0x21, 0x46, 0x46, 0x0E ),
 478:/home/xingli/share/LiteOS_Lab/network/dtls/mbedtls/mbedtls-2.16.2/library/ecp_curves.c ****     BYTES_TO_T_UINT_8( 0x28, 0x29, 0x91, 0xF9, 0x4F, 0x05, 0x9C, 0xE1 ),
 479:/home/xingli/share/LiteOS_Lab/network/dtls/mbedtls/mbedtls-2.16.2/library/ecp_curves.c ****     BYTES_TO_T_UINT_8( 0x64, 0x58, 0xEC, 0xFE, 0x29, 0x0B, 0xB7, 0x62 ),
 480:/home/xingli/share/LiteOS_Lab/network/dtls/mbedtls/mbedtls-2.16.2/library/ecp_curves.c ****     BYTES_TO_T_UINT_8( 0x52, 0xD5, 0xCF, 0x95, 0x8E, 0xEB, 0xB1, 0x5C ),
 481:/home/xingli/share/LiteOS_Lab/network/dtls/mbedtls/mbedtls-2.16.2/library/ecp_curves.c ****     BYTES_TO_T_UINT_8( 0xA4, 0xC2, 0xF9, 0x20, 0x75, 0x1D, 0xBE, 0x8A ),
 482:/home/xingli/share/LiteOS_Lab/network/dtls/mbedtls/mbedtls-2.16.2/library/ecp_curves.c **** };
 483:/home/xingli/share/LiteOS_Lab/network/dtls/mbedtls/mbedtls-2.16.2/library/ecp_curves.c **** static const mbedtls_mpi_uint brainpoolP384r1_n[] = {
 484:/home/xingli/share/LiteOS_Lab/network/dtls/mbedtls/mbedtls-2.16.2/library/ecp_curves.c ****     BYTES_TO_T_UINT_8( 0x65, 0x65, 0x04, 0xE9, 0x02, 0x32, 0x88, 0x3B ),
 485:/home/xingli/share/LiteOS_Lab/network/dtls/mbedtls/mbedtls-2.16.2/library/ecp_curves.c ****     BYTES_TO_T_UINT_8( 0x10, 0xC3, 0x7F, 0x6B, 0xAF, 0xB6, 0x3A, 0xCF ),
 486:/home/xingli/share/LiteOS_Lab/network/dtls/mbedtls/mbedtls-2.16.2/library/ecp_curves.c ****     BYTES_TO_T_UINT_8( 0xA7, 0x25, 0x04, 0xAC, 0x6C, 0x6E, 0x16, 0x1F ),
 487:/home/xingli/share/LiteOS_Lab/network/dtls/mbedtls/mbedtls-2.16.2/library/ecp_curves.c ****     BYTES_TO_T_UINT_8( 0xB3, 0x56, 0x54, 0xED, 0x09, 0x71, 0x2F, 0x15 ),
 488:/home/xingli/share/LiteOS_Lab/network/dtls/mbedtls/mbedtls-2.16.2/library/ecp_curves.c ****     BYTES_TO_T_UINT_8( 0xDF, 0x41, 0xE6, 0x50, 0x7E, 0x6F, 0x5D, 0x0F ),
 489:/home/xingli/share/LiteOS_Lab/network/dtls/mbedtls/mbedtls-2.16.2/library/ecp_curves.c ****     BYTES_TO_T_UINT_8( 0x28, 0x6D, 0x38, 0xA3, 0x82, 0x1E, 0xB9, 0x8C ),
 490:/home/xingli/share/LiteOS_Lab/network/dtls/mbedtls/mbedtls-2.16.2/library/ecp_curves.c **** };
 491:/home/xingli/share/LiteOS_Lab/network/dtls/mbedtls/mbedtls-2.16.2/library/ecp_curves.c **** #endif /* MBEDTLS_ECP_DP_BP384R1_ENABLED */
 492:/home/xingli/share/LiteOS_Lab/network/dtls/mbedtls/mbedtls-2.16.2/library/ecp_curves.c **** 
 493:/home/xingli/share/LiteOS_Lab/network/dtls/mbedtls/mbedtls-2.16.2/library/ecp_curves.c **** /*
 494:/home/xingli/share/LiteOS_Lab/network/dtls/mbedtls/mbedtls-2.16.2/library/ecp_curves.c ****  * Domain parameters for brainpoolP512r1 (RFC 5639 3.7)
 495:/home/xingli/share/LiteOS_Lab/network/dtls/mbedtls/mbedtls-2.16.2/library/ecp_curves.c ****  */
 496:/home/xingli/share/LiteOS_Lab/network/dtls/mbedtls/mbedtls-2.16.2/library/ecp_curves.c **** #if defined(MBEDTLS_ECP_DP_BP512R1_ENABLED)
 497:/home/xingli/share/LiteOS_Lab/network/dtls/mbedtls/mbedtls-2.16.2/library/ecp_curves.c **** static const mbedtls_mpi_uint brainpoolP512r1_p[] = {
 498:/home/xingli/share/LiteOS_Lab/network/dtls/mbedtls/mbedtls-2.16.2/library/ecp_curves.c ****     BYTES_TO_T_UINT_8( 0xF3, 0x48, 0x3A, 0x58, 0x56, 0x60, 0xAA, 0x28 ),
 499:/home/xingli/share/LiteOS_Lab/network/dtls/mbedtls/mbedtls-2.16.2/library/ecp_curves.c ****     BYTES_TO_T_UINT_8( 0x85, 0xC6, 0x82, 0x2D, 0x2F, 0xFF, 0x81, 0x28 ),
 500:/home/xingli/share/LiteOS_Lab/network/dtls/mbedtls/mbedtls-2.16.2/library/ecp_curves.c ****     BYTES_TO_T_UINT_8( 0xE6, 0x80, 0xA3, 0xE6, 0x2A, 0xA1, 0xCD, 0xAE ),
 501:/home/xingli/share/LiteOS_Lab/network/dtls/mbedtls/mbedtls-2.16.2/library/ecp_curves.c ****     BYTES_TO_T_UINT_8( 0x42, 0x68, 0xC6, 0x9B, 0x00, 0x9B, 0x4D, 0x7D ),
 502:/home/xingli/share/LiteOS_Lab/network/dtls/mbedtls/mbedtls-2.16.2/library/ecp_curves.c ****     BYTES_TO_T_UINT_8( 0x71, 0x08, 0x33, 0x70, 0xCA, 0x9C, 0x63, 0xD6 ),
 503:/home/xingli/share/LiteOS_Lab/network/dtls/mbedtls/mbedtls-2.16.2/library/ecp_curves.c ****     BYTES_TO_T_UINT_8( 0x0E, 0xD2, 0xC9, 0xB3, 0xB3, 0x8D, 0x30, 0xCB ),
 504:/home/xingli/share/LiteOS_Lab/network/dtls/mbedtls/mbedtls-2.16.2/library/ecp_curves.c ****     BYTES_TO_T_UINT_8( 0x07, 0xFC, 0xC9, 0x33, 0xAE, 0xE6, 0xD4, 0x3F ),
 505:/home/xingli/share/LiteOS_Lab/network/dtls/mbedtls/mbedtls-2.16.2/library/ecp_curves.c ****     BYTES_TO_T_UINT_8( 0x8B, 0xC4, 0xE9, 0xDB, 0xB8, 0x9D, 0xDD, 0xAA ),
 506:/home/xingli/share/LiteOS_Lab/network/dtls/mbedtls/mbedtls-2.16.2/library/ecp_curves.c **** };
 507:/home/xingli/share/LiteOS_Lab/network/dtls/mbedtls/mbedtls-2.16.2/library/ecp_curves.c **** static const mbedtls_mpi_uint brainpoolP512r1_a[] = {
 508:/home/xingli/share/LiteOS_Lab/network/dtls/mbedtls/mbedtls-2.16.2/library/ecp_curves.c ****     BYTES_TO_T_UINT_8( 0xCA, 0x94, 0xFC, 0x77, 0x4D, 0xAC, 0xC1, 0xE7 ),
 509:/home/xingli/share/LiteOS_Lab/network/dtls/mbedtls/mbedtls-2.16.2/library/ecp_curves.c ****     BYTES_TO_T_UINT_8( 0xB9, 0xC7, 0xF2, 0x2B, 0xA7, 0x17, 0x11, 0x7F ),
 510:/home/xingli/share/LiteOS_Lab/network/dtls/mbedtls/mbedtls-2.16.2/library/ecp_curves.c ****     BYTES_TO_T_UINT_8( 0xB5, 0xC8, 0x9A, 0x8B, 0xC9, 0xF1, 0x2E, 0x0A ),
 511:/home/xingli/share/LiteOS_Lab/network/dtls/mbedtls/mbedtls-2.16.2/library/ecp_curves.c ****     BYTES_TO_T_UINT_8( 0xA1, 0x3A, 0x25, 0xA8, 0x5A, 0x5D, 0xED, 0x2D ),
 512:/home/xingli/share/LiteOS_Lab/network/dtls/mbedtls/mbedtls-2.16.2/library/ecp_curves.c ****     BYTES_TO_T_UINT_8( 0xBC, 0x63, 0x98, 0xEA, 0xCA, 0x41, 0x34, 0xA8 ),
 513:/home/xingli/share/LiteOS_Lab/network/dtls/mbedtls/mbedtls-2.16.2/library/ecp_curves.c ****     BYTES_TO_T_UINT_8( 0x10, 0x16, 0xF9, 0x3D, 0x8D, 0xDD, 0xCB, 0x94 ),
 514:/home/xingli/share/LiteOS_Lab/network/dtls/mbedtls/mbedtls-2.16.2/library/ecp_curves.c ****     BYTES_TO_T_UINT_8( 0xC5, 0x4C, 0x23, 0xAC, 0x45, 0x71, 0x32, 0xE2 ),
 515:/home/xingli/share/LiteOS_Lab/network/dtls/mbedtls/mbedtls-2.16.2/library/ecp_curves.c ****     BYTES_TO_T_UINT_8( 0x89, 0x3B, 0x60, 0x8B, 0x31, 0xA3, 0x30, 0x78 ),
 516:/home/xingli/share/LiteOS_Lab/network/dtls/mbedtls/mbedtls-2.16.2/library/ecp_curves.c **** };
 517:/home/xingli/share/LiteOS_Lab/network/dtls/mbedtls/mbedtls-2.16.2/library/ecp_curves.c **** static const mbedtls_mpi_uint brainpoolP512r1_b[] = {
 518:/home/xingli/share/LiteOS_Lab/network/dtls/mbedtls/mbedtls-2.16.2/library/ecp_curves.c ****     BYTES_TO_T_UINT_8( 0x23, 0xF7, 0x16, 0x80, 0x63, 0xBD, 0x09, 0x28 ),
 519:/home/xingli/share/LiteOS_Lab/network/dtls/mbedtls/mbedtls-2.16.2/library/ecp_curves.c ****     BYTES_TO_T_UINT_8( 0xDD, 0xE5, 0xBA, 0x5E, 0xB7, 0x50, 0x40, 0x98 ),
 520:/home/xingli/share/LiteOS_Lab/network/dtls/mbedtls/mbedtls-2.16.2/library/ecp_curves.c ****     BYTES_TO_T_UINT_8( 0x67, 0x3E, 0x08, 0xDC, 0xCA, 0x94, 0xFC, 0x77 ),
 521:/home/xingli/share/LiteOS_Lab/network/dtls/mbedtls/mbedtls-2.16.2/library/ecp_curves.c ****     BYTES_TO_T_UINT_8( 0x4D, 0xAC, 0xC1, 0xE7, 0xB9, 0xC7, 0xF2, 0x2B ),
 522:/home/xingli/share/LiteOS_Lab/network/dtls/mbedtls/mbedtls-2.16.2/library/ecp_curves.c ****     BYTES_TO_T_UINT_8( 0xA7, 0x17, 0x11, 0x7F, 0xB5, 0xC8, 0x9A, 0x8B ),
 523:/home/xingli/share/LiteOS_Lab/network/dtls/mbedtls/mbedtls-2.16.2/library/ecp_curves.c ****     BYTES_TO_T_UINT_8( 0xC9, 0xF1, 0x2E, 0x0A, 0xA1, 0x3A, 0x25, 0xA8 ),
 524:/home/xingli/share/LiteOS_Lab/network/dtls/mbedtls/mbedtls-2.16.2/library/ecp_curves.c ****     BYTES_TO_T_UINT_8( 0x5A, 0x5D, 0xED, 0x2D, 0xBC, 0x63, 0x98, 0xEA ),
 525:/home/xingli/share/LiteOS_Lab/network/dtls/mbedtls/mbedtls-2.16.2/library/ecp_curves.c ****     BYTES_TO_T_UINT_8( 0xCA, 0x41, 0x34, 0xA8, 0x10, 0x16, 0xF9, 0x3D ),
 526:/home/xingli/share/LiteOS_Lab/network/dtls/mbedtls/mbedtls-2.16.2/library/ecp_curves.c **** };
 527:/home/xingli/share/LiteOS_Lab/network/dtls/mbedtls/mbedtls-2.16.2/library/ecp_curves.c **** static const mbedtls_mpi_uint brainpoolP512r1_gx[] = {
 528:/home/xingli/share/LiteOS_Lab/network/dtls/mbedtls/mbedtls-2.16.2/library/ecp_curves.c ****     BYTES_TO_T_UINT_8( 0x22, 0xF8, 0xB9, 0xBC, 0x09, 0x22, 0x35, 0x8B ),
 529:/home/xingli/share/LiteOS_Lab/network/dtls/mbedtls/mbedtls-2.16.2/library/ecp_curves.c ****     BYTES_TO_T_UINT_8( 0x68, 0x5E, 0x6A, 0x40, 0x47, 0x50, 0x6D, 0x7C ),
 530:/home/xingli/share/LiteOS_Lab/network/dtls/mbedtls/mbedtls-2.16.2/library/ecp_curves.c ****     BYTES_TO_T_UINT_8( 0x5F, 0x7D, 0xB9, 0x93, 0x7B, 0x68, 0xD1, 0x50 ),
GAS LISTING /tmp/ccBClcmz.s 			page 19


 531:/home/xingli/share/LiteOS_Lab/network/dtls/mbedtls/mbedtls-2.16.2/library/ecp_curves.c ****     BYTES_TO_T_UINT_8( 0x8D, 0xD4, 0xD0, 0xE2, 0x78, 0x1F, 0x3B, 0xFF ),
 532:/home/xingli/share/LiteOS_Lab/network/dtls/mbedtls/mbedtls-2.16.2/library/ecp_curves.c ****     BYTES_TO_T_UINT_8( 0x8E, 0x09, 0xD0, 0xF4, 0xEE, 0x62, 0x3B, 0xB4 ),
 533:/home/xingli/share/LiteOS_Lab/network/dtls/mbedtls/mbedtls-2.16.2/library/ecp_curves.c ****     BYTES_TO_T_UINT_8( 0xC1, 0x16, 0xD9, 0xB5, 0x70, 0x9F, 0xED, 0x85 ),
 534:/home/xingli/share/LiteOS_Lab/network/dtls/mbedtls/mbedtls-2.16.2/library/ecp_curves.c ****     BYTES_TO_T_UINT_8( 0x93, 0x6A, 0x4C, 0x9C, 0x2E, 0x32, 0x21, 0x5A ),
 535:/home/xingli/share/LiteOS_Lab/network/dtls/mbedtls/mbedtls-2.16.2/library/ecp_curves.c ****     BYTES_TO_T_UINT_8( 0x64, 0xD9, 0x2E, 0xD8, 0xBD, 0xE4, 0xAE, 0x81 ),
 536:/home/xingli/share/LiteOS_Lab/network/dtls/mbedtls/mbedtls-2.16.2/library/ecp_curves.c **** };
 537:/home/xingli/share/LiteOS_Lab/network/dtls/mbedtls/mbedtls-2.16.2/library/ecp_curves.c **** static const mbedtls_mpi_uint brainpoolP512r1_gy[] = {
 538:/home/xingli/share/LiteOS_Lab/network/dtls/mbedtls/mbedtls-2.16.2/library/ecp_curves.c ****     BYTES_TO_T_UINT_8( 0x92, 0x08, 0xD8, 0x3A, 0x0F, 0x1E, 0xCD, 0x78 ),
 539:/home/xingli/share/LiteOS_Lab/network/dtls/mbedtls/mbedtls-2.16.2/library/ecp_curves.c ****     BYTES_TO_T_UINT_8( 0x06, 0x54, 0xF0, 0xA8, 0x2F, 0x2B, 0xCA, 0xD1 ),
 540:/home/xingli/share/LiteOS_Lab/network/dtls/mbedtls/mbedtls-2.16.2/library/ecp_curves.c ****     BYTES_TO_T_UINT_8( 0xAE, 0x63, 0x27, 0x8A, 0xD8, 0x4B, 0xCA, 0x5B ),
 541:/home/xingli/share/LiteOS_Lab/network/dtls/mbedtls/mbedtls-2.16.2/library/ecp_curves.c ****     BYTES_TO_T_UINT_8( 0x5E, 0x48, 0x5F, 0x4A, 0x49, 0xDE, 0xDC, 0xB2 ),
 542:/home/xingli/share/LiteOS_Lab/network/dtls/mbedtls/mbedtls-2.16.2/library/ecp_curves.c ****     BYTES_TO_T_UINT_8( 0x11, 0x81, 0x1F, 0x88, 0x5B, 0xC5, 0x00, 0xA0 ),
 543:/home/xingli/share/LiteOS_Lab/network/dtls/mbedtls/mbedtls-2.16.2/library/ecp_curves.c ****     BYTES_TO_T_UINT_8( 0x1A, 0x7B, 0xA5, 0x24, 0x00, 0xF7, 0x09, 0xF2 ),
 544:/home/xingli/share/LiteOS_Lab/network/dtls/mbedtls/mbedtls-2.16.2/library/ecp_curves.c ****     BYTES_TO_T_UINT_8( 0xFD, 0x22, 0x78, 0xCF, 0xA9, 0xBF, 0xEA, 0xC0 ),
 545:/home/xingli/share/LiteOS_Lab/network/dtls/mbedtls/mbedtls-2.16.2/library/ecp_curves.c ****     BYTES_TO_T_UINT_8( 0xEC, 0x32, 0x63, 0x56, 0x5D, 0x38, 0xDE, 0x7D ),
 546:/home/xingli/share/LiteOS_Lab/network/dtls/mbedtls/mbedtls-2.16.2/library/ecp_curves.c **** };
 547:/home/xingli/share/LiteOS_Lab/network/dtls/mbedtls/mbedtls-2.16.2/library/ecp_curves.c **** static const mbedtls_mpi_uint brainpoolP512r1_n[] = {
 548:/home/xingli/share/LiteOS_Lab/network/dtls/mbedtls/mbedtls-2.16.2/library/ecp_curves.c ****     BYTES_TO_T_UINT_8( 0x69, 0x00, 0xA9, 0x9C, 0x82, 0x96, 0x87, 0xB5 ),
 549:/home/xingli/share/LiteOS_Lab/network/dtls/mbedtls/mbedtls-2.16.2/library/ecp_curves.c ****     BYTES_TO_T_UINT_8( 0xDD, 0xDA, 0x5D, 0x08, 0x81, 0xD3, 0xB1, 0x1D ),
 550:/home/xingli/share/LiteOS_Lab/network/dtls/mbedtls/mbedtls-2.16.2/library/ecp_curves.c ****     BYTES_TO_T_UINT_8( 0x47, 0x10, 0xAC, 0x7F, 0x19, 0x61, 0x86, 0x41 ),
 551:/home/xingli/share/LiteOS_Lab/network/dtls/mbedtls/mbedtls-2.16.2/library/ecp_curves.c ****     BYTES_TO_T_UINT_8( 0x19, 0x26, 0xA9, 0x4C, 0x41, 0x5C, 0x3E, 0x55 ),
 552:/home/xingli/share/LiteOS_Lab/network/dtls/mbedtls/mbedtls-2.16.2/library/ecp_curves.c ****     BYTES_TO_T_UINT_8( 0x70, 0x08, 0x33, 0x70, 0xCA, 0x9C, 0x63, 0xD6 ),
 553:/home/xingli/share/LiteOS_Lab/network/dtls/mbedtls/mbedtls-2.16.2/library/ecp_curves.c ****     BYTES_TO_T_UINT_8( 0x0E, 0xD2, 0xC9, 0xB3, 0xB3, 0x8D, 0x30, 0xCB ),
 554:/home/xingli/share/LiteOS_Lab/network/dtls/mbedtls/mbedtls-2.16.2/library/ecp_curves.c ****     BYTES_TO_T_UINT_8( 0x07, 0xFC, 0xC9, 0x33, 0xAE, 0xE6, 0xD4, 0x3F ),
 555:/home/xingli/share/LiteOS_Lab/network/dtls/mbedtls/mbedtls-2.16.2/library/ecp_curves.c ****     BYTES_TO_T_UINT_8( 0x8B, 0xC4, 0xE9, 0xDB, 0xB8, 0x9D, 0xDD, 0xAA ),
 556:/home/xingli/share/LiteOS_Lab/network/dtls/mbedtls/mbedtls-2.16.2/library/ecp_curves.c **** };
 557:/home/xingli/share/LiteOS_Lab/network/dtls/mbedtls/mbedtls-2.16.2/library/ecp_curves.c **** #endif /* MBEDTLS_ECP_DP_BP512R1_ENABLED */
 558:/home/xingli/share/LiteOS_Lab/network/dtls/mbedtls/mbedtls-2.16.2/library/ecp_curves.c **** 
 559:/home/xingli/share/LiteOS_Lab/network/dtls/mbedtls/mbedtls-2.16.2/library/ecp_curves.c **** /*
 560:/home/xingli/share/LiteOS_Lab/network/dtls/mbedtls/mbedtls-2.16.2/library/ecp_curves.c ****  * Create an MPI from embedded constants
 561:/home/xingli/share/LiteOS_Lab/network/dtls/mbedtls/mbedtls-2.16.2/library/ecp_curves.c ****  * (assumes len is an exact multiple of sizeof mbedtls_mpi_uint)
 562:/home/xingli/share/LiteOS_Lab/network/dtls/mbedtls/mbedtls-2.16.2/library/ecp_curves.c ****  */
 563:/home/xingli/share/LiteOS_Lab/network/dtls/mbedtls/mbedtls-2.16.2/library/ecp_curves.c **** static inline void ecp_mpi_load( mbedtls_mpi *X, const mbedtls_mpi_uint *p, size_t len )
 564:/home/xingli/share/LiteOS_Lab/network/dtls/mbedtls/mbedtls-2.16.2/library/ecp_curves.c **** {
 404              		.loc 1 564 1
 405              		.cfi_startproc
 406 0000 55       		pushq	%rbp
 407              	.LCFI0:
 408              		.cfi_def_cfa_offset 16
 409              		.cfi_offset 6, -16
 410 0001 4889E5   		movq	%rsp, %rbp
 411              	.LCFI1:
 412              		.cfi_def_cfa_register 6
 413 0004 4883EC30 		subq	$48, %rsp
 414 0008 48897DE8 		movq	%rdi, -24(%rbp)
 415 000c 488975E0 		movq	%rsi, -32(%rbp)
 416 0010 488955D8 		movq	%rdx, -40(%rbp)
 417              		.loc 1 564 1
 418 0014 64488B04 		movq	%fs:40, %rax
 418      25280000 
 418      00
 419 001d 488945F8 		movq	%rax, -8(%rbp)
 420 0021 31C0     		xorl	%eax, %eax
 565:/home/xingli/share/LiteOS_Lab/network/dtls/mbedtls/mbedtls-2.16.2/library/ecp_curves.c ****     X->s = 1;
 421              		.loc 1 565 10
 422 0023 488B45E8 		movq	-24(%rbp), %rax
 423 0027 C7000100 		movl	$1, (%rax)
GAS LISTING /tmp/ccBClcmz.s 			page 20


 423      0000
 566:/home/xingli/share/LiteOS_Lab/network/dtls/mbedtls/mbedtls-2.16.2/library/ecp_curves.c ****     X->n = len / sizeof( mbedtls_mpi_uint );
 424              		.loc 1 566 16
 425 002d 488B45D8 		movq	-40(%rbp), %rax
 426 0031 48C1E803 		shrq	$3, %rax
 427 0035 4889C2   		movq	%rax, %rdx
 428              		.loc 1 566 10
 429 0038 488B45E8 		movq	-24(%rbp), %rax
 430 003c 48895008 		movq	%rdx, 8(%rax)
 567:/home/xingli/share/LiteOS_Lab/network/dtls/mbedtls/mbedtls-2.16.2/library/ecp_curves.c ****     X->p = (mbedtls_mpi_uint *) p;
 431              		.loc 1 567 10
 432 0040 488B45E8 		movq	-24(%rbp), %rax
 433 0044 488B55E0 		movq	-32(%rbp), %rdx
 434 0048 48895010 		movq	%rdx, 16(%rax)
 568:/home/xingli/share/LiteOS_Lab/network/dtls/mbedtls/mbedtls-2.16.2/library/ecp_curves.c **** }
 435              		.loc 1 568 1
 436 004c 90       		nop
 437 004d 488B45F8 		movq	-8(%rbp), %rax
 438 0051 64483304 		xorq	%fs:40, %rax
 438      25280000 
 438      00
 439 005a 7405     		je	.L2
 440 005c E8000000 		call	__stack_chk_fail@PLT
 440      00
 441              	.L2:
 442 0061 C9       		leave
 443              	.LCFI2:
 444              		.cfi_def_cfa 7, 8
 445 0062 C3       		ret
 446              		.cfi_endproc
 447              	.LFE0:
 449              		.section	.text.ecp_mpi_set1,"ax",@progbits
 451              	ecp_mpi_set1:
 452              	.LFB1:
 569:/home/xingli/share/LiteOS_Lab/network/dtls/mbedtls/mbedtls-2.16.2/library/ecp_curves.c **** 
 570:/home/xingli/share/LiteOS_Lab/network/dtls/mbedtls/mbedtls-2.16.2/library/ecp_curves.c **** /*
 571:/home/xingli/share/LiteOS_Lab/network/dtls/mbedtls/mbedtls-2.16.2/library/ecp_curves.c ****  * Set an MPI to static value 1
 572:/home/xingli/share/LiteOS_Lab/network/dtls/mbedtls/mbedtls-2.16.2/library/ecp_curves.c ****  */
 573:/home/xingli/share/LiteOS_Lab/network/dtls/mbedtls/mbedtls-2.16.2/library/ecp_curves.c **** static inline void ecp_mpi_set1( mbedtls_mpi *X )
 574:/home/xingli/share/LiteOS_Lab/network/dtls/mbedtls/mbedtls-2.16.2/library/ecp_curves.c **** {
 453              		.loc 1 574 1
 454              		.cfi_startproc
 455 0000 55       		pushq	%rbp
 456              	.LCFI3:
 457              		.cfi_def_cfa_offset 16
 458              		.cfi_offset 6, -16
 459 0001 4889E5   		movq	%rsp, %rbp
 460              	.LCFI4:
 461              		.cfi_def_cfa_register 6
 462 0004 4883EC20 		subq	$32, %rsp
 463 0008 48897DE8 		movq	%rdi, -24(%rbp)
 464              		.loc 1 574 1
 465 000c 64488B04 		movq	%fs:40, %rax
 465      25280000 
 465      00
 466 0015 488945F8 		movq	%rax, -8(%rbp)
 467 0019 31C0     		xorl	%eax, %eax
GAS LISTING /tmp/ccBClcmz.s 			page 21


 575:/home/xingli/share/LiteOS_Lab/network/dtls/mbedtls/mbedtls-2.16.2/library/ecp_curves.c ****     static mbedtls_mpi_uint one[] = { 1 };
 576:/home/xingli/share/LiteOS_Lab/network/dtls/mbedtls/mbedtls-2.16.2/library/ecp_curves.c ****     X->s = 1;
 468              		.loc 1 576 10
 469 001b 488B45E8 		movq	-24(%rbp), %rax
 470 001f C7000100 		movl	$1, (%rax)
 470      0000
 577:/home/xingli/share/LiteOS_Lab/network/dtls/mbedtls/mbedtls-2.16.2/library/ecp_curves.c ****     X->n = 1;
 471              		.loc 1 577 10
 472 0025 488B45E8 		movq	-24(%rbp), %rax
 473 0029 48C74008 		movq	$1, 8(%rax)
 473      01000000 
 578:/home/xingli/share/LiteOS_Lab/network/dtls/mbedtls/mbedtls-2.16.2/library/ecp_curves.c ****     X->p = one;
 474              		.loc 1 578 10
 475 0031 488B45E8 		movq	-24(%rbp), %rax
 476 0035 488D1500 		leaq	one.2640(%rip), %rdx
 476      000000
 477 003c 48895010 		movq	%rdx, 16(%rax)
 579:/home/xingli/share/LiteOS_Lab/network/dtls/mbedtls/mbedtls-2.16.2/library/ecp_curves.c **** }
 478              		.loc 1 579 1
 479 0040 90       		nop
 480 0041 488B45F8 		movq	-8(%rbp), %rax
 481 0045 64483304 		xorq	%fs:40, %rax
 481      25280000 
 481      00
 482 004e 7405     		je	.L4
 483 0050 E8000000 		call	__stack_chk_fail@PLT
 483      00
 484              	.L4:
 485 0055 C9       		leave
 486              	.LCFI5:
 487              		.cfi_def_cfa 7, 8
 488 0056 C3       		ret
 489              		.cfi_endproc
 490              	.LFE1:
 492              		.section	.text.ecp_group_load,"ax",@progbits
 494              	ecp_group_load:
 495              	.LFB2:
 580:/home/xingli/share/LiteOS_Lab/network/dtls/mbedtls/mbedtls-2.16.2/library/ecp_curves.c **** 
 581:/home/xingli/share/LiteOS_Lab/network/dtls/mbedtls/mbedtls-2.16.2/library/ecp_curves.c **** /*
 582:/home/xingli/share/LiteOS_Lab/network/dtls/mbedtls/mbedtls-2.16.2/library/ecp_curves.c ****  * Make group available from embedded constants
 583:/home/xingli/share/LiteOS_Lab/network/dtls/mbedtls/mbedtls-2.16.2/library/ecp_curves.c ****  */
 584:/home/xingli/share/LiteOS_Lab/network/dtls/mbedtls/mbedtls-2.16.2/library/ecp_curves.c **** static int ecp_group_load( mbedtls_ecp_group *grp,
 585:/home/xingli/share/LiteOS_Lab/network/dtls/mbedtls/mbedtls-2.16.2/library/ecp_curves.c ****                            const mbedtls_mpi_uint *p,  size_t plen,
 586:/home/xingli/share/LiteOS_Lab/network/dtls/mbedtls/mbedtls-2.16.2/library/ecp_curves.c ****                            const mbedtls_mpi_uint *a,  size_t alen,
 587:/home/xingli/share/LiteOS_Lab/network/dtls/mbedtls/mbedtls-2.16.2/library/ecp_curves.c ****                            const mbedtls_mpi_uint *b,  size_t blen,
 588:/home/xingli/share/LiteOS_Lab/network/dtls/mbedtls/mbedtls-2.16.2/library/ecp_curves.c ****                            const mbedtls_mpi_uint *gx, size_t gxlen,
 589:/home/xingli/share/LiteOS_Lab/network/dtls/mbedtls/mbedtls-2.16.2/library/ecp_curves.c ****                            const mbedtls_mpi_uint *gy, size_t gylen,
 590:/home/xingli/share/LiteOS_Lab/network/dtls/mbedtls/mbedtls-2.16.2/library/ecp_curves.c ****                            const mbedtls_mpi_uint *n,  size_t nlen)
 591:/home/xingli/share/LiteOS_Lab/network/dtls/mbedtls/mbedtls-2.16.2/library/ecp_curves.c **** {
 496              		.loc 1 591 1
 497              		.cfi_startproc
 498 0000 F30F1EFA 		endbr64
 499 0004 55       		pushq	%rbp
 500              	.LCFI6:
 501              		.cfi_def_cfa_offset 16
 502              		.cfi_offset 6, -16
 503 0005 4889E5   		movq	%rsp, %rbp
GAS LISTING /tmp/ccBClcmz.s 			page 22


 504              	.LCFI7:
 505              		.cfi_def_cfa_register 6
 506 0008 4883C480 		addq	$-128, %rsp
 507 000c 48897DE8 		movq	%rdi, -24(%rbp)
 508 0010 488975E0 		movq	%rsi, -32(%rbp)
 509 0014 488955D8 		movq	%rdx, -40(%rbp)
 510 0018 48894DD0 		movq	%rcx, -48(%rbp)
 511 001c 4C8945C8 		movq	%r8, -56(%rbp)
 512 0020 4C894DC0 		movq	%r9, -64(%rbp)
 513 0024 488B4510 		movq	16(%rbp), %rax
 514 0028 488945B8 		movq	%rax, -72(%rbp)
 515 002c 488B4518 		movq	24(%rbp), %rax
 516 0030 488945B0 		movq	%rax, -80(%rbp)
 517 0034 488B4520 		movq	32(%rbp), %rax
 518 0038 488945A8 		movq	%rax, -88(%rbp)
 519 003c 488B4528 		movq	40(%rbp), %rax
 520 0040 488945A0 		movq	%rax, -96(%rbp)
 521 0044 488B4530 		movq	48(%rbp), %rax
 522 0048 48894598 		movq	%rax, -104(%rbp)
 523 004c 488B4538 		movq	56(%rbp), %rax
 524 0050 48894590 		movq	%rax, -112(%rbp)
 525 0054 488B4540 		movq	64(%rbp), %rax
 526 0058 48894588 		movq	%rax, -120(%rbp)
 527              		.loc 1 591 1
 528 005c 64488B04 		movq	%fs:40, %rax
 528      25280000 
 528      00
 529 0065 488945F8 		movq	%rax, -8(%rbp)
 530 0069 31C0     		xorl	%eax, %eax
 592:/home/xingli/share/LiteOS_Lab/network/dtls/mbedtls/mbedtls-2.16.2/library/ecp_curves.c ****     ecp_mpi_load( &grp->P, p, plen );
 531              		.loc 1 592 5
 532 006b 488B45E8 		movq	-24(%rbp), %rax
 533 006f 488D4808 		leaq	8(%rax), %rcx
 534 0073 488B55D8 		movq	-40(%rbp), %rdx
 535 0077 488B45E0 		movq	-32(%rbp), %rax
 536 007b 4889C6   		movq	%rax, %rsi
 537 007e 4889CF   		movq	%rcx, %rdi
 538 0081 E8000000 		call	ecp_mpi_load
 538      00
 593:/home/xingli/share/LiteOS_Lab/network/dtls/mbedtls/mbedtls-2.16.2/library/ecp_curves.c ****     if( a != NULL )
 539              		.loc 1 593 7
 540 0086 48837DD0 		cmpq	$0, -48(%rbp)
 540      00
 541 008b 741B     		je	.L6
 594:/home/xingli/share/LiteOS_Lab/network/dtls/mbedtls/mbedtls-2.16.2/library/ecp_curves.c ****         ecp_mpi_load( &grp->A, a, alen );
 542              		.loc 1 594 9
 543 008d 488B45E8 		movq	-24(%rbp), %rax
 544 0091 488D4820 		leaq	32(%rax), %rcx
 545 0095 488B55C8 		movq	-56(%rbp), %rdx
 546 0099 488B45D0 		movq	-48(%rbp), %rax
 547 009d 4889C6   		movq	%rax, %rsi
 548 00a0 4889CF   		movq	%rcx, %rdi
 549 00a3 E8000000 		call	ecp_mpi_load
 549      00
 550              	.L6:
 595:/home/xingli/share/LiteOS_Lab/network/dtls/mbedtls/mbedtls-2.16.2/library/ecp_curves.c ****     ecp_mpi_load( &grp->B, b, blen );
 551              		.loc 1 595 5
GAS LISTING /tmp/ccBClcmz.s 			page 23


 552 00a8 488B45E8 		movq	-24(%rbp), %rax
 553 00ac 488D4838 		leaq	56(%rax), %rcx
 554 00b0 488B55B8 		movq	-72(%rbp), %rdx
 555 00b4 488B45C0 		movq	-64(%rbp), %rax
 556 00b8 4889C6   		movq	%rax, %rsi
 557 00bb 4889CF   		movq	%rcx, %rdi
 558 00be E8000000 		call	ecp_mpi_load
 558      00
 596:/home/xingli/share/LiteOS_Lab/network/dtls/mbedtls/mbedtls-2.16.2/library/ecp_curves.c ****     ecp_mpi_load( &grp->N, n, nlen );
 559              		.loc 1 596 5
 560 00c3 488B45E8 		movq	-24(%rbp), %rax
 561 00c7 488D8898 		leaq	152(%rax), %rcx
 561      000000
 562 00ce 488B5588 		movq	-120(%rbp), %rdx
 563 00d2 488B4590 		movq	-112(%rbp), %rax
 564 00d6 4889C6   		movq	%rax, %rsi
 565 00d9 4889CF   		movq	%rcx, %rdi
 566 00dc E8000000 		call	ecp_mpi_load
 566      00
 597:/home/xingli/share/LiteOS_Lab/network/dtls/mbedtls/mbedtls-2.16.2/library/ecp_curves.c **** 
 598:/home/xingli/share/LiteOS_Lab/network/dtls/mbedtls/mbedtls-2.16.2/library/ecp_curves.c ****     ecp_mpi_load( &grp->G.X, gx, gxlen );
 567              		.loc 1 598 5
 568 00e1 488B45E8 		movq	-24(%rbp), %rax
 569 00e5 488D4850 		leaq	80(%rax), %rcx
 570 00e9 488B55A8 		movq	-88(%rbp), %rdx
 571 00ed 488B45B0 		movq	-80(%rbp), %rax
 572 00f1 4889C6   		movq	%rax, %rsi
 573 00f4 4889CF   		movq	%rcx, %rdi
 574 00f7 E8000000 		call	ecp_mpi_load
 574      00
 599:/home/xingli/share/LiteOS_Lab/network/dtls/mbedtls/mbedtls-2.16.2/library/ecp_curves.c ****     ecp_mpi_load( &grp->G.Y, gy, gylen );
 575              		.loc 1 599 5
 576 00fc 488B45E8 		movq	-24(%rbp), %rax
 577 0100 488D4868 		leaq	104(%rax), %rcx
 578 0104 488B5598 		movq	-104(%rbp), %rdx
 579 0108 488B45A0 		movq	-96(%rbp), %rax
 580 010c 4889C6   		movq	%rax, %rsi
 581 010f 4889CF   		movq	%rcx, %rdi
 582 0112 E8000000 		call	ecp_mpi_load
 582      00
 600:/home/xingli/share/LiteOS_Lab/network/dtls/mbedtls/mbedtls-2.16.2/library/ecp_curves.c ****     ecp_mpi_set1( &grp->G.Z );
 583              		.loc 1 600 5
 584 0117 488B45E8 		movq	-24(%rbp), %rax
 585 011b 4883E880 		subq	$-128, %rax
 586 011f 4889C7   		movq	%rax, %rdi
 587 0122 E8000000 		call	ecp_mpi_set1
 587      00
 601:/home/xingli/share/LiteOS_Lab/network/dtls/mbedtls/mbedtls-2.16.2/library/ecp_curves.c **** 
 602:/home/xingli/share/LiteOS_Lab/network/dtls/mbedtls/mbedtls-2.16.2/library/ecp_curves.c ****     grp->pbits = mbedtls_mpi_bitlen( &grp->P );
 588              		.loc 1 602 38
 589 0127 488B45E8 		movq	-24(%rbp), %rax
 590 012b 4883C008 		addq	$8, %rax
 591              		.loc 1 602 18
 592 012f 4889C7   		movq	%rax, %rdi
 593 0132 E8000000 		call	mbedtls_mpi_bitlen@PLT
 593      00
 594              		.loc 1 602 16
GAS LISTING /tmp/ccBClcmz.s 			page 24


 595 0137 488B55E8 		movq	-24(%rbp), %rdx
 596 013b 488982B0 		movq	%rax, 176(%rdx)
 596      000000
 603:/home/xingli/share/LiteOS_Lab/network/dtls/mbedtls/mbedtls-2.16.2/library/ecp_curves.c ****     grp->nbits = mbedtls_mpi_bitlen( &grp->N );
 597              		.loc 1 603 38
 598 0142 488B45E8 		movq	-24(%rbp), %rax
 599 0146 48059800 		addq	$152, %rax
 599      0000
 600              		.loc 1 603 18
 601 014c 4889C7   		movq	%rax, %rdi
 602 014f E8000000 		call	mbedtls_mpi_bitlen@PLT
 602      00
 603              		.loc 1 603 16
 604 0154 488B55E8 		movq	-24(%rbp), %rdx
 605 0158 488982B8 		movq	%rax, 184(%rdx)
 605      000000
 604:/home/xingli/share/LiteOS_Lab/network/dtls/mbedtls/mbedtls-2.16.2/library/ecp_curves.c **** 
 605:/home/xingli/share/LiteOS_Lab/network/dtls/mbedtls/mbedtls-2.16.2/library/ecp_curves.c ****     grp->h = 1;
 606              		.loc 1 605 12
 607 015f 488B45E8 		movq	-24(%rbp), %rax
 608 0163 C780C000 		movl	$1, 192(%rax)
 608      00000100 
 608      0000
 606:/home/xingli/share/LiteOS_Lab/network/dtls/mbedtls/mbedtls-2.16.2/library/ecp_curves.c **** 
 607:/home/xingli/share/LiteOS_Lab/network/dtls/mbedtls/mbedtls-2.16.2/library/ecp_curves.c ****     return( 0 );
 609              		.loc 1 607 11
 610 016d B8000000 		movl	$0, %eax
 610      00
 608:/home/xingli/share/LiteOS_Lab/network/dtls/mbedtls/mbedtls-2.16.2/library/ecp_curves.c **** }
 611              		.loc 1 608 1
 612 0172 488B75F8 		movq	-8(%rbp), %rsi
 613 0176 64483334 		xorq	%fs:40, %rsi
 613      25280000 
 613      00
 614 017f 7405     		je	.L8
 615 0181 E8000000 		call	__stack_chk_fail@PLT
 615      00
 616              	.L8:
 617 0186 C9       		leave
 618              	.LCFI8:
 619              		.cfi_def_cfa 7, 8
 620 0187 C3       		ret
 621              		.cfi_endproc
 622              	.LFE2:
 624              		.section	.text.mbedtls_ecp_group_load,"ax",@progbits
 625              		.globl	mbedtls_ecp_group_load
 627              	mbedtls_ecp_group_load:
 628              	.LFB3:
 609:/home/xingli/share/LiteOS_Lab/network/dtls/mbedtls/mbedtls-2.16.2/library/ecp_curves.c **** 
 610:/home/xingli/share/LiteOS_Lab/network/dtls/mbedtls/mbedtls-2.16.2/library/ecp_curves.c **** #if defined(MBEDTLS_ECP_NIST_OPTIM)
 611:/home/xingli/share/LiteOS_Lab/network/dtls/mbedtls/mbedtls-2.16.2/library/ecp_curves.c **** /* Forward declarations */
 612:/home/xingli/share/LiteOS_Lab/network/dtls/mbedtls/mbedtls-2.16.2/library/ecp_curves.c **** #if defined(MBEDTLS_ECP_DP_SECP192R1_ENABLED)
 613:/home/xingli/share/LiteOS_Lab/network/dtls/mbedtls/mbedtls-2.16.2/library/ecp_curves.c **** static int ecp_mod_p192( mbedtls_mpi * );
 614:/home/xingli/share/LiteOS_Lab/network/dtls/mbedtls/mbedtls-2.16.2/library/ecp_curves.c **** #endif
 615:/home/xingli/share/LiteOS_Lab/network/dtls/mbedtls/mbedtls-2.16.2/library/ecp_curves.c **** #if defined(MBEDTLS_ECP_DP_SECP224R1_ENABLED)
 616:/home/xingli/share/LiteOS_Lab/network/dtls/mbedtls/mbedtls-2.16.2/library/ecp_curves.c **** static int ecp_mod_p224( mbedtls_mpi * );
 617:/home/xingli/share/LiteOS_Lab/network/dtls/mbedtls/mbedtls-2.16.2/library/ecp_curves.c **** #endif
GAS LISTING /tmp/ccBClcmz.s 			page 25


 618:/home/xingli/share/LiteOS_Lab/network/dtls/mbedtls/mbedtls-2.16.2/library/ecp_curves.c **** #if defined(MBEDTLS_ECP_DP_SECP256R1_ENABLED)
 619:/home/xingli/share/LiteOS_Lab/network/dtls/mbedtls/mbedtls-2.16.2/library/ecp_curves.c **** static int ecp_mod_p256( mbedtls_mpi * );
 620:/home/xingli/share/LiteOS_Lab/network/dtls/mbedtls/mbedtls-2.16.2/library/ecp_curves.c **** #endif
 621:/home/xingli/share/LiteOS_Lab/network/dtls/mbedtls/mbedtls-2.16.2/library/ecp_curves.c **** #if defined(MBEDTLS_ECP_DP_SECP384R1_ENABLED)
 622:/home/xingli/share/LiteOS_Lab/network/dtls/mbedtls/mbedtls-2.16.2/library/ecp_curves.c **** static int ecp_mod_p384( mbedtls_mpi * );
 623:/home/xingli/share/LiteOS_Lab/network/dtls/mbedtls/mbedtls-2.16.2/library/ecp_curves.c **** #endif
 624:/home/xingli/share/LiteOS_Lab/network/dtls/mbedtls/mbedtls-2.16.2/library/ecp_curves.c **** #if defined(MBEDTLS_ECP_DP_SECP521R1_ENABLED)
 625:/home/xingli/share/LiteOS_Lab/network/dtls/mbedtls/mbedtls-2.16.2/library/ecp_curves.c **** static int ecp_mod_p521( mbedtls_mpi * );
 626:/home/xingli/share/LiteOS_Lab/network/dtls/mbedtls/mbedtls-2.16.2/library/ecp_curves.c **** #endif
 627:/home/xingli/share/LiteOS_Lab/network/dtls/mbedtls/mbedtls-2.16.2/library/ecp_curves.c **** 
 628:/home/xingli/share/LiteOS_Lab/network/dtls/mbedtls/mbedtls-2.16.2/library/ecp_curves.c **** #define NIST_MODP( P )      grp->modp = ecp_mod_ ## P;
 629:/home/xingli/share/LiteOS_Lab/network/dtls/mbedtls/mbedtls-2.16.2/library/ecp_curves.c **** #else
 630:/home/xingli/share/LiteOS_Lab/network/dtls/mbedtls/mbedtls-2.16.2/library/ecp_curves.c **** #define NIST_MODP( P )
 631:/home/xingli/share/LiteOS_Lab/network/dtls/mbedtls/mbedtls-2.16.2/library/ecp_curves.c **** #endif /* MBEDTLS_ECP_NIST_OPTIM */
 632:/home/xingli/share/LiteOS_Lab/network/dtls/mbedtls/mbedtls-2.16.2/library/ecp_curves.c **** 
 633:/home/xingli/share/LiteOS_Lab/network/dtls/mbedtls/mbedtls-2.16.2/library/ecp_curves.c **** /* Additional forward declarations */
 634:/home/xingli/share/LiteOS_Lab/network/dtls/mbedtls/mbedtls-2.16.2/library/ecp_curves.c **** #if defined(MBEDTLS_ECP_DP_CURVE25519_ENABLED)
 635:/home/xingli/share/LiteOS_Lab/network/dtls/mbedtls/mbedtls-2.16.2/library/ecp_curves.c **** static int ecp_mod_p255( mbedtls_mpi * );
 636:/home/xingli/share/LiteOS_Lab/network/dtls/mbedtls/mbedtls-2.16.2/library/ecp_curves.c **** #endif
 637:/home/xingli/share/LiteOS_Lab/network/dtls/mbedtls/mbedtls-2.16.2/library/ecp_curves.c **** #if defined(MBEDTLS_ECP_DP_CURVE448_ENABLED)
 638:/home/xingli/share/LiteOS_Lab/network/dtls/mbedtls/mbedtls-2.16.2/library/ecp_curves.c **** static int ecp_mod_p448( mbedtls_mpi * );
 639:/home/xingli/share/LiteOS_Lab/network/dtls/mbedtls/mbedtls-2.16.2/library/ecp_curves.c **** #endif
 640:/home/xingli/share/LiteOS_Lab/network/dtls/mbedtls/mbedtls-2.16.2/library/ecp_curves.c **** #if defined(MBEDTLS_ECP_DP_SECP192K1_ENABLED)
 641:/home/xingli/share/LiteOS_Lab/network/dtls/mbedtls/mbedtls-2.16.2/library/ecp_curves.c **** static int ecp_mod_p192k1( mbedtls_mpi * );
 642:/home/xingli/share/LiteOS_Lab/network/dtls/mbedtls/mbedtls-2.16.2/library/ecp_curves.c **** #endif
 643:/home/xingli/share/LiteOS_Lab/network/dtls/mbedtls/mbedtls-2.16.2/library/ecp_curves.c **** #if defined(MBEDTLS_ECP_DP_SECP224K1_ENABLED)
 644:/home/xingli/share/LiteOS_Lab/network/dtls/mbedtls/mbedtls-2.16.2/library/ecp_curves.c **** static int ecp_mod_p224k1( mbedtls_mpi * );
 645:/home/xingli/share/LiteOS_Lab/network/dtls/mbedtls/mbedtls-2.16.2/library/ecp_curves.c **** #endif
 646:/home/xingli/share/LiteOS_Lab/network/dtls/mbedtls/mbedtls-2.16.2/library/ecp_curves.c **** #if defined(MBEDTLS_ECP_DP_SECP256K1_ENABLED)
 647:/home/xingli/share/LiteOS_Lab/network/dtls/mbedtls/mbedtls-2.16.2/library/ecp_curves.c **** static int ecp_mod_p256k1( mbedtls_mpi * );
 648:/home/xingli/share/LiteOS_Lab/network/dtls/mbedtls/mbedtls-2.16.2/library/ecp_curves.c **** #endif
 649:/home/xingli/share/LiteOS_Lab/network/dtls/mbedtls/mbedtls-2.16.2/library/ecp_curves.c **** 
 650:/home/xingli/share/LiteOS_Lab/network/dtls/mbedtls/mbedtls-2.16.2/library/ecp_curves.c **** #define LOAD_GROUP_A( G )   ecp_group_load( grp,            \
 651:/home/xingli/share/LiteOS_Lab/network/dtls/mbedtls/mbedtls-2.16.2/library/ecp_curves.c ****                             G ## _p,  sizeof( G ## _p  ),   \
 652:/home/xingli/share/LiteOS_Lab/network/dtls/mbedtls/mbedtls-2.16.2/library/ecp_curves.c ****                             G ## _a,  sizeof( G ## _a  ),   \
 653:/home/xingli/share/LiteOS_Lab/network/dtls/mbedtls/mbedtls-2.16.2/library/ecp_curves.c ****                             G ## _b,  sizeof( G ## _b  ),   \
 654:/home/xingli/share/LiteOS_Lab/network/dtls/mbedtls/mbedtls-2.16.2/library/ecp_curves.c ****                             G ## _gx, sizeof( G ## _gx ),   \
 655:/home/xingli/share/LiteOS_Lab/network/dtls/mbedtls/mbedtls-2.16.2/library/ecp_curves.c ****                             G ## _gy, sizeof( G ## _gy ),   \
 656:/home/xingli/share/LiteOS_Lab/network/dtls/mbedtls/mbedtls-2.16.2/library/ecp_curves.c ****                             G ## _n,  sizeof( G ## _n  ) )
 657:/home/xingli/share/LiteOS_Lab/network/dtls/mbedtls/mbedtls-2.16.2/library/ecp_curves.c **** 
 658:/home/xingli/share/LiteOS_Lab/network/dtls/mbedtls/mbedtls-2.16.2/library/ecp_curves.c **** #define LOAD_GROUP( G )     ecp_group_load( grp,            \
 659:/home/xingli/share/LiteOS_Lab/network/dtls/mbedtls/mbedtls-2.16.2/library/ecp_curves.c ****                             G ## _p,  sizeof( G ## _p  ),   \
 660:/home/xingli/share/LiteOS_Lab/network/dtls/mbedtls/mbedtls-2.16.2/library/ecp_curves.c ****                             NULL,     0,                    \
 661:/home/xingli/share/LiteOS_Lab/network/dtls/mbedtls/mbedtls-2.16.2/library/ecp_curves.c ****                             G ## _b,  sizeof( G ## _b  ),   \
 662:/home/xingli/share/LiteOS_Lab/network/dtls/mbedtls/mbedtls-2.16.2/library/ecp_curves.c ****                             G ## _gx, sizeof( G ## _gx ),   \
 663:/home/xingli/share/LiteOS_Lab/network/dtls/mbedtls/mbedtls-2.16.2/library/ecp_curves.c ****                             G ## _gy, sizeof( G ## _gy ),   \
 664:/home/xingli/share/LiteOS_Lab/network/dtls/mbedtls/mbedtls-2.16.2/library/ecp_curves.c ****                             G ## _n,  sizeof( G ## _n  ) )
 665:/home/xingli/share/LiteOS_Lab/network/dtls/mbedtls/mbedtls-2.16.2/library/ecp_curves.c **** 
 666:/home/xingli/share/LiteOS_Lab/network/dtls/mbedtls/mbedtls-2.16.2/library/ecp_curves.c **** #if defined(MBEDTLS_ECP_DP_CURVE25519_ENABLED)
 667:/home/xingli/share/LiteOS_Lab/network/dtls/mbedtls/mbedtls-2.16.2/library/ecp_curves.c **** /*
 668:/home/xingli/share/LiteOS_Lab/network/dtls/mbedtls/mbedtls-2.16.2/library/ecp_curves.c ****  * Specialized function for creating the Curve25519 group
 669:/home/xingli/share/LiteOS_Lab/network/dtls/mbedtls/mbedtls-2.16.2/library/ecp_curves.c ****  */
 670:/home/xingli/share/LiteOS_Lab/network/dtls/mbedtls/mbedtls-2.16.2/library/ecp_curves.c **** static int ecp_use_curve25519( mbedtls_ecp_group *grp )
 671:/home/xingli/share/LiteOS_Lab/network/dtls/mbedtls/mbedtls-2.16.2/library/ecp_curves.c **** {
 672:/home/xingli/share/LiteOS_Lab/network/dtls/mbedtls/mbedtls-2.16.2/library/ecp_curves.c ****     int ret;
 673:/home/xingli/share/LiteOS_Lab/network/dtls/mbedtls/mbedtls-2.16.2/library/ecp_curves.c **** 
 674:/home/xingli/share/LiteOS_Lab/network/dtls/mbedtls/mbedtls-2.16.2/library/ecp_curves.c ****     /* Actually ( A + 2 ) / 4 */
GAS LISTING /tmp/ccBClcmz.s 			page 26


 675:/home/xingli/share/LiteOS_Lab/network/dtls/mbedtls/mbedtls-2.16.2/library/ecp_curves.c ****     MBEDTLS_MPI_CHK( mbedtls_mpi_read_string( &grp->A, 16, "01DB42" ) );
 676:/home/xingli/share/LiteOS_Lab/network/dtls/mbedtls/mbedtls-2.16.2/library/ecp_curves.c **** 
 677:/home/xingli/share/LiteOS_Lab/network/dtls/mbedtls/mbedtls-2.16.2/library/ecp_curves.c ****     /* P = 2^255 - 19 */
 678:/home/xingli/share/LiteOS_Lab/network/dtls/mbedtls/mbedtls-2.16.2/library/ecp_curves.c ****     MBEDTLS_MPI_CHK( mbedtls_mpi_lset( &grp->P, 1 ) );
 679:/home/xingli/share/LiteOS_Lab/network/dtls/mbedtls/mbedtls-2.16.2/library/ecp_curves.c ****     MBEDTLS_MPI_CHK( mbedtls_mpi_shift_l( &grp->P, 255 ) );
 680:/home/xingli/share/LiteOS_Lab/network/dtls/mbedtls/mbedtls-2.16.2/library/ecp_curves.c ****     MBEDTLS_MPI_CHK( mbedtls_mpi_sub_int( &grp->P, &grp->P, 19 ) );
 681:/home/xingli/share/LiteOS_Lab/network/dtls/mbedtls/mbedtls-2.16.2/library/ecp_curves.c ****     grp->pbits = mbedtls_mpi_bitlen( &grp->P );
 682:/home/xingli/share/LiteOS_Lab/network/dtls/mbedtls/mbedtls-2.16.2/library/ecp_curves.c **** 
 683:/home/xingli/share/LiteOS_Lab/network/dtls/mbedtls/mbedtls-2.16.2/library/ecp_curves.c ****     /* N = 2^252 + 27742317777372353535851937790883648493 */
 684:/home/xingli/share/LiteOS_Lab/network/dtls/mbedtls/mbedtls-2.16.2/library/ecp_curves.c ****     MBEDTLS_MPI_CHK( mbedtls_mpi_read_string( &grp->N, 16,
 685:/home/xingli/share/LiteOS_Lab/network/dtls/mbedtls/mbedtls-2.16.2/library/ecp_curves.c ****                                               "14DEF9DEA2F79CD65812631A5CF5D3ED" ) );
 686:/home/xingli/share/LiteOS_Lab/network/dtls/mbedtls/mbedtls-2.16.2/library/ecp_curves.c ****     MBEDTLS_MPI_CHK( mbedtls_mpi_set_bit( &grp->N, 252, 1 ) );
 687:/home/xingli/share/LiteOS_Lab/network/dtls/mbedtls/mbedtls-2.16.2/library/ecp_curves.c **** 
 688:/home/xingli/share/LiteOS_Lab/network/dtls/mbedtls/mbedtls-2.16.2/library/ecp_curves.c ****     /* Y intentionally not set, since we use x/z coordinates.
 689:/home/xingli/share/LiteOS_Lab/network/dtls/mbedtls/mbedtls-2.16.2/library/ecp_curves.c ****      * This is used as a marker to identify Montgomery curves! */
 690:/home/xingli/share/LiteOS_Lab/network/dtls/mbedtls/mbedtls-2.16.2/library/ecp_curves.c ****     MBEDTLS_MPI_CHK( mbedtls_mpi_lset( &grp->G.X, 9 ) );
 691:/home/xingli/share/LiteOS_Lab/network/dtls/mbedtls/mbedtls-2.16.2/library/ecp_curves.c ****     MBEDTLS_MPI_CHK( mbedtls_mpi_lset( &grp->G.Z, 1 ) );
 692:/home/xingli/share/LiteOS_Lab/network/dtls/mbedtls/mbedtls-2.16.2/library/ecp_curves.c ****     mbedtls_mpi_free( &grp->G.Y );
 693:/home/xingli/share/LiteOS_Lab/network/dtls/mbedtls/mbedtls-2.16.2/library/ecp_curves.c **** 
 694:/home/xingli/share/LiteOS_Lab/network/dtls/mbedtls/mbedtls-2.16.2/library/ecp_curves.c ****     /* Actually, the required msb for private keys */
 695:/home/xingli/share/LiteOS_Lab/network/dtls/mbedtls/mbedtls-2.16.2/library/ecp_curves.c ****     grp->nbits = 254;
 696:/home/xingli/share/LiteOS_Lab/network/dtls/mbedtls/mbedtls-2.16.2/library/ecp_curves.c **** 
 697:/home/xingli/share/LiteOS_Lab/network/dtls/mbedtls/mbedtls-2.16.2/library/ecp_curves.c **** cleanup:
 698:/home/xingli/share/LiteOS_Lab/network/dtls/mbedtls/mbedtls-2.16.2/library/ecp_curves.c ****     if( ret != 0 )
 699:/home/xingli/share/LiteOS_Lab/network/dtls/mbedtls/mbedtls-2.16.2/library/ecp_curves.c ****         mbedtls_ecp_group_free( grp );
 700:/home/xingli/share/LiteOS_Lab/network/dtls/mbedtls/mbedtls-2.16.2/library/ecp_curves.c **** 
 701:/home/xingli/share/LiteOS_Lab/network/dtls/mbedtls/mbedtls-2.16.2/library/ecp_curves.c ****     return( ret );
 702:/home/xingli/share/LiteOS_Lab/network/dtls/mbedtls/mbedtls-2.16.2/library/ecp_curves.c **** }
 703:/home/xingli/share/LiteOS_Lab/network/dtls/mbedtls/mbedtls-2.16.2/library/ecp_curves.c **** #endif /* MBEDTLS_ECP_DP_CURVE25519_ENABLED */
 704:/home/xingli/share/LiteOS_Lab/network/dtls/mbedtls/mbedtls-2.16.2/library/ecp_curves.c **** 
 705:/home/xingli/share/LiteOS_Lab/network/dtls/mbedtls/mbedtls-2.16.2/library/ecp_curves.c **** #if defined(MBEDTLS_ECP_DP_CURVE448_ENABLED)
 706:/home/xingli/share/LiteOS_Lab/network/dtls/mbedtls/mbedtls-2.16.2/library/ecp_curves.c **** /*
 707:/home/xingli/share/LiteOS_Lab/network/dtls/mbedtls/mbedtls-2.16.2/library/ecp_curves.c ****  * Specialized function for creating the Curve448 group
 708:/home/xingli/share/LiteOS_Lab/network/dtls/mbedtls/mbedtls-2.16.2/library/ecp_curves.c ****  */
 709:/home/xingli/share/LiteOS_Lab/network/dtls/mbedtls/mbedtls-2.16.2/library/ecp_curves.c **** static int ecp_use_curve448( mbedtls_ecp_group *grp )
 710:/home/xingli/share/LiteOS_Lab/network/dtls/mbedtls/mbedtls-2.16.2/library/ecp_curves.c **** {
 711:/home/xingli/share/LiteOS_Lab/network/dtls/mbedtls/mbedtls-2.16.2/library/ecp_curves.c ****     mbedtls_mpi Ns;
 712:/home/xingli/share/LiteOS_Lab/network/dtls/mbedtls/mbedtls-2.16.2/library/ecp_curves.c ****     int ret;
 713:/home/xingli/share/LiteOS_Lab/network/dtls/mbedtls/mbedtls-2.16.2/library/ecp_curves.c **** 
 714:/home/xingli/share/LiteOS_Lab/network/dtls/mbedtls/mbedtls-2.16.2/library/ecp_curves.c ****     mbedtls_mpi_init( &Ns );
 715:/home/xingli/share/LiteOS_Lab/network/dtls/mbedtls/mbedtls-2.16.2/library/ecp_curves.c **** 
 716:/home/xingli/share/LiteOS_Lab/network/dtls/mbedtls/mbedtls-2.16.2/library/ecp_curves.c ****     /* Actually ( A + 2 ) / 4 */
 717:/home/xingli/share/LiteOS_Lab/network/dtls/mbedtls/mbedtls-2.16.2/library/ecp_curves.c ****     MBEDTLS_MPI_CHK( mbedtls_mpi_read_string( &grp->A, 16, "98AA" ) );
 718:/home/xingli/share/LiteOS_Lab/network/dtls/mbedtls/mbedtls-2.16.2/library/ecp_curves.c **** 
 719:/home/xingli/share/LiteOS_Lab/network/dtls/mbedtls/mbedtls-2.16.2/library/ecp_curves.c ****     /* P = 2^448 - 2^224 - 1 */
 720:/home/xingli/share/LiteOS_Lab/network/dtls/mbedtls/mbedtls-2.16.2/library/ecp_curves.c ****     MBEDTLS_MPI_CHK( mbedtls_mpi_lset( &grp->P, 1 ) );
 721:/home/xingli/share/LiteOS_Lab/network/dtls/mbedtls/mbedtls-2.16.2/library/ecp_curves.c ****     MBEDTLS_MPI_CHK( mbedtls_mpi_shift_l( &grp->P, 224 ) );
 722:/home/xingli/share/LiteOS_Lab/network/dtls/mbedtls/mbedtls-2.16.2/library/ecp_curves.c ****     MBEDTLS_MPI_CHK( mbedtls_mpi_sub_int( &grp->P, &grp->P, 1 ) );
 723:/home/xingli/share/LiteOS_Lab/network/dtls/mbedtls/mbedtls-2.16.2/library/ecp_curves.c ****     MBEDTLS_MPI_CHK( mbedtls_mpi_shift_l( &grp->P, 224 ) );
 724:/home/xingli/share/LiteOS_Lab/network/dtls/mbedtls/mbedtls-2.16.2/library/ecp_curves.c ****     MBEDTLS_MPI_CHK( mbedtls_mpi_sub_int( &grp->P, &grp->P, 1 ) );
 725:/home/xingli/share/LiteOS_Lab/network/dtls/mbedtls/mbedtls-2.16.2/library/ecp_curves.c ****     grp->pbits = mbedtls_mpi_bitlen( &grp->P );
 726:/home/xingli/share/LiteOS_Lab/network/dtls/mbedtls/mbedtls-2.16.2/library/ecp_curves.c **** 
 727:/home/xingli/share/LiteOS_Lab/network/dtls/mbedtls/mbedtls-2.16.2/library/ecp_curves.c ****     /* Y intentionally not set, since we use x/z coordinates.
 728:/home/xingli/share/LiteOS_Lab/network/dtls/mbedtls/mbedtls-2.16.2/library/ecp_curves.c ****      * This is used as a marker to identify Montgomery curves! */
 729:/home/xingli/share/LiteOS_Lab/network/dtls/mbedtls/mbedtls-2.16.2/library/ecp_curves.c ****     MBEDTLS_MPI_CHK( mbedtls_mpi_lset( &grp->G.X, 5 ) );
 730:/home/xingli/share/LiteOS_Lab/network/dtls/mbedtls/mbedtls-2.16.2/library/ecp_curves.c ****     MBEDTLS_MPI_CHK( mbedtls_mpi_lset( &grp->G.Z, 1 ) );
 731:/home/xingli/share/LiteOS_Lab/network/dtls/mbedtls/mbedtls-2.16.2/library/ecp_curves.c ****     mbedtls_mpi_free( &grp->G.Y );
GAS LISTING /tmp/ccBClcmz.s 			page 27


 732:/home/xingli/share/LiteOS_Lab/network/dtls/mbedtls/mbedtls-2.16.2/library/ecp_curves.c **** 
 733:/home/xingli/share/LiteOS_Lab/network/dtls/mbedtls/mbedtls-2.16.2/library/ecp_curves.c ****     /* N = 2^446 - 13818066809895115352007386748515426880336692474882178609894547503885 */
 734:/home/xingli/share/LiteOS_Lab/network/dtls/mbedtls/mbedtls-2.16.2/library/ecp_curves.c ****     MBEDTLS_MPI_CHK( mbedtls_mpi_set_bit( &grp->N, 446, 1 ) );
 735:/home/xingli/share/LiteOS_Lab/network/dtls/mbedtls/mbedtls-2.16.2/library/ecp_curves.c ****     MBEDTLS_MPI_CHK( mbedtls_mpi_read_string( &Ns, 16,
 736:/home/xingli/share/LiteOS_Lab/network/dtls/mbedtls/mbedtls-2.16.2/library/ecp_curves.c ****                                               "8335DC163BB124B65129C96FDE933D8D723A70AADC873D6D54A7
 737:/home/xingli/share/LiteOS_Lab/network/dtls/mbedtls/mbedtls-2.16.2/library/ecp_curves.c ****     MBEDTLS_MPI_CHK( mbedtls_mpi_sub_mpi( &grp->N, &grp->N, &Ns ) );
 738:/home/xingli/share/LiteOS_Lab/network/dtls/mbedtls/mbedtls-2.16.2/library/ecp_curves.c **** 
 739:/home/xingli/share/LiteOS_Lab/network/dtls/mbedtls/mbedtls-2.16.2/library/ecp_curves.c ****     /* Actually, the required msb for private keys */
 740:/home/xingli/share/LiteOS_Lab/network/dtls/mbedtls/mbedtls-2.16.2/library/ecp_curves.c ****     grp->nbits = 447;
 741:/home/xingli/share/LiteOS_Lab/network/dtls/mbedtls/mbedtls-2.16.2/library/ecp_curves.c **** 
 742:/home/xingli/share/LiteOS_Lab/network/dtls/mbedtls/mbedtls-2.16.2/library/ecp_curves.c **** cleanup:
 743:/home/xingli/share/LiteOS_Lab/network/dtls/mbedtls/mbedtls-2.16.2/library/ecp_curves.c ****     mbedtls_mpi_free( &Ns );
 744:/home/xingli/share/LiteOS_Lab/network/dtls/mbedtls/mbedtls-2.16.2/library/ecp_curves.c ****     if( ret != 0 )
 745:/home/xingli/share/LiteOS_Lab/network/dtls/mbedtls/mbedtls-2.16.2/library/ecp_curves.c ****         mbedtls_ecp_group_free( grp );
 746:/home/xingli/share/LiteOS_Lab/network/dtls/mbedtls/mbedtls-2.16.2/library/ecp_curves.c **** 
 747:/home/xingli/share/LiteOS_Lab/network/dtls/mbedtls/mbedtls-2.16.2/library/ecp_curves.c ****     return( ret );
 748:/home/xingli/share/LiteOS_Lab/network/dtls/mbedtls/mbedtls-2.16.2/library/ecp_curves.c **** }
 749:/home/xingli/share/LiteOS_Lab/network/dtls/mbedtls/mbedtls-2.16.2/library/ecp_curves.c **** #endif /* MBEDTLS_ECP_DP_CURVE448_ENABLED */
 750:/home/xingli/share/LiteOS_Lab/network/dtls/mbedtls/mbedtls-2.16.2/library/ecp_curves.c **** 
 751:/home/xingli/share/LiteOS_Lab/network/dtls/mbedtls/mbedtls-2.16.2/library/ecp_curves.c **** /*
 752:/home/xingli/share/LiteOS_Lab/network/dtls/mbedtls/mbedtls-2.16.2/library/ecp_curves.c ****  * Set a group using well-known domain parameters
 753:/home/xingli/share/LiteOS_Lab/network/dtls/mbedtls/mbedtls-2.16.2/library/ecp_curves.c ****  */
 754:/home/xingli/share/LiteOS_Lab/network/dtls/mbedtls/mbedtls-2.16.2/library/ecp_curves.c **** int mbedtls_ecp_group_load( mbedtls_ecp_group *grp, mbedtls_ecp_group_id id )
 755:/home/xingli/share/LiteOS_Lab/network/dtls/mbedtls/mbedtls-2.16.2/library/ecp_curves.c **** {
 629              		.loc 1 755 1
 630              		.cfi_startproc
 631 0000 F30F1EFA 		endbr64
 632 0004 55       		pushq	%rbp
 633              	.LCFI9:
 634              		.cfi_def_cfa_offset 16
 635              		.cfi_offset 6, -16
 636 0005 4889E5   		movq	%rsp, %rbp
 637              	.LCFI10:
 638              		.cfi_def_cfa_register 6
 639 0008 4883EC20 		subq	$32, %rsp
 640 000c 48897DE8 		movq	%rdi, -24(%rbp)
 641 0010 8975E4   		movl	%esi, -28(%rbp)
 642              		.loc 1 755 1
 643 0013 64488B04 		movq	%fs:40, %rax
 643      25280000 
 643      00
 644 001c 488945F8 		movq	%rax, -8(%rbp)
 645 0020 31C0     		xorl	%eax, %eax
 756:/home/xingli/share/LiteOS_Lab/network/dtls/mbedtls/mbedtls-2.16.2/library/ecp_curves.c ****     ECP_VALIDATE_RET( grp != NULL );
 757:/home/xingli/share/LiteOS_Lab/network/dtls/mbedtls/mbedtls-2.16.2/library/ecp_curves.c ****     mbedtls_ecp_group_free( grp );
 646              		.loc 1 757 5
 647 0022 488B45E8 		movq	-24(%rbp), %rax
 648 0026 4889C7   		movq	%rax, %rdi
 649 0029 E8000000 		call	mbedtls_ecp_group_free@PLT
 649      00
 758:/home/xingli/share/LiteOS_Lab/network/dtls/mbedtls/mbedtls-2.16.2/library/ecp_curves.c **** 
 759:/home/xingli/share/LiteOS_Lab/network/dtls/mbedtls/mbedtls-2.16.2/library/ecp_curves.c ****     grp->id = id;
 650              		.loc 1 759 13
 651 002e 488B45E8 		movq	-24(%rbp), %rax
 652 0032 8B55E4   		movl	-28(%rbp), %edx
 653 0035 8910     		movl	%edx, (%rax)
 654 0037 837DE40C 		cmpl	$12, -28(%rbp)
GAS LISTING /tmp/ccBClcmz.s 			page 28


 655 003b 0F871203 		ja	.L10
 655      0000
 656 0041 8B45E4   		movl	-28(%rbp), %eax
 657 0044 488D1485 		leaq	0(,%rax,4), %rdx
 657      00000000 
 658 004c 488D0500 		leaq	.L12(%rip), %rax
 658      000000
 659 0053 8B0402   		movl	(%rdx,%rax), %eax
 660 0056 4898     		cltq
 661 0058 488D1500 		leaq	.L12(%rip), %rdx
 661      000000
 662 005f 4801D0   		addq	%rdx, %rax
 663 0062 3EFFE0   		notrack jmp	*%rax
 664              		.section	.rodata.mbedtls_ecp_group_load,"a",@progbits
 665              		.align 4
 666              		.align 4
 667              	.L12:
 668 0000 00000000 		.long	.L10-.L12
 669 0004 00000000 		.long	.L19-.L12
 670 0008 00000000 		.long	.L18-.L12
 671 000c 00000000 		.long	.L17-.L12
 672 0010 00000000 		.long	.L16-.L12
 673 0014 00000000 		.long	.L15-.L12
 674 0018 00000000 		.long	.L10-.L12
 675 001c 00000000 		.long	.L10-.L12
 676 0020 00000000 		.long	.L10-.L12
 677 0024 00000000 		.long	.L10-.L12
 678 0028 00000000 		.long	.L14-.L12
 679 002c 00000000 		.long	.L13-.L12
 680 0030 00000000 		.long	.L11-.L12
 681              		.section	.text.mbedtls_ecp_group_load
 682              	.L19:
 760:/home/xingli/share/LiteOS_Lab/network/dtls/mbedtls/mbedtls-2.16.2/library/ecp_curves.c **** 
 761:/home/xingli/share/LiteOS_Lab/network/dtls/mbedtls/mbedtls-2.16.2/library/ecp_curves.c ****     switch( id )
 762:/home/xingli/share/LiteOS_Lab/network/dtls/mbedtls/mbedtls-2.16.2/library/ecp_curves.c ****     {
 763:/home/xingli/share/LiteOS_Lab/network/dtls/mbedtls/mbedtls-2.16.2/library/ecp_curves.c **** #if defined(MBEDTLS_ECP_DP_SECP192R1_ENABLED)
 764:/home/xingli/share/LiteOS_Lab/network/dtls/mbedtls/mbedtls-2.16.2/library/ecp_curves.c ****         case MBEDTLS_ECP_DP_SECP192R1:
 765:/home/xingli/share/LiteOS_Lab/network/dtls/mbedtls/mbedtls-2.16.2/library/ecp_curves.c ****             NIST_MODP( p192 );
 766:/home/xingli/share/LiteOS_Lab/network/dtls/mbedtls/mbedtls-2.16.2/library/ecp_curves.c ****             return( LOAD_GROUP( secp192r1 ) );
 683              		.loc 1 766 21
 684 0065 488B45E8 		movq	-24(%rbp), %rax
 685 0069 4883EC08 		subq	$8, %rsp
 686 006d 6A18     		pushq	$24
 687 006f 488D1500 		leaq	secp192r1_n(%rip), %rdx
 687      000000
 688 0076 52       		pushq	%rdx
 689 0077 6A18     		pushq	$24
 690 0079 488D1500 		leaq	secp192r1_gy(%rip), %rdx
 690      000000
 691 0080 52       		pushq	%rdx
 692 0081 6A18     		pushq	$24
 693 0083 488D1500 		leaq	secp192r1_gx(%rip), %rdx
 693      000000
 694 008a 52       		pushq	%rdx
 695 008b 6A18     		pushq	$24
 696 008d 4C8D0D00 		leaq	secp192r1_b(%rip), %r9
 696      000000
GAS LISTING /tmp/ccBClcmz.s 			page 29


 697 0094 41B80000 		movl	$0, %r8d
 697      0000
 698 009a B9000000 		movl	$0, %ecx
 698      00
 699 009f BA180000 		movl	$24, %edx
 699      00
 700 00a4 488D3500 		leaq	secp192r1_p(%rip), %rsi
 700      000000
 701 00ab 4889C7   		movq	%rax, %rdi
 702 00ae E8000000 		call	ecp_group_load
 702      00
 703 00b3 4883C440 		addq	$64, %rsp
 704 00b7 E9A80200 		jmp	.L20
 704      00
 705              	.L18:
 767:/home/xingli/share/LiteOS_Lab/network/dtls/mbedtls/mbedtls-2.16.2/library/ecp_curves.c **** #endif /* MBEDTLS_ECP_DP_SECP192R1_ENABLED */
 768:/home/xingli/share/LiteOS_Lab/network/dtls/mbedtls/mbedtls-2.16.2/library/ecp_curves.c **** 
 769:/home/xingli/share/LiteOS_Lab/network/dtls/mbedtls/mbedtls-2.16.2/library/ecp_curves.c **** #if defined(MBEDTLS_ECP_DP_SECP224R1_ENABLED)
 770:/home/xingli/share/LiteOS_Lab/network/dtls/mbedtls/mbedtls-2.16.2/library/ecp_curves.c ****         case MBEDTLS_ECP_DP_SECP224R1:
 771:/home/xingli/share/LiteOS_Lab/network/dtls/mbedtls/mbedtls-2.16.2/library/ecp_curves.c ****             NIST_MODP( p224 );
 772:/home/xingli/share/LiteOS_Lab/network/dtls/mbedtls/mbedtls-2.16.2/library/ecp_curves.c ****             return( LOAD_GROUP( secp224r1 ) );
 706              		.loc 1 772 21
 707 00bc 488B45E8 		movq	-24(%rbp), %rax
 708 00c0 4883EC08 		subq	$8, %rsp
 709 00c4 6A20     		pushq	$32
 710 00c6 488D1500 		leaq	secp224r1_n(%rip), %rdx
 710      000000
 711 00cd 52       		pushq	%rdx
 712 00ce 6A20     		pushq	$32
 713 00d0 488D1500 		leaq	secp224r1_gy(%rip), %rdx
 713      000000
 714 00d7 52       		pushq	%rdx
 715 00d8 6A20     		pushq	$32
 716 00da 488D1500 		leaq	secp224r1_gx(%rip), %rdx
 716      000000
 717 00e1 52       		pushq	%rdx
 718 00e2 6A20     		pushq	$32
 719 00e4 4C8D0D00 		leaq	secp224r1_b(%rip), %r9
 719      000000
 720 00eb 41B80000 		movl	$0, %r8d
 720      0000
 721 00f1 B9000000 		movl	$0, %ecx
 721      00
 722 00f6 BA200000 		movl	$32, %edx
 722      00
 723 00fb 488D3500 		leaq	secp224r1_p(%rip), %rsi
 723      000000
 724 0102 4889C7   		movq	%rax, %rdi
 725 0105 E8000000 		call	ecp_group_load
 725      00
 726 010a 4883C440 		addq	$64, %rsp
 727 010e E9510200 		jmp	.L20
 727      00
 728              	.L17:
 773:/home/xingli/share/LiteOS_Lab/network/dtls/mbedtls/mbedtls-2.16.2/library/ecp_curves.c **** #endif /* MBEDTLS_ECP_DP_SECP224R1_ENABLED */
 774:/home/xingli/share/LiteOS_Lab/network/dtls/mbedtls/mbedtls-2.16.2/library/ecp_curves.c **** 
 775:/home/xingli/share/LiteOS_Lab/network/dtls/mbedtls/mbedtls-2.16.2/library/ecp_curves.c **** #if defined(MBEDTLS_ECP_DP_SECP256R1_ENABLED)
GAS LISTING /tmp/ccBClcmz.s 			page 30


 776:/home/xingli/share/LiteOS_Lab/network/dtls/mbedtls/mbedtls-2.16.2/library/ecp_curves.c ****         case MBEDTLS_ECP_DP_SECP256R1:
 777:/home/xingli/share/LiteOS_Lab/network/dtls/mbedtls/mbedtls-2.16.2/library/ecp_curves.c ****             NIST_MODP( p256 );
 778:/home/xingli/share/LiteOS_Lab/network/dtls/mbedtls/mbedtls-2.16.2/library/ecp_curves.c ****             return( LOAD_GROUP( secp256r1 ) );
 729              		.loc 1 778 21
 730 0113 488B45E8 		movq	-24(%rbp), %rax
 731 0117 4883EC08 		subq	$8, %rsp
 732 011b 6A20     		pushq	$32
 733 011d 488D1500 		leaq	secp256r1_n(%rip), %rdx
 733      000000
 734 0124 52       		pushq	%rdx
 735 0125 6A20     		pushq	$32
 736 0127 488D1500 		leaq	secp256r1_gy(%rip), %rdx
 736      000000
 737 012e 52       		pushq	%rdx
 738 012f 6A20     		pushq	$32
 739 0131 488D1500 		leaq	secp256r1_gx(%rip), %rdx
 739      000000
 740 0138 52       		pushq	%rdx
 741 0139 6A20     		pushq	$32
 742 013b 4C8D0D00 		leaq	secp256r1_b(%rip), %r9
 742      000000
 743 0142 41B80000 		movl	$0, %r8d
 743      0000
 744 0148 B9000000 		movl	$0, %ecx
 744      00
 745 014d BA200000 		movl	$32, %edx
 745      00
 746 0152 488D3500 		leaq	secp256r1_p(%rip), %rsi
 746      000000
 747 0159 4889C7   		movq	%rax, %rdi
 748 015c E8000000 		call	ecp_group_load
 748      00
 749 0161 4883C440 		addq	$64, %rsp
 750 0165 E9FA0100 		jmp	.L20
 750      00
 751              	.L16:
 779:/home/xingli/share/LiteOS_Lab/network/dtls/mbedtls/mbedtls-2.16.2/library/ecp_curves.c **** #endif /* MBEDTLS_ECP_DP_SECP256R1_ENABLED */
 780:/home/xingli/share/LiteOS_Lab/network/dtls/mbedtls/mbedtls-2.16.2/library/ecp_curves.c **** 
 781:/home/xingli/share/LiteOS_Lab/network/dtls/mbedtls/mbedtls-2.16.2/library/ecp_curves.c **** #if defined(MBEDTLS_ECP_DP_SECP384R1_ENABLED)
 782:/home/xingli/share/LiteOS_Lab/network/dtls/mbedtls/mbedtls-2.16.2/library/ecp_curves.c ****         case MBEDTLS_ECP_DP_SECP384R1:
 783:/home/xingli/share/LiteOS_Lab/network/dtls/mbedtls/mbedtls-2.16.2/library/ecp_curves.c ****             NIST_MODP( p384 );
 784:/home/xingli/share/LiteOS_Lab/network/dtls/mbedtls/mbedtls-2.16.2/library/ecp_curves.c ****             return( LOAD_GROUP( secp384r1 ) );
 752              		.loc 1 784 21
 753 016a 488B45E8 		movq	-24(%rbp), %rax
 754 016e 4883EC08 		subq	$8, %rsp
 755 0172 6A30     		pushq	$48
 756 0174 488D1500 		leaq	secp384r1_n(%rip), %rdx
 756      000000
 757 017b 52       		pushq	%rdx
 758 017c 6A30     		pushq	$48
 759 017e 488D1500 		leaq	secp384r1_gy(%rip), %rdx
 759      000000
 760 0185 52       		pushq	%rdx
 761 0186 6A30     		pushq	$48
 762 0188 488D1500 		leaq	secp384r1_gx(%rip), %rdx
 762      000000
 763 018f 52       		pushq	%rdx
GAS LISTING /tmp/ccBClcmz.s 			page 31


 764 0190 6A30     		pushq	$48
 765 0192 4C8D0D00 		leaq	secp384r1_b(%rip), %r9
 765      000000
 766 0199 41B80000 		movl	$0, %r8d
 766      0000
 767 019f B9000000 		movl	$0, %ecx
 767      00
 768 01a4 BA300000 		movl	$48, %edx
 768      00
 769 01a9 488D3500 		leaq	secp384r1_p(%rip), %rsi
 769      000000
 770 01b0 4889C7   		movq	%rax, %rdi
 771 01b3 E8000000 		call	ecp_group_load
 771      00
 772 01b8 4883C440 		addq	$64, %rsp
 773 01bc E9A30100 		jmp	.L20
 773      00
 774              	.L15:
 785:/home/xingli/share/LiteOS_Lab/network/dtls/mbedtls/mbedtls-2.16.2/library/ecp_curves.c **** #endif /* MBEDTLS_ECP_DP_SECP384R1_ENABLED */
 786:/home/xingli/share/LiteOS_Lab/network/dtls/mbedtls/mbedtls-2.16.2/library/ecp_curves.c **** 
 787:/home/xingli/share/LiteOS_Lab/network/dtls/mbedtls/mbedtls-2.16.2/library/ecp_curves.c **** #if defined(MBEDTLS_ECP_DP_SECP521R1_ENABLED)
 788:/home/xingli/share/LiteOS_Lab/network/dtls/mbedtls/mbedtls-2.16.2/library/ecp_curves.c ****         case MBEDTLS_ECP_DP_SECP521R1:
 789:/home/xingli/share/LiteOS_Lab/network/dtls/mbedtls/mbedtls-2.16.2/library/ecp_curves.c ****             NIST_MODP( p521 );
 790:/home/xingli/share/LiteOS_Lab/network/dtls/mbedtls/mbedtls-2.16.2/library/ecp_curves.c ****             return( LOAD_GROUP( secp521r1 ) );
 775              		.loc 1 790 21
 776 01c1 488B45E8 		movq	-24(%rbp), %rax
 777 01c5 4883EC08 		subq	$8, %rsp
 778 01c9 6A48     		pushq	$72
 779 01cb 488D1500 		leaq	secp521r1_n(%rip), %rdx
 779      000000
 780 01d2 52       		pushq	%rdx
 781 01d3 6A48     		pushq	$72
 782 01d5 488D1500 		leaq	secp521r1_gy(%rip), %rdx
 782      000000
 783 01dc 52       		pushq	%rdx
 784 01dd 6A48     		pushq	$72
 785 01df 488D1500 		leaq	secp521r1_gx(%rip), %rdx
 785      000000
 786 01e6 52       		pushq	%rdx
 787 01e7 6A48     		pushq	$72
 788 01e9 4C8D0D00 		leaq	secp521r1_b(%rip), %r9
 788      000000
 789 01f0 41B80000 		movl	$0, %r8d
 789      0000
 790 01f6 B9000000 		movl	$0, %ecx
 790      00
 791 01fb BA480000 		movl	$72, %edx
 791      00
 792 0200 488D3500 		leaq	secp521r1_p(%rip), %rsi
 792      000000
 793 0207 4889C7   		movq	%rax, %rdi
 794 020a E8000000 		call	ecp_group_load
 794      00
 795 020f 4883C440 		addq	$64, %rsp
 796 0213 E94C0100 		jmp	.L20
 796      00
 797              	.L14:
GAS LISTING /tmp/ccBClcmz.s 			page 32


 791:/home/xingli/share/LiteOS_Lab/network/dtls/mbedtls/mbedtls-2.16.2/library/ecp_curves.c **** #endif /* MBEDTLS_ECP_DP_SECP521R1_ENABLED */
 792:/home/xingli/share/LiteOS_Lab/network/dtls/mbedtls/mbedtls-2.16.2/library/ecp_curves.c **** 
 793:/home/xingli/share/LiteOS_Lab/network/dtls/mbedtls/mbedtls-2.16.2/library/ecp_curves.c **** #if defined(MBEDTLS_ECP_DP_SECP192K1_ENABLED)
 794:/home/xingli/share/LiteOS_Lab/network/dtls/mbedtls/mbedtls-2.16.2/library/ecp_curves.c ****         case MBEDTLS_ECP_DP_SECP192K1:
 795:/home/xingli/share/LiteOS_Lab/network/dtls/mbedtls/mbedtls-2.16.2/library/ecp_curves.c ****             grp->modp = ecp_mod_p192k1;
 798              		.loc 1 795 23
 799 0218 488B45E8 		movq	-24(%rbp), %rax
 800 021c 488D1500 		leaq	ecp_mod_p192k1(%rip), %rdx
 800      000000
 801 0223 488990C8 		movq	%rdx, 200(%rax)
 801      000000
 796:/home/xingli/share/LiteOS_Lab/network/dtls/mbedtls/mbedtls-2.16.2/library/ecp_curves.c ****             return( LOAD_GROUP_A( secp192k1 ) );
 802              		.loc 1 796 21
 803 022a 488B45E8 		movq	-24(%rbp), %rax
 804 022e 4883EC08 		subq	$8, %rsp
 805 0232 6A18     		pushq	$24
 806 0234 488D1500 		leaq	secp192k1_n(%rip), %rdx
 806      000000
 807 023b 52       		pushq	%rdx
 808 023c 6A18     		pushq	$24
 809 023e 488D1500 		leaq	secp192k1_gy(%rip), %rdx
 809      000000
 810 0245 52       		pushq	%rdx
 811 0246 6A18     		pushq	$24
 812 0248 488D1500 		leaq	secp192k1_gx(%rip), %rdx
 812      000000
 813 024f 52       		pushq	%rdx
 814 0250 6A08     		pushq	$8
 815 0252 4C8D0D00 		leaq	secp192k1_b(%rip), %r9
 815      000000
 816 0259 41B80800 		movl	$8, %r8d
 816      0000
 817 025f 488D0D00 		leaq	secp192k1_a(%rip), %rcx
 817      000000
 818 0266 BA180000 		movl	$24, %edx
 818      00
 819 026b 488D3500 		leaq	secp192k1_p(%rip), %rsi
 819      000000
 820 0272 4889C7   		movq	%rax, %rdi
 821 0275 E8000000 		call	ecp_group_load
 821      00
 822 027a 4883C440 		addq	$64, %rsp
 823 027e E9E10000 		jmp	.L20
 823      00
 824              	.L13:
 797:/home/xingli/share/LiteOS_Lab/network/dtls/mbedtls/mbedtls-2.16.2/library/ecp_curves.c **** #endif /* MBEDTLS_ECP_DP_SECP192K1_ENABLED */
 798:/home/xingli/share/LiteOS_Lab/network/dtls/mbedtls/mbedtls-2.16.2/library/ecp_curves.c **** 
 799:/home/xingli/share/LiteOS_Lab/network/dtls/mbedtls/mbedtls-2.16.2/library/ecp_curves.c **** #if defined(MBEDTLS_ECP_DP_SECP224K1_ENABLED)
 800:/home/xingli/share/LiteOS_Lab/network/dtls/mbedtls/mbedtls-2.16.2/library/ecp_curves.c ****         case MBEDTLS_ECP_DP_SECP224K1:
 801:/home/xingli/share/LiteOS_Lab/network/dtls/mbedtls/mbedtls-2.16.2/library/ecp_curves.c ****             grp->modp = ecp_mod_p224k1;
 825              		.loc 1 801 23
 826 0283 488B45E8 		movq	-24(%rbp), %rax
 827 0287 488D1500 		leaq	ecp_mod_p224k1(%rip), %rdx
 827      000000
 828 028e 488990C8 		movq	%rdx, 200(%rax)
 828      000000
 802:/home/xingli/share/LiteOS_Lab/network/dtls/mbedtls/mbedtls-2.16.2/library/ecp_curves.c ****             return( LOAD_GROUP_A( secp224k1 ) );
GAS LISTING /tmp/ccBClcmz.s 			page 33


 829              		.loc 1 802 21
 830 0295 488B45E8 		movq	-24(%rbp), %rax
 831 0299 4883EC08 		subq	$8, %rsp
 832 029d 6A20     		pushq	$32
 833 029f 488D1500 		leaq	secp224k1_n(%rip), %rdx
 833      000000
 834 02a6 52       		pushq	%rdx
 835 02a7 6A20     		pushq	$32
 836 02a9 488D1500 		leaq	secp224k1_gy(%rip), %rdx
 836      000000
 837 02b0 52       		pushq	%rdx
 838 02b1 6A20     		pushq	$32
 839 02b3 488D1500 		leaq	secp224k1_gx(%rip), %rdx
 839      000000
 840 02ba 52       		pushq	%rdx
 841 02bb 6A08     		pushq	$8
 842 02bd 4C8D0D00 		leaq	secp224k1_b(%rip), %r9
 842      000000
 843 02c4 41B80800 		movl	$8, %r8d
 843      0000
 844 02ca 488D0D00 		leaq	secp224k1_a(%rip), %rcx
 844      000000
 845 02d1 BA200000 		movl	$32, %edx
 845      00
 846 02d6 488D3500 		leaq	secp224k1_p(%rip), %rsi
 846      000000
 847 02dd 4889C7   		movq	%rax, %rdi
 848 02e0 E8000000 		call	ecp_group_load
 848      00
 849 02e5 4883C440 		addq	$64, %rsp
 850 02e9 EB79     		jmp	.L20
 851              	.L11:
 803:/home/xingli/share/LiteOS_Lab/network/dtls/mbedtls/mbedtls-2.16.2/library/ecp_curves.c **** #endif /* MBEDTLS_ECP_DP_SECP224K1_ENABLED */
 804:/home/xingli/share/LiteOS_Lab/network/dtls/mbedtls/mbedtls-2.16.2/library/ecp_curves.c **** 
 805:/home/xingli/share/LiteOS_Lab/network/dtls/mbedtls/mbedtls-2.16.2/library/ecp_curves.c **** #if defined(MBEDTLS_ECP_DP_SECP256K1_ENABLED)
 806:/home/xingli/share/LiteOS_Lab/network/dtls/mbedtls/mbedtls-2.16.2/library/ecp_curves.c ****         case MBEDTLS_ECP_DP_SECP256K1:
 807:/home/xingli/share/LiteOS_Lab/network/dtls/mbedtls/mbedtls-2.16.2/library/ecp_curves.c ****             grp->modp = ecp_mod_p256k1;
 852              		.loc 1 807 23
 853 02eb 488B45E8 		movq	-24(%rbp), %rax
 854 02ef 488D1500 		leaq	ecp_mod_p256k1(%rip), %rdx
 854      000000
 855 02f6 488990C8 		movq	%rdx, 200(%rax)
 855      000000
 808:/home/xingli/share/LiteOS_Lab/network/dtls/mbedtls/mbedtls-2.16.2/library/ecp_curves.c ****             return( LOAD_GROUP_A( secp256k1 ) );
 856              		.loc 1 808 21
 857 02fd 488B45E8 		movq	-24(%rbp), %rax
 858 0301 4883EC08 		subq	$8, %rsp
 859 0305 6A20     		pushq	$32
 860 0307 488D1500 		leaq	secp256k1_n(%rip), %rdx
 860      000000
 861 030e 52       		pushq	%rdx
 862 030f 6A20     		pushq	$32
 863 0311 488D1500 		leaq	secp256k1_gy(%rip), %rdx
 863      000000
 864 0318 52       		pushq	%rdx
 865 0319 6A20     		pushq	$32
 866 031b 488D1500 		leaq	secp256k1_gx(%rip), %rdx
GAS LISTING /tmp/ccBClcmz.s 			page 34


 866      000000
 867 0322 52       		pushq	%rdx
 868 0323 6A08     		pushq	$8
 869 0325 4C8D0D00 		leaq	secp256k1_b(%rip), %r9
 869      000000
 870 032c 41B80800 		movl	$8, %r8d
 870      0000
 871 0332 488D0D00 		leaq	secp256k1_a(%rip), %rcx
 871      000000
 872 0339 BA200000 		movl	$32, %edx
 872      00
 873 033e 488D3500 		leaq	secp256k1_p(%rip), %rsi
 873      000000
 874 0345 4889C7   		movq	%rax, %rdi
 875 0348 E8000000 		call	ecp_group_load
 875      00
 876 034d 4883C440 		addq	$64, %rsp
 877 0351 EB11     		jmp	.L20
 878              	.L10:
 809:/home/xingli/share/LiteOS_Lab/network/dtls/mbedtls/mbedtls-2.16.2/library/ecp_curves.c **** #endif /* MBEDTLS_ECP_DP_SECP256K1_ENABLED */
 810:/home/xingli/share/LiteOS_Lab/network/dtls/mbedtls/mbedtls-2.16.2/library/ecp_curves.c **** 
 811:/home/xingli/share/LiteOS_Lab/network/dtls/mbedtls/mbedtls-2.16.2/library/ecp_curves.c **** #if defined(MBEDTLS_ECP_DP_BP256R1_ENABLED)
 812:/home/xingli/share/LiteOS_Lab/network/dtls/mbedtls/mbedtls-2.16.2/library/ecp_curves.c ****         case MBEDTLS_ECP_DP_BP256R1:
 813:/home/xingli/share/LiteOS_Lab/network/dtls/mbedtls/mbedtls-2.16.2/library/ecp_curves.c ****             return( LOAD_GROUP_A( brainpoolP256r1 ) );
 814:/home/xingli/share/LiteOS_Lab/network/dtls/mbedtls/mbedtls-2.16.2/library/ecp_curves.c **** #endif /* MBEDTLS_ECP_DP_BP256R1_ENABLED */
 815:/home/xingli/share/LiteOS_Lab/network/dtls/mbedtls/mbedtls-2.16.2/library/ecp_curves.c **** 
 816:/home/xingli/share/LiteOS_Lab/network/dtls/mbedtls/mbedtls-2.16.2/library/ecp_curves.c **** #if defined(MBEDTLS_ECP_DP_BP384R1_ENABLED)
 817:/home/xingli/share/LiteOS_Lab/network/dtls/mbedtls/mbedtls-2.16.2/library/ecp_curves.c ****         case MBEDTLS_ECP_DP_BP384R1:
 818:/home/xingli/share/LiteOS_Lab/network/dtls/mbedtls/mbedtls-2.16.2/library/ecp_curves.c ****             return( LOAD_GROUP_A( brainpoolP384r1 ) );
 819:/home/xingli/share/LiteOS_Lab/network/dtls/mbedtls/mbedtls-2.16.2/library/ecp_curves.c **** #endif /* MBEDTLS_ECP_DP_BP384R1_ENABLED */
 820:/home/xingli/share/LiteOS_Lab/network/dtls/mbedtls/mbedtls-2.16.2/library/ecp_curves.c **** 
 821:/home/xingli/share/LiteOS_Lab/network/dtls/mbedtls/mbedtls-2.16.2/library/ecp_curves.c **** #if defined(MBEDTLS_ECP_DP_BP512R1_ENABLED)
 822:/home/xingli/share/LiteOS_Lab/network/dtls/mbedtls/mbedtls-2.16.2/library/ecp_curves.c ****         case MBEDTLS_ECP_DP_BP512R1:
 823:/home/xingli/share/LiteOS_Lab/network/dtls/mbedtls/mbedtls-2.16.2/library/ecp_curves.c ****             return( LOAD_GROUP_A( brainpoolP512r1 ) );
 824:/home/xingli/share/LiteOS_Lab/network/dtls/mbedtls/mbedtls-2.16.2/library/ecp_curves.c **** #endif /* MBEDTLS_ECP_DP_BP512R1_ENABLED */
 825:/home/xingli/share/LiteOS_Lab/network/dtls/mbedtls/mbedtls-2.16.2/library/ecp_curves.c **** 
 826:/home/xingli/share/LiteOS_Lab/network/dtls/mbedtls/mbedtls-2.16.2/library/ecp_curves.c **** #if defined(MBEDTLS_ECP_DP_CURVE25519_ENABLED)
 827:/home/xingli/share/LiteOS_Lab/network/dtls/mbedtls/mbedtls-2.16.2/library/ecp_curves.c ****         case MBEDTLS_ECP_DP_CURVE25519:
 828:/home/xingli/share/LiteOS_Lab/network/dtls/mbedtls/mbedtls-2.16.2/library/ecp_curves.c ****             grp->modp = ecp_mod_p255;
 829:/home/xingli/share/LiteOS_Lab/network/dtls/mbedtls/mbedtls-2.16.2/library/ecp_curves.c ****             return( ecp_use_curve25519( grp ) );
 830:/home/xingli/share/LiteOS_Lab/network/dtls/mbedtls/mbedtls-2.16.2/library/ecp_curves.c **** #endif /* MBEDTLS_ECP_DP_CURVE25519_ENABLED */
 831:/home/xingli/share/LiteOS_Lab/network/dtls/mbedtls/mbedtls-2.16.2/library/ecp_curves.c **** 
 832:/home/xingli/share/LiteOS_Lab/network/dtls/mbedtls/mbedtls-2.16.2/library/ecp_curves.c **** #if defined(MBEDTLS_ECP_DP_CURVE448_ENABLED)
 833:/home/xingli/share/LiteOS_Lab/network/dtls/mbedtls/mbedtls-2.16.2/library/ecp_curves.c ****         case MBEDTLS_ECP_DP_CURVE448:
 834:/home/xingli/share/LiteOS_Lab/network/dtls/mbedtls/mbedtls-2.16.2/library/ecp_curves.c ****             grp->modp = ecp_mod_p448;
 835:/home/xingli/share/LiteOS_Lab/network/dtls/mbedtls/mbedtls-2.16.2/library/ecp_curves.c ****             return( ecp_use_curve448( grp ) );
 836:/home/xingli/share/LiteOS_Lab/network/dtls/mbedtls/mbedtls-2.16.2/library/ecp_curves.c **** #endif /* MBEDTLS_ECP_DP_CURVE448_ENABLED */
 837:/home/xingli/share/LiteOS_Lab/network/dtls/mbedtls/mbedtls-2.16.2/library/ecp_curves.c **** 
 838:/home/xingli/share/LiteOS_Lab/network/dtls/mbedtls/mbedtls-2.16.2/library/ecp_curves.c ****         default:
 839:/home/xingli/share/LiteOS_Lab/network/dtls/mbedtls/mbedtls-2.16.2/library/ecp_curves.c ****             mbedtls_ecp_group_free( grp );
 879              		.loc 1 839 13
 880 0353 488B45E8 		movq	-24(%rbp), %rax
 881 0357 4889C7   		movq	%rax, %rdi
 882 035a E8000000 		call	mbedtls_ecp_group_free@PLT
 882      00
 840:/home/xingli/share/LiteOS_Lab/network/dtls/mbedtls/mbedtls-2.16.2/library/ecp_curves.c ****             return( MBEDTLS_ERR_ECP_FEATURE_UNAVAILABLE );
 883              		.loc 1 840 19
GAS LISTING /tmp/ccBClcmz.s 			page 35


 884 035f B880B1FF 		movl	$-20096, %eax
 884      FF
 885              	.L20:
 841:/home/xingli/share/LiteOS_Lab/network/dtls/mbedtls/mbedtls-2.16.2/library/ecp_curves.c ****     }
 842:/home/xingli/share/LiteOS_Lab/network/dtls/mbedtls/mbedtls-2.16.2/library/ecp_curves.c **** }
 886              		.loc 1 842 1
 887 0364 488B4DF8 		movq	-8(%rbp), %rcx
 888 0368 6448330C 		xorq	%fs:40, %rcx
 888      25280000 
 888      00
 889 0371 7405     		je	.L21
 890 0373 E8000000 		call	__stack_chk_fail@PLT
 890      00
 891              	.L21:
 892 0378 C9       		leave
 893              	.LCFI11:
 894              		.cfi_def_cfa 7, 8
 895 0379 C3       		ret
 896              		.cfi_endproc
 897              	.LFE3:
 899              		.section	.text.ecp_mod_koblitz,"ax",@progbits
 901              	ecp_mod_koblitz:
 902              	.LFB4:
 843:/home/xingli/share/LiteOS_Lab/network/dtls/mbedtls/mbedtls-2.16.2/library/ecp_curves.c **** 
 844:/home/xingli/share/LiteOS_Lab/network/dtls/mbedtls/mbedtls-2.16.2/library/ecp_curves.c **** #if defined(MBEDTLS_ECP_NIST_OPTIM)
 845:/home/xingli/share/LiteOS_Lab/network/dtls/mbedtls/mbedtls-2.16.2/library/ecp_curves.c **** /*
 846:/home/xingli/share/LiteOS_Lab/network/dtls/mbedtls/mbedtls-2.16.2/library/ecp_curves.c ****  * Fast reduction modulo the primes used by the NIST curves.
 847:/home/xingli/share/LiteOS_Lab/network/dtls/mbedtls/mbedtls-2.16.2/library/ecp_curves.c ****  *
 848:/home/xingli/share/LiteOS_Lab/network/dtls/mbedtls/mbedtls-2.16.2/library/ecp_curves.c ****  * These functions are critical for speed, but not needed for correct
 849:/home/xingli/share/LiteOS_Lab/network/dtls/mbedtls/mbedtls-2.16.2/library/ecp_curves.c ****  * operations. So, we make the choice to heavily rely on the internals of our
 850:/home/xingli/share/LiteOS_Lab/network/dtls/mbedtls/mbedtls-2.16.2/library/ecp_curves.c ****  * bignum library, which creates a tight coupling between these functions and
 851:/home/xingli/share/LiteOS_Lab/network/dtls/mbedtls/mbedtls-2.16.2/library/ecp_curves.c ****  * our MPI implementation.  However, the coupling between the ECP module and
 852:/home/xingli/share/LiteOS_Lab/network/dtls/mbedtls/mbedtls-2.16.2/library/ecp_curves.c ****  * MPI remains loose, since these functions can be deactivated at will.
 853:/home/xingli/share/LiteOS_Lab/network/dtls/mbedtls/mbedtls-2.16.2/library/ecp_curves.c ****  */
 854:/home/xingli/share/LiteOS_Lab/network/dtls/mbedtls/mbedtls-2.16.2/library/ecp_curves.c **** 
 855:/home/xingli/share/LiteOS_Lab/network/dtls/mbedtls/mbedtls-2.16.2/library/ecp_curves.c **** #if defined(MBEDTLS_ECP_DP_SECP192R1_ENABLED)
 856:/home/xingli/share/LiteOS_Lab/network/dtls/mbedtls/mbedtls-2.16.2/library/ecp_curves.c **** /*
 857:/home/xingli/share/LiteOS_Lab/network/dtls/mbedtls/mbedtls-2.16.2/library/ecp_curves.c ****  * Compared to the way things are presented in FIPS 186-3 D.2,
 858:/home/xingli/share/LiteOS_Lab/network/dtls/mbedtls/mbedtls-2.16.2/library/ecp_curves.c ****  * we proceed in columns, from right (least significant chunk) to left,
 859:/home/xingli/share/LiteOS_Lab/network/dtls/mbedtls/mbedtls-2.16.2/library/ecp_curves.c ****  * adding chunks to N in place, and keeping a carry for the next chunk.
 860:/home/xingli/share/LiteOS_Lab/network/dtls/mbedtls/mbedtls-2.16.2/library/ecp_curves.c ****  * This avoids moving things around in memory, and uselessly adding zeros,
 861:/home/xingli/share/LiteOS_Lab/network/dtls/mbedtls/mbedtls-2.16.2/library/ecp_curves.c ****  * compared to the more straightforward, line-oriented approach.
 862:/home/xingli/share/LiteOS_Lab/network/dtls/mbedtls/mbedtls-2.16.2/library/ecp_curves.c ****  *
 863:/home/xingli/share/LiteOS_Lab/network/dtls/mbedtls/mbedtls-2.16.2/library/ecp_curves.c ****  * For this prime we need to handle data in chunks of 64 bits.
 864:/home/xingli/share/LiteOS_Lab/network/dtls/mbedtls/mbedtls-2.16.2/library/ecp_curves.c ****  * Since this is always a multiple of our basic mbedtls_mpi_uint, we can
 865:/home/xingli/share/LiteOS_Lab/network/dtls/mbedtls/mbedtls-2.16.2/library/ecp_curves.c ****  * use a mbedtls_mpi_uint * to designate such a chunk, and small loops to handle it.
 866:/home/xingli/share/LiteOS_Lab/network/dtls/mbedtls/mbedtls-2.16.2/library/ecp_curves.c ****  */
 867:/home/xingli/share/LiteOS_Lab/network/dtls/mbedtls/mbedtls-2.16.2/library/ecp_curves.c **** 
 868:/home/xingli/share/LiteOS_Lab/network/dtls/mbedtls/mbedtls-2.16.2/library/ecp_curves.c **** /* Add 64-bit chunks (dst += src) and update carry */
 869:/home/xingli/share/LiteOS_Lab/network/dtls/mbedtls/mbedtls-2.16.2/library/ecp_curves.c **** static inline void add64( mbedtls_mpi_uint *dst, mbedtls_mpi_uint *src, mbedtls_mpi_uint *carry )
 870:/home/xingli/share/LiteOS_Lab/network/dtls/mbedtls/mbedtls-2.16.2/library/ecp_curves.c **** {
 871:/home/xingli/share/LiteOS_Lab/network/dtls/mbedtls/mbedtls-2.16.2/library/ecp_curves.c ****     unsigned char i;
 872:/home/xingli/share/LiteOS_Lab/network/dtls/mbedtls/mbedtls-2.16.2/library/ecp_curves.c ****     mbedtls_mpi_uint c = 0;
 873:/home/xingli/share/LiteOS_Lab/network/dtls/mbedtls/mbedtls-2.16.2/library/ecp_curves.c ****     for( i = 0; i < 8 / sizeof( mbedtls_mpi_uint ); i++, dst++, src++ )
 874:/home/xingli/share/LiteOS_Lab/network/dtls/mbedtls/mbedtls-2.16.2/library/ecp_curves.c ****     {
 875:/home/xingli/share/LiteOS_Lab/network/dtls/mbedtls/mbedtls-2.16.2/library/ecp_curves.c ****         *dst += c;      c  = ( *dst < c );
 876:/home/xingli/share/LiteOS_Lab/network/dtls/mbedtls/mbedtls-2.16.2/library/ecp_curves.c ****         *dst += *src;   c += ( *dst < *src );
GAS LISTING /tmp/ccBClcmz.s 			page 36


 877:/home/xingli/share/LiteOS_Lab/network/dtls/mbedtls/mbedtls-2.16.2/library/ecp_curves.c ****     }
 878:/home/xingli/share/LiteOS_Lab/network/dtls/mbedtls/mbedtls-2.16.2/library/ecp_curves.c ****     *carry += c;
 879:/home/xingli/share/LiteOS_Lab/network/dtls/mbedtls/mbedtls-2.16.2/library/ecp_curves.c **** }
 880:/home/xingli/share/LiteOS_Lab/network/dtls/mbedtls/mbedtls-2.16.2/library/ecp_curves.c **** 
 881:/home/xingli/share/LiteOS_Lab/network/dtls/mbedtls/mbedtls-2.16.2/library/ecp_curves.c **** /* Add carry to a 64-bit chunk and update carry */
 882:/home/xingli/share/LiteOS_Lab/network/dtls/mbedtls/mbedtls-2.16.2/library/ecp_curves.c **** static inline void carry64( mbedtls_mpi_uint *dst, mbedtls_mpi_uint *carry )
 883:/home/xingli/share/LiteOS_Lab/network/dtls/mbedtls/mbedtls-2.16.2/library/ecp_curves.c **** {
 884:/home/xingli/share/LiteOS_Lab/network/dtls/mbedtls/mbedtls-2.16.2/library/ecp_curves.c ****     unsigned char i;
 885:/home/xingli/share/LiteOS_Lab/network/dtls/mbedtls/mbedtls-2.16.2/library/ecp_curves.c ****     for( i = 0; i < 8 / sizeof( mbedtls_mpi_uint ); i++, dst++ )
 886:/home/xingli/share/LiteOS_Lab/network/dtls/mbedtls/mbedtls-2.16.2/library/ecp_curves.c ****     {
 887:/home/xingli/share/LiteOS_Lab/network/dtls/mbedtls/mbedtls-2.16.2/library/ecp_curves.c ****         *dst += *carry;
 888:/home/xingli/share/LiteOS_Lab/network/dtls/mbedtls/mbedtls-2.16.2/library/ecp_curves.c ****         *carry  = ( *dst < *carry );
 889:/home/xingli/share/LiteOS_Lab/network/dtls/mbedtls/mbedtls-2.16.2/library/ecp_curves.c ****     }
 890:/home/xingli/share/LiteOS_Lab/network/dtls/mbedtls/mbedtls-2.16.2/library/ecp_curves.c **** }
 891:/home/xingli/share/LiteOS_Lab/network/dtls/mbedtls/mbedtls-2.16.2/library/ecp_curves.c **** 
 892:/home/xingli/share/LiteOS_Lab/network/dtls/mbedtls/mbedtls-2.16.2/library/ecp_curves.c **** #define WIDTH       8 / sizeof( mbedtls_mpi_uint )
 893:/home/xingli/share/LiteOS_Lab/network/dtls/mbedtls/mbedtls-2.16.2/library/ecp_curves.c **** #define A( i )      N->p + (i) * WIDTH
 894:/home/xingli/share/LiteOS_Lab/network/dtls/mbedtls/mbedtls-2.16.2/library/ecp_curves.c **** #define ADD( i )    add64( p, A( i ), &c )
 895:/home/xingli/share/LiteOS_Lab/network/dtls/mbedtls/mbedtls-2.16.2/library/ecp_curves.c **** #define NEXT        p += WIDTH; carry64( p, &c )
 896:/home/xingli/share/LiteOS_Lab/network/dtls/mbedtls/mbedtls-2.16.2/library/ecp_curves.c **** #define LAST        p += WIDTH; *p = c; while( ++p < end ) *p = 0
 897:/home/xingli/share/LiteOS_Lab/network/dtls/mbedtls/mbedtls-2.16.2/library/ecp_curves.c **** 
 898:/home/xingli/share/LiteOS_Lab/network/dtls/mbedtls/mbedtls-2.16.2/library/ecp_curves.c **** /*
 899:/home/xingli/share/LiteOS_Lab/network/dtls/mbedtls/mbedtls-2.16.2/library/ecp_curves.c ****  * Fast quasi-reduction modulo p192 (FIPS 186-3 D.2.1)
 900:/home/xingli/share/LiteOS_Lab/network/dtls/mbedtls/mbedtls-2.16.2/library/ecp_curves.c ****  */
 901:/home/xingli/share/LiteOS_Lab/network/dtls/mbedtls/mbedtls-2.16.2/library/ecp_curves.c **** static int ecp_mod_p192( mbedtls_mpi *N )
 902:/home/xingli/share/LiteOS_Lab/network/dtls/mbedtls/mbedtls-2.16.2/library/ecp_curves.c **** {
 903:/home/xingli/share/LiteOS_Lab/network/dtls/mbedtls/mbedtls-2.16.2/library/ecp_curves.c ****     int ret;
 904:/home/xingli/share/LiteOS_Lab/network/dtls/mbedtls/mbedtls-2.16.2/library/ecp_curves.c ****     mbedtls_mpi_uint c = 0;
 905:/home/xingli/share/LiteOS_Lab/network/dtls/mbedtls/mbedtls-2.16.2/library/ecp_curves.c ****     mbedtls_mpi_uint *p, *end;
 906:/home/xingli/share/LiteOS_Lab/network/dtls/mbedtls/mbedtls-2.16.2/library/ecp_curves.c **** 
 907:/home/xingli/share/LiteOS_Lab/network/dtls/mbedtls/mbedtls-2.16.2/library/ecp_curves.c ****     /* Make sure we have enough blocks so that A(5) is legal */
 908:/home/xingli/share/LiteOS_Lab/network/dtls/mbedtls/mbedtls-2.16.2/library/ecp_curves.c ****     MBEDTLS_MPI_CHK( mbedtls_mpi_grow( N, 6 * WIDTH ) );
 909:/home/xingli/share/LiteOS_Lab/network/dtls/mbedtls/mbedtls-2.16.2/library/ecp_curves.c **** 
 910:/home/xingli/share/LiteOS_Lab/network/dtls/mbedtls/mbedtls-2.16.2/library/ecp_curves.c ****     p = N->p;
 911:/home/xingli/share/LiteOS_Lab/network/dtls/mbedtls/mbedtls-2.16.2/library/ecp_curves.c ****     end = p + N->n;
 912:/home/xingli/share/LiteOS_Lab/network/dtls/mbedtls/mbedtls-2.16.2/library/ecp_curves.c **** 
 913:/home/xingli/share/LiteOS_Lab/network/dtls/mbedtls/mbedtls-2.16.2/library/ecp_curves.c ****     ADD( 3 ); ADD( 5 );             NEXT; // A0 += A3 + A5
 914:/home/xingli/share/LiteOS_Lab/network/dtls/mbedtls/mbedtls-2.16.2/library/ecp_curves.c ****     ADD( 3 ); ADD( 4 ); ADD( 5 );   NEXT; // A1 += A3 + A4 + A5
 915:/home/xingli/share/LiteOS_Lab/network/dtls/mbedtls/mbedtls-2.16.2/library/ecp_curves.c ****     ADD( 4 ); ADD( 5 );             LAST; // A2 += A4 + A5
 916:/home/xingli/share/LiteOS_Lab/network/dtls/mbedtls/mbedtls-2.16.2/library/ecp_curves.c **** 
 917:/home/xingli/share/LiteOS_Lab/network/dtls/mbedtls/mbedtls-2.16.2/library/ecp_curves.c **** cleanup:
 918:/home/xingli/share/LiteOS_Lab/network/dtls/mbedtls/mbedtls-2.16.2/library/ecp_curves.c ****     return( ret );
 919:/home/xingli/share/LiteOS_Lab/network/dtls/mbedtls/mbedtls-2.16.2/library/ecp_curves.c **** }
 920:/home/xingli/share/LiteOS_Lab/network/dtls/mbedtls/mbedtls-2.16.2/library/ecp_curves.c **** 
 921:/home/xingli/share/LiteOS_Lab/network/dtls/mbedtls/mbedtls-2.16.2/library/ecp_curves.c **** #undef WIDTH
 922:/home/xingli/share/LiteOS_Lab/network/dtls/mbedtls/mbedtls-2.16.2/library/ecp_curves.c **** #undef A
 923:/home/xingli/share/LiteOS_Lab/network/dtls/mbedtls/mbedtls-2.16.2/library/ecp_curves.c **** #undef ADD
 924:/home/xingli/share/LiteOS_Lab/network/dtls/mbedtls/mbedtls-2.16.2/library/ecp_curves.c **** #undef NEXT
 925:/home/xingli/share/LiteOS_Lab/network/dtls/mbedtls/mbedtls-2.16.2/library/ecp_curves.c **** #undef LAST
 926:/home/xingli/share/LiteOS_Lab/network/dtls/mbedtls/mbedtls-2.16.2/library/ecp_curves.c **** #endif /* MBEDTLS_ECP_DP_SECP192R1_ENABLED */
 927:/home/xingli/share/LiteOS_Lab/network/dtls/mbedtls/mbedtls-2.16.2/library/ecp_curves.c **** 
 928:/home/xingli/share/LiteOS_Lab/network/dtls/mbedtls/mbedtls-2.16.2/library/ecp_curves.c **** #if defined(MBEDTLS_ECP_DP_SECP224R1_ENABLED) ||   \
 929:/home/xingli/share/LiteOS_Lab/network/dtls/mbedtls/mbedtls-2.16.2/library/ecp_curves.c ****     defined(MBEDTLS_ECP_DP_SECP256R1_ENABLED) ||   \
 930:/home/xingli/share/LiteOS_Lab/network/dtls/mbedtls/mbedtls-2.16.2/library/ecp_curves.c ****     defined(MBEDTLS_ECP_DP_SECP384R1_ENABLED)
 931:/home/xingli/share/LiteOS_Lab/network/dtls/mbedtls/mbedtls-2.16.2/library/ecp_curves.c **** /*
 932:/home/xingli/share/LiteOS_Lab/network/dtls/mbedtls/mbedtls-2.16.2/library/ecp_curves.c ****  * The reader is advised to first understand ecp_mod_p192() since the same
 933:/home/xingli/share/LiteOS_Lab/network/dtls/mbedtls/mbedtls-2.16.2/library/ecp_curves.c ****  * general structure is used here, but with additional complications:
GAS LISTING /tmp/ccBClcmz.s 			page 37


 934:/home/xingli/share/LiteOS_Lab/network/dtls/mbedtls/mbedtls-2.16.2/library/ecp_curves.c ****  * (1) chunks of 32 bits, and (2) subtractions.
 935:/home/xingli/share/LiteOS_Lab/network/dtls/mbedtls/mbedtls-2.16.2/library/ecp_curves.c ****  */
 936:/home/xingli/share/LiteOS_Lab/network/dtls/mbedtls/mbedtls-2.16.2/library/ecp_curves.c **** 
 937:/home/xingli/share/LiteOS_Lab/network/dtls/mbedtls/mbedtls-2.16.2/library/ecp_curves.c **** /*
 938:/home/xingli/share/LiteOS_Lab/network/dtls/mbedtls/mbedtls-2.16.2/library/ecp_curves.c ****  * For these primes, we need to handle data in chunks of 32 bits.
 939:/home/xingli/share/LiteOS_Lab/network/dtls/mbedtls/mbedtls-2.16.2/library/ecp_curves.c ****  * This makes it more complicated if we use 64 bits limbs in MPI,
 940:/home/xingli/share/LiteOS_Lab/network/dtls/mbedtls/mbedtls-2.16.2/library/ecp_curves.c ****  * which prevents us from using a uniform access method as for p192.
 941:/home/xingli/share/LiteOS_Lab/network/dtls/mbedtls/mbedtls-2.16.2/library/ecp_curves.c ****  *
 942:/home/xingli/share/LiteOS_Lab/network/dtls/mbedtls/mbedtls-2.16.2/library/ecp_curves.c ****  * So, we define a mini abstraction layer to access 32 bit chunks,
 943:/home/xingli/share/LiteOS_Lab/network/dtls/mbedtls/mbedtls-2.16.2/library/ecp_curves.c ****  * load them in 'cur' for work, and store them back from 'cur' when done.
 944:/home/xingli/share/LiteOS_Lab/network/dtls/mbedtls/mbedtls-2.16.2/library/ecp_curves.c ****  *
 945:/home/xingli/share/LiteOS_Lab/network/dtls/mbedtls/mbedtls-2.16.2/library/ecp_curves.c ****  * While at it, also define the size of N in terms of 32-bit chunks.
 946:/home/xingli/share/LiteOS_Lab/network/dtls/mbedtls/mbedtls-2.16.2/library/ecp_curves.c ****  */
 947:/home/xingli/share/LiteOS_Lab/network/dtls/mbedtls/mbedtls-2.16.2/library/ecp_curves.c **** #define LOAD32      cur = A( i );
 948:/home/xingli/share/LiteOS_Lab/network/dtls/mbedtls/mbedtls-2.16.2/library/ecp_curves.c **** 
 949:/home/xingli/share/LiteOS_Lab/network/dtls/mbedtls/mbedtls-2.16.2/library/ecp_curves.c **** #if defined(MBEDTLS_HAVE_INT32)  /* 32 bit */
 950:/home/xingli/share/LiteOS_Lab/network/dtls/mbedtls/mbedtls-2.16.2/library/ecp_curves.c **** 
 951:/home/xingli/share/LiteOS_Lab/network/dtls/mbedtls/mbedtls-2.16.2/library/ecp_curves.c **** #define MAX32       N->n
 952:/home/xingli/share/LiteOS_Lab/network/dtls/mbedtls/mbedtls-2.16.2/library/ecp_curves.c **** #define A( j )      N->p[j]
 953:/home/xingli/share/LiteOS_Lab/network/dtls/mbedtls/mbedtls-2.16.2/library/ecp_curves.c **** #define STORE32     N->p[i] = cur;
 954:/home/xingli/share/LiteOS_Lab/network/dtls/mbedtls/mbedtls-2.16.2/library/ecp_curves.c **** 
 955:/home/xingli/share/LiteOS_Lab/network/dtls/mbedtls/mbedtls-2.16.2/library/ecp_curves.c **** #else                               /* 64-bit */
 956:/home/xingli/share/LiteOS_Lab/network/dtls/mbedtls/mbedtls-2.16.2/library/ecp_curves.c **** 
 957:/home/xingli/share/LiteOS_Lab/network/dtls/mbedtls/mbedtls-2.16.2/library/ecp_curves.c **** #define MAX32       N->n * 2
 958:/home/xingli/share/LiteOS_Lab/network/dtls/mbedtls/mbedtls-2.16.2/library/ecp_curves.c **** #define A( j ) (j) % 2 ? (uint32_t)( N->p[(j)/2] >> 32 ) : \
 959:/home/xingli/share/LiteOS_Lab/network/dtls/mbedtls/mbedtls-2.16.2/library/ecp_curves.c ****                          (uint32_t)( N->p[(j)/2] )
 960:/home/xingli/share/LiteOS_Lab/network/dtls/mbedtls/mbedtls-2.16.2/library/ecp_curves.c **** #define STORE32                                   \
 961:/home/xingli/share/LiteOS_Lab/network/dtls/mbedtls/mbedtls-2.16.2/library/ecp_curves.c ****     if( i % 2 ) {                                 \
 962:/home/xingli/share/LiteOS_Lab/network/dtls/mbedtls/mbedtls-2.16.2/library/ecp_curves.c ****         N->p[i/2] &= 0x00000000FFFFFFFF;          \
 963:/home/xingli/share/LiteOS_Lab/network/dtls/mbedtls/mbedtls-2.16.2/library/ecp_curves.c ****         N->p[i/2] |= ((mbedtls_mpi_uint) cur) << 32;        \
 964:/home/xingli/share/LiteOS_Lab/network/dtls/mbedtls/mbedtls-2.16.2/library/ecp_curves.c ****     } else {                                      \
 965:/home/xingli/share/LiteOS_Lab/network/dtls/mbedtls/mbedtls-2.16.2/library/ecp_curves.c ****         N->p[i/2] &= 0xFFFFFFFF00000000;          \
 966:/home/xingli/share/LiteOS_Lab/network/dtls/mbedtls/mbedtls-2.16.2/library/ecp_curves.c ****         N->p[i/2] |= (mbedtls_mpi_uint) cur;                \
 967:/home/xingli/share/LiteOS_Lab/network/dtls/mbedtls/mbedtls-2.16.2/library/ecp_curves.c ****     }
 968:/home/xingli/share/LiteOS_Lab/network/dtls/mbedtls/mbedtls-2.16.2/library/ecp_curves.c **** 
 969:/home/xingli/share/LiteOS_Lab/network/dtls/mbedtls/mbedtls-2.16.2/library/ecp_curves.c **** #endif /* sizeof( mbedtls_mpi_uint ) */
 970:/home/xingli/share/LiteOS_Lab/network/dtls/mbedtls/mbedtls-2.16.2/library/ecp_curves.c **** 
 971:/home/xingli/share/LiteOS_Lab/network/dtls/mbedtls/mbedtls-2.16.2/library/ecp_curves.c **** /*
 972:/home/xingli/share/LiteOS_Lab/network/dtls/mbedtls/mbedtls-2.16.2/library/ecp_curves.c ****  * Helpers for addition and subtraction of chunks, with signed carry.
 973:/home/xingli/share/LiteOS_Lab/network/dtls/mbedtls/mbedtls-2.16.2/library/ecp_curves.c ****  */
 974:/home/xingli/share/LiteOS_Lab/network/dtls/mbedtls/mbedtls-2.16.2/library/ecp_curves.c **** static inline void add32( uint32_t *dst, uint32_t src, signed char *carry )
 975:/home/xingli/share/LiteOS_Lab/network/dtls/mbedtls/mbedtls-2.16.2/library/ecp_curves.c **** {
 976:/home/xingli/share/LiteOS_Lab/network/dtls/mbedtls/mbedtls-2.16.2/library/ecp_curves.c ****     *dst += src;
 977:/home/xingli/share/LiteOS_Lab/network/dtls/mbedtls/mbedtls-2.16.2/library/ecp_curves.c ****     *carry += ( *dst < src );
 978:/home/xingli/share/LiteOS_Lab/network/dtls/mbedtls/mbedtls-2.16.2/library/ecp_curves.c **** }
 979:/home/xingli/share/LiteOS_Lab/network/dtls/mbedtls/mbedtls-2.16.2/library/ecp_curves.c **** 
 980:/home/xingli/share/LiteOS_Lab/network/dtls/mbedtls/mbedtls-2.16.2/library/ecp_curves.c **** static inline void sub32( uint32_t *dst, uint32_t src, signed char *carry )
 981:/home/xingli/share/LiteOS_Lab/network/dtls/mbedtls/mbedtls-2.16.2/library/ecp_curves.c **** {
 982:/home/xingli/share/LiteOS_Lab/network/dtls/mbedtls/mbedtls-2.16.2/library/ecp_curves.c ****     *carry -= ( *dst < src );
 983:/home/xingli/share/LiteOS_Lab/network/dtls/mbedtls/mbedtls-2.16.2/library/ecp_curves.c ****     *dst -= src;
 984:/home/xingli/share/LiteOS_Lab/network/dtls/mbedtls/mbedtls-2.16.2/library/ecp_curves.c **** }
 985:/home/xingli/share/LiteOS_Lab/network/dtls/mbedtls/mbedtls-2.16.2/library/ecp_curves.c **** 
 986:/home/xingli/share/LiteOS_Lab/network/dtls/mbedtls/mbedtls-2.16.2/library/ecp_curves.c **** #define ADD( j )    add32( &cur, A( j ), &c );
 987:/home/xingli/share/LiteOS_Lab/network/dtls/mbedtls/mbedtls-2.16.2/library/ecp_curves.c **** #define SUB( j )    sub32( &cur, A( j ), &c );
 988:/home/xingli/share/LiteOS_Lab/network/dtls/mbedtls/mbedtls-2.16.2/library/ecp_curves.c **** 
 989:/home/xingli/share/LiteOS_Lab/network/dtls/mbedtls/mbedtls-2.16.2/library/ecp_curves.c **** /*
 990:/home/xingli/share/LiteOS_Lab/network/dtls/mbedtls/mbedtls-2.16.2/library/ecp_curves.c ****  * Helpers for the main 'loop'
GAS LISTING /tmp/ccBClcmz.s 			page 38


 991:/home/xingli/share/LiteOS_Lab/network/dtls/mbedtls/mbedtls-2.16.2/library/ecp_curves.c ****  * (see fix_negative for the motivation of C)
 992:/home/xingli/share/LiteOS_Lab/network/dtls/mbedtls/mbedtls-2.16.2/library/ecp_curves.c ****  */
 993:/home/xingli/share/LiteOS_Lab/network/dtls/mbedtls/mbedtls-2.16.2/library/ecp_curves.c **** #define INIT( b )                                                       \
 994:/home/xingli/share/LiteOS_Lab/network/dtls/mbedtls/mbedtls-2.16.2/library/ecp_curves.c ****     int ret;                                                            \
 995:/home/xingli/share/LiteOS_Lab/network/dtls/mbedtls/mbedtls-2.16.2/library/ecp_curves.c ****     signed char c = 0, cc;                                              \
 996:/home/xingli/share/LiteOS_Lab/network/dtls/mbedtls/mbedtls-2.16.2/library/ecp_curves.c ****     uint32_t cur;                                                       \
 997:/home/xingli/share/LiteOS_Lab/network/dtls/mbedtls/mbedtls-2.16.2/library/ecp_curves.c ****     size_t i = 0, bits = (b);                                           \
 998:/home/xingli/share/LiteOS_Lab/network/dtls/mbedtls/mbedtls-2.16.2/library/ecp_curves.c ****     mbedtls_mpi C;                                                      \
 999:/home/xingli/share/LiteOS_Lab/network/dtls/mbedtls/mbedtls-2.16.2/library/ecp_curves.c ****     mbedtls_mpi_uint Cp[ (b) / 8 / sizeof( mbedtls_mpi_uint) + 1 ];     \
1000:/home/xingli/share/LiteOS_Lab/network/dtls/mbedtls/mbedtls-2.16.2/library/ecp_curves.c ****                                                                         \
1001:/home/xingli/share/LiteOS_Lab/network/dtls/mbedtls/mbedtls-2.16.2/library/ecp_curves.c ****     C.s = 1;                                                            \
1002:/home/xingli/share/LiteOS_Lab/network/dtls/mbedtls/mbedtls-2.16.2/library/ecp_curves.c ****     C.n = (b) / 8 / sizeof( mbedtls_mpi_uint) + 1;                      \
1003:/home/xingli/share/LiteOS_Lab/network/dtls/mbedtls/mbedtls-2.16.2/library/ecp_curves.c ****     C.p = Cp;                                                           \
1004:/home/xingli/share/LiteOS_Lab/network/dtls/mbedtls/mbedtls-2.16.2/library/ecp_curves.c ****     memset( Cp, 0, C.n * sizeof( mbedtls_mpi_uint ) );                  \
1005:/home/xingli/share/LiteOS_Lab/network/dtls/mbedtls/mbedtls-2.16.2/library/ecp_curves.c ****                                                                         \
1006:/home/xingli/share/LiteOS_Lab/network/dtls/mbedtls/mbedtls-2.16.2/library/ecp_curves.c ****     MBEDTLS_MPI_CHK( mbedtls_mpi_grow( N, (b) * 2 / 8 /                 \
1007:/home/xingli/share/LiteOS_Lab/network/dtls/mbedtls/mbedtls-2.16.2/library/ecp_curves.c ****                                        sizeof( mbedtls_mpi_uint ) ) );  \
1008:/home/xingli/share/LiteOS_Lab/network/dtls/mbedtls/mbedtls-2.16.2/library/ecp_curves.c ****     LOAD32;
1009:/home/xingli/share/LiteOS_Lab/network/dtls/mbedtls/mbedtls-2.16.2/library/ecp_curves.c **** 
1010:/home/xingli/share/LiteOS_Lab/network/dtls/mbedtls/mbedtls-2.16.2/library/ecp_curves.c **** #define NEXT                    \
1011:/home/xingli/share/LiteOS_Lab/network/dtls/mbedtls/mbedtls-2.16.2/library/ecp_curves.c ****     STORE32; i++; LOAD32;       \
1012:/home/xingli/share/LiteOS_Lab/network/dtls/mbedtls/mbedtls-2.16.2/library/ecp_curves.c ****     cc = c; c = 0;              \
1013:/home/xingli/share/LiteOS_Lab/network/dtls/mbedtls/mbedtls-2.16.2/library/ecp_curves.c ****     if( cc < 0 )                \
1014:/home/xingli/share/LiteOS_Lab/network/dtls/mbedtls/mbedtls-2.16.2/library/ecp_curves.c ****         sub32( &cur, -cc, &c ); \
1015:/home/xingli/share/LiteOS_Lab/network/dtls/mbedtls/mbedtls-2.16.2/library/ecp_curves.c ****     else                        \
1016:/home/xingli/share/LiteOS_Lab/network/dtls/mbedtls/mbedtls-2.16.2/library/ecp_curves.c ****         add32( &cur, cc, &c );  \
1017:/home/xingli/share/LiteOS_Lab/network/dtls/mbedtls/mbedtls-2.16.2/library/ecp_curves.c **** 
1018:/home/xingli/share/LiteOS_Lab/network/dtls/mbedtls/mbedtls-2.16.2/library/ecp_curves.c **** #define LAST                                    \
1019:/home/xingli/share/LiteOS_Lab/network/dtls/mbedtls/mbedtls-2.16.2/library/ecp_curves.c ****     STORE32; i++;                               \
1020:/home/xingli/share/LiteOS_Lab/network/dtls/mbedtls/mbedtls-2.16.2/library/ecp_curves.c ****     cur = c > 0 ? c : 0; STORE32;               \
1021:/home/xingli/share/LiteOS_Lab/network/dtls/mbedtls/mbedtls-2.16.2/library/ecp_curves.c ****     cur = 0; while( ++i < MAX32 ) { STORE32; }  \
1022:/home/xingli/share/LiteOS_Lab/network/dtls/mbedtls/mbedtls-2.16.2/library/ecp_curves.c ****     if( c < 0 ) fix_negative( N, c, &C, bits );
1023:/home/xingli/share/LiteOS_Lab/network/dtls/mbedtls/mbedtls-2.16.2/library/ecp_curves.c **** 
1024:/home/xingli/share/LiteOS_Lab/network/dtls/mbedtls/mbedtls-2.16.2/library/ecp_curves.c **** /*
1025:/home/xingli/share/LiteOS_Lab/network/dtls/mbedtls/mbedtls-2.16.2/library/ecp_curves.c ****  * If the result is negative, we get it in the form
1026:/home/xingli/share/LiteOS_Lab/network/dtls/mbedtls/mbedtls-2.16.2/library/ecp_curves.c ****  * c * 2^(bits + 32) + N, with c negative and N positive shorter than 'bits'
1027:/home/xingli/share/LiteOS_Lab/network/dtls/mbedtls/mbedtls-2.16.2/library/ecp_curves.c ****  */
1028:/home/xingli/share/LiteOS_Lab/network/dtls/mbedtls/mbedtls-2.16.2/library/ecp_curves.c **** static inline int fix_negative( mbedtls_mpi *N, signed char c, mbedtls_mpi *C, size_t bits )
1029:/home/xingli/share/LiteOS_Lab/network/dtls/mbedtls/mbedtls-2.16.2/library/ecp_curves.c **** {
1030:/home/xingli/share/LiteOS_Lab/network/dtls/mbedtls/mbedtls-2.16.2/library/ecp_curves.c ****     int ret;
1031:/home/xingli/share/LiteOS_Lab/network/dtls/mbedtls/mbedtls-2.16.2/library/ecp_curves.c **** 
1032:/home/xingli/share/LiteOS_Lab/network/dtls/mbedtls/mbedtls-2.16.2/library/ecp_curves.c ****     /* C = - c * 2^(bits + 32) */
1033:/home/xingli/share/LiteOS_Lab/network/dtls/mbedtls/mbedtls-2.16.2/library/ecp_curves.c **** #if !defined(MBEDTLS_HAVE_INT64)
1034:/home/xingli/share/LiteOS_Lab/network/dtls/mbedtls/mbedtls-2.16.2/library/ecp_curves.c ****     ((void) bits);
1035:/home/xingli/share/LiteOS_Lab/network/dtls/mbedtls/mbedtls-2.16.2/library/ecp_curves.c **** #else
1036:/home/xingli/share/LiteOS_Lab/network/dtls/mbedtls/mbedtls-2.16.2/library/ecp_curves.c ****     if( bits == 224 )
1037:/home/xingli/share/LiteOS_Lab/network/dtls/mbedtls/mbedtls-2.16.2/library/ecp_curves.c ****         C->p[ C->n - 1 ] = ((mbedtls_mpi_uint) -c) << 32;
1038:/home/xingli/share/LiteOS_Lab/network/dtls/mbedtls/mbedtls-2.16.2/library/ecp_curves.c ****     else
1039:/home/xingli/share/LiteOS_Lab/network/dtls/mbedtls/mbedtls-2.16.2/library/ecp_curves.c **** #endif
1040:/home/xingli/share/LiteOS_Lab/network/dtls/mbedtls/mbedtls-2.16.2/library/ecp_curves.c ****         C->p[ C->n - 1 ] = (mbedtls_mpi_uint) -c;
1041:/home/xingli/share/LiteOS_Lab/network/dtls/mbedtls/mbedtls-2.16.2/library/ecp_curves.c **** 
1042:/home/xingli/share/LiteOS_Lab/network/dtls/mbedtls/mbedtls-2.16.2/library/ecp_curves.c ****     /* N = - ( C - N ) */
1043:/home/xingli/share/LiteOS_Lab/network/dtls/mbedtls/mbedtls-2.16.2/library/ecp_curves.c ****     MBEDTLS_MPI_CHK( mbedtls_mpi_sub_abs( N, C, N ) );
1044:/home/xingli/share/LiteOS_Lab/network/dtls/mbedtls/mbedtls-2.16.2/library/ecp_curves.c ****     N->s = -1;
1045:/home/xingli/share/LiteOS_Lab/network/dtls/mbedtls/mbedtls-2.16.2/library/ecp_curves.c **** 
1046:/home/xingli/share/LiteOS_Lab/network/dtls/mbedtls/mbedtls-2.16.2/library/ecp_curves.c **** cleanup:
1047:/home/xingli/share/LiteOS_Lab/network/dtls/mbedtls/mbedtls-2.16.2/library/ecp_curves.c **** 
GAS LISTING /tmp/ccBClcmz.s 			page 39


1048:/home/xingli/share/LiteOS_Lab/network/dtls/mbedtls/mbedtls-2.16.2/library/ecp_curves.c ****     return( ret );
1049:/home/xingli/share/LiteOS_Lab/network/dtls/mbedtls/mbedtls-2.16.2/library/ecp_curves.c **** }
1050:/home/xingli/share/LiteOS_Lab/network/dtls/mbedtls/mbedtls-2.16.2/library/ecp_curves.c **** 
1051:/home/xingli/share/LiteOS_Lab/network/dtls/mbedtls/mbedtls-2.16.2/library/ecp_curves.c **** #if defined(MBEDTLS_ECP_DP_SECP224R1_ENABLED)
1052:/home/xingli/share/LiteOS_Lab/network/dtls/mbedtls/mbedtls-2.16.2/library/ecp_curves.c **** /*
1053:/home/xingli/share/LiteOS_Lab/network/dtls/mbedtls/mbedtls-2.16.2/library/ecp_curves.c ****  * Fast quasi-reduction modulo p224 (FIPS 186-3 D.2.2)
1054:/home/xingli/share/LiteOS_Lab/network/dtls/mbedtls/mbedtls-2.16.2/library/ecp_curves.c ****  */
1055:/home/xingli/share/LiteOS_Lab/network/dtls/mbedtls/mbedtls-2.16.2/library/ecp_curves.c **** static int ecp_mod_p224( mbedtls_mpi *N )
1056:/home/xingli/share/LiteOS_Lab/network/dtls/mbedtls/mbedtls-2.16.2/library/ecp_curves.c **** {
1057:/home/xingli/share/LiteOS_Lab/network/dtls/mbedtls/mbedtls-2.16.2/library/ecp_curves.c ****     INIT( 224 );
1058:/home/xingli/share/LiteOS_Lab/network/dtls/mbedtls/mbedtls-2.16.2/library/ecp_curves.c **** 
1059:/home/xingli/share/LiteOS_Lab/network/dtls/mbedtls/mbedtls-2.16.2/library/ecp_curves.c ****     SUB(  7 ); SUB( 11 );               NEXT; // A0 += -A7 - A11
1060:/home/xingli/share/LiteOS_Lab/network/dtls/mbedtls/mbedtls-2.16.2/library/ecp_curves.c ****     SUB(  8 ); SUB( 12 );               NEXT; // A1 += -A8 - A12
1061:/home/xingli/share/LiteOS_Lab/network/dtls/mbedtls/mbedtls-2.16.2/library/ecp_curves.c ****     SUB(  9 ); SUB( 13 );               NEXT; // A2 += -A9 - A13
1062:/home/xingli/share/LiteOS_Lab/network/dtls/mbedtls/mbedtls-2.16.2/library/ecp_curves.c ****     SUB( 10 ); ADD(  7 ); ADD( 11 );    NEXT; // A3 += -A10 + A7 + A11
1063:/home/xingli/share/LiteOS_Lab/network/dtls/mbedtls/mbedtls-2.16.2/library/ecp_curves.c ****     SUB( 11 ); ADD(  8 ); ADD( 12 );    NEXT; // A4 += -A11 + A8 + A12
1064:/home/xingli/share/LiteOS_Lab/network/dtls/mbedtls/mbedtls-2.16.2/library/ecp_curves.c ****     SUB( 12 ); ADD(  9 ); ADD( 13 );    NEXT; // A5 += -A12 + A9 + A13
1065:/home/xingli/share/LiteOS_Lab/network/dtls/mbedtls/mbedtls-2.16.2/library/ecp_curves.c ****     SUB( 13 ); ADD( 10 );               LAST; // A6 += -A13 + A10
1066:/home/xingli/share/LiteOS_Lab/network/dtls/mbedtls/mbedtls-2.16.2/library/ecp_curves.c **** 
1067:/home/xingli/share/LiteOS_Lab/network/dtls/mbedtls/mbedtls-2.16.2/library/ecp_curves.c **** cleanup:
1068:/home/xingli/share/LiteOS_Lab/network/dtls/mbedtls/mbedtls-2.16.2/library/ecp_curves.c ****     return( ret );
1069:/home/xingli/share/LiteOS_Lab/network/dtls/mbedtls/mbedtls-2.16.2/library/ecp_curves.c **** }
1070:/home/xingli/share/LiteOS_Lab/network/dtls/mbedtls/mbedtls-2.16.2/library/ecp_curves.c **** #endif /* MBEDTLS_ECP_DP_SECP224R1_ENABLED */
1071:/home/xingli/share/LiteOS_Lab/network/dtls/mbedtls/mbedtls-2.16.2/library/ecp_curves.c **** 
1072:/home/xingli/share/LiteOS_Lab/network/dtls/mbedtls/mbedtls-2.16.2/library/ecp_curves.c **** #if defined(MBEDTLS_ECP_DP_SECP256R1_ENABLED)
1073:/home/xingli/share/LiteOS_Lab/network/dtls/mbedtls/mbedtls-2.16.2/library/ecp_curves.c **** /*
1074:/home/xingli/share/LiteOS_Lab/network/dtls/mbedtls/mbedtls-2.16.2/library/ecp_curves.c ****  * Fast quasi-reduction modulo p256 (FIPS 186-3 D.2.3)
1075:/home/xingli/share/LiteOS_Lab/network/dtls/mbedtls/mbedtls-2.16.2/library/ecp_curves.c ****  */
1076:/home/xingli/share/LiteOS_Lab/network/dtls/mbedtls/mbedtls-2.16.2/library/ecp_curves.c **** static int ecp_mod_p256( mbedtls_mpi *N )
1077:/home/xingli/share/LiteOS_Lab/network/dtls/mbedtls/mbedtls-2.16.2/library/ecp_curves.c **** {
1078:/home/xingli/share/LiteOS_Lab/network/dtls/mbedtls/mbedtls-2.16.2/library/ecp_curves.c ****     INIT( 256 );
1079:/home/xingli/share/LiteOS_Lab/network/dtls/mbedtls/mbedtls-2.16.2/library/ecp_curves.c **** 
1080:/home/xingli/share/LiteOS_Lab/network/dtls/mbedtls/mbedtls-2.16.2/library/ecp_curves.c ****     ADD(  8 ); ADD(  9 );
1081:/home/xingli/share/LiteOS_Lab/network/dtls/mbedtls/mbedtls-2.16.2/library/ecp_curves.c ****     SUB( 11 ); SUB( 12 ); SUB( 13 ); SUB( 14 );             NEXT; // A0
1082:/home/xingli/share/LiteOS_Lab/network/dtls/mbedtls/mbedtls-2.16.2/library/ecp_curves.c **** 
1083:/home/xingli/share/LiteOS_Lab/network/dtls/mbedtls/mbedtls-2.16.2/library/ecp_curves.c ****     ADD(  9 ); ADD( 10 );
1084:/home/xingli/share/LiteOS_Lab/network/dtls/mbedtls/mbedtls-2.16.2/library/ecp_curves.c ****     SUB( 12 ); SUB( 13 ); SUB( 14 ); SUB( 15 );             NEXT; // A1
1085:/home/xingli/share/LiteOS_Lab/network/dtls/mbedtls/mbedtls-2.16.2/library/ecp_curves.c **** 
1086:/home/xingli/share/LiteOS_Lab/network/dtls/mbedtls/mbedtls-2.16.2/library/ecp_curves.c ****     ADD( 10 ); ADD( 11 );
1087:/home/xingli/share/LiteOS_Lab/network/dtls/mbedtls/mbedtls-2.16.2/library/ecp_curves.c ****     SUB( 13 ); SUB( 14 ); SUB( 15 );                        NEXT; // A2
1088:/home/xingli/share/LiteOS_Lab/network/dtls/mbedtls/mbedtls-2.16.2/library/ecp_curves.c **** 
1089:/home/xingli/share/LiteOS_Lab/network/dtls/mbedtls/mbedtls-2.16.2/library/ecp_curves.c ****     ADD( 11 ); ADD( 11 ); ADD( 12 ); ADD( 12 ); ADD( 13 );
1090:/home/xingli/share/LiteOS_Lab/network/dtls/mbedtls/mbedtls-2.16.2/library/ecp_curves.c ****     SUB( 15 ); SUB(  8 ); SUB(  9 );                        NEXT; // A3
1091:/home/xingli/share/LiteOS_Lab/network/dtls/mbedtls/mbedtls-2.16.2/library/ecp_curves.c **** 
1092:/home/xingli/share/LiteOS_Lab/network/dtls/mbedtls/mbedtls-2.16.2/library/ecp_curves.c ****     ADD( 12 ); ADD( 12 ); ADD( 13 ); ADD( 13 ); ADD( 14 );
1093:/home/xingli/share/LiteOS_Lab/network/dtls/mbedtls/mbedtls-2.16.2/library/ecp_curves.c ****     SUB(  9 ); SUB( 10 );                                   NEXT; // A4
1094:/home/xingli/share/LiteOS_Lab/network/dtls/mbedtls/mbedtls-2.16.2/library/ecp_curves.c **** 
1095:/home/xingli/share/LiteOS_Lab/network/dtls/mbedtls/mbedtls-2.16.2/library/ecp_curves.c ****     ADD( 13 ); ADD( 13 ); ADD( 14 ); ADD( 14 ); ADD( 15 );
1096:/home/xingli/share/LiteOS_Lab/network/dtls/mbedtls/mbedtls-2.16.2/library/ecp_curves.c ****     SUB( 10 ); SUB( 11 );                                   NEXT; // A5
1097:/home/xingli/share/LiteOS_Lab/network/dtls/mbedtls/mbedtls-2.16.2/library/ecp_curves.c **** 
1098:/home/xingli/share/LiteOS_Lab/network/dtls/mbedtls/mbedtls-2.16.2/library/ecp_curves.c ****     ADD( 14 ); ADD( 14 ); ADD( 15 ); ADD( 15 ); ADD( 14 ); ADD( 13 );
1099:/home/xingli/share/LiteOS_Lab/network/dtls/mbedtls/mbedtls-2.16.2/library/ecp_curves.c ****     SUB(  8 ); SUB(  9 );                                   NEXT; // A6
1100:/home/xingli/share/LiteOS_Lab/network/dtls/mbedtls/mbedtls-2.16.2/library/ecp_curves.c **** 
1101:/home/xingli/share/LiteOS_Lab/network/dtls/mbedtls/mbedtls-2.16.2/library/ecp_curves.c ****     ADD( 15 ); ADD( 15 ); ADD( 15 ); ADD( 8 );
1102:/home/xingli/share/LiteOS_Lab/network/dtls/mbedtls/mbedtls-2.16.2/library/ecp_curves.c ****     SUB( 10 ); SUB( 11 ); SUB( 12 ); SUB( 13 );             LAST; // A7
1103:/home/xingli/share/LiteOS_Lab/network/dtls/mbedtls/mbedtls-2.16.2/library/ecp_curves.c **** 
1104:/home/xingli/share/LiteOS_Lab/network/dtls/mbedtls/mbedtls-2.16.2/library/ecp_curves.c **** cleanup:
GAS LISTING /tmp/ccBClcmz.s 			page 40


1105:/home/xingli/share/LiteOS_Lab/network/dtls/mbedtls/mbedtls-2.16.2/library/ecp_curves.c ****     return( ret );
1106:/home/xingli/share/LiteOS_Lab/network/dtls/mbedtls/mbedtls-2.16.2/library/ecp_curves.c **** }
1107:/home/xingli/share/LiteOS_Lab/network/dtls/mbedtls/mbedtls-2.16.2/library/ecp_curves.c **** #endif /* MBEDTLS_ECP_DP_SECP256R1_ENABLED */
1108:/home/xingli/share/LiteOS_Lab/network/dtls/mbedtls/mbedtls-2.16.2/library/ecp_curves.c **** 
1109:/home/xingli/share/LiteOS_Lab/network/dtls/mbedtls/mbedtls-2.16.2/library/ecp_curves.c **** #if defined(MBEDTLS_ECP_DP_SECP384R1_ENABLED)
1110:/home/xingli/share/LiteOS_Lab/network/dtls/mbedtls/mbedtls-2.16.2/library/ecp_curves.c **** /*
1111:/home/xingli/share/LiteOS_Lab/network/dtls/mbedtls/mbedtls-2.16.2/library/ecp_curves.c ****  * Fast quasi-reduction modulo p384 (FIPS 186-3 D.2.4)
1112:/home/xingli/share/LiteOS_Lab/network/dtls/mbedtls/mbedtls-2.16.2/library/ecp_curves.c ****  */
1113:/home/xingli/share/LiteOS_Lab/network/dtls/mbedtls/mbedtls-2.16.2/library/ecp_curves.c **** static int ecp_mod_p384( mbedtls_mpi *N )
1114:/home/xingli/share/LiteOS_Lab/network/dtls/mbedtls/mbedtls-2.16.2/library/ecp_curves.c **** {
1115:/home/xingli/share/LiteOS_Lab/network/dtls/mbedtls/mbedtls-2.16.2/library/ecp_curves.c ****     INIT( 384 );
1116:/home/xingli/share/LiteOS_Lab/network/dtls/mbedtls/mbedtls-2.16.2/library/ecp_curves.c **** 
1117:/home/xingli/share/LiteOS_Lab/network/dtls/mbedtls/mbedtls-2.16.2/library/ecp_curves.c ****     ADD( 12 ); ADD( 21 ); ADD( 20 );
1118:/home/xingli/share/LiteOS_Lab/network/dtls/mbedtls/mbedtls-2.16.2/library/ecp_curves.c ****     SUB( 23 );                                              NEXT; // A0
1119:/home/xingli/share/LiteOS_Lab/network/dtls/mbedtls/mbedtls-2.16.2/library/ecp_curves.c **** 
1120:/home/xingli/share/LiteOS_Lab/network/dtls/mbedtls/mbedtls-2.16.2/library/ecp_curves.c ****     ADD( 13 ); ADD( 22 ); ADD( 23 );
1121:/home/xingli/share/LiteOS_Lab/network/dtls/mbedtls/mbedtls-2.16.2/library/ecp_curves.c ****     SUB( 12 ); SUB( 20 );                                   NEXT; // A2
1122:/home/xingli/share/LiteOS_Lab/network/dtls/mbedtls/mbedtls-2.16.2/library/ecp_curves.c **** 
1123:/home/xingli/share/LiteOS_Lab/network/dtls/mbedtls/mbedtls-2.16.2/library/ecp_curves.c ****     ADD( 14 ); ADD( 23 );
1124:/home/xingli/share/LiteOS_Lab/network/dtls/mbedtls/mbedtls-2.16.2/library/ecp_curves.c ****     SUB( 13 ); SUB( 21 );                                   NEXT; // A2
1125:/home/xingli/share/LiteOS_Lab/network/dtls/mbedtls/mbedtls-2.16.2/library/ecp_curves.c **** 
1126:/home/xingli/share/LiteOS_Lab/network/dtls/mbedtls/mbedtls-2.16.2/library/ecp_curves.c ****     ADD( 15 ); ADD( 12 ); ADD( 20 ); ADD( 21 );
1127:/home/xingli/share/LiteOS_Lab/network/dtls/mbedtls/mbedtls-2.16.2/library/ecp_curves.c ****     SUB( 14 ); SUB( 22 ); SUB( 23 );                        NEXT; // A3
1128:/home/xingli/share/LiteOS_Lab/network/dtls/mbedtls/mbedtls-2.16.2/library/ecp_curves.c **** 
1129:/home/xingli/share/LiteOS_Lab/network/dtls/mbedtls/mbedtls-2.16.2/library/ecp_curves.c ****     ADD( 21 ); ADD( 21 ); ADD( 16 ); ADD( 13 ); ADD( 12 ); ADD( 20 ); ADD( 22 );
1130:/home/xingli/share/LiteOS_Lab/network/dtls/mbedtls/mbedtls-2.16.2/library/ecp_curves.c ****     SUB( 15 ); SUB( 23 ); SUB( 23 );                        NEXT; // A4
1131:/home/xingli/share/LiteOS_Lab/network/dtls/mbedtls/mbedtls-2.16.2/library/ecp_curves.c **** 
1132:/home/xingli/share/LiteOS_Lab/network/dtls/mbedtls/mbedtls-2.16.2/library/ecp_curves.c ****     ADD( 22 ); ADD( 22 ); ADD( 17 ); ADD( 14 ); ADD( 13 ); ADD( 21 ); ADD( 23 );
1133:/home/xingli/share/LiteOS_Lab/network/dtls/mbedtls/mbedtls-2.16.2/library/ecp_curves.c ****     SUB( 16 );                                              NEXT; // A5
1134:/home/xingli/share/LiteOS_Lab/network/dtls/mbedtls/mbedtls-2.16.2/library/ecp_curves.c **** 
1135:/home/xingli/share/LiteOS_Lab/network/dtls/mbedtls/mbedtls-2.16.2/library/ecp_curves.c ****     ADD( 23 ); ADD( 23 ); ADD( 18 ); ADD( 15 ); ADD( 14 ); ADD( 22 );
1136:/home/xingli/share/LiteOS_Lab/network/dtls/mbedtls/mbedtls-2.16.2/library/ecp_curves.c ****     SUB( 17 );                                              NEXT; // A6
1137:/home/xingli/share/LiteOS_Lab/network/dtls/mbedtls/mbedtls-2.16.2/library/ecp_curves.c **** 
1138:/home/xingli/share/LiteOS_Lab/network/dtls/mbedtls/mbedtls-2.16.2/library/ecp_curves.c ****     ADD( 19 ); ADD( 16 ); ADD( 15 ); ADD( 23 );
1139:/home/xingli/share/LiteOS_Lab/network/dtls/mbedtls/mbedtls-2.16.2/library/ecp_curves.c ****     SUB( 18 );                                              NEXT; // A7
1140:/home/xingli/share/LiteOS_Lab/network/dtls/mbedtls/mbedtls-2.16.2/library/ecp_curves.c **** 
1141:/home/xingli/share/LiteOS_Lab/network/dtls/mbedtls/mbedtls-2.16.2/library/ecp_curves.c ****     ADD( 20 ); ADD( 17 ); ADD( 16 );
1142:/home/xingli/share/LiteOS_Lab/network/dtls/mbedtls/mbedtls-2.16.2/library/ecp_curves.c ****     SUB( 19 );                                              NEXT; // A8
1143:/home/xingli/share/LiteOS_Lab/network/dtls/mbedtls/mbedtls-2.16.2/library/ecp_curves.c **** 
1144:/home/xingli/share/LiteOS_Lab/network/dtls/mbedtls/mbedtls-2.16.2/library/ecp_curves.c ****     ADD( 21 ); ADD( 18 ); ADD( 17 );
1145:/home/xingli/share/LiteOS_Lab/network/dtls/mbedtls/mbedtls-2.16.2/library/ecp_curves.c ****     SUB( 20 );                                              NEXT; // A9
1146:/home/xingli/share/LiteOS_Lab/network/dtls/mbedtls/mbedtls-2.16.2/library/ecp_curves.c **** 
1147:/home/xingli/share/LiteOS_Lab/network/dtls/mbedtls/mbedtls-2.16.2/library/ecp_curves.c ****     ADD( 22 ); ADD( 19 ); ADD( 18 );
1148:/home/xingli/share/LiteOS_Lab/network/dtls/mbedtls/mbedtls-2.16.2/library/ecp_curves.c ****     SUB( 21 );                                              NEXT; // A10
1149:/home/xingli/share/LiteOS_Lab/network/dtls/mbedtls/mbedtls-2.16.2/library/ecp_curves.c **** 
1150:/home/xingli/share/LiteOS_Lab/network/dtls/mbedtls/mbedtls-2.16.2/library/ecp_curves.c ****     ADD( 23 ); ADD( 20 ); ADD( 19 );
1151:/home/xingli/share/LiteOS_Lab/network/dtls/mbedtls/mbedtls-2.16.2/library/ecp_curves.c ****     SUB( 22 );                                              LAST; // A11
1152:/home/xingli/share/LiteOS_Lab/network/dtls/mbedtls/mbedtls-2.16.2/library/ecp_curves.c **** 
1153:/home/xingli/share/LiteOS_Lab/network/dtls/mbedtls/mbedtls-2.16.2/library/ecp_curves.c **** cleanup:
1154:/home/xingli/share/LiteOS_Lab/network/dtls/mbedtls/mbedtls-2.16.2/library/ecp_curves.c ****     return( ret );
1155:/home/xingli/share/LiteOS_Lab/network/dtls/mbedtls/mbedtls-2.16.2/library/ecp_curves.c **** }
1156:/home/xingli/share/LiteOS_Lab/network/dtls/mbedtls/mbedtls-2.16.2/library/ecp_curves.c **** #endif /* MBEDTLS_ECP_DP_SECP384R1_ENABLED */
1157:/home/xingli/share/LiteOS_Lab/network/dtls/mbedtls/mbedtls-2.16.2/library/ecp_curves.c **** 
1158:/home/xingli/share/LiteOS_Lab/network/dtls/mbedtls/mbedtls-2.16.2/library/ecp_curves.c **** #undef A
1159:/home/xingli/share/LiteOS_Lab/network/dtls/mbedtls/mbedtls-2.16.2/library/ecp_curves.c **** #undef LOAD32
1160:/home/xingli/share/LiteOS_Lab/network/dtls/mbedtls/mbedtls-2.16.2/library/ecp_curves.c **** #undef STORE32
1161:/home/xingli/share/LiteOS_Lab/network/dtls/mbedtls/mbedtls-2.16.2/library/ecp_curves.c **** #undef MAX32
GAS LISTING /tmp/ccBClcmz.s 			page 41


1162:/home/xingli/share/LiteOS_Lab/network/dtls/mbedtls/mbedtls-2.16.2/library/ecp_curves.c **** #undef INIT
1163:/home/xingli/share/LiteOS_Lab/network/dtls/mbedtls/mbedtls-2.16.2/library/ecp_curves.c **** #undef NEXT
1164:/home/xingli/share/LiteOS_Lab/network/dtls/mbedtls/mbedtls-2.16.2/library/ecp_curves.c **** #undef LAST
1165:/home/xingli/share/LiteOS_Lab/network/dtls/mbedtls/mbedtls-2.16.2/library/ecp_curves.c **** 
1166:/home/xingli/share/LiteOS_Lab/network/dtls/mbedtls/mbedtls-2.16.2/library/ecp_curves.c **** #endif /* MBEDTLS_ECP_DP_SECP224R1_ENABLED ||
1167:/home/xingli/share/LiteOS_Lab/network/dtls/mbedtls/mbedtls-2.16.2/library/ecp_curves.c ****           MBEDTLS_ECP_DP_SECP256R1_ENABLED ||
1168:/home/xingli/share/LiteOS_Lab/network/dtls/mbedtls/mbedtls-2.16.2/library/ecp_curves.c ****           MBEDTLS_ECP_DP_SECP384R1_ENABLED */
1169:/home/xingli/share/LiteOS_Lab/network/dtls/mbedtls/mbedtls-2.16.2/library/ecp_curves.c **** 
1170:/home/xingli/share/LiteOS_Lab/network/dtls/mbedtls/mbedtls-2.16.2/library/ecp_curves.c **** #if defined(MBEDTLS_ECP_DP_SECP521R1_ENABLED)
1171:/home/xingli/share/LiteOS_Lab/network/dtls/mbedtls/mbedtls-2.16.2/library/ecp_curves.c **** /*
1172:/home/xingli/share/LiteOS_Lab/network/dtls/mbedtls/mbedtls-2.16.2/library/ecp_curves.c ****  * Here we have an actual Mersenne prime, so things are more straightforward.
1173:/home/xingli/share/LiteOS_Lab/network/dtls/mbedtls/mbedtls-2.16.2/library/ecp_curves.c ****  * However, chunks are aligned on a 'weird' boundary (521 bits).
1174:/home/xingli/share/LiteOS_Lab/network/dtls/mbedtls/mbedtls-2.16.2/library/ecp_curves.c ****  */
1175:/home/xingli/share/LiteOS_Lab/network/dtls/mbedtls/mbedtls-2.16.2/library/ecp_curves.c **** 
1176:/home/xingli/share/LiteOS_Lab/network/dtls/mbedtls/mbedtls-2.16.2/library/ecp_curves.c **** /* Size of p521 in terms of mbedtls_mpi_uint */
1177:/home/xingli/share/LiteOS_Lab/network/dtls/mbedtls/mbedtls-2.16.2/library/ecp_curves.c **** #define P521_WIDTH      ( 521 / 8 / sizeof( mbedtls_mpi_uint ) + 1 )
1178:/home/xingli/share/LiteOS_Lab/network/dtls/mbedtls/mbedtls-2.16.2/library/ecp_curves.c **** 
1179:/home/xingli/share/LiteOS_Lab/network/dtls/mbedtls/mbedtls-2.16.2/library/ecp_curves.c **** /* Bits to keep in the most significant mbedtls_mpi_uint */
1180:/home/xingli/share/LiteOS_Lab/network/dtls/mbedtls/mbedtls-2.16.2/library/ecp_curves.c **** #define P521_MASK       0x01FF
1181:/home/xingli/share/LiteOS_Lab/network/dtls/mbedtls/mbedtls-2.16.2/library/ecp_curves.c **** 
1182:/home/xingli/share/LiteOS_Lab/network/dtls/mbedtls/mbedtls-2.16.2/library/ecp_curves.c **** /*
1183:/home/xingli/share/LiteOS_Lab/network/dtls/mbedtls/mbedtls-2.16.2/library/ecp_curves.c ****  * Fast quasi-reduction modulo p521 (FIPS 186-3 D.2.5)
1184:/home/xingli/share/LiteOS_Lab/network/dtls/mbedtls/mbedtls-2.16.2/library/ecp_curves.c ****  * Write N as A1 + 2^521 A0, return A0 + A1
1185:/home/xingli/share/LiteOS_Lab/network/dtls/mbedtls/mbedtls-2.16.2/library/ecp_curves.c ****  */
1186:/home/xingli/share/LiteOS_Lab/network/dtls/mbedtls/mbedtls-2.16.2/library/ecp_curves.c **** static int ecp_mod_p521( mbedtls_mpi *N )
1187:/home/xingli/share/LiteOS_Lab/network/dtls/mbedtls/mbedtls-2.16.2/library/ecp_curves.c **** {
1188:/home/xingli/share/LiteOS_Lab/network/dtls/mbedtls/mbedtls-2.16.2/library/ecp_curves.c ****     int ret;
1189:/home/xingli/share/LiteOS_Lab/network/dtls/mbedtls/mbedtls-2.16.2/library/ecp_curves.c ****     size_t i;
1190:/home/xingli/share/LiteOS_Lab/network/dtls/mbedtls/mbedtls-2.16.2/library/ecp_curves.c ****     mbedtls_mpi M;
1191:/home/xingli/share/LiteOS_Lab/network/dtls/mbedtls/mbedtls-2.16.2/library/ecp_curves.c ****     mbedtls_mpi_uint Mp[P521_WIDTH + 1];
1192:/home/xingli/share/LiteOS_Lab/network/dtls/mbedtls/mbedtls-2.16.2/library/ecp_curves.c ****     /* Worst case for the size of M is when mbedtls_mpi_uint is 16 bits:
1193:/home/xingli/share/LiteOS_Lab/network/dtls/mbedtls/mbedtls-2.16.2/library/ecp_curves.c ****      * we need to hold bits 513 to 1056, which is 34 limbs, that is
1194:/home/xingli/share/LiteOS_Lab/network/dtls/mbedtls/mbedtls-2.16.2/library/ecp_curves.c ****      * P521_WIDTH + 1. Otherwise P521_WIDTH is enough. */
1195:/home/xingli/share/LiteOS_Lab/network/dtls/mbedtls/mbedtls-2.16.2/library/ecp_curves.c **** 
1196:/home/xingli/share/LiteOS_Lab/network/dtls/mbedtls/mbedtls-2.16.2/library/ecp_curves.c ****     if( N->n < P521_WIDTH )
1197:/home/xingli/share/LiteOS_Lab/network/dtls/mbedtls/mbedtls-2.16.2/library/ecp_curves.c ****         return( 0 );
1198:/home/xingli/share/LiteOS_Lab/network/dtls/mbedtls/mbedtls-2.16.2/library/ecp_curves.c **** 
1199:/home/xingli/share/LiteOS_Lab/network/dtls/mbedtls/mbedtls-2.16.2/library/ecp_curves.c ****     /* M = A1 */
1200:/home/xingli/share/LiteOS_Lab/network/dtls/mbedtls/mbedtls-2.16.2/library/ecp_curves.c ****     M.s = 1;
1201:/home/xingli/share/LiteOS_Lab/network/dtls/mbedtls/mbedtls-2.16.2/library/ecp_curves.c ****     M.n = N->n - ( P521_WIDTH - 1 );
1202:/home/xingli/share/LiteOS_Lab/network/dtls/mbedtls/mbedtls-2.16.2/library/ecp_curves.c ****     if( M.n > P521_WIDTH + 1 )
1203:/home/xingli/share/LiteOS_Lab/network/dtls/mbedtls/mbedtls-2.16.2/library/ecp_curves.c ****         M.n = P521_WIDTH + 1;
1204:/home/xingli/share/LiteOS_Lab/network/dtls/mbedtls/mbedtls-2.16.2/library/ecp_curves.c ****     M.p = Mp;
1205:/home/xingli/share/LiteOS_Lab/network/dtls/mbedtls/mbedtls-2.16.2/library/ecp_curves.c ****     memcpy( Mp, N->p + P521_WIDTH - 1, M.n * sizeof( mbedtls_mpi_uint ) );
1206:/home/xingli/share/LiteOS_Lab/network/dtls/mbedtls/mbedtls-2.16.2/library/ecp_curves.c ****     MBEDTLS_MPI_CHK( mbedtls_mpi_shift_r( &M, 521 % ( 8 * sizeof( mbedtls_mpi_uint ) ) ) );
1207:/home/xingli/share/LiteOS_Lab/network/dtls/mbedtls/mbedtls-2.16.2/library/ecp_curves.c **** 
1208:/home/xingli/share/LiteOS_Lab/network/dtls/mbedtls/mbedtls-2.16.2/library/ecp_curves.c ****     /* N = A0 */
1209:/home/xingli/share/LiteOS_Lab/network/dtls/mbedtls/mbedtls-2.16.2/library/ecp_curves.c ****     N->p[P521_WIDTH - 1] &= P521_MASK;
1210:/home/xingli/share/LiteOS_Lab/network/dtls/mbedtls/mbedtls-2.16.2/library/ecp_curves.c ****     for( i = P521_WIDTH; i < N->n; i++ )
1211:/home/xingli/share/LiteOS_Lab/network/dtls/mbedtls/mbedtls-2.16.2/library/ecp_curves.c ****         N->p[i] = 0;
1212:/home/xingli/share/LiteOS_Lab/network/dtls/mbedtls/mbedtls-2.16.2/library/ecp_curves.c **** 
1213:/home/xingli/share/LiteOS_Lab/network/dtls/mbedtls/mbedtls-2.16.2/library/ecp_curves.c ****     /* N = A0 + A1 */
1214:/home/xingli/share/LiteOS_Lab/network/dtls/mbedtls/mbedtls-2.16.2/library/ecp_curves.c ****     MBEDTLS_MPI_CHK( mbedtls_mpi_add_abs( N, N, &M ) );
1215:/home/xingli/share/LiteOS_Lab/network/dtls/mbedtls/mbedtls-2.16.2/library/ecp_curves.c **** 
1216:/home/xingli/share/LiteOS_Lab/network/dtls/mbedtls/mbedtls-2.16.2/library/ecp_curves.c **** cleanup:
1217:/home/xingli/share/LiteOS_Lab/network/dtls/mbedtls/mbedtls-2.16.2/library/ecp_curves.c ****     return( ret );
1218:/home/xingli/share/LiteOS_Lab/network/dtls/mbedtls/mbedtls-2.16.2/library/ecp_curves.c **** }
GAS LISTING /tmp/ccBClcmz.s 			page 42


1219:/home/xingli/share/LiteOS_Lab/network/dtls/mbedtls/mbedtls-2.16.2/library/ecp_curves.c **** 
1220:/home/xingli/share/LiteOS_Lab/network/dtls/mbedtls/mbedtls-2.16.2/library/ecp_curves.c **** #undef P521_WIDTH
1221:/home/xingli/share/LiteOS_Lab/network/dtls/mbedtls/mbedtls-2.16.2/library/ecp_curves.c **** #undef P521_MASK
1222:/home/xingli/share/LiteOS_Lab/network/dtls/mbedtls/mbedtls-2.16.2/library/ecp_curves.c **** #endif /* MBEDTLS_ECP_DP_SECP521R1_ENABLED */
1223:/home/xingli/share/LiteOS_Lab/network/dtls/mbedtls/mbedtls-2.16.2/library/ecp_curves.c **** 
1224:/home/xingli/share/LiteOS_Lab/network/dtls/mbedtls/mbedtls-2.16.2/library/ecp_curves.c **** #endif /* MBEDTLS_ECP_NIST_OPTIM */
1225:/home/xingli/share/LiteOS_Lab/network/dtls/mbedtls/mbedtls-2.16.2/library/ecp_curves.c **** 
1226:/home/xingli/share/LiteOS_Lab/network/dtls/mbedtls/mbedtls-2.16.2/library/ecp_curves.c **** #if defined(MBEDTLS_ECP_DP_CURVE25519_ENABLED)
1227:/home/xingli/share/LiteOS_Lab/network/dtls/mbedtls/mbedtls-2.16.2/library/ecp_curves.c **** 
1228:/home/xingli/share/LiteOS_Lab/network/dtls/mbedtls/mbedtls-2.16.2/library/ecp_curves.c **** /* Size of p255 in terms of mbedtls_mpi_uint */
1229:/home/xingli/share/LiteOS_Lab/network/dtls/mbedtls/mbedtls-2.16.2/library/ecp_curves.c **** #define P255_WIDTH      ( 255 / 8 / sizeof( mbedtls_mpi_uint ) + 1 )
1230:/home/xingli/share/LiteOS_Lab/network/dtls/mbedtls/mbedtls-2.16.2/library/ecp_curves.c **** 
1231:/home/xingli/share/LiteOS_Lab/network/dtls/mbedtls/mbedtls-2.16.2/library/ecp_curves.c **** /*
1232:/home/xingli/share/LiteOS_Lab/network/dtls/mbedtls/mbedtls-2.16.2/library/ecp_curves.c ****  * Fast quasi-reduction modulo p255 = 2^255 - 19
1233:/home/xingli/share/LiteOS_Lab/network/dtls/mbedtls/mbedtls-2.16.2/library/ecp_curves.c ****  * Write N as A0 + 2^255 A1, return A0 + 19 * A1
1234:/home/xingli/share/LiteOS_Lab/network/dtls/mbedtls/mbedtls-2.16.2/library/ecp_curves.c ****  */
1235:/home/xingli/share/LiteOS_Lab/network/dtls/mbedtls/mbedtls-2.16.2/library/ecp_curves.c **** static int ecp_mod_p255( mbedtls_mpi *N )
1236:/home/xingli/share/LiteOS_Lab/network/dtls/mbedtls/mbedtls-2.16.2/library/ecp_curves.c **** {
1237:/home/xingli/share/LiteOS_Lab/network/dtls/mbedtls/mbedtls-2.16.2/library/ecp_curves.c ****     int ret;
1238:/home/xingli/share/LiteOS_Lab/network/dtls/mbedtls/mbedtls-2.16.2/library/ecp_curves.c ****     size_t i;
1239:/home/xingli/share/LiteOS_Lab/network/dtls/mbedtls/mbedtls-2.16.2/library/ecp_curves.c ****     mbedtls_mpi M;
1240:/home/xingli/share/LiteOS_Lab/network/dtls/mbedtls/mbedtls-2.16.2/library/ecp_curves.c ****     mbedtls_mpi_uint Mp[P255_WIDTH + 2];
1241:/home/xingli/share/LiteOS_Lab/network/dtls/mbedtls/mbedtls-2.16.2/library/ecp_curves.c **** 
1242:/home/xingli/share/LiteOS_Lab/network/dtls/mbedtls/mbedtls-2.16.2/library/ecp_curves.c ****     if( N->n < P255_WIDTH )
1243:/home/xingli/share/LiteOS_Lab/network/dtls/mbedtls/mbedtls-2.16.2/library/ecp_curves.c ****         return( 0 );
1244:/home/xingli/share/LiteOS_Lab/network/dtls/mbedtls/mbedtls-2.16.2/library/ecp_curves.c **** 
1245:/home/xingli/share/LiteOS_Lab/network/dtls/mbedtls/mbedtls-2.16.2/library/ecp_curves.c ****     /* M = A1 */
1246:/home/xingli/share/LiteOS_Lab/network/dtls/mbedtls/mbedtls-2.16.2/library/ecp_curves.c ****     M.s = 1;
1247:/home/xingli/share/LiteOS_Lab/network/dtls/mbedtls/mbedtls-2.16.2/library/ecp_curves.c ****     M.n = N->n - ( P255_WIDTH - 1 );
1248:/home/xingli/share/LiteOS_Lab/network/dtls/mbedtls/mbedtls-2.16.2/library/ecp_curves.c ****     if( M.n > P255_WIDTH + 1 )
1249:/home/xingli/share/LiteOS_Lab/network/dtls/mbedtls/mbedtls-2.16.2/library/ecp_curves.c ****         return( MBEDTLS_ERR_ECP_BAD_INPUT_DATA );
1250:/home/xingli/share/LiteOS_Lab/network/dtls/mbedtls/mbedtls-2.16.2/library/ecp_curves.c ****     M.p = Mp;
1251:/home/xingli/share/LiteOS_Lab/network/dtls/mbedtls/mbedtls-2.16.2/library/ecp_curves.c ****     memset( Mp, 0, sizeof Mp );
1252:/home/xingli/share/LiteOS_Lab/network/dtls/mbedtls/mbedtls-2.16.2/library/ecp_curves.c ****     memcpy( Mp, N->p + P255_WIDTH - 1, M.n * sizeof( mbedtls_mpi_uint ) );
1253:/home/xingli/share/LiteOS_Lab/network/dtls/mbedtls/mbedtls-2.16.2/library/ecp_curves.c ****     MBEDTLS_MPI_CHK( mbedtls_mpi_shift_r( &M, 255 % ( 8 * sizeof( mbedtls_mpi_uint ) ) ) );
1254:/home/xingli/share/LiteOS_Lab/network/dtls/mbedtls/mbedtls-2.16.2/library/ecp_curves.c ****     M.n++; /* Make room for multiplication by 19 */
1255:/home/xingli/share/LiteOS_Lab/network/dtls/mbedtls/mbedtls-2.16.2/library/ecp_curves.c **** 
1256:/home/xingli/share/LiteOS_Lab/network/dtls/mbedtls/mbedtls-2.16.2/library/ecp_curves.c ****     /* N = A0 */
1257:/home/xingli/share/LiteOS_Lab/network/dtls/mbedtls/mbedtls-2.16.2/library/ecp_curves.c ****     MBEDTLS_MPI_CHK( mbedtls_mpi_set_bit( N, 255, 0 ) );
1258:/home/xingli/share/LiteOS_Lab/network/dtls/mbedtls/mbedtls-2.16.2/library/ecp_curves.c ****     for( i = P255_WIDTH; i < N->n; i++ )
1259:/home/xingli/share/LiteOS_Lab/network/dtls/mbedtls/mbedtls-2.16.2/library/ecp_curves.c ****         N->p[i] = 0;
1260:/home/xingli/share/LiteOS_Lab/network/dtls/mbedtls/mbedtls-2.16.2/library/ecp_curves.c **** 
1261:/home/xingli/share/LiteOS_Lab/network/dtls/mbedtls/mbedtls-2.16.2/library/ecp_curves.c ****     /* N = A0 + 19 * A1 */
1262:/home/xingli/share/LiteOS_Lab/network/dtls/mbedtls/mbedtls-2.16.2/library/ecp_curves.c ****     MBEDTLS_MPI_CHK( mbedtls_mpi_mul_int( &M, &M, 19 ) );
1263:/home/xingli/share/LiteOS_Lab/network/dtls/mbedtls/mbedtls-2.16.2/library/ecp_curves.c ****     MBEDTLS_MPI_CHK( mbedtls_mpi_add_abs( N, N, &M ) );
1264:/home/xingli/share/LiteOS_Lab/network/dtls/mbedtls/mbedtls-2.16.2/library/ecp_curves.c **** 
1265:/home/xingli/share/LiteOS_Lab/network/dtls/mbedtls/mbedtls-2.16.2/library/ecp_curves.c **** cleanup:
1266:/home/xingli/share/LiteOS_Lab/network/dtls/mbedtls/mbedtls-2.16.2/library/ecp_curves.c ****     return( ret );
1267:/home/xingli/share/LiteOS_Lab/network/dtls/mbedtls/mbedtls-2.16.2/library/ecp_curves.c **** }
1268:/home/xingli/share/LiteOS_Lab/network/dtls/mbedtls/mbedtls-2.16.2/library/ecp_curves.c **** #endif /* MBEDTLS_ECP_DP_CURVE25519_ENABLED */
1269:/home/xingli/share/LiteOS_Lab/network/dtls/mbedtls/mbedtls-2.16.2/library/ecp_curves.c **** 
1270:/home/xingli/share/LiteOS_Lab/network/dtls/mbedtls/mbedtls-2.16.2/library/ecp_curves.c **** #if defined(MBEDTLS_ECP_DP_CURVE448_ENABLED)
1271:/home/xingli/share/LiteOS_Lab/network/dtls/mbedtls/mbedtls-2.16.2/library/ecp_curves.c **** 
1272:/home/xingli/share/LiteOS_Lab/network/dtls/mbedtls/mbedtls-2.16.2/library/ecp_curves.c **** /* Size of p448 in terms of mbedtls_mpi_uint */
1273:/home/xingli/share/LiteOS_Lab/network/dtls/mbedtls/mbedtls-2.16.2/library/ecp_curves.c **** #define P448_WIDTH      ( 448 / 8 / sizeof( mbedtls_mpi_uint ) )
1274:/home/xingli/share/LiteOS_Lab/network/dtls/mbedtls/mbedtls-2.16.2/library/ecp_curves.c **** 
1275:/home/xingli/share/LiteOS_Lab/network/dtls/mbedtls/mbedtls-2.16.2/library/ecp_curves.c **** /* Number of limbs fully occupied by 2^224 (max), and limbs used by it (min) */
GAS LISTING /tmp/ccBClcmz.s 			page 43


1276:/home/xingli/share/LiteOS_Lab/network/dtls/mbedtls/mbedtls-2.16.2/library/ecp_curves.c **** #define DIV_ROUND_UP( X, Y ) ( ( ( X ) + ( Y ) - 1 ) / ( Y ) )
1277:/home/xingli/share/LiteOS_Lab/network/dtls/mbedtls/mbedtls-2.16.2/library/ecp_curves.c **** #define P224_WIDTH_MIN   ( 28 / sizeof( mbedtls_mpi_uint ) )
1278:/home/xingli/share/LiteOS_Lab/network/dtls/mbedtls/mbedtls-2.16.2/library/ecp_curves.c **** #define P224_WIDTH_MAX   DIV_ROUND_UP( 28, sizeof( mbedtls_mpi_uint ) )
1279:/home/xingli/share/LiteOS_Lab/network/dtls/mbedtls/mbedtls-2.16.2/library/ecp_curves.c **** #define P224_UNUSED_BITS ( ( P224_WIDTH_MAX * sizeof( mbedtls_mpi_uint ) * 8 ) - 224 )
1280:/home/xingli/share/LiteOS_Lab/network/dtls/mbedtls/mbedtls-2.16.2/library/ecp_curves.c **** 
1281:/home/xingli/share/LiteOS_Lab/network/dtls/mbedtls/mbedtls-2.16.2/library/ecp_curves.c **** /*
1282:/home/xingli/share/LiteOS_Lab/network/dtls/mbedtls/mbedtls-2.16.2/library/ecp_curves.c ****  * Fast quasi-reduction modulo p448 = 2^448 - 2^224 - 1
1283:/home/xingli/share/LiteOS_Lab/network/dtls/mbedtls/mbedtls-2.16.2/library/ecp_curves.c ****  * Write N as A0 + 2^448 A1 and A1 as B0 + 2^224 B1, and return
1284:/home/xingli/share/LiteOS_Lab/network/dtls/mbedtls/mbedtls-2.16.2/library/ecp_curves.c ****  * A0 + A1 + B1 + (B0 + B1) * 2^224.  This is different to the reference
1285:/home/xingli/share/LiteOS_Lab/network/dtls/mbedtls/mbedtls-2.16.2/library/ecp_curves.c ****  * implementation of Curve448, which uses its own special 56-bit limbs rather
1286:/home/xingli/share/LiteOS_Lab/network/dtls/mbedtls/mbedtls-2.16.2/library/ecp_curves.c ****  * than a generic bignum library.  We could squeeze some extra speed out on
1287:/home/xingli/share/LiteOS_Lab/network/dtls/mbedtls/mbedtls-2.16.2/library/ecp_curves.c ****  * 32-bit machines by splitting N up into 32-bit limbs and doing the
1288:/home/xingli/share/LiteOS_Lab/network/dtls/mbedtls/mbedtls-2.16.2/library/ecp_curves.c ****  * arithmetic using the limbs directly as we do for the NIST primes above,
1289:/home/xingli/share/LiteOS_Lab/network/dtls/mbedtls/mbedtls-2.16.2/library/ecp_curves.c ****  * but for 64-bit targets it should use half the number of operations if we do
1290:/home/xingli/share/LiteOS_Lab/network/dtls/mbedtls/mbedtls-2.16.2/library/ecp_curves.c ****  * the reduction with 224-bit limbs, since mpi_add_mpi will then use 64-bit adds.
1291:/home/xingli/share/LiteOS_Lab/network/dtls/mbedtls/mbedtls-2.16.2/library/ecp_curves.c ****  */
1292:/home/xingli/share/LiteOS_Lab/network/dtls/mbedtls/mbedtls-2.16.2/library/ecp_curves.c **** static int ecp_mod_p448( mbedtls_mpi *N )
1293:/home/xingli/share/LiteOS_Lab/network/dtls/mbedtls/mbedtls-2.16.2/library/ecp_curves.c **** {
1294:/home/xingli/share/LiteOS_Lab/network/dtls/mbedtls/mbedtls-2.16.2/library/ecp_curves.c ****     int ret;
1295:/home/xingli/share/LiteOS_Lab/network/dtls/mbedtls/mbedtls-2.16.2/library/ecp_curves.c ****     size_t i;
1296:/home/xingli/share/LiteOS_Lab/network/dtls/mbedtls/mbedtls-2.16.2/library/ecp_curves.c ****     mbedtls_mpi M, Q;
1297:/home/xingli/share/LiteOS_Lab/network/dtls/mbedtls/mbedtls-2.16.2/library/ecp_curves.c ****     mbedtls_mpi_uint Mp[P448_WIDTH + 1], Qp[P448_WIDTH];
1298:/home/xingli/share/LiteOS_Lab/network/dtls/mbedtls/mbedtls-2.16.2/library/ecp_curves.c **** 
1299:/home/xingli/share/LiteOS_Lab/network/dtls/mbedtls/mbedtls-2.16.2/library/ecp_curves.c ****     if( N->n <= P448_WIDTH )
1300:/home/xingli/share/LiteOS_Lab/network/dtls/mbedtls/mbedtls-2.16.2/library/ecp_curves.c ****         return( 0 );
1301:/home/xingli/share/LiteOS_Lab/network/dtls/mbedtls/mbedtls-2.16.2/library/ecp_curves.c **** 
1302:/home/xingli/share/LiteOS_Lab/network/dtls/mbedtls/mbedtls-2.16.2/library/ecp_curves.c ****     /* M = A1 */
1303:/home/xingli/share/LiteOS_Lab/network/dtls/mbedtls/mbedtls-2.16.2/library/ecp_curves.c ****     M.s = 1;
1304:/home/xingli/share/LiteOS_Lab/network/dtls/mbedtls/mbedtls-2.16.2/library/ecp_curves.c ****     M.n = N->n - ( P448_WIDTH );
1305:/home/xingli/share/LiteOS_Lab/network/dtls/mbedtls/mbedtls-2.16.2/library/ecp_curves.c ****     if( M.n > P448_WIDTH )
1306:/home/xingli/share/LiteOS_Lab/network/dtls/mbedtls/mbedtls-2.16.2/library/ecp_curves.c ****         /* Shouldn't be called with N larger than 2^896! */
1307:/home/xingli/share/LiteOS_Lab/network/dtls/mbedtls/mbedtls-2.16.2/library/ecp_curves.c ****         return( MBEDTLS_ERR_ECP_BAD_INPUT_DATA );
1308:/home/xingli/share/LiteOS_Lab/network/dtls/mbedtls/mbedtls-2.16.2/library/ecp_curves.c ****     M.p = Mp;
1309:/home/xingli/share/LiteOS_Lab/network/dtls/mbedtls/mbedtls-2.16.2/library/ecp_curves.c ****     memset( Mp, 0, sizeof( Mp ) );
1310:/home/xingli/share/LiteOS_Lab/network/dtls/mbedtls/mbedtls-2.16.2/library/ecp_curves.c ****     memcpy( Mp, N->p + P448_WIDTH, M.n * sizeof( mbedtls_mpi_uint ) );
1311:/home/xingli/share/LiteOS_Lab/network/dtls/mbedtls/mbedtls-2.16.2/library/ecp_curves.c **** 
1312:/home/xingli/share/LiteOS_Lab/network/dtls/mbedtls/mbedtls-2.16.2/library/ecp_curves.c ****     /* N = A0 */
1313:/home/xingli/share/LiteOS_Lab/network/dtls/mbedtls/mbedtls-2.16.2/library/ecp_curves.c ****     for( i = P448_WIDTH; i < N->n; i++ )
1314:/home/xingli/share/LiteOS_Lab/network/dtls/mbedtls/mbedtls-2.16.2/library/ecp_curves.c ****         N->p[i] = 0;
1315:/home/xingli/share/LiteOS_Lab/network/dtls/mbedtls/mbedtls-2.16.2/library/ecp_curves.c **** 
1316:/home/xingli/share/LiteOS_Lab/network/dtls/mbedtls/mbedtls-2.16.2/library/ecp_curves.c ****     /* N += A1 */
1317:/home/xingli/share/LiteOS_Lab/network/dtls/mbedtls/mbedtls-2.16.2/library/ecp_curves.c ****     MBEDTLS_MPI_CHK( mbedtls_mpi_add_mpi( N, N, &M ) );
1318:/home/xingli/share/LiteOS_Lab/network/dtls/mbedtls/mbedtls-2.16.2/library/ecp_curves.c **** 
1319:/home/xingli/share/LiteOS_Lab/network/dtls/mbedtls/mbedtls-2.16.2/library/ecp_curves.c ****     /* Q = B1, N += B1 */
1320:/home/xingli/share/LiteOS_Lab/network/dtls/mbedtls/mbedtls-2.16.2/library/ecp_curves.c ****     Q = M;
1321:/home/xingli/share/LiteOS_Lab/network/dtls/mbedtls/mbedtls-2.16.2/library/ecp_curves.c ****     Q.p = Qp;
1322:/home/xingli/share/LiteOS_Lab/network/dtls/mbedtls/mbedtls-2.16.2/library/ecp_curves.c ****     memcpy( Qp, Mp, sizeof( Qp ) );
1323:/home/xingli/share/LiteOS_Lab/network/dtls/mbedtls/mbedtls-2.16.2/library/ecp_curves.c ****     MBEDTLS_MPI_CHK( mbedtls_mpi_shift_r( &Q, 224 ) );
1324:/home/xingli/share/LiteOS_Lab/network/dtls/mbedtls/mbedtls-2.16.2/library/ecp_curves.c ****     MBEDTLS_MPI_CHK( mbedtls_mpi_add_mpi( N, N, &Q ) );
1325:/home/xingli/share/LiteOS_Lab/network/dtls/mbedtls/mbedtls-2.16.2/library/ecp_curves.c **** 
1326:/home/xingli/share/LiteOS_Lab/network/dtls/mbedtls/mbedtls-2.16.2/library/ecp_curves.c ****     /* M = (B0 + B1) * 2^224, N += M */
1327:/home/xingli/share/LiteOS_Lab/network/dtls/mbedtls/mbedtls-2.16.2/library/ecp_curves.c ****     if( sizeof( mbedtls_mpi_uint ) > 4 )
1328:/home/xingli/share/LiteOS_Lab/network/dtls/mbedtls/mbedtls-2.16.2/library/ecp_curves.c ****         Mp[P224_WIDTH_MIN] &= ( (mbedtls_mpi_uint)-1 ) >> ( P224_UNUSED_BITS );
1329:/home/xingli/share/LiteOS_Lab/network/dtls/mbedtls/mbedtls-2.16.2/library/ecp_curves.c ****     for( i = P224_WIDTH_MAX; i < M.n; ++i )
1330:/home/xingli/share/LiteOS_Lab/network/dtls/mbedtls/mbedtls-2.16.2/library/ecp_curves.c ****         Mp[i] = 0;
1331:/home/xingli/share/LiteOS_Lab/network/dtls/mbedtls/mbedtls-2.16.2/library/ecp_curves.c ****     MBEDTLS_MPI_CHK( mbedtls_mpi_add_mpi( &M, &M, &Q ) );
1332:/home/xingli/share/LiteOS_Lab/network/dtls/mbedtls/mbedtls-2.16.2/library/ecp_curves.c ****     M.n = P448_WIDTH + 1; /* Make room for shifted carry bit from the addition */
GAS LISTING /tmp/ccBClcmz.s 			page 44


1333:/home/xingli/share/LiteOS_Lab/network/dtls/mbedtls/mbedtls-2.16.2/library/ecp_curves.c ****     MBEDTLS_MPI_CHK( mbedtls_mpi_shift_l( &M, 224 ) );
1334:/home/xingli/share/LiteOS_Lab/network/dtls/mbedtls/mbedtls-2.16.2/library/ecp_curves.c ****     MBEDTLS_MPI_CHK( mbedtls_mpi_add_mpi( N, N, &M ) );
1335:/home/xingli/share/LiteOS_Lab/network/dtls/mbedtls/mbedtls-2.16.2/library/ecp_curves.c **** 
1336:/home/xingli/share/LiteOS_Lab/network/dtls/mbedtls/mbedtls-2.16.2/library/ecp_curves.c **** cleanup:
1337:/home/xingli/share/LiteOS_Lab/network/dtls/mbedtls/mbedtls-2.16.2/library/ecp_curves.c ****     return( ret );
1338:/home/xingli/share/LiteOS_Lab/network/dtls/mbedtls/mbedtls-2.16.2/library/ecp_curves.c **** }
1339:/home/xingli/share/LiteOS_Lab/network/dtls/mbedtls/mbedtls-2.16.2/library/ecp_curves.c **** #endif /* MBEDTLS_ECP_DP_CURVE448_ENABLED */
1340:/home/xingli/share/LiteOS_Lab/network/dtls/mbedtls/mbedtls-2.16.2/library/ecp_curves.c **** 
1341:/home/xingli/share/LiteOS_Lab/network/dtls/mbedtls/mbedtls-2.16.2/library/ecp_curves.c **** #if defined(MBEDTLS_ECP_DP_SECP192K1_ENABLED) ||   \
1342:/home/xingli/share/LiteOS_Lab/network/dtls/mbedtls/mbedtls-2.16.2/library/ecp_curves.c ****     defined(MBEDTLS_ECP_DP_SECP224K1_ENABLED) ||   \
1343:/home/xingli/share/LiteOS_Lab/network/dtls/mbedtls/mbedtls-2.16.2/library/ecp_curves.c ****     defined(MBEDTLS_ECP_DP_SECP256K1_ENABLED)
1344:/home/xingli/share/LiteOS_Lab/network/dtls/mbedtls/mbedtls-2.16.2/library/ecp_curves.c **** /*
1345:/home/xingli/share/LiteOS_Lab/network/dtls/mbedtls/mbedtls-2.16.2/library/ecp_curves.c ****  * Fast quasi-reduction modulo P = 2^s - R,
1346:/home/xingli/share/LiteOS_Lab/network/dtls/mbedtls/mbedtls-2.16.2/library/ecp_curves.c ****  * with R about 33 bits, used by the Koblitz curves.
1347:/home/xingli/share/LiteOS_Lab/network/dtls/mbedtls/mbedtls-2.16.2/library/ecp_curves.c ****  *
1348:/home/xingli/share/LiteOS_Lab/network/dtls/mbedtls/mbedtls-2.16.2/library/ecp_curves.c ****  * Write N as A0 + 2^224 A1, return A0 + R * A1.
1349:/home/xingli/share/LiteOS_Lab/network/dtls/mbedtls/mbedtls-2.16.2/library/ecp_curves.c ****  * Actually do two passes, since R is big.
1350:/home/xingli/share/LiteOS_Lab/network/dtls/mbedtls/mbedtls-2.16.2/library/ecp_curves.c ****  */
1351:/home/xingli/share/LiteOS_Lab/network/dtls/mbedtls/mbedtls-2.16.2/library/ecp_curves.c **** #define P_KOBLITZ_MAX   ( 256 / 8 / sizeof( mbedtls_mpi_uint ) )  // Max limbs in P
1352:/home/xingli/share/LiteOS_Lab/network/dtls/mbedtls/mbedtls-2.16.2/library/ecp_curves.c **** #define P_KOBLITZ_R     ( 8 / sizeof( mbedtls_mpi_uint ) )        // Limbs in R
1353:/home/xingli/share/LiteOS_Lab/network/dtls/mbedtls/mbedtls-2.16.2/library/ecp_curves.c **** static inline int ecp_mod_koblitz( mbedtls_mpi *N, mbedtls_mpi_uint *Rp, size_t p_limbs,
1354:/home/xingli/share/LiteOS_Lab/network/dtls/mbedtls/mbedtls-2.16.2/library/ecp_curves.c ****                                    size_t adjust, size_t shift, mbedtls_mpi_uint mask )
1355:/home/xingli/share/LiteOS_Lab/network/dtls/mbedtls/mbedtls-2.16.2/library/ecp_curves.c **** {
 903              		.loc 1 1355 1
 904              		.cfi_startproc
 905 0000 55       		pushq	%rbp
 906              	.LCFI12:
 907              		.cfi_def_cfa_offset 16
 908              		.cfi_offset 6, -16
 909 0001 4889E5   		movq	%rsp, %rbp
 910              	.LCFI13:
 911              		.cfi_def_cfa_register 6
 912 0004 4881ECC0 		subq	$192, %rsp
 912      000000
 913 000b 4889BD68 		movq	%rdi, -152(%rbp)
 913      FFFFFF
 914 0012 4889B560 		movq	%rsi, -160(%rbp)
 914      FFFFFF
 915 0019 48899558 		movq	%rdx, -168(%rbp)
 915      FFFFFF
 916 0020 48898D50 		movq	%rcx, -176(%rbp)
 916      FFFFFF
 917 0027 4C898548 		movq	%r8, -184(%rbp)
 917      FFFFFF
 918 002e 4C898D40 		movq	%r9, -192(%rbp)
 918      FFFFFF
 919              		.loc 1 1355 1
 920 0035 64488B04 		movq	%fs:40, %rax
 920      25280000 
 920      00
 921 003e 488945F8 		movq	%rax, -8(%rbp)
 922 0042 31C0     		xorl	%eax, %eax
1356:/home/xingli/share/LiteOS_Lab/network/dtls/mbedtls/mbedtls-2.16.2/library/ecp_curves.c ****     int ret;
1357:/home/xingli/share/LiteOS_Lab/network/dtls/mbedtls/mbedtls-2.16.2/library/ecp_curves.c ****     size_t i;
1358:/home/xingli/share/LiteOS_Lab/network/dtls/mbedtls/mbedtls-2.16.2/library/ecp_curves.c ****     mbedtls_mpi M, R;
1359:/home/xingli/share/LiteOS_Lab/network/dtls/mbedtls/mbedtls-2.16.2/library/ecp_curves.c ****     mbedtls_mpi_uint Mp[P_KOBLITZ_MAX + P_KOBLITZ_R + 1];
1360:/home/xingli/share/LiteOS_Lab/network/dtls/mbedtls/mbedtls-2.16.2/library/ecp_curves.c **** 
GAS LISTING /tmp/ccBClcmz.s 			page 45


1361:/home/xingli/share/LiteOS_Lab/network/dtls/mbedtls/mbedtls-2.16.2/library/ecp_curves.c ****     if( N->n < p_limbs )
 923              		.loc 1 1361 10
 924 0044 488B8568 		movq	-152(%rbp), %rax
 924      FFFFFF
 925 004b 488B4008 		movq	8(%rax), %rax
 926              		.loc 1 1361 7
 927 004f 48398558 		cmpq	%rax, -168(%rbp)
 927      FFFFFF
 928 0056 760A     		jbe	.L23
1362:/home/xingli/share/LiteOS_Lab/network/dtls/mbedtls/mbedtls-2.16.2/library/ecp_curves.c ****         return( 0 );
 929              		.loc 1 1362 15
 930 0058 B8000000 		movl	$0, %eax
 930      00
 931 005d E9E60300 		jmp	.L39
 931      00
 932              	.L23:
1363:/home/xingli/share/LiteOS_Lab/network/dtls/mbedtls/mbedtls-2.16.2/library/ecp_curves.c **** 
1364:/home/xingli/share/LiteOS_Lab/network/dtls/mbedtls/mbedtls-2.16.2/library/ecp_curves.c ****     /* Init R */
1365:/home/xingli/share/LiteOS_Lab/network/dtls/mbedtls/mbedtls-2.16.2/library/ecp_curves.c ****     R.s = 1;
 933              		.loc 1 1365 9
 934 0062 C745A001 		movl	$1, -96(%rbp)
 934      000000
1366:/home/xingli/share/LiteOS_Lab/network/dtls/mbedtls/mbedtls-2.16.2/library/ecp_curves.c ****     R.p = Rp;
 935              		.loc 1 1366 9
 936 0069 488B8560 		movq	-160(%rbp), %rax
 936      FFFFFF
 937 0070 488945B0 		movq	%rax, -80(%rbp)
1367:/home/xingli/share/LiteOS_Lab/network/dtls/mbedtls/mbedtls-2.16.2/library/ecp_curves.c ****     R.n = P_KOBLITZ_R;
 938              		.loc 1 1367 9
 939 0074 48C745A8 		movq	$1, -88(%rbp)
 939      01000000 
1368:/home/xingli/share/LiteOS_Lab/network/dtls/mbedtls/mbedtls-2.16.2/library/ecp_curves.c **** 
1369:/home/xingli/share/LiteOS_Lab/network/dtls/mbedtls/mbedtls-2.16.2/library/ecp_curves.c ****     /* Common setup for M */
1370:/home/xingli/share/LiteOS_Lab/network/dtls/mbedtls/mbedtls-2.16.2/library/ecp_curves.c ****     M.s = 1;
 940              		.loc 1 1370 9
 941 007c C7458001 		movl	$1, -128(%rbp)
 941      000000
1371:/home/xingli/share/LiteOS_Lab/network/dtls/mbedtls/mbedtls-2.16.2/library/ecp_curves.c ****     M.p = Mp;
 942              		.loc 1 1371 9
 943 0083 488D45C0 		leaq	-64(%rbp), %rax
 944 0087 48894590 		movq	%rax, -112(%rbp)
1372:/home/xingli/share/LiteOS_Lab/network/dtls/mbedtls/mbedtls-2.16.2/library/ecp_curves.c **** 
1373:/home/xingli/share/LiteOS_Lab/network/dtls/mbedtls/mbedtls-2.16.2/library/ecp_curves.c ****     /* M = A1 */
1374:/home/xingli/share/LiteOS_Lab/network/dtls/mbedtls/mbedtls-2.16.2/library/ecp_curves.c ****     M.n = N->n - ( p_limbs - adjust );
 945              		.loc 1 1374 12
 946 008b 488B8568 		movq	-152(%rbp), %rax
 946      FFFFFF
 947 0092 488B5008 		movq	8(%rax), %rdx
 948              		.loc 1 1374 16
 949 0096 488B8550 		movq	-176(%rbp), %rax
 949      FFFFFF
 950 009d 482B8558 		subq	-168(%rbp), %rax
 950      FFFFFF
 951 00a4 4801D0   		addq	%rdx, %rax
 952              		.loc 1 1374 9
 953 00a7 48894588 		movq	%rax, -120(%rbp)
1375:/home/xingli/share/LiteOS_Lab/network/dtls/mbedtls/mbedtls-2.16.2/library/ecp_curves.c ****     if( M.n > p_limbs + adjust )
GAS LISTING /tmp/ccBClcmz.s 			page 46


 954              		.loc 1 1375 10
 955 00ab 488B4588 		movq	-120(%rbp), %rax
 956              		.loc 1 1375 23
 957 00af 488B8D58 		movq	-168(%rbp), %rcx
 957      FFFFFF
 958 00b6 488B9550 		movq	-176(%rbp), %rdx
 958      FFFFFF
 959 00bd 4801CA   		addq	%rcx, %rdx
 960              		.loc 1 1375 7
 961 00c0 4839D0   		cmpq	%rdx, %rax
 962 00c3 7615     		jbe	.L25
1376:/home/xingli/share/LiteOS_Lab/network/dtls/mbedtls/mbedtls-2.16.2/library/ecp_curves.c ****         M.n = p_limbs + adjust;
 963              		.loc 1 1376 23
 964 00c5 488B9558 		movq	-168(%rbp), %rdx
 964      FFFFFF
 965 00cc 488B8550 		movq	-176(%rbp), %rax
 965      FFFFFF
 966 00d3 4801D0   		addq	%rdx, %rax
 967              		.loc 1 1376 13
 968 00d6 48894588 		movq	%rax, -120(%rbp)
 969              	.L25:
1377:/home/xingli/share/LiteOS_Lab/network/dtls/mbedtls/mbedtls-2.16.2/library/ecp_curves.c ****     memset( Mp, 0, sizeof Mp );
 970              		.loc 1 1377 5
 971 00da 488D45C0 		leaq	-64(%rbp), %rax
 972 00de BA300000 		movl	$48, %edx
 972      00
 973 00e3 BE000000 		movl	$0, %esi
 973      00
 974 00e8 4889C7   		movq	%rax, %rdi
 975 00eb E8000000 		call	memset@PLT
 975      00
1378:/home/xingli/share/LiteOS_Lab/network/dtls/mbedtls/mbedtls-2.16.2/library/ecp_curves.c ****     memcpy( Mp, N->p + p_limbs - adjust, M.n * sizeof( mbedtls_mpi_uint ) );
 976              		.loc 1 1378 43
 977 00f0 488B4588 		movq	-120(%rbp), %rax
 978              		.loc 1 1378 5
 979 00f4 488D14C5 		leaq	0(,%rax,8), %rdx
 979      00000000 
 980              		.loc 1 1378 18
 981 00fc 488B8568 		movq	-152(%rbp), %rax
 981      FFFFFF
 982 0103 488B4810 		movq	16(%rax), %rcx
 983              		.loc 1 1378 32
 984 0107 488B8558 		movq	-168(%rbp), %rax
 984      FFFFFF
 985 010e 482B8550 		subq	-176(%rbp), %rax
 985      FFFFFF
 986 0115 48C1E003 		salq	$3, %rax
 987 0119 4801C1   		addq	%rax, %rcx
 988              		.loc 1 1378 5
 989 011c 488D45C0 		leaq	-64(%rbp), %rax
 990 0120 4889CE   		movq	%rcx, %rsi
 991 0123 4889C7   		movq	%rax, %rdi
 992 0126 E8000000 		call	memcpy@PLT
 992      00
1379:/home/xingli/share/LiteOS_Lab/network/dtls/mbedtls/mbedtls-2.16.2/library/ecp_curves.c ****     if( shift != 0 )
 993              		.loc 1 1379 7
 994 012b 4883BD48 		cmpq	$0, -184(%rbp)
GAS LISTING /tmp/ccBClcmz.s 			page 47


 994      FFFFFF00 
 995 0133 7429     		je	.L26
1380:/home/xingli/share/LiteOS_Lab/network/dtls/mbedtls/mbedtls-2.16.2/library/ecp_curves.c ****         MBEDTLS_MPI_CHK( mbedtls_mpi_shift_r( &M, shift ) );
 996              		.loc 1 1380 9
 997 0135 488B9548 		movq	-184(%rbp), %rdx
 997      FFFFFF
 998 013c 488D4580 		leaq	-128(%rbp), %rax
 999 0140 4889D6   		movq	%rdx, %rsi
 1000 0143 4889C7   		movq	%rax, %rdi
 1001 0146 E8000000 		call	mbedtls_mpi_shift_r@PLT
 1001      00
 1002 014b 898574FF 		movl	%eax, -140(%rbp)
 1002      FFFF
 1003 0151 83BD74FF 		cmpl	$0, -140(%rbp)
 1003      FFFF00
 1004 0158 0F85D702 		jne	.L41
 1004      0000
 1005              	.L26:
1381:/home/xingli/share/LiteOS_Lab/network/dtls/mbedtls/mbedtls-2.16.2/library/ecp_curves.c ****     M.n += R.n; /* Make room for multiplication by R */
 1006              		.loc 1 1381 9
 1007 015e 488B5588 		movq	-120(%rbp), %rdx
 1008              		.loc 1 1381 13
 1009 0162 488B45A8 		movq	-88(%rbp), %rax
 1010              		.loc 1 1381 9
 1011 0166 4801D0   		addq	%rdx, %rax
 1012 0169 48894588 		movq	%rax, -120(%rbp)
1382:/home/xingli/share/LiteOS_Lab/network/dtls/mbedtls/mbedtls-2.16.2/library/ecp_curves.c **** 
1383:/home/xingli/share/LiteOS_Lab/network/dtls/mbedtls/mbedtls-2.16.2/library/ecp_curves.c ****     /* N = A0 */
1384:/home/xingli/share/LiteOS_Lab/network/dtls/mbedtls/mbedtls-2.16.2/library/ecp_curves.c ****     if( mask != 0 )
 1013              		.loc 1 1384 7
 1014 016d 4883BD40 		cmpq	$0, -192(%rbp)
 1014      FFFFFF00 
 1015 0175 7447     		je	.L28
1385:/home/xingli/share/LiteOS_Lab/network/dtls/mbedtls/mbedtls-2.16.2/library/ecp_curves.c ****         N->p[p_limbs - 1] &= mask;
 1016              		.loc 1 1385 10
 1017 0177 488B8568 		movq	-152(%rbp), %rax
 1017      FFFFFF
 1018 017e 488B4010 		movq	16(%rax), %rax
 1019              		.loc 1 1385 27
 1020 0182 488B9558 		movq	-168(%rbp), %rdx
 1020      FFFFFF
 1021 0189 48C1E203 		salq	$3, %rdx
 1022 018d 4883EA08 		subq	$8, %rdx
 1023 0191 4801D0   		addq	%rdx, %rax
 1024 0194 488B00   		movq	(%rax), %rax
 1025              		.loc 1 1385 10
 1026 0197 488B9568 		movq	-152(%rbp), %rdx
 1026      FFFFFF
 1027 019e 488B5210 		movq	16(%rdx), %rdx
 1028              		.loc 1 1385 27
 1029 01a2 488B8D58 		movq	-168(%rbp), %rcx
 1029      FFFFFF
 1030 01a9 48C1E103 		salq	$3, %rcx
 1031 01ad 4883E908 		subq	$8, %rcx
 1032 01b1 4801CA   		addq	%rcx, %rdx
 1033 01b4 48238540 		andq	-192(%rbp), %rax
 1033      FFFFFF
GAS LISTING /tmp/ccBClcmz.s 			page 48


 1034 01bb 488902   		movq	%rax, (%rdx)
 1035              	.L28:
1386:/home/xingli/share/LiteOS_Lab/network/dtls/mbedtls/mbedtls-2.16.2/library/ecp_curves.c ****     for( i = p_limbs; i < N->n; i++ )
 1036              		.loc 1 1386 12
 1037 01be 488B8558 		movq	-168(%rbp), %rax
 1037      FFFFFF
 1038 01c5 48898578 		movq	%rax, -136(%rbp)
 1038      FFFFFF
 1039              		.loc 1 1386 5
 1040 01cc EB28     		jmp	.L29
 1041              	.L30:
1387:/home/xingli/share/LiteOS_Lab/network/dtls/mbedtls/mbedtls-2.16.2/library/ecp_curves.c ****         N->p[i] = 0;
 1042              		.loc 1 1387 10 discriminator 3
 1043 01ce 488B8568 		movq	-152(%rbp), %rax
 1043      FFFFFF
 1044 01d5 488B4010 		movq	16(%rax), %rax
 1045              		.loc 1 1387 13 discriminator 3
 1046 01d9 488B9578 		movq	-136(%rbp), %rdx
 1046      FFFFFF
 1047 01e0 48C1E203 		salq	$3, %rdx
 1048 01e4 4801D0   		addq	%rdx, %rax
 1049              		.loc 1 1387 17 discriminator 3
 1050 01e7 48C70000 		movq	$0, (%rax)
 1050      000000
1386:/home/xingli/share/LiteOS_Lab/network/dtls/mbedtls/mbedtls-2.16.2/library/ecp_curves.c ****     for( i = p_limbs; i < N->n; i++ )
 1051              		.loc 1 1386 34 discriminator 3
 1052 01ee 48838578 		addq	$1, -136(%rbp)
 1052      FFFFFF01 
 1053              	.L29:
1386:/home/xingli/share/LiteOS_Lab/network/dtls/mbedtls/mbedtls-2.16.2/library/ecp_curves.c ****     for( i = p_limbs; i < N->n; i++ )
 1054              		.loc 1 1386 28 discriminator 1
 1055 01f6 488B8568 		movq	-152(%rbp), %rax
 1055      FFFFFF
 1056 01fd 488B4008 		movq	8(%rax), %rax
1386:/home/xingli/share/LiteOS_Lab/network/dtls/mbedtls/mbedtls-2.16.2/library/ecp_curves.c ****     for( i = p_limbs; i < N->n; i++ )
 1057              		.loc 1 1386 5 discriminator 1
 1058 0201 48398578 		cmpq	%rax, -136(%rbp)
 1058      FFFFFF
 1059 0208 72C4     		jb	.L30
1388:/home/xingli/share/LiteOS_Lab/network/dtls/mbedtls/mbedtls-2.16.2/library/ecp_curves.c **** 
1389:/home/xingli/share/LiteOS_Lab/network/dtls/mbedtls/mbedtls-2.16.2/library/ecp_curves.c ****     /* N = A0 + R * A1 */
1390:/home/xingli/share/LiteOS_Lab/network/dtls/mbedtls/mbedtls-2.16.2/library/ecp_curves.c ****     MBEDTLS_MPI_CHK( mbedtls_mpi_mul_mpi( &M, &M, &R ) );
 1060              		.loc 1 1390 5
 1061 020a 488D55A0 		leaq	-96(%rbp), %rdx
 1062 020e 488D4D80 		leaq	-128(%rbp), %rcx
 1063 0212 488D4580 		leaq	-128(%rbp), %rax
 1064 0216 4889CE   		movq	%rcx, %rsi
 1065 0219 4889C7   		movq	%rax, %rdi
 1066 021c E8000000 		call	mbedtls_mpi_mul_mpi@PLT
 1066      00
 1067 0221 898574FF 		movl	%eax, -140(%rbp)
 1067      FFFF
 1068 0227 83BD74FF 		cmpl	$0, -140(%rbp)
 1068      FFFF00
 1069 022e 0F850402 		jne	.L42
 1069      0000
1391:/home/xingli/share/LiteOS_Lab/network/dtls/mbedtls/mbedtls-2.16.2/library/ecp_curves.c ****     MBEDTLS_MPI_CHK( mbedtls_mpi_add_abs( N, N, &M ) );
GAS LISTING /tmp/ccBClcmz.s 			page 49


 1070              		.loc 1 1391 5
 1071 0234 488D5580 		leaq	-128(%rbp), %rdx
 1072 0238 488B8D68 		movq	-152(%rbp), %rcx
 1072      FFFFFF
 1073 023f 488B8568 		movq	-152(%rbp), %rax
 1073      FFFFFF
 1074 0246 4889CE   		movq	%rcx, %rsi
 1075 0249 4889C7   		movq	%rax, %rdi
 1076 024c E8000000 		call	mbedtls_mpi_add_abs@PLT
 1076      00
 1077 0251 898574FF 		movl	%eax, -140(%rbp)
 1077      FFFF
 1078 0257 83BD74FF 		cmpl	$0, -140(%rbp)
 1078      FFFF00
 1079 025e 0F85D701 		jne	.L43
 1079      0000
1392:/home/xingli/share/LiteOS_Lab/network/dtls/mbedtls/mbedtls-2.16.2/library/ecp_curves.c **** 
1393:/home/xingli/share/LiteOS_Lab/network/dtls/mbedtls/mbedtls-2.16.2/library/ecp_curves.c ****     /* Second pass */
1394:/home/xingli/share/LiteOS_Lab/network/dtls/mbedtls/mbedtls-2.16.2/library/ecp_curves.c **** 
1395:/home/xingli/share/LiteOS_Lab/network/dtls/mbedtls/mbedtls-2.16.2/library/ecp_curves.c ****     /* M = A1 */
1396:/home/xingli/share/LiteOS_Lab/network/dtls/mbedtls/mbedtls-2.16.2/library/ecp_curves.c ****     M.n = N->n - ( p_limbs - adjust );
 1080              		.loc 1 1396 12
 1081 0264 488B8568 		movq	-152(%rbp), %rax
 1081      FFFFFF
 1082 026b 488B5008 		movq	8(%rax), %rdx
 1083              		.loc 1 1396 16
 1084 026f 488B8550 		movq	-176(%rbp), %rax
 1084      FFFFFF
 1085 0276 482B8558 		subq	-168(%rbp), %rax
 1085      FFFFFF
 1086 027d 4801D0   		addq	%rdx, %rax
 1087              		.loc 1 1396 9
 1088 0280 48894588 		movq	%rax, -120(%rbp)
1397:/home/xingli/share/LiteOS_Lab/network/dtls/mbedtls/mbedtls-2.16.2/library/ecp_curves.c ****     if( M.n > p_limbs + adjust )
 1089              		.loc 1 1397 10
 1090 0284 488B4588 		movq	-120(%rbp), %rax
 1091              		.loc 1 1397 23
 1092 0288 488B8D58 		movq	-168(%rbp), %rcx
 1092      FFFFFF
 1093 028f 488B9550 		movq	-176(%rbp), %rdx
 1093      FFFFFF
 1094 0296 4801CA   		addq	%rcx, %rdx
 1095              		.loc 1 1397 7
 1096 0299 4839D0   		cmpq	%rdx, %rax
 1097 029c 7615     		jbe	.L33
1398:/home/xingli/share/LiteOS_Lab/network/dtls/mbedtls/mbedtls-2.16.2/library/ecp_curves.c ****         M.n = p_limbs + adjust;
 1098              		.loc 1 1398 23
 1099 029e 488B9558 		movq	-168(%rbp), %rdx
 1099      FFFFFF
 1100 02a5 488B8550 		movq	-176(%rbp), %rax
 1100      FFFFFF
 1101 02ac 4801D0   		addq	%rdx, %rax
 1102              		.loc 1 1398 13
 1103 02af 48894588 		movq	%rax, -120(%rbp)
 1104              	.L33:
1399:/home/xingli/share/LiteOS_Lab/network/dtls/mbedtls/mbedtls-2.16.2/library/ecp_curves.c ****     memset( Mp, 0, sizeof Mp );
 1105              		.loc 1 1399 5
GAS LISTING /tmp/ccBClcmz.s 			page 50


 1106 02b3 488D45C0 		leaq	-64(%rbp), %rax
 1107 02b7 BA300000 		movl	$48, %edx
 1107      00
 1108 02bc BE000000 		movl	$0, %esi
 1108      00
 1109 02c1 4889C7   		movq	%rax, %rdi
 1110 02c4 E8000000 		call	memset@PLT
 1110      00
1400:/home/xingli/share/LiteOS_Lab/network/dtls/mbedtls/mbedtls-2.16.2/library/ecp_curves.c ****     memcpy( Mp, N->p + p_limbs - adjust, M.n * sizeof( mbedtls_mpi_uint ) );
 1111              		.loc 1 1400 43
 1112 02c9 488B4588 		movq	-120(%rbp), %rax
 1113              		.loc 1 1400 5
 1114 02cd 488D14C5 		leaq	0(,%rax,8), %rdx
 1114      00000000 
 1115              		.loc 1 1400 18
 1116 02d5 488B8568 		movq	-152(%rbp), %rax
 1116      FFFFFF
 1117 02dc 488B4810 		movq	16(%rax), %rcx
 1118              		.loc 1 1400 32
 1119 02e0 488B8558 		movq	-168(%rbp), %rax
 1119      FFFFFF
 1120 02e7 482B8550 		subq	-176(%rbp), %rax
 1120      FFFFFF
 1121 02ee 48C1E003 		salq	$3, %rax
 1122 02f2 4801C1   		addq	%rax, %rcx
 1123              		.loc 1 1400 5
 1124 02f5 488D45C0 		leaq	-64(%rbp), %rax
 1125 02f9 4889CE   		movq	%rcx, %rsi
 1126 02fc 4889C7   		movq	%rax, %rdi
 1127 02ff E8000000 		call	memcpy@PLT
 1127      00
1401:/home/xingli/share/LiteOS_Lab/network/dtls/mbedtls/mbedtls-2.16.2/library/ecp_curves.c ****     if( shift != 0 )
 1128              		.loc 1 1401 7
 1129 0304 4883BD48 		cmpq	$0, -184(%rbp)
 1129      FFFFFF00 
 1130 030c 7429     		je	.L34
1402:/home/xingli/share/LiteOS_Lab/network/dtls/mbedtls/mbedtls-2.16.2/library/ecp_curves.c ****         MBEDTLS_MPI_CHK( mbedtls_mpi_shift_r( &M, shift ) );
 1131              		.loc 1 1402 9
 1132 030e 488B9548 		movq	-184(%rbp), %rdx
 1132      FFFFFF
 1133 0315 488D4580 		leaq	-128(%rbp), %rax
 1134 0319 4889D6   		movq	%rdx, %rsi
 1135 031c 4889C7   		movq	%rax, %rdi
 1136 031f E8000000 		call	mbedtls_mpi_shift_r@PLT
 1136      00
 1137 0324 898574FF 		movl	%eax, -140(%rbp)
 1137      FFFF
 1138 032a 83BD74FF 		cmpl	$0, -140(%rbp)
 1138      FFFF00
 1139 0331 0F850701 		jne	.L44
 1139      0000
 1140              	.L34:
1403:/home/xingli/share/LiteOS_Lab/network/dtls/mbedtls/mbedtls-2.16.2/library/ecp_curves.c ****     M.n += R.n; /* Make room for multiplication by R */
 1141              		.loc 1 1403 9
 1142 0337 488B5588 		movq	-120(%rbp), %rdx
 1143              		.loc 1 1403 13
 1144 033b 488B45A8 		movq	-88(%rbp), %rax
GAS LISTING /tmp/ccBClcmz.s 			page 51


 1145              		.loc 1 1403 9
 1146 033f 4801D0   		addq	%rdx, %rax
 1147 0342 48894588 		movq	%rax, -120(%rbp)
1404:/home/xingli/share/LiteOS_Lab/network/dtls/mbedtls/mbedtls-2.16.2/library/ecp_curves.c **** 
1405:/home/xingli/share/LiteOS_Lab/network/dtls/mbedtls/mbedtls-2.16.2/library/ecp_curves.c ****     /* N = A0 */
1406:/home/xingli/share/LiteOS_Lab/network/dtls/mbedtls/mbedtls-2.16.2/library/ecp_curves.c ****     if( mask != 0 )
 1148              		.loc 1 1406 7
 1149 0346 4883BD40 		cmpq	$0, -192(%rbp)
 1149      FFFFFF00 
 1150 034e 7447     		je	.L35
1407:/home/xingli/share/LiteOS_Lab/network/dtls/mbedtls/mbedtls-2.16.2/library/ecp_curves.c ****         N->p[p_limbs - 1] &= mask;
 1151              		.loc 1 1407 10
 1152 0350 488B8568 		movq	-152(%rbp), %rax
 1152      FFFFFF
 1153 0357 488B4010 		movq	16(%rax), %rax
 1154              		.loc 1 1407 27
 1155 035b 488B9558 		movq	-168(%rbp), %rdx
 1155      FFFFFF
 1156 0362 48C1E203 		salq	$3, %rdx
 1157 0366 4883EA08 		subq	$8, %rdx
 1158 036a 4801D0   		addq	%rdx, %rax
 1159 036d 488B00   		movq	(%rax), %rax
 1160              		.loc 1 1407 10
 1161 0370 488B9568 		movq	-152(%rbp), %rdx
 1161      FFFFFF
 1162 0377 488B5210 		movq	16(%rdx), %rdx
 1163              		.loc 1 1407 27
 1164 037b 488B8D58 		movq	-168(%rbp), %rcx
 1164      FFFFFF
 1165 0382 48C1E103 		salq	$3, %rcx
 1166 0386 4883E908 		subq	$8, %rcx
 1167 038a 4801CA   		addq	%rcx, %rdx
 1168 038d 48238540 		andq	-192(%rbp), %rax
 1168      FFFFFF
 1169 0394 488902   		movq	%rax, (%rdx)
 1170              	.L35:
1408:/home/xingli/share/LiteOS_Lab/network/dtls/mbedtls/mbedtls-2.16.2/library/ecp_curves.c ****     for( i = p_limbs; i < N->n; i++ )
 1171              		.loc 1 1408 12
 1172 0397 488B8558 		movq	-168(%rbp), %rax
 1172      FFFFFF
 1173 039e 48898578 		movq	%rax, -136(%rbp)
 1173      FFFFFF
 1174              		.loc 1 1408 5
 1175 03a5 EB28     		jmp	.L36
 1176              	.L37:
1409:/home/xingli/share/LiteOS_Lab/network/dtls/mbedtls/mbedtls-2.16.2/library/ecp_curves.c ****         N->p[i] = 0;
 1177              		.loc 1 1409 10 discriminator 3
 1178 03a7 488B8568 		movq	-152(%rbp), %rax
 1178      FFFFFF
 1179 03ae 488B4010 		movq	16(%rax), %rax
 1180              		.loc 1 1409 13 discriminator 3
 1181 03b2 488B9578 		movq	-136(%rbp), %rdx
 1181      FFFFFF
 1182 03b9 48C1E203 		salq	$3, %rdx
 1183 03bd 4801D0   		addq	%rdx, %rax
 1184              		.loc 1 1409 17 discriminator 3
 1185 03c0 48C70000 		movq	$0, (%rax)
GAS LISTING /tmp/ccBClcmz.s 			page 52


 1185      000000
1408:/home/xingli/share/LiteOS_Lab/network/dtls/mbedtls/mbedtls-2.16.2/library/ecp_curves.c ****     for( i = p_limbs; i < N->n; i++ )
 1186              		.loc 1 1408 34 discriminator 3
 1187 03c7 48838578 		addq	$1, -136(%rbp)
 1187      FFFFFF01 
 1188              	.L36:
1408:/home/xingli/share/LiteOS_Lab/network/dtls/mbedtls/mbedtls-2.16.2/library/ecp_curves.c ****     for( i = p_limbs; i < N->n; i++ )
 1189              		.loc 1 1408 28 discriminator 1
 1190 03cf 488B8568 		movq	-152(%rbp), %rax
 1190      FFFFFF
 1191 03d6 488B4008 		movq	8(%rax), %rax
1408:/home/xingli/share/LiteOS_Lab/network/dtls/mbedtls/mbedtls-2.16.2/library/ecp_curves.c ****     for( i = p_limbs; i < N->n; i++ )
 1192              		.loc 1 1408 5 discriminator 1
 1193 03da 48398578 		cmpq	%rax, -136(%rbp)
 1193      FFFFFF
 1194 03e1 72C4     		jb	.L37
1410:/home/xingli/share/LiteOS_Lab/network/dtls/mbedtls/mbedtls-2.16.2/library/ecp_curves.c **** 
1411:/home/xingli/share/LiteOS_Lab/network/dtls/mbedtls/mbedtls-2.16.2/library/ecp_curves.c ****     /* N = A0 + R * A1 */
1412:/home/xingli/share/LiteOS_Lab/network/dtls/mbedtls/mbedtls-2.16.2/library/ecp_curves.c ****     MBEDTLS_MPI_CHK( mbedtls_mpi_mul_mpi( &M, &M, &R ) );
 1195              		.loc 1 1412 5
 1196 03e3 488D55A0 		leaq	-96(%rbp), %rdx
 1197 03e7 488D4D80 		leaq	-128(%rbp), %rcx
 1198 03eb 488D4580 		leaq	-128(%rbp), %rax
 1199 03ef 4889CE   		movq	%rcx, %rsi
 1200 03f2 4889C7   		movq	%rax, %rdi
 1201 03f5 E8000000 		call	mbedtls_mpi_mul_mpi@PLT
 1201      00
 1202 03fa 898574FF 		movl	%eax, -140(%rbp)
 1202      FFFF
 1203 0400 83BD74FF 		cmpl	$0, -140(%rbp)
 1203      FFFF00
 1204 0407 7538     		jne	.L45
1413:/home/xingli/share/LiteOS_Lab/network/dtls/mbedtls/mbedtls-2.16.2/library/ecp_curves.c ****     MBEDTLS_MPI_CHK( mbedtls_mpi_add_abs( N, N, &M ) );
 1205              		.loc 1 1413 5
 1206 0409 488D5580 		leaq	-128(%rbp), %rdx
 1207 040d 488B8D68 		movq	-152(%rbp), %rcx
 1207      FFFFFF
 1208 0414 488B8568 		movq	-152(%rbp), %rax
 1208      FFFFFF
 1209 041b 4889CE   		movq	%rcx, %rsi
 1210 041e 4889C7   		movq	%rax, %rdi
 1211 0421 E8000000 		call	mbedtls_mpi_add_abs@PLT
 1211      00
 1212 0426 898574FF 		movl	%eax, -140(%rbp)
 1212      FFFF
 1213 042c 83BD74FF 		cmpl	$0, -140(%rbp)
 1213      FFFF00
1414:/home/xingli/share/LiteOS_Lab/network/dtls/mbedtls/mbedtls-2.16.2/library/ecp_curves.c **** 
1415:/home/xingli/share/LiteOS_Lab/network/dtls/mbedtls/mbedtls-2.16.2/library/ecp_curves.c **** cleanup:
 1214              		.loc 1 1415 1
 1215 0433 EB0D     		jmp	.L27
 1216              	.L41:
1380:/home/xingli/share/LiteOS_Lab/network/dtls/mbedtls/mbedtls-2.16.2/library/ecp_curves.c ****     M.n += R.n; /* Make room for multiplication by R */
 1217              		.loc 1 1380 9
 1218 0435 90       		nop
 1219 0436 EB0A     		jmp	.L27
 1220              	.L42:
GAS LISTING /tmp/ccBClcmz.s 			page 53


1390:/home/xingli/share/LiteOS_Lab/network/dtls/mbedtls/mbedtls-2.16.2/library/ecp_curves.c ****     MBEDTLS_MPI_CHK( mbedtls_mpi_add_abs( N, N, &M ) );
 1221              		.loc 1 1390 5
 1222 0438 90       		nop
 1223 0439 EB07     		jmp	.L27
 1224              	.L43:
1391:/home/xingli/share/LiteOS_Lab/network/dtls/mbedtls/mbedtls-2.16.2/library/ecp_curves.c **** 
 1225              		.loc 1 1391 5
 1226 043b 90       		nop
 1227 043c EB04     		jmp	.L27
 1228              	.L44:
1402:/home/xingli/share/LiteOS_Lab/network/dtls/mbedtls/mbedtls-2.16.2/library/ecp_curves.c ****     M.n += R.n; /* Make room for multiplication by R */
 1229              		.loc 1 1402 9
 1230 043e 90       		nop
 1231 043f EB01     		jmp	.L27
 1232              	.L45:
1412:/home/xingli/share/LiteOS_Lab/network/dtls/mbedtls/mbedtls-2.16.2/library/ecp_curves.c ****     MBEDTLS_MPI_CHK( mbedtls_mpi_add_abs( N, N, &M ) );
 1233              		.loc 1 1412 5
 1234 0441 90       		nop
 1235              	.L27:
1416:/home/xingli/share/LiteOS_Lab/network/dtls/mbedtls/mbedtls-2.16.2/library/ecp_curves.c ****     return( ret );
 1236              		.loc 1 1416 11
 1237 0442 8B8574FF 		movl	-140(%rbp), %eax
 1237      FFFF
 1238              	.L39:
1417:/home/xingli/share/LiteOS_Lab/network/dtls/mbedtls/mbedtls-2.16.2/library/ecp_curves.c **** }
 1239              		.loc 1 1417 1 discriminator 1
 1240 0448 488B75F8 		movq	-8(%rbp), %rsi
 1241 044c 64483334 		xorq	%fs:40, %rsi
 1241      25280000 
 1241      00
 1242 0455 7405     		je	.L40
 1243              		.loc 1 1417 1 is_stmt 0
 1244 0457 E8000000 		call	__stack_chk_fail@PLT
 1244      00
 1245              	.L40:
 1246 045c C9       		leave
 1247              	.LCFI14:
 1248              		.cfi_def_cfa 7, 8
 1249 045d C3       		ret
 1250              		.cfi_endproc
 1251              	.LFE4:
 1253              		.section	.text.ecp_mod_p192k1,"ax",@progbits
 1255              	ecp_mod_p192k1:
 1256              	.LFB5:
1418:/home/xingli/share/LiteOS_Lab/network/dtls/mbedtls/mbedtls-2.16.2/library/ecp_curves.c **** #endif /* MBEDTLS_ECP_DP_SECP192K1_ENABLED) ||
1419:/home/xingli/share/LiteOS_Lab/network/dtls/mbedtls/mbedtls-2.16.2/library/ecp_curves.c ****           MBEDTLS_ECP_DP_SECP224K1_ENABLED) ||
1420:/home/xingli/share/LiteOS_Lab/network/dtls/mbedtls/mbedtls-2.16.2/library/ecp_curves.c ****           MBEDTLS_ECP_DP_SECP256K1_ENABLED) */
1421:/home/xingli/share/LiteOS_Lab/network/dtls/mbedtls/mbedtls-2.16.2/library/ecp_curves.c **** 
1422:/home/xingli/share/LiteOS_Lab/network/dtls/mbedtls/mbedtls-2.16.2/library/ecp_curves.c **** #if defined(MBEDTLS_ECP_DP_SECP192K1_ENABLED)
1423:/home/xingli/share/LiteOS_Lab/network/dtls/mbedtls/mbedtls-2.16.2/library/ecp_curves.c **** /*
1424:/home/xingli/share/LiteOS_Lab/network/dtls/mbedtls/mbedtls-2.16.2/library/ecp_curves.c ****  * Fast quasi-reduction modulo p192k1 = 2^192 - R,
1425:/home/xingli/share/LiteOS_Lab/network/dtls/mbedtls/mbedtls-2.16.2/library/ecp_curves.c ****  * with R = 2^32 + 2^12 + 2^8 + 2^7 + 2^6 + 2^3 + 1 = 0x0100001119
1426:/home/xingli/share/LiteOS_Lab/network/dtls/mbedtls/mbedtls-2.16.2/library/ecp_curves.c ****  */
1427:/home/xingli/share/LiteOS_Lab/network/dtls/mbedtls/mbedtls-2.16.2/library/ecp_curves.c **** static int ecp_mod_p192k1( mbedtls_mpi *N )
1428:/home/xingli/share/LiteOS_Lab/network/dtls/mbedtls/mbedtls-2.16.2/library/ecp_curves.c **** {
 1257              		.loc 1 1428 1 is_stmt 1
 1258              		.cfi_startproc
GAS LISTING /tmp/ccBClcmz.s 			page 54


 1259 0000 F30F1EFA 		endbr64
 1260 0004 55       		pushq	%rbp
 1261              	.LCFI15:
 1262              		.cfi_def_cfa_offset 16
 1263              		.cfi_offset 6, -16
 1264 0005 4889E5   		movq	%rsp, %rbp
 1265              	.LCFI16:
 1266              		.cfi_def_cfa_register 6
 1267 0008 4883EC20 		subq	$32, %rsp
 1268 000c 48897DE8 		movq	%rdi, -24(%rbp)
 1269              		.loc 1 1428 1
 1270 0010 64488B04 		movq	%fs:40, %rax
 1270      25280000 
 1270      00
 1271 0019 488945F8 		movq	%rax, -8(%rbp)
 1272 001d 31C0     		xorl	%eax, %eax
1429:/home/xingli/share/LiteOS_Lab/network/dtls/mbedtls/mbedtls-2.16.2/library/ecp_curves.c ****     static mbedtls_mpi_uint Rp[] = {
1430:/home/xingli/share/LiteOS_Lab/network/dtls/mbedtls/mbedtls-2.16.2/library/ecp_curves.c ****         BYTES_TO_T_UINT_8( 0xC9, 0x11, 0x00, 0x00, 0x01, 0x00, 0x00, 0x00 ) };
1431:/home/xingli/share/LiteOS_Lab/network/dtls/mbedtls/mbedtls-2.16.2/library/ecp_curves.c **** 
1432:/home/xingli/share/LiteOS_Lab/network/dtls/mbedtls/mbedtls-2.16.2/library/ecp_curves.c ****     return( ecp_mod_koblitz( N, Rp, 192 / 8 / sizeof( mbedtls_mpi_uint ), 0, 0, 0 ) );
 1273              		.loc 1 1432 13
 1274 001f 488B45E8 		movq	-24(%rbp), %rax
 1275 0023 41B90000 		movl	$0, %r9d
 1275      0000
 1276 0029 41B80000 		movl	$0, %r8d
 1276      0000
 1277 002f B9000000 		movl	$0, %ecx
 1277      00
 1278 0034 BA030000 		movl	$3, %edx
 1278      00
 1279 0039 488D3500 		leaq	Rp.2698(%rip), %rsi
 1279      000000
 1280 0040 4889C7   		movq	%rax, %rdi
 1281 0043 E8000000 		call	ecp_mod_koblitz
 1281      00
1433:/home/xingli/share/LiteOS_Lab/network/dtls/mbedtls/mbedtls-2.16.2/library/ecp_curves.c **** }
 1282              		.loc 1 1433 1
 1283 0048 488B55F8 		movq	-8(%rbp), %rdx
 1284 004c 64483314 		xorq	%fs:40, %rdx
 1284      25280000 
 1284      00
 1285 0055 7405     		je	.L48
 1286 0057 E8000000 		call	__stack_chk_fail@PLT
 1286      00
 1287              	.L48:
 1288 005c C9       		leave
 1289              	.LCFI17:
 1290              		.cfi_def_cfa 7, 8
 1291 005d C3       		ret
 1292              		.cfi_endproc
 1293              	.LFE5:
 1295              		.section	.text.ecp_mod_p224k1,"ax",@progbits
 1297              	ecp_mod_p224k1:
 1298              	.LFB6:
1434:/home/xingli/share/LiteOS_Lab/network/dtls/mbedtls/mbedtls-2.16.2/library/ecp_curves.c **** #endif /* MBEDTLS_ECP_DP_SECP192K1_ENABLED */
1435:/home/xingli/share/LiteOS_Lab/network/dtls/mbedtls/mbedtls-2.16.2/library/ecp_curves.c **** 
1436:/home/xingli/share/LiteOS_Lab/network/dtls/mbedtls/mbedtls-2.16.2/library/ecp_curves.c **** #if defined(MBEDTLS_ECP_DP_SECP224K1_ENABLED)
GAS LISTING /tmp/ccBClcmz.s 			page 55


1437:/home/xingli/share/LiteOS_Lab/network/dtls/mbedtls/mbedtls-2.16.2/library/ecp_curves.c **** /*
1438:/home/xingli/share/LiteOS_Lab/network/dtls/mbedtls/mbedtls-2.16.2/library/ecp_curves.c ****  * Fast quasi-reduction modulo p224k1 = 2^224 - R,
1439:/home/xingli/share/LiteOS_Lab/network/dtls/mbedtls/mbedtls-2.16.2/library/ecp_curves.c ****  * with R = 2^32 + 2^12 + 2^11 + 2^9 + 2^7 + 2^4 + 2 + 1 = 0x0100001A93
1440:/home/xingli/share/LiteOS_Lab/network/dtls/mbedtls/mbedtls-2.16.2/library/ecp_curves.c ****  */
1441:/home/xingli/share/LiteOS_Lab/network/dtls/mbedtls/mbedtls-2.16.2/library/ecp_curves.c **** static int ecp_mod_p224k1( mbedtls_mpi *N )
1442:/home/xingli/share/LiteOS_Lab/network/dtls/mbedtls/mbedtls-2.16.2/library/ecp_curves.c **** {
 1299              		.loc 1 1442 1
 1300              		.cfi_startproc
 1301 0000 F30F1EFA 		endbr64
 1302 0004 55       		pushq	%rbp
 1303              	.LCFI18:
 1304              		.cfi_def_cfa_offset 16
 1305              		.cfi_offset 6, -16
 1306 0005 4889E5   		movq	%rsp, %rbp
 1307              	.LCFI19:
 1308              		.cfi_def_cfa_register 6
 1309 0008 4883EC20 		subq	$32, %rsp
 1310 000c 48897DE8 		movq	%rdi, -24(%rbp)
 1311              		.loc 1 1442 1
 1312 0010 64488B04 		movq	%fs:40, %rax
 1312      25280000 
 1312      00
 1313 0019 488945F8 		movq	%rax, -8(%rbp)
 1314 001d 31C0     		xorl	%eax, %eax
1443:/home/xingli/share/LiteOS_Lab/network/dtls/mbedtls/mbedtls-2.16.2/library/ecp_curves.c ****     static mbedtls_mpi_uint Rp[] = {
1444:/home/xingli/share/LiteOS_Lab/network/dtls/mbedtls/mbedtls-2.16.2/library/ecp_curves.c ****         BYTES_TO_T_UINT_8( 0x93, 0x1A, 0x00, 0x00, 0x01, 0x00, 0x00, 0x00 ) };
1445:/home/xingli/share/LiteOS_Lab/network/dtls/mbedtls/mbedtls-2.16.2/library/ecp_curves.c **** 
1446:/home/xingli/share/LiteOS_Lab/network/dtls/mbedtls/mbedtls-2.16.2/library/ecp_curves.c **** #if defined(MBEDTLS_HAVE_INT64)
1447:/home/xingli/share/LiteOS_Lab/network/dtls/mbedtls/mbedtls-2.16.2/library/ecp_curves.c ****     return( ecp_mod_koblitz( N, Rp, 4, 1, 32, 0xFFFFFFFF ) );
 1315              		.loc 1 1447 13
 1316 001f 488B45E8 		movq	-24(%rbp), %rax
 1317 0023 41B9FFFF 		movl	$4294967295, %r9d
 1317      FFFF
 1318 0029 41B82000 		movl	$32, %r8d
 1318      0000
 1319 002f B9010000 		movl	$1, %ecx
 1319      00
 1320 0034 BA040000 		movl	$4, %edx
 1320      00
 1321 0039 488D3500 		leaq	Rp.2702(%rip), %rsi
 1321      000000
 1322 0040 4889C7   		movq	%rax, %rdi
 1323 0043 E8000000 		call	ecp_mod_koblitz
 1323      00
1448:/home/xingli/share/LiteOS_Lab/network/dtls/mbedtls/mbedtls-2.16.2/library/ecp_curves.c **** #else
1449:/home/xingli/share/LiteOS_Lab/network/dtls/mbedtls/mbedtls-2.16.2/library/ecp_curves.c ****     return( ecp_mod_koblitz( N, Rp, 224 / 8 / sizeof( mbedtls_mpi_uint ), 0, 0, 0 ) );
1450:/home/xingli/share/LiteOS_Lab/network/dtls/mbedtls/mbedtls-2.16.2/library/ecp_curves.c **** #endif
1451:/home/xingli/share/LiteOS_Lab/network/dtls/mbedtls/mbedtls-2.16.2/library/ecp_curves.c **** }
 1324              		.loc 1 1451 1
 1325 0048 488B55F8 		movq	-8(%rbp), %rdx
 1326 004c 64483314 		xorq	%fs:40, %rdx
 1326      25280000 
 1326      00
 1327 0055 7405     		je	.L51
 1328 0057 E8000000 		call	__stack_chk_fail@PLT
 1328      00
 1329              	.L51:
GAS LISTING /tmp/ccBClcmz.s 			page 56


 1330 005c C9       		leave
 1331              	.LCFI20:
 1332              		.cfi_def_cfa 7, 8
 1333 005d C3       		ret
 1334              		.cfi_endproc
 1335              	.LFE6:
 1337              		.section	.text.ecp_mod_p256k1,"ax",@progbits
 1339              	ecp_mod_p256k1:
 1340              	.LFB7:
1452:/home/xingli/share/LiteOS_Lab/network/dtls/mbedtls/mbedtls-2.16.2/library/ecp_curves.c **** 
1453:/home/xingli/share/LiteOS_Lab/network/dtls/mbedtls/mbedtls-2.16.2/library/ecp_curves.c **** #endif /* MBEDTLS_ECP_DP_SECP224K1_ENABLED */
1454:/home/xingli/share/LiteOS_Lab/network/dtls/mbedtls/mbedtls-2.16.2/library/ecp_curves.c **** 
1455:/home/xingli/share/LiteOS_Lab/network/dtls/mbedtls/mbedtls-2.16.2/library/ecp_curves.c **** #if defined(MBEDTLS_ECP_DP_SECP256K1_ENABLED)
1456:/home/xingli/share/LiteOS_Lab/network/dtls/mbedtls/mbedtls-2.16.2/library/ecp_curves.c **** /*
1457:/home/xingli/share/LiteOS_Lab/network/dtls/mbedtls/mbedtls-2.16.2/library/ecp_curves.c ****  * Fast quasi-reduction modulo p256k1 = 2^256 - R,
1458:/home/xingli/share/LiteOS_Lab/network/dtls/mbedtls/mbedtls-2.16.2/library/ecp_curves.c ****  * with R = 2^32 + 2^9 + 2^8 + 2^7 + 2^6 + 2^4 + 1 = 0x01000003D1
1459:/home/xingli/share/LiteOS_Lab/network/dtls/mbedtls/mbedtls-2.16.2/library/ecp_curves.c ****  */
1460:/home/xingli/share/LiteOS_Lab/network/dtls/mbedtls/mbedtls-2.16.2/library/ecp_curves.c **** static int ecp_mod_p256k1( mbedtls_mpi *N )
1461:/home/xingli/share/LiteOS_Lab/network/dtls/mbedtls/mbedtls-2.16.2/library/ecp_curves.c **** {
 1341              		.loc 1 1461 1
 1342              		.cfi_startproc
 1343 0000 F30F1EFA 		endbr64
 1344 0004 55       		pushq	%rbp
 1345              	.LCFI21:
 1346              		.cfi_def_cfa_offset 16
 1347              		.cfi_offset 6, -16
 1348 0005 4889E5   		movq	%rsp, %rbp
 1349              	.LCFI22:
 1350              		.cfi_def_cfa_register 6
 1351 0008 4883EC20 		subq	$32, %rsp
 1352 000c 48897DE8 		movq	%rdi, -24(%rbp)
 1353              		.loc 1 1461 1
 1354 0010 64488B04 		movq	%fs:40, %rax
 1354      25280000 
 1354      00
 1355 0019 488945F8 		movq	%rax, -8(%rbp)
 1356 001d 31C0     		xorl	%eax, %eax
1462:/home/xingli/share/LiteOS_Lab/network/dtls/mbedtls/mbedtls-2.16.2/library/ecp_curves.c ****     static mbedtls_mpi_uint Rp[] = {
1463:/home/xingli/share/LiteOS_Lab/network/dtls/mbedtls/mbedtls-2.16.2/library/ecp_curves.c ****         BYTES_TO_T_UINT_8( 0xD1, 0x03, 0x00, 0x00, 0x01, 0x00, 0x00, 0x00 ) };
1464:/home/xingli/share/LiteOS_Lab/network/dtls/mbedtls/mbedtls-2.16.2/library/ecp_curves.c ****     return( ecp_mod_koblitz( N, Rp, 256 / 8 / sizeof( mbedtls_mpi_uint ), 0, 0, 0 ) );
 1357              		.loc 1 1464 13
 1358 001f 488B45E8 		movq	-24(%rbp), %rax
 1359 0023 41B90000 		movl	$0, %r9d
 1359      0000
 1360 0029 41B80000 		movl	$0, %r8d
 1360      0000
 1361 002f B9000000 		movl	$0, %ecx
 1361      00
 1362 0034 BA040000 		movl	$4, %edx
 1362      00
 1363 0039 488D3500 		leaq	Rp.2706(%rip), %rsi
 1363      000000
 1364 0040 4889C7   		movq	%rax, %rdi
 1365 0043 E8000000 		call	ecp_mod_koblitz
 1365      00
1465:/home/xingli/share/LiteOS_Lab/network/dtls/mbedtls/mbedtls-2.16.2/library/ecp_curves.c **** }
 1366              		.loc 1 1465 1
GAS LISTING /tmp/ccBClcmz.s 			page 57


 1367 0048 488B55F8 		movq	-8(%rbp), %rdx
 1368 004c 64483314 		xorq	%fs:40, %rdx
 1368      25280000 
 1368      00
 1369 0055 7405     		je	.L54
 1370 0057 E8000000 		call	__stack_chk_fail@PLT
 1370      00
 1371              	.L54:
 1372 005c C9       		leave
 1373              	.LCFI23:
 1374              		.cfi_def_cfa 7, 8
 1375 005d C3       		ret
 1376              		.cfi_endproc
 1377              	.LFE7:
 1379              		.section	.data.one.2640,"aw"
 1380              		.align 8
 1383              	one.2640:
 1384 0000 01000000 		.quad	1
 1384      00000000 
 1385              		.section	.data.Rp.2698,"aw"
 1386              		.align 8
 1389              	Rp.2698:
 1390 0000 C9110000 		.quad	4294971849
 1390      01000000 
 1391              		.section	.data.Rp.2702,"aw"
 1392              		.align 8
 1395              	Rp.2702:
 1396 0000 931A0000 		.quad	4294974099
 1396      01000000 
 1397              		.section	.data.Rp.2706,"aw"
 1398              		.align 8
 1401              	Rp.2706:
 1402 0000 D1030000 		.quad	4294968273
 1402      01000000 
 1403              		.text
 1404              	.Letext0:
 1405              		.file 2 "/usr/lib/gcc/x86_64-linux-gnu/9/include/stddef.h"
 1406              		.file 3 "/usr/include/x86_64-linux-gnu/bits/types.h"
 1407              		.file 4 "/usr/include/x86_64-linux-gnu/bits/stdint-uintn.h"
 1408              		.file 5 "/home/xingli/share/LiteOS_Lab/network/dtls/mbedtls/mbedtls-2.16.2/include/mbedtls/bignum.
 1409              		.file 6 "/home/xingli/share/LiteOS_Lab/network/dtls/mbedtls/mbedtls-2.16.2/include/mbedtls/ecp.h"
 3564              		.section	.note.gnu.property,"a"
 3565              		.align 8
 3566 0000 04000000 		.long	 1f - 0f
 3567 0004 10000000 		.long	 4f - 1f
 3568 0008 05000000 		.long	 5
 3569              	0:
 3570 000c 474E5500 		.string	 "GNU"
 3571              	1:
 3572              		.align 8
 3573 0010 020000C0 		.long	 0xc0000002
 3574 0014 04000000 		.long	 3f - 2f
 3575              	2:
 3576 0018 03000000 		.long	 0x3
 3577              	3:
 3578 001c 00000000 		.align 8
 3579              	4:
GAS LISTING /tmp/ccBClcmz.s 			page 58


GAS LISTING /tmp/ccBClcmz.s 			page 59


DEFINED SYMBOLS
                            *ABS*:0000000000000000 ecp_curves.c
     /tmp/ccBClcmz.s:8      .rodata.secp192r1_p:0000000000000000 secp192r1_p
     /tmp/ccBClcmz.s:16     .rodata.secp192r1_b:0000000000000000 secp192r1_b
     /tmp/ccBClcmz.s:24     .rodata.secp192r1_gx:0000000000000000 secp192r1_gx
     /tmp/ccBClcmz.s:32     .rodata.secp192r1_gy:0000000000000000 secp192r1_gy
     /tmp/ccBClcmz.s:40     .rodata.secp192r1_n:0000000000000000 secp192r1_n
     /tmp/ccBClcmz.s:48     .rodata.secp224r1_p:0000000000000000 secp224r1_p
     /tmp/ccBClcmz.s:57     .rodata.secp224r1_b:0000000000000000 secp224r1_b
     /tmp/ccBClcmz.s:66     .rodata.secp224r1_gx:0000000000000000 secp224r1_gx
     /tmp/ccBClcmz.s:75     .rodata.secp224r1_gy:0000000000000000 secp224r1_gy
     /tmp/ccBClcmz.s:84     .rodata.secp224r1_n:0000000000000000 secp224r1_n
     /tmp/ccBClcmz.s:93     .rodata.secp256r1_p:0000000000000000 secp256r1_p
     /tmp/ccBClcmz.s:102    .rodata.secp256r1_b:0000000000000000 secp256r1_b
     /tmp/ccBClcmz.s:111    .rodata.secp256r1_gx:0000000000000000 secp256r1_gx
     /tmp/ccBClcmz.s:120    .rodata.secp256r1_gy:0000000000000000 secp256r1_gy
     /tmp/ccBClcmz.s:129    .rodata.secp256r1_n:0000000000000000 secp256r1_n
     /tmp/ccBClcmz.s:138    .rodata.secp384r1_p:0000000000000000 secp384r1_p
     /tmp/ccBClcmz.s:149    .rodata.secp384r1_b:0000000000000000 secp384r1_b
     /tmp/ccBClcmz.s:160    .rodata.secp384r1_gx:0000000000000000 secp384r1_gx
     /tmp/ccBClcmz.s:171    .rodata.secp384r1_gy:0000000000000000 secp384r1_gy
     /tmp/ccBClcmz.s:182    .rodata.secp384r1_n:0000000000000000 secp384r1_n
     /tmp/ccBClcmz.s:193    .rodata.secp521r1_p:0000000000000000 secp521r1_p
     /tmp/ccBClcmz.s:207    .rodata.secp521r1_b:0000000000000000 secp521r1_b
     /tmp/ccBClcmz.s:221    .rodata.secp521r1_gx:0000000000000000 secp521r1_gx
     /tmp/ccBClcmz.s:235    .rodata.secp521r1_gy:0000000000000000 secp521r1_gy
     /tmp/ccBClcmz.s:249    .rodata.secp521r1_n:0000000000000000 secp521r1_n
     /tmp/ccBClcmz.s:263    .rodata.secp192k1_p:0000000000000000 secp192k1_p
     /tmp/ccBClcmz.s:271    .rodata.secp192k1_a:0000000000000000 secp192k1_a
     /tmp/ccBClcmz.s:277    .rodata.secp192k1_b:0000000000000000 secp192k1_b
     /tmp/ccBClcmz.s:283    .rodata.secp192k1_gx:0000000000000000 secp192k1_gx
     /tmp/ccBClcmz.s:291    .rodata.secp192k1_gy:0000000000000000 secp192k1_gy
     /tmp/ccBClcmz.s:299    .rodata.secp192k1_n:0000000000000000 secp192k1_n
     /tmp/ccBClcmz.s:307    .rodata.secp224k1_p:0000000000000000 secp224k1_p
     /tmp/ccBClcmz.s:316    .rodata.secp224k1_a:0000000000000000 secp224k1_a
     /tmp/ccBClcmz.s:322    .rodata.secp224k1_b:0000000000000000 secp224k1_b
     /tmp/ccBClcmz.s:328    .rodata.secp224k1_gx:0000000000000000 secp224k1_gx
     /tmp/ccBClcmz.s:337    .rodata.secp224k1_gy:0000000000000000 secp224k1_gy
     /tmp/ccBClcmz.s:346    .rodata.secp224k1_n:0000000000000000 secp224k1_n
     /tmp/ccBClcmz.s:355    .rodata.secp256k1_p:0000000000000000 secp256k1_p
     /tmp/ccBClcmz.s:364    .rodata.secp256k1_a:0000000000000000 secp256k1_a
     /tmp/ccBClcmz.s:370    .rodata.secp256k1_b:0000000000000000 secp256k1_b
     /tmp/ccBClcmz.s:376    .rodata.secp256k1_gx:0000000000000000 secp256k1_gx
     /tmp/ccBClcmz.s:385    .rodata.secp256k1_gy:0000000000000000 secp256k1_gy
     /tmp/ccBClcmz.s:394    .rodata.secp256k1_n:0000000000000000 secp256k1_n
     /tmp/ccBClcmz.s:401    .text.ecp_mpi_load:0000000000000000 ecp_mpi_load
     /tmp/ccBClcmz.s:451    .text.ecp_mpi_set1:0000000000000000 ecp_mpi_set1
     /tmp/ccBClcmz.s:1383   .data.one.2640:0000000000000000 one.2640
     /tmp/ccBClcmz.s:494    .text.ecp_group_load:0000000000000000 ecp_group_load
     /tmp/ccBClcmz.s:627    .text.mbedtls_ecp_group_load:0000000000000000 mbedtls_ecp_group_load
     /tmp/ccBClcmz.s:1255   .text.ecp_mod_p192k1:0000000000000000 ecp_mod_p192k1
     /tmp/ccBClcmz.s:1297   .text.ecp_mod_p224k1:0000000000000000 ecp_mod_p224k1
     /tmp/ccBClcmz.s:1339   .text.ecp_mod_p256k1:0000000000000000 ecp_mod_p256k1
     /tmp/ccBClcmz.s:901    .text.ecp_mod_koblitz:0000000000000000 ecp_mod_koblitz
     /tmp/ccBClcmz.s:1389   .data.Rp.2698:0000000000000000 Rp.2698
     /tmp/ccBClcmz.s:1395   .data.Rp.2702:0000000000000000 Rp.2702
     /tmp/ccBClcmz.s:1401   .data.Rp.2706:0000000000000000 Rp.2706
GAS LISTING /tmp/ccBClcmz.s 			page 60



UNDEFINED SYMBOLS
_GLOBAL_OFFSET_TABLE_
__stack_chk_fail
mbedtls_mpi_bitlen
mbedtls_ecp_group_free
memset
memcpy
mbedtls_mpi_shift_r
mbedtls_mpi_mul_mpi
mbedtls_mpi_add_abs
