GAS LISTING /tmp/ccWIaY8W.s 			page 1


   1              		.file	"error.c"
   2              		.text
   3              	.Ltext0:
   4              		.section	.rodata
   5              		.align 8
   6              	.LC0:
   7 0000 43495048 		.string	"CIPHER - The selected feature is not available"
   7      4552202D 
   7      20546865 
   7      2073656C 
   7      65637465 
   8              	.LC1:
   9 002f 43495048 		.string	"CIPHER - Bad input parameters"
   9      4552202D 
   9      20426164 
   9      20696E70 
   9      75742070 
  10 004d 000000   		.align 8
  11              	.LC2:
  12 0050 43495048 		.string	"CIPHER - Failed to allocate memory"
  12      4552202D 
  12      20466169 
  12      6C656420 
  12      746F2061 
  13 0073 00000000 		.align 8
  13      00
  14              	.LC3:
  15 0078 43495048 		.string	"CIPHER - Input data contains invalid padding and is rejected"
  15      4552202D 
  15      20496E70 
  15      75742064 
  15      61746120 
  16 00b5 000000   		.align 8
  17              	.LC4:
  18 00b8 43495048 		.string	"CIPHER - Decryption of block requires a full block"
  18      4552202D 
  18      20446563 
  18      72797074 
  18      696F6E20 
  19 00eb 00000000 		.align 8
  19      00
  20              	.LC5:
  21 00f0 43495048 		.string	"CIPHER - Authentication failed (for AEAD modes)"
  21      4552202D 
  21      20417574 
  21      68656E74 
  21      69636174 
  22              		.align 8
  23              	.LC6:
  24 0120 43495048 		.string	"CIPHER - The context is invalid. For example, because it was freed"
  24      4552202D 
  24      20546865 
  24      20636F6E 
  24      74657874 
  25 0163 00000000 		.align 8
  25      00
  26              	.LC7:
GAS LISTING /tmp/ccWIaY8W.s 			page 2


  27 0168 43495048 		.string	"CIPHER - Cipher hardware accelerator failed"
  27      4552202D 
  27      20436970 
  27      68657220 
  27      68617264 
  28 0194 00000000 		.align 8
  29              	.LC8:
  30 0198 45435020 		.string	"ECP - Bad input parameters to function"
  30      2D204261 
  30      6420696E 
  30      70757420 
  30      70617261 
  31 01bf 00       		.align 8
  32              	.LC9:
  33 01c0 45435020 		.string	"ECP - The buffer is too small to write to"
  33      2D205468 
  33      65206275 
  33      66666572 
  33      20697320 
  34 01ea 00000000 		.align 8
  34      0000
  35              	.LC10:
  36 01f0 45435020 		.string	"ECP - The requested feature is not available, for example, the requested curve is not sup
  36      2D205468 
  36      65207265 
  36      71756573 
  36      74656420 
  37              		.align 8
  38              	.LC11:
  39 0250 45435020 		.string	"ECP - The signature is not valid"
  39      2D205468 
  39      65207369 
  39      676E6174 
  39      75726520 
  40 0271 00000000 		.align 8
  40      000000
  41              	.LC12:
  42 0278 45435020 		.string	"ECP - Memory allocation failed"
  42      2D204D65 
  42      6D6F7279 
  42      20616C6C 
  42      6F636174 
  43 0297 00       		.align 8
  44              	.LC13:
  45 0298 45435020 		.string	"ECP - Generation of random value, such as ephemeral key, failed"
  45      2D204765 
  45      6E657261 
  45      74696F6E 
  45      206F6620 
  46              		.align 8
  47              	.LC14:
  48 02d8 45435020 		.string	"ECP - Invalid private or public key"
  48      2D20496E 
  48      76616C69 
  48      64207072 
  48      69766174 
  49 02fc 00000000 		.align 8
GAS LISTING /tmp/ccWIaY8W.s 			page 3


  50              	.LC15:
  51 0300 45435020 		.string	"ECP - The buffer contains a valid signature followed by more data"
  51      2D205468 
  51      65206275 
  51      66666572 
  51      20636F6E 
  52 0342 00000000 		.align 8
  52      0000
  53              	.LC16:
  54 0348 45435020 		.string	"ECP - The ECP hardware accelerator failed"
  54      2D205468 
  54      65204543 
  54      50206861 
  54      72647761 
  55 0372 00000000 		.align 8
  55      0000
  56              	.LC17:
  57 0378 45435020 		.string	"ECP - Operation in progress, call again with the same parameters to continue"
  57      2D204F70 
  57      65726174 
  57      696F6E20 
  57      696E2070 
  58 03c5 000000   		.align 8
  59              	.LC18:
  60 03c8 4D44202D 		.string	"MD - The selected feature is not available"
  60      20546865 
  60      2073656C 
  60      65637465 
  60      64206665 
  61 03f3 00000000 		.align 8
  61      00
  62              	.LC19:
  63 03f8 4D44202D 		.string	"MD - Bad input parameters to function"
  63      20426164 
  63      20696E70 
  63      75742070 
  63      6172616D 
  64 041e 0000     		.align 8
  65              	.LC20:
  66 0420 4D44202D 		.string	"MD - Failed to allocate memory"
  66      20466169 
  66      6C656420 
  66      746F2061 
  66      6C6C6F63 
  67 043f 00       		.align 8
  68              	.LC21:
  69 0440 4D44202D 		.string	"MD - Opening or reading of file failed"
  69      204F7065 
  69      6E696E67 
  69      206F7220 
  69      72656164 
  70 0467 00       		.align 8
  71              	.LC22:
  72 0468 4D44202D 		.string	"MD - MD hardware accelerator failed"
  72      204D4420 
  72      68617264 
  72      77617265 
GAS LISTING /tmp/ccWIaY8W.s 			page 4


  72      20616363 
  73 048c 00000000 		.align 8
  74              	.LC23:
  75 0490 50454D20 		.string	"PEM - No PEM header or footer found"
  75      2D204E6F 
  75      2050454D 
  75      20686561 
  75      64657220 
  76 04b4 00000000 		.align 8
  77              	.LC24:
  78 04b8 50454D20 		.string	"PEM - PEM string is not as expected"
  78      2D205045 
  78      4D207374 
  78      72696E67 
  78      20697320 
  79 04dc 00000000 		.align 8
  80              	.LC25:
  81 04e0 50454D20 		.string	"PEM - Failed to allocate memory"
  81      2D204661 
  81      696C6564 
  81      20746F20 
  81      616C6C6F 
  82              		.align 8
  83              	.LC26:
  84 0500 50454D20 		.string	"PEM - RSA IV is not in hex-format"
  84      2D205253 
  84      41204956 
  84      20697320 
  84      6E6F7420 
  85 0522 00000000 		.align 8
  85      0000
  86              	.LC27:
  87 0528 50454D20 		.string	"PEM - Unsupported key encryption algorithm"
  87      2D20556E 
  87      73757070 
  87      6F727465 
  87      64206B65 
  88 0553 00000000 		.align 8
  88      00
  89              	.LC28:
  90 0558 50454D20 		.string	"PEM - Private key password can't be empty"
  90      2D205072 
  90      69766174 
  90      65206B65 
  90      79207061 
  91 0582 00000000 		.align 8
  91      0000
  92              	.LC29:
  93 0588 50454D20 		.string	"PEM - Given private key password does not allow for correct decryption"
  93      2D204769 
  93      76656E20 
  93      70726976 
  93      61746520 
  94 05cf 00       		.align 8
  95              	.LC30:
  96 05d0 50454D20 		.string	"PEM - Unavailable feature, e.g. hashing/encryption combination"
  96      2D20556E 
GAS LISTING /tmp/ccWIaY8W.s 			page 5


  96      61766169 
  96      6C61626C 
  96      65206665 
  97 060f 00       		.align 8
  98              	.LC31:
  99 0610 50454D20 		.string	"PEM - Bad input parameters to function"
  99      2D204261 
  99      6420696E 
  99      70757420 
  99      70617261 
 100              	.LC32:
 101 0637 504B202D 		.string	"PK - Memory allocation failed"
 101      204D656D 
 101      6F727920 
 101      616C6C6F 
 101      63617469 
 102 0655 000000   		.align 8
 103              	.LC33:
 104 0658 504B202D 		.string	"PK - Type mismatch, eg attempt to encrypt with an ECDSA key"
 104      20547970 
 104      65206D69 
 104      736D6174 
 104      63682C20 
 105 0694 00000000 		.align 8
 106              	.LC34:
 107 0698 504B202D 		.string	"PK - Bad input parameters to function"
 107      20426164 
 107      20696E70 
 107      75742070 
 107      6172616D 
 108 06be 0000     		.align 8
 109              	.LC35:
 110 06c0 504B202D 		.string	"PK - Read/write of file failed"
 110      20526561 
 110      642F7772 
 110      69746520 
 110      6F662066 
 111              	.LC36:
 112 06df 504B202D 		.string	"PK - Unsupported key version"
 112      20556E73 
 112      7570706F 
 112      72746564 
 112      206B6579 
 113              	.LC37:
 114 06fc 504B202D 		.string	"PK - Invalid key tag or value"
 114      20496E76 
 114      616C6964 
 114      206B6579 
 114      20746167 
 115 071a 00000000 		.align 8
 115      0000
 116              	.LC38:
 117 0720 504B202D 		.string	"PK - Key algorithm is unsupported (only RSA and EC are supported)"
 117      204B6579 
 117      20616C67 
 117      6F726974 
 117      686D2069 
GAS LISTING /tmp/ccWIaY8W.s 			page 6


 118 0762 00000000 		.align 8
 118      0000
 119              	.LC39:
 120 0768 504B202D 		.string	"PK - Private key password can't be empty"
 120      20507269 
 120      76617465 
 120      206B6579 
 120      20706173 
 121 0791 00000000 		.align 8
 121      000000
 122              	.LC40:
 123 0798 504B202D 		.string	"PK - Given private key password does not allow for correct decryption"
 123      20476976 
 123      656E2070 
 123      72697661 
 123      7465206B 
 124 07de 0000     		.align 8
 125              	.LC41:
 126 07e0 504B202D 		.string	"PK - The pubkey tag or value is invalid (only RSA and EC are supported)"
 126      20546865 
 126      20707562 
 126      6B657920 
 126      74616720 
 127              		.align 8
 128              	.LC42:
 129 0828 504B202D 		.string	"PK - The algorithm tag or value is invalid"
 129      20546865 
 129      20616C67 
 129      6F726974 
 129      686D2074 
 130 0853 00000000 		.align 8
 130      00
 131              	.LC43:
 132 0858 504B202D 		.string	"PK - Elliptic curve is unsupported (only NIST curves are supported)"
 132      20456C6C 
 132      69707469 
 132      63206375 
 132      72766520 
 133 089c 00000000 		.align 8
 134              	.LC44:
 135 08a0 504B202D 		.string	"PK - Unavailable feature, e.g. RSA disabled for RSA key"
 135      20556E61 
 135      7661696C 
 135      61626C65 
 135      20666561 
 136              		.align 8
 137              	.LC45:
 138 08d8 504B202D 		.string	"PK - The buffer contains a valid signature followed by more data"
 138      20546865 
 138      20627566 
 138      66657220 
 138      636F6E74 
 139 0919 00000000 		.align 8
 139      000000
 140              	.LC46:
 141 0920 504B202D 		.string	"PK - PK hardware accelerator failed"
 141      20504B20 
GAS LISTING /tmp/ccWIaY8W.s 			page 7


 141      68617264 
 141      77617265 
 141      20616363 
 142 0944 00000000 		.align 8
 143              	.LC47:
 144 0948 504B4353 		.string	"PKCS12 - Bad input parameters to function"
 144      3132202D 
 144      20426164 
 144      20696E70 
 144      75742070 
 145 0972 00000000 		.align 8
 145      0000
 146              	.LC48:
 147 0978 504B4353 		.string	"PKCS12 - Feature not available, e.g. unsupported encryption scheme"
 147      3132202D 
 147      20466561 
 147      74757265 
 147      206E6F74 
 148 09bb 00000000 		.align 8
 148      00
 149              	.LC49:
 150 09c0 504B4353 		.string	"PKCS12 - PBE ASN.1 data not as expected"
 150      3132202D 
 150      20504245 
 150      2041534E 
 150      2E312064 
 151              		.align 8
 152              	.LC50:
 153 09e8 504B4353 		.string	"PKCS12 - Given private key password does not allow for correct decryption"
 153      3132202D 
 153      20476976 
 153      656E2070 
 153      72697661 
 154 0a32 00000000 		.align 8
 154      0000
 155              	.LC51:
 156 0a38 504B4353 		.string	"PKCS5 - Bad input parameters to function"
 156      35202D20 
 156      42616420 
 156      696E7075 
 156      74207061 
 157              	.LC52:
 158 0a61 504B4353 		.string	"PKCS5 - Unexpected ASN.1 data"
 158      35202D20 
 158      556E6578 
 158      70656374 
 158      65642041 
 159 0a7f 00       		.align 8
 160              	.LC53:
 161 0a80 504B4353 		.string	"PKCS5 - Requested encryption or digest alg not available"
 161      35202D20 
 161      52657175 
 161      65737465 
 161      6420656E 
 162 0ab9 00000000 		.align 8
 162      000000
 163              	.LC54:
GAS LISTING /tmp/ccWIaY8W.s 			page 8


 164 0ac0 504B4353 		.string	"PKCS5 - Given private key password does not allow for correct decryption"
 164      35202D20 
 164      47697665 
 164      6E207072 
 164      69766174 
 165 0b09 00000000 		.align 8
 165      000000
 166              	.LC55:
 167 0b10 52534120 		.string	"RSA - Bad input parameters to function"
 167      2D204261 
 167      6420696E 
 167      70757420 
 167      70617261 
 168 0b37 00       		.align 8
 169              	.LC56:
 170 0b38 52534120 		.string	"RSA - Input data contains invalid padding and is rejected"
 170      2D20496E 
 170      70757420 
 170      64617461 
 170      20636F6E 
 171 0b72 00000000 		.align 8
 171      0000
 172              	.LC57:
 173 0b78 52534120 		.string	"RSA - Something failed during generation of a key"
 173      2D20536F 
 173      6D657468 
 173      696E6720 
 173      6661696C 
 174 0baa 00000000 		.align 8
 174      0000
 175              	.LC58:
 176 0bb0 52534120 		.string	"RSA - Key failed to pass the validity check of the library"
 176      2D204B65 
 176      79206661 
 176      696C6564 
 176      20746F20 
 177 0beb 00000000 		.align 8
 177      00
 178              	.LC59:
 179 0bf0 52534120 		.string	"RSA - The public key operation failed"
 179      2D205468 
 179      65207075 
 179      626C6963 
 179      206B6579 
 180 0c16 0000     		.align 8
 181              	.LC60:
 182 0c18 52534120 		.string	"RSA - The private key operation failed"
 182      2D205468 
 182      65207072 
 182      69766174 
 182      65206B65 
 183 0c3f 00       		.align 8
 184              	.LC61:
 185 0c40 52534120 		.string	"RSA - The PKCS#1 verification failed"
 185      2D205468 
 185      6520504B 
 185      43532331 
GAS LISTING /tmp/ccWIaY8W.s 			page 9


 185      20766572 
 186 0c65 000000   		.align 8
 187              	.LC62:
 188 0c68 52534120 		.string	"RSA - The output buffer for decryption is not large enough"
 188      2D205468 
 188      65206F75 
 188      74707574 
 188      20627566 
 189 0ca3 00000000 		.align 8
 189      00
 190              	.LC63:
 191 0ca8 52534120 		.string	"RSA - The random generator failed to generate non-zeros"
 191      2D205468 
 191      65207261 
 191      6E646F6D 
 191      2067656E 
 192              		.align 8
 193              	.LC64:
 194 0ce0 52534120 		.string	"RSA - The implementation does not offer the requested operation, for example, because of 
 194      2D205468 
 194      6520696D 
 194      706C656D 
 194      656E7461 
 195 0d66 0000     		.align 8
 196              	.LC65:
 197 0d68 52534120 		.string	"RSA - RSA hardware accelerator failed"
 197      2D205253 
 197      41206861 
 197      72647761 
 197      72652061 
 198 0d8e 0000     		.align 8
 199              	.LC66:
 200 0d90 53534C20 		.string	"SSL - The requested feature is not available"
 200      2D205468 
 200      65207265 
 200      71756573 
 200      74656420 
 201 0dbd 000000   		.align 8
 202              	.LC67:
 203 0dc0 53534C20 		.string	"SSL - Bad input parameters to function"
 203      2D204261 
 203      6420696E 
 203      70757420 
 203      70617261 
 204 0de7 00       		.align 8
 205              	.LC68:
 206 0de8 53534C20 		.string	"SSL - Verification of the message MAC failed"
 206      2D205665 
 206      72696669 
 206      63617469 
 206      6F6E206F 
 207 0e15 000000   		.align 8
 208              	.LC69:
 209 0e18 53534C20 		.string	"SSL - An invalid SSL record was received"
 209      2D20416E 
 209      20696E76 
 209      616C6964 
GAS LISTING /tmp/ccWIaY8W.s 			page 10


 209      2053534C 
 210 0e41 00000000 		.align 8
 210      000000
 211              	.LC70:
 212 0e48 53534C20 		.string	"SSL - The connection indicated an EOF"
 212      2D205468 
 212      6520636F 
 212      6E6E6563 
 212      74696F6E 
 213 0e6e 0000     		.align 8
 214              	.LC71:
 215 0e70 53534C20 		.string	"SSL - An unknown cipher was received"
 215      2D20416E 
 215      20756E6B 
 215      6E6F776E 
 215      20636970 
 216 0e95 000000   		.align 8
 217              	.LC72:
 218 0e98 53534C20 		.string	"SSL - The server has no ciphersuites in common with the client"
 218      2D205468 
 218      65207365 
 218      72766572 
 218      20686173 
 219 0ed7 00       		.align 8
 220              	.LC73:
 221 0ed8 53534C20 		.string	"SSL - No RNG was provided to the SSL module"
 221      2D204E6F 
 221      20524E47 
 221      20776173 
 221      2070726F 
 222 0f04 00000000 		.align 8
 223              	.LC74:
 224 0f08 53534C20 		.string	"SSL - No client certification received from the client, but required by the authenticatio
 224      2D204E6F 
 224      20636C69 
 224      656E7420 
 224      63657274 
 225              		.align 8
 226              	.LC75:
 227 0f68 53534C20 		.string	"SSL - Our own certificate(s) is/are too large to send in an SSL message"
 227      2D204F75 
 227      72206F77 
 227      6E206365 
 227      72746966 
 228              		.align 8
 229              	.LC76:
 230 0fb0 53534C20 		.string	"SSL - The own certificate is not set, but needed by the server"
 230      2D205468 
 230      65206F77 
 230      6E206365 
 230      72746966 
 231 0fef 00       		.align 8
 232              	.LC77:
 233 0ff0 53534C20 		.string	"SSL - The own private key or pre-shared key is not set, but needed"
 233      2D205468 
 233      65206F77 
 233      6E207072 
GAS LISTING /tmp/ccWIaY8W.s 			page 11


 233      69766174 
 234 1033 00000000 		.align 8
 234      00
 235              	.LC78:
 236 1038 53534C20 		.string	"SSL - No CA Chain is set, but required to operate"
 236      2D204E6F 
 236      20434120 
 236      43686169 
 236      6E206973 
 237 106a 00000000 		.align 8
 237      0000
 238              	.LC79:
 239 1070 53534C20 		.string	"SSL - An unexpected message was received from our peer"
 239      2D20416E 
 239      20756E65 
 239      78706563 
 239      74656420 
 240 10a7 00       		.align 8
 241              	.LC80:
 242 10a8 53534C20 		.string	"SSL - A fatal alert message was received from our peer"
 242      2D204120 
 242      66617461 
 242      6C20616C 
 242      65727420 
 243 10df 00       		.align 8
 244              	.LC81:
 245 10e0 53534C20 		.string	"SSL - Verification of our peer failed"
 245      2D205665 
 245      72696669 
 245      63617469 
 245      6F6E206F 
 246 1106 0000     		.align 8
 247              	.LC82:
 248 1108 53534C20 		.string	"SSL - The peer notified us that the connection is going to be closed"
 248      2D205468 
 248      65207065 
 248      6572206E 
 248      6F746966 
 249 114d 000000   		.align 8
 250              	.LC83:
 251 1150 53534C20 		.string	"SSL - Processing of the ClientHello handshake message failed"
 251      2D205072 
 251      6F636573 
 251      73696E67 
 251      206F6620 
 252 118d 000000   		.align 8
 253              	.LC84:
 254 1190 53534C20 		.string	"SSL - Processing of the ServerHello handshake message failed"
 254      2D205072 
 254      6F636573 
 254      73696E67 
 254      206F6620 
 255 11cd 000000   		.align 8
 256              	.LC85:
 257 11d0 53534C20 		.string	"SSL - Processing of the Certificate handshake message failed"
 257      2D205072 
 257      6F636573 
GAS LISTING /tmp/ccWIaY8W.s 			page 12


 257      73696E67 
 257      206F6620 
 258 120d 000000   		.align 8
 259              	.LC86:
 260 1210 53534C20 		.string	"SSL - Processing of the CertificateRequest handshake message failed"
 260      2D205072 
 260      6F636573 
 260      73696E67 
 260      206F6620 
 261 1254 00000000 		.align 8
 262              	.LC87:
 263 1258 53534C20 		.string	"SSL - Processing of the ServerKeyExchange handshake message failed"
 263      2D205072 
 263      6F636573 
 263      73696E67 
 263      206F6620 
 264 129b 00000000 		.align 8
 264      00
 265              	.LC88:
 266 12a0 53534C20 		.string	"SSL - Processing of the ServerHelloDone handshake message failed"
 266      2D205072 
 266      6F636573 
 266      73696E67 
 266      206F6620 
 267 12e1 00000000 		.align 8
 267      000000
 268              	.LC89:
 269 12e8 53534C20 		.string	"SSL - Processing of the ClientKeyExchange handshake message failed"
 269      2D205072 
 269      6F636573 
 269      73696E67 
 269      206F6620 
 270 132b 00000000 		.align 8
 270      00
 271              	.LC90:
 272 1330 53534C20 		.string	"SSL - Processing of the ClientKeyExchange handshake message failed in DHM / ECDH Read Pub
 272      2D205072 
 272      6F636573 
 272      73696E67 
 272      206F6620 
 273 138d 000000   		.align 8
 274              	.LC91:
 275 1390 53534C20 		.string	"SSL - Processing of the ClientKeyExchange handshake message failed in DHM / ECDH Calculat
 275      2D205072 
 275      6F636573 
 275      73696E67 
 275      206F6620 
 276 13f2 00000000 		.align 8
 276      0000
 277              	.LC92:
 278 13f8 53534C20 		.string	"SSL - Processing of the CertificateVerify handshake message failed"
 278      2D205072 
 278      6F636573 
 278      73696E67 
 278      206F6620 
 279 143b 00000000 		.align 8
 279      00
GAS LISTING /tmp/ccWIaY8W.s 			page 13


 280              	.LC93:
 281 1440 53534C20 		.string	"SSL - Processing of the ChangeCipherSpec handshake message failed"
 281      2D205072 
 281      6F636573 
 281      73696E67 
 281      206F6620 
 282 1482 00000000 		.align 8
 282      0000
 283              	.LC94:
 284 1488 53534C20 		.string	"SSL - Processing of the Finished handshake message failed"
 284      2D205072 
 284      6F636573 
 284      73696E67 
 284      206F6620 
 285 14c2 00000000 		.align 8
 285      0000
 286              	.LC95:
 287 14c8 53534C20 		.string	"SSL - Memory allocation failed"
 287      2D204D65 
 287      6D6F7279 
 287      20616C6C 
 287      6F636174 
 288 14e7 00       		.align 8
 289              	.LC96:
 290 14e8 53534C20 		.string	"SSL - Hardware acceleration function returned with error"
 290      2D204861 
 290      72647761 
 290      72652061 
 290      6363656C 
 291 1521 00000000 		.align 8
 291      000000
 292              	.LC97:
 293 1528 53534C20 		.string	"SSL - Hardware acceleration function skipped / left alone data"
 293      2D204861 
 293      72647761 
 293      72652061 
 293      6363656C 
 294 1567 00       		.align 8
 295              	.LC98:
 296 1568 53534C20 		.string	"SSL - Processing of the compression / decompression failed"
 296      2D205072 
 296      6F636573 
 296      73696E67 
 296      206F6620 
 297 15a3 00000000 		.align 8
 297      00
 298              	.LC99:
 299 15a8 53534C20 		.string	"SSL - Handshake protocol not within min/max boundaries"
 299      2D204861 
 299      6E647368 
 299      616B6520 
 299      70726F74 
 300 15df 00       		.align 8
 301              	.LC100:
 302 15e0 53534C20 		.string	"SSL - Processing of the NewSessionTicket handshake message failed"
 302      2D205072 
 302      6F636573 
GAS LISTING /tmp/ccWIaY8W.s 			page 14


 302      73696E67 
 302      206F6620 
 303 1622 00000000 		.align 8
 303      0000
 304              	.LC101:
 305 1628 53534C20 		.string	"SSL - Session ticket has expired"
 305      2D205365 
 305      7373696F 
 305      6E207469 
 305      636B6574 
 306 1649 00000000 		.align 8
 306      000000
 307              	.LC102:
 308 1650 53534C20 		.string	"SSL - Public key type mismatch (eg, asked for RSA key exchange and presented EC key)"
 308      2D205075 
 308      626C6963 
 308      206B6579 
 308      20747970 
 309 16a5 000000   		.align 8
 310              	.LC103:
 311 16a8 53534C20 		.string	"SSL - Unknown identity received (eg, PSK identity)"
 311      2D20556E 
 311      6B6E6F77 
 311      6E206964 
 311      656E7469 
 312 16db 00000000 		.align 8
 312      00
 313              	.LC104:
 314 16e0 53534C20 		.string	"SSL - Internal error (eg, unexpected failure in lower-level module)"
 314      2D20496E 
 314      7465726E 
 314      616C2065 
 314      72726F72 
 315 1724 00000000 		.align 8
 316              	.LC105:
 317 1728 53534C20 		.string	"SSL - A counter would wrap (eg, too many messages exchanged)"
 317      2D204120 
 317      636F756E 
 317      74657220 
 317      776F756C 
 318 1765 000000   		.align 8
 319              	.LC106:
 320 1768 53534C20 		.string	"SSL - Unexpected message at ServerHello in renegotiation"
 320      2D20556E 
 320      65787065 
 320      63746564 
 320      206D6573 
 321 17a1 00000000 		.align 8
 321      000000
 322              	.LC107:
 323 17a8 53534C20 		.string	"SSL - DTLS client must retry for hello verification"
 323      2D204454 
 323      4C532063 
 323      6C69656E 
 323      74206D75 
 324 17dc 00000000 		.align 8
 325              	.LC108:
GAS LISTING /tmp/ccWIaY8W.s 			page 15


 326 17e0 53534C20 		.string	"SSL - A buffer is too small to receive or write a message"
 326      2D204120 
 326      62756666 
 326      65722069 
 326      7320746F 
 327 181a 00000000 		.align 8
 327      0000
 328              	.LC109:
 329 1820 53534C20 		.string	"SSL - None of the common ciphersuites is usable (eg, no suitable certificate, see debug m
 329      2D204E6F 
 329      6E65206F 
 329      66207468 
 329      6520636F 
 330 1882 00000000 		.align 8
 330      0000
 331              	.LC110:
 332 1888 53534C20 		.string	"SSL - No data of requested type currently available on underlying transport"
 332      2D204E6F 
 332      20646174 
 332      61206F66 
 332      20726571 
 333 18d4 00000000 		.align 8
 334              	.LC111:
 335 18d8 53534C20 		.string	"SSL - Connection requires a write call"
 335      2D20436F 
 335      6E6E6563 
 335      74696F6E 
 335      20726571 
 336              	.LC112:
 337 18ff 53534C20 		.string	"SSL - The operation timed out"
 337      2D205468 
 337      65206F70 
 337      65726174 
 337      696F6E20 
 338 191d 000000   		.align 8
 339              	.LC113:
 340 1920 53534C20 		.string	"SSL - The client initiated a reconnect from the same port"
 340      2D205468 
 340      6520636C 
 340      69656E74 
 340      20696E69 
 341 195a 00000000 		.align 8
 341      0000
 342              	.LC114:
 343 1960 53534C20 		.string	"SSL - Record header looks valid but is not expected"
 343      2D205265 
 343      636F7264 
 343      20686561 
 343      64657220 
 344 1994 00000000 		.align 8
 345              	.LC115:
 346 1998 53534C20 		.string	"SSL - The alert message received indicates a non-fatal error"
 346      2D205468 
 346      6520616C 
 346      65727420 
 346      6D657373 
 347 19d5 000000   		.align 8
GAS LISTING /tmp/ccWIaY8W.s 			page 16


 348              	.LC116:
 349 19d8 53534C20 		.string	"SSL - Couldn't set the hash for verifying CertificateVerify"
 349      2D20436F 
 349      756C646E 
 349      27742073 
 349      65742074 
 350 1a14 00000000 		.align 8
 351              	.LC117:
 352 1a18 53534C20 		.string	"SSL - Internal-only message signaling that further message-processing should be done"
 352      2D20496E 
 352      7465726E 
 352      616C2D6F 
 352      6E6C7920 
 353 1a6d 000000   		.align 8
 354              	.LC118:
 355 1a70 53534C20 		.string	"SSL - The asynchronous operation is not completed yet"
 355      2D205468 
 355      65206173 
 355      796E6368 
 355      726F6E6F 
 356 1aa6 0000     		.align 8
 357              	.LC119:
 358 1aa8 53534C20 		.string	"SSL - Internal-only message signaling that a message arrived early"
 358      2D20496E 
 358      7465726E 
 358      616C2D6F 
 358      6E6C7920 
 359 1aeb 00000000 		.align 8
 359      00
 360              	.LC120:
 361 1af0 53534C20 		.string	"SSL - A cryptographic operation is in progress. Try again later"
 361      2D204120 
 361      63727970 
 361      746F6772 
 361      61706869 
 362              		.align 8
 363              	.LC121:
 364 1b30 58353039 		.string	"X509 - Unavailable feature, e.g. RSA hashing/encryption combination"
 364      202D2055 
 364      6E617661 
 364      696C6162 
 364      6C652066 
 365 1b74 00000000 		.align 8
 366              	.LC122:
 367 1b78 58353039 		.string	"X509 - Requested OID is unknown"
 367      202D2052 
 367      65717565 
 367      73746564 
 367      204F4944 
 368              		.align 8
 369              	.LC123:
 370 1b98 58353039 		.string	"X509 - The CRT/CRL/CSR format is invalid, e.g. different type expected"
 370      202D2054 
 370      68652043 
 370      52542F43 
 370      524C2F43 
 371 1bdf 00       		.align 8
GAS LISTING /tmp/ccWIaY8W.s 			page 17


 372              	.LC124:
 373 1be0 58353039 		.string	"X509 - The CRT/CRL/CSR version element is invalid"
 373      202D2054 
 373      68652043 
 373      52542F43 
 373      524C2F43 
 374 1c12 00000000 		.align 8
 374      0000
 375              	.LC125:
 376 1c18 58353039 		.string	"X509 - The serial tag or value is invalid"
 376      202D2054 
 376      68652073 
 376      65726961 
 376      6C207461 
 377 1c42 00000000 		.align 8
 377      0000
 378              	.LC126:
 379 1c48 58353039 		.string	"X509 - The algorithm tag or value is invalid"
 379      202D2054 
 379      68652061 
 379      6C676F72 
 379      6974686D 
 380 1c75 000000   		.align 8
 381              	.LC127:
 382 1c78 58353039 		.string	"X509 - The name tag or value is invalid"
 382      202D2054 
 382      6865206E 
 382      616D6520 
 382      74616720 
 383              		.align 8
 384              	.LC128:
 385 1ca0 58353039 		.string	"X509 - The date tag or value is invalid"
 385      202D2054 
 385      68652064 
 385      61746520 
 385      74616720 
 386              		.align 8
 387              	.LC129:
 388 1cc8 58353039 		.string	"X509 - The signature tag or value invalid"
 388      202D2054 
 388      68652073 
 388      69676E61 
 388      74757265 
 389 1cf2 00000000 		.align 8
 389      0000
 390              	.LC130:
 391 1cf8 58353039 		.string	"X509 - The extension tag or value is invalid"
 391      202D2054 
 391      68652065 
 391      7874656E 
 391      73696F6E 
 392 1d25 000000   		.align 8
 393              	.LC131:
 394 1d28 58353039 		.string	"X509 - CRT/CRL/CSR has an unsupported version number"
 394      202D2043 
 394      52542F43 
 394      524C2F43 
GAS LISTING /tmp/ccWIaY8W.s 			page 18


 394      53522068 
 395 1d5d 000000   		.align 8
 396              	.LC132:
 397 1d60 58353039 		.string	"X509 - Signature algorithm (oid) is unsupported"
 397      202D2053 
 397      69676E61 
 397      74757265 
 397      20616C67 
 398              		.align 8
 399              	.LC133:
 400 1d90 58353039 		.string	"X509 - Signature algorithms do not match. (see \\c ::mbedtls_x509_crt sig_oid)"
 400      202D2053 
 400      69676E61 
 400      74757265 
 400      20616C67 
 401 1dde 0000     		.align 8
 402              	.LC134:
 403 1de0 58353039 		.string	"X509 - Certificate verification failed, e.g. CRL, CA or signature check failed"
 403      202D2043 
 403      65727469 
 403      66696361 
 403      74652076 
 404 1e2f 00       		.align 8
 405              	.LC135:
 406 1e30 58353039 		.string	"X509 - Format not recognized as DER or PEM"
 406      202D2046 
 406      6F726D61 
 406      74206E6F 
 406      74207265 
 407              	.LC136:
 408 1e5b 58353039 		.string	"X509 - Input invalid"
 408      202D2049 
 408      6E707574 
 408      20696E76 
 408      616C6964 
 409              		.align 8
 410              	.LC137:
 411 1e70 58353039 		.string	"X509 - Allocation of memory failed"
 411      202D2041 
 411      6C6C6F63 
 411      6174696F 
 411      6E206F66 
 412 1e93 00000000 		.align 8
 412      00
 413              	.LC138:
 414 1e98 58353039 		.string	"X509 - Read/write of file failed"
 414      202D2052 
 414      6561642F 
 414      77726974 
 414      65206F66 
 415 1eb9 00000000 		.align 8
 415      000000
 416              	.LC139:
 417 1ec0 58353039 		.string	"X509 - Destination buffer is too small"
 417      202D2044 
 417      65737469 
 417      6E617469 
GAS LISTING /tmp/ccWIaY8W.s 			page 19


 417      6F6E2062 
 418 1ee7 00       		.align 8
 419              	.LC140:
 420 1ee8 58353039 		.string	"X509 - A fatal error occured, eg the chain is too long or the vrfy callback failed"
 420      202D2041 
 420      20666174 
 420      616C2065 
 420      72726F72 
 421              	.LC141:
 422 1f3b 554E4B4E 		.string	"UNKNOWN ERROR CODE (%04X)"
 422      4F574E20 
 422      4552524F 
 422      5220434F 
 422      44452028 
 423              	.LC142:
 424 1f55 203A2000 		.string	" : "
 425              	.LC143:
 426 1f59 41455320 		.string	"AES - Invalid key length"
 426      2D20496E 
 426      76616C69 
 426      64206B65 
 426      79206C65 
 427 1f72 00000000 		.align 8
 427      0000
 428              	.LC144:
 429 1f78 41455320 		.string	"AES - Invalid data input length"
 429      2D20496E 
 429      76616C69 
 429      64206461 
 429      74612069 
 430              	.LC145:
 431 1f98 41455320 		.string	"AES - Invalid input data"
 431      2D20496E 
 431      76616C69 
 431      6420696E 
 431      70757420 
 432 1fb1 00000000 		.align 8
 432      000000
 433              	.LC146:
 434 1fb8 41455320 		.string	"AES - Feature not available. For example, an unsupported AES key size"
 434      2D204665 
 434      61747572 
 434      65206E6F 
 434      74206176 
 435 1ffe 0000     		.align 8
 436              	.LC147:
 437 2000 41455320 		.string	"AES - AES hardware accelerator failed"
 437      2D204145 
 437      53206861 
 437      72647761 
 437      72652061 
 438 2026 0000     		.align 8
 439              	.LC148:
 440 2028 41534E31 		.string	"ASN1 - Out of data when parsing an ASN1 data structure"
 440      202D204F 
 440      7574206F 
 440      66206461 
GAS LISTING /tmp/ccWIaY8W.s 			page 20


 440      74612077 
 441 205f 00       		.align 8
 442              	.LC149:
 443 2060 41534E31 		.string	"ASN1 - ASN1 tag was of an unexpected value"
 443      202D2041 
 443      534E3120 
 443      74616720 
 443      77617320 
 444 208b 00000000 		.align 8
 444      00
 445              	.LC150:
 446 2090 41534E31 		.string	"ASN1 - Error when trying to determine the length or invalid length"
 446      202D2045 
 446      72726F72 
 446      20776865 
 446      6E207472 
 447 20d3 00000000 		.align 8
 447      00
 448              	.LC151:
 449 20d8 41534E31 		.string	"ASN1 - Actual length differs from expected length"
 449      202D2041 
 449      63747561 
 449      6C206C65 
 449      6E677468 
 450 210a 00000000 		.align 8
 450      0000
 451              	.LC152:
 452 2110 41534E31 		.string	"ASN1 - Data is invalid. (not used)"
 452      202D2044 
 452      61746120 
 452      69732069 
 452      6E76616C 
 453 2133 00000000 		.align 8
 453      00
 454              	.LC153:
 455 2138 41534E31 		.string	"ASN1 - Memory allocation failed"
 455      202D204D 
 455      656D6F72 
 455      7920616C 
 455      6C6F6361 
 456              		.align 8
 457              	.LC154:
 458 2158 41534E31 		.string	"ASN1 - Buffer too small when writing ASN.1 data structure"
 458      202D2042 
 458      75666665 
 458      7220746F 
 458      6F20736D 
 459 2192 00000000 		.align 8
 459      0000
 460              	.LC155:
 461 2198 42415345 		.string	"BASE64 - Output buffer too small"
 461      3634202D 
 461      204F7574 
 461      70757420 
 461      62756666 
 462 21b9 00000000 		.align 8
 462      000000
GAS LISTING /tmp/ccWIaY8W.s 			page 21


 463              	.LC156:
 464 21c0 42415345 		.string	"BASE64 - Invalid character in input"
 464      3634202D 
 464      20496E76 
 464      616C6964 
 464      20636861 
 465 21e4 00000000 		.align 8
 466              	.LC157:
 467 21e8 4249474E 		.string	"BIGNUM - An error occurred while reading from or writing to a file"
 467      554D202D 
 467      20416E20 
 467      6572726F 
 467      72206F63 
 468 222b 00000000 		.align 8
 468      00
 469              	.LC158:
 470 2230 4249474E 		.string	"BIGNUM - Bad input parameters to function"
 470      554D202D 
 470      20426164 
 470      20696E70 
 470      75742070 
 471 225a 00000000 		.align 8
 471      0000
 472              	.LC159:
 473 2260 4249474E 		.string	"BIGNUM - There is an invalid character in the digit string"
 473      554D202D 
 473      20546865 
 473      72652069 
 473      7320616E 
 474 229b 00000000 		.align 8
 474      00
 475              	.LC160:
 476 22a0 4249474E 		.string	"BIGNUM - The buffer is too small to write to"
 476      554D202D 
 476      20546865 
 476      20627566 
 476      66657220 
 477 22cd 000000   		.align 8
 478              	.LC161:
 479 22d0 4249474E 		.string	"BIGNUM - The input arguments are negative or result in illegal output"
 479      554D202D 
 479      20546865 
 479      20696E70 
 479      75742061 
 480 2316 0000     		.align 8
 481              	.LC162:
 482 2318 4249474E 		.string	"BIGNUM - The input argument for division is zero, which is not allowed"
 482      554D202D 
 482      20546865 
 482      20696E70 
 482      75742061 
 483 235f 00       		.align 8
 484              	.LC163:
 485 2360 4249474E 		.string	"BIGNUM - The input arguments are not acceptable"
 485      554D202D 
 485      20546865 
 485      20696E70 
GAS LISTING /tmp/ccWIaY8W.s 			page 22


 485      75742061 
 486              		.align 8
 487              	.LC164:
 488 2390 4249474E 		.string	"BIGNUM - Memory allocation failed"
 488      554D202D 
 488      204D656D 
 488      6F727920 
 488      616C6C6F 
 489 23b2 00000000 		.align 8
 489      0000
 490              	.LC165:
 491 23b8 4354525F 		.string	"CTR_DRBG - The entropy source failed"
 491      44524247 
 491      202D2054 
 491      68652065 
 491      6E74726F 
 492 23dd 000000   		.align 8
 493              	.LC166:
 494 23e0 4354525F 		.string	"CTR_DRBG - The requested random buffer length is too big"
 494      44524247 
 494      202D2054 
 494      68652072 
 494      65717565 
 495 2419 00000000 		.align 8
 495      000000
 496              	.LC167:
 497 2420 4354525F 		.string	"CTR_DRBG - The input (entropy + additional data) is too large"
 497      44524247 
 497      202D2054 
 497      68652069 
 497      6E707574 
 498 245e 0000     		.align 8
 499              	.LC168:
 500 2460 4354525F 		.string	"CTR_DRBG - Read or write error in file"
 500      44524247 
 500      202D2052 
 500      65616420 
 500      6F722077 
 501 2487 00       		.align 8
 502              	.LC169:
 503 2488 454E5452 		.string	"ENTROPY - Critical entropy source failure"
 503      4F505920 
 503      2D204372 
 503      69746963 
 503      616C2065 
 504 24b2 00000000 		.align 8
 504      0000
 505              	.LC170:
 506 24b8 454E5452 		.string	"ENTROPY - No more sources can be added"
 506      4F505920 
 506      2D204E6F 
 506      206D6F72 
 506      6520736F 
 507 24df 00       		.align 8
 508              	.LC171:
 509 24e0 454E5452 		.string	"ENTROPY - No sources have been added to poll"
 509      4F505920 
GAS LISTING /tmp/ccWIaY8W.s 			page 23


 509      2D204E6F 
 509      20736F75 
 509      72636573 
 510 250d 000000   		.align 8
 511              	.LC172:
 512 2510 454E5452 		.string	"ENTROPY - No strong sources have been added to poll"
 512      4F505920 
 512      2D204E6F 
 512      20737472 
 512      6F6E6720 
 513 2544 00000000 		.align 8
 514              	.LC173:
 515 2548 454E5452 		.string	"ENTROPY - Read/write error in file"
 515      4F505920 
 515      2D205265 
 515      61642F77 
 515      72697465 
 516 256b 00000000 		.align 8
 516      00
 517              	.LC174:
 518 2570 47434D20 		.string	"GCM - Authenticated decryption failed"
 518      2D204175 
 518      7468656E 
 518      74696361 
 518      74656420 
 519 2596 0000     		.align 8
 520              	.LC175:
 521 2598 47434D20 		.string	"GCM - GCM hardware accelerator failed"
 521      2D204743 
 521      4D206861 
 521      72647761 
 521      72652061 
 522 25be 0000     		.align 8
 523              	.LC176:
 524 25c0 47434D20 		.string	"GCM - Bad input parameters to function"
 524      2D204261 
 524      6420696E 
 524      70757420 
 524      70617261 
 525              	.LC177:
 526 25e7 4F494420 		.string	"OID - OID is not found"
 526      2D204F49 
 526      44206973 
 526      206E6F74 
 526      20666F75 
 527 25fe 0000     		.align 8
 528              	.LC178:
 529 2600 4F494420 		.string	"OID - output buffer is too small"
 529      2D206F75 
 529      74707574 
 529      20627566 
 529      66657220 
 530 2621 00000000 		.align 8
 530      000000
 531              	.LC179:
 532 2628 504C4154 		.string	"PLATFORM - Hardware accelerator failed"
 532      464F524D 
GAS LISTING /tmp/ccWIaY8W.s 			page 24


 532      202D2048 
 532      61726477 
 532      61726520 
 533 264f 00       		.align 8
 534              	.LC180:
 535 2650 504C4154 		.string	"PLATFORM - The requested feature is not supported by the platform"
 535      464F524D 
 535      202D2054 
 535      68652072 
 535      65717565 
 536 2692 00000000 		.align 8
 536      0000
 537              	.LC181:
 538 2698 53484131 		.string	"SHA1 - SHA-1 hardware accelerator failed"
 538      202D2053 
 538      48412D31 
 538      20686172 
 538      64776172 
 539 26c1 00000000 		.align 8
 539      000000
 540              	.LC182:
 541 26c8 53484131 		.string	"SHA1 - SHA-1 input data was malformed"
 541      202D2053 
 541      48412D31 
 541      20696E70 
 541      75742064 
 542 26ee 0000     		.align 8
 543              	.LC183:
 544 26f0 53484132 		.string	"SHA256 - SHA-256 hardware accelerator failed"
 544      3536202D 
 544      20534841 
 544      2D323536 
 544      20686172 
 545 271d 000000   		.align 8
 546              	.LC184:
 547 2720 53484132 		.string	"SHA256 - SHA-256 input data was malformed"
 547      3536202D 
 547      20534841 
 547      2D323536 
 547      20696E70 
 548              		.section	.text.mbedtls_strerror,"ax",@progbits
 549              		.globl	mbedtls_strerror
 551              	mbedtls_strerror:
 552              	.LFB21:
 553              		.file 1 "/home/xingli/share/LiteOS_Lab/network/dtls/mbedtls/mbedtls-2.16.2/library/error.c"
   1:/home/xingli/share/LiteOS_Lab/network/dtls/mbedtls/mbedtls-2.16.2/library/error.c **** /*
   2:/home/xingli/share/LiteOS_Lab/network/dtls/mbedtls/mbedtls-2.16.2/library/error.c ****  *  Error message information
   3:/home/xingli/share/LiteOS_Lab/network/dtls/mbedtls/mbedtls-2.16.2/library/error.c ****  *
   4:/home/xingli/share/LiteOS_Lab/network/dtls/mbedtls/mbedtls-2.16.2/library/error.c ****  *  Copyright (C) 2006-2015, ARM Limited, All Rights Reserved
   5:/home/xingli/share/LiteOS_Lab/network/dtls/mbedtls/mbedtls-2.16.2/library/error.c ****  *  SPDX-License-Identifier: Apache-2.0
   6:/home/xingli/share/LiteOS_Lab/network/dtls/mbedtls/mbedtls-2.16.2/library/error.c ****  *
   7:/home/xingli/share/LiteOS_Lab/network/dtls/mbedtls/mbedtls-2.16.2/library/error.c ****  *  Licensed under the Apache License, Version 2.0 (the "License"); you may
   8:/home/xingli/share/LiteOS_Lab/network/dtls/mbedtls/mbedtls-2.16.2/library/error.c ****  *  not use this file except in compliance with the License.
   9:/home/xingli/share/LiteOS_Lab/network/dtls/mbedtls/mbedtls-2.16.2/library/error.c ****  *  You may obtain a copy of the License at
  10:/home/xingli/share/LiteOS_Lab/network/dtls/mbedtls/mbedtls-2.16.2/library/error.c ****  *
  11:/home/xingli/share/LiteOS_Lab/network/dtls/mbedtls/mbedtls-2.16.2/library/error.c ****  *  http://www.apache.org/licenses/LICENSE-2.0
  12:/home/xingli/share/LiteOS_Lab/network/dtls/mbedtls/mbedtls-2.16.2/library/error.c ****  *
GAS LISTING /tmp/ccWIaY8W.s 			page 25


  13:/home/xingli/share/LiteOS_Lab/network/dtls/mbedtls/mbedtls-2.16.2/library/error.c ****  *  Unless required by applicable law or agreed to in writing, software
  14:/home/xingli/share/LiteOS_Lab/network/dtls/mbedtls/mbedtls-2.16.2/library/error.c ****  *  distributed under the License is distributed on an "AS IS" BASIS, WITHOUT
  15:/home/xingli/share/LiteOS_Lab/network/dtls/mbedtls/mbedtls-2.16.2/library/error.c ****  *  WARRANTIES OR CONDITIONS OF ANY KIND, either express or implied.
  16:/home/xingli/share/LiteOS_Lab/network/dtls/mbedtls/mbedtls-2.16.2/library/error.c ****  *  See the License for the specific language governing permissions and
  17:/home/xingli/share/LiteOS_Lab/network/dtls/mbedtls/mbedtls-2.16.2/library/error.c ****  *  limitations under the License.
  18:/home/xingli/share/LiteOS_Lab/network/dtls/mbedtls/mbedtls-2.16.2/library/error.c ****  *
  19:/home/xingli/share/LiteOS_Lab/network/dtls/mbedtls/mbedtls-2.16.2/library/error.c ****  *  This file is part of mbed TLS (https://tls.mbed.org)
  20:/home/xingli/share/LiteOS_Lab/network/dtls/mbedtls/mbedtls-2.16.2/library/error.c ****  */
  21:/home/xingli/share/LiteOS_Lab/network/dtls/mbedtls/mbedtls-2.16.2/library/error.c **** 
  22:/home/xingli/share/LiteOS_Lab/network/dtls/mbedtls/mbedtls-2.16.2/library/error.c **** #if !defined(MBEDTLS_CONFIG_FILE)
  23:/home/xingli/share/LiteOS_Lab/network/dtls/mbedtls/mbedtls-2.16.2/library/error.c **** #include "mbedtls/config.h"
  24:/home/xingli/share/LiteOS_Lab/network/dtls/mbedtls/mbedtls-2.16.2/library/error.c **** #else
  25:/home/xingli/share/LiteOS_Lab/network/dtls/mbedtls/mbedtls-2.16.2/library/error.c **** #include MBEDTLS_CONFIG_FILE
  26:/home/xingli/share/LiteOS_Lab/network/dtls/mbedtls/mbedtls-2.16.2/library/error.c **** #endif
  27:/home/xingli/share/LiteOS_Lab/network/dtls/mbedtls/mbedtls-2.16.2/library/error.c **** 
  28:/home/xingli/share/LiteOS_Lab/network/dtls/mbedtls/mbedtls-2.16.2/library/error.c **** #if defined(MBEDTLS_ERROR_C) || defined(MBEDTLS_ERROR_STRERROR_DUMMY)
  29:/home/xingli/share/LiteOS_Lab/network/dtls/mbedtls/mbedtls-2.16.2/library/error.c **** #include "mbedtls/error.h"
  30:/home/xingli/share/LiteOS_Lab/network/dtls/mbedtls/mbedtls-2.16.2/library/error.c **** #include <string.h>
  31:/home/xingli/share/LiteOS_Lab/network/dtls/mbedtls/mbedtls-2.16.2/library/error.c **** #endif
  32:/home/xingli/share/LiteOS_Lab/network/dtls/mbedtls/mbedtls-2.16.2/library/error.c **** 
  33:/home/xingli/share/LiteOS_Lab/network/dtls/mbedtls/mbedtls-2.16.2/library/error.c **** #if defined(MBEDTLS_PLATFORM_C)
  34:/home/xingli/share/LiteOS_Lab/network/dtls/mbedtls/mbedtls-2.16.2/library/error.c **** #include "mbedtls/platform.h"
  35:/home/xingli/share/LiteOS_Lab/network/dtls/mbedtls/mbedtls-2.16.2/library/error.c **** #else
  36:/home/xingli/share/LiteOS_Lab/network/dtls/mbedtls/mbedtls-2.16.2/library/error.c **** #define mbedtls_snprintf snprintf
  37:/home/xingli/share/LiteOS_Lab/network/dtls/mbedtls/mbedtls-2.16.2/library/error.c **** #define mbedtls_time_t   time_t
  38:/home/xingli/share/LiteOS_Lab/network/dtls/mbedtls/mbedtls-2.16.2/library/error.c **** #endif
  39:/home/xingli/share/LiteOS_Lab/network/dtls/mbedtls/mbedtls-2.16.2/library/error.c **** 
  40:/home/xingli/share/LiteOS_Lab/network/dtls/mbedtls/mbedtls-2.16.2/library/error.c **** #if defined(MBEDTLS_ERROR_C)
  41:/home/xingli/share/LiteOS_Lab/network/dtls/mbedtls/mbedtls-2.16.2/library/error.c **** 
  42:/home/xingli/share/LiteOS_Lab/network/dtls/mbedtls/mbedtls-2.16.2/library/error.c **** #include <stdio.h>
  43:/home/xingli/share/LiteOS_Lab/network/dtls/mbedtls/mbedtls-2.16.2/library/error.c **** 
  44:/home/xingli/share/LiteOS_Lab/network/dtls/mbedtls/mbedtls-2.16.2/library/error.c **** #if defined(MBEDTLS_AES_C)
  45:/home/xingli/share/LiteOS_Lab/network/dtls/mbedtls/mbedtls-2.16.2/library/error.c **** #include "mbedtls/aes.h"
  46:/home/xingli/share/LiteOS_Lab/network/dtls/mbedtls/mbedtls-2.16.2/library/error.c **** #endif
  47:/home/xingli/share/LiteOS_Lab/network/dtls/mbedtls/mbedtls-2.16.2/library/error.c **** 
  48:/home/xingli/share/LiteOS_Lab/network/dtls/mbedtls/mbedtls-2.16.2/library/error.c **** #if defined(MBEDTLS_ARC4_C)
  49:/home/xingli/share/LiteOS_Lab/network/dtls/mbedtls/mbedtls-2.16.2/library/error.c **** #include "mbedtls/arc4.h"
  50:/home/xingli/share/LiteOS_Lab/network/dtls/mbedtls/mbedtls-2.16.2/library/error.c **** #endif
  51:/home/xingli/share/LiteOS_Lab/network/dtls/mbedtls/mbedtls-2.16.2/library/error.c **** 
  52:/home/xingli/share/LiteOS_Lab/network/dtls/mbedtls/mbedtls-2.16.2/library/error.c **** #if defined(MBEDTLS_ARIA_C)
  53:/home/xingli/share/LiteOS_Lab/network/dtls/mbedtls/mbedtls-2.16.2/library/error.c **** #include "mbedtls/aria.h"
  54:/home/xingli/share/LiteOS_Lab/network/dtls/mbedtls/mbedtls-2.16.2/library/error.c **** #endif
  55:/home/xingli/share/LiteOS_Lab/network/dtls/mbedtls/mbedtls-2.16.2/library/error.c **** 
  56:/home/xingli/share/LiteOS_Lab/network/dtls/mbedtls/mbedtls-2.16.2/library/error.c **** #if defined(MBEDTLS_BASE64_C)
  57:/home/xingli/share/LiteOS_Lab/network/dtls/mbedtls/mbedtls-2.16.2/library/error.c **** #include "mbedtls/base64.h"
  58:/home/xingli/share/LiteOS_Lab/network/dtls/mbedtls/mbedtls-2.16.2/library/error.c **** #endif
  59:/home/xingli/share/LiteOS_Lab/network/dtls/mbedtls/mbedtls-2.16.2/library/error.c **** 
  60:/home/xingli/share/LiteOS_Lab/network/dtls/mbedtls/mbedtls-2.16.2/library/error.c **** #if defined(MBEDTLS_BIGNUM_C)
  61:/home/xingli/share/LiteOS_Lab/network/dtls/mbedtls/mbedtls-2.16.2/library/error.c **** #include "mbedtls/bignum.h"
  62:/home/xingli/share/LiteOS_Lab/network/dtls/mbedtls/mbedtls-2.16.2/library/error.c **** #endif
  63:/home/xingli/share/LiteOS_Lab/network/dtls/mbedtls/mbedtls-2.16.2/library/error.c **** 
  64:/home/xingli/share/LiteOS_Lab/network/dtls/mbedtls/mbedtls-2.16.2/library/error.c **** #if defined(MBEDTLS_BLOWFISH_C)
  65:/home/xingli/share/LiteOS_Lab/network/dtls/mbedtls/mbedtls-2.16.2/library/error.c **** #include "mbedtls/blowfish.h"
  66:/home/xingli/share/LiteOS_Lab/network/dtls/mbedtls/mbedtls-2.16.2/library/error.c **** #endif
  67:/home/xingli/share/LiteOS_Lab/network/dtls/mbedtls/mbedtls-2.16.2/library/error.c **** 
  68:/home/xingli/share/LiteOS_Lab/network/dtls/mbedtls/mbedtls-2.16.2/library/error.c **** #if defined(MBEDTLS_CAMELLIA_C)
  69:/home/xingli/share/LiteOS_Lab/network/dtls/mbedtls/mbedtls-2.16.2/library/error.c **** #include "mbedtls/camellia.h"
GAS LISTING /tmp/ccWIaY8W.s 			page 26


  70:/home/xingli/share/LiteOS_Lab/network/dtls/mbedtls/mbedtls-2.16.2/library/error.c **** #endif
  71:/home/xingli/share/LiteOS_Lab/network/dtls/mbedtls/mbedtls-2.16.2/library/error.c **** 
  72:/home/xingli/share/LiteOS_Lab/network/dtls/mbedtls/mbedtls-2.16.2/library/error.c **** #if defined(MBEDTLS_CCM_C)
  73:/home/xingli/share/LiteOS_Lab/network/dtls/mbedtls/mbedtls-2.16.2/library/error.c **** #include "mbedtls/ccm.h"
  74:/home/xingli/share/LiteOS_Lab/network/dtls/mbedtls/mbedtls-2.16.2/library/error.c **** #endif
  75:/home/xingli/share/LiteOS_Lab/network/dtls/mbedtls/mbedtls-2.16.2/library/error.c **** 
  76:/home/xingli/share/LiteOS_Lab/network/dtls/mbedtls/mbedtls-2.16.2/library/error.c **** #if defined(MBEDTLS_CHACHA20_C)
  77:/home/xingli/share/LiteOS_Lab/network/dtls/mbedtls/mbedtls-2.16.2/library/error.c **** #include "mbedtls/chacha20.h"
  78:/home/xingli/share/LiteOS_Lab/network/dtls/mbedtls/mbedtls-2.16.2/library/error.c **** #endif
  79:/home/xingli/share/LiteOS_Lab/network/dtls/mbedtls/mbedtls-2.16.2/library/error.c **** 
  80:/home/xingli/share/LiteOS_Lab/network/dtls/mbedtls/mbedtls-2.16.2/library/error.c **** #if defined(MBEDTLS_CHACHAPOLY_C)
  81:/home/xingli/share/LiteOS_Lab/network/dtls/mbedtls/mbedtls-2.16.2/library/error.c **** #include "mbedtls/chachapoly.h"
  82:/home/xingli/share/LiteOS_Lab/network/dtls/mbedtls/mbedtls-2.16.2/library/error.c **** #endif
  83:/home/xingli/share/LiteOS_Lab/network/dtls/mbedtls/mbedtls-2.16.2/library/error.c **** 
  84:/home/xingli/share/LiteOS_Lab/network/dtls/mbedtls/mbedtls-2.16.2/library/error.c **** #if defined(MBEDTLS_CIPHER_C)
  85:/home/xingli/share/LiteOS_Lab/network/dtls/mbedtls/mbedtls-2.16.2/library/error.c **** #include "mbedtls/cipher.h"
  86:/home/xingli/share/LiteOS_Lab/network/dtls/mbedtls/mbedtls-2.16.2/library/error.c **** #endif
  87:/home/xingli/share/LiteOS_Lab/network/dtls/mbedtls/mbedtls-2.16.2/library/error.c **** 
  88:/home/xingli/share/LiteOS_Lab/network/dtls/mbedtls/mbedtls-2.16.2/library/error.c **** #if defined(MBEDTLS_CMAC_C)
  89:/home/xingli/share/LiteOS_Lab/network/dtls/mbedtls/mbedtls-2.16.2/library/error.c **** #include "mbedtls/cmac.h"
  90:/home/xingli/share/LiteOS_Lab/network/dtls/mbedtls/mbedtls-2.16.2/library/error.c **** #endif
  91:/home/xingli/share/LiteOS_Lab/network/dtls/mbedtls/mbedtls-2.16.2/library/error.c **** 
  92:/home/xingli/share/LiteOS_Lab/network/dtls/mbedtls/mbedtls-2.16.2/library/error.c **** #if defined(MBEDTLS_CTR_DRBG_C)
  93:/home/xingli/share/LiteOS_Lab/network/dtls/mbedtls/mbedtls-2.16.2/library/error.c **** #include "mbedtls/ctr_drbg.h"
  94:/home/xingli/share/LiteOS_Lab/network/dtls/mbedtls/mbedtls-2.16.2/library/error.c **** #endif
  95:/home/xingli/share/LiteOS_Lab/network/dtls/mbedtls/mbedtls-2.16.2/library/error.c **** 
  96:/home/xingli/share/LiteOS_Lab/network/dtls/mbedtls/mbedtls-2.16.2/library/error.c **** #if defined(MBEDTLS_DES_C)
  97:/home/xingli/share/LiteOS_Lab/network/dtls/mbedtls/mbedtls-2.16.2/library/error.c **** #include "mbedtls/des.h"
  98:/home/xingli/share/LiteOS_Lab/network/dtls/mbedtls/mbedtls-2.16.2/library/error.c **** #endif
  99:/home/xingli/share/LiteOS_Lab/network/dtls/mbedtls/mbedtls-2.16.2/library/error.c **** 
 100:/home/xingli/share/LiteOS_Lab/network/dtls/mbedtls/mbedtls-2.16.2/library/error.c **** #if defined(MBEDTLS_DHM_C)
 101:/home/xingli/share/LiteOS_Lab/network/dtls/mbedtls/mbedtls-2.16.2/library/error.c **** #include "mbedtls/dhm.h"
 102:/home/xingli/share/LiteOS_Lab/network/dtls/mbedtls/mbedtls-2.16.2/library/error.c **** #endif
 103:/home/xingli/share/LiteOS_Lab/network/dtls/mbedtls/mbedtls-2.16.2/library/error.c **** 
 104:/home/xingli/share/LiteOS_Lab/network/dtls/mbedtls/mbedtls-2.16.2/library/error.c **** #if defined(MBEDTLS_ECP_C)
 105:/home/xingli/share/LiteOS_Lab/network/dtls/mbedtls/mbedtls-2.16.2/library/error.c **** #include "mbedtls/ecp.h"
 106:/home/xingli/share/LiteOS_Lab/network/dtls/mbedtls/mbedtls-2.16.2/library/error.c **** #endif
 107:/home/xingli/share/LiteOS_Lab/network/dtls/mbedtls/mbedtls-2.16.2/library/error.c **** 
 108:/home/xingli/share/LiteOS_Lab/network/dtls/mbedtls/mbedtls-2.16.2/library/error.c **** #if defined(MBEDTLS_ENTROPY_C)
 109:/home/xingli/share/LiteOS_Lab/network/dtls/mbedtls/mbedtls-2.16.2/library/error.c **** #include "mbedtls/entropy.h"
 110:/home/xingli/share/LiteOS_Lab/network/dtls/mbedtls/mbedtls-2.16.2/library/error.c **** #endif
 111:/home/xingli/share/LiteOS_Lab/network/dtls/mbedtls/mbedtls-2.16.2/library/error.c **** 
 112:/home/xingli/share/LiteOS_Lab/network/dtls/mbedtls/mbedtls-2.16.2/library/error.c **** #if defined(MBEDTLS_GCM_C)
 113:/home/xingli/share/LiteOS_Lab/network/dtls/mbedtls/mbedtls-2.16.2/library/error.c **** #include "mbedtls/gcm.h"
 114:/home/xingli/share/LiteOS_Lab/network/dtls/mbedtls/mbedtls-2.16.2/library/error.c **** #endif
 115:/home/xingli/share/LiteOS_Lab/network/dtls/mbedtls/mbedtls-2.16.2/library/error.c **** 
 116:/home/xingli/share/LiteOS_Lab/network/dtls/mbedtls/mbedtls-2.16.2/library/error.c **** #if defined(MBEDTLS_HKDF_C)
 117:/home/xingli/share/LiteOS_Lab/network/dtls/mbedtls/mbedtls-2.16.2/library/error.c **** #include "mbedtls/hkdf.h"
 118:/home/xingli/share/LiteOS_Lab/network/dtls/mbedtls/mbedtls-2.16.2/library/error.c **** #endif
 119:/home/xingli/share/LiteOS_Lab/network/dtls/mbedtls/mbedtls-2.16.2/library/error.c **** 
 120:/home/xingli/share/LiteOS_Lab/network/dtls/mbedtls/mbedtls-2.16.2/library/error.c **** #if defined(MBEDTLS_HMAC_DRBG_C)
 121:/home/xingli/share/LiteOS_Lab/network/dtls/mbedtls/mbedtls-2.16.2/library/error.c **** #include "mbedtls/hmac_drbg.h"
 122:/home/xingli/share/LiteOS_Lab/network/dtls/mbedtls/mbedtls-2.16.2/library/error.c **** #endif
 123:/home/xingli/share/LiteOS_Lab/network/dtls/mbedtls/mbedtls-2.16.2/library/error.c **** 
 124:/home/xingli/share/LiteOS_Lab/network/dtls/mbedtls/mbedtls-2.16.2/library/error.c **** #if defined(MBEDTLS_MD_C)
 125:/home/xingli/share/LiteOS_Lab/network/dtls/mbedtls/mbedtls-2.16.2/library/error.c **** #include "mbedtls/md.h"
 126:/home/xingli/share/LiteOS_Lab/network/dtls/mbedtls/mbedtls-2.16.2/library/error.c **** #endif
GAS LISTING /tmp/ccWIaY8W.s 			page 27


 127:/home/xingli/share/LiteOS_Lab/network/dtls/mbedtls/mbedtls-2.16.2/library/error.c **** 
 128:/home/xingli/share/LiteOS_Lab/network/dtls/mbedtls/mbedtls-2.16.2/library/error.c **** #if defined(MBEDTLS_MD2_C)
 129:/home/xingli/share/LiteOS_Lab/network/dtls/mbedtls/mbedtls-2.16.2/library/error.c **** #include "mbedtls/md2.h"
 130:/home/xingli/share/LiteOS_Lab/network/dtls/mbedtls/mbedtls-2.16.2/library/error.c **** #endif
 131:/home/xingli/share/LiteOS_Lab/network/dtls/mbedtls/mbedtls-2.16.2/library/error.c **** 
 132:/home/xingli/share/LiteOS_Lab/network/dtls/mbedtls/mbedtls-2.16.2/library/error.c **** #if defined(MBEDTLS_MD4_C)
 133:/home/xingli/share/LiteOS_Lab/network/dtls/mbedtls/mbedtls-2.16.2/library/error.c **** #include "mbedtls/md4.h"
 134:/home/xingli/share/LiteOS_Lab/network/dtls/mbedtls/mbedtls-2.16.2/library/error.c **** #endif
 135:/home/xingli/share/LiteOS_Lab/network/dtls/mbedtls/mbedtls-2.16.2/library/error.c **** 
 136:/home/xingli/share/LiteOS_Lab/network/dtls/mbedtls/mbedtls-2.16.2/library/error.c **** #if defined(MBEDTLS_MD5_C)
 137:/home/xingli/share/LiteOS_Lab/network/dtls/mbedtls/mbedtls-2.16.2/library/error.c **** #include "mbedtls/md5.h"
 138:/home/xingli/share/LiteOS_Lab/network/dtls/mbedtls/mbedtls-2.16.2/library/error.c **** #endif
 139:/home/xingli/share/LiteOS_Lab/network/dtls/mbedtls/mbedtls-2.16.2/library/error.c **** 
 140:/home/xingli/share/LiteOS_Lab/network/dtls/mbedtls/mbedtls-2.16.2/library/error.c **** #if defined(MBEDTLS_NET_C)
 141:/home/xingli/share/LiteOS_Lab/network/dtls/mbedtls/mbedtls-2.16.2/library/error.c **** #include "mbedtls/net_sockets.h"
 142:/home/xingli/share/LiteOS_Lab/network/dtls/mbedtls/mbedtls-2.16.2/library/error.c **** #endif
 143:/home/xingli/share/LiteOS_Lab/network/dtls/mbedtls/mbedtls-2.16.2/library/error.c **** 
 144:/home/xingli/share/LiteOS_Lab/network/dtls/mbedtls/mbedtls-2.16.2/library/error.c **** #if defined(MBEDTLS_OID_C)
 145:/home/xingli/share/LiteOS_Lab/network/dtls/mbedtls/mbedtls-2.16.2/library/error.c **** #include "mbedtls/oid.h"
 146:/home/xingli/share/LiteOS_Lab/network/dtls/mbedtls/mbedtls-2.16.2/library/error.c **** #endif
 147:/home/xingli/share/LiteOS_Lab/network/dtls/mbedtls/mbedtls-2.16.2/library/error.c **** 
 148:/home/xingli/share/LiteOS_Lab/network/dtls/mbedtls/mbedtls-2.16.2/library/error.c **** #if defined(MBEDTLS_PADLOCK_C)
 149:/home/xingli/share/LiteOS_Lab/network/dtls/mbedtls/mbedtls-2.16.2/library/error.c **** #include "mbedtls/padlock.h"
 150:/home/xingli/share/LiteOS_Lab/network/dtls/mbedtls/mbedtls-2.16.2/library/error.c **** #endif
 151:/home/xingli/share/LiteOS_Lab/network/dtls/mbedtls/mbedtls-2.16.2/library/error.c **** 
 152:/home/xingli/share/LiteOS_Lab/network/dtls/mbedtls/mbedtls-2.16.2/library/error.c **** #if defined(MBEDTLS_PEM_PARSE_C) || defined(MBEDTLS_PEM_WRITE_C)
 153:/home/xingli/share/LiteOS_Lab/network/dtls/mbedtls/mbedtls-2.16.2/library/error.c **** #include "mbedtls/pem.h"
 154:/home/xingli/share/LiteOS_Lab/network/dtls/mbedtls/mbedtls-2.16.2/library/error.c **** #endif
 155:/home/xingli/share/LiteOS_Lab/network/dtls/mbedtls/mbedtls-2.16.2/library/error.c **** 
 156:/home/xingli/share/LiteOS_Lab/network/dtls/mbedtls/mbedtls-2.16.2/library/error.c **** #if defined(MBEDTLS_PK_C)
 157:/home/xingli/share/LiteOS_Lab/network/dtls/mbedtls/mbedtls-2.16.2/library/error.c **** #include "mbedtls/pk.h"
 158:/home/xingli/share/LiteOS_Lab/network/dtls/mbedtls/mbedtls-2.16.2/library/error.c **** #endif
 159:/home/xingli/share/LiteOS_Lab/network/dtls/mbedtls/mbedtls-2.16.2/library/error.c **** 
 160:/home/xingli/share/LiteOS_Lab/network/dtls/mbedtls/mbedtls-2.16.2/library/error.c **** #if defined(MBEDTLS_PKCS12_C)
 161:/home/xingli/share/LiteOS_Lab/network/dtls/mbedtls/mbedtls-2.16.2/library/error.c **** #include "mbedtls/pkcs12.h"
 162:/home/xingli/share/LiteOS_Lab/network/dtls/mbedtls/mbedtls-2.16.2/library/error.c **** #endif
 163:/home/xingli/share/LiteOS_Lab/network/dtls/mbedtls/mbedtls-2.16.2/library/error.c **** 
 164:/home/xingli/share/LiteOS_Lab/network/dtls/mbedtls/mbedtls-2.16.2/library/error.c **** #if defined(MBEDTLS_PKCS5_C)
 165:/home/xingli/share/LiteOS_Lab/network/dtls/mbedtls/mbedtls-2.16.2/library/error.c **** #include "mbedtls/pkcs5.h"
 166:/home/xingli/share/LiteOS_Lab/network/dtls/mbedtls/mbedtls-2.16.2/library/error.c **** #endif
 167:/home/xingli/share/LiteOS_Lab/network/dtls/mbedtls/mbedtls-2.16.2/library/error.c **** 
 168:/home/xingli/share/LiteOS_Lab/network/dtls/mbedtls/mbedtls-2.16.2/library/error.c **** #if defined(MBEDTLS_PLATFORM_C)
 169:/home/xingli/share/LiteOS_Lab/network/dtls/mbedtls/mbedtls-2.16.2/library/error.c **** #include "mbedtls/platform.h"
 170:/home/xingli/share/LiteOS_Lab/network/dtls/mbedtls/mbedtls-2.16.2/library/error.c **** #endif
 171:/home/xingli/share/LiteOS_Lab/network/dtls/mbedtls/mbedtls-2.16.2/library/error.c **** 
 172:/home/xingli/share/LiteOS_Lab/network/dtls/mbedtls/mbedtls-2.16.2/library/error.c **** #if defined(MBEDTLS_POLY1305_C)
 173:/home/xingli/share/LiteOS_Lab/network/dtls/mbedtls/mbedtls-2.16.2/library/error.c **** #include "mbedtls/poly1305.h"
 174:/home/xingli/share/LiteOS_Lab/network/dtls/mbedtls/mbedtls-2.16.2/library/error.c **** #endif
 175:/home/xingli/share/LiteOS_Lab/network/dtls/mbedtls/mbedtls-2.16.2/library/error.c **** 
 176:/home/xingli/share/LiteOS_Lab/network/dtls/mbedtls/mbedtls-2.16.2/library/error.c **** #if defined(MBEDTLS_RIPEMD160_C)
 177:/home/xingli/share/LiteOS_Lab/network/dtls/mbedtls/mbedtls-2.16.2/library/error.c **** #include "mbedtls/ripemd160.h"
 178:/home/xingli/share/LiteOS_Lab/network/dtls/mbedtls/mbedtls-2.16.2/library/error.c **** #endif
 179:/home/xingli/share/LiteOS_Lab/network/dtls/mbedtls/mbedtls-2.16.2/library/error.c **** 
 180:/home/xingli/share/LiteOS_Lab/network/dtls/mbedtls/mbedtls-2.16.2/library/error.c **** #if defined(MBEDTLS_RSA_C)
 181:/home/xingli/share/LiteOS_Lab/network/dtls/mbedtls/mbedtls-2.16.2/library/error.c **** #include "mbedtls/rsa.h"
 182:/home/xingli/share/LiteOS_Lab/network/dtls/mbedtls/mbedtls-2.16.2/library/error.c **** #endif
 183:/home/xingli/share/LiteOS_Lab/network/dtls/mbedtls/mbedtls-2.16.2/library/error.c **** 
GAS LISTING /tmp/ccWIaY8W.s 			page 28


 184:/home/xingli/share/LiteOS_Lab/network/dtls/mbedtls/mbedtls-2.16.2/library/error.c **** #if defined(MBEDTLS_SHA1_C)
 185:/home/xingli/share/LiteOS_Lab/network/dtls/mbedtls/mbedtls-2.16.2/library/error.c **** #include "mbedtls/sha1.h"
 186:/home/xingli/share/LiteOS_Lab/network/dtls/mbedtls/mbedtls-2.16.2/library/error.c **** #endif
 187:/home/xingli/share/LiteOS_Lab/network/dtls/mbedtls/mbedtls-2.16.2/library/error.c **** 
 188:/home/xingli/share/LiteOS_Lab/network/dtls/mbedtls/mbedtls-2.16.2/library/error.c **** #if defined(MBEDTLS_SHA256_C)
 189:/home/xingli/share/LiteOS_Lab/network/dtls/mbedtls/mbedtls-2.16.2/library/error.c **** #include "mbedtls/sha256.h"
 190:/home/xingli/share/LiteOS_Lab/network/dtls/mbedtls/mbedtls-2.16.2/library/error.c **** #endif
 191:/home/xingli/share/LiteOS_Lab/network/dtls/mbedtls/mbedtls-2.16.2/library/error.c **** 
 192:/home/xingli/share/LiteOS_Lab/network/dtls/mbedtls/mbedtls-2.16.2/library/error.c **** #if defined(MBEDTLS_SHA512_C)
 193:/home/xingli/share/LiteOS_Lab/network/dtls/mbedtls/mbedtls-2.16.2/library/error.c **** #include "mbedtls/sha512.h"
 194:/home/xingli/share/LiteOS_Lab/network/dtls/mbedtls/mbedtls-2.16.2/library/error.c **** #endif
 195:/home/xingli/share/LiteOS_Lab/network/dtls/mbedtls/mbedtls-2.16.2/library/error.c **** 
 196:/home/xingli/share/LiteOS_Lab/network/dtls/mbedtls/mbedtls-2.16.2/library/error.c **** #if defined(MBEDTLS_SSL_TLS_C)
 197:/home/xingli/share/LiteOS_Lab/network/dtls/mbedtls/mbedtls-2.16.2/library/error.c **** #include "mbedtls/ssl.h"
 198:/home/xingli/share/LiteOS_Lab/network/dtls/mbedtls/mbedtls-2.16.2/library/error.c **** #endif
 199:/home/xingli/share/LiteOS_Lab/network/dtls/mbedtls/mbedtls-2.16.2/library/error.c **** 
 200:/home/xingli/share/LiteOS_Lab/network/dtls/mbedtls/mbedtls-2.16.2/library/error.c **** #if defined(MBEDTLS_THREADING_C)
 201:/home/xingli/share/LiteOS_Lab/network/dtls/mbedtls/mbedtls-2.16.2/library/error.c **** #include "mbedtls/threading.h"
 202:/home/xingli/share/LiteOS_Lab/network/dtls/mbedtls/mbedtls-2.16.2/library/error.c **** #endif
 203:/home/xingli/share/LiteOS_Lab/network/dtls/mbedtls/mbedtls-2.16.2/library/error.c **** 
 204:/home/xingli/share/LiteOS_Lab/network/dtls/mbedtls/mbedtls-2.16.2/library/error.c **** #if defined(MBEDTLS_X509_USE_C) || defined(MBEDTLS_X509_CREATE_C)
 205:/home/xingli/share/LiteOS_Lab/network/dtls/mbedtls/mbedtls-2.16.2/library/error.c **** #include "mbedtls/x509.h"
 206:/home/xingli/share/LiteOS_Lab/network/dtls/mbedtls/mbedtls-2.16.2/library/error.c **** #endif
 207:/home/xingli/share/LiteOS_Lab/network/dtls/mbedtls/mbedtls-2.16.2/library/error.c **** 
 208:/home/xingli/share/LiteOS_Lab/network/dtls/mbedtls/mbedtls-2.16.2/library/error.c **** #if defined(MBEDTLS_XTEA_C)
 209:/home/xingli/share/LiteOS_Lab/network/dtls/mbedtls/mbedtls-2.16.2/library/error.c **** #include "mbedtls/xtea.h"
 210:/home/xingli/share/LiteOS_Lab/network/dtls/mbedtls/mbedtls-2.16.2/library/error.c **** #endif
 211:/home/xingli/share/LiteOS_Lab/network/dtls/mbedtls/mbedtls-2.16.2/library/error.c **** 
 212:/home/xingli/share/LiteOS_Lab/network/dtls/mbedtls/mbedtls-2.16.2/library/error.c **** 
 213:/home/xingli/share/LiteOS_Lab/network/dtls/mbedtls/mbedtls-2.16.2/library/error.c **** void mbedtls_strerror( int ret, char *buf, size_t buflen )
 214:/home/xingli/share/LiteOS_Lab/network/dtls/mbedtls/mbedtls-2.16.2/library/error.c **** {
 554              		.loc 1 214 1
 555              		.cfi_startproc
 556 0000 F30F1EFA 		endbr64
 557 0004 55       		pushq	%rbp
 558              	.LCFI0:
 559              		.cfi_def_cfa_offset 16
 560              		.cfi_offset 6, -16
 561 0005 4889E5   		movq	%rsp, %rbp
 562              	.LCFI1:
 563              		.cfi_def_cfa_register 6
 564 0008 4883EC40 		subq	$64, %rsp
 565 000c 897DDC   		movl	%edi, -36(%rbp)
 566 000f 488975D0 		movq	%rsi, -48(%rbp)
 567 0013 488955C8 		movq	%rdx, -56(%rbp)
 568              		.loc 1 214 1
 569 0017 64488B04 		movq	%fs:40, %rax
 569      25280000 
 569      00
 570 0020 488945F8 		movq	%rax, -8(%rbp)
 571 0024 31C0     		xorl	%eax, %eax
 215:/home/xingli/share/LiteOS_Lab/network/dtls/mbedtls/mbedtls-2.16.2/library/error.c ****     size_t len;
 216:/home/xingli/share/LiteOS_Lab/network/dtls/mbedtls/mbedtls-2.16.2/library/error.c ****     int use_ret;
 217:/home/xingli/share/LiteOS_Lab/network/dtls/mbedtls/mbedtls-2.16.2/library/error.c **** 
 218:/home/xingli/share/LiteOS_Lab/network/dtls/mbedtls/mbedtls-2.16.2/library/error.c ****     if( buflen == 0 )
 572              		.loc 1 218 7
 573 0026 48837DC8 		cmpq	$0, -56(%rbp)
GAS LISTING /tmp/ccWIaY8W.s 			page 29


 573      00
 574 002b 0F84D520 		je	.L194
 574      0000
 219:/home/xingli/share/LiteOS_Lab/network/dtls/mbedtls/mbedtls-2.16.2/library/error.c ****         return;
 220:/home/xingli/share/LiteOS_Lab/network/dtls/mbedtls/mbedtls-2.16.2/library/error.c **** 
 221:/home/xingli/share/LiteOS_Lab/network/dtls/mbedtls/mbedtls-2.16.2/library/error.c ****     memset( buf, 0x00, buflen );
 575              		.loc 1 221 5
 576 0031 488B55C8 		movq	-56(%rbp), %rdx
 577 0035 488B45D0 		movq	-48(%rbp), %rax
 578 0039 BE000000 		movl	$0, %esi
 578      00
 579 003e 4889C7   		movq	%rax, %rdi
 580 0041 E8000000 		call	memset@PLT
 580      00
 222:/home/xingli/share/LiteOS_Lab/network/dtls/mbedtls/mbedtls-2.16.2/library/error.c **** 
 223:/home/xingli/share/LiteOS_Lab/network/dtls/mbedtls/mbedtls-2.16.2/library/error.c ****     if( ret < 0 )
 581              		.loc 1 223 7
 582 0046 837DDC00 		cmpl	$0, -36(%rbp)
 583 004a 7903     		jns	.L4
 224:/home/xingli/share/LiteOS_Lab/network/dtls/mbedtls/mbedtls-2.16.2/library/error.c ****         ret = -ret;
 584              		.loc 1 224 13
 585 004c F75DDC   		negl	-36(%rbp)
 586              	.L4:
 225:/home/xingli/share/LiteOS_Lab/network/dtls/mbedtls/mbedtls-2.16.2/library/error.c **** 
 226:/home/xingli/share/LiteOS_Lab/network/dtls/mbedtls/mbedtls-2.16.2/library/error.c ****     if( ret & 0xFF80 )
 587              		.loc 1 226 13
 588 004f 8B45DC   		movl	-36(%rbp), %eax
 589 0052 2580FF00 		andl	$65408, %eax
 589      00
 590              		.loc 1 226 7
 591 0057 85C0     		testl	%eax, %eax
 592 0059 0F840A19 		je	.L5
 592      0000
 227:/home/xingli/share/LiteOS_Lab/network/dtls/mbedtls/mbedtls-2.16.2/library/error.c ****     {
 228:/home/xingli/share/LiteOS_Lab/network/dtls/mbedtls/mbedtls-2.16.2/library/error.c ****         use_ret = ret & 0xFF80;
 593              		.loc 1 228 17
 594 005f 8B45DC   		movl	-36(%rbp), %eax
 595 0062 2580FF00 		andl	$65408, %eax
 595      00
 596 0067 8945EC   		movl	%eax, -20(%rbp)
 229:/home/xingli/share/LiteOS_Lab/network/dtls/mbedtls/mbedtls-2.16.2/library/error.c **** 
 230:/home/xingli/share/LiteOS_Lab/network/dtls/mbedtls/mbedtls-2.16.2/library/error.c ****         // High level error codes
 231:/home/xingli/share/LiteOS_Lab/network/dtls/mbedtls/mbedtls-2.16.2/library/error.c ****         //
 232:/home/xingli/share/LiteOS_Lab/network/dtls/mbedtls/mbedtls-2.16.2/library/error.c ****         // BEGIN generated code
 233:/home/xingli/share/LiteOS_Lab/network/dtls/mbedtls/mbedtls-2.16.2/library/error.c **** #if defined(MBEDTLS_CIPHER_C)
 234:/home/xingli/share/LiteOS_Lab/network/dtls/mbedtls/mbedtls-2.16.2/library/error.c ****         if( use_ret == -(MBEDTLS_ERR_CIPHER_FEATURE_UNAVAILABLE) )
 597              		.loc 1 234 11
 598 006a 817DEC80 		cmpl	$24704, -20(%rbp)
 598      600000
 599 0071 7524     		jne	.L6
 235:/home/xingli/share/LiteOS_Lab/network/dtls/mbedtls/mbedtls-2.16.2/library/error.c ****             mbedtls_snprintf( buf, buflen, "CIPHER - The selected feature is not available" );
 600              		.loc 1 235 13
 601 0073 4C8B0500 		movq	mbedtls_snprintf(%rip), %r8
 601      000000
 602 007a 488B4DC8 		movq	-56(%rbp), %rcx
 603 007e 488B45D0 		movq	-48(%rbp), %rax
 604 0082 488D1500 		leaq	.LC0(%rip), %rdx
GAS LISTING /tmp/ccWIaY8W.s 			page 30


 604      000000
 605 0089 4889CE   		movq	%rcx, %rsi
 606 008c 4889C7   		movq	%rax, %rdi
 607 008f B8000000 		movl	$0, %eax
 607      00
 608 0094 41FFD0   		call	*%r8
 609              	.LVL0:
 610              	.L6:
 236:/home/xingli/share/LiteOS_Lab/network/dtls/mbedtls/mbedtls-2.16.2/library/error.c ****         if( use_ret == -(MBEDTLS_ERR_CIPHER_BAD_INPUT_DATA) )
 611              		.loc 1 236 11
 612 0097 817DEC00 		cmpl	$24832, -20(%rbp)
 612      610000
 613 009e 7524     		jne	.L7
 237:/home/xingli/share/LiteOS_Lab/network/dtls/mbedtls/mbedtls-2.16.2/library/error.c ****             mbedtls_snprintf( buf, buflen, "CIPHER - Bad input parameters" );
 614              		.loc 1 237 13
 615 00a0 4C8B0500 		movq	mbedtls_snprintf(%rip), %r8
 615      000000
 616 00a7 488B4DC8 		movq	-56(%rbp), %rcx
 617 00ab 488B45D0 		movq	-48(%rbp), %rax
 618 00af 488D1500 		leaq	.LC1(%rip), %rdx
 618      000000
 619 00b6 4889CE   		movq	%rcx, %rsi
 620 00b9 4889C7   		movq	%rax, %rdi
 621 00bc B8000000 		movl	$0, %eax
 621      00
 622 00c1 41FFD0   		call	*%r8
 623              	.LVL1:
 624              	.L7:
 238:/home/xingli/share/LiteOS_Lab/network/dtls/mbedtls/mbedtls-2.16.2/library/error.c ****         if( use_ret == -(MBEDTLS_ERR_CIPHER_ALLOC_FAILED) )
 625              		.loc 1 238 11
 626 00c4 817DEC80 		cmpl	$24960, -20(%rbp)
 626      610000
 627 00cb 7524     		jne	.L8
 239:/home/xingli/share/LiteOS_Lab/network/dtls/mbedtls/mbedtls-2.16.2/library/error.c ****             mbedtls_snprintf( buf, buflen, "CIPHER - Failed to allocate memory" );
 628              		.loc 1 239 13
 629 00cd 4C8B0500 		movq	mbedtls_snprintf(%rip), %r8
 629      000000
 630 00d4 488B4DC8 		movq	-56(%rbp), %rcx
 631 00d8 488B45D0 		movq	-48(%rbp), %rax
 632 00dc 488D1500 		leaq	.LC2(%rip), %rdx
 632      000000
 633 00e3 4889CE   		movq	%rcx, %rsi
 634 00e6 4889C7   		movq	%rax, %rdi
 635 00e9 B8000000 		movl	$0, %eax
 635      00
 636 00ee 41FFD0   		call	*%r8
 637              	.LVL2:
 638              	.L8:
 240:/home/xingli/share/LiteOS_Lab/network/dtls/mbedtls/mbedtls-2.16.2/library/error.c ****         if( use_ret == -(MBEDTLS_ERR_CIPHER_INVALID_PADDING) )
 639              		.loc 1 240 11
 640 00f1 817DEC00 		cmpl	$25088, -20(%rbp)
 640      620000
 641 00f8 7524     		jne	.L9
 241:/home/xingli/share/LiteOS_Lab/network/dtls/mbedtls/mbedtls-2.16.2/library/error.c ****             mbedtls_snprintf( buf, buflen, "CIPHER - Input data contains invalid padding and is rej
 642              		.loc 1 241 13
 643 00fa 4C8B0500 		movq	mbedtls_snprintf(%rip), %r8
 643      000000
GAS LISTING /tmp/ccWIaY8W.s 			page 31


 644 0101 488B4DC8 		movq	-56(%rbp), %rcx
 645 0105 488B45D0 		movq	-48(%rbp), %rax
 646 0109 488D1500 		leaq	.LC3(%rip), %rdx
 646      000000
 647 0110 4889CE   		movq	%rcx, %rsi
 648 0113 4889C7   		movq	%rax, %rdi
 649 0116 B8000000 		movl	$0, %eax
 649      00
 650 011b 41FFD0   		call	*%r8
 651              	.LVL3:
 652              	.L9:
 242:/home/xingli/share/LiteOS_Lab/network/dtls/mbedtls/mbedtls-2.16.2/library/error.c ****         if( use_ret == -(MBEDTLS_ERR_CIPHER_FULL_BLOCK_EXPECTED) )
 653              		.loc 1 242 11
 654 011e 817DEC80 		cmpl	$25216, -20(%rbp)
 654      620000
 655 0125 7524     		jne	.L10
 243:/home/xingli/share/LiteOS_Lab/network/dtls/mbedtls/mbedtls-2.16.2/library/error.c ****             mbedtls_snprintf( buf, buflen, "CIPHER - Decryption of block requires a full block" );
 656              		.loc 1 243 13
 657 0127 4C8B0500 		movq	mbedtls_snprintf(%rip), %r8
 657      000000
 658 012e 488B4DC8 		movq	-56(%rbp), %rcx
 659 0132 488B45D0 		movq	-48(%rbp), %rax
 660 0136 488D1500 		leaq	.LC4(%rip), %rdx
 660      000000
 661 013d 4889CE   		movq	%rcx, %rsi
 662 0140 4889C7   		movq	%rax, %rdi
 663 0143 B8000000 		movl	$0, %eax
 663      00
 664 0148 41FFD0   		call	*%r8
 665              	.LVL4:
 666              	.L10:
 244:/home/xingli/share/LiteOS_Lab/network/dtls/mbedtls/mbedtls-2.16.2/library/error.c ****         if( use_ret == -(MBEDTLS_ERR_CIPHER_AUTH_FAILED) )
 667              		.loc 1 244 11
 668 014b 817DEC00 		cmpl	$25344, -20(%rbp)
 668      630000
 669 0152 7524     		jne	.L11
 245:/home/xingli/share/LiteOS_Lab/network/dtls/mbedtls/mbedtls-2.16.2/library/error.c ****             mbedtls_snprintf( buf, buflen, "CIPHER - Authentication failed (for AEAD modes)" );
 670              		.loc 1 245 13
 671 0154 4C8B0500 		movq	mbedtls_snprintf(%rip), %r8
 671      000000
 672 015b 488B4DC8 		movq	-56(%rbp), %rcx
 673 015f 488B45D0 		movq	-48(%rbp), %rax
 674 0163 488D1500 		leaq	.LC5(%rip), %rdx
 674      000000
 675 016a 4889CE   		movq	%rcx, %rsi
 676 016d 4889C7   		movq	%rax, %rdi
 677 0170 B8000000 		movl	$0, %eax
 677      00
 678 0175 41FFD0   		call	*%r8
 679              	.LVL5:
 680              	.L11:
 246:/home/xingli/share/LiteOS_Lab/network/dtls/mbedtls/mbedtls-2.16.2/library/error.c ****         if( use_ret == -(MBEDTLS_ERR_CIPHER_INVALID_CONTEXT) )
 681              		.loc 1 246 11
 682 0178 817DEC80 		cmpl	$25472, -20(%rbp)
 682      630000
 683 017f 7524     		jne	.L12
 247:/home/xingli/share/LiteOS_Lab/network/dtls/mbedtls/mbedtls-2.16.2/library/error.c ****             mbedtls_snprintf( buf, buflen, "CIPHER - The context is invalid. For example, because i
GAS LISTING /tmp/ccWIaY8W.s 			page 32


 684              		.loc 1 247 13
 685 0181 4C8B0500 		movq	mbedtls_snprintf(%rip), %r8
 685      000000
 686 0188 488B4DC8 		movq	-56(%rbp), %rcx
 687 018c 488B45D0 		movq	-48(%rbp), %rax
 688 0190 488D1500 		leaq	.LC6(%rip), %rdx
 688      000000
 689 0197 4889CE   		movq	%rcx, %rsi
 690 019a 4889C7   		movq	%rax, %rdi
 691 019d B8000000 		movl	$0, %eax
 691      00
 692 01a2 41FFD0   		call	*%r8
 693              	.LVL6:
 694              	.L12:
 248:/home/xingli/share/LiteOS_Lab/network/dtls/mbedtls/mbedtls-2.16.2/library/error.c ****         if( use_ret == -(MBEDTLS_ERR_CIPHER_HW_ACCEL_FAILED) )
 695              		.loc 1 248 11
 696 01a5 817DEC00 		cmpl	$25600, -20(%rbp)
 696      640000
 697 01ac 7524     		jne	.L13
 249:/home/xingli/share/LiteOS_Lab/network/dtls/mbedtls/mbedtls-2.16.2/library/error.c ****             mbedtls_snprintf( buf, buflen, "CIPHER - Cipher hardware accelerator failed" );
 698              		.loc 1 249 13
 699 01ae 4C8B0500 		movq	mbedtls_snprintf(%rip), %r8
 699      000000
 700 01b5 488B4DC8 		movq	-56(%rbp), %rcx
 701 01b9 488B45D0 		movq	-48(%rbp), %rax
 702 01bd 488D1500 		leaq	.LC7(%rip), %rdx
 702      000000
 703 01c4 4889CE   		movq	%rcx, %rsi
 704 01c7 4889C7   		movq	%rax, %rdi
 705 01ca B8000000 		movl	$0, %eax
 705      00
 706 01cf 41FFD0   		call	*%r8
 707              	.LVL7:
 708              	.L13:
 250:/home/xingli/share/LiteOS_Lab/network/dtls/mbedtls/mbedtls-2.16.2/library/error.c **** #endif /* MBEDTLS_CIPHER_C */
 251:/home/xingli/share/LiteOS_Lab/network/dtls/mbedtls/mbedtls-2.16.2/library/error.c **** 
 252:/home/xingli/share/LiteOS_Lab/network/dtls/mbedtls/mbedtls-2.16.2/library/error.c **** #if defined(MBEDTLS_DHM_C)
 253:/home/xingli/share/LiteOS_Lab/network/dtls/mbedtls/mbedtls-2.16.2/library/error.c ****         if( use_ret == -(MBEDTLS_ERR_DHM_BAD_INPUT_DATA) )
 254:/home/xingli/share/LiteOS_Lab/network/dtls/mbedtls/mbedtls-2.16.2/library/error.c ****             mbedtls_snprintf( buf, buflen, "DHM - Bad input parameters" );
 255:/home/xingli/share/LiteOS_Lab/network/dtls/mbedtls/mbedtls-2.16.2/library/error.c ****         if( use_ret == -(MBEDTLS_ERR_DHM_READ_PARAMS_FAILED) )
 256:/home/xingli/share/LiteOS_Lab/network/dtls/mbedtls/mbedtls-2.16.2/library/error.c ****             mbedtls_snprintf( buf, buflen, "DHM - Reading of the DHM parameters failed" );
 257:/home/xingli/share/LiteOS_Lab/network/dtls/mbedtls/mbedtls-2.16.2/library/error.c ****         if( use_ret == -(MBEDTLS_ERR_DHM_MAKE_PARAMS_FAILED) )
 258:/home/xingli/share/LiteOS_Lab/network/dtls/mbedtls/mbedtls-2.16.2/library/error.c ****             mbedtls_snprintf( buf, buflen, "DHM - Making of the DHM parameters failed" );
 259:/home/xingli/share/LiteOS_Lab/network/dtls/mbedtls/mbedtls-2.16.2/library/error.c ****         if( use_ret == -(MBEDTLS_ERR_DHM_READ_PUBLIC_FAILED) )
 260:/home/xingli/share/LiteOS_Lab/network/dtls/mbedtls/mbedtls-2.16.2/library/error.c ****             mbedtls_snprintf( buf, buflen, "DHM - Reading of the public values failed" );
 261:/home/xingli/share/LiteOS_Lab/network/dtls/mbedtls/mbedtls-2.16.2/library/error.c ****         if( use_ret == -(MBEDTLS_ERR_DHM_MAKE_PUBLIC_FAILED) )
 262:/home/xingli/share/LiteOS_Lab/network/dtls/mbedtls/mbedtls-2.16.2/library/error.c ****             mbedtls_snprintf( buf, buflen, "DHM - Making of the public value failed" );
 263:/home/xingli/share/LiteOS_Lab/network/dtls/mbedtls/mbedtls-2.16.2/library/error.c ****         if( use_ret == -(MBEDTLS_ERR_DHM_CALC_SECRET_FAILED) )
 264:/home/xingli/share/LiteOS_Lab/network/dtls/mbedtls/mbedtls-2.16.2/library/error.c ****             mbedtls_snprintf( buf, buflen, "DHM - Calculation of the DHM secret failed" );
 265:/home/xingli/share/LiteOS_Lab/network/dtls/mbedtls/mbedtls-2.16.2/library/error.c ****         if( use_ret == -(MBEDTLS_ERR_DHM_INVALID_FORMAT) )
 266:/home/xingli/share/LiteOS_Lab/network/dtls/mbedtls/mbedtls-2.16.2/library/error.c ****             mbedtls_snprintf( buf, buflen, "DHM - The ASN.1 data is not formatted correctly" );
 267:/home/xingli/share/LiteOS_Lab/network/dtls/mbedtls/mbedtls-2.16.2/library/error.c ****         if( use_ret == -(MBEDTLS_ERR_DHM_ALLOC_FAILED) )
 268:/home/xingli/share/LiteOS_Lab/network/dtls/mbedtls/mbedtls-2.16.2/library/error.c ****             mbedtls_snprintf( buf, buflen, "DHM - Allocation of memory failed" );
 269:/home/xingli/share/LiteOS_Lab/network/dtls/mbedtls/mbedtls-2.16.2/library/error.c ****         if( use_ret == -(MBEDTLS_ERR_DHM_FILE_IO_ERROR) )
 270:/home/xingli/share/LiteOS_Lab/network/dtls/mbedtls/mbedtls-2.16.2/library/error.c ****             mbedtls_snprintf( buf, buflen, "DHM - Read or write of file failed" );
 271:/home/xingli/share/LiteOS_Lab/network/dtls/mbedtls/mbedtls-2.16.2/library/error.c ****         if( use_ret == -(MBEDTLS_ERR_DHM_HW_ACCEL_FAILED) )
 272:/home/xingli/share/LiteOS_Lab/network/dtls/mbedtls/mbedtls-2.16.2/library/error.c ****             mbedtls_snprintf( buf, buflen, "DHM - DHM hardware accelerator failed" );
GAS LISTING /tmp/ccWIaY8W.s 			page 33


 273:/home/xingli/share/LiteOS_Lab/network/dtls/mbedtls/mbedtls-2.16.2/library/error.c ****         if( use_ret == -(MBEDTLS_ERR_DHM_SET_GROUP_FAILED) )
 274:/home/xingli/share/LiteOS_Lab/network/dtls/mbedtls/mbedtls-2.16.2/library/error.c ****             mbedtls_snprintf( buf, buflen, "DHM - Setting the modulus and generator failed" );
 275:/home/xingli/share/LiteOS_Lab/network/dtls/mbedtls/mbedtls-2.16.2/library/error.c **** #endif /* MBEDTLS_DHM_C */
 276:/home/xingli/share/LiteOS_Lab/network/dtls/mbedtls/mbedtls-2.16.2/library/error.c **** 
 277:/home/xingli/share/LiteOS_Lab/network/dtls/mbedtls/mbedtls-2.16.2/library/error.c **** #if defined(MBEDTLS_ECP_C)
 278:/home/xingli/share/LiteOS_Lab/network/dtls/mbedtls/mbedtls-2.16.2/library/error.c ****         if( use_ret == -(MBEDTLS_ERR_ECP_BAD_INPUT_DATA) )
 709              		.loc 1 278 11
 710 01d2 817DEC80 		cmpl	$20352, -20(%rbp)
 710      4F0000
 711 01d9 7524     		jne	.L14
 279:/home/xingli/share/LiteOS_Lab/network/dtls/mbedtls/mbedtls-2.16.2/library/error.c ****             mbedtls_snprintf( buf, buflen, "ECP - Bad input parameters to function" );
 712              		.loc 1 279 13
 713 01db 4C8B0500 		movq	mbedtls_snprintf(%rip), %r8
 713      000000
 714 01e2 488B4DC8 		movq	-56(%rbp), %rcx
 715 01e6 488B45D0 		movq	-48(%rbp), %rax
 716 01ea 488D1500 		leaq	.LC8(%rip), %rdx
 716      000000
 717 01f1 4889CE   		movq	%rcx, %rsi
 718 01f4 4889C7   		movq	%rax, %rdi
 719 01f7 B8000000 		movl	$0, %eax
 719      00
 720 01fc 41FFD0   		call	*%r8
 721              	.LVL8:
 722              	.L14:
 280:/home/xingli/share/LiteOS_Lab/network/dtls/mbedtls/mbedtls-2.16.2/library/error.c ****         if( use_ret == -(MBEDTLS_ERR_ECP_BUFFER_TOO_SMALL) )
 723              		.loc 1 280 11
 724 01ff 817DEC00 		cmpl	$20224, -20(%rbp)
 724      4F0000
 725 0206 7524     		jne	.L15
 281:/home/xingli/share/LiteOS_Lab/network/dtls/mbedtls/mbedtls-2.16.2/library/error.c ****             mbedtls_snprintf( buf, buflen, "ECP - The buffer is too small to write to" );
 726              		.loc 1 281 13
 727 0208 4C8B0500 		movq	mbedtls_snprintf(%rip), %r8
 727      000000
 728 020f 488B4DC8 		movq	-56(%rbp), %rcx
 729 0213 488B45D0 		movq	-48(%rbp), %rax
 730 0217 488D1500 		leaq	.LC9(%rip), %rdx
 730      000000
 731 021e 4889CE   		movq	%rcx, %rsi
 732 0221 4889C7   		movq	%rax, %rdi
 733 0224 B8000000 		movl	$0, %eax
 733      00
 734 0229 41FFD0   		call	*%r8
 735              	.LVL9:
 736              	.L15:
 282:/home/xingli/share/LiteOS_Lab/network/dtls/mbedtls/mbedtls-2.16.2/library/error.c ****         if( use_ret == -(MBEDTLS_ERR_ECP_FEATURE_UNAVAILABLE) )
 737              		.loc 1 282 11
 738 022c 817DEC80 		cmpl	$20096, -20(%rbp)
 738      4E0000
 739 0233 7524     		jne	.L16
 283:/home/xingli/share/LiteOS_Lab/network/dtls/mbedtls/mbedtls-2.16.2/library/error.c ****             mbedtls_snprintf( buf, buflen, "ECP - The requested feature is not available, for examp
 740              		.loc 1 283 13
 741 0235 4C8B0500 		movq	mbedtls_snprintf(%rip), %r8
 741      000000
 742 023c 488B4DC8 		movq	-56(%rbp), %rcx
 743 0240 488B45D0 		movq	-48(%rbp), %rax
 744 0244 488D1500 		leaq	.LC10(%rip), %rdx
GAS LISTING /tmp/ccWIaY8W.s 			page 34


 744      000000
 745 024b 4889CE   		movq	%rcx, %rsi
 746 024e 4889C7   		movq	%rax, %rdi
 747 0251 B8000000 		movl	$0, %eax
 747      00
 748 0256 41FFD0   		call	*%r8
 749              	.LVL10:
 750              	.L16:
 284:/home/xingli/share/LiteOS_Lab/network/dtls/mbedtls/mbedtls-2.16.2/library/error.c ****         if( use_ret == -(MBEDTLS_ERR_ECP_VERIFY_FAILED) )
 751              		.loc 1 284 11
 752 0259 817DEC00 		cmpl	$19968, -20(%rbp)
 752      4E0000
 753 0260 7524     		jne	.L17
 285:/home/xingli/share/LiteOS_Lab/network/dtls/mbedtls/mbedtls-2.16.2/library/error.c ****             mbedtls_snprintf( buf, buflen, "ECP - The signature is not valid" );
 754              		.loc 1 285 13
 755 0262 4C8B0500 		movq	mbedtls_snprintf(%rip), %r8
 755      000000
 756 0269 488B4DC8 		movq	-56(%rbp), %rcx
 757 026d 488B45D0 		movq	-48(%rbp), %rax
 758 0271 488D1500 		leaq	.LC11(%rip), %rdx
 758      000000
 759 0278 4889CE   		movq	%rcx, %rsi
 760 027b 4889C7   		movq	%rax, %rdi
 761 027e B8000000 		movl	$0, %eax
 761      00
 762 0283 41FFD0   		call	*%r8
 763              	.LVL11:
 764              	.L17:
 286:/home/xingli/share/LiteOS_Lab/network/dtls/mbedtls/mbedtls-2.16.2/library/error.c ****         if( use_ret == -(MBEDTLS_ERR_ECP_ALLOC_FAILED) )
 765              		.loc 1 286 11
 766 0286 817DEC80 		cmpl	$19840, -20(%rbp)
 766      4D0000
 767 028d 7524     		jne	.L18
 287:/home/xingli/share/LiteOS_Lab/network/dtls/mbedtls/mbedtls-2.16.2/library/error.c ****             mbedtls_snprintf( buf, buflen, "ECP - Memory allocation failed" );
 768              		.loc 1 287 13
 769 028f 4C8B0500 		movq	mbedtls_snprintf(%rip), %r8
 769      000000
 770 0296 488B4DC8 		movq	-56(%rbp), %rcx
 771 029a 488B45D0 		movq	-48(%rbp), %rax
 772 029e 488D1500 		leaq	.LC12(%rip), %rdx
 772      000000
 773 02a5 4889CE   		movq	%rcx, %rsi
 774 02a8 4889C7   		movq	%rax, %rdi
 775 02ab B8000000 		movl	$0, %eax
 775      00
 776 02b0 41FFD0   		call	*%r8
 777              	.LVL12:
 778              	.L18:
 288:/home/xingli/share/LiteOS_Lab/network/dtls/mbedtls/mbedtls-2.16.2/library/error.c ****         if( use_ret == -(MBEDTLS_ERR_ECP_RANDOM_FAILED) )
 779              		.loc 1 288 11
 780 02b3 817DEC00 		cmpl	$19712, -20(%rbp)
 780      4D0000
 781 02ba 7524     		jne	.L19
 289:/home/xingli/share/LiteOS_Lab/network/dtls/mbedtls/mbedtls-2.16.2/library/error.c ****             mbedtls_snprintf( buf, buflen, "ECP - Generation of random value, such as ephemeral key
 782              		.loc 1 289 13
 783 02bc 4C8B0500 		movq	mbedtls_snprintf(%rip), %r8
 783      000000
GAS LISTING /tmp/ccWIaY8W.s 			page 35


 784 02c3 488B4DC8 		movq	-56(%rbp), %rcx
 785 02c7 488B45D0 		movq	-48(%rbp), %rax
 786 02cb 488D1500 		leaq	.LC13(%rip), %rdx
 786      000000
 787 02d2 4889CE   		movq	%rcx, %rsi
 788 02d5 4889C7   		movq	%rax, %rdi
 789 02d8 B8000000 		movl	$0, %eax
 789      00
 790 02dd 41FFD0   		call	*%r8
 791              	.LVL13:
 792              	.L19:
 290:/home/xingli/share/LiteOS_Lab/network/dtls/mbedtls/mbedtls-2.16.2/library/error.c ****         if( use_ret == -(MBEDTLS_ERR_ECP_INVALID_KEY) )
 793              		.loc 1 290 11
 794 02e0 817DEC80 		cmpl	$19584, -20(%rbp)
 794      4C0000
 795 02e7 7524     		jne	.L20
 291:/home/xingli/share/LiteOS_Lab/network/dtls/mbedtls/mbedtls-2.16.2/library/error.c ****             mbedtls_snprintf( buf, buflen, "ECP - Invalid private or public key" );
 796              		.loc 1 291 13
 797 02e9 4C8B0500 		movq	mbedtls_snprintf(%rip), %r8
 797      000000
 798 02f0 488B4DC8 		movq	-56(%rbp), %rcx
 799 02f4 488B45D0 		movq	-48(%rbp), %rax
 800 02f8 488D1500 		leaq	.LC14(%rip), %rdx
 800      000000
 801 02ff 4889CE   		movq	%rcx, %rsi
 802 0302 4889C7   		movq	%rax, %rdi
 803 0305 B8000000 		movl	$0, %eax
 803      00
 804 030a 41FFD0   		call	*%r8
 805              	.LVL14:
 806              	.L20:
 292:/home/xingli/share/LiteOS_Lab/network/dtls/mbedtls/mbedtls-2.16.2/library/error.c ****         if( use_ret == -(MBEDTLS_ERR_ECP_SIG_LEN_MISMATCH) )
 807              		.loc 1 292 11
 808 030d 817DEC00 		cmpl	$19456, -20(%rbp)
 808      4C0000
 809 0314 7524     		jne	.L21
 293:/home/xingli/share/LiteOS_Lab/network/dtls/mbedtls/mbedtls-2.16.2/library/error.c ****             mbedtls_snprintf( buf, buflen, "ECP - The buffer contains a valid signature followed by
 810              		.loc 1 293 13
 811 0316 4C8B0500 		movq	mbedtls_snprintf(%rip), %r8
 811      000000
 812 031d 488B4DC8 		movq	-56(%rbp), %rcx
 813 0321 488B45D0 		movq	-48(%rbp), %rax
 814 0325 488D1500 		leaq	.LC15(%rip), %rdx
 814      000000
 815 032c 4889CE   		movq	%rcx, %rsi
 816 032f 4889C7   		movq	%rax, %rdi
 817 0332 B8000000 		movl	$0, %eax
 817      00
 818 0337 41FFD0   		call	*%r8
 819              	.LVL15:
 820              	.L21:
 294:/home/xingli/share/LiteOS_Lab/network/dtls/mbedtls/mbedtls-2.16.2/library/error.c ****         if( use_ret == -(MBEDTLS_ERR_ECP_HW_ACCEL_FAILED) )
 821              		.loc 1 294 11
 822 033a 817DEC80 		cmpl	$19328, -20(%rbp)
 822      4B0000
 823 0341 7524     		jne	.L22
 295:/home/xingli/share/LiteOS_Lab/network/dtls/mbedtls/mbedtls-2.16.2/library/error.c ****             mbedtls_snprintf( buf, buflen, "ECP - The ECP hardware accelerator failed" );
GAS LISTING /tmp/ccWIaY8W.s 			page 36


 824              		.loc 1 295 13
 825 0343 4C8B0500 		movq	mbedtls_snprintf(%rip), %r8
 825      000000
 826 034a 488B4DC8 		movq	-56(%rbp), %rcx
 827 034e 488B45D0 		movq	-48(%rbp), %rax
 828 0352 488D1500 		leaq	.LC16(%rip), %rdx
 828      000000
 829 0359 4889CE   		movq	%rcx, %rsi
 830 035c 4889C7   		movq	%rax, %rdi
 831 035f B8000000 		movl	$0, %eax
 831      00
 832 0364 41FFD0   		call	*%r8
 833              	.LVL16:
 834              	.L22:
 296:/home/xingli/share/LiteOS_Lab/network/dtls/mbedtls/mbedtls-2.16.2/library/error.c ****         if( use_ret == -(MBEDTLS_ERR_ECP_IN_PROGRESS) )
 835              		.loc 1 296 11
 836 0367 817DEC00 		cmpl	$19200, -20(%rbp)
 836      4B0000
 837 036e 7524     		jne	.L23
 297:/home/xingli/share/LiteOS_Lab/network/dtls/mbedtls/mbedtls-2.16.2/library/error.c ****             mbedtls_snprintf( buf, buflen, "ECP - Operation in progress, call again with the same p
 838              		.loc 1 297 13
 839 0370 4C8B0500 		movq	mbedtls_snprintf(%rip), %r8
 839      000000
 840 0377 488B4DC8 		movq	-56(%rbp), %rcx
 841 037b 488B45D0 		movq	-48(%rbp), %rax
 842 037f 488D1500 		leaq	.LC17(%rip), %rdx
 842      000000
 843 0386 4889CE   		movq	%rcx, %rsi
 844 0389 4889C7   		movq	%rax, %rdi
 845 038c B8000000 		movl	$0, %eax
 845      00
 846 0391 41FFD0   		call	*%r8
 847              	.LVL17:
 848              	.L23:
 298:/home/xingli/share/LiteOS_Lab/network/dtls/mbedtls/mbedtls-2.16.2/library/error.c **** #endif /* MBEDTLS_ECP_C */
 299:/home/xingli/share/LiteOS_Lab/network/dtls/mbedtls/mbedtls-2.16.2/library/error.c **** 
 300:/home/xingli/share/LiteOS_Lab/network/dtls/mbedtls/mbedtls-2.16.2/library/error.c **** #if defined(MBEDTLS_MD_C)
 301:/home/xingli/share/LiteOS_Lab/network/dtls/mbedtls/mbedtls-2.16.2/library/error.c ****         if( use_ret == -(MBEDTLS_ERR_MD_FEATURE_UNAVAILABLE) )
 849              		.loc 1 301 11
 850 0394 817DEC80 		cmpl	$20608, -20(%rbp)
 850      500000
 851 039b 7524     		jne	.L24
 302:/home/xingli/share/LiteOS_Lab/network/dtls/mbedtls/mbedtls-2.16.2/library/error.c ****             mbedtls_snprintf( buf, buflen, "MD - The selected feature is not available" );
 852              		.loc 1 302 13
 853 039d 4C8B0500 		movq	mbedtls_snprintf(%rip), %r8
 853      000000
 854 03a4 488B4DC8 		movq	-56(%rbp), %rcx
 855 03a8 488B45D0 		movq	-48(%rbp), %rax
 856 03ac 488D1500 		leaq	.LC18(%rip), %rdx
 856      000000
 857 03b3 4889CE   		movq	%rcx, %rsi
 858 03b6 4889C7   		movq	%rax, %rdi
 859 03b9 B8000000 		movl	$0, %eax
 859      00
 860 03be 41FFD0   		call	*%r8
 861              	.LVL18:
 862              	.L24:
GAS LISTING /tmp/ccWIaY8W.s 			page 37


 303:/home/xingli/share/LiteOS_Lab/network/dtls/mbedtls/mbedtls-2.16.2/library/error.c ****         if( use_ret == -(MBEDTLS_ERR_MD_BAD_INPUT_DATA) )
 863              		.loc 1 303 11
 864 03c1 817DEC00 		cmpl	$20736, -20(%rbp)
 864      510000
 865 03c8 7524     		jne	.L25
 304:/home/xingli/share/LiteOS_Lab/network/dtls/mbedtls/mbedtls-2.16.2/library/error.c ****             mbedtls_snprintf( buf, buflen, "MD - Bad input parameters to function" );
 866              		.loc 1 304 13
 867 03ca 4C8B0500 		movq	mbedtls_snprintf(%rip), %r8
 867      000000
 868 03d1 488B4DC8 		movq	-56(%rbp), %rcx
 869 03d5 488B45D0 		movq	-48(%rbp), %rax
 870 03d9 488D1500 		leaq	.LC19(%rip), %rdx
 870      000000
 871 03e0 4889CE   		movq	%rcx, %rsi
 872 03e3 4889C7   		movq	%rax, %rdi
 873 03e6 B8000000 		movl	$0, %eax
 873      00
 874 03eb 41FFD0   		call	*%r8
 875              	.LVL19:
 876              	.L25:
 305:/home/xingli/share/LiteOS_Lab/network/dtls/mbedtls/mbedtls-2.16.2/library/error.c ****         if( use_ret == -(MBEDTLS_ERR_MD_ALLOC_FAILED) )
 877              		.loc 1 305 11
 878 03ee 817DEC80 		cmpl	$20864, -20(%rbp)
 878      510000
 879 03f5 7524     		jne	.L26
 306:/home/xingli/share/LiteOS_Lab/network/dtls/mbedtls/mbedtls-2.16.2/library/error.c ****             mbedtls_snprintf( buf, buflen, "MD - Failed to allocate memory" );
 880              		.loc 1 306 13
 881 03f7 4C8B0500 		movq	mbedtls_snprintf(%rip), %r8
 881      000000
 882 03fe 488B4DC8 		movq	-56(%rbp), %rcx
 883 0402 488B45D0 		movq	-48(%rbp), %rax
 884 0406 488D1500 		leaq	.LC20(%rip), %rdx
 884      000000
 885 040d 4889CE   		movq	%rcx, %rsi
 886 0410 4889C7   		movq	%rax, %rdi
 887 0413 B8000000 		movl	$0, %eax
 887      00
 888 0418 41FFD0   		call	*%r8
 889              	.LVL20:
 890              	.L26:
 307:/home/xingli/share/LiteOS_Lab/network/dtls/mbedtls/mbedtls-2.16.2/library/error.c ****         if( use_ret == -(MBEDTLS_ERR_MD_FILE_IO_ERROR) )
 891              		.loc 1 307 11
 892 041b 817DEC00 		cmpl	$20992, -20(%rbp)
 892      520000
 893 0422 7524     		jne	.L27
 308:/home/xingli/share/LiteOS_Lab/network/dtls/mbedtls/mbedtls-2.16.2/library/error.c ****             mbedtls_snprintf( buf, buflen, "MD - Opening or reading of file failed" );
 894              		.loc 1 308 13
 895 0424 4C8B0500 		movq	mbedtls_snprintf(%rip), %r8
 895      000000
 896 042b 488B4DC8 		movq	-56(%rbp), %rcx
 897 042f 488B45D0 		movq	-48(%rbp), %rax
 898 0433 488D1500 		leaq	.LC21(%rip), %rdx
 898      000000
 899 043a 4889CE   		movq	%rcx, %rsi
 900 043d 4889C7   		movq	%rax, %rdi
 901 0440 B8000000 		movl	$0, %eax
 901      00
GAS LISTING /tmp/ccWIaY8W.s 			page 38


 902 0445 41FFD0   		call	*%r8
 903              	.LVL21:
 904              	.L27:
 309:/home/xingli/share/LiteOS_Lab/network/dtls/mbedtls/mbedtls-2.16.2/library/error.c ****         if( use_ret == -(MBEDTLS_ERR_MD_HW_ACCEL_FAILED) )
 905              		.loc 1 309 11
 906 0448 817DEC80 		cmpl	$21120, -20(%rbp)
 906      520000
 907 044f 7524     		jne	.L28
 310:/home/xingli/share/LiteOS_Lab/network/dtls/mbedtls/mbedtls-2.16.2/library/error.c ****             mbedtls_snprintf( buf, buflen, "MD - MD hardware accelerator failed" );
 908              		.loc 1 310 13
 909 0451 4C8B0500 		movq	mbedtls_snprintf(%rip), %r8
 909      000000
 910 0458 488B4DC8 		movq	-56(%rbp), %rcx
 911 045c 488B45D0 		movq	-48(%rbp), %rax
 912 0460 488D1500 		leaq	.LC22(%rip), %rdx
 912      000000
 913 0467 4889CE   		movq	%rcx, %rsi
 914 046a 4889C7   		movq	%rax, %rdi
 915 046d B8000000 		movl	$0, %eax
 915      00
 916 0472 41FFD0   		call	*%r8
 917              	.LVL22:
 918              	.L28:
 311:/home/xingli/share/LiteOS_Lab/network/dtls/mbedtls/mbedtls-2.16.2/library/error.c **** #endif /* MBEDTLS_MD_C */
 312:/home/xingli/share/LiteOS_Lab/network/dtls/mbedtls/mbedtls-2.16.2/library/error.c **** 
 313:/home/xingli/share/LiteOS_Lab/network/dtls/mbedtls/mbedtls-2.16.2/library/error.c **** #if defined(MBEDTLS_PEM_PARSE_C) || defined(MBEDTLS_PEM_WRITE_C)
 314:/home/xingli/share/LiteOS_Lab/network/dtls/mbedtls/mbedtls-2.16.2/library/error.c ****         if( use_ret == -(MBEDTLS_ERR_PEM_NO_HEADER_FOOTER_PRESENT) )
 919              		.loc 1 314 11
 920 0475 817DEC80 		cmpl	$4224, -20(%rbp)
 920      100000
 921 047c 7524     		jne	.L29
 315:/home/xingli/share/LiteOS_Lab/network/dtls/mbedtls/mbedtls-2.16.2/library/error.c ****             mbedtls_snprintf( buf, buflen, "PEM - No PEM header or footer found" );
 922              		.loc 1 315 13
 923 047e 4C8B0500 		movq	mbedtls_snprintf(%rip), %r8
 923      000000
 924 0485 488B4DC8 		movq	-56(%rbp), %rcx
 925 0489 488B45D0 		movq	-48(%rbp), %rax
 926 048d 488D1500 		leaq	.LC23(%rip), %rdx
 926      000000
 927 0494 4889CE   		movq	%rcx, %rsi
 928 0497 4889C7   		movq	%rax, %rdi
 929 049a B8000000 		movl	$0, %eax
 929      00
 930 049f 41FFD0   		call	*%r8
 931              	.LVL23:
 932              	.L29:
 316:/home/xingli/share/LiteOS_Lab/network/dtls/mbedtls/mbedtls-2.16.2/library/error.c ****         if( use_ret == -(MBEDTLS_ERR_PEM_INVALID_DATA) )
 933              		.loc 1 316 11
 934 04a2 817DEC00 		cmpl	$4352, -20(%rbp)
 934      110000
 935 04a9 7524     		jne	.L30
 317:/home/xingli/share/LiteOS_Lab/network/dtls/mbedtls/mbedtls-2.16.2/library/error.c ****             mbedtls_snprintf( buf, buflen, "PEM - PEM string is not as expected" );
 936              		.loc 1 317 13
 937 04ab 4C8B0500 		movq	mbedtls_snprintf(%rip), %r8
 937      000000
 938 04b2 488B4DC8 		movq	-56(%rbp), %rcx
 939 04b6 488B45D0 		movq	-48(%rbp), %rax
GAS LISTING /tmp/ccWIaY8W.s 			page 39


 940 04ba 488D1500 		leaq	.LC24(%rip), %rdx
 940      000000
 941 04c1 4889CE   		movq	%rcx, %rsi
 942 04c4 4889C7   		movq	%rax, %rdi
 943 04c7 B8000000 		movl	$0, %eax
 943      00
 944 04cc 41FFD0   		call	*%r8
 945              	.LVL24:
 946              	.L30:
 318:/home/xingli/share/LiteOS_Lab/network/dtls/mbedtls/mbedtls-2.16.2/library/error.c ****         if( use_ret == -(MBEDTLS_ERR_PEM_ALLOC_FAILED) )
 947              		.loc 1 318 11
 948 04cf 817DEC80 		cmpl	$4480, -20(%rbp)
 948      110000
 949 04d6 7524     		jne	.L31
 319:/home/xingli/share/LiteOS_Lab/network/dtls/mbedtls/mbedtls-2.16.2/library/error.c ****             mbedtls_snprintf( buf, buflen, "PEM - Failed to allocate memory" );
 950              		.loc 1 319 13
 951 04d8 4C8B0500 		movq	mbedtls_snprintf(%rip), %r8
 951      000000
 952 04df 488B4DC8 		movq	-56(%rbp), %rcx
 953 04e3 488B45D0 		movq	-48(%rbp), %rax
 954 04e7 488D1500 		leaq	.LC25(%rip), %rdx
 954      000000
 955 04ee 4889CE   		movq	%rcx, %rsi
 956 04f1 4889C7   		movq	%rax, %rdi
 957 04f4 B8000000 		movl	$0, %eax
 957      00
 958 04f9 41FFD0   		call	*%r8
 959              	.LVL25:
 960              	.L31:
 320:/home/xingli/share/LiteOS_Lab/network/dtls/mbedtls/mbedtls-2.16.2/library/error.c ****         if( use_ret == -(MBEDTLS_ERR_PEM_INVALID_ENC_IV) )
 961              		.loc 1 320 11
 962 04fc 817DEC00 		cmpl	$4608, -20(%rbp)
 962      120000
 963 0503 7524     		jne	.L32
 321:/home/xingli/share/LiteOS_Lab/network/dtls/mbedtls/mbedtls-2.16.2/library/error.c ****             mbedtls_snprintf( buf, buflen, "PEM - RSA IV is not in hex-format" );
 964              		.loc 1 321 13
 965 0505 4C8B0500 		movq	mbedtls_snprintf(%rip), %r8
 965      000000
 966 050c 488B4DC8 		movq	-56(%rbp), %rcx
 967 0510 488B45D0 		movq	-48(%rbp), %rax
 968 0514 488D1500 		leaq	.LC26(%rip), %rdx
 968      000000
 969 051b 4889CE   		movq	%rcx, %rsi
 970 051e 4889C7   		movq	%rax, %rdi
 971 0521 B8000000 		movl	$0, %eax
 971      00
 972 0526 41FFD0   		call	*%r8
 973              	.LVL26:
 974              	.L32:
 322:/home/xingli/share/LiteOS_Lab/network/dtls/mbedtls/mbedtls-2.16.2/library/error.c ****         if( use_ret == -(MBEDTLS_ERR_PEM_UNKNOWN_ENC_ALG) )
 975              		.loc 1 322 11
 976 0529 817DEC80 		cmpl	$4736, -20(%rbp)
 976      120000
 977 0530 7524     		jne	.L33
 323:/home/xingli/share/LiteOS_Lab/network/dtls/mbedtls/mbedtls-2.16.2/library/error.c ****             mbedtls_snprintf( buf, buflen, "PEM - Unsupported key encryption algorithm" );
 978              		.loc 1 323 13
 979 0532 4C8B0500 		movq	mbedtls_snprintf(%rip), %r8
GAS LISTING /tmp/ccWIaY8W.s 			page 40


 979      000000
 980 0539 488B4DC8 		movq	-56(%rbp), %rcx
 981 053d 488B45D0 		movq	-48(%rbp), %rax
 982 0541 488D1500 		leaq	.LC27(%rip), %rdx
 982      000000
 983 0548 4889CE   		movq	%rcx, %rsi
 984 054b 4889C7   		movq	%rax, %rdi
 985 054e B8000000 		movl	$0, %eax
 985      00
 986 0553 41FFD0   		call	*%r8
 987              	.LVL27:
 988              	.L33:
 324:/home/xingli/share/LiteOS_Lab/network/dtls/mbedtls/mbedtls-2.16.2/library/error.c ****         if( use_ret == -(MBEDTLS_ERR_PEM_PASSWORD_REQUIRED) )
 989              		.loc 1 324 11
 990 0556 817DEC00 		cmpl	$4864, -20(%rbp)
 990      130000
 991 055d 7524     		jne	.L34
 325:/home/xingli/share/LiteOS_Lab/network/dtls/mbedtls/mbedtls-2.16.2/library/error.c ****             mbedtls_snprintf( buf, buflen, "PEM - Private key password can't be empty" );
 992              		.loc 1 325 13
 993 055f 4C8B0500 		movq	mbedtls_snprintf(%rip), %r8
 993      000000
 994 0566 488B4DC8 		movq	-56(%rbp), %rcx
 995 056a 488B45D0 		movq	-48(%rbp), %rax
 996 056e 488D1500 		leaq	.LC28(%rip), %rdx
 996      000000
 997 0575 4889CE   		movq	%rcx, %rsi
 998 0578 4889C7   		movq	%rax, %rdi
 999 057b B8000000 		movl	$0, %eax
 999      00
 1000 0580 41FFD0   		call	*%r8
 1001              	.LVL28:
 1002              	.L34:
 326:/home/xingli/share/LiteOS_Lab/network/dtls/mbedtls/mbedtls-2.16.2/library/error.c ****         if( use_ret == -(MBEDTLS_ERR_PEM_PASSWORD_MISMATCH) )
 1003              		.loc 1 326 11
 1004 0583 817DEC80 		cmpl	$4992, -20(%rbp)
 1004      130000
 1005 058a 7524     		jne	.L35
 327:/home/xingli/share/LiteOS_Lab/network/dtls/mbedtls/mbedtls-2.16.2/library/error.c ****             mbedtls_snprintf( buf, buflen, "PEM - Given private key password does not allow for cor
 1006              		.loc 1 327 13
 1007 058c 4C8B0500 		movq	mbedtls_snprintf(%rip), %r8
 1007      000000
 1008 0593 488B4DC8 		movq	-56(%rbp), %rcx
 1009 0597 488B45D0 		movq	-48(%rbp), %rax
 1010 059b 488D1500 		leaq	.LC29(%rip), %rdx
 1010      000000
 1011 05a2 4889CE   		movq	%rcx, %rsi
 1012 05a5 4889C7   		movq	%rax, %rdi
 1013 05a8 B8000000 		movl	$0, %eax
 1013      00
 1014 05ad 41FFD0   		call	*%r8
 1015              	.LVL29:
 1016              	.L35:
 328:/home/xingli/share/LiteOS_Lab/network/dtls/mbedtls/mbedtls-2.16.2/library/error.c ****         if( use_ret == -(MBEDTLS_ERR_PEM_FEATURE_UNAVAILABLE) )
 1017              		.loc 1 328 11
 1018 05b0 817DEC00 		cmpl	$5120, -20(%rbp)
 1018      140000
 1019 05b7 7524     		jne	.L36
GAS LISTING /tmp/ccWIaY8W.s 			page 41


 329:/home/xingli/share/LiteOS_Lab/network/dtls/mbedtls/mbedtls-2.16.2/library/error.c ****             mbedtls_snprintf( buf, buflen, "PEM - Unavailable feature, e.g. hashing/encryption comb
 1020              		.loc 1 329 13
 1021 05b9 4C8B0500 		movq	mbedtls_snprintf(%rip), %r8
 1021      000000
 1022 05c0 488B4DC8 		movq	-56(%rbp), %rcx
 1023 05c4 488B45D0 		movq	-48(%rbp), %rax
 1024 05c8 488D1500 		leaq	.LC30(%rip), %rdx
 1024      000000
 1025 05cf 4889CE   		movq	%rcx, %rsi
 1026 05d2 4889C7   		movq	%rax, %rdi
 1027 05d5 B8000000 		movl	$0, %eax
 1027      00
 1028 05da 41FFD0   		call	*%r8
 1029              	.LVL30:
 1030              	.L36:
 330:/home/xingli/share/LiteOS_Lab/network/dtls/mbedtls/mbedtls-2.16.2/library/error.c ****         if( use_ret == -(MBEDTLS_ERR_PEM_BAD_INPUT_DATA) )
 1031              		.loc 1 330 11
 1032 05dd 817DEC80 		cmpl	$5248, -20(%rbp)
 1032      140000
 1033 05e4 7524     		jne	.L37
 331:/home/xingli/share/LiteOS_Lab/network/dtls/mbedtls/mbedtls-2.16.2/library/error.c ****             mbedtls_snprintf( buf, buflen, "PEM - Bad input parameters to function" );
 1034              		.loc 1 331 13
 1035 05e6 4C8B0500 		movq	mbedtls_snprintf(%rip), %r8
 1035      000000
 1036 05ed 488B4DC8 		movq	-56(%rbp), %rcx
 1037 05f1 488B45D0 		movq	-48(%rbp), %rax
 1038 05f5 488D1500 		leaq	.LC31(%rip), %rdx
 1038      000000
 1039 05fc 4889CE   		movq	%rcx, %rsi
 1040 05ff 4889C7   		movq	%rax, %rdi
 1041 0602 B8000000 		movl	$0, %eax
 1041      00
 1042 0607 41FFD0   		call	*%r8
 1043              	.LVL31:
 1044              	.L37:
 332:/home/xingli/share/LiteOS_Lab/network/dtls/mbedtls/mbedtls-2.16.2/library/error.c **** #endif /* MBEDTLS_PEM_PARSE_C || MBEDTLS_PEM_WRITE_C */
 333:/home/xingli/share/LiteOS_Lab/network/dtls/mbedtls/mbedtls-2.16.2/library/error.c **** 
 334:/home/xingli/share/LiteOS_Lab/network/dtls/mbedtls/mbedtls-2.16.2/library/error.c **** #if defined(MBEDTLS_PK_C)
 335:/home/xingli/share/LiteOS_Lab/network/dtls/mbedtls/mbedtls-2.16.2/library/error.c ****         if( use_ret == -(MBEDTLS_ERR_PK_ALLOC_FAILED) )
 1045              		.loc 1 335 11
 1046 060a 817DEC80 		cmpl	$16256, -20(%rbp)
 1046      3F0000
 1047 0611 7524     		jne	.L38
 336:/home/xingli/share/LiteOS_Lab/network/dtls/mbedtls/mbedtls-2.16.2/library/error.c ****             mbedtls_snprintf( buf, buflen, "PK - Memory allocation failed" );
 1048              		.loc 1 336 13
 1049 0613 4C8B0500 		movq	mbedtls_snprintf(%rip), %r8
 1049      000000
 1050 061a 488B4DC8 		movq	-56(%rbp), %rcx
 1051 061e 488B45D0 		movq	-48(%rbp), %rax
 1052 0622 488D1500 		leaq	.LC32(%rip), %rdx
 1052      000000
 1053 0629 4889CE   		movq	%rcx, %rsi
 1054 062c 4889C7   		movq	%rax, %rdi
 1055 062f B8000000 		movl	$0, %eax
 1055      00
 1056 0634 41FFD0   		call	*%r8
 1057              	.LVL32:
GAS LISTING /tmp/ccWIaY8W.s 			page 42


 1058              	.L38:
 337:/home/xingli/share/LiteOS_Lab/network/dtls/mbedtls/mbedtls-2.16.2/library/error.c ****         if( use_ret == -(MBEDTLS_ERR_PK_TYPE_MISMATCH) )
 1059              		.loc 1 337 11
 1060 0637 817DEC00 		cmpl	$16128, -20(%rbp)
 1060      3F0000
 1061 063e 7524     		jne	.L39
 338:/home/xingli/share/LiteOS_Lab/network/dtls/mbedtls/mbedtls-2.16.2/library/error.c ****             mbedtls_snprintf( buf, buflen, "PK - Type mismatch, eg attempt to encrypt with an ECDSA
 1062              		.loc 1 338 13
 1063 0640 4C8B0500 		movq	mbedtls_snprintf(%rip), %r8
 1063      000000
 1064 0647 488B4DC8 		movq	-56(%rbp), %rcx
 1065 064b 488B45D0 		movq	-48(%rbp), %rax
 1066 064f 488D1500 		leaq	.LC33(%rip), %rdx
 1066      000000
 1067 0656 4889CE   		movq	%rcx, %rsi
 1068 0659 4889C7   		movq	%rax, %rdi
 1069 065c B8000000 		movl	$0, %eax
 1069      00
 1070 0661 41FFD0   		call	*%r8
 1071              	.LVL33:
 1072              	.L39:
 339:/home/xingli/share/LiteOS_Lab/network/dtls/mbedtls/mbedtls-2.16.2/library/error.c ****         if( use_ret == -(MBEDTLS_ERR_PK_BAD_INPUT_DATA) )
 1073              		.loc 1 339 11
 1074 0664 817DEC80 		cmpl	$16000, -20(%rbp)
 1074      3E0000
 1075 066b 7524     		jne	.L40
 340:/home/xingli/share/LiteOS_Lab/network/dtls/mbedtls/mbedtls-2.16.2/library/error.c ****             mbedtls_snprintf( buf, buflen, "PK - Bad input parameters to function" );
 1076              		.loc 1 340 13
 1077 066d 4C8B0500 		movq	mbedtls_snprintf(%rip), %r8
 1077      000000
 1078 0674 488B4DC8 		movq	-56(%rbp), %rcx
 1079 0678 488B45D0 		movq	-48(%rbp), %rax
 1080 067c 488D1500 		leaq	.LC34(%rip), %rdx
 1080      000000
 1081 0683 4889CE   		movq	%rcx, %rsi
 1082 0686 4889C7   		movq	%rax, %rdi
 1083 0689 B8000000 		movl	$0, %eax
 1083      00
 1084 068e 41FFD0   		call	*%r8
 1085              	.LVL34:
 1086              	.L40:
 341:/home/xingli/share/LiteOS_Lab/network/dtls/mbedtls/mbedtls-2.16.2/library/error.c ****         if( use_ret == -(MBEDTLS_ERR_PK_FILE_IO_ERROR) )
 1087              		.loc 1 341 11
 1088 0691 817DEC00 		cmpl	$15872, -20(%rbp)
 1088      3E0000
 1089 0698 7524     		jne	.L41
 342:/home/xingli/share/LiteOS_Lab/network/dtls/mbedtls/mbedtls-2.16.2/library/error.c ****             mbedtls_snprintf( buf, buflen, "PK - Read/write of file failed" );
 1090              		.loc 1 342 13
 1091 069a 4C8B0500 		movq	mbedtls_snprintf(%rip), %r8
 1091      000000
 1092 06a1 488B4DC8 		movq	-56(%rbp), %rcx
 1093 06a5 488B45D0 		movq	-48(%rbp), %rax
 1094 06a9 488D1500 		leaq	.LC35(%rip), %rdx
 1094      000000
 1095 06b0 4889CE   		movq	%rcx, %rsi
 1096 06b3 4889C7   		movq	%rax, %rdi
 1097 06b6 B8000000 		movl	$0, %eax
GAS LISTING /tmp/ccWIaY8W.s 			page 43


 1097      00
 1098 06bb 41FFD0   		call	*%r8
 1099              	.LVL35:
 1100              	.L41:
 343:/home/xingli/share/LiteOS_Lab/network/dtls/mbedtls/mbedtls-2.16.2/library/error.c ****         if( use_ret == -(MBEDTLS_ERR_PK_KEY_INVALID_VERSION) )
 1101              		.loc 1 343 11
 1102 06be 817DEC80 		cmpl	$15744, -20(%rbp)
 1102      3D0000
 1103 06c5 7524     		jne	.L42
 344:/home/xingli/share/LiteOS_Lab/network/dtls/mbedtls/mbedtls-2.16.2/library/error.c ****             mbedtls_snprintf( buf, buflen, "PK - Unsupported key version" );
 1104              		.loc 1 344 13
 1105 06c7 4C8B0500 		movq	mbedtls_snprintf(%rip), %r8
 1105      000000
 1106 06ce 488B4DC8 		movq	-56(%rbp), %rcx
 1107 06d2 488B45D0 		movq	-48(%rbp), %rax
 1108 06d6 488D1500 		leaq	.LC36(%rip), %rdx
 1108      000000
 1109 06dd 4889CE   		movq	%rcx, %rsi
 1110 06e0 4889C7   		movq	%rax, %rdi
 1111 06e3 B8000000 		movl	$0, %eax
 1111      00
 1112 06e8 41FFD0   		call	*%r8
 1113              	.LVL36:
 1114              	.L42:
 345:/home/xingli/share/LiteOS_Lab/network/dtls/mbedtls/mbedtls-2.16.2/library/error.c ****         if( use_ret == -(MBEDTLS_ERR_PK_KEY_INVALID_FORMAT) )
 1115              		.loc 1 345 11
 1116 06eb 817DEC00 		cmpl	$15616, -20(%rbp)
 1116      3D0000
 1117 06f2 7524     		jne	.L43
 346:/home/xingli/share/LiteOS_Lab/network/dtls/mbedtls/mbedtls-2.16.2/library/error.c ****             mbedtls_snprintf( buf, buflen, "PK - Invalid key tag or value" );
 1118              		.loc 1 346 13
 1119 06f4 4C8B0500 		movq	mbedtls_snprintf(%rip), %r8
 1119      000000
 1120 06fb 488B4DC8 		movq	-56(%rbp), %rcx
 1121 06ff 488B45D0 		movq	-48(%rbp), %rax
 1122 0703 488D1500 		leaq	.LC37(%rip), %rdx
 1122      000000
 1123 070a 4889CE   		movq	%rcx, %rsi
 1124 070d 4889C7   		movq	%rax, %rdi
 1125 0710 B8000000 		movl	$0, %eax
 1125      00
 1126 0715 41FFD0   		call	*%r8
 1127              	.LVL37:
 1128              	.L43:
 347:/home/xingli/share/LiteOS_Lab/network/dtls/mbedtls/mbedtls-2.16.2/library/error.c ****         if( use_ret == -(MBEDTLS_ERR_PK_UNKNOWN_PK_ALG) )
 1129              		.loc 1 347 11
 1130 0718 817DEC80 		cmpl	$15488, -20(%rbp)
 1130      3C0000
 1131 071f 7524     		jne	.L44
 348:/home/xingli/share/LiteOS_Lab/network/dtls/mbedtls/mbedtls-2.16.2/library/error.c ****             mbedtls_snprintf( buf, buflen, "PK - Key algorithm is unsupported (only RSA and EC are 
 1132              		.loc 1 348 13
 1133 0721 4C8B0500 		movq	mbedtls_snprintf(%rip), %r8
 1133      000000
 1134 0728 488B4DC8 		movq	-56(%rbp), %rcx
 1135 072c 488B45D0 		movq	-48(%rbp), %rax
 1136 0730 488D1500 		leaq	.LC38(%rip), %rdx
 1136      000000
GAS LISTING /tmp/ccWIaY8W.s 			page 44


 1137 0737 4889CE   		movq	%rcx, %rsi
 1138 073a 4889C7   		movq	%rax, %rdi
 1139 073d B8000000 		movl	$0, %eax
 1139      00
 1140 0742 41FFD0   		call	*%r8
 1141              	.LVL38:
 1142              	.L44:
 349:/home/xingli/share/LiteOS_Lab/network/dtls/mbedtls/mbedtls-2.16.2/library/error.c ****         if( use_ret == -(MBEDTLS_ERR_PK_PASSWORD_REQUIRED) )
 1143              		.loc 1 349 11
 1144 0745 817DEC00 		cmpl	$15360, -20(%rbp)
 1144      3C0000
 1145 074c 7524     		jne	.L45
 350:/home/xingli/share/LiteOS_Lab/network/dtls/mbedtls/mbedtls-2.16.2/library/error.c ****             mbedtls_snprintf( buf, buflen, "PK - Private key password can't be empty" );
 1146              		.loc 1 350 13
 1147 074e 4C8B0500 		movq	mbedtls_snprintf(%rip), %r8
 1147      000000
 1148 0755 488B4DC8 		movq	-56(%rbp), %rcx
 1149 0759 488B45D0 		movq	-48(%rbp), %rax
 1150 075d 488D1500 		leaq	.LC39(%rip), %rdx
 1150      000000
 1151 0764 4889CE   		movq	%rcx, %rsi
 1152 0767 4889C7   		movq	%rax, %rdi
 1153 076a B8000000 		movl	$0, %eax
 1153      00
 1154 076f 41FFD0   		call	*%r8
 1155              	.LVL39:
 1156              	.L45:
 351:/home/xingli/share/LiteOS_Lab/network/dtls/mbedtls/mbedtls-2.16.2/library/error.c ****         if( use_ret == -(MBEDTLS_ERR_PK_PASSWORD_MISMATCH) )
 1157              		.loc 1 351 11
 1158 0772 817DEC80 		cmpl	$15232, -20(%rbp)
 1158      3B0000
 1159 0779 7524     		jne	.L46
 352:/home/xingli/share/LiteOS_Lab/network/dtls/mbedtls/mbedtls-2.16.2/library/error.c ****             mbedtls_snprintf( buf, buflen, "PK - Given private key password does not allow for corr
 1160              		.loc 1 352 13
 1161 077b 4C8B0500 		movq	mbedtls_snprintf(%rip), %r8
 1161      000000
 1162 0782 488B4DC8 		movq	-56(%rbp), %rcx
 1163 0786 488B45D0 		movq	-48(%rbp), %rax
 1164 078a 488D1500 		leaq	.LC40(%rip), %rdx
 1164      000000
 1165 0791 4889CE   		movq	%rcx, %rsi
 1166 0794 4889C7   		movq	%rax, %rdi
 1167 0797 B8000000 		movl	$0, %eax
 1167      00
 1168 079c 41FFD0   		call	*%r8
 1169              	.LVL40:
 1170              	.L46:
 353:/home/xingli/share/LiteOS_Lab/network/dtls/mbedtls/mbedtls-2.16.2/library/error.c ****         if( use_ret == -(MBEDTLS_ERR_PK_INVALID_PUBKEY) )
 1171              		.loc 1 353 11
 1172 079f 817DEC00 		cmpl	$15104, -20(%rbp)
 1172      3B0000
 1173 07a6 7524     		jne	.L47
 354:/home/xingli/share/LiteOS_Lab/network/dtls/mbedtls/mbedtls-2.16.2/library/error.c ****             mbedtls_snprintf( buf, buflen, "PK - The pubkey tag or value is invalid (only RSA and E
 1174              		.loc 1 354 13
 1175 07a8 4C8B0500 		movq	mbedtls_snprintf(%rip), %r8
 1175      000000
 1176 07af 488B4DC8 		movq	-56(%rbp), %rcx
GAS LISTING /tmp/ccWIaY8W.s 			page 45


 1177 07b3 488B45D0 		movq	-48(%rbp), %rax
 1178 07b7 488D1500 		leaq	.LC41(%rip), %rdx
 1178      000000
 1179 07be 4889CE   		movq	%rcx, %rsi
 1180 07c1 4889C7   		movq	%rax, %rdi
 1181 07c4 B8000000 		movl	$0, %eax
 1181      00
 1182 07c9 41FFD0   		call	*%r8
 1183              	.LVL41:
 1184              	.L47:
 355:/home/xingli/share/LiteOS_Lab/network/dtls/mbedtls/mbedtls-2.16.2/library/error.c ****         if( use_ret == -(MBEDTLS_ERR_PK_INVALID_ALG) )
 1185              		.loc 1 355 11
 1186 07cc 817DEC80 		cmpl	$14976, -20(%rbp)
 1186      3A0000
 1187 07d3 7524     		jne	.L48
 356:/home/xingli/share/LiteOS_Lab/network/dtls/mbedtls/mbedtls-2.16.2/library/error.c ****             mbedtls_snprintf( buf, buflen, "PK - The algorithm tag or value is invalid" );
 1188              		.loc 1 356 13
 1189 07d5 4C8B0500 		movq	mbedtls_snprintf(%rip), %r8
 1189      000000
 1190 07dc 488B4DC8 		movq	-56(%rbp), %rcx
 1191 07e0 488B45D0 		movq	-48(%rbp), %rax
 1192 07e4 488D1500 		leaq	.LC42(%rip), %rdx
 1192      000000
 1193 07eb 4889CE   		movq	%rcx, %rsi
 1194 07ee 4889C7   		movq	%rax, %rdi
 1195 07f1 B8000000 		movl	$0, %eax
 1195      00
 1196 07f6 41FFD0   		call	*%r8
 1197              	.LVL42:
 1198              	.L48:
 357:/home/xingli/share/LiteOS_Lab/network/dtls/mbedtls/mbedtls-2.16.2/library/error.c ****         if( use_ret == -(MBEDTLS_ERR_PK_UNKNOWN_NAMED_CURVE) )
 1199              		.loc 1 357 11
 1200 07f9 817DEC00 		cmpl	$14848, -20(%rbp)
 1200      3A0000
 1201 0800 7524     		jne	.L49
 358:/home/xingli/share/LiteOS_Lab/network/dtls/mbedtls/mbedtls-2.16.2/library/error.c ****             mbedtls_snprintf( buf, buflen, "PK - Elliptic curve is unsupported (only NIST curves ar
 1202              		.loc 1 358 13
 1203 0802 4C8B0500 		movq	mbedtls_snprintf(%rip), %r8
 1203      000000
 1204 0809 488B4DC8 		movq	-56(%rbp), %rcx
 1205 080d 488B45D0 		movq	-48(%rbp), %rax
 1206 0811 488D1500 		leaq	.LC43(%rip), %rdx
 1206      000000
 1207 0818 4889CE   		movq	%rcx, %rsi
 1208 081b 4889C7   		movq	%rax, %rdi
 1209 081e B8000000 		movl	$0, %eax
 1209      00
 1210 0823 41FFD0   		call	*%r8
 1211              	.LVL43:
 1212              	.L49:
 359:/home/xingli/share/LiteOS_Lab/network/dtls/mbedtls/mbedtls-2.16.2/library/error.c ****         if( use_ret == -(MBEDTLS_ERR_PK_FEATURE_UNAVAILABLE) )
 1213              		.loc 1 359 11
 1214 0826 817DEC80 		cmpl	$14720, -20(%rbp)
 1214      390000
 1215 082d 7524     		jne	.L50
 360:/home/xingli/share/LiteOS_Lab/network/dtls/mbedtls/mbedtls-2.16.2/library/error.c ****             mbedtls_snprintf( buf, buflen, "PK - Unavailable feature, e.g. RSA disabled for RSA key
 1216              		.loc 1 360 13
GAS LISTING /tmp/ccWIaY8W.s 			page 46


 1217 082f 4C8B0500 		movq	mbedtls_snprintf(%rip), %r8
 1217      000000
 1218 0836 488B4DC8 		movq	-56(%rbp), %rcx
 1219 083a 488B45D0 		movq	-48(%rbp), %rax
 1220 083e 488D1500 		leaq	.LC44(%rip), %rdx
 1220      000000
 1221 0845 4889CE   		movq	%rcx, %rsi
 1222 0848 4889C7   		movq	%rax, %rdi
 1223 084b B8000000 		movl	$0, %eax
 1223      00
 1224 0850 41FFD0   		call	*%r8
 1225              	.LVL44:
 1226              	.L50:
 361:/home/xingli/share/LiteOS_Lab/network/dtls/mbedtls/mbedtls-2.16.2/library/error.c ****         if( use_ret == -(MBEDTLS_ERR_PK_SIG_LEN_MISMATCH) )
 1227              		.loc 1 361 11
 1228 0853 817DEC00 		cmpl	$14592, -20(%rbp)
 1228      390000
 1229 085a 7524     		jne	.L51
 362:/home/xingli/share/LiteOS_Lab/network/dtls/mbedtls/mbedtls-2.16.2/library/error.c ****             mbedtls_snprintf( buf, buflen, "PK - The buffer contains a valid signature followed by 
 1230              		.loc 1 362 13
 1231 085c 4C8B0500 		movq	mbedtls_snprintf(%rip), %r8
 1231      000000
 1232 0863 488B4DC8 		movq	-56(%rbp), %rcx
 1233 0867 488B45D0 		movq	-48(%rbp), %rax
 1234 086b 488D1500 		leaq	.LC45(%rip), %rdx
 1234      000000
 1235 0872 4889CE   		movq	%rcx, %rsi
 1236 0875 4889C7   		movq	%rax, %rdi
 1237 0878 B8000000 		movl	$0, %eax
 1237      00
 1238 087d 41FFD0   		call	*%r8
 1239              	.LVL45:
 1240              	.L51:
 363:/home/xingli/share/LiteOS_Lab/network/dtls/mbedtls/mbedtls-2.16.2/library/error.c ****         if( use_ret == -(MBEDTLS_ERR_PK_HW_ACCEL_FAILED) )
 1241              		.loc 1 363 11
 1242 0880 817DEC80 		cmpl	$14464, -20(%rbp)
 1242      380000
 1243 0887 7524     		jne	.L52
 364:/home/xingli/share/LiteOS_Lab/network/dtls/mbedtls/mbedtls-2.16.2/library/error.c ****             mbedtls_snprintf( buf, buflen, "PK - PK hardware accelerator failed" );
 1244              		.loc 1 364 13
 1245 0889 4C8B0500 		movq	mbedtls_snprintf(%rip), %r8
 1245      000000
 1246 0890 488B4DC8 		movq	-56(%rbp), %rcx
 1247 0894 488B45D0 		movq	-48(%rbp), %rax
 1248 0898 488D1500 		leaq	.LC46(%rip), %rdx
 1248      000000
 1249 089f 4889CE   		movq	%rcx, %rsi
 1250 08a2 4889C7   		movq	%rax, %rdi
 1251 08a5 B8000000 		movl	$0, %eax
 1251      00
 1252 08aa 41FFD0   		call	*%r8
 1253              	.LVL46:
 1254              	.L52:
 365:/home/xingli/share/LiteOS_Lab/network/dtls/mbedtls/mbedtls-2.16.2/library/error.c **** #endif /* MBEDTLS_PK_C */
 366:/home/xingli/share/LiteOS_Lab/network/dtls/mbedtls/mbedtls-2.16.2/library/error.c **** 
 367:/home/xingli/share/LiteOS_Lab/network/dtls/mbedtls/mbedtls-2.16.2/library/error.c **** #if defined(MBEDTLS_PKCS12_C)
 368:/home/xingli/share/LiteOS_Lab/network/dtls/mbedtls/mbedtls-2.16.2/library/error.c ****         if( use_ret == -(MBEDTLS_ERR_PKCS12_BAD_INPUT_DATA) )
GAS LISTING /tmp/ccWIaY8W.s 			page 47


 1255              		.loc 1 368 11
 1256 08ad 817DEC80 		cmpl	$8064, -20(%rbp)
 1256      1F0000
 1257 08b4 7524     		jne	.L53
 369:/home/xingli/share/LiteOS_Lab/network/dtls/mbedtls/mbedtls-2.16.2/library/error.c ****             mbedtls_snprintf( buf, buflen, "PKCS12 - Bad input parameters to function" );
 1258              		.loc 1 369 13
 1259 08b6 4C8B0500 		movq	mbedtls_snprintf(%rip), %r8
 1259      000000
 1260 08bd 488B4DC8 		movq	-56(%rbp), %rcx
 1261 08c1 488B45D0 		movq	-48(%rbp), %rax
 1262 08c5 488D1500 		leaq	.LC47(%rip), %rdx
 1262      000000
 1263 08cc 4889CE   		movq	%rcx, %rsi
 1264 08cf 4889C7   		movq	%rax, %rdi
 1265 08d2 B8000000 		movl	$0, %eax
 1265      00
 1266 08d7 41FFD0   		call	*%r8
 1267              	.LVL47:
 1268              	.L53:
 370:/home/xingli/share/LiteOS_Lab/network/dtls/mbedtls/mbedtls-2.16.2/library/error.c ****         if( use_ret == -(MBEDTLS_ERR_PKCS12_FEATURE_UNAVAILABLE) )
 1269              		.loc 1 370 11
 1270 08da 817DEC00 		cmpl	$7936, -20(%rbp)
 1270      1F0000
 1271 08e1 7524     		jne	.L54
 371:/home/xingli/share/LiteOS_Lab/network/dtls/mbedtls/mbedtls-2.16.2/library/error.c ****             mbedtls_snprintf( buf, buflen, "PKCS12 - Feature not available, e.g. unsupported encryp
 1272              		.loc 1 371 13
 1273 08e3 4C8B0500 		movq	mbedtls_snprintf(%rip), %r8
 1273      000000
 1274 08ea 488B4DC8 		movq	-56(%rbp), %rcx
 1275 08ee 488B45D0 		movq	-48(%rbp), %rax
 1276 08f2 488D1500 		leaq	.LC48(%rip), %rdx
 1276      000000
 1277 08f9 4889CE   		movq	%rcx, %rsi
 1278 08fc 4889C7   		movq	%rax, %rdi
 1279 08ff B8000000 		movl	$0, %eax
 1279      00
 1280 0904 41FFD0   		call	*%r8
 1281              	.LVL48:
 1282              	.L54:
 372:/home/xingli/share/LiteOS_Lab/network/dtls/mbedtls/mbedtls-2.16.2/library/error.c ****         if( use_ret == -(MBEDTLS_ERR_PKCS12_PBE_INVALID_FORMAT) )
 1283              		.loc 1 372 11
 1284 0907 817DEC80 		cmpl	$7808, -20(%rbp)
 1284      1E0000
 1285 090e 7524     		jne	.L55
 373:/home/xingli/share/LiteOS_Lab/network/dtls/mbedtls/mbedtls-2.16.2/library/error.c ****             mbedtls_snprintf( buf, buflen, "PKCS12 - PBE ASN.1 data not as expected" );
 1286              		.loc 1 373 13
 1287 0910 4C8B0500 		movq	mbedtls_snprintf(%rip), %r8
 1287      000000
 1288 0917 488B4DC8 		movq	-56(%rbp), %rcx
 1289 091b 488B45D0 		movq	-48(%rbp), %rax
 1290 091f 488D1500 		leaq	.LC49(%rip), %rdx
 1290      000000
 1291 0926 4889CE   		movq	%rcx, %rsi
 1292 0929 4889C7   		movq	%rax, %rdi
 1293 092c B8000000 		movl	$0, %eax
 1293      00
 1294 0931 41FFD0   		call	*%r8
GAS LISTING /tmp/ccWIaY8W.s 			page 48


 1295              	.LVL49:
 1296              	.L55:
 374:/home/xingli/share/LiteOS_Lab/network/dtls/mbedtls/mbedtls-2.16.2/library/error.c ****         if( use_ret == -(MBEDTLS_ERR_PKCS12_PASSWORD_MISMATCH) )
 1297              		.loc 1 374 11
 1298 0934 817DEC00 		cmpl	$7680, -20(%rbp)
 1298      1E0000
 1299 093b 7524     		jne	.L56
 375:/home/xingli/share/LiteOS_Lab/network/dtls/mbedtls/mbedtls-2.16.2/library/error.c ****             mbedtls_snprintf( buf, buflen, "PKCS12 - Given private key password does not allow for 
 1300              		.loc 1 375 13
 1301 093d 4C8B0500 		movq	mbedtls_snprintf(%rip), %r8
 1301      000000
 1302 0944 488B4DC8 		movq	-56(%rbp), %rcx
 1303 0948 488B45D0 		movq	-48(%rbp), %rax
 1304 094c 488D1500 		leaq	.LC50(%rip), %rdx
 1304      000000
 1305 0953 4889CE   		movq	%rcx, %rsi
 1306 0956 4889C7   		movq	%rax, %rdi
 1307 0959 B8000000 		movl	$0, %eax
 1307      00
 1308 095e 41FFD0   		call	*%r8
 1309              	.LVL50:
 1310              	.L56:
 376:/home/xingli/share/LiteOS_Lab/network/dtls/mbedtls/mbedtls-2.16.2/library/error.c **** #endif /* MBEDTLS_PKCS12_C */
 377:/home/xingli/share/LiteOS_Lab/network/dtls/mbedtls/mbedtls-2.16.2/library/error.c **** 
 378:/home/xingli/share/LiteOS_Lab/network/dtls/mbedtls/mbedtls-2.16.2/library/error.c **** #if defined(MBEDTLS_PKCS5_C)
 379:/home/xingli/share/LiteOS_Lab/network/dtls/mbedtls/mbedtls-2.16.2/library/error.c ****         if( use_ret == -(MBEDTLS_ERR_PKCS5_BAD_INPUT_DATA) )
 1311              		.loc 1 379 11
 1312 0961 817DEC80 		cmpl	$12160, -20(%rbp)
 1312      2F0000
 1313 0968 7524     		jne	.L57
 380:/home/xingli/share/LiteOS_Lab/network/dtls/mbedtls/mbedtls-2.16.2/library/error.c ****             mbedtls_snprintf( buf, buflen, "PKCS5 - Bad input parameters to function" );
 1314              		.loc 1 380 13
 1315 096a 4C8B0500 		movq	mbedtls_snprintf(%rip), %r8
 1315      000000
 1316 0971 488B4DC8 		movq	-56(%rbp), %rcx
 1317 0975 488B45D0 		movq	-48(%rbp), %rax
 1318 0979 488D1500 		leaq	.LC51(%rip), %rdx
 1318      000000
 1319 0980 4889CE   		movq	%rcx, %rsi
 1320 0983 4889C7   		movq	%rax, %rdi
 1321 0986 B8000000 		movl	$0, %eax
 1321      00
 1322 098b 41FFD0   		call	*%r8
 1323              	.LVL51:
 1324              	.L57:
 381:/home/xingli/share/LiteOS_Lab/network/dtls/mbedtls/mbedtls-2.16.2/library/error.c ****         if( use_ret == -(MBEDTLS_ERR_PKCS5_INVALID_FORMAT) )
 1325              		.loc 1 381 11
 1326 098e 817DEC00 		cmpl	$12032, -20(%rbp)
 1326      2F0000
 1327 0995 7524     		jne	.L58
 382:/home/xingli/share/LiteOS_Lab/network/dtls/mbedtls/mbedtls-2.16.2/library/error.c ****             mbedtls_snprintf( buf, buflen, "PKCS5 - Unexpected ASN.1 data" );
 1328              		.loc 1 382 13
 1329 0997 4C8B0500 		movq	mbedtls_snprintf(%rip), %r8
 1329      000000
 1330 099e 488B4DC8 		movq	-56(%rbp), %rcx
 1331 09a2 488B45D0 		movq	-48(%rbp), %rax
 1332 09a6 488D1500 		leaq	.LC52(%rip), %rdx
GAS LISTING /tmp/ccWIaY8W.s 			page 49


 1332      000000
 1333 09ad 4889CE   		movq	%rcx, %rsi
 1334 09b0 4889C7   		movq	%rax, %rdi
 1335 09b3 B8000000 		movl	$0, %eax
 1335      00
 1336 09b8 41FFD0   		call	*%r8
 1337              	.LVL52:
 1338              	.L58:
 383:/home/xingli/share/LiteOS_Lab/network/dtls/mbedtls/mbedtls-2.16.2/library/error.c ****         if( use_ret == -(MBEDTLS_ERR_PKCS5_FEATURE_UNAVAILABLE) )
 1339              		.loc 1 383 11
 1340 09bb 817DEC80 		cmpl	$11904, -20(%rbp)
 1340      2E0000
 1341 09c2 7524     		jne	.L59
 384:/home/xingli/share/LiteOS_Lab/network/dtls/mbedtls/mbedtls-2.16.2/library/error.c ****             mbedtls_snprintf( buf, buflen, "PKCS5 - Requested encryption or digest alg not availabl
 1342              		.loc 1 384 13
 1343 09c4 4C8B0500 		movq	mbedtls_snprintf(%rip), %r8
 1343      000000
 1344 09cb 488B4DC8 		movq	-56(%rbp), %rcx
 1345 09cf 488B45D0 		movq	-48(%rbp), %rax
 1346 09d3 488D1500 		leaq	.LC53(%rip), %rdx
 1346      000000
 1347 09da 4889CE   		movq	%rcx, %rsi
 1348 09dd 4889C7   		movq	%rax, %rdi
 1349 09e0 B8000000 		movl	$0, %eax
 1349      00
 1350 09e5 41FFD0   		call	*%r8
 1351              	.LVL53:
 1352              	.L59:
 385:/home/xingli/share/LiteOS_Lab/network/dtls/mbedtls/mbedtls-2.16.2/library/error.c ****         if( use_ret == -(MBEDTLS_ERR_PKCS5_PASSWORD_MISMATCH) )
 1353              		.loc 1 385 11
 1354 09e8 817DEC00 		cmpl	$11776, -20(%rbp)
 1354      2E0000
 1355 09ef 7524     		jne	.L60
 386:/home/xingli/share/LiteOS_Lab/network/dtls/mbedtls/mbedtls-2.16.2/library/error.c ****             mbedtls_snprintf( buf, buflen, "PKCS5 - Given private key password does not allow for c
 1356              		.loc 1 386 13
 1357 09f1 4C8B0500 		movq	mbedtls_snprintf(%rip), %r8
 1357      000000
 1358 09f8 488B4DC8 		movq	-56(%rbp), %rcx
 1359 09fc 488B45D0 		movq	-48(%rbp), %rax
 1360 0a00 488D1500 		leaq	.LC54(%rip), %rdx
 1360      000000
 1361 0a07 4889CE   		movq	%rcx, %rsi
 1362 0a0a 4889C7   		movq	%rax, %rdi
 1363 0a0d B8000000 		movl	$0, %eax
 1363      00
 1364 0a12 41FFD0   		call	*%r8
 1365              	.LVL54:
 1366              	.L60:
 387:/home/xingli/share/LiteOS_Lab/network/dtls/mbedtls/mbedtls-2.16.2/library/error.c **** #endif /* MBEDTLS_PKCS5_C */
 388:/home/xingli/share/LiteOS_Lab/network/dtls/mbedtls/mbedtls-2.16.2/library/error.c **** 
 389:/home/xingli/share/LiteOS_Lab/network/dtls/mbedtls/mbedtls-2.16.2/library/error.c **** #if defined(MBEDTLS_RSA_C)
 390:/home/xingli/share/LiteOS_Lab/network/dtls/mbedtls/mbedtls-2.16.2/library/error.c ****         if( use_ret == -(MBEDTLS_ERR_RSA_BAD_INPUT_DATA) )
 1367              		.loc 1 390 11
 1368 0a15 817DEC80 		cmpl	$16512, -20(%rbp)
 1368      400000
 1369 0a1c 7524     		jne	.L61
 391:/home/xingli/share/LiteOS_Lab/network/dtls/mbedtls/mbedtls-2.16.2/library/error.c ****             mbedtls_snprintf( buf, buflen, "RSA - Bad input parameters to function" );
GAS LISTING /tmp/ccWIaY8W.s 			page 50


 1370              		.loc 1 391 13
 1371 0a1e 4C8B0500 		movq	mbedtls_snprintf(%rip), %r8
 1371      000000
 1372 0a25 488B4DC8 		movq	-56(%rbp), %rcx
 1373 0a29 488B45D0 		movq	-48(%rbp), %rax
 1374 0a2d 488D1500 		leaq	.LC55(%rip), %rdx
 1374      000000
 1375 0a34 4889CE   		movq	%rcx, %rsi
 1376 0a37 4889C7   		movq	%rax, %rdi
 1377 0a3a B8000000 		movl	$0, %eax
 1377      00
 1378 0a3f 41FFD0   		call	*%r8
 1379              	.LVL55:
 1380              	.L61:
 392:/home/xingli/share/LiteOS_Lab/network/dtls/mbedtls/mbedtls-2.16.2/library/error.c ****         if( use_ret == -(MBEDTLS_ERR_RSA_INVALID_PADDING) )
 1381              		.loc 1 392 11
 1382 0a42 817DEC00 		cmpl	$16640, -20(%rbp)
 1382      410000
 1383 0a49 7524     		jne	.L62
 393:/home/xingli/share/LiteOS_Lab/network/dtls/mbedtls/mbedtls-2.16.2/library/error.c ****             mbedtls_snprintf( buf, buflen, "RSA - Input data contains invalid padding and is reject
 1384              		.loc 1 393 13
 1385 0a4b 4C8B0500 		movq	mbedtls_snprintf(%rip), %r8
 1385      000000
 1386 0a52 488B4DC8 		movq	-56(%rbp), %rcx
 1387 0a56 488B45D0 		movq	-48(%rbp), %rax
 1388 0a5a 488D1500 		leaq	.LC56(%rip), %rdx
 1388      000000
 1389 0a61 4889CE   		movq	%rcx, %rsi
 1390 0a64 4889C7   		movq	%rax, %rdi
 1391 0a67 B8000000 		movl	$0, %eax
 1391      00
 1392 0a6c 41FFD0   		call	*%r8
 1393              	.LVL56:
 1394              	.L62:
 394:/home/xingli/share/LiteOS_Lab/network/dtls/mbedtls/mbedtls-2.16.2/library/error.c ****         if( use_ret == -(MBEDTLS_ERR_RSA_KEY_GEN_FAILED) )
 1395              		.loc 1 394 11
 1396 0a6f 817DEC80 		cmpl	$16768, -20(%rbp)
 1396      410000
 1397 0a76 7524     		jne	.L63
 395:/home/xingli/share/LiteOS_Lab/network/dtls/mbedtls/mbedtls-2.16.2/library/error.c ****             mbedtls_snprintf( buf, buflen, "RSA - Something failed during generation of a key" );
 1398              		.loc 1 395 13
 1399 0a78 4C8B0500 		movq	mbedtls_snprintf(%rip), %r8
 1399      000000
 1400 0a7f 488B4DC8 		movq	-56(%rbp), %rcx
 1401 0a83 488B45D0 		movq	-48(%rbp), %rax
 1402 0a87 488D1500 		leaq	.LC57(%rip), %rdx
 1402      000000
 1403 0a8e 4889CE   		movq	%rcx, %rsi
 1404 0a91 4889C7   		movq	%rax, %rdi
 1405 0a94 B8000000 		movl	$0, %eax
 1405      00
 1406 0a99 41FFD0   		call	*%r8
 1407              	.LVL57:
 1408              	.L63:
 396:/home/xingli/share/LiteOS_Lab/network/dtls/mbedtls/mbedtls-2.16.2/library/error.c ****         if( use_ret == -(MBEDTLS_ERR_RSA_KEY_CHECK_FAILED) )
 1409              		.loc 1 396 11
 1410 0a9c 817DEC00 		cmpl	$16896, -20(%rbp)
GAS LISTING /tmp/ccWIaY8W.s 			page 51


 1410      420000
 1411 0aa3 7524     		jne	.L64
 397:/home/xingli/share/LiteOS_Lab/network/dtls/mbedtls/mbedtls-2.16.2/library/error.c ****             mbedtls_snprintf( buf, buflen, "RSA - Key failed to pass the validity check of the libr
 1412              		.loc 1 397 13
 1413 0aa5 4C8B0500 		movq	mbedtls_snprintf(%rip), %r8
 1413      000000
 1414 0aac 488B4DC8 		movq	-56(%rbp), %rcx
 1415 0ab0 488B45D0 		movq	-48(%rbp), %rax
 1416 0ab4 488D1500 		leaq	.LC58(%rip), %rdx
 1416      000000
 1417 0abb 4889CE   		movq	%rcx, %rsi
 1418 0abe 4889C7   		movq	%rax, %rdi
 1419 0ac1 B8000000 		movl	$0, %eax
 1419      00
 1420 0ac6 41FFD0   		call	*%r8
 1421              	.LVL58:
 1422              	.L64:
 398:/home/xingli/share/LiteOS_Lab/network/dtls/mbedtls/mbedtls-2.16.2/library/error.c ****         if( use_ret == -(MBEDTLS_ERR_RSA_PUBLIC_FAILED) )
 1423              		.loc 1 398 11
 1424 0ac9 817DEC80 		cmpl	$17024, -20(%rbp)
 1424      420000
 1425 0ad0 7524     		jne	.L65
 399:/home/xingli/share/LiteOS_Lab/network/dtls/mbedtls/mbedtls-2.16.2/library/error.c ****             mbedtls_snprintf( buf, buflen, "RSA - The public key operation failed" );
 1426              		.loc 1 399 13
 1427 0ad2 4C8B0500 		movq	mbedtls_snprintf(%rip), %r8
 1427      000000
 1428 0ad9 488B4DC8 		movq	-56(%rbp), %rcx
 1429 0add 488B45D0 		movq	-48(%rbp), %rax
 1430 0ae1 488D1500 		leaq	.LC59(%rip), %rdx
 1430      000000
 1431 0ae8 4889CE   		movq	%rcx, %rsi
 1432 0aeb 4889C7   		movq	%rax, %rdi
 1433 0aee B8000000 		movl	$0, %eax
 1433      00
 1434 0af3 41FFD0   		call	*%r8
 1435              	.LVL59:
 1436              	.L65:
 400:/home/xingli/share/LiteOS_Lab/network/dtls/mbedtls/mbedtls-2.16.2/library/error.c ****         if( use_ret == -(MBEDTLS_ERR_RSA_PRIVATE_FAILED) )
 1437              		.loc 1 400 11
 1438 0af6 817DEC00 		cmpl	$17152, -20(%rbp)
 1438      430000
 1439 0afd 7524     		jne	.L66
 401:/home/xingli/share/LiteOS_Lab/network/dtls/mbedtls/mbedtls-2.16.2/library/error.c ****             mbedtls_snprintf( buf, buflen, "RSA - The private key operation failed" );
 1440              		.loc 1 401 13
 1441 0aff 4C8B0500 		movq	mbedtls_snprintf(%rip), %r8
 1441      000000
 1442 0b06 488B4DC8 		movq	-56(%rbp), %rcx
 1443 0b0a 488B45D0 		movq	-48(%rbp), %rax
 1444 0b0e 488D1500 		leaq	.LC60(%rip), %rdx
 1444      000000
 1445 0b15 4889CE   		movq	%rcx, %rsi
 1446 0b18 4889C7   		movq	%rax, %rdi
 1447 0b1b B8000000 		movl	$0, %eax
 1447      00
 1448 0b20 41FFD0   		call	*%r8
 1449              	.LVL60:
 1450              	.L66:
GAS LISTING /tmp/ccWIaY8W.s 			page 52


 402:/home/xingli/share/LiteOS_Lab/network/dtls/mbedtls/mbedtls-2.16.2/library/error.c ****         if( use_ret == -(MBEDTLS_ERR_RSA_VERIFY_FAILED) )
 1451              		.loc 1 402 11
 1452 0b23 817DEC80 		cmpl	$17280, -20(%rbp)
 1452      430000
 1453 0b2a 7524     		jne	.L67
 403:/home/xingli/share/LiteOS_Lab/network/dtls/mbedtls/mbedtls-2.16.2/library/error.c ****             mbedtls_snprintf( buf, buflen, "RSA - The PKCS#1 verification failed" );
 1454              		.loc 1 403 13
 1455 0b2c 4C8B0500 		movq	mbedtls_snprintf(%rip), %r8
 1455      000000
 1456 0b33 488B4DC8 		movq	-56(%rbp), %rcx
 1457 0b37 488B45D0 		movq	-48(%rbp), %rax
 1458 0b3b 488D1500 		leaq	.LC61(%rip), %rdx
 1458      000000
 1459 0b42 4889CE   		movq	%rcx, %rsi
 1460 0b45 4889C7   		movq	%rax, %rdi
 1461 0b48 B8000000 		movl	$0, %eax
 1461      00
 1462 0b4d 41FFD0   		call	*%r8
 1463              	.LVL61:
 1464              	.L67:
 404:/home/xingli/share/LiteOS_Lab/network/dtls/mbedtls/mbedtls-2.16.2/library/error.c ****         if( use_ret == -(MBEDTLS_ERR_RSA_OUTPUT_TOO_LARGE) )
 1465              		.loc 1 404 11
 1466 0b50 817DEC00 		cmpl	$17408, -20(%rbp)
 1466      440000
 1467 0b57 7524     		jne	.L68
 405:/home/xingli/share/LiteOS_Lab/network/dtls/mbedtls/mbedtls-2.16.2/library/error.c ****             mbedtls_snprintf( buf, buflen, "RSA - The output buffer for decryption is not large eno
 1468              		.loc 1 405 13
 1469 0b59 4C8B0500 		movq	mbedtls_snprintf(%rip), %r8
 1469      000000
 1470 0b60 488B4DC8 		movq	-56(%rbp), %rcx
 1471 0b64 488B45D0 		movq	-48(%rbp), %rax
 1472 0b68 488D1500 		leaq	.LC62(%rip), %rdx
 1472      000000
 1473 0b6f 4889CE   		movq	%rcx, %rsi
 1474 0b72 4889C7   		movq	%rax, %rdi
 1475 0b75 B8000000 		movl	$0, %eax
 1475      00
 1476 0b7a 41FFD0   		call	*%r8
 1477              	.LVL62:
 1478              	.L68:
 406:/home/xingli/share/LiteOS_Lab/network/dtls/mbedtls/mbedtls-2.16.2/library/error.c ****         if( use_ret == -(MBEDTLS_ERR_RSA_RNG_FAILED) )
 1479              		.loc 1 406 11
 1480 0b7d 817DEC80 		cmpl	$17536, -20(%rbp)
 1480      440000
 1481 0b84 7524     		jne	.L69
 407:/home/xingli/share/LiteOS_Lab/network/dtls/mbedtls/mbedtls-2.16.2/library/error.c ****             mbedtls_snprintf( buf, buflen, "RSA - The random generator failed to generate non-zeros
 1482              		.loc 1 407 13
 1483 0b86 4C8B0500 		movq	mbedtls_snprintf(%rip), %r8
 1483      000000
 1484 0b8d 488B4DC8 		movq	-56(%rbp), %rcx
 1485 0b91 488B45D0 		movq	-48(%rbp), %rax
 1486 0b95 488D1500 		leaq	.LC63(%rip), %rdx
 1486      000000
 1487 0b9c 4889CE   		movq	%rcx, %rsi
 1488 0b9f 4889C7   		movq	%rax, %rdi
 1489 0ba2 B8000000 		movl	$0, %eax
 1489      00
GAS LISTING /tmp/ccWIaY8W.s 			page 53


 1490 0ba7 41FFD0   		call	*%r8
 1491              	.LVL63:
 1492              	.L69:
 408:/home/xingli/share/LiteOS_Lab/network/dtls/mbedtls/mbedtls-2.16.2/library/error.c ****         if( use_ret == -(MBEDTLS_ERR_RSA_UNSUPPORTED_OPERATION) )
 1493              		.loc 1 408 11
 1494 0baa 817DEC00 		cmpl	$17664, -20(%rbp)
 1494      450000
 1495 0bb1 7524     		jne	.L70
 409:/home/xingli/share/LiteOS_Lab/network/dtls/mbedtls/mbedtls-2.16.2/library/error.c ****             mbedtls_snprintf( buf, buflen, "RSA - The implementation does not offer the requested o
 1496              		.loc 1 409 13
 1497 0bb3 4C8B0500 		movq	mbedtls_snprintf(%rip), %r8
 1497      000000
 1498 0bba 488B4DC8 		movq	-56(%rbp), %rcx
 1499 0bbe 488B45D0 		movq	-48(%rbp), %rax
 1500 0bc2 488D1500 		leaq	.LC64(%rip), %rdx
 1500      000000
 1501 0bc9 4889CE   		movq	%rcx, %rsi
 1502 0bcc 4889C7   		movq	%rax, %rdi
 1503 0bcf B8000000 		movl	$0, %eax
 1503      00
 1504 0bd4 41FFD0   		call	*%r8
 1505              	.LVL64:
 1506              	.L70:
 410:/home/xingli/share/LiteOS_Lab/network/dtls/mbedtls/mbedtls-2.16.2/library/error.c ****         if( use_ret == -(MBEDTLS_ERR_RSA_HW_ACCEL_FAILED) )
 1507              		.loc 1 410 11
 1508 0bd7 817DEC80 		cmpl	$17792, -20(%rbp)
 1508      450000
 1509 0bde 7524     		jne	.L71
 411:/home/xingli/share/LiteOS_Lab/network/dtls/mbedtls/mbedtls-2.16.2/library/error.c ****             mbedtls_snprintf( buf, buflen, "RSA - RSA hardware accelerator failed" );
 1510              		.loc 1 411 13
 1511 0be0 4C8B0500 		movq	mbedtls_snprintf(%rip), %r8
 1511      000000
 1512 0be7 488B4DC8 		movq	-56(%rbp), %rcx
 1513 0beb 488B45D0 		movq	-48(%rbp), %rax
 1514 0bef 488D1500 		leaq	.LC65(%rip), %rdx
 1514      000000
 1515 0bf6 4889CE   		movq	%rcx, %rsi
 1516 0bf9 4889C7   		movq	%rax, %rdi
 1517 0bfc B8000000 		movl	$0, %eax
 1517      00
 1518 0c01 41FFD0   		call	*%r8
 1519              	.LVL65:
 1520              	.L71:
 412:/home/xingli/share/LiteOS_Lab/network/dtls/mbedtls/mbedtls-2.16.2/library/error.c **** #endif /* MBEDTLS_RSA_C */
 413:/home/xingli/share/LiteOS_Lab/network/dtls/mbedtls/mbedtls-2.16.2/library/error.c **** 
 414:/home/xingli/share/LiteOS_Lab/network/dtls/mbedtls/mbedtls-2.16.2/library/error.c **** #if defined(MBEDTLS_SSL_TLS_C)
 415:/home/xingli/share/LiteOS_Lab/network/dtls/mbedtls/mbedtls-2.16.2/library/error.c ****         if( use_ret == -(MBEDTLS_ERR_SSL_FEATURE_UNAVAILABLE) )
 1521              		.loc 1 415 11
 1522 0c04 817DEC80 		cmpl	$28800, -20(%rbp)
 1522      700000
 1523 0c0b 7524     		jne	.L72
 416:/home/xingli/share/LiteOS_Lab/network/dtls/mbedtls/mbedtls-2.16.2/library/error.c ****             mbedtls_snprintf( buf, buflen, "SSL - The requested feature is not available" );
 1524              		.loc 1 416 13
 1525 0c0d 4C8B0500 		movq	mbedtls_snprintf(%rip), %r8
 1525      000000
 1526 0c14 488B4DC8 		movq	-56(%rbp), %rcx
 1527 0c18 488B45D0 		movq	-48(%rbp), %rax
GAS LISTING /tmp/ccWIaY8W.s 			page 54


 1528 0c1c 488D1500 		leaq	.LC66(%rip), %rdx
 1528      000000
 1529 0c23 4889CE   		movq	%rcx, %rsi
 1530 0c26 4889C7   		movq	%rax, %rdi
 1531 0c29 B8000000 		movl	$0, %eax
 1531      00
 1532 0c2e 41FFD0   		call	*%r8
 1533              	.LVL66:
 1534              	.L72:
 417:/home/xingli/share/LiteOS_Lab/network/dtls/mbedtls/mbedtls-2.16.2/library/error.c ****         if( use_ret == -(MBEDTLS_ERR_SSL_BAD_INPUT_DATA) )
 1535              		.loc 1 417 11
 1536 0c31 817DEC00 		cmpl	$28928, -20(%rbp)
 1536      710000
 1537 0c38 7524     		jne	.L73
 418:/home/xingli/share/LiteOS_Lab/network/dtls/mbedtls/mbedtls-2.16.2/library/error.c ****             mbedtls_snprintf( buf, buflen, "SSL - Bad input parameters to function" );
 1538              		.loc 1 418 13
 1539 0c3a 4C8B0500 		movq	mbedtls_snprintf(%rip), %r8
 1539      000000
 1540 0c41 488B4DC8 		movq	-56(%rbp), %rcx
 1541 0c45 488B45D0 		movq	-48(%rbp), %rax
 1542 0c49 488D1500 		leaq	.LC67(%rip), %rdx
 1542      000000
 1543 0c50 4889CE   		movq	%rcx, %rsi
 1544 0c53 4889C7   		movq	%rax, %rdi
 1545 0c56 B8000000 		movl	$0, %eax
 1545      00
 1546 0c5b 41FFD0   		call	*%r8
 1547              	.LVL67:
 1548              	.L73:
 419:/home/xingli/share/LiteOS_Lab/network/dtls/mbedtls/mbedtls-2.16.2/library/error.c ****         if( use_ret == -(MBEDTLS_ERR_SSL_INVALID_MAC) )
 1549              		.loc 1 419 11
 1550 0c5e 817DEC80 		cmpl	$29056, -20(%rbp)
 1550      710000
 1551 0c65 7524     		jne	.L74
 420:/home/xingli/share/LiteOS_Lab/network/dtls/mbedtls/mbedtls-2.16.2/library/error.c ****             mbedtls_snprintf( buf, buflen, "SSL - Verification of the message MAC failed" );
 1552              		.loc 1 420 13
 1553 0c67 4C8B0500 		movq	mbedtls_snprintf(%rip), %r8
 1553      000000
 1554 0c6e 488B4DC8 		movq	-56(%rbp), %rcx
 1555 0c72 488B45D0 		movq	-48(%rbp), %rax
 1556 0c76 488D1500 		leaq	.LC68(%rip), %rdx
 1556      000000
 1557 0c7d 4889CE   		movq	%rcx, %rsi
 1558 0c80 4889C7   		movq	%rax, %rdi
 1559 0c83 B8000000 		movl	$0, %eax
 1559      00
 1560 0c88 41FFD0   		call	*%r8
 1561              	.LVL68:
 1562              	.L74:
 421:/home/xingli/share/LiteOS_Lab/network/dtls/mbedtls/mbedtls-2.16.2/library/error.c ****         if( use_ret == -(MBEDTLS_ERR_SSL_INVALID_RECORD) )
 1563              		.loc 1 421 11
 1564 0c8b 817DEC00 		cmpl	$29184, -20(%rbp)
 1564      720000
 1565 0c92 7524     		jne	.L75
 422:/home/xingli/share/LiteOS_Lab/network/dtls/mbedtls/mbedtls-2.16.2/library/error.c ****             mbedtls_snprintf( buf, buflen, "SSL - An invalid SSL record was received" );
 1566              		.loc 1 422 13
 1567 0c94 4C8B0500 		movq	mbedtls_snprintf(%rip), %r8
GAS LISTING /tmp/ccWIaY8W.s 			page 55


 1567      000000
 1568 0c9b 488B4DC8 		movq	-56(%rbp), %rcx
 1569 0c9f 488B45D0 		movq	-48(%rbp), %rax
 1570 0ca3 488D1500 		leaq	.LC69(%rip), %rdx
 1570      000000
 1571 0caa 4889CE   		movq	%rcx, %rsi
 1572 0cad 4889C7   		movq	%rax, %rdi
 1573 0cb0 B8000000 		movl	$0, %eax
 1573      00
 1574 0cb5 41FFD0   		call	*%r8
 1575              	.LVL69:
 1576              	.L75:
 423:/home/xingli/share/LiteOS_Lab/network/dtls/mbedtls/mbedtls-2.16.2/library/error.c ****         if( use_ret == -(MBEDTLS_ERR_SSL_CONN_EOF) )
 1577              		.loc 1 423 11
 1578 0cb8 817DEC80 		cmpl	$29312, -20(%rbp)
 1578      720000
 1579 0cbf 7524     		jne	.L76
 424:/home/xingli/share/LiteOS_Lab/network/dtls/mbedtls/mbedtls-2.16.2/library/error.c ****             mbedtls_snprintf( buf, buflen, "SSL - The connection indicated an EOF" );
 1580              		.loc 1 424 13
 1581 0cc1 4C8B0500 		movq	mbedtls_snprintf(%rip), %r8
 1581      000000
 1582 0cc8 488B4DC8 		movq	-56(%rbp), %rcx
 1583 0ccc 488B45D0 		movq	-48(%rbp), %rax
 1584 0cd0 488D1500 		leaq	.LC70(%rip), %rdx
 1584      000000
 1585 0cd7 4889CE   		movq	%rcx, %rsi
 1586 0cda 4889C7   		movq	%rax, %rdi
 1587 0cdd B8000000 		movl	$0, %eax
 1587      00
 1588 0ce2 41FFD0   		call	*%r8
 1589              	.LVL70:
 1590              	.L76:
 425:/home/xingli/share/LiteOS_Lab/network/dtls/mbedtls/mbedtls-2.16.2/library/error.c ****         if( use_ret == -(MBEDTLS_ERR_SSL_UNKNOWN_CIPHER) )
 1591              		.loc 1 425 11
 1592 0ce5 817DEC00 		cmpl	$29440, -20(%rbp)
 1592      730000
 1593 0cec 7524     		jne	.L77
 426:/home/xingli/share/LiteOS_Lab/network/dtls/mbedtls/mbedtls-2.16.2/library/error.c ****             mbedtls_snprintf( buf, buflen, "SSL - An unknown cipher was received" );
 1594              		.loc 1 426 13
 1595 0cee 4C8B0500 		movq	mbedtls_snprintf(%rip), %r8
 1595      000000
 1596 0cf5 488B4DC8 		movq	-56(%rbp), %rcx
 1597 0cf9 488B45D0 		movq	-48(%rbp), %rax
 1598 0cfd 488D1500 		leaq	.LC71(%rip), %rdx
 1598      000000
 1599 0d04 4889CE   		movq	%rcx, %rsi
 1600 0d07 4889C7   		movq	%rax, %rdi
 1601 0d0a B8000000 		movl	$0, %eax
 1601      00
 1602 0d0f 41FFD0   		call	*%r8
 1603              	.LVL71:
 1604              	.L77:
 427:/home/xingli/share/LiteOS_Lab/network/dtls/mbedtls/mbedtls-2.16.2/library/error.c ****         if( use_ret == -(MBEDTLS_ERR_SSL_NO_CIPHER_CHOSEN) )
 1605              		.loc 1 427 11
 1606 0d12 817DEC80 		cmpl	$29568, -20(%rbp)
 1606      730000
 1607 0d19 7524     		jne	.L78
GAS LISTING /tmp/ccWIaY8W.s 			page 56


 428:/home/xingli/share/LiteOS_Lab/network/dtls/mbedtls/mbedtls-2.16.2/library/error.c ****             mbedtls_snprintf( buf, buflen, "SSL - The server has no ciphersuites in common with the
 1608              		.loc 1 428 13
 1609 0d1b 4C8B0500 		movq	mbedtls_snprintf(%rip), %r8
 1609      000000
 1610 0d22 488B4DC8 		movq	-56(%rbp), %rcx
 1611 0d26 488B45D0 		movq	-48(%rbp), %rax
 1612 0d2a 488D1500 		leaq	.LC72(%rip), %rdx
 1612      000000
 1613 0d31 4889CE   		movq	%rcx, %rsi
 1614 0d34 4889C7   		movq	%rax, %rdi
 1615 0d37 B8000000 		movl	$0, %eax
 1615      00
 1616 0d3c 41FFD0   		call	*%r8
 1617              	.LVL72:
 1618              	.L78:
 429:/home/xingli/share/LiteOS_Lab/network/dtls/mbedtls/mbedtls-2.16.2/library/error.c ****         if( use_ret == -(MBEDTLS_ERR_SSL_NO_RNG) )
 1619              		.loc 1 429 11
 1620 0d3f 817DEC00 		cmpl	$29696, -20(%rbp)
 1620      740000
 1621 0d46 7524     		jne	.L79
 430:/home/xingli/share/LiteOS_Lab/network/dtls/mbedtls/mbedtls-2.16.2/library/error.c ****             mbedtls_snprintf( buf, buflen, "SSL - No RNG was provided to the SSL module" );
 1622              		.loc 1 430 13
 1623 0d48 4C8B0500 		movq	mbedtls_snprintf(%rip), %r8
 1623      000000
 1624 0d4f 488B4DC8 		movq	-56(%rbp), %rcx
 1625 0d53 488B45D0 		movq	-48(%rbp), %rax
 1626 0d57 488D1500 		leaq	.LC73(%rip), %rdx
 1626      000000
 1627 0d5e 4889CE   		movq	%rcx, %rsi
 1628 0d61 4889C7   		movq	%rax, %rdi
 1629 0d64 B8000000 		movl	$0, %eax
 1629      00
 1630 0d69 41FFD0   		call	*%r8
 1631              	.LVL73:
 1632              	.L79:
 431:/home/xingli/share/LiteOS_Lab/network/dtls/mbedtls/mbedtls-2.16.2/library/error.c ****         if( use_ret == -(MBEDTLS_ERR_SSL_NO_CLIENT_CERTIFICATE) )
 1633              		.loc 1 431 11
 1634 0d6c 817DEC80 		cmpl	$29824, -20(%rbp)
 1634      740000
 1635 0d73 7524     		jne	.L80
 432:/home/xingli/share/LiteOS_Lab/network/dtls/mbedtls/mbedtls-2.16.2/library/error.c ****             mbedtls_snprintf( buf, buflen, "SSL - No client certification received from the client,
 1636              		.loc 1 432 13
 1637 0d75 4C8B0500 		movq	mbedtls_snprintf(%rip), %r8
 1637      000000
 1638 0d7c 488B4DC8 		movq	-56(%rbp), %rcx
 1639 0d80 488B45D0 		movq	-48(%rbp), %rax
 1640 0d84 488D1500 		leaq	.LC74(%rip), %rdx
 1640      000000
 1641 0d8b 4889CE   		movq	%rcx, %rsi
 1642 0d8e 4889C7   		movq	%rax, %rdi
 1643 0d91 B8000000 		movl	$0, %eax
 1643      00
 1644 0d96 41FFD0   		call	*%r8
 1645              	.LVL74:
 1646              	.L80:
 433:/home/xingli/share/LiteOS_Lab/network/dtls/mbedtls/mbedtls-2.16.2/library/error.c ****         if( use_ret == -(MBEDTLS_ERR_SSL_CERTIFICATE_TOO_LARGE) )
 1647              		.loc 1 433 11
GAS LISTING /tmp/ccWIaY8W.s 			page 57


 1648 0d99 817DEC00 		cmpl	$29952, -20(%rbp)
 1648      750000
 1649 0da0 7524     		jne	.L81
 434:/home/xingli/share/LiteOS_Lab/network/dtls/mbedtls/mbedtls-2.16.2/library/error.c ****             mbedtls_snprintf( buf, buflen, "SSL - Our own certificate(s) is/are too large to send i
 1650              		.loc 1 434 13
 1651 0da2 4C8B0500 		movq	mbedtls_snprintf(%rip), %r8
 1651      000000
 1652 0da9 488B4DC8 		movq	-56(%rbp), %rcx
 1653 0dad 488B45D0 		movq	-48(%rbp), %rax
 1654 0db1 488D1500 		leaq	.LC75(%rip), %rdx
 1654      000000
 1655 0db8 4889CE   		movq	%rcx, %rsi
 1656 0dbb 4889C7   		movq	%rax, %rdi
 1657 0dbe B8000000 		movl	$0, %eax
 1657      00
 1658 0dc3 41FFD0   		call	*%r8
 1659              	.LVL75:
 1660              	.L81:
 435:/home/xingli/share/LiteOS_Lab/network/dtls/mbedtls/mbedtls-2.16.2/library/error.c ****         if( use_ret == -(MBEDTLS_ERR_SSL_CERTIFICATE_REQUIRED) )
 1661              		.loc 1 435 11
 1662 0dc6 817DEC80 		cmpl	$30080, -20(%rbp)
 1662      750000
 1663 0dcd 7524     		jne	.L82
 436:/home/xingli/share/LiteOS_Lab/network/dtls/mbedtls/mbedtls-2.16.2/library/error.c ****             mbedtls_snprintf( buf, buflen, "SSL - The own certificate is not set, but needed by the
 1664              		.loc 1 436 13
 1665 0dcf 4C8B0500 		movq	mbedtls_snprintf(%rip), %r8
 1665      000000
 1666 0dd6 488B4DC8 		movq	-56(%rbp), %rcx
 1667 0dda 488B45D0 		movq	-48(%rbp), %rax
 1668 0dde 488D1500 		leaq	.LC76(%rip), %rdx
 1668      000000
 1669 0de5 4889CE   		movq	%rcx, %rsi
 1670 0de8 4889C7   		movq	%rax, %rdi
 1671 0deb B8000000 		movl	$0, %eax
 1671      00
 1672 0df0 41FFD0   		call	*%r8
 1673              	.LVL76:
 1674              	.L82:
 437:/home/xingli/share/LiteOS_Lab/network/dtls/mbedtls/mbedtls-2.16.2/library/error.c ****         if( use_ret == -(MBEDTLS_ERR_SSL_PRIVATE_KEY_REQUIRED) )
 1675              		.loc 1 437 11
 1676 0df3 817DEC00 		cmpl	$30208, -20(%rbp)
 1676      760000
 1677 0dfa 7524     		jne	.L83
 438:/home/xingli/share/LiteOS_Lab/network/dtls/mbedtls/mbedtls-2.16.2/library/error.c ****             mbedtls_snprintf( buf, buflen, "SSL - The own private key or pre-shared key is not set,
 1678              		.loc 1 438 13
 1679 0dfc 4C8B0500 		movq	mbedtls_snprintf(%rip), %r8
 1679      000000
 1680 0e03 488B4DC8 		movq	-56(%rbp), %rcx
 1681 0e07 488B45D0 		movq	-48(%rbp), %rax
 1682 0e0b 488D1500 		leaq	.LC77(%rip), %rdx
 1682      000000
 1683 0e12 4889CE   		movq	%rcx, %rsi
 1684 0e15 4889C7   		movq	%rax, %rdi
 1685 0e18 B8000000 		movl	$0, %eax
 1685      00
 1686 0e1d 41FFD0   		call	*%r8
 1687              	.LVL77:
GAS LISTING /tmp/ccWIaY8W.s 			page 58


 1688              	.L83:
 439:/home/xingli/share/LiteOS_Lab/network/dtls/mbedtls/mbedtls-2.16.2/library/error.c ****         if( use_ret == -(MBEDTLS_ERR_SSL_CA_CHAIN_REQUIRED) )
 1689              		.loc 1 439 11
 1690 0e20 817DEC80 		cmpl	$30336, -20(%rbp)
 1690      760000
 1691 0e27 7524     		jne	.L84
 440:/home/xingli/share/LiteOS_Lab/network/dtls/mbedtls/mbedtls-2.16.2/library/error.c ****             mbedtls_snprintf( buf, buflen, "SSL - No CA Chain is set, but required to operate" );
 1692              		.loc 1 440 13
 1693 0e29 4C8B0500 		movq	mbedtls_snprintf(%rip), %r8
 1693      000000
 1694 0e30 488B4DC8 		movq	-56(%rbp), %rcx
 1695 0e34 488B45D0 		movq	-48(%rbp), %rax
 1696 0e38 488D1500 		leaq	.LC78(%rip), %rdx
 1696      000000
 1697 0e3f 4889CE   		movq	%rcx, %rsi
 1698 0e42 4889C7   		movq	%rax, %rdi
 1699 0e45 B8000000 		movl	$0, %eax
 1699      00
 1700 0e4a 41FFD0   		call	*%r8
 1701              	.LVL78:
 1702              	.L84:
 441:/home/xingli/share/LiteOS_Lab/network/dtls/mbedtls/mbedtls-2.16.2/library/error.c ****         if( use_ret == -(MBEDTLS_ERR_SSL_UNEXPECTED_MESSAGE) )
 1703              		.loc 1 441 11
 1704 0e4d 817DEC00 		cmpl	$30464, -20(%rbp)
 1704      770000
 1705 0e54 7524     		jne	.L85
 442:/home/xingli/share/LiteOS_Lab/network/dtls/mbedtls/mbedtls-2.16.2/library/error.c ****             mbedtls_snprintf( buf, buflen, "SSL - An unexpected message was received from our peer"
 1706              		.loc 1 442 13
 1707 0e56 4C8B0500 		movq	mbedtls_snprintf(%rip), %r8
 1707      000000
 1708 0e5d 488B4DC8 		movq	-56(%rbp), %rcx
 1709 0e61 488B45D0 		movq	-48(%rbp), %rax
 1710 0e65 488D1500 		leaq	.LC79(%rip), %rdx
 1710      000000
 1711 0e6c 4889CE   		movq	%rcx, %rsi
 1712 0e6f 4889C7   		movq	%rax, %rdi
 1713 0e72 B8000000 		movl	$0, %eax
 1713      00
 1714 0e77 41FFD0   		call	*%r8
 1715              	.LVL79:
 1716              	.L85:
 443:/home/xingli/share/LiteOS_Lab/network/dtls/mbedtls/mbedtls-2.16.2/library/error.c ****         if( use_ret == -(MBEDTLS_ERR_SSL_FATAL_ALERT_MESSAGE) )
 1717              		.loc 1 443 11
 1718 0e7a 817DEC80 		cmpl	$30592, -20(%rbp)
 1718      770000
 1719 0e81 7529     		jne	.L86
 444:/home/xingli/share/LiteOS_Lab/network/dtls/mbedtls/mbedtls-2.16.2/library/error.c ****         {
 445:/home/xingli/share/LiteOS_Lab/network/dtls/mbedtls/mbedtls-2.16.2/library/error.c ****             mbedtls_snprintf( buf, buflen, "SSL - A fatal alert message was received from our peer"
 1720              		.loc 1 445 13
 1721 0e83 4C8B0500 		movq	mbedtls_snprintf(%rip), %r8
 1721      000000
 1722 0e8a 488B4DC8 		movq	-56(%rbp), %rcx
 1723 0e8e 488B45D0 		movq	-48(%rbp), %rax
 1724 0e92 488D1500 		leaq	.LC80(%rip), %rdx
 1724      000000
 1725 0e99 4889CE   		movq	%rcx, %rsi
 1726 0e9c 4889C7   		movq	%rax, %rdi
GAS LISTING /tmp/ccWIaY8W.s 			page 59


 1727 0e9f B8000000 		movl	$0, %eax
 1727      00
 1728 0ea4 41FFD0   		call	*%r8
 1729              	.LVL80:
 446:/home/xingli/share/LiteOS_Lab/network/dtls/mbedtls/mbedtls-2.16.2/library/error.c ****             return;
 1730              		.loc 1 446 13
 1731 0ea7 E9641200 		jmp	.L1
 1731      00
 1732              	.L86:
 447:/home/xingli/share/LiteOS_Lab/network/dtls/mbedtls/mbedtls-2.16.2/library/error.c ****         }
 448:/home/xingli/share/LiteOS_Lab/network/dtls/mbedtls/mbedtls-2.16.2/library/error.c ****         if( use_ret == -(MBEDTLS_ERR_SSL_PEER_VERIFY_FAILED) )
 1733              		.loc 1 448 11
 1734 0eac 817DEC00 		cmpl	$30720, -20(%rbp)
 1734      780000
 1735 0eb3 7524     		jne	.L87
 449:/home/xingli/share/LiteOS_Lab/network/dtls/mbedtls/mbedtls-2.16.2/library/error.c ****             mbedtls_snprintf( buf, buflen, "SSL - Verification of our peer failed" );
 1736              		.loc 1 449 13
 1737 0eb5 4C8B0500 		movq	mbedtls_snprintf(%rip), %r8
 1737      000000
 1738 0ebc 488B4DC8 		movq	-56(%rbp), %rcx
 1739 0ec0 488B45D0 		movq	-48(%rbp), %rax
 1740 0ec4 488D1500 		leaq	.LC81(%rip), %rdx
 1740      000000
 1741 0ecb 4889CE   		movq	%rcx, %rsi
 1742 0ece 4889C7   		movq	%rax, %rdi
 1743 0ed1 B8000000 		movl	$0, %eax
 1743      00
 1744 0ed6 41FFD0   		call	*%r8
 1745              	.LVL81:
 1746              	.L87:
 450:/home/xingli/share/LiteOS_Lab/network/dtls/mbedtls/mbedtls-2.16.2/library/error.c ****         if( use_ret == -(MBEDTLS_ERR_SSL_PEER_CLOSE_NOTIFY) )
 1747              		.loc 1 450 11
 1748 0ed9 817DEC80 		cmpl	$30848, -20(%rbp)
 1748      780000
 1749 0ee0 7524     		jne	.L88
 451:/home/xingli/share/LiteOS_Lab/network/dtls/mbedtls/mbedtls-2.16.2/library/error.c ****             mbedtls_snprintf( buf, buflen, "SSL - The peer notified us that the connection is going
 1750              		.loc 1 451 13
 1751 0ee2 4C8B0500 		movq	mbedtls_snprintf(%rip), %r8
 1751      000000
 1752 0ee9 488B4DC8 		movq	-56(%rbp), %rcx
 1753 0eed 488B45D0 		movq	-48(%rbp), %rax
 1754 0ef1 488D1500 		leaq	.LC82(%rip), %rdx
 1754      000000
 1755 0ef8 4889CE   		movq	%rcx, %rsi
 1756 0efb 4889C7   		movq	%rax, %rdi
 1757 0efe B8000000 		movl	$0, %eax
 1757      00
 1758 0f03 41FFD0   		call	*%r8
 1759              	.LVL82:
 1760              	.L88:
 452:/home/xingli/share/LiteOS_Lab/network/dtls/mbedtls/mbedtls-2.16.2/library/error.c ****         if( use_ret == -(MBEDTLS_ERR_SSL_BAD_HS_CLIENT_HELLO) )
 1761              		.loc 1 452 11
 1762 0f06 817DEC00 		cmpl	$30976, -20(%rbp)
 1762      790000
 1763 0f0d 7524     		jne	.L89
 453:/home/xingli/share/LiteOS_Lab/network/dtls/mbedtls/mbedtls-2.16.2/library/error.c ****             mbedtls_snprintf( buf, buflen, "SSL - Processing of the ClientHello handshake message f
 1764              		.loc 1 453 13
GAS LISTING /tmp/ccWIaY8W.s 			page 60


 1765 0f0f 4C8B0500 		movq	mbedtls_snprintf(%rip), %r8
 1765      000000
 1766 0f16 488B4DC8 		movq	-56(%rbp), %rcx
 1767 0f1a 488B45D0 		movq	-48(%rbp), %rax
 1768 0f1e 488D1500 		leaq	.LC83(%rip), %rdx
 1768      000000
 1769 0f25 4889CE   		movq	%rcx, %rsi
 1770 0f28 4889C7   		movq	%rax, %rdi
 1771 0f2b B8000000 		movl	$0, %eax
 1771      00
 1772 0f30 41FFD0   		call	*%r8
 1773              	.LVL83:
 1774              	.L89:
 454:/home/xingli/share/LiteOS_Lab/network/dtls/mbedtls/mbedtls-2.16.2/library/error.c ****         if( use_ret == -(MBEDTLS_ERR_SSL_BAD_HS_SERVER_HELLO) )
 1775              		.loc 1 454 11
 1776 0f33 817DEC80 		cmpl	$31104, -20(%rbp)
 1776      790000
 1777 0f3a 7524     		jne	.L90
 455:/home/xingli/share/LiteOS_Lab/network/dtls/mbedtls/mbedtls-2.16.2/library/error.c ****             mbedtls_snprintf( buf, buflen, "SSL - Processing of the ServerHello handshake message f
 1778              		.loc 1 455 13
 1779 0f3c 4C8B0500 		movq	mbedtls_snprintf(%rip), %r8
 1779      000000
 1780 0f43 488B4DC8 		movq	-56(%rbp), %rcx
 1781 0f47 488B45D0 		movq	-48(%rbp), %rax
 1782 0f4b 488D1500 		leaq	.LC84(%rip), %rdx
 1782      000000
 1783 0f52 4889CE   		movq	%rcx, %rsi
 1784 0f55 4889C7   		movq	%rax, %rdi
 1785 0f58 B8000000 		movl	$0, %eax
 1785      00
 1786 0f5d 41FFD0   		call	*%r8
 1787              	.LVL84:
 1788              	.L90:
 456:/home/xingli/share/LiteOS_Lab/network/dtls/mbedtls/mbedtls-2.16.2/library/error.c ****         if( use_ret == -(MBEDTLS_ERR_SSL_BAD_HS_CERTIFICATE) )
 1789              		.loc 1 456 11
 1790 0f60 817DEC00 		cmpl	$31232, -20(%rbp)
 1790      7A0000
 1791 0f67 7524     		jne	.L91
 457:/home/xingli/share/LiteOS_Lab/network/dtls/mbedtls/mbedtls-2.16.2/library/error.c ****             mbedtls_snprintf( buf, buflen, "SSL - Processing of the Certificate handshake message f
 1792              		.loc 1 457 13
 1793 0f69 4C8B0500 		movq	mbedtls_snprintf(%rip), %r8
 1793      000000
 1794 0f70 488B4DC8 		movq	-56(%rbp), %rcx
 1795 0f74 488B45D0 		movq	-48(%rbp), %rax
 1796 0f78 488D1500 		leaq	.LC85(%rip), %rdx
 1796      000000
 1797 0f7f 4889CE   		movq	%rcx, %rsi
 1798 0f82 4889C7   		movq	%rax, %rdi
 1799 0f85 B8000000 		movl	$0, %eax
 1799      00
 1800 0f8a 41FFD0   		call	*%r8
 1801              	.LVL85:
 1802              	.L91:
 458:/home/xingli/share/LiteOS_Lab/network/dtls/mbedtls/mbedtls-2.16.2/library/error.c ****         if( use_ret == -(MBEDTLS_ERR_SSL_BAD_HS_CERTIFICATE_REQUEST) )
 1803              		.loc 1 458 11
 1804 0f8d 817DEC80 		cmpl	$31360, -20(%rbp)
 1804      7A0000
GAS LISTING /tmp/ccWIaY8W.s 			page 61


 1805 0f94 7524     		jne	.L92
 459:/home/xingli/share/LiteOS_Lab/network/dtls/mbedtls/mbedtls-2.16.2/library/error.c ****             mbedtls_snprintf( buf, buflen, "SSL - Processing of the CertificateRequest handshake me
 1806              		.loc 1 459 13
 1807 0f96 4C8B0500 		movq	mbedtls_snprintf(%rip), %r8
 1807      000000
 1808 0f9d 488B4DC8 		movq	-56(%rbp), %rcx
 1809 0fa1 488B45D0 		movq	-48(%rbp), %rax
 1810 0fa5 488D1500 		leaq	.LC86(%rip), %rdx
 1810      000000
 1811 0fac 4889CE   		movq	%rcx, %rsi
 1812 0faf 4889C7   		movq	%rax, %rdi
 1813 0fb2 B8000000 		movl	$0, %eax
 1813      00
 1814 0fb7 41FFD0   		call	*%r8
 1815              	.LVL86:
 1816              	.L92:
 460:/home/xingli/share/LiteOS_Lab/network/dtls/mbedtls/mbedtls-2.16.2/library/error.c ****         if( use_ret == -(MBEDTLS_ERR_SSL_BAD_HS_SERVER_KEY_EXCHANGE) )
 1817              		.loc 1 460 11
 1818 0fba 817DEC00 		cmpl	$31488, -20(%rbp)
 1818      7B0000
 1819 0fc1 7524     		jne	.L93
 461:/home/xingli/share/LiteOS_Lab/network/dtls/mbedtls/mbedtls-2.16.2/library/error.c ****             mbedtls_snprintf( buf, buflen, "SSL - Processing of the ServerKeyExchange handshake mes
 1820              		.loc 1 461 13
 1821 0fc3 4C8B0500 		movq	mbedtls_snprintf(%rip), %r8
 1821      000000
 1822 0fca 488B4DC8 		movq	-56(%rbp), %rcx
 1823 0fce 488B45D0 		movq	-48(%rbp), %rax
 1824 0fd2 488D1500 		leaq	.LC87(%rip), %rdx
 1824      000000
 1825 0fd9 4889CE   		movq	%rcx, %rsi
 1826 0fdc 4889C7   		movq	%rax, %rdi
 1827 0fdf B8000000 		movl	$0, %eax
 1827      00
 1828 0fe4 41FFD0   		call	*%r8
 1829              	.LVL87:
 1830              	.L93:
 462:/home/xingli/share/LiteOS_Lab/network/dtls/mbedtls/mbedtls-2.16.2/library/error.c ****         if( use_ret == -(MBEDTLS_ERR_SSL_BAD_HS_SERVER_HELLO_DONE) )
 1831              		.loc 1 462 11
 1832 0fe7 817DEC80 		cmpl	$31616, -20(%rbp)
 1832      7B0000
 1833 0fee 7524     		jne	.L94
 463:/home/xingli/share/LiteOS_Lab/network/dtls/mbedtls/mbedtls-2.16.2/library/error.c ****             mbedtls_snprintf( buf, buflen, "SSL - Processing of the ServerHelloDone handshake messa
 1834              		.loc 1 463 13
 1835 0ff0 4C8B0500 		movq	mbedtls_snprintf(%rip), %r8
 1835      000000
 1836 0ff7 488B4DC8 		movq	-56(%rbp), %rcx
 1837 0ffb 488B45D0 		movq	-48(%rbp), %rax
 1838 0fff 488D1500 		leaq	.LC88(%rip), %rdx
 1838      000000
 1839 1006 4889CE   		movq	%rcx, %rsi
 1840 1009 4889C7   		movq	%rax, %rdi
 1841 100c B8000000 		movl	$0, %eax
 1841      00
 1842 1011 41FFD0   		call	*%r8
 1843              	.LVL88:
 1844              	.L94:
 464:/home/xingli/share/LiteOS_Lab/network/dtls/mbedtls/mbedtls-2.16.2/library/error.c ****         if( use_ret == -(MBEDTLS_ERR_SSL_BAD_HS_CLIENT_KEY_EXCHANGE) )
GAS LISTING /tmp/ccWIaY8W.s 			page 62


 1845              		.loc 1 464 11
 1846 1014 817DEC00 		cmpl	$31744, -20(%rbp)
 1846      7C0000
 1847 101b 7524     		jne	.L95
 465:/home/xingli/share/LiteOS_Lab/network/dtls/mbedtls/mbedtls-2.16.2/library/error.c ****             mbedtls_snprintf( buf, buflen, "SSL - Processing of the ClientKeyExchange handshake mes
 1848              		.loc 1 465 13
 1849 101d 4C8B0500 		movq	mbedtls_snprintf(%rip), %r8
 1849      000000
 1850 1024 488B4DC8 		movq	-56(%rbp), %rcx
 1851 1028 488B45D0 		movq	-48(%rbp), %rax
 1852 102c 488D1500 		leaq	.LC89(%rip), %rdx
 1852      000000
 1853 1033 4889CE   		movq	%rcx, %rsi
 1854 1036 4889C7   		movq	%rax, %rdi
 1855 1039 B8000000 		movl	$0, %eax
 1855      00
 1856 103e 41FFD0   		call	*%r8
 1857              	.LVL89:
 1858              	.L95:
 466:/home/xingli/share/LiteOS_Lab/network/dtls/mbedtls/mbedtls-2.16.2/library/error.c ****         if( use_ret == -(MBEDTLS_ERR_SSL_BAD_HS_CLIENT_KEY_EXCHANGE_RP) )
 1859              		.loc 1 466 11
 1860 1041 817DEC80 		cmpl	$31872, -20(%rbp)
 1860      7C0000
 1861 1048 7524     		jne	.L96
 467:/home/xingli/share/LiteOS_Lab/network/dtls/mbedtls/mbedtls-2.16.2/library/error.c ****             mbedtls_snprintf( buf, buflen, "SSL - Processing of the ClientKeyExchange handshake mes
 1862              		.loc 1 467 13
 1863 104a 4C8B0500 		movq	mbedtls_snprintf(%rip), %r8
 1863      000000
 1864 1051 488B4DC8 		movq	-56(%rbp), %rcx
 1865 1055 488B45D0 		movq	-48(%rbp), %rax
 1866 1059 488D1500 		leaq	.LC90(%rip), %rdx
 1866      000000
 1867 1060 4889CE   		movq	%rcx, %rsi
 1868 1063 4889C7   		movq	%rax, %rdi
 1869 1066 B8000000 		movl	$0, %eax
 1869      00
 1870 106b 41FFD0   		call	*%r8
 1871              	.LVL90:
 1872              	.L96:
 468:/home/xingli/share/LiteOS_Lab/network/dtls/mbedtls/mbedtls-2.16.2/library/error.c ****         if( use_ret == -(MBEDTLS_ERR_SSL_BAD_HS_CLIENT_KEY_EXCHANGE_CS) )
 1873              		.loc 1 468 11
 1874 106e 817DEC00 		cmpl	$32000, -20(%rbp)
 1874      7D0000
 1875 1075 7524     		jne	.L97
 469:/home/xingli/share/LiteOS_Lab/network/dtls/mbedtls/mbedtls-2.16.2/library/error.c ****             mbedtls_snprintf( buf, buflen, "SSL - Processing of the ClientKeyExchange handshake mes
 1876              		.loc 1 469 13
 1877 1077 4C8B0500 		movq	mbedtls_snprintf(%rip), %r8
 1877      000000
 1878 107e 488B4DC8 		movq	-56(%rbp), %rcx
 1879 1082 488B45D0 		movq	-48(%rbp), %rax
 1880 1086 488D1500 		leaq	.LC91(%rip), %rdx
 1880      000000
 1881 108d 4889CE   		movq	%rcx, %rsi
 1882 1090 4889C7   		movq	%rax, %rdi
 1883 1093 B8000000 		movl	$0, %eax
 1883      00
 1884 1098 41FFD0   		call	*%r8
GAS LISTING /tmp/ccWIaY8W.s 			page 63


 1885              	.LVL91:
 1886              	.L97:
 470:/home/xingli/share/LiteOS_Lab/network/dtls/mbedtls/mbedtls-2.16.2/library/error.c ****         if( use_ret == -(MBEDTLS_ERR_SSL_BAD_HS_CERTIFICATE_VERIFY) )
 1887              		.loc 1 470 11
 1888 109b 817DEC80 		cmpl	$32128, -20(%rbp)
 1888      7D0000
 1889 10a2 7524     		jne	.L98
 471:/home/xingli/share/LiteOS_Lab/network/dtls/mbedtls/mbedtls-2.16.2/library/error.c ****             mbedtls_snprintf( buf, buflen, "SSL - Processing of the CertificateVerify handshake mes
 1890              		.loc 1 471 13
 1891 10a4 4C8B0500 		movq	mbedtls_snprintf(%rip), %r8
 1891      000000
 1892 10ab 488B4DC8 		movq	-56(%rbp), %rcx
 1893 10af 488B45D0 		movq	-48(%rbp), %rax
 1894 10b3 488D1500 		leaq	.LC92(%rip), %rdx
 1894      000000
 1895 10ba 4889CE   		movq	%rcx, %rsi
 1896 10bd 4889C7   		movq	%rax, %rdi
 1897 10c0 B8000000 		movl	$0, %eax
 1897      00
 1898 10c5 41FFD0   		call	*%r8
 1899              	.LVL92:
 1900              	.L98:
 472:/home/xingli/share/LiteOS_Lab/network/dtls/mbedtls/mbedtls-2.16.2/library/error.c ****         if( use_ret == -(MBEDTLS_ERR_SSL_BAD_HS_CHANGE_CIPHER_SPEC) )
 1901              		.loc 1 472 11
 1902 10c8 817DEC00 		cmpl	$32256, -20(%rbp)
 1902      7E0000
 1903 10cf 7524     		jne	.L99
 473:/home/xingli/share/LiteOS_Lab/network/dtls/mbedtls/mbedtls-2.16.2/library/error.c ****             mbedtls_snprintf( buf, buflen, "SSL - Processing of the ChangeCipherSpec handshake mess
 1904              		.loc 1 473 13
 1905 10d1 4C8B0500 		movq	mbedtls_snprintf(%rip), %r8
 1905      000000
 1906 10d8 488B4DC8 		movq	-56(%rbp), %rcx
 1907 10dc 488B45D0 		movq	-48(%rbp), %rax
 1908 10e0 488D1500 		leaq	.LC93(%rip), %rdx
 1908      000000
 1909 10e7 4889CE   		movq	%rcx, %rsi
 1910 10ea 4889C7   		movq	%rax, %rdi
 1911 10ed B8000000 		movl	$0, %eax
 1911      00
 1912 10f2 41FFD0   		call	*%r8
 1913              	.LVL93:
 1914              	.L99:
 474:/home/xingli/share/LiteOS_Lab/network/dtls/mbedtls/mbedtls-2.16.2/library/error.c ****         if( use_ret == -(MBEDTLS_ERR_SSL_BAD_HS_FINISHED) )
 1915              		.loc 1 474 11
 1916 10f5 817DEC80 		cmpl	$32384, -20(%rbp)
 1916      7E0000
 1917 10fc 7524     		jne	.L100
 475:/home/xingli/share/LiteOS_Lab/network/dtls/mbedtls/mbedtls-2.16.2/library/error.c ****             mbedtls_snprintf( buf, buflen, "SSL - Processing of the Finished handshake message fail
 1918              		.loc 1 475 13
 1919 10fe 4C8B0500 		movq	mbedtls_snprintf(%rip), %r8
 1919      000000
 1920 1105 488B4DC8 		movq	-56(%rbp), %rcx
 1921 1109 488B45D0 		movq	-48(%rbp), %rax
 1922 110d 488D1500 		leaq	.LC94(%rip), %rdx
 1922      000000
 1923 1114 4889CE   		movq	%rcx, %rsi
 1924 1117 4889C7   		movq	%rax, %rdi
GAS LISTING /tmp/ccWIaY8W.s 			page 64


 1925 111a B8000000 		movl	$0, %eax
 1925      00
 1926 111f 41FFD0   		call	*%r8
 1927              	.LVL94:
 1928              	.L100:
 476:/home/xingli/share/LiteOS_Lab/network/dtls/mbedtls/mbedtls-2.16.2/library/error.c ****         if( use_ret == -(MBEDTLS_ERR_SSL_ALLOC_FAILED) )
 1929              		.loc 1 476 11
 1930 1122 817DEC00 		cmpl	$32512, -20(%rbp)
 1930      7F0000
 1931 1129 7524     		jne	.L101
 477:/home/xingli/share/LiteOS_Lab/network/dtls/mbedtls/mbedtls-2.16.2/library/error.c ****             mbedtls_snprintf( buf, buflen, "SSL - Memory allocation failed" );
 1932              		.loc 1 477 13
 1933 112b 4C8B0500 		movq	mbedtls_snprintf(%rip), %r8
 1933      000000
 1934 1132 488B4DC8 		movq	-56(%rbp), %rcx
 1935 1136 488B45D0 		movq	-48(%rbp), %rax
 1936 113a 488D1500 		leaq	.LC95(%rip), %rdx
 1936      000000
 1937 1141 4889CE   		movq	%rcx, %rsi
 1938 1144 4889C7   		movq	%rax, %rdi
 1939 1147 B8000000 		movl	$0, %eax
 1939      00
 1940 114c 41FFD0   		call	*%r8
 1941              	.LVL95:
 1942              	.L101:
 478:/home/xingli/share/LiteOS_Lab/network/dtls/mbedtls/mbedtls-2.16.2/library/error.c ****         if( use_ret == -(MBEDTLS_ERR_SSL_HW_ACCEL_FAILED) )
 1943              		.loc 1 478 11
 1944 114f 817DEC80 		cmpl	$32640, -20(%rbp)
 1944      7F0000
 1945 1156 7524     		jne	.L102
 479:/home/xingli/share/LiteOS_Lab/network/dtls/mbedtls/mbedtls-2.16.2/library/error.c ****             mbedtls_snprintf( buf, buflen, "SSL - Hardware acceleration function returned with erro
 1946              		.loc 1 479 13
 1947 1158 4C8B0500 		movq	mbedtls_snprintf(%rip), %r8
 1947      000000
 1948 115f 488B4DC8 		movq	-56(%rbp), %rcx
 1949 1163 488B45D0 		movq	-48(%rbp), %rax
 1950 1167 488D1500 		leaq	.LC96(%rip), %rdx
 1950      000000
 1951 116e 4889CE   		movq	%rcx, %rsi
 1952 1171 4889C7   		movq	%rax, %rdi
 1953 1174 B8000000 		movl	$0, %eax
 1953      00
 1954 1179 41FFD0   		call	*%r8
 1955              	.LVL96:
 1956              	.L102:
 480:/home/xingli/share/LiteOS_Lab/network/dtls/mbedtls/mbedtls-2.16.2/library/error.c ****         if( use_ret == -(MBEDTLS_ERR_SSL_HW_ACCEL_FALLTHROUGH) )
 1957              		.loc 1 480 11
 1958 117c 817DEC80 		cmpl	$28544, -20(%rbp)
 1958      6F0000
 1959 1183 7524     		jne	.L103
 481:/home/xingli/share/LiteOS_Lab/network/dtls/mbedtls/mbedtls-2.16.2/library/error.c ****             mbedtls_snprintf( buf, buflen, "SSL - Hardware acceleration function skipped / left alo
 1960              		.loc 1 481 13
 1961 1185 4C8B0500 		movq	mbedtls_snprintf(%rip), %r8
 1961      000000
 1962 118c 488B4DC8 		movq	-56(%rbp), %rcx
 1963 1190 488B45D0 		movq	-48(%rbp), %rax
 1964 1194 488D1500 		leaq	.LC97(%rip), %rdx
GAS LISTING /tmp/ccWIaY8W.s 			page 65


 1964      000000
 1965 119b 4889CE   		movq	%rcx, %rsi
 1966 119e 4889C7   		movq	%rax, %rdi
 1967 11a1 B8000000 		movl	$0, %eax
 1967      00
 1968 11a6 41FFD0   		call	*%r8
 1969              	.LVL97:
 1970              	.L103:
 482:/home/xingli/share/LiteOS_Lab/network/dtls/mbedtls/mbedtls-2.16.2/library/error.c ****         if( use_ret == -(MBEDTLS_ERR_SSL_COMPRESSION_FAILED) )
 1971              		.loc 1 482 11
 1972 11a9 817DEC00 		cmpl	$28416, -20(%rbp)
 1972      6F0000
 1973 11b0 7524     		jne	.L104
 483:/home/xingli/share/LiteOS_Lab/network/dtls/mbedtls/mbedtls-2.16.2/library/error.c ****             mbedtls_snprintf( buf, buflen, "SSL - Processing of the compression / decompression fai
 1974              		.loc 1 483 13
 1975 11b2 4C8B0500 		movq	mbedtls_snprintf(%rip), %r8
 1975      000000
 1976 11b9 488B4DC8 		movq	-56(%rbp), %rcx
 1977 11bd 488B45D0 		movq	-48(%rbp), %rax
 1978 11c1 488D1500 		leaq	.LC98(%rip), %rdx
 1978      000000
 1979 11c8 4889CE   		movq	%rcx, %rsi
 1980 11cb 4889C7   		movq	%rax, %rdi
 1981 11ce B8000000 		movl	$0, %eax
 1981      00
 1982 11d3 41FFD0   		call	*%r8
 1983              	.LVL98:
 1984              	.L104:
 484:/home/xingli/share/LiteOS_Lab/network/dtls/mbedtls/mbedtls-2.16.2/library/error.c ****         if( use_ret == -(MBEDTLS_ERR_SSL_BAD_HS_PROTOCOL_VERSION) )
 1985              		.loc 1 484 11
 1986 11d6 817DEC80 		cmpl	$28288, -20(%rbp)
 1986      6E0000
 1987 11dd 7524     		jne	.L105
 485:/home/xingli/share/LiteOS_Lab/network/dtls/mbedtls/mbedtls-2.16.2/library/error.c ****             mbedtls_snprintf( buf, buflen, "SSL - Handshake protocol not within min/max boundaries"
 1988              		.loc 1 485 13
 1989 11df 4C8B0500 		movq	mbedtls_snprintf(%rip), %r8
 1989      000000
 1990 11e6 488B4DC8 		movq	-56(%rbp), %rcx
 1991 11ea 488B45D0 		movq	-48(%rbp), %rax
 1992 11ee 488D1500 		leaq	.LC99(%rip), %rdx
 1992      000000
 1993 11f5 4889CE   		movq	%rcx, %rsi
 1994 11f8 4889C7   		movq	%rax, %rdi
 1995 11fb B8000000 		movl	$0, %eax
 1995      00
 1996 1200 41FFD0   		call	*%r8
 1997              	.LVL99:
 1998              	.L105:
 486:/home/xingli/share/LiteOS_Lab/network/dtls/mbedtls/mbedtls-2.16.2/library/error.c ****         if( use_ret == -(MBEDTLS_ERR_SSL_BAD_HS_NEW_SESSION_TICKET) )
 1999              		.loc 1 486 11
 2000 1203 817DEC00 		cmpl	$28160, -20(%rbp)
 2000      6E0000
 2001 120a 7524     		jne	.L106
 487:/home/xingli/share/LiteOS_Lab/network/dtls/mbedtls/mbedtls-2.16.2/library/error.c ****             mbedtls_snprintf( buf, buflen, "SSL - Processing of the NewSessionTicket handshake mess
 2002              		.loc 1 487 13
 2003 120c 4C8B0500 		movq	mbedtls_snprintf(%rip), %r8
 2003      000000
GAS LISTING /tmp/ccWIaY8W.s 			page 66


 2004 1213 488B4DC8 		movq	-56(%rbp), %rcx
 2005 1217 488B45D0 		movq	-48(%rbp), %rax
 2006 121b 488D1500 		leaq	.LC100(%rip), %rdx
 2006      000000
 2007 1222 4889CE   		movq	%rcx, %rsi
 2008 1225 4889C7   		movq	%rax, %rdi
 2009 1228 B8000000 		movl	$0, %eax
 2009      00
 2010 122d 41FFD0   		call	*%r8
 2011              	.LVL100:
 2012              	.L106:
 488:/home/xingli/share/LiteOS_Lab/network/dtls/mbedtls/mbedtls-2.16.2/library/error.c ****         if( use_ret == -(MBEDTLS_ERR_SSL_SESSION_TICKET_EXPIRED) )
 2013              		.loc 1 488 11
 2014 1230 817DEC80 		cmpl	$28032, -20(%rbp)
 2014      6D0000
 2015 1237 7524     		jne	.L107
 489:/home/xingli/share/LiteOS_Lab/network/dtls/mbedtls/mbedtls-2.16.2/library/error.c ****             mbedtls_snprintf( buf, buflen, "SSL - Session ticket has expired" );
 2016              		.loc 1 489 13
 2017 1239 4C8B0500 		movq	mbedtls_snprintf(%rip), %r8
 2017      000000
 2018 1240 488B4DC8 		movq	-56(%rbp), %rcx
 2019 1244 488B45D0 		movq	-48(%rbp), %rax
 2020 1248 488D1500 		leaq	.LC101(%rip), %rdx
 2020      000000
 2021 124f 4889CE   		movq	%rcx, %rsi
 2022 1252 4889C7   		movq	%rax, %rdi
 2023 1255 B8000000 		movl	$0, %eax
 2023      00
 2024 125a 41FFD0   		call	*%r8
 2025              	.LVL101:
 2026              	.L107:
 490:/home/xingli/share/LiteOS_Lab/network/dtls/mbedtls/mbedtls-2.16.2/library/error.c ****         if( use_ret == -(MBEDTLS_ERR_SSL_PK_TYPE_MISMATCH) )
 2027              		.loc 1 490 11
 2028 125d 817DEC00 		cmpl	$27904, -20(%rbp)
 2028      6D0000
 2029 1264 7524     		jne	.L108
 491:/home/xingli/share/LiteOS_Lab/network/dtls/mbedtls/mbedtls-2.16.2/library/error.c ****             mbedtls_snprintf( buf, buflen, "SSL - Public key type mismatch (eg, asked for RSA key e
 2030              		.loc 1 491 13
 2031 1266 4C8B0500 		movq	mbedtls_snprintf(%rip), %r8
 2031      000000
 2032 126d 488B4DC8 		movq	-56(%rbp), %rcx
 2033 1271 488B45D0 		movq	-48(%rbp), %rax
 2034 1275 488D1500 		leaq	.LC102(%rip), %rdx
 2034      000000
 2035 127c 4889CE   		movq	%rcx, %rsi
 2036 127f 4889C7   		movq	%rax, %rdi
 2037 1282 B8000000 		movl	$0, %eax
 2037      00
 2038 1287 41FFD0   		call	*%r8
 2039              	.LVL102:
 2040              	.L108:
 492:/home/xingli/share/LiteOS_Lab/network/dtls/mbedtls/mbedtls-2.16.2/library/error.c ****         if( use_ret == -(MBEDTLS_ERR_SSL_UNKNOWN_IDENTITY) )
 2041              		.loc 1 492 11
 2042 128a 817DEC80 		cmpl	$27776, -20(%rbp)
 2042      6C0000
 2043 1291 7524     		jne	.L109
 493:/home/xingli/share/LiteOS_Lab/network/dtls/mbedtls/mbedtls-2.16.2/library/error.c ****             mbedtls_snprintf( buf, buflen, "SSL - Unknown identity received (eg, PSK identity)" );
GAS LISTING /tmp/ccWIaY8W.s 			page 67


 2044              		.loc 1 493 13
 2045 1293 4C8B0500 		movq	mbedtls_snprintf(%rip), %r8
 2045      000000
 2046 129a 488B4DC8 		movq	-56(%rbp), %rcx
 2047 129e 488B45D0 		movq	-48(%rbp), %rax
 2048 12a2 488D1500 		leaq	.LC103(%rip), %rdx
 2048      000000
 2049 12a9 4889CE   		movq	%rcx, %rsi
 2050 12ac 4889C7   		movq	%rax, %rdi
 2051 12af B8000000 		movl	$0, %eax
 2051      00
 2052 12b4 41FFD0   		call	*%r8
 2053              	.LVL103:
 2054              	.L109:
 494:/home/xingli/share/LiteOS_Lab/network/dtls/mbedtls/mbedtls-2.16.2/library/error.c ****         if( use_ret == -(MBEDTLS_ERR_SSL_INTERNAL_ERROR) )
 2055              		.loc 1 494 11
 2056 12b7 817DEC00 		cmpl	$27648, -20(%rbp)
 2056      6C0000
 2057 12be 7524     		jne	.L110
 495:/home/xingli/share/LiteOS_Lab/network/dtls/mbedtls/mbedtls-2.16.2/library/error.c ****             mbedtls_snprintf( buf, buflen, "SSL - Internal error (eg, unexpected failure in lower-l
 2058              		.loc 1 495 13
 2059 12c0 4C8B0500 		movq	mbedtls_snprintf(%rip), %r8
 2059      000000
 2060 12c7 488B4DC8 		movq	-56(%rbp), %rcx
 2061 12cb 488B45D0 		movq	-48(%rbp), %rax
 2062 12cf 488D1500 		leaq	.LC104(%rip), %rdx
 2062      000000
 2063 12d6 4889CE   		movq	%rcx, %rsi
 2064 12d9 4889C7   		movq	%rax, %rdi
 2065 12dc B8000000 		movl	$0, %eax
 2065      00
 2066 12e1 41FFD0   		call	*%r8
 2067              	.LVL104:
 2068              	.L110:
 496:/home/xingli/share/LiteOS_Lab/network/dtls/mbedtls/mbedtls-2.16.2/library/error.c ****         if( use_ret == -(MBEDTLS_ERR_SSL_COUNTER_WRAPPING) )
 2069              		.loc 1 496 11
 2070 12e4 817DEC80 		cmpl	$27520, -20(%rbp)
 2070      6B0000
 2071 12eb 7524     		jne	.L111
 497:/home/xingli/share/LiteOS_Lab/network/dtls/mbedtls/mbedtls-2.16.2/library/error.c ****             mbedtls_snprintf( buf, buflen, "SSL - A counter would wrap (eg, too many messages excha
 2072              		.loc 1 497 13
 2073 12ed 4C8B0500 		movq	mbedtls_snprintf(%rip), %r8
 2073      000000
 2074 12f4 488B4DC8 		movq	-56(%rbp), %rcx
 2075 12f8 488B45D0 		movq	-48(%rbp), %rax
 2076 12fc 488D1500 		leaq	.LC105(%rip), %rdx
 2076      000000
 2077 1303 4889CE   		movq	%rcx, %rsi
 2078 1306 4889C7   		movq	%rax, %rdi
 2079 1309 B8000000 		movl	$0, %eax
 2079      00
 2080 130e 41FFD0   		call	*%r8
 2081              	.LVL105:
 2082              	.L111:
 498:/home/xingli/share/LiteOS_Lab/network/dtls/mbedtls/mbedtls-2.16.2/library/error.c ****         if( use_ret == -(MBEDTLS_ERR_SSL_WAITING_SERVER_HELLO_RENEGO) )
 2083              		.loc 1 498 11
 2084 1311 817DEC00 		cmpl	$27392, -20(%rbp)
GAS LISTING /tmp/ccWIaY8W.s 			page 68


 2084      6B0000
 2085 1318 7524     		jne	.L112
 499:/home/xingli/share/LiteOS_Lab/network/dtls/mbedtls/mbedtls-2.16.2/library/error.c ****             mbedtls_snprintf( buf, buflen, "SSL - Unexpected message at ServerHello in renegotiatio
 2086              		.loc 1 499 13
 2087 131a 4C8B0500 		movq	mbedtls_snprintf(%rip), %r8
 2087      000000
 2088 1321 488B4DC8 		movq	-56(%rbp), %rcx
 2089 1325 488B45D0 		movq	-48(%rbp), %rax
 2090 1329 488D1500 		leaq	.LC106(%rip), %rdx
 2090      000000
 2091 1330 4889CE   		movq	%rcx, %rsi
 2092 1333 4889C7   		movq	%rax, %rdi
 2093 1336 B8000000 		movl	$0, %eax
 2093      00
 2094 133b 41FFD0   		call	*%r8
 2095              	.LVL106:
 2096              	.L112:
 500:/home/xingli/share/LiteOS_Lab/network/dtls/mbedtls/mbedtls-2.16.2/library/error.c ****         if( use_ret == -(MBEDTLS_ERR_SSL_HELLO_VERIFY_REQUIRED) )
 2097              		.loc 1 500 11
 2098 133e 817DEC80 		cmpl	$27264, -20(%rbp)
 2098      6A0000
 2099 1345 7524     		jne	.L113
 501:/home/xingli/share/LiteOS_Lab/network/dtls/mbedtls/mbedtls-2.16.2/library/error.c ****             mbedtls_snprintf( buf, buflen, "SSL - DTLS client must retry for hello verification" );
 2100              		.loc 1 501 13
 2101 1347 4C8B0500 		movq	mbedtls_snprintf(%rip), %r8
 2101      000000
 2102 134e 488B4DC8 		movq	-56(%rbp), %rcx
 2103 1352 488B45D0 		movq	-48(%rbp), %rax
 2104 1356 488D1500 		leaq	.LC107(%rip), %rdx
 2104      000000
 2105 135d 4889CE   		movq	%rcx, %rsi
 2106 1360 4889C7   		movq	%rax, %rdi
 2107 1363 B8000000 		movl	$0, %eax
 2107      00
 2108 1368 41FFD0   		call	*%r8
 2109              	.LVL107:
 2110              	.L113:
 502:/home/xingli/share/LiteOS_Lab/network/dtls/mbedtls/mbedtls-2.16.2/library/error.c ****         if( use_ret == -(MBEDTLS_ERR_SSL_BUFFER_TOO_SMALL) )
 2111              		.loc 1 502 11
 2112 136b 817DEC00 		cmpl	$27136, -20(%rbp)
 2112      6A0000
 2113 1372 7524     		jne	.L114
 503:/home/xingli/share/LiteOS_Lab/network/dtls/mbedtls/mbedtls-2.16.2/library/error.c ****             mbedtls_snprintf( buf, buflen, "SSL - A buffer is too small to receive or write a messa
 2114              		.loc 1 503 13
 2115 1374 4C8B0500 		movq	mbedtls_snprintf(%rip), %r8
 2115      000000
 2116 137b 488B4DC8 		movq	-56(%rbp), %rcx
 2117 137f 488B45D0 		movq	-48(%rbp), %rax
 2118 1383 488D1500 		leaq	.LC108(%rip), %rdx
 2118      000000
 2119 138a 4889CE   		movq	%rcx, %rsi
 2120 138d 4889C7   		movq	%rax, %rdi
 2121 1390 B8000000 		movl	$0, %eax
 2121      00
 2122 1395 41FFD0   		call	*%r8
 2123              	.LVL108:
 2124              	.L114:
GAS LISTING /tmp/ccWIaY8W.s 			page 69


 504:/home/xingli/share/LiteOS_Lab/network/dtls/mbedtls/mbedtls-2.16.2/library/error.c ****         if( use_ret == -(MBEDTLS_ERR_SSL_NO_USABLE_CIPHERSUITE) )
 2125              		.loc 1 504 11
 2126 1398 817DEC80 		cmpl	$27008, -20(%rbp)
 2126      690000
 2127 139f 7524     		jne	.L115
 505:/home/xingli/share/LiteOS_Lab/network/dtls/mbedtls/mbedtls-2.16.2/library/error.c ****             mbedtls_snprintf( buf, buflen, "SSL - None of the common ciphersuites is usable (eg, no
 2128              		.loc 1 505 13
 2129 13a1 4C8B0500 		movq	mbedtls_snprintf(%rip), %r8
 2129      000000
 2130 13a8 488B4DC8 		movq	-56(%rbp), %rcx
 2131 13ac 488B45D0 		movq	-48(%rbp), %rax
 2132 13b0 488D1500 		leaq	.LC109(%rip), %rdx
 2132      000000
 2133 13b7 4889CE   		movq	%rcx, %rsi
 2134 13ba 4889C7   		movq	%rax, %rdi
 2135 13bd B8000000 		movl	$0, %eax
 2135      00
 2136 13c2 41FFD0   		call	*%r8
 2137              	.LVL109:
 2138              	.L115:
 506:/home/xingli/share/LiteOS_Lab/network/dtls/mbedtls/mbedtls-2.16.2/library/error.c ****         if( use_ret == -(MBEDTLS_ERR_SSL_WANT_READ) )
 2139              		.loc 1 506 11
 2140 13c5 817DEC00 		cmpl	$26880, -20(%rbp)
 2140      690000
 2141 13cc 7524     		jne	.L116
 507:/home/xingli/share/LiteOS_Lab/network/dtls/mbedtls/mbedtls-2.16.2/library/error.c ****             mbedtls_snprintf( buf, buflen, "SSL - No data of requested type currently available on 
 2142              		.loc 1 507 13
 2143 13ce 4C8B0500 		movq	mbedtls_snprintf(%rip), %r8
 2143      000000
 2144 13d5 488B4DC8 		movq	-56(%rbp), %rcx
 2145 13d9 488B45D0 		movq	-48(%rbp), %rax
 2146 13dd 488D1500 		leaq	.LC110(%rip), %rdx
 2146      000000
 2147 13e4 4889CE   		movq	%rcx, %rsi
 2148 13e7 4889C7   		movq	%rax, %rdi
 2149 13ea B8000000 		movl	$0, %eax
 2149      00
 2150 13ef 41FFD0   		call	*%r8
 2151              	.LVL110:
 2152              	.L116:
 508:/home/xingli/share/LiteOS_Lab/network/dtls/mbedtls/mbedtls-2.16.2/library/error.c ****         if( use_ret == -(MBEDTLS_ERR_SSL_WANT_WRITE) )
 2153              		.loc 1 508 11
 2154 13f2 817DEC80 		cmpl	$26752, -20(%rbp)
 2154      680000
 2155 13f9 7524     		jne	.L117
 509:/home/xingli/share/LiteOS_Lab/network/dtls/mbedtls/mbedtls-2.16.2/library/error.c ****             mbedtls_snprintf( buf, buflen, "SSL - Connection requires a write call" );
 2156              		.loc 1 509 13
 2157 13fb 4C8B0500 		movq	mbedtls_snprintf(%rip), %r8
 2157      000000
 2158 1402 488B4DC8 		movq	-56(%rbp), %rcx
 2159 1406 488B45D0 		movq	-48(%rbp), %rax
 2160 140a 488D1500 		leaq	.LC111(%rip), %rdx
 2160      000000
 2161 1411 4889CE   		movq	%rcx, %rsi
 2162 1414 4889C7   		movq	%rax, %rdi
 2163 1417 B8000000 		movl	$0, %eax
 2163      00
GAS LISTING /tmp/ccWIaY8W.s 			page 70


 2164 141c 41FFD0   		call	*%r8
 2165              	.LVL111:
 2166              	.L117:
 510:/home/xingli/share/LiteOS_Lab/network/dtls/mbedtls/mbedtls-2.16.2/library/error.c ****         if( use_ret == -(MBEDTLS_ERR_SSL_TIMEOUT) )
 2167              		.loc 1 510 11
 2168 141f 817DEC00 		cmpl	$26624, -20(%rbp)
 2168      680000
 2169 1426 7524     		jne	.L118
 511:/home/xingli/share/LiteOS_Lab/network/dtls/mbedtls/mbedtls-2.16.2/library/error.c ****             mbedtls_snprintf( buf, buflen, "SSL - The operation timed out" );
 2170              		.loc 1 511 13
 2171 1428 4C8B0500 		movq	mbedtls_snprintf(%rip), %r8
 2171      000000
 2172 142f 488B4DC8 		movq	-56(%rbp), %rcx
 2173 1433 488B45D0 		movq	-48(%rbp), %rax
 2174 1437 488D1500 		leaq	.LC112(%rip), %rdx
 2174      000000
 2175 143e 4889CE   		movq	%rcx, %rsi
 2176 1441 4889C7   		movq	%rax, %rdi
 2177 1444 B8000000 		movl	$0, %eax
 2177      00
 2178 1449 41FFD0   		call	*%r8
 2179              	.LVL112:
 2180              	.L118:
 512:/home/xingli/share/LiteOS_Lab/network/dtls/mbedtls/mbedtls-2.16.2/library/error.c ****         if( use_ret == -(MBEDTLS_ERR_SSL_CLIENT_RECONNECT) )
 2181              		.loc 1 512 11
 2182 144c 817DEC80 		cmpl	$26496, -20(%rbp)
 2182      670000
 2183 1453 7524     		jne	.L119
 513:/home/xingli/share/LiteOS_Lab/network/dtls/mbedtls/mbedtls-2.16.2/library/error.c ****             mbedtls_snprintf( buf, buflen, "SSL - The client initiated a reconnect from the same po
 2184              		.loc 1 513 13
 2185 1455 4C8B0500 		movq	mbedtls_snprintf(%rip), %r8
 2185      000000
 2186 145c 488B4DC8 		movq	-56(%rbp), %rcx
 2187 1460 488B45D0 		movq	-48(%rbp), %rax
 2188 1464 488D1500 		leaq	.LC113(%rip), %rdx
 2188      000000
 2189 146b 4889CE   		movq	%rcx, %rsi
 2190 146e 4889C7   		movq	%rax, %rdi
 2191 1471 B8000000 		movl	$0, %eax
 2191      00
 2192 1476 41FFD0   		call	*%r8
 2193              	.LVL113:
 2194              	.L119:
 514:/home/xingli/share/LiteOS_Lab/network/dtls/mbedtls/mbedtls-2.16.2/library/error.c ****         if( use_ret == -(MBEDTLS_ERR_SSL_UNEXPECTED_RECORD) )
 2195              		.loc 1 514 11
 2196 1479 817DEC00 		cmpl	$26368, -20(%rbp)
 2196      670000
 2197 1480 7524     		jne	.L120
 515:/home/xingli/share/LiteOS_Lab/network/dtls/mbedtls/mbedtls-2.16.2/library/error.c ****             mbedtls_snprintf( buf, buflen, "SSL - Record header looks valid but is not expected" );
 2198              		.loc 1 515 13
 2199 1482 4C8B0500 		movq	mbedtls_snprintf(%rip), %r8
 2199      000000
 2200 1489 488B4DC8 		movq	-56(%rbp), %rcx
 2201 148d 488B45D0 		movq	-48(%rbp), %rax
 2202 1491 488D1500 		leaq	.LC114(%rip), %rdx
 2202      000000
 2203 1498 4889CE   		movq	%rcx, %rsi
GAS LISTING /tmp/ccWIaY8W.s 			page 71


 2204 149b 4889C7   		movq	%rax, %rdi
 2205 149e B8000000 		movl	$0, %eax
 2205      00
 2206 14a3 41FFD0   		call	*%r8
 2207              	.LVL114:
 2208              	.L120:
 516:/home/xingli/share/LiteOS_Lab/network/dtls/mbedtls/mbedtls-2.16.2/library/error.c ****         if( use_ret == -(MBEDTLS_ERR_SSL_NON_FATAL) )
 2209              		.loc 1 516 11
 2210 14a6 817DEC80 		cmpl	$26240, -20(%rbp)
 2210      660000
 2211 14ad 7524     		jne	.L121
 517:/home/xingli/share/LiteOS_Lab/network/dtls/mbedtls/mbedtls-2.16.2/library/error.c ****             mbedtls_snprintf( buf, buflen, "SSL - The alert message received indicates a non-fatal 
 2212              		.loc 1 517 13
 2213 14af 4C8B0500 		movq	mbedtls_snprintf(%rip), %r8
 2213      000000
 2214 14b6 488B4DC8 		movq	-56(%rbp), %rcx
 2215 14ba 488B45D0 		movq	-48(%rbp), %rax
 2216 14be 488D1500 		leaq	.LC115(%rip), %rdx
 2216      000000
 2217 14c5 4889CE   		movq	%rcx, %rsi
 2218 14c8 4889C7   		movq	%rax, %rdi
 2219 14cb B8000000 		movl	$0, %eax
 2219      00
 2220 14d0 41FFD0   		call	*%r8
 2221              	.LVL115:
 2222              	.L121:
 518:/home/xingli/share/LiteOS_Lab/network/dtls/mbedtls/mbedtls-2.16.2/library/error.c ****         if( use_ret == -(MBEDTLS_ERR_SSL_INVALID_VERIFY_HASH) )
 2223              		.loc 1 518 11
 2224 14d3 817DEC00 		cmpl	$26112, -20(%rbp)
 2224      660000
 2225 14da 7524     		jne	.L122
 519:/home/xingli/share/LiteOS_Lab/network/dtls/mbedtls/mbedtls-2.16.2/library/error.c ****             mbedtls_snprintf( buf, buflen, "SSL - Couldn't set the hash for verifying CertificateVe
 2226              		.loc 1 519 13
 2227 14dc 4C8B0500 		movq	mbedtls_snprintf(%rip), %r8
 2227      000000
 2228 14e3 488B4DC8 		movq	-56(%rbp), %rcx
 2229 14e7 488B45D0 		movq	-48(%rbp), %rax
 2230 14eb 488D1500 		leaq	.LC116(%rip), %rdx
 2230      000000
 2231 14f2 4889CE   		movq	%rcx, %rsi
 2232 14f5 4889C7   		movq	%rax, %rdi
 2233 14f8 B8000000 		movl	$0, %eax
 2233      00
 2234 14fd 41FFD0   		call	*%r8
 2235              	.LVL116:
 2236              	.L122:
 520:/home/xingli/share/LiteOS_Lab/network/dtls/mbedtls/mbedtls-2.16.2/library/error.c ****         if( use_ret == -(MBEDTLS_ERR_SSL_CONTINUE_PROCESSING) )
 2237              		.loc 1 520 11
 2238 1500 817DEC80 		cmpl	$25984, -20(%rbp)
 2238      650000
 2239 1507 7524     		jne	.L123
 521:/home/xingli/share/LiteOS_Lab/network/dtls/mbedtls/mbedtls-2.16.2/library/error.c ****             mbedtls_snprintf( buf, buflen, "SSL - Internal-only message signaling that further mess
 2240              		.loc 1 521 13
 2241 1509 4C8B0500 		movq	mbedtls_snprintf(%rip), %r8
 2241      000000
 2242 1510 488B4DC8 		movq	-56(%rbp), %rcx
 2243 1514 488B45D0 		movq	-48(%rbp), %rax
GAS LISTING /tmp/ccWIaY8W.s 			page 72


 2244 1518 488D1500 		leaq	.LC117(%rip), %rdx
 2244      000000
 2245 151f 4889CE   		movq	%rcx, %rsi
 2246 1522 4889C7   		movq	%rax, %rdi
 2247 1525 B8000000 		movl	$0, %eax
 2247      00
 2248 152a 41FFD0   		call	*%r8
 2249              	.LVL117:
 2250              	.L123:
 522:/home/xingli/share/LiteOS_Lab/network/dtls/mbedtls/mbedtls-2.16.2/library/error.c ****         if( use_ret == -(MBEDTLS_ERR_SSL_ASYNC_IN_PROGRESS) )
 2251              		.loc 1 522 11
 2252 152d 817DEC00 		cmpl	$25856, -20(%rbp)
 2252      650000
 2253 1534 7524     		jne	.L124
 523:/home/xingli/share/LiteOS_Lab/network/dtls/mbedtls/mbedtls-2.16.2/library/error.c ****             mbedtls_snprintf( buf, buflen, "SSL - The asynchronous operation is not completed yet" 
 2254              		.loc 1 523 13
 2255 1536 4C8B0500 		movq	mbedtls_snprintf(%rip), %r8
 2255      000000
 2256 153d 488B4DC8 		movq	-56(%rbp), %rcx
 2257 1541 488B45D0 		movq	-48(%rbp), %rax
 2258 1545 488D1500 		leaq	.LC118(%rip), %rdx
 2258      000000
 2259 154c 4889CE   		movq	%rcx, %rsi
 2260 154f 4889C7   		movq	%rax, %rdi
 2261 1552 B8000000 		movl	$0, %eax
 2261      00
 2262 1557 41FFD0   		call	*%r8
 2263              	.LVL118:
 2264              	.L124:
 524:/home/xingli/share/LiteOS_Lab/network/dtls/mbedtls/mbedtls-2.16.2/library/error.c ****         if( use_ret == -(MBEDTLS_ERR_SSL_EARLY_MESSAGE) )
 2265              		.loc 1 524 11
 2266 155a 817DEC80 		cmpl	$25728, -20(%rbp)
 2266      640000
 2267 1561 7524     		jne	.L125
 525:/home/xingli/share/LiteOS_Lab/network/dtls/mbedtls/mbedtls-2.16.2/library/error.c ****             mbedtls_snprintf( buf, buflen, "SSL - Internal-only message signaling that a message ar
 2268              		.loc 1 525 13
 2269 1563 4C8B0500 		movq	mbedtls_snprintf(%rip), %r8
 2269      000000
 2270 156a 488B4DC8 		movq	-56(%rbp), %rcx
 2271 156e 488B45D0 		movq	-48(%rbp), %rax
 2272 1572 488D1500 		leaq	.LC119(%rip), %rdx
 2272      000000
 2273 1579 4889CE   		movq	%rcx, %rsi
 2274 157c 4889C7   		movq	%rax, %rdi
 2275 157f B8000000 		movl	$0, %eax
 2275      00
 2276 1584 41FFD0   		call	*%r8
 2277              	.LVL119:
 2278              	.L125:
 526:/home/xingli/share/LiteOS_Lab/network/dtls/mbedtls/mbedtls-2.16.2/library/error.c ****         if( use_ret == -(MBEDTLS_ERR_SSL_CRYPTO_IN_PROGRESS) )
 2279              		.loc 1 526 11
 2280 1587 817DEC00 		cmpl	$28672, -20(%rbp)
 2280      700000
 2281 158e 7524     		jne	.L126
 527:/home/xingli/share/LiteOS_Lab/network/dtls/mbedtls/mbedtls-2.16.2/library/error.c ****             mbedtls_snprintf( buf, buflen, "SSL - A cryptographic operation is in progress. Try aga
 2282              		.loc 1 527 13
 2283 1590 4C8B0500 		movq	mbedtls_snprintf(%rip), %r8
GAS LISTING /tmp/ccWIaY8W.s 			page 73


 2283      000000
 2284 1597 488B4DC8 		movq	-56(%rbp), %rcx
 2285 159b 488B45D0 		movq	-48(%rbp), %rax
 2286 159f 488D1500 		leaq	.LC120(%rip), %rdx
 2286      000000
 2287 15a6 4889CE   		movq	%rcx, %rsi
 2288 15a9 4889C7   		movq	%rax, %rdi
 2289 15ac B8000000 		movl	$0, %eax
 2289      00
 2290 15b1 41FFD0   		call	*%r8
 2291              	.LVL120:
 2292              	.L126:
 528:/home/xingli/share/LiteOS_Lab/network/dtls/mbedtls/mbedtls-2.16.2/library/error.c **** #endif /* MBEDTLS_SSL_TLS_C */
 529:/home/xingli/share/LiteOS_Lab/network/dtls/mbedtls/mbedtls-2.16.2/library/error.c **** 
 530:/home/xingli/share/LiteOS_Lab/network/dtls/mbedtls/mbedtls-2.16.2/library/error.c **** #if defined(MBEDTLS_X509_USE_C) || defined(MBEDTLS_X509_CREATE_C)
 531:/home/xingli/share/LiteOS_Lab/network/dtls/mbedtls/mbedtls-2.16.2/library/error.c ****         if( use_ret == -(MBEDTLS_ERR_X509_FEATURE_UNAVAILABLE) )
 2293              		.loc 1 531 11
 2294 15b4 817DEC80 		cmpl	$8320, -20(%rbp)
 2294      200000
 2295 15bb 7524     		jne	.L127
 532:/home/xingli/share/LiteOS_Lab/network/dtls/mbedtls/mbedtls-2.16.2/library/error.c ****             mbedtls_snprintf( buf, buflen, "X509 - Unavailable feature, e.g. RSA hashing/encryption
 2296              		.loc 1 532 13
 2297 15bd 4C8B0500 		movq	mbedtls_snprintf(%rip), %r8
 2297      000000
 2298 15c4 488B4DC8 		movq	-56(%rbp), %rcx
 2299 15c8 488B45D0 		movq	-48(%rbp), %rax
 2300 15cc 488D1500 		leaq	.LC121(%rip), %rdx
 2300      000000
 2301 15d3 4889CE   		movq	%rcx, %rsi
 2302 15d6 4889C7   		movq	%rax, %rdi
 2303 15d9 B8000000 		movl	$0, %eax
 2303      00
 2304 15de 41FFD0   		call	*%r8
 2305              	.LVL121:
 2306              	.L127:
 533:/home/xingli/share/LiteOS_Lab/network/dtls/mbedtls/mbedtls-2.16.2/library/error.c ****         if( use_ret == -(MBEDTLS_ERR_X509_UNKNOWN_OID) )
 2307              		.loc 1 533 11
 2308 15e1 817DEC00 		cmpl	$8448, -20(%rbp)
 2308      210000
 2309 15e8 7524     		jne	.L128
 534:/home/xingli/share/LiteOS_Lab/network/dtls/mbedtls/mbedtls-2.16.2/library/error.c ****             mbedtls_snprintf( buf, buflen, "X509 - Requested OID is unknown" );
 2310              		.loc 1 534 13
 2311 15ea 4C8B0500 		movq	mbedtls_snprintf(%rip), %r8
 2311      000000
 2312 15f1 488B4DC8 		movq	-56(%rbp), %rcx
 2313 15f5 488B45D0 		movq	-48(%rbp), %rax
 2314 15f9 488D1500 		leaq	.LC122(%rip), %rdx
 2314      000000
 2315 1600 4889CE   		movq	%rcx, %rsi
 2316 1603 4889C7   		movq	%rax, %rdi
 2317 1606 B8000000 		movl	$0, %eax
 2317      00
 2318 160b 41FFD0   		call	*%r8
 2319              	.LVL122:
 2320              	.L128:
 535:/home/xingli/share/LiteOS_Lab/network/dtls/mbedtls/mbedtls-2.16.2/library/error.c ****         if( use_ret == -(MBEDTLS_ERR_X509_INVALID_FORMAT) )
 2321              		.loc 1 535 11
GAS LISTING /tmp/ccWIaY8W.s 			page 74


 2322 160e 817DEC80 		cmpl	$8576, -20(%rbp)
 2322      210000
 2323 1615 7524     		jne	.L129
 536:/home/xingli/share/LiteOS_Lab/network/dtls/mbedtls/mbedtls-2.16.2/library/error.c ****             mbedtls_snprintf( buf, buflen, "X509 - The CRT/CRL/CSR format is invalid, e.g. differen
 2324              		.loc 1 536 13
 2325 1617 4C8B0500 		movq	mbedtls_snprintf(%rip), %r8
 2325      000000
 2326 161e 488B4DC8 		movq	-56(%rbp), %rcx
 2327 1622 488B45D0 		movq	-48(%rbp), %rax
 2328 1626 488D1500 		leaq	.LC123(%rip), %rdx
 2328      000000
 2329 162d 4889CE   		movq	%rcx, %rsi
 2330 1630 4889C7   		movq	%rax, %rdi
 2331 1633 B8000000 		movl	$0, %eax
 2331      00
 2332 1638 41FFD0   		call	*%r8
 2333              	.LVL123:
 2334              	.L129:
 537:/home/xingli/share/LiteOS_Lab/network/dtls/mbedtls/mbedtls-2.16.2/library/error.c ****         if( use_ret == -(MBEDTLS_ERR_X509_INVALID_VERSION) )
 2335              		.loc 1 537 11
 2336 163b 817DEC00 		cmpl	$8704, -20(%rbp)
 2336      220000
 2337 1642 7524     		jne	.L130
 538:/home/xingli/share/LiteOS_Lab/network/dtls/mbedtls/mbedtls-2.16.2/library/error.c ****             mbedtls_snprintf( buf, buflen, "X509 - The CRT/CRL/CSR version element is invalid" );
 2338              		.loc 1 538 13
 2339 1644 4C8B0500 		movq	mbedtls_snprintf(%rip), %r8
 2339      000000
 2340 164b 488B4DC8 		movq	-56(%rbp), %rcx
 2341 164f 488B45D0 		movq	-48(%rbp), %rax
 2342 1653 488D1500 		leaq	.LC124(%rip), %rdx
 2342      000000
 2343 165a 4889CE   		movq	%rcx, %rsi
 2344 165d 4889C7   		movq	%rax, %rdi
 2345 1660 B8000000 		movl	$0, %eax
 2345      00
 2346 1665 41FFD0   		call	*%r8
 2347              	.LVL124:
 2348              	.L130:
 539:/home/xingli/share/LiteOS_Lab/network/dtls/mbedtls/mbedtls-2.16.2/library/error.c ****         if( use_ret == -(MBEDTLS_ERR_X509_INVALID_SERIAL) )
 2349              		.loc 1 539 11
 2350 1668 817DEC80 		cmpl	$8832, -20(%rbp)
 2350      220000
 2351 166f 7524     		jne	.L131
 540:/home/xingli/share/LiteOS_Lab/network/dtls/mbedtls/mbedtls-2.16.2/library/error.c ****             mbedtls_snprintf( buf, buflen, "X509 - The serial tag or value is invalid" );
 2352              		.loc 1 540 13
 2353 1671 4C8B0500 		movq	mbedtls_snprintf(%rip), %r8
 2353      000000
 2354 1678 488B4DC8 		movq	-56(%rbp), %rcx
 2355 167c 488B45D0 		movq	-48(%rbp), %rax
 2356 1680 488D1500 		leaq	.LC125(%rip), %rdx
 2356      000000
 2357 1687 4889CE   		movq	%rcx, %rsi
 2358 168a 4889C7   		movq	%rax, %rdi
 2359 168d B8000000 		movl	$0, %eax
 2359      00
 2360 1692 41FFD0   		call	*%r8
 2361              	.LVL125:
GAS LISTING /tmp/ccWIaY8W.s 			page 75


 2362              	.L131:
 541:/home/xingli/share/LiteOS_Lab/network/dtls/mbedtls/mbedtls-2.16.2/library/error.c ****         if( use_ret == -(MBEDTLS_ERR_X509_INVALID_ALG) )
 2363              		.loc 1 541 11
 2364 1695 817DEC00 		cmpl	$8960, -20(%rbp)
 2364      230000
 2365 169c 7524     		jne	.L132
 542:/home/xingli/share/LiteOS_Lab/network/dtls/mbedtls/mbedtls-2.16.2/library/error.c ****             mbedtls_snprintf( buf, buflen, "X509 - The algorithm tag or value is invalid" );
 2366              		.loc 1 542 13
 2367 169e 4C8B0500 		movq	mbedtls_snprintf(%rip), %r8
 2367      000000
 2368 16a5 488B4DC8 		movq	-56(%rbp), %rcx
 2369 16a9 488B45D0 		movq	-48(%rbp), %rax
 2370 16ad 488D1500 		leaq	.LC126(%rip), %rdx
 2370      000000
 2371 16b4 4889CE   		movq	%rcx, %rsi
 2372 16b7 4889C7   		movq	%rax, %rdi
 2373 16ba B8000000 		movl	$0, %eax
 2373      00
 2374 16bf 41FFD0   		call	*%r8
 2375              	.LVL126:
 2376              	.L132:
 543:/home/xingli/share/LiteOS_Lab/network/dtls/mbedtls/mbedtls-2.16.2/library/error.c ****         if( use_ret == -(MBEDTLS_ERR_X509_INVALID_NAME) )
 2377              		.loc 1 543 11
 2378 16c2 817DEC80 		cmpl	$9088, -20(%rbp)
 2378      230000
 2379 16c9 7524     		jne	.L133
 544:/home/xingli/share/LiteOS_Lab/network/dtls/mbedtls/mbedtls-2.16.2/library/error.c ****             mbedtls_snprintf( buf, buflen, "X509 - The name tag or value is invalid" );
 2380              		.loc 1 544 13
 2381 16cb 4C8B0500 		movq	mbedtls_snprintf(%rip), %r8
 2381      000000
 2382 16d2 488B4DC8 		movq	-56(%rbp), %rcx
 2383 16d6 488B45D0 		movq	-48(%rbp), %rax
 2384 16da 488D1500 		leaq	.LC127(%rip), %rdx
 2384      000000
 2385 16e1 4889CE   		movq	%rcx, %rsi
 2386 16e4 4889C7   		movq	%rax, %rdi
 2387 16e7 B8000000 		movl	$0, %eax
 2387      00
 2388 16ec 41FFD0   		call	*%r8
 2389              	.LVL127:
 2390              	.L133:
 545:/home/xingli/share/LiteOS_Lab/network/dtls/mbedtls/mbedtls-2.16.2/library/error.c ****         if( use_ret == -(MBEDTLS_ERR_X509_INVALID_DATE) )
 2391              		.loc 1 545 11
 2392 16ef 817DEC00 		cmpl	$9216, -20(%rbp)
 2392      240000
 2393 16f6 7524     		jne	.L134
 546:/home/xingli/share/LiteOS_Lab/network/dtls/mbedtls/mbedtls-2.16.2/library/error.c ****             mbedtls_snprintf( buf, buflen, "X509 - The date tag or value is invalid" );
 2394              		.loc 1 546 13
 2395 16f8 4C8B0500 		movq	mbedtls_snprintf(%rip), %r8
 2395      000000
 2396 16ff 488B4DC8 		movq	-56(%rbp), %rcx
 2397 1703 488B45D0 		movq	-48(%rbp), %rax
 2398 1707 488D1500 		leaq	.LC128(%rip), %rdx
 2398      000000
 2399 170e 4889CE   		movq	%rcx, %rsi
 2400 1711 4889C7   		movq	%rax, %rdi
 2401 1714 B8000000 		movl	$0, %eax
GAS LISTING /tmp/ccWIaY8W.s 			page 76


 2401      00
 2402 1719 41FFD0   		call	*%r8
 2403              	.LVL128:
 2404              	.L134:
 547:/home/xingli/share/LiteOS_Lab/network/dtls/mbedtls/mbedtls-2.16.2/library/error.c ****         if( use_ret == -(MBEDTLS_ERR_X509_INVALID_SIGNATURE) )
 2405              		.loc 1 547 11
 2406 171c 817DEC80 		cmpl	$9344, -20(%rbp)
 2406      240000
 2407 1723 7524     		jne	.L135
 548:/home/xingli/share/LiteOS_Lab/network/dtls/mbedtls/mbedtls-2.16.2/library/error.c ****             mbedtls_snprintf( buf, buflen, "X509 - The signature tag or value invalid" );
 2408              		.loc 1 548 13
 2409 1725 4C8B0500 		movq	mbedtls_snprintf(%rip), %r8
 2409      000000
 2410 172c 488B4DC8 		movq	-56(%rbp), %rcx
 2411 1730 488B45D0 		movq	-48(%rbp), %rax
 2412 1734 488D1500 		leaq	.LC129(%rip), %rdx
 2412      000000
 2413 173b 4889CE   		movq	%rcx, %rsi
 2414 173e 4889C7   		movq	%rax, %rdi
 2415 1741 B8000000 		movl	$0, %eax
 2415      00
 2416 1746 41FFD0   		call	*%r8
 2417              	.LVL129:
 2418              	.L135:
 549:/home/xingli/share/LiteOS_Lab/network/dtls/mbedtls/mbedtls-2.16.2/library/error.c ****         if( use_ret == -(MBEDTLS_ERR_X509_INVALID_EXTENSIONS) )
 2419              		.loc 1 549 11
 2420 1749 817DEC00 		cmpl	$9472, -20(%rbp)
 2420      250000
 2421 1750 7524     		jne	.L136
 550:/home/xingli/share/LiteOS_Lab/network/dtls/mbedtls/mbedtls-2.16.2/library/error.c ****             mbedtls_snprintf( buf, buflen, "X509 - The extension tag or value is invalid" );
 2422              		.loc 1 550 13
 2423 1752 4C8B0500 		movq	mbedtls_snprintf(%rip), %r8
 2423      000000
 2424 1759 488B4DC8 		movq	-56(%rbp), %rcx
 2425 175d 488B45D0 		movq	-48(%rbp), %rax
 2426 1761 488D1500 		leaq	.LC130(%rip), %rdx
 2426      000000
 2427 1768 4889CE   		movq	%rcx, %rsi
 2428 176b 4889C7   		movq	%rax, %rdi
 2429 176e B8000000 		movl	$0, %eax
 2429      00
 2430 1773 41FFD0   		call	*%r8
 2431              	.LVL130:
 2432              	.L136:
 551:/home/xingli/share/LiteOS_Lab/network/dtls/mbedtls/mbedtls-2.16.2/library/error.c ****         if( use_ret == -(MBEDTLS_ERR_X509_UNKNOWN_VERSION) )
 2433              		.loc 1 551 11
 2434 1776 817DEC80 		cmpl	$9600, -20(%rbp)
 2434      250000
 2435 177d 7524     		jne	.L137
 552:/home/xingli/share/LiteOS_Lab/network/dtls/mbedtls/mbedtls-2.16.2/library/error.c ****             mbedtls_snprintf( buf, buflen, "X509 - CRT/CRL/CSR has an unsupported version number" )
 2436              		.loc 1 552 13
 2437 177f 4C8B0500 		movq	mbedtls_snprintf(%rip), %r8
 2437      000000
 2438 1786 488B4DC8 		movq	-56(%rbp), %rcx
 2439 178a 488B45D0 		movq	-48(%rbp), %rax
 2440 178e 488D1500 		leaq	.LC131(%rip), %rdx
 2440      000000
GAS LISTING /tmp/ccWIaY8W.s 			page 77


 2441 1795 4889CE   		movq	%rcx, %rsi
 2442 1798 4889C7   		movq	%rax, %rdi
 2443 179b B8000000 		movl	$0, %eax
 2443      00
 2444 17a0 41FFD0   		call	*%r8
 2445              	.LVL131:
 2446              	.L137:
 553:/home/xingli/share/LiteOS_Lab/network/dtls/mbedtls/mbedtls-2.16.2/library/error.c ****         if( use_ret == -(MBEDTLS_ERR_X509_UNKNOWN_SIG_ALG) )
 2447              		.loc 1 553 11
 2448 17a3 817DEC00 		cmpl	$9728, -20(%rbp)
 2448      260000
 2449 17aa 7524     		jne	.L138
 554:/home/xingli/share/LiteOS_Lab/network/dtls/mbedtls/mbedtls-2.16.2/library/error.c ****             mbedtls_snprintf( buf, buflen, "X509 - Signature algorithm (oid) is unsupported" );
 2450              		.loc 1 554 13
 2451 17ac 4C8B0500 		movq	mbedtls_snprintf(%rip), %r8
 2451      000000
 2452 17b3 488B4DC8 		movq	-56(%rbp), %rcx
 2453 17b7 488B45D0 		movq	-48(%rbp), %rax
 2454 17bb 488D1500 		leaq	.LC132(%rip), %rdx
 2454      000000
 2455 17c2 4889CE   		movq	%rcx, %rsi
 2456 17c5 4889C7   		movq	%rax, %rdi
 2457 17c8 B8000000 		movl	$0, %eax
 2457      00
 2458 17cd 41FFD0   		call	*%r8
 2459              	.LVL132:
 2460              	.L138:
 555:/home/xingli/share/LiteOS_Lab/network/dtls/mbedtls/mbedtls-2.16.2/library/error.c ****         if( use_ret == -(MBEDTLS_ERR_X509_SIG_MISMATCH) )
 2461              		.loc 1 555 11
 2462 17d0 817DEC80 		cmpl	$9856, -20(%rbp)
 2462      260000
 2463 17d7 7524     		jne	.L139
 556:/home/xingli/share/LiteOS_Lab/network/dtls/mbedtls/mbedtls-2.16.2/library/error.c ****             mbedtls_snprintf( buf, buflen, "X509 - Signature algorithms do not match. (see \\c ::mb
 2464              		.loc 1 556 13
 2465 17d9 4C8B0500 		movq	mbedtls_snprintf(%rip), %r8
 2465      000000
 2466 17e0 488B4DC8 		movq	-56(%rbp), %rcx
 2467 17e4 488B45D0 		movq	-48(%rbp), %rax
 2468 17e8 488D1500 		leaq	.LC133(%rip), %rdx
 2468      000000
 2469 17ef 4889CE   		movq	%rcx, %rsi
 2470 17f2 4889C7   		movq	%rax, %rdi
 2471 17f5 B8000000 		movl	$0, %eax
 2471      00
 2472 17fa 41FFD0   		call	*%r8
 2473              	.LVL133:
 2474              	.L139:
 557:/home/xingli/share/LiteOS_Lab/network/dtls/mbedtls/mbedtls-2.16.2/library/error.c ****         if( use_ret == -(MBEDTLS_ERR_X509_CERT_VERIFY_FAILED) )
 2475              		.loc 1 557 11
 2476 17fd 817DEC00 		cmpl	$9984, -20(%rbp)
 2476      270000
 2477 1804 7524     		jne	.L140
 558:/home/xingli/share/LiteOS_Lab/network/dtls/mbedtls/mbedtls-2.16.2/library/error.c ****             mbedtls_snprintf( buf, buflen, "X509 - Certificate verification failed, e.g. CRL, CA or
 2478              		.loc 1 558 13
 2479 1806 4C8B0500 		movq	mbedtls_snprintf(%rip), %r8
 2479      000000
 2480 180d 488B4DC8 		movq	-56(%rbp), %rcx
GAS LISTING /tmp/ccWIaY8W.s 			page 78


 2481 1811 488B45D0 		movq	-48(%rbp), %rax
 2482 1815 488D1500 		leaq	.LC134(%rip), %rdx
 2482      000000
 2483 181c 4889CE   		movq	%rcx, %rsi
 2484 181f 4889C7   		movq	%rax, %rdi
 2485 1822 B8000000 		movl	$0, %eax
 2485      00
 2486 1827 41FFD0   		call	*%r8
 2487              	.LVL134:
 2488              	.L140:
 559:/home/xingli/share/LiteOS_Lab/network/dtls/mbedtls/mbedtls-2.16.2/library/error.c ****         if( use_ret == -(MBEDTLS_ERR_X509_CERT_UNKNOWN_FORMAT) )
 2489              		.loc 1 559 11
 2490 182a 817DEC80 		cmpl	$10112, -20(%rbp)
 2490      270000
 2491 1831 7524     		jne	.L141
 560:/home/xingli/share/LiteOS_Lab/network/dtls/mbedtls/mbedtls-2.16.2/library/error.c ****             mbedtls_snprintf( buf, buflen, "X509 - Format not recognized as DER or PEM" );
 2492              		.loc 1 560 13
 2493 1833 4C8B0500 		movq	mbedtls_snprintf(%rip), %r8
 2493      000000
 2494 183a 488B4DC8 		movq	-56(%rbp), %rcx
 2495 183e 488B45D0 		movq	-48(%rbp), %rax
 2496 1842 488D1500 		leaq	.LC135(%rip), %rdx
 2496      000000
 2497 1849 4889CE   		movq	%rcx, %rsi
 2498 184c 4889C7   		movq	%rax, %rdi
 2499 184f B8000000 		movl	$0, %eax
 2499      00
 2500 1854 41FFD0   		call	*%r8
 2501              	.LVL135:
 2502              	.L141:
 561:/home/xingli/share/LiteOS_Lab/network/dtls/mbedtls/mbedtls-2.16.2/library/error.c ****         if( use_ret == -(MBEDTLS_ERR_X509_BAD_INPUT_DATA) )
 2503              		.loc 1 561 11
 2504 1857 817DEC00 		cmpl	$10240, -20(%rbp)
 2504      280000
 2505 185e 7524     		jne	.L142
 562:/home/xingli/share/LiteOS_Lab/network/dtls/mbedtls/mbedtls-2.16.2/library/error.c ****             mbedtls_snprintf( buf, buflen, "X509 - Input invalid" );
 2506              		.loc 1 562 13
 2507 1860 4C8B0500 		movq	mbedtls_snprintf(%rip), %r8
 2507      000000
 2508 1867 488B4DC8 		movq	-56(%rbp), %rcx
 2509 186b 488B45D0 		movq	-48(%rbp), %rax
 2510 186f 488D1500 		leaq	.LC136(%rip), %rdx
 2510      000000
 2511 1876 4889CE   		movq	%rcx, %rsi
 2512 1879 4889C7   		movq	%rax, %rdi
 2513 187c B8000000 		movl	$0, %eax
 2513      00
 2514 1881 41FFD0   		call	*%r8
 2515              	.LVL136:
 2516              	.L142:
 563:/home/xingli/share/LiteOS_Lab/network/dtls/mbedtls/mbedtls-2.16.2/library/error.c ****         if( use_ret == -(MBEDTLS_ERR_X509_ALLOC_FAILED) )
 2517              		.loc 1 563 11
 2518 1884 817DEC80 		cmpl	$10368, -20(%rbp)
 2518      280000
 2519 188b 7524     		jne	.L143
 564:/home/xingli/share/LiteOS_Lab/network/dtls/mbedtls/mbedtls-2.16.2/library/error.c ****             mbedtls_snprintf( buf, buflen, "X509 - Allocation of memory failed" );
 2520              		.loc 1 564 13
GAS LISTING /tmp/ccWIaY8W.s 			page 79


 2521 188d 4C8B0500 		movq	mbedtls_snprintf(%rip), %r8
 2521      000000
 2522 1894 488B4DC8 		movq	-56(%rbp), %rcx
 2523 1898 488B45D0 		movq	-48(%rbp), %rax
 2524 189c 488D1500 		leaq	.LC137(%rip), %rdx
 2524      000000
 2525 18a3 4889CE   		movq	%rcx, %rsi
 2526 18a6 4889C7   		movq	%rax, %rdi
 2527 18a9 B8000000 		movl	$0, %eax
 2527      00
 2528 18ae 41FFD0   		call	*%r8
 2529              	.LVL137:
 2530              	.L143:
 565:/home/xingli/share/LiteOS_Lab/network/dtls/mbedtls/mbedtls-2.16.2/library/error.c ****         if( use_ret == -(MBEDTLS_ERR_X509_FILE_IO_ERROR) )
 2531              		.loc 1 565 11
 2532 18b1 817DEC00 		cmpl	$10496, -20(%rbp)
 2532      290000
 2533 18b8 7524     		jne	.L144
 566:/home/xingli/share/LiteOS_Lab/network/dtls/mbedtls/mbedtls-2.16.2/library/error.c ****             mbedtls_snprintf( buf, buflen, "X509 - Read/write of file failed" );
 2534              		.loc 1 566 13
 2535 18ba 4C8B0500 		movq	mbedtls_snprintf(%rip), %r8
 2535      000000
 2536 18c1 488B4DC8 		movq	-56(%rbp), %rcx
 2537 18c5 488B45D0 		movq	-48(%rbp), %rax
 2538 18c9 488D1500 		leaq	.LC138(%rip), %rdx
 2538      000000
 2539 18d0 4889CE   		movq	%rcx, %rsi
 2540 18d3 4889C7   		movq	%rax, %rdi
 2541 18d6 B8000000 		movl	$0, %eax
 2541      00
 2542 18db 41FFD0   		call	*%r8
 2543              	.LVL138:
 2544              	.L144:
 567:/home/xingli/share/LiteOS_Lab/network/dtls/mbedtls/mbedtls-2.16.2/library/error.c ****         if( use_ret == -(MBEDTLS_ERR_X509_BUFFER_TOO_SMALL) )
 2545              		.loc 1 567 11
 2546 18de 817DEC80 		cmpl	$10624, -20(%rbp)
 2546      290000
 2547 18e5 7524     		jne	.L145
 568:/home/xingli/share/LiteOS_Lab/network/dtls/mbedtls/mbedtls-2.16.2/library/error.c ****             mbedtls_snprintf( buf, buflen, "X509 - Destination buffer is too small" );
 2548              		.loc 1 568 13
 2549 18e7 4C8B0500 		movq	mbedtls_snprintf(%rip), %r8
 2549      000000
 2550 18ee 488B4DC8 		movq	-56(%rbp), %rcx
 2551 18f2 488B45D0 		movq	-48(%rbp), %rax
 2552 18f6 488D1500 		leaq	.LC139(%rip), %rdx
 2552      000000
 2553 18fd 4889CE   		movq	%rcx, %rsi
 2554 1900 4889C7   		movq	%rax, %rdi
 2555 1903 B8000000 		movl	$0, %eax
 2555      00
 2556 1908 41FFD0   		call	*%r8
 2557              	.LVL139:
 2558              	.L145:
 569:/home/xingli/share/LiteOS_Lab/network/dtls/mbedtls/mbedtls-2.16.2/library/error.c ****         if( use_ret == -(MBEDTLS_ERR_X509_FATAL_ERROR) )
 2559              		.loc 1 569 11
 2560 190b 817DEC00 		cmpl	$12288, -20(%rbp)
 2560      300000
GAS LISTING /tmp/ccWIaY8W.s 			page 80


 2561 1912 7524     		jne	.L146
 570:/home/xingli/share/LiteOS_Lab/network/dtls/mbedtls/mbedtls-2.16.2/library/error.c ****             mbedtls_snprintf( buf, buflen, "X509 - A fatal error occured, eg the chain is too long 
 2562              		.loc 1 570 13
 2563 1914 4C8B0500 		movq	mbedtls_snprintf(%rip), %r8
 2563      000000
 2564 191b 488B4DC8 		movq	-56(%rbp), %rcx
 2565 191f 488B45D0 		movq	-48(%rbp), %rax
 2566 1923 488D1500 		leaq	.LC140(%rip), %rdx
 2566      000000
 2567 192a 4889CE   		movq	%rcx, %rsi
 2568 192d 4889C7   		movq	%rax, %rdi
 2569 1930 B8000000 		movl	$0, %eax
 2569      00
 2570 1935 41FFD0   		call	*%r8
 2571              	.LVL140:
 2572              	.L146:
 571:/home/xingli/share/LiteOS_Lab/network/dtls/mbedtls/mbedtls-2.16.2/library/error.c **** #endif /* MBEDTLS_X509_USE_C || MBEDTLS_X509_CREATE_C */
 572:/home/xingli/share/LiteOS_Lab/network/dtls/mbedtls/mbedtls-2.16.2/library/error.c ****         // END generated code
 573:/home/xingli/share/LiteOS_Lab/network/dtls/mbedtls/mbedtls-2.16.2/library/error.c **** 
 574:/home/xingli/share/LiteOS_Lab/network/dtls/mbedtls/mbedtls-2.16.2/library/error.c ****         if( strlen( buf ) == 0 )
 2573              		.loc 1 574 27
 2574 1938 488B45D0 		movq	-48(%rbp), %rax
 2575 193c 0FB600   		movzbl	(%rax), %eax
 2576              		.loc 1 574 11
 2577 193f 84C0     		testb	%al, %al
 2578 1941 7526     		jne	.L5
 575:/home/xingli/share/LiteOS_Lab/network/dtls/mbedtls/mbedtls-2.16.2/library/error.c ****             mbedtls_snprintf( buf, buflen, "UNKNOWN ERROR CODE (%04X)", use_ret );
 2579              		.loc 1 575 13
 2580 1943 4C8B0500 		movq	mbedtls_snprintf(%rip), %r8
 2580      000000
 2581 194a 8B55EC   		movl	-20(%rbp), %edx
 2582 194d 488B75C8 		movq	-56(%rbp), %rsi
 2583 1951 488B45D0 		movq	-48(%rbp), %rax
 2584 1955 89D1     		movl	%edx, %ecx
 2585 1957 488D1500 		leaq	.LC141(%rip), %rdx
 2585      000000
 2586 195e 4889C7   		movq	%rax, %rdi
 2587 1961 B8000000 		movl	$0, %eax
 2587      00
 2588 1966 41FFD0   		call	*%r8
 2589              	.LVL141:
 2590              	.L5:
 576:/home/xingli/share/LiteOS_Lab/network/dtls/mbedtls/mbedtls-2.16.2/library/error.c ****     }
 577:/home/xingli/share/LiteOS_Lab/network/dtls/mbedtls/mbedtls-2.16.2/library/error.c **** 
 578:/home/xingli/share/LiteOS_Lab/network/dtls/mbedtls/mbedtls-2.16.2/library/error.c ****     use_ret = ret & ~0xFF80;
 2591              		.loc 1 578 13
 2592 1969 8B45DC   		movl	-36(%rbp), %eax
 2593 196c 257F00FF 		andl	$-65409, %eax
 2593      FF
 2594 1971 8945EC   		movl	%eax, -20(%rbp)
 579:/home/xingli/share/LiteOS_Lab/network/dtls/mbedtls/mbedtls-2.16.2/library/error.c **** 
 580:/home/xingli/share/LiteOS_Lab/network/dtls/mbedtls/mbedtls-2.16.2/library/error.c ****     if( use_ret == 0 )
 2595              		.loc 1 580 7
 2596 1974 837DEC00 		cmpl	$0, -20(%rbp)
 2597 1978 0F848B07 		je	.L195
 2597      0000
 581:/home/xingli/share/LiteOS_Lab/network/dtls/mbedtls/mbedtls-2.16.2/library/error.c ****         return;
GAS LISTING /tmp/ccWIaY8W.s 			page 81


 582:/home/xingli/share/LiteOS_Lab/network/dtls/mbedtls/mbedtls-2.16.2/library/error.c **** 
 583:/home/xingli/share/LiteOS_Lab/network/dtls/mbedtls/mbedtls-2.16.2/library/error.c ****     // If high level code is present, make a concatenation between both
 584:/home/xingli/share/LiteOS_Lab/network/dtls/mbedtls/mbedtls-2.16.2/library/error.c ****     // error strings.
 585:/home/xingli/share/LiteOS_Lab/network/dtls/mbedtls/mbedtls-2.16.2/library/error.c ****     //
 586:/home/xingli/share/LiteOS_Lab/network/dtls/mbedtls/mbedtls-2.16.2/library/error.c ****     len = strlen( buf );
 2598              		.loc 1 586 11
 2599 197e 488B45D0 		movq	-48(%rbp), %rax
 2600 1982 4889C7   		movq	%rax, %rdi
 2601 1985 E8000000 		call	strlen@PLT
 2601      00
 2602 198a 488945F0 		movq	%rax, -16(%rbp)
 587:/home/xingli/share/LiteOS_Lab/network/dtls/mbedtls/mbedtls-2.16.2/library/error.c **** 
 588:/home/xingli/share/LiteOS_Lab/network/dtls/mbedtls/mbedtls-2.16.2/library/error.c ****     if( len > 0 )
 2603              		.loc 1 588 7
 2604 198e 48837DF0 		cmpq	$0, -16(%rbp)
 2604      00
 2605 1993 745A     		je	.L148
 589:/home/xingli/share/LiteOS_Lab/network/dtls/mbedtls/mbedtls-2.16.2/library/error.c ****     {
 590:/home/xingli/share/LiteOS_Lab/network/dtls/mbedtls/mbedtls-2.16.2/library/error.c ****         if( buflen - len < 5 )
 2606              		.loc 1 590 20
 2607 1995 488B45C8 		movq	-56(%rbp), %rax
 2608 1999 482B45F0 		subq	-16(%rbp), %rax
 2609              		.loc 1 590 11
 2610 199d 4883F804 		cmpq	$4, %rax
 2611 19a1 0F866507 		jbe	.L196
 2611      0000
 591:/home/xingli/share/LiteOS_Lab/network/dtls/mbedtls/mbedtls-2.16.2/library/error.c ****             return;
 592:/home/xingli/share/LiteOS_Lab/network/dtls/mbedtls/mbedtls-2.16.2/library/error.c **** 
 593:/home/xingli/share/LiteOS_Lab/network/dtls/mbedtls/mbedtls-2.16.2/library/error.c ****         mbedtls_snprintf( buf + len, buflen - len, " : " );
 2612              		.loc 1 593 9
 2613 19a7 488B0D00 		movq	mbedtls_snprintf(%rip), %rcx
 2613      000000
 2614 19ae 488B45C8 		movq	-56(%rbp), %rax
 2615 19b2 482B45F0 		subq	-16(%rbp), %rax
 2616 19b6 488B75D0 		movq	-48(%rbp), %rsi
 2617 19ba 488B55F0 		movq	-16(%rbp), %rdx
 2618 19be 488D3C16 		leaq	(%rsi,%rdx), %rdi
 2619 19c2 488D1500 		leaq	.LC142(%rip), %rdx
 2619      000000
 2620 19c9 4889C6   		movq	%rax, %rsi
 2621 19cc B8000000 		movl	$0, %eax
 2621      00
 2622 19d1 FFD1     		call	*%rcx
 2623              	.LVL142:
 594:/home/xingli/share/LiteOS_Lab/network/dtls/mbedtls/mbedtls-2.16.2/library/error.c **** 
 595:/home/xingli/share/LiteOS_Lab/network/dtls/mbedtls/mbedtls-2.16.2/library/error.c ****         buf += len + 3;
 2624              		.loc 1 595 13
 2625 19d3 488B45F0 		movq	-16(%rbp), %rax
 2626 19d7 4883C003 		addq	$3, %rax
 2627 19db 480145D0 		addq	%rax, -48(%rbp)
 596:/home/xingli/share/LiteOS_Lab/network/dtls/mbedtls/mbedtls-2.16.2/library/error.c ****         buflen -= len + 3;
 2628              		.loc 1 596 16
 2629 19df 488B45C8 		movq	-56(%rbp), %rax
 2630 19e3 482B45F0 		subq	-16(%rbp), %rax
 2631 19e7 4883E803 		subq	$3, %rax
 2632 19eb 488945C8 		movq	%rax, -56(%rbp)
 2633              	.L148:
GAS LISTING /tmp/ccWIaY8W.s 			page 82


 597:/home/xingli/share/LiteOS_Lab/network/dtls/mbedtls/mbedtls-2.16.2/library/error.c ****     }
 598:/home/xingli/share/LiteOS_Lab/network/dtls/mbedtls/mbedtls-2.16.2/library/error.c **** 
 599:/home/xingli/share/LiteOS_Lab/network/dtls/mbedtls/mbedtls-2.16.2/library/error.c ****     // Low level error codes
 600:/home/xingli/share/LiteOS_Lab/network/dtls/mbedtls/mbedtls-2.16.2/library/error.c ****     //
 601:/home/xingli/share/LiteOS_Lab/network/dtls/mbedtls/mbedtls-2.16.2/library/error.c ****     // BEGIN generated code
 602:/home/xingli/share/LiteOS_Lab/network/dtls/mbedtls/mbedtls-2.16.2/library/error.c **** #if defined(MBEDTLS_AES_C)
 603:/home/xingli/share/LiteOS_Lab/network/dtls/mbedtls/mbedtls-2.16.2/library/error.c ****     if( use_ret == -(MBEDTLS_ERR_AES_INVALID_KEY_LENGTH) )
 2634              		.loc 1 603 7
 2635 19ef 837DEC20 		cmpl	$32, -20(%rbp)
 2636 19f3 7524     		jne	.L150
 604:/home/xingli/share/LiteOS_Lab/network/dtls/mbedtls/mbedtls-2.16.2/library/error.c ****         mbedtls_snprintf( buf, buflen, "AES - Invalid key length" );
 2637              		.loc 1 604 9
 2638 19f5 4C8B0500 		movq	mbedtls_snprintf(%rip), %r8
 2638      000000
 2639 19fc 488B4DC8 		movq	-56(%rbp), %rcx
 2640 1a00 488B45D0 		movq	-48(%rbp), %rax
 2641 1a04 488D1500 		leaq	.LC143(%rip), %rdx
 2641      000000
 2642 1a0b 4889CE   		movq	%rcx, %rsi
 2643 1a0e 4889C7   		movq	%rax, %rdi
 2644 1a11 B8000000 		movl	$0, %eax
 2644      00
 2645 1a16 41FFD0   		call	*%r8
 2646              	.LVL143:
 2647              	.L150:
 605:/home/xingli/share/LiteOS_Lab/network/dtls/mbedtls/mbedtls-2.16.2/library/error.c ****     if( use_ret == -(MBEDTLS_ERR_AES_INVALID_INPUT_LENGTH) )
 2648              		.loc 1 605 7
 2649 1a19 837DEC22 		cmpl	$34, -20(%rbp)
 2650 1a1d 7524     		jne	.L151
 606:/home/xingli/share/LiteOS_Lab/network/dtls/mbedtls/mbedtls-2.16.2/library/error.c ****         mbedtls_snprintf( buf, buflen, "AES - Invalid data input length" );
 2651              		.loc 1 606 9
 2652 1a1f 4C8B0500 		movq	mbedtls_snprintf(%rip), %r8
 2652      000000
 2653 1a26 488B4DC8 		movq	-56(%rbp), %rcx
 2654 1a2a 488B45D0 		movq	-48(%rbp), %rax
 2655 1a2e 488D1500 		leaq	.LC144(%rip), %rdx
 2655      000000
 2656 1a35 4889CE   		movq	%rcx, %rsi
 2657 1a38 4889C7   		movq	%rax, %rdi
 2658 1a3b B8000000 		movl	$0, %eax
 2658      00
 2659 1a40 41FFD0   		call	*%r8
 2660              	.LVL144:
 2661              	.L151:
 607:/home/xingli/share/LiteOS_Lab/network/dtls/mbedtls/mbedtls-2.16.2/library/error.c ****     if( use_ret == -(MBEDTLS_ERR_AES_BAD_INPUT_DATA) )
 2662              		.loc 1 607 7
 2663 1a43 837DEC21 		cmpl	$33, -20(%rbp)
 2664 1a47 7524     		jne	.L152
 608:/home/xingli/share/LiteOS_Lab/network/dtls/mbedtls/mbedtls-2.16.2/library/error.c ****         mbedtls_snprintf( buf, buflen, "AES - Invalid input data" );
 2665              		.loc 1 608 9
 2666 1a49 4C8B0500 		movq	mbedtls_snprintf(%rip), %r8
 2666      000000
 2667 1a50 488B4DC8 		movq	-56(%rbp), %rcx
 2668 1a54 488B45D0 		movq	-48(%rbp), %rax
 2669 1a58 488D1500 		leaq	.LC145(%rip), %rdx
 2669      000000
 2670 1a5f 4889CE   		movq	%rcx, %rsi
GAS LISTING /tmp/ccWIaY8W.s 			page 83


 2671 1a62 4889C7   		movq	%rax, %rdi
 2672 1a65 B8000000 		movl	$0, %eax
 2672      00
 2673 1a6a 41FFD0   		call	*%r8
 2674              	.LVL145:
 2675              	.L152:
 609:/home/xingli/share/LiteOS_Lab/network/dtls/mbedtls/mbedtls-2.16.2/library/error.c ****     if( use_ret == -(MBEDTLS_ERR_AES_FEATURE_UNAVAILABLE) )
 2676              		.loc 1 609 7
 2677 1a6d 837DEC23 		cmpl	$35, -20(%rbp)
 2678 1a71 7524     		jne	.L153
 610:/home/xingli/share/LiteOS_Lab/network/dtls/mbedtls/mbedtls-2.16.2/library/error.c ****         mbedtls_snprintf( buf, buflen, "AES - Feature not available. For example, an unsupported AE
 2679              		.loc 1 610 9
 2680 1a73 4C8B0500 		movq	mbedtls_snprintf(%rip), %r8
 2680      000000
 2681 1a7a 488B4DC8 		movq	-56(%rbp), %rcx
 2682 1a7e 488B45D0 		movq	-48(%rbp), %rax
 2683 1a82 488D1500 		leaq	.LC146(%rip), %rdx
 2683      000000
 2684 1a89 4889CE   		movq	%rcx, %rsi
 2685 1a8c 4889C7   		movq	%rax, %rdi
 2686 1a8f B8000000 		movl	$0, %eax
 2686      00
 2687 1a94 41FFD0   		call	*%r8
 2688              	.LVL146:
 2689              	.L153:
 611:/home/xingli/share/LiteOS_Lab/network/dtls/mbedtls/mbedtls-2.16.2/library/error.c ****     if( use_ret == -(MBEDTLS_ERR_AES_HW_ACCEL_FAILED) )
 2690              		.loc 1 611 7
 2691 1a97 837DEC25 		cmpl	$37, -20(%rbp)
 2692 1a9b 7524     		jne	.L154
 612:/home/xingli/share/LiteOS_Lab/network/dtls/mbedtls/mbedtls-2.16.2/library/error.c ****         mbedtls_snprintf( buf, buflen, "AES - AES hardware accelerator failed" );
 2693              		.loc 1 612 9
 2694 1a9d 4C8B0500 		movq	mbedtls_snprintf(%rip), %r8
 2694      000000
 2695 1aa4 488B4DC8 		movq	-56(%rbp), %rcx
 2696 1aa8 488B45D0 		movq	-48(%rbp), %rax
 2697 1aac 488D1500 		leaq	.LC147(%rip), %rdx
 2697      000000
 2698 1ab3 4889CE   		movq	%rcx, %rsi
 2699 1ab6 4889C7   		movq	%rax, %rdi
 2700 1ab9 B8000000 		movl	$0, %eax
 2700      00
 2701 1abe 41FFD0   		call	*%r8
 2702              	.LVL147:
 2703              	.L154:
 613:/home/xingli/share/LiteOS_Lab/network/dtls/mbedtls/mbedtls-2.16.2/library/error.c **** #endif /* MBEDTLS_AES_C */
 614:/home/xingli/share/LiteOS_Lab/network/dtls/mbedtls/mbedtls-2.16.2/library/error.c **** 
 615:/home/xingli/share/LiteOS_Lab/network/dtls/mbedtls/mbedtls-2.16.2/library/error.c **** #if defined(MBEDTLS_ARC4_C)
 616:/home/xingli/share/LiteOS_Lab/network/dtls/mbedtls/mbedtls-2.16.2/library/error.c ****     if( use_ret == -(MBEDTLS_ERR_ARC4_HW_ACCEL_FAILED) )
 617:/home/xingli/share/LiteOS_Lab/network/dtls/mbedtls/mbedtls-2.16.2/library/error.c ****         mbedtls_snprintf( buf, buflen, "ARC4 - ARC4 hardware accelerator failed" );
 618:/home/xingli/share/LiteOS_Lab/network/dtls/mbedtls/mbedtls-2.16.2/library/error.c **** #endif /* MBEDTLS_ARC4_C */
 619:/home/xingli/share/LiteOS_Lab/network/dtls/mbedtls/mbedtls-2.16.2/library/error.c **** 
 620:/home/xingli/share/LiteOS_Lab/network/dtls/mbedtls/mbedtls-2.16.2/library/error.c **** #if defined(MBEDTLS_ARIA_C)
 621:/home/xingli/share/LiteOS_Lab/network/dtls/mbedtls/mbedtls-2.16.2/library/error.c ****     if( use_ret == -(MBEDTLS_ERR_ARIA_BAD_INPUT_DATA) )
 622:/home/xingli/share/LiteOS_Lab/network/dtls/mbedtls/mbedtls-2.16.2/library/error.c ****         mbedtls_snprintf( buf, buflen, "ARIA - Bad input data" );
 623:/home/xingli/share/LiteOS_Lab/network/dtls/mbedtls/mbedtls-2.16.2/library/error.c ****     if( use_ret == -(MBEDTLS_ERR_ARIA_INVALID_INPUT_LENGTH) )
 624:/home/xingli/share/LiteOS_Lab/network/dtls/mbedtls/mbedtls-2.16.2/library/error.c ****         mbedtls_snprintf( buf, buflen, "ARIA - Invalid data input length" );
 625:/home/xingli/share/LiteOS_Lab/network/dtls/mbedtls/mbedtls-2.16.2/library/error.c ****     if( use_ret == -(MBEDTLS_ERR_ARIA_FEATURE_UNAVAILABLE) )
GAS LISTING /tmp/ccWIaY8W.s 			page 84


 626:/home/xingli/share/LiteOS_Lab/network/dtls/mbedtls/mbedtls-2.16.2/library/error.c ****         mbedtls_snprintf( buf, buflen, "ARIA - Feature not available. For example, an unsupported A
 627:/home/xingli/share/LiteOS_Lab/network/dtls/mbedtls/mbedtls-2.16.2/library/error.c ****     if( use_ret == -(MBEDTLS_ERR_ARIA_HW_ACCEL_FAILED) )
 628:/home/xingli/share/LiteOS_Lab/network/dtls/mbedtls/mbedtls-2.16.2/library/error.c ****         mbedtls_snprintf( buf, buflen, "ARIA - ARIA hardware accelerator failed" );
 629:/home/xingli/share/LiteOS_Lab/network/dtls/mbedtls/mbedtls-2.16.2/library/error.c **** #endif /* MBEDTLS_ARIA_C */
 630:/home/xingli/share/LiteOS_Lab/network/dtls/mbedtls/mbedtls-2.16.2/library/error.c **** 
 631:/home/xingli/share/LiteOS_Lab/network/dtls/mbedtls/mbedtls-2.16.2/library/error.c **** #if defined(MBEDTLS_ASN1_PARSE_C)
 632:/home/xingli/share/LiteOS_Lab/network/dtls/mbedtls/mbedtls-2.16.2/library/error.c ****     if( use_ret == -(MBEDTLS_ERR_ASN1_OUT_OF_DATA) )
 2704              		.loc 1 632 7
 2705 1ac1 837DEC60 		cmpl	$96, -20(%rbp)
 2706 1ac5 7524     		jne	.L155
 633:/home/xingli/share/LiteOS_Lab/network/dtls/mbedtls/mbedtls-2.16.2/library/error.c ****         mbedtls_snprintf( buf, buflen, "ASN1 - Out of data when parsing an ASN1 data structure" );
 2707              		.loc 1 633 9
 2708 1ac7 4C8B0500 		movq	mbedtls_snprintf(%rip), %r8
 2708      000000
 2709 1ace 488B4DC8 		movq	-56(%rbp), %rcx
 2710 1ad2 488B45D0 		movq	-48(%rbp), %rax
 2711 1ad6 488D1500 		leaq	.LC148(%rip), %rdx
 2711      000000
 2712 1add 4889CE   		movq	%rcx, %rsi
 2713 1ae0 4889C7   		movq	%rax, %rdi
 2714 1ae3 B8000000 		movl	$0, %eax
 2714      00
 2715 1ae8 41FFD0   		call	*%r8
 2716              	.LVL148:
 2717              	.L155:
 634:/home/xingli/share/LiteOS_Lab/network/dtls/mbedtls/mbedtls-2.16.2/library/error.c ****     if( use_ret == -(MBEDTLS_ERR_ASN1_UNEXPECTED_TAG) )
 2718              		.loc 1 634 7
 2719 1aeb 837DEC62 		cmpl	$98, -20(%rbp)
 2720 1aef 7524     		jne	.L156
 635:/home/xingli/share/LiteOS_Lab/network/dtls/mbedtls/mbedtls-2.16.2/library/error.c ****         mbedtls_snprintf( buf, buflen, "ASN1 - ASN1 tag was of an unexpected value" );
 2721              		.loc 1 635 9
 2722 1af1 4C8B0500 		movq	mbedtls_snprintf(%rip), %r8
 2722      000000
 2723 1af8 488B4DC8 		movq	-56(%rbp), %rcx
 2724 1afc 488B45D0 		movq	-48(%rbp), %rax
 2725 1b00 488D1500 		leaq	.LC149(%rip), %rdx
 2725      000000
 2726 1b07 4889CE   		movq	%rcx, %rsi
 2727 1b0a 4889C7   		movq	%rax, %rdi
 2728 1b0d B8000000 		movl	$0, %eax
 2728      00
 2729 1b12 41FFD0   		call	*%r8
 2730              	.LVL149:
 2731              	.L156:
 636:/home/xingli/share/LiteOS_Lab/network/dtls/mbedtls/mbedtls-2.16.2/library/error.c ****     if( use_ret == -(MBEDTLS_ERR_ASN1_INVALID_LENGTH) )
 2732              		.loc 1 636 7
 2733 1b15 837DEC64 		cmpl	$100, -20(%rbp)
 2734 1b19 7524     		jne	.L157
 637:/home/xingli/share/LiteOS_Lab/network/dtls/mbedtls/mbedtls-2.16.2/library/error.c ****         mbedtls_snprintf( buf, buflen, "ASN1 - Error when trying to determine the length or invalid
 2735              		.loc 1 637 9
 2736 1b1b 4C8B0500 		movq	mbedtls_snprintf(%rip), %r8
 2736      000000
 2737 1b22 488B4DC8 		movq	-56(%rbp), %rcx
 2738 1b26 488B45D0 		movq	-48(%rbp), %rax
 2739 1b2a 488D1500 		leaq	.LC150(%rip), %rdx
 2739      000000
 2740 1b31 4889CE   		movq	%rcx, %rsi
GAS LISTING /tmp/ccWIaY8W.s 			page 85


 2741 1b34 4889C7   		movq	%rax, %rdi
 2742 1b37 B8000000 		movl	$0, %eax
 2742      00
 2743 1b3c 41FFD0   		call	*%r8
 2744              	.LVL150:
 2745              	.L157:
 638:/home/xingli/share/LiteOS_Lab/network/dtls/mbedtls/mbedtls-2.16.2/library/error.c ****     if( use_ret == -(MBEDTLS_ERR_ASN1_LENGTH_MISMATCH) )
 2746              		.loc 1 638 7
 2747 1b3f 837DEC66 		cmpl	$102, -20(%rbp)
 2748 1b43 7524     		jne	.L158
 639:/home/xingli/share/LiteOS_Lab/network/dtls/mbedtls/mbedtls-2.16.2/library/error.c ****         mbedtls_snprintf( buf, buflen, "ASN1 - Actual length differs from expected length" );
 2749              		.loc 1 639 9
 2750 1b45 4C8B0500 		movq	mbedtls_snprintf(%rip), %r8
 2750      000000
 2751 1b4c 488B4DC8 		movq	-56(%rbp), %rcx
 2752 1b50 488B45D0 		movq	-48(%rbp), %rax
 2753 1b54 488D1500 		leaq	.LC151(%rip), %rdx
 2753      000000
 2754 1b5b 4889CE   		movq	%rcx, %rsi
 2755 1b5e 4889C7   		movq	%rax, %rdi
 2756 1b61 B8000000 		movl	$0, %eax
 2756      00
 2757 1b66 41FFD0   		call	*%r8
 2758              	.LVL151:
 2759              	.L158:
 640:/home/xingli/share/LiteOS_Lab/network/dtls/mbedtls/mbedtls-2.16.2/library/error.c ****     if( use_ret == -(MBEDTLS_ERR_ASN1_INVALID_DATA) )
 2760              		.loc 1 640 7
 2761 1b69 837DEC68 		cmpl	$104, -20(%rbp)
 2762 1b6d 7524     		jne	.L159
 641:/home/xingli/share/LiteOS_Lab/network/dtls/mbedtls/mbedtls-2.16.2/library/error.c ****         mbedtls_snprintf( buf, buflen, "ASN1 - Data is invalid. (not used)" );
 2763              		.loc 1 641 9
 2764 1b6f 4C8B0500 		movq	mbedtls_snprintf(%rip), %r8
 2764      000000
 2765 1b76 488B4DC8 		movq	-56(%rbp), %rcx
 2766 1b7a 488B45D0 		movq	-48(%rbp), %rax
 2767 1b7e 488D1500 		leaq	.LC152(%rip), %rdx
 2767      000000
 2768 1b85 4889CE   		movq	%rcx, %rsi
 2769 1b88 4889C7   		movq	%rax, %rdi
 2770 1b8b B8000000 		movl	$0, %eax
 2770      00
 2771 1b90 41FFD0   		call	*%r8
 2772              	.LVL152:
 2773              	.L159:
 642:/home/xingli/share/LiteOS_Lab/network/dtls/mbedtls/mbedtls-2.16.2/library/error.c ****     if( use_ret == -(MBEDTLS_ERR_ASN1_ALLOC_FAILED) )
 2774              		.loc 1 642 7
 2775 1b93 837DEC6A 		cmpl	$106, -20(%rbp)
 2776 1b97 7524     		jne	.L160
 643:/home/xingli/share/LiteOS_Lab/network/dtls/mbedtls/mbedtls-2.16.2/library/error.c ****         mbedtls_snprintf( buf, buflen, "ASN1 - Memory allocation failed" );
 2777              		.loc 1 643 9
 2778 1b99 4C8B0500 		movq	mbedtls_snprintf(%rip), %r8
 2778      000000
 2779 1ba0 488B4DC8 		movq	-56(%rbp), %rcx
 2780 1ba4 488B45D0 		movq	-48(%rbp), %rax
 2781 1ba8 488D1500 		leaq	.LC153(%rip), %rdx
 2781      000000
 2782 1baf 4889CE   		movq	%rcx, %rsi
GAS LISTING /tmp/ccWIaY8W.s 			page 86


 2783 1bb2 4889C7   		movq	%rax, %rdi
 2784 1bb5 B8000000 		movl	$0, %eax
 2784      00
 2785 1bba 41FFD0   		call	*%r8
 2786              	.LVL153:
 2787              	.L160:
 644:/home/xingli/share/LiteOS_Lab/network/dtls/mbedtls/mbedtls-2.16.2/library/error.c ****     if( use_ret == -(MBEDTLS_ERR_ASN1_BUF_TOO_SMALL) )
 2788              		.loc 1 644 7
 2789 1bbd 837DEC6C 		cmpl	$108, -20(%rbp)
 2790 1bc1 7524     		jne	.L161
 645:/home/xingli/share/LiteOS_Lab/network/dtls/mbedtls/mbedtls-2.16.2/library/error.c ****         mbedtls_snprintf( buf, buflen, "ASN1 - Buffer too small when writing ASN.1 data structure" 
 2791              		.loc 1 645 9
 2792 1bc3 4C8B0500 		movq	mbedtls_snprintf(%rip), %r8
 2792      000000
 2793 1bca 488B4DC8 		movq	-56(%rbp), %rcx
 2794 1bce 488B45D0 		movq	-48(%rbp), %rax
 2795 1bd2 488D1500 		leaq	.LC154(%rip), %rdx
 2795      000000
 2796 1bd9 4889CE   		movq	%rcx, %rsi
 2797 1bdc 4889C7   		movq	%rax, %rdi
 2798 1bdf B8000000 		movl	$0, %eax
 2798      00
 2799 1be4 41FFD0   		call	*%r8
 2800              	.LVL154:
 2801              	.L161:
 646:/home/xingli/share/LiteOS_Lab/network/dtls/mbedtls/mbedtls-2.16.2/library/error.c **** #endif /* MBEDTLS_ASN1_PARSE_C */
 647:/home/xingli/share/LiteOS_Lab/network/dtls/mbedtls/mbedtls-2.16.2/library/error.c **** 
 648:/home/xingli/share/LiteOS_Lab/network/dtls/mbedtls/mbedtls-2.16.2/library/error.c **** #if defined(MBEDTLS_BASE64_C)
 649:/home/xingli/share/LiteOS_Lab/network/dtls/mbedtls/mbedtls-2.16.2/library/error.c ****     if( use_ret == -(MBEDTLS_ERR_BASE64_BUFFER_TOO_SMALL) )
 2802              		.loc 1 649 7
 2803 1be7 837DEC2A 		cmpl	$42, -20(%rbp)
 2804 1beb 7524     		jne	.L162
 650:/home/xingli/share/LiteOS_Lab/network/dtls/mbedtls/mbedtls-2.16.2/library/error.c ****         mbedtls_snprintf( buf, buflen, "BASE64 - Output buffer too small" );
 2805              		.loc 1 650 9
 2806 1bed 4C8B0500 		movq	mbedtls_snprintf(%rip), %r8
 2806      000000
 2807 1bf4 488B4DC8 		movq	-56(%rbp), %rcx
 2808 1bf8 488B45D0 		movq	-48(%rbp), %rax
 2809 1bfc 488D1500 		leaq	.LC155(%rip), %rdx
 2809      000000
 2810 1c03 4889CE   		movq	%rcx, %rsi
 2811 1c06 4889C7   		movq	%rax, %rdi
 2812 1c09 B8000000 		movl	$0, %eax
 2812      00
 2813 1c0e 41FFD0   		call	*%r8
 2814              	.LVL155:
 2815              	.L162:
 651:/home/xingli/share/LiteOS_Lab/network/dtls/mbedtls/mbedtls-2.16.2/library/error.c ****     if( use_ret == -(MBEDTLS_ERR_BASE64_INVALID_CHARACTER) )
 2816              		.loc 1 651 7
 2817 1c11 837DEC2C 		cmpl	$44, -20(%rbp)
 2818 1c15 7524     		jne	.L163
 652:/home/xingli/share/LiteOS_Lab/network/dtls/mbedtls/mbedtls-2.16.2/library/error.c ****         mbedtls_snprintf( buf, buflen, "BASE64 - Invalid character in input" );
 2819              		.loc 1 652 9
 2820 1c17 4C8B0500 		movq	mbedtls_snprintf(%rip), %r8
 2820      000000
 2821 1c1e 488B4DC8 		movq	-56(%rbp), %rcx
 2822 1c22 488B45D0 		movq	-48(%rbp), %rax
GAS LISTING /tmp/ccWIaY8W.s 			page 87


 2823 1c26 488D1500 		leaq	.LC156(%rip), %rdx
 2823      000000
 2824 1c2d 4889CE   		movq	%rcx, %rsi
 2825 1c30 4889C7   		movq	%rax, %rdi
 2826 1c33 B8000000 		movl	$0, %eax
 2826      00
 2827 1c38 41FFD0   		call	*%r8
 2828              	.LVL156:
 2829              	.L163:
 653:/home/xingli/share/LiteOS_Lab/network/dtls/mbedtls/mbedtls-2.16.2/library/error.c **** #endif /* MBEDTLS_BASE64_C */
 654:/home/xingli/share/LiteOS_Lab/network/dtls/mbedtls/mbedtls-2.16.2/library/error.c **** 
 655:/home/xingli/share/LiteOS_Lab/network/dtls/mbedtls/mbedtls-2.16.2/library/error.c **** #if defined(MBEDTLS_BIGNUM_C)
 656:/home/xingli/share/LiteOS_Lab/network/dtls/mbedtls/mbedtls-2.16.2/library/error.c ****     if( use_ret == -(MBEDTLS_ERR_MPI_FILE_IO_ERROR) )
 2830              		.loc 1 656 7
 2831 1c3b 837DEC02 		cmpl	$2, -20(%rbp)
 2832 1c3f 7524     		jne	.L164
 657:/home/xingli/share/LiteOS_Lab/network/dtls/mbedtls/mbedtls-2.16.2/library/error.c ****         mbedtls_snprintf( buf, buflen, "BIGNUM - An error occurred while reading from or writing to
 2833              		.loc 1 657 9
 2834 1c41 4C8B0500 		movq	mbedtls_snprintf(%rip), %r8
 2834      000000
 2835 1c48 488B4DC8 		movq	-56(%rbp), %rcx
 2836 1c4c 488B45D0 		movq	-48(%rbp), %rax
 2837 1c50 488D1500 		leaq	.LC157(%rip), %rdx
 2837      000000
 2838 1c57 4889CE   		movq	%rcx, %rsi
 2839 1c5a 4889C7   		movq	%rax, %rdi
 2840 1c5d B8000000 		movl	$0, %eax
 2840      00
 2841 1c62 41FFD0   		call	*%r8
 2842              	.LVL157:
 2843              	.L164:
 658:/home/xingli/share/LiteOS_Lab/network/dtls/mbedtls/mbedtls-2.16.2/library/error.c ****     if( use_ret == -(MBEDTLS_ERR_MPI_BAD_INPUT_DATA) )
 2844              		.loc 1 658 7
 2845 1c65 837DEC04 		cmpl	$4, -20(%rbp)
 2846 1c69 7524     		jne	.L165
 659:/home/xingli/share/LiteOS_Lab/network/dtls/mbedtls/mbedtls-2.16.2/library/error.c ****         mbedtls_snprintf( buf, buflen, "BIGNUM - Bad input parameters to function" );
 2847              		.loc 1 659 9
 2848 1c6b 4C8B0500 		movq	mbedtls_snprintf(%rip), %r8
 2848      000000
 2849 1c72 488B4DC8 		movq	-56(%rbp), %rcx
 2850 1c76 488B45D0 		movq	-48(%rbp), %rax
 2851 1c7a 488D1500 		leaq	.LC158(%rip), %rdx
 2851      000000
 2852 1c81 4889CE   		movq	%rcx, %rsi
 2853 1c84 4889C7   		movq	%rax, %rdi
 2854 1c87 B8000000 		movl	$0, %eax
 2854      00
 2855 1c8c 41FFD0   		call	*%r8
 2856              	.LVL158:
 2857              	.L165:
 660:/home/xingli/share/LiteOS_Lab/network/dtls/mbedtls/mbedtls-2.16.2/library/error.c ****     if( use_ret == -(MBEDTLS_ERR_MPI_INVALID_CHARACTER) )
 2858              		.loc 1 660 7
 2859 1c8f 837DEC06 		cmpl	$6, -20(%rbp)
 2860 1c93 7524     		jne	.L166
 661:/home/xingli/share/LiteOS_Lab/network/dtls/mbedtls/mbedtls-2.16.2/library/error.c ****         mbedtls_snprintf( buf, buflen, "BIGNUM - There is an invalid character in the digit string"
 2861              		.loc 1 661 9
 2862 1c95 4C8B0500 		movq	mbedtls_snprintf(%rip), %r8
GAS LISTING /tmp/ccWIaY8W.s 			page 88


 2862      000000
 2863 1c9c 488B4DC8 		movq	-56(%rbp), %rcx
 2864 1ca0 488B45D0 		movq	-48(%rbp), %rax
 2865 1ca4 488D1500 		leaq	.LC159(%rip), %rdx
 2865      000000
 2866 1cab 4889CE   		movq	%rcx, %rsi
 2867 1cae 4889C7   		movq	%rax, %rdi
 2868 1cb1 B8000000 		movl	$0, %eax
 2868      00
 2869 1cb6 41FFD0   		call	*%r8
 2870              	.LVL159:
 2871              	.L166:
 662:/home/xingli/share/LiteOS_Lab/network/dtls/mbedtls/mbedtls-2.16.2/library/error.c ****     if( use_ret == -(MBEDTLS_ERR_MPI_BUFFER_TOO_SMALL) )
 2872              		.loc 1 662 7
 2873 1cb9 837DEC08 		cmpl	$8, -20(%rbp)
 2874 1cbd 7524     		jne	.L167
 663:/home/xingli/share/LiteOS_Lab/network/dtls/mbedtls/mbedtls-2.16.2/library/error.c ****         mbedtls_snprintf( buf, buflen, "BIGNUM - The buffer is too small to write to" );
 2875              		.loc 1 663 9
 2876 1cbf 4C8B0500 		movq	mbedtls_snprintf(%rip), %r8
 2876      000000
 2877 1cc6 488B4DC8 		movq	-56(%rbp), %rcx
 2878 1cca 488B45D0 		movq	-48(%rbp), %rax
 2879 1cce 488D1500 		leaq	.LC160(%rip), %rdx
 2879      000000
 2880 1cd5 4889CE   		movq	%rcx, %rsi
 2881 1cd8 4889C7   		movq	%rax, %rdi
 2882 1cdb B8000000 		movl	$0, %eax
 2882      00
 2883 1ce0 41FFD0   		call	*%r8
 2884              	.LVL160:
 2885              	.L167:
 664:/home/xingli/share/LiteOS_Lab/network/dtls/mbedtls/mbedtls-2.16.2/library/error.c ****     if( use_ret == -(MBEDTLS_ERR_MPI_NEGATIVE_VALUE) )
 2886              		.loc 1 664 7
 2887 1ce3 837DEC0A 		cmpl	$10, -20(%rbp)
 2888 1ce7 7524     		jne	.L168
 665:/home/xingli/share/LiteOS_Lab/network/dtls/mbedtls/mbedtls-2.16.2/library/error.c ****         mbedtls_snprintf( buf, buflen, "BIGNUM - The input arguments are negative or result in ille
 2889              		.loc 1 665 9
 2890 1ce9 4C8B0500 		movq	mbedtls_snprintf(%rip), %r8
 2890      000000
 2891 1cf0 488B4DC8 		movq	-56(%rbp), %rcx
 2892 1cf4 488B45D0 		movq	-48(%rbp), %rax
 2893 1cf8 488D1500 		leaq	.LC161(%rip), %rdx
 2893      000000
 2894 1cff 4889CE   		movq	%rcx, %rsi
 2895 1d02 4889C7   		movq	%rax, %rdi
 2896 1d05 B8000000 		movl	$0, %eax
 2896      00
 2897 1d0a 41FFD0   		call	*%r8
 2898              	.LVL161:
 2899              	.L168:
 666:/home/xingli/share/LiteOS_Lab/network/dtls/mbedtls/mbedtls-2.16.2/library/error.c ****     if( use_ret == -(MBEDTLS_ERR_MPI_DIVISION_BY_ZERO) )
 2900              		.loc 1 666 7
 2901 1d0d 837DEC0C 		cmpl	$12, -20(%rbp)
 2902 1d11 7524     		jne	.L169
 667:/home/xingli/share/LiteOS_Lab/network/dtls/mbedtls/mbedtls-2.16.2/library/error.c ****         mbedtls_snprintf( buf, buflen, "BIGNUM - The input argument for division is zero, which is 
 2903              		.loc 1 667 9
 2904 1d13 4C8B0500 		movq	mbedtls_snprintf(%rip), %r8
GAS LISTING /tmp/ccWIaY8W.s 			page 89


 2904      000000
 2905 1d1a 488B4DC8 		movq	-56(%rbp), %rcx
 2906 1d1e 488B45D0 		movq	-48(%rbp), %rax
 2907 1d22 488D1500 		leaq	.LC162(%rip), %rdx
 2907      000000
 2908 1d29 4889CE   		movq	%rcx, %rsi
 2909 1d2c 4889C7   		movq	%rax, %rdi
 2910 1d2f B8000000 		movl	$0, %eax
 2910      00
 2911 1d34 41FFD0   		call	*%r8
 2912              	.LVL162:
 2913              	.L169:
 668:/home/xingli/share/LiteOS_Lab/network/dtls/mbedtls/mbedtls-2.16.2/library/error.c ****     if( use_ret == -(MBEDTLS_ERR_MPI_NOT_ACCEPTABLE) )
 2914              		.loc 1 668 7
 2915 1d37 837DEC0E 		cmpl	$14, -20(%rbp)
 2916 1d3b 7524     		jne	.L170
 669:/home/xingli/share/LiteOS_Lab/network/dtls/mbedtls/mbedtls-2.16.2/library/error.c ****         mbedtls_snprintf( buf, buflen, "BIGNUM - The input arguments are not acceptable" );
 2917              		.loc 1 669 9
 2918 1d3d 4C8B0500 		movq	mbedtls_snprintf(%rip), %r8
 2918      000000
 2919 1d44 488B4DC8 		movq	-56(%rbp), %rcx
 2920 1d48 488B45D0 		movq	-48(%rbp), %rax
 2921 1d4c 488D1500 		leaq	.LC163(%rip), %rdx
 2921      000000
 2922 1d53 4889CE   		movq	%rcx, %rsi
 2923 1d56 4889C7   		movq	%rax, %rdi
 2924 1d59 B8000000 		movl	$0, %eax
 2924      00
 2925 1d5e 41FFD0   		call	*%r8
 2926              	.LVL163:
 2927              	.L170:
 670:/home/xingli/share/LiteOS_Lab/network/dtls/mbedtls/mbedtls-2.16.2/library/error.c ****     if( use_ret == -(MBEDTLS_ERR_MPI_ALLOC_FAILED) )
 2928              		.loc 1 670 7
 2929 1d61 837DEC10 		cmpl	$16, -20(%rbp)
 2930 1d65 7524     		jne	.L171
 671:/home/xingli/share/LiteOS_Lab/network/dtls/mbedtls/mbedtls-2.16.2/library/error.c ****         mbedtls_snprintf( buf, buflen, "BIGNUM - Memory allocation failed" );
 2931              		.loc 1 671 9
 2932 1d67 4C8B0500 		movq	mbedtls_snprintf(%rip), %r8
 2932      000000
 2933 1d6e 488B4DC8 		movq	-56(%rbp), %rcx
 2934 1d72 488B45D0 		movq	-48(%rbp), %rax
 2935 1d76 488D1500 		leaq	.LC164(%rip), %rdx
 2935      000000
 2936 1d7d 4889CE   		movq	%rcx, %rsi
 2937 1d80 4889C7   		movq	%rax, %rdi
 2938 1d83 B8000000 		movl	$0, %eax
 2938      00
 2939 1d88 41FFD0   		call	*%r8
 2940              	.LVL164:
 2941              	.L171:
 672:/home/xingli/share/LiteOS_Lab/network/dtls/mbedtls/mbedtls-2.16.2/library/error.c **** #endif /* MBEDTLS_BIGNUM_C */
 673:/home/xingli/share/LiteOS_Lab/network/dtls/mbedtls/mbedtls-2.16.2/library/error.c **** 
 674:/home/xingli/share/LiteOS_Lab/network/dtls/mbedtls/mbedtls-2.16.2/library/error.c **** #if defined(MBEDTLS_BLOWFISH_C)
 675:/home/xingli/share/LiteOS_Lab/network/dtls/mbedtls/mbedtls-2.16.2/library/error.c ****     if( use_ret == -(MBEDTLS_ERR_BLOWFISH_BAD_INPUT_DATA) )
 676:/home/xingli/share/LiteOS_Lab/network/dtls/mbedtls/mbedtls-2.16.2/library/error.c ****         mbedtls_snprintf( buf, buflen, "BLOWFISH - Bad input data" );
 677:/home/xingli/share/LiteOS_Lab/network/dtls/mbedtls/mbedtls-2.16.2/library/error.c ****     if( use_ret == -(MBEDTLS_ERR_BLOWFISH_INVALID_INPUT_LENGTH) )
 678:/home/xingli/share/LiteOS_Lab/network/dtls/mbedtls/mbedtls-2.16.2/library/error.c ****         mbedtls_snprintf( buf, buflen, "BLOWFISH - Invalid data input length" );
GAS LISTING /tmp/ccWIaY8W.s 			page 90


 679:/home/xingli/share/LiteOS_Lab/network/dtls/mbedtls/mbedtls-2.16.2/library/error.c ****     if( use_ret == -(MBEDTLS_ERR_BLOWFISH_HW_ACCEL_FAILED) )
 680:/home/xingli/share/LiteOS_Lab/network/dtls/mbedtls/mbedtls-2.16.2/library/error.c ****         mbedtls_snprintf( buf, buflen, "BLOWFISH - Blowfish hardware accelerator failed" );
 681:/home/xingli/share/LiteOS_Lab/network/dtls/mbedtls/mbedtls-2.16.2/library/error.c **** #endif /* MBEDTLS_BLOWFISH_C */
 682:/home/xingli/share/LiteOS_Lab/network/dtls/mbedtls/mbedtls-2.16.2/library/error.c **** 
 683:/home/xingli/share/LiteOS_Lab/network/dtls/mbedtls/mbedtls-2.16.2/library/error.c **** #if defined(MBEDTLS_CAMELLIA_C)
 684:/home/xingli/share/LiteOS_Lab/network/dtls/mbedtls/mbedtls-2.16.2/library/error.c ****     if( use_ret == -(MBEDTLS_ERR_CAMELLIA_BAD_INPUT_DATA) )
 685:/home/xingli/share/LiteOS_Lab/network/dtls/mbedtls/mbedtls-2.16.2/library/error.c ****         mbedtls_snprintf( buf, buflen, "CAMELLIA - Bad input data" );
 686:/home/xingli/share/LiteOS_Lab/network/dtls/mbedtls/mbedtls-2.16.2/library/error.c ****     if( use_ret == -(MBEDTLS_ERR_CAMELLIA_INVALID_INPUT_LENGTH) )
 687:/home/xingli/share/LiteOS_Lab/network/dtls/mbedtls/mbedtls-2.16.2/library/error.c ****         mbedtls_snprintf( buf, buflen, "CAMELLIA - Invalid data input length" );
 688:/home/xingli/share/LiteOS_Lab/network/dtls/mbedtls/mbedtls-2.16.2/library/error.c ****     if( use_ret == -(MBEDTLS_ERR_CAMELLIA_HW_ACCEL_FAILED) )
 689:/home/xingli/share/LiteOS_Lab/network/dtls/mbedtls/mbedtls-2.16.2/library/error.c ****         mbedtls_snprintf( buf, buflen, "CAMELLIA - Camellia hardware accelerator failed" );
 690:/home/xingli/share/LiteOS_Lab/network/dtls/mbedtls/mbedtls-2.16.2/library/error.c **** #endif /* MBEDTLS_CAMELLIA_C */
 691:/home/xingli/share/LiteOS_Lab/network/dtls/mbedtls/mbedtls-2.16.2/library/error.c **** 
 692:/home/xingli/share/LiteOS_Lab/network/dtls/mbedtls/mbedtls-2.16.2/library/error.c **** #if defined(MBEDTLS_CCM_C)
 693:/home/xingli/share/LiteOS_Lab/network/dtls/mbedtls/mbedtls-2.16.2/library/error.c ****     if( use_ret == -(MBEDTLS_ERR_CCM_BAD_INPUT) )
 694:/home/xingli/share/LiteOS_Lab/network/dtls/mbedtls/mbedtls-2.16.2/library/error.c ****         mbedtls_snprintf( buf, buflen, "CCM - Bad input parameters to the function" );
 695:/home/xingli/share/LiteOS_Lab/network/dtls/mbedtls/mbedtls-2.16.2/library/error.c ****     if( use_ret == -(MBEDTLS_ERR_CCM_AUTH_FAILED) )
 696:/home/xingli/share/LiteOS_Lab/network/dtls/mbedtls/mbedtls-2.16.2/library/error.c ****         mbedtls_snprintf( buf, buflen, "CCM - Authenticated decryption failed" );
 697:/home/xingli/share/LiteOS_Lab/network/dtls/mbedtls/mbedtls-2.16.2/library/error.c ****     if( use_ret == -(MBEDTLS_ERR_CCM_HW_ACCEL_FAILED) )
 698:/home/xingli/share/LiteOS_Lab/network/dtls/mbedtls/mbedtls-2.16.2/library/error.c ****         mbedtls_snprintf( buf, buflen, "CCM - CCM hardware accelerator failed" );
 699:/home/xingli/share/LiteOS_Lab/network/dtls/mbedtls/mbedtls-2.16.2/library/error.c **** #endif /* MBEDTLS_CCM_C */
 700:/home/xingli/share/LiteOS_Lab/network/dtls/mbedtls/mbedtls-2.16.2/library/error.c **** 
 701:/home/xingli/share/LiteOS_Lab/network/dtls/mbedtls/mbedtls-2.16.2/library/error.c **** #if defined(MBEDTLS_CHACHA20_C)
 702:/home/xingli/share/LiteOS_Lab/network/dtls/mbedtls/mbedtls-2.16.2/library/error.c ****     if( use_ret == -(MBEDTLS_ERR_CHACHA20_BAD_INPUT_DATA) )
 703:/home/xingli/share/LiteOS_Lab/network/dtls/mbedtls/mbedtls-2.16.2/library/error.c ****         mbedtls_snprintf( buf, buflen, "CHACHA20 - Invalid input parameter(s)" );
 704:/home/xingli/share/LiteOS_Lab/network/dtls/mbedtls/mbedtls-2.16.2/library/error.c ****     if( use_ret == -(MBEDTLS_ERR_CHACHA20_FEATURE_UNAVAILABLE) )
 705:/home/xingli/share/LiteOS_Lab/network/dtls/mbedtls/mbedtls-2.16.2/library/error.c ****         mbedtls_snprintf( buf, buflen, "CHACHA20 - Feature not available. For example, s part of th
 706:/home/xingli/share/LiteOS_Lab/network/dtls/mbedtls/mbedtls-2.16.2/library/error.c ****     if( use_ret == -(MBEDTLS_ERR_CHACHA20_HW_ACCEL_FAILED) )
 707:/home/xingli/share/LiteOS_Lab/network/dtls/mbedtls/mbedtls-2.16.2/library/error.c ****         mbedtls_snprintf( buf, buflen, "CHACHA20 - Chacha20 hardware accelerator failed" );
 708:/home/xingli/share/LiteOS_Lab/network/dtls/mbedtls/mbedtls-2.16.2/library/error.c **** #endif /* MBEDTLS_CHACHA20_C */
 709:/home/xingli/share/LiteOS_Lab/network/dtls/mbedtls/mbedtls-2.16.2/library/error.c **** 
 710:/home/xingli/share/LiteOS_Lab/network/dtls/mbedtls/mbedtls-2.16.2/library/error.c **** #if defined(MBEDTLS_CHACHAPOLY_C)
 711:/home/xingli/share/LiteOS_Lab/network/dtls/mbedtls/mbedtls-2.16.2/library/error.c ****     if( use_ret == -(MBEDTLS_ERR_CHACHAPOLY_BAD_STATE) )
 712:/home/xingli/share/LiteOS_Lab/network/dtls/mbedtls/mbedtls-2.16.2/library/error.c ****         mbedtls_snprintf( buf, buflen, "CHACHAPOLY - The requested operation is not permitted in th
 713:/home/xingli/share/LiteOS_Lab/network/dtls/mbedtls/mbedtls-2.16.2/library/error.c ****     if( use_ret == -(MBEDTLS_ERR_CHACHAPOLY_AUTH_FAILED) )
 714:/home/xingli/share/LiteOS_Lab/network/dtls/mbedtls/mbedtls-2.16.2/library/error.c ****         mbedtls_snprintf( buf, buflen, "CHACHAPOLY - Authenticated decryption failed: data was not 
 715:/home/xingli/share/LiteOS_Lab/network/dtls/mbedtls/mbedtls-2.16.2/library/error.c **** #endif /* MBEDTLS_CHACHAPOLY_C */
 716:/home/xingli/share/LiteOS_Lab/network/dtls/mbedtls/mbedtls-2.16.2/library/error.c **** 
 717:/home/xingli/share/LiteOS_Lab/network/dtls/mbedtls/mbedtls-2.16.2/library/error.c **** #if defined(MBEDTLS_CMAC_C)
 718:/home/xingli/share/LiteOS_Lab/network/dtls/mbedtls/mbedtls-2.16.2/library/error.c ****     if( use_ret == -(MBEDTLS_ERR_CMAC_HW_ACCEL_FAILED) )
 719:/home/xingli/share/LiteOS_Lab/network/dtls/mbedtls/mbedtls-2.16.2/library/error.c ****         mbedtls_snprintf( buf, buflen, "CMAC - CMAC hardware accelerator failed" );
 720:/home/xingli/share/LiteOS_Lab/network/dtls/mbedtls/mbedtls-2.16.2/library/error.c **** #endif /* MBEDTLS_CMAC_C */
 721:/home/xingli/share/LiteOS_Lab/network/dtls/mbedtls/mbedtls-2.16.2/library/error.c **** 
 722:/home/xingli/share/LiteOS_Lab/network/dtls/mbedtls/mbedtls-2.16.2/library/error.c **** #if defined(MBEDTLS_CTR_DRBG_C)
 723:/home/xingli/share/LiteOS_Lab/network/dtls/mbedtls/mbedtls-2.16.2/library/error.c ****     if( use_ret == -(MBEDTLS_ERR_CTR_DRBG_ENTROPY_SOURCE_FAILED) )
 2942              		.loc 1 723 7
 2943 1d8b 837DEC34 		cmpl	$52, -20(%rbp)
 2944 1d8f 7524     		jne	.L172
 724:/home/xingli/share/LiteOS_Lab/network/dtls/mbedtls/mbedtls-2.16.2/library/error.c ****         mbedtls_snprintf( buf, buflen, "CTR_DRBG - The entropy source failed" );
 2945              		.loc 1 724 9
 2946 1d91 4C8B0500 		movq	mbedtls_snprintf(%rip), %r8
 2946      000000
 2947 1d98 488B4DC8 		movq	-56(%rbp), %rcx
 2948 1d9c 488B45D0 		movq	-48(%rbp), %rax
 2949 1da0 488D1500 		leaq	.LC165(%rip), %rdx
 2949      000000
 2950 1da7 4889CE   		movq	%rcx, %rsi
GAS LISTING /tmp/ccWIaY8W.s 			page 91


 2951 1daa 4889C7   		movq	%rax, %rdi
 2952 1dad B8000000 		movl	$0, %eax
 2952      00
 2953 1db2 41FFD0   		call	*%r8
 2954              	.LVL165:
 2955              	.L172:
 725:/home/xingli/share/LiteOS_Lab/network/dtls/mbedtls/mbedtls-2.16.2/library/error.c ****     if( use_ret == -(MBEDTLS_ERR_CTR_DRBG_REQUEST_TOO_BIG) )
 2956              		.loc 1 725 7
 2957 1db5 837DEC36 		cmpl	$54, -20(%rbp)
 2958 1db9 7524     		jne	.L173
 726:/home/xingli/share/LiteOS_Lab/network/dtls/mbedtls/mbedtls-2.16.2/library/error.c ****         mbedtls_snprintf( buf, buflen, "CTR_DRBG - The requested random buffer length is too big" )
 2959              		.loc 1 726 9
 2960 1dbb 4C8B0500 		movq	mbedtls_snprintf(%rip), %r8
 2960      000000
 2961 1dc2 488B4DC8 		movq	-56(%rbp), %rcx
 2962 1dc6 488B45D0 		movq	-48(%rbp), %rax
 2963 1dca 488D1500 		leaq	.LC166(%rip), %rdx
 2963      000000
 2964 1dd1 4889CE   		movq	%rcx, %rsi
 2965 1dd4 4889C7   		movq	%rax, %rdi
 2966 1dd7 B8000000 		movl	$0, %eax
 2966      00
 2967 1ddc 41FFD0   		call	*%r8
 2968              	.LVL166:
 2969              	.L173:
 727:/home/xingli/share/LiteOS_Lab/network/dtls/mbedtls/mbedtls-2.16.2/library/error.c ****     if( use_ret == -(MBEDTLS_ERR_CTR_DRBG_INPUT_TOO_BIG) )
 2970              		.loc 1 727 7
 2971 1ddf 837DEC38 		cmpl	$56, -20(%rbp)
 2972 1de3 7524     		jne	.L174
 728:/home/xingli/share/LiteOS_Lab/network/dtls/mbedtls/mbedtls-2.16.2/library/error.c ****         mbedtls_snprintf( buf, buflen, "CTR_DRBG - The input (entropy + additional data) is too lar
 2973              		.loc 1 728 9
 2974 1de5 4C8B0500 		movq	mbedtls_snprintf(%rip), %r8
 2974      000000
 2975 1dec 488B4DC8 		movq	-56(%rbp), %rcx
 2976 1df0 488B45D0 		movq	-48(%rbp), %rax
 2977 1df4 488D1500 		leaq	.LC167(%rip), %rdx
 2977      000000
 2978 1dfb 4889CE   		movq	%rcx, %rsi
 2979 1dfe 4889C7   		movq	%rax, %rdi
 2980 1e01 B8000000 		movl	$0, %eax
 2980      00
 2981 1e06 41FFD0   		call	*%r8
 2982              	.LVL167:
 2983              	.L174:
 729:/home/xingli/share/LiteOS_Lab/network/dtls/mbedtls/mbedtls-2.16.2/library/error.c ****     if( use_ret == -(MBEDTLS_ERR_CTR_DRBG_FILE_IO_ERROR) )
 2984              		.loc 1 729 7
 2985 1e09 837DEC3A 		cmpl	$58, -20(%rbp)
 2986 1e0d 7524     		jne	.L175
 730:/home/xingli/share/LiteOS_Lab/network/dtls/mbedtls/mbedtls-2.16.2/library/error.c ****         mbedtls_snprintf( buf, buflen, "CTR_DRBG - Read or write error in file" );
 2987              		.loc 1 730 9
 2988 1e0f 4C8B0500 		movq	mbedtls_snprintf(%rip), %r8
 2988      000000
 2989 1e16 488B4DC8 		movq	-56(%rbp), %rcx
 2990 1e1a 488B45D0 		movq	-48(%rbp), %rax
 2991 1e1e 488D1500 		leaq	.LC168(%rip), %rdx
 2991      000000
 2992 1e25 4889CE   		movq	%rcx, %rsi
GAS LISTING /tmp/ccWIaY8W.s 			page 92


 2993 1e28 4889C7   		movq	%rax, %rdi
 2994 1e2b B8000000 		movl	$0, %eax
 2994      00
 2995 1e30 41FFD0   		call	*%r8
 2996              	.LVL168:
 2997              	.L175:
 731:/home/xingli/share/LiteOS_Lab/network/dtls/mbedtls/mbedtls-2.16.2/library/error.c **** #endif /* MBEDTLS_CTR_DRBG_C */
 732:/home/xingli/share/LiteOS_Lab/network/dtls/mbedtls/mbedtls-2.16.2/library/error.c **** 
 733:/home/xingli/share/LiteOS_Lab/network/dtls/mbedtls/mbedtls-2.16.2/library/error.c **** #if defined(MBEDTLS_DES_C)
 734:/home/xingli/share/LiteOS_Lab/network/dtls/mbedtls/mbedtls-2.16.2/library/error.c ****     if( use_ret == -(MBEDTLS_ERR_DES_INVALID_INPUT_LENGTH) )
 735:/home/xingli/share/LiteOS_Lab/network/dtls/mbedtls/mbedtls-2.16.2/library/error.c ****         mbedtls_snprintf( buf, buflen, "DES - The data input has an invalid length" );
 736:/home/xingli/share/LiteOS_Lab/network/dtls/mbedtls/mbedtls-2.16.2/library/error.c ****     if( use_ret == -(MBEDTLS_ERR_DES_HW_ACCEL_FAILED) )
 737:/home/xingli/share/LiteOS_Lab/network/dtls/mbedtls/mbedtls-2.16.2/library/error.c ****         mbedtls_snprintf( buf, buflen, "DES - DES hardware accelerator failed" );
 738:/home/xingli/share/LiteOS_Lab/network/dtls/mbedtls/mbedtls-2.16.2/library/error.c **** #endif /* MBEDTLS_DES_C */
 739:/home/xingli/share/LiteOS_Lab/network/dtls/mbedtls/mbedtls-2.16.2/library/error.c **** 
 740:/home/xingli/share/LiteOS_Lab/network/dtls/mbedtls/mbedtls-2.16.2/library/error.c **** #if defined(MBEDTLS_ENTROPY_C)
 741:/home/xingli/share/LiteOS_Lab/network/dtls/mbedtls/mbedtls-2.16.2/library/error.c ****     if( use_ret == -(MBEDTLS_ERR_ENTROPY_SOURCE_FAILED) )
 2998              		.loc 1 741 7
 2999 1e33 837DEC3C 		cmpl	$60, -20(%rbp)
 3000 1e37 7524     		jne	.L176
 742:/home/xingli/share/LiteOS_Lab/network/dtls/mbedtls/mbedtls-2.16.2/library/error.c ****         mbedtls_snprintf( buf, buflen, "ENTROPY - Critical entropy source failure" );
 3001              		.loc 1 742 9
 3002 1e39 4C8B0500 		movq	mbedtls_snprintf(%rip), %r8
 3002      000000
 3003 1e40 488B4DC8 		movq	-56(%rbp), %rcx
 3004 1e44 488B45D0 		movq	-48(%rbp), %rax
 3005 1e48 488D1500 		leaq	.LC169(%rip), %rdx
 3005      000000
 3006 1e4f 4889CE   		movq	%rcx, %rsi
 3007 1e52 4889C7   		movq	%rax, %rdi
 3008 1e55 B8000000 		movl	$0, %eax
 3008      00
 3009 1e5a 41FFD0   		call	*%r8
 3010              	.LVL169:
 3011              	.L176:
 743:/home/xingli/share/LiteOS_Lab/network/dtls/mbedtls/mbedtls-2.16.2/library/error.c ****     if( use_ret == -(MBEDTLS_ERR_ENTROPY_MAX_SOURCES) )
 3012              		.loc 1 743 7
 3013 1e5d 837DEC3E 		cmpl	$62, -20(%rbp)
 3014 1e61 7524     		jne	.L177
 744:/home/xingli/share/LiteOS_Lab/network/dtls/mbedtls/mbedtls-2.16.2/library/error.c ****         mbedtls_snprintf( buf, buflen, "ENTROPY - No more sources can be added" );
 3015              		.loc 1 744 9
 3016 1e63 4C8B0500 		movq	mbedtls_snprintf(%rip), %r8
 3016      000000
 3017 1e6a 488B4DC8 		movq	-56(%rbp), %rcx
 3018 1e6e 488B45D0 		movq	-48(%rbp), %rax
 3019 1e72 488D1500 		leaq	.LC170(%rip), %rdx
 3019      000000
 3020 1e79 4889CE   		movq	%rcx, %rsi
 3021 1e7c 4889C7   		movq	%rax, %rdi
 3022 1e7f B8000000 		movl	$0, %eax
 3022      00
 3023 1e84 41FFD0   		call	*%r8
 3024              	.LVL170:
 3025              	.L177:
 745:/home/xingli/share/LiteOS_Lab/network/dtls/mbedtls/mbedtls-2.16.2/library/error.c ****     if( use_ret == -(MBEDTLS_ERR_ENTROPY_NO_SOURCES_DEFINED) )
 3026              		.loc 1 745 7
 3027 1e87 837DEC40 		cmpl	$64, -20(%rbp)
GAS LISTING /tmp/ccWIaY8W.s 			page 93


 3028 1e8b 7524     		jne	.L178
 746:/home/xingli/share/LiteOS_Lab/network/dtls/mbedtls/mbedtls-2.16.2/library/error.c ****         mbedtls_snprintf( buf, buflen, "ENTROPY - No sources have been added to poll" );
 3029              		.loc 1 746 9
 3030 1e8d 4C8B0500 		movq	mbedtls_snprintf(%rip), %r8
 3030      000000
 3031 1e94 488B4DC8 		movq	-56(%rbp), %rcx
 3032 1e98 488B45D0 		movq	-48(%rbp), %rax
 3033 1e9c 488D1500 		leaq	.LC171(%rip), %rdx
 3033      000000
 3034 1ea3 4889CE   		movq	%rcx, %rsi
 3035 1ea6 4889C7   		movq	%rax, %rdi
 3036 1ea9 B8000000 		movl	$0, %eax
 3036      00
 3037 1eae 41FFD0   		call	*%r8
 3038              	.LVL171:
 3039              	.L178:
 747:/home/xingli/share/LiteOS_Lab/network/dtls/mbedtls/mbedtls-2.16.2/library/error.c ****     if( use_ret == -(MBEDTLS_ERR_ENTROPY_NO_STRONG_SOURCE) )
 3040              		.loc 1 747 7
 3041 1eb1 837DEC3D 		cmpl	$61, -20(%rbp)
 3042 1eb5 7524     		jne	.L179
 748:/home/xingli/share/LiteOS_Lab/network/dtls/mbedtls/mbedtls-2.16.2/library/error.c ****         mbedtls_snprintf( buf, buflen, "ENTROPY - No strong sources have been added to poll" );
 3043              		.loc 1 748 9
 3044 1eb7 4C8B0500 		movq	mbedtls_snprintf(%rip), %r8
 3044      000000
 3045 1ebe 488B4DC8 		movq	-56(%rbp), %rcx
 3046 1ec2 488B45D0 		movq	-48(%rbp), %rax
 3047 1ec6 488D1500 		leaq	.LC172(%rip), %rdx
 3047      000000
 3048 1ecd 4889CE   		movq	%rcx, %rsi
 3049 1ed0 4889C7   		movq	%rax, %rdi
 3050 1ed3 B8000000 		movl	$0, %eax
 3050      00
 3051 1ed8 41FFD0   		call	*%r8
 3052              	.LVL172:
 3053              	.L179:
 749:/home/xingli/share/LiteOS_Lab/network/dtls/mbedtls/mbedtls-2.16.2/library/error.c ****     if( use_ret == -(MBEDTLS_ERR_ENTROPY_FILE_IO_ERROR) )
 3054              		.loc 1 749 7
 3055 1edb 837DEC3F 		cmpl	$63, -20(%rbp)
 3056 1edf 7524     		jne	.L180
 750:/home/xingli/share/LiteOS_Lab/network/dtls/mbedtls/mbedtls-2.16.2/library/error.c ****         mbedtls_snprintf( buf, buflen, "ENTROPY - Read/write error in file" );
 3057              		.loc 1 750 9
 3058 1ee1 4C8B0500 		movq	mbedtls_snprintf(%rip), %r8
 3058      000000
 3059 1ee8 488B4DC8 		movq	-56(%rbp), %rcx
 3060 1eec 488B45D0 		movq	-48(%rbp), %rax
 3061 1ef0 488D1500 		leaq	.LC173(%rip), %rdx
 3061      000000
 3062 1ef7 4889CE   		movq	%rcx, %rsi
 3063 1efa 4889C7   		movq	%rax, %rdi
 3064 1efd B8000000 		movl	$0, %eax
 3064      00
 3065 1f02 41FFD0   		call	*%r8
 3066              	.LVL173:
 3067              	.L180:
 751:/home/xingli/share/LiteOS_Lab/network/dtls/mbedtls/mbedtls-2.16.2/library/error.c **** #endif /* MBEDTLS_ENTROPY_C */
 752:/home/xingli/share/LiteOS_Lab/network/dtls/mbedtls/mbedtls-2.16.2/library/error.c **** 
 753:/home/xingli/share/LiteOS_Lab/network/dtls/mbedtls/mbedtls-2.16.2/library/error.c **** #if defined(MBEDTLS_GCM_C)
GAS LISTING /tmp/ccWIaY8W.s 			page 94


 754:/home/xingli/share/LiteOS_Lab/network/dtls/mbedtls/mbedtls-2.16.2/library/error.c ****     if( use_ret == -(MBEDTLS_ERR_GCM_AUTH_FAILED) )
 3068              		.loc 1 754 7
 3069 1f05 837DEC12 		cmpl	$18, -20(%rbp)
 3070 1f09 7524     		jne	.L181
 755:/home/xingli/share/LiteOS_Lab/network/dtls/mbedtls/mbedtls-2.16.2/library/error.c ****         mbedtls_snprintf( buf, buflen, "GCM - Authenticated decryption failed" );
 3071              		.loc 1 755 9
 3072 1f0b 4C8B0500 		movq	mbedtls_snprintf(%rip), %r8
 3072      000000
 3073 1f12 488B4DC8 		movq	-56(%rbp), %rcx
 3074 1f16 488B45D0 		movq	-48(%rbp), %rax
 3075 1f1a 488D1500 		leaq	.LC174(%rip), %rdx
 3075      000000
 3076 1f21 4889CE   		movq	%rcx, %rsi
 3077 1f24 4889C7   		movq	%rax, %rdi
 3078 1f27 B8000000 		movl	$0, %eax
 3078      00
 3079 1f2c 41FFD0   		call	*%r8
 3080              	.LVL174:
 3081              	.L181:
 756:/home/xingli/share/LiteOS_Lab/network/dtls/mbedtls/mbedtls-2.16.2/library/error.c ****     if( use_ret == -(MBEDTLS_ERR_GCM_HW_ACCEL_FAILED) )
 3082              		.loc 1 756 7
 3083 1f2f 837DEC13 		cmpl	$19, -20(%rbp)
 3084 1f33 7524     		jne	.L182
 757:/home/xingli/share/LiteOS_Lab/network/dtls/mbedtls/mbedtls-2.16.2/library/error.c ****         mbedtls_snprintf( buf, buflen, "GCM - GCM hardware accelerator failed" );
 3085              		.loc 1 757 9
 3086 1f35 4C8B0500 		movq	mbedtls_snprintf(%rip), %r8
 3086      000000
 3087 1f3c 488B4DC8 		movq	-56(%rbp), %rcx
 3088 1f40 488B45D0 		movq	-48(%rbp), %rax
 3089 1f44 488D1500 		leaq	.LC175(%rip), %rdx
 3089      000000
 3090 1f4b 4889CE   		movq	%rcx, %rsi
 3091 1f4e 4889C7   		movq	%rax, %rdi
 3092 1f51 B8000000 		movl	$0, %eax
 3092      00
 3093 1f56 41FFD0   		call	*%r8
 3094              	.LVL175:
 3095              	.L182:
 758:/home/xingli/share/LiteOS_Lab/network/dtls/mbedtls/mbedtls-2.16.2/library/error.c ****     if( use_ret == -(MBEDTLS_ERR_GCM_BAD_INPUT) )
 3096              		.loc 1 758 7
 3097 1f59 837DEC14 		cmpl	$20, -20(%rbp)
 3098 1f5d 7524     		jne	.L183
 759:/home/xingli/share/LiteOS_Lab/network/dtls/mbedtls/mbedtls-2.16.2/library/error.c ****         mbedtls_snprintf( buf, buflen, "GCM - Bad input parameters to function" );
 3099              		.loc 1 759 9
 3100 1f5f 4C8B0500 		movq	mbedtls_snprintf(%rip), %r8
 3100      000000
 3101 1f66 488B4DC8 		movq	-56(%rbp), %rcx
 3102 1f6a 488B45D0 		movq	-48(%rbp), %rax
 3103 1f6e 488D1500 		leaq	.LC176(%rip), %rdx
 3103      000000
 3104 1f75 4889CE   		movq	%rcx, %rsi
 3105 1f78 4889C7   		movq	%rax, %rdi
 3106 1f7b B8000000 		movl	$0, %eax
 3106      00
 3107 1f80 41FFD0   		call	*%r8
 3108              	.LVL176:
 3109              	.L183:
GAS LISTING /tmp/ccWIaY8W.s 			page 95


 760:/home/xingli/share/LiteOS_Lab/network/dtls/mbedtls/mbedtls-2.16.2/library/error.c **** #endif /* MBEDTLS_GCM_C */
 761:/home/xingli/share/LiteOS_Lab/network/dtls/mbedtls/mbedtls-2.16.2/library/error.c **** 
 762:/home/xingli/share/LiteOS_Lab/network/dtls/mbedtls/mbedtls-2.16.2/library/error.c **** #if defined(MBEDTLS_HKDF_C)
 763:/home/xingli/share/LiteOS_Lab/network/dtls/mbedtls/mbedtls-2.16.2/library/error.c ****     if( use_ret == -(MBEDTLS_ERR_HKDF_BAD_INPUT_DATA) )
 764:/home/xingli/share/LiteOS_Lab/network/dtls/mbedtls/mbedtls-2.16.2/library/error.c ****         mbedtls_snprintf( buf, buflen, "HKDF - Bad input parameters to function" );
 765:/home/xingli/share/LiteOS_Lab/network/dtls/mbedtls/mbedtls-2.16.2/library/error.c **** #endif /* MBEDTLS_HKDF_C */
 766:/home/xingli/share/LiteOS_Lab/network/dtls/mbedtls/mbedtls-2.16.2/library/error.c **** 
 767:/home/xingli/share/LiteOS_Lab/network/dtls/mbedtls/mbedtls-2.16.2/library/error.c **** #if defined(MBEDTLS_HMAC_DRBG_C)
 768:/home/xingli/share/LiteOS_Lab/network/dtls/mbedtls/mbedtls-2.16.2/library/error.c ****     if( use_ret == -(MBEDTLS_ERR_HMAC_DRBG_REQUEST_TOO_BIG) )
 769:/home/xingli/share/LiteOS_Lab/network/dtls/mbedtls/mbedtls-2.16.2/library/error.c ****         mbedtls_snprintf( buf, buflen, "HMAC_DRBG - Too many random requested in single call" );
 770:/home/xingli/share/LiteOS_Lab/network/dtls/mbedtls/mbedtls-2.16.2/library/error.c ****     if( use_ret == -(MBEDTLS_ERR_HMAC_DRBG_INPUT_TOO_BIG) )
 771:/home/xingli/share/LiteOS_Lab/network/dtls/mbedtls/mbedtls-2.16.2/library/error.c ****         mbedtls_snprintf( buf, buflen, "HMAC_DRBG - Input too large (Entropy + additional)" );
 772:/home/xingli/share/LiteOS_Lab/network/dtls/mbedtls/mbedtls-2.16.2/library/error.c ****     if( use_ret == -(MBEDTLS_ERR_HMAC_DRBG_FILE_IO_ERROR) )
 773:/home/xingli/share/LiteOS_Lab/network/dtls/mbedtls/mbedtls-2.16.2/library/error.c ****         mbedtls_snprintf( buf, buflen, "HMAC_DRBG - Read/write error in file" );
 774:/home/xingli/share/LiteOS_Lab/network/dtls/mbedtls/mbedtls-2.16.2/library/error.c ****     if( use_ret == -(MBEDTLS_ERR_HMAC_DRBG_ENTROPY_SOURCE_FAILED) )
 775:/home/xingli/share/LiteOS_Lab/network/dtls/mbedtls/mbedtls-2.16.2/library/error.c ****         mbedtls_snprintf( buf, buflen, "HMAC_DRBG - The entropy source failed" );
 776:/home/xingli/share/LiteOS_Lab/network/dtls/mbedtls/mbedtls-2.16.2/library/error.c **** #endif /* MBEDTLS_HMAC_DRBG_C */
 777:/home/xingli/share/LiteOS_Lab/network/dtls/mbedtls/mbedtls-2.16.2/library/error.c **** 
 778:/home/xingli/share/LiteOS_Lab/network/dtls/mbedtls/mbedtls-2.16.2/library/error.c **** #if defined(MBEDTLS_MD2_C)
 779:/home/xingli/share/LiteOS_Lab/network/dtls/mbedtls/mbedtls-2.16.2/library/error.c ****     if( use_ret == -(MBEDTLS_ERR_MD2_HW_ACCEL_FAILED) )
 780:/home/xingli/share/LiteOS_Lab/network/dtls/mbedtls/mbedtls-2.16.2/library/error.c ****         mbedtls_snprintf( buf, buflen, "MD2 - MD2 hardware accelerator failed" );
 781:/home/xingli/share/LiteOS_Lab/network/dtls/mbedtls/mbedtls-2.16.2/library/error.c **** #endif /* MBEDTLS_MD2_C */
 782:/home/xingli/share/LiteOS_Lab/network/dtls/mbedtls/mbedtls-2.16.2/library/error.c **** 
 783:/home/xingli/share/LiteOS_Lab/network/dtls/mbedtls/mbedtls-2.16.2/library/error.c **** #if defined(MBEDTLS_MD4_C)
 784:/home/xingli/share/LiteOS_Lab/network/dtls/mbedtls/mbedtls-2.16.2/library/error.c ****     if( use_ret == -(MBEDTLS_ERR_MD4_HW_ACCEL_FAILED) )
 785:/home/xingli/share/LiteOS_Lab/network/dtls/mbedtls/mbedtls-2.16.2/library/error.c ****         mbedtls_snprintf( buf, buflen, "MD4 - MD4 hardware accelerator failed" );
 786:/home/xingli/share/LiteOS_Lab/network/dtls/mbedtls/mbedtls-2.16.2/library/error.c **** #endif /* MBEDTLS_MD4_C */
 787:/home/xingli/share/LiteOS_Lab/network/dtls/mbedtls/mbedtls-2.16.2/library/error.c **** 
 788:/home/xingli/share/LiteOS_Lab/network/dtls/mbedtls/mbedtls-2.16.2/library/error.c **** #if defined(MBEDTLS_MD5_C)
 789:/home/xingli/share/LiteOS_Lab/network/dtls/mbedtls/mbedtls-2.16.2/library/error.c ****     if( use_ret == -(MBEDTLS_ERR_MD5_HW_ACCEL_FAILED) )
 790:/home/xingli/share/LiteOS_Lab/network/dtls/mbedtls/mbedtls-2.16.2/library/error.c ****         mbedtls_snprintf( buf, buflen, "MD5 - MD5 hardware accelerator failed" );
 791:/home/xingli/share/LiteOS_Lab/network/dtls/mbedtls/mbedtls-2.16.2/library/error.c **** #endif /* MBEDTLS_MD5_C */
 792:/home/xingli/share/LiteOS_Lab/network/dtls/mbedtls/mbedtls-2.16.2/library/error.c **** 
 793:/home/xingli/share/LiteOS_Lab/network/dtls/mbedtls/mbedtls-2.16.2/library/error.c **** #if defined(MBEDTLS_NET_C)
 794:/home/xingli/share/LiteOS_Lab/network/dtls/mbedtls/mbedtls-2.16.2/library/error.c ****     if( use_ret == -(MBEDTLS_ERR_NET_SOCKET_FAILED) )
 795:/home/xingli/share/LiteOS_Lab/network/dtls/mbedtls/mbedtls-2.16.2/library/error.c ****         mbedtls_snprintf( buf, buflen, "NET - Failed to open a socket" );
 796:/home/xingli/share/LiteOS_Lab/network/dtls/mbedtls/mbedtls-2.16.2/library/error.c ****     if( use_ret == -(MBEDTLS_ERR_NET_CONNECT_FAILED) )
 797:/home/xingli/share/LiteOS_Lab/network/dtls/mbedtls/mbedtls-2.16.2/library/error.c ****         mbedtls_snprintf( buf, buflen, "NET - The connection to the given server / port failed" );
 798:/home/xingli/share/LiteOS_Lab/network/dtls/mbedtls/mbedtls-2.16.2/library/error.c ****     if( use_ret == -(MBEDTLS_ERR_NET_BIND_FAILED) )
 799:/home/xingli/share/LiteOS_Lab/network/dtls/mbedtls/mbedtls-2.16.2/library/error.c ****         mbedtls_snprintf( buf, buflen, "NET - Binding of the socket failed" );
 800:/home/xingli/share/LiteOS_Lab/network/dtls/mbedtls/mbedtls-2.16.2/library/error.c ****     if( use_ret == -(MBEDTLS_ERR_NET_LISTEN_FAILED) )
 801:/home/xingli/share/LiteOS_Lab/network/dtls/mbedtls/mbedtls-2.16.2/library/error.c ****         mbedtls_snprintf( buf, buflen, "NET - Could not listen on the socket" );
 802:/home/xingli/share/LiteOS_Lab/network/dtls/mbedtls/mbedtls-2.16.2/library/error.c ****     if( use_ret == -(MBEDTLS_ERR_NET_ACCEPT_FAILED) )
 803:/home/xingli/share/LiteOS_Lab/network/dtls/mbedtls/mbedtls-2.16.2/library/error.c ****         mbedtls_snprintf( buf, buflen, "NET - Could not accept the incoming connection" );
 804:/home/xingli/share/LiteOS_Lab/network/dtls/mbedtls/mbedtls-2.16.2/library/error.c ****     if( use_ret == -(MBEDTLS_ERR_NET_RECV_FAILED) )
 805:/home/xingli/share/LiteOS_Lab/network/dtls/mbedtls/mbedtls-2.16.2/library/error.c ****         mbedtls_snprintf( buf, buflen, "NET - Reading information from the socket failed" );
 806:/home/xingli/share/LiteOS_Lab/network/dtls/mbedtls/mbedtls-2.16.2/library/error.c ****     if( use_ret == -(MBEDTLS_ERR_NET_SEND_FAILED) )
 807:/home/xingli/share/LiteOS_Lab/network/dtls/mbedtls/mbedtls-2.16.2/library/error.c ****         mbedtls_snprintf( buf, buflen, "NET - Sending information through the socket failed" );
 808:/home/xingli/share/LiteOS_Lab/network/dtls/mbedtls/mbedtls-2.16.2/library/error.c ****     if( use_ret == -(MBEDTLS_ERR_NET_CONN_RESET) )
 809:/home/xingli/share/LiteOS_Lab/network/dtls/mbedtls/mbedtls-2.16.2/library/error.c ****         mbedtls_snprintf( buf, buflen, "NET - Connection was reset by peer" );
 810:/home/xingli/share/LiteOS_Lab/network/dtls/mbedtls/mbedtls-2.16.2/library/error.c ****     if( use_ret == -(MBEDTLS_ERR_NET_UNKNOWN_HOST) )
 811:/home/xingli/share/LiteOS_Lab/network/dtls/mbedtls/mbedtls-2.16.2/library/error.c ****         mbedtls_snprintf( buf, buflen, "NET - Failed to get an IP address for the given hostname" )
 812:/home/xingli/share/LiteOS_Lab/network/dtls/mbedtls/mbedtls-2.16.2/library/error.c ****     if( use_ret == -(MBEDTLS_ERR_NET_BUFFER_TOO_SMALL) )
 813:/home/xingli/share/LiteOS_Lab/network/dtls/mbedtls/mbedtls-2.16.2/library/error.c ****         mbedtls_snprintf( buf, buflen, "NET - Buffer is too small to hold the data" );
 814:/home/xingli/share/LiteOS_Lab/network/dtls/mbedtls/mbedtls-2.16.2/library/error.c ****     if( use_ret == -(MBEDTLS_ERR_NET_INVALID_CONTEXT) )
 815:/home/xingli/share/LiteOS_Lab/network/dtls/mbedtls/mbedtls-2.16.2/library/error.c ****         mbedtls_snprintf( buf, buflen, "NET - The context is invalid, eg because it was free()ed" )
 816:/home/xingli/share/LiteOS_Lab/network/dtls/mbedtls/mbedtls-2.16.2/library/error.c ****     if( use_ret == -(MBEDTLS_ERR_NET_POLL_FAILED) )
GAS LISTING /tmp/ccWIaY8W.s 			page 96


 817:/home/xingli/share/LiteOS_Lab/network/dtls/mbedtls/mbedtls-2.16.2/library/error.c ****         mbedtls_snprintf( buf, buflen, "NET - Polling the net context failed" );
 818:/home/xingli/share/LiteOS_Lab/network/dtls/mbedtls/mbedtls-2.16.2/library/error.c ****     if( use_ret == -(MBEDTLS_ERR_NET_BAD_INPUT_DATA) )
 819:/home/xingli/share/LiteOS_Lab/network/dtls/mbedtls/mbedtls-2.16.2/library/error.c ****         mbedtls_snprintf( buf, buflen, "NET - Input invalid" );
 820:/home/xingli/share/LiteOS_Lab/network/dtls/mbedtls/mbedtls-2.16.2/library/error.c **** #endif /* MBEDTLS_NET_C */
 821:/home/xingli/share/LiteOS_Lab/network/dtls/mbedtls/mbedtls-2.16.2/library/error.c **** 
 822:/home/xingli/share/LiteOS_Lab/network/dtls/mbedtls/mbedtls-2.16.2/library/error.c **** #if defined(MBEDTLS_OID_C)
 823:/home/xingli/share/LiteOS_Lab/network/dtls/mbedtls/mbedtls-2.16.2/library/error.c ****     if( use_ret == -(MBEDTLS_ERR_OID_NOT_FOUND) )
 3110              		.loc 1 823 7
 3111 1f83 837DEC2E 		cmpl	$46, -20(%rbp)
 3112 1f87 7524     		jne	.L184
 824:/home/xingli/share/LiteOS_Lab/network/dtls/mbedtls/mbedtls-2.16.2/library/error.c ****         mbedtls_snprintf( buf, buflen, "OID - OID is not found" );
 3113              		.loc 1 824 9
 3114 1f89 4C8B0500 		movq	mbedtls_snprintf(%rip), %r8
 3114      000000
 3115 1f90 488B4DC8 		movq	-56(%rbp), %rcx
 3116 1f94 488B45D0 		movq	-48(%rbp), %rax
 3117 1f98 488D1500 		leaq	.LC177(%rip), %rdx
 3117      000000
 3118 1f9f 4889CE   		movq	%rcx, %rsi
 3119 1fa2 4889C7   		movq	%rax, %rdi
 3120 1fa5 B8000000 		movl	$0, %eax
 3120      00
 3121 1faa 41FFD0   		call	*%r8
 3122              	.LVL177:
 3123              	.L184:
 825:/home/xingli/share/LiteOS_Lab/network/dtls/mbedtls/mbedtls-2.16.2/library/error.c ****     if( use_ret == -(MBEDTLS_ERR_OID_BUF_TOO_SMALL) )
 3124              		.loc 1 825 7
 3125 1fad 837DEC0B 		cmpl	$11, -20(%rbp)
 3126 1fb1 7524     		jne	.L185
 826:/home/xingli/share/LiteOS_Lab/network/dtls/mbedtls/mbedtls-2.16.2/library/error.c ****         mbedtls_snprintf( buf, buflen, "OID - output buffer is too small" );
 3127              		.loc 1 826 9
 3128 1fb3 4C8B0500 		movq	mbedtls_snprintf(%rip), %r8
 3128      000000
 3129 1fba 488B4DC8 		movq	-56(%rbp), %rcx
 3130 1fbe 488B45D0 		movq	-48(%rbp), %rax
 3131 1fc2 488D1500 		leaq	.LC178(%rip), %rdx
 3131      000000
 3132 1fc9 4889CE   		movq	%rcx, %rsi
 3133 1fcc 4889C7   		movq	%rax, %rdi
 3134 1fcf B8000000 		movl	$0, %eax
 3134      00
 3135 1fd4 41FFD0   		call	*%r8
 3136              	.LVL178:
 3137              	.L185:
 827:/home/xingli/share/LiteOS_Lab/network/dtls/mbedtls/mbedtls-2.16.2/library/error.c **** #endif /* MBEDTLS_OID_C */
 828:/home/xingli/share/LiteOS_Lab/network/dtls/mbedtls/mbedtls-2.16.2/library/error.c **** 
 829:/home/xingli/share/LiteOS_Lab/network/dtls/mbedtls/mbedtls-2.16.2/library/error.c **** #if defined(MBEDTLS_PADLOCK_C)
 830:/home/xingli/share/LiteOS_Lab/network/dtls/mbedtls/mbedtls-2.16.2/library/error.c ****     if( use_ret == -(MBEDTLS_ERR_PADLOCK_DATA_MISALIGNED) )
 831:/home/xingli/share/LiteOS_Lab/network/dtls/mbedtls/mbedtls-2.16.2/library/error.c ****         mbedtls_snprintf( buf, buflen, "PADLOCK - Input data should be aligned" );
 832:/home/xingli/share/LiteOS_Lab/network/dtls/mbedtls/mbedtls-2.16.2/library/error.c **** #endif /* MBEDTLS_PADLOCK_C */
 833:/home/xingli/share/LiteOS_Lab/network/dtls/mbedtls/mbedtls-2.16.2/library/error.c **** 
 834:/home/xingli/share/LiteOS_Lab/network/dtls/mbedtls/mbedtls-2.16.2/library/error.c **** #if defined(MBEDTLS_PLATFORM_C)
 835:/home/xingli/share/LiteOS_Lab/network/dtls/mbedtls/mbedtls-2.16.2/library/error.c ****     if( use_ret == -(MBEDTLS_ERR_PLATFORM_HW_ACCEL_FAILED) )
 3138              		.loc 1 835 7
 3139 1fd7 837DEC70 		cmpl	$112, -20(%rbp)
 3140 1fdb 7524     		jne	.L186
 836:/home/xingli/share/LiteOS_Lab/network/dtls/mbedtls/mbedtls-2.16.2/library/error.c ****         mbedtls_snprintf( buf, buflen, "PLATFORM - Hardware accelerator failed" );
GAS LISTING /tmp/ccWIaY8W.s 			page 97


 3141              		.loc 1 836 9
 3142 1fdd 4C8B0500 		movq	mbedtls_snprintf(%rip), %r8
 3142      000000
 3143 1fe4 488B4DC8 		movq	-56(%rbp), %rcx
 3144 1fe8 488B45D0 		movq	-48(%rbp), %rax
 3145 1fec 488D1500 		leaq	.LC179(%rip), %rdx
 3145      000000
 3146 1ff3 4889CE   		movq	%rcx, %rsi
 3147 1ff6 4889C7   		movq	%rax, %rdi
 3148 1ff9 B8000000 		movl	$0, %eax
 3148      00
 3149 1ffe 41FFD0   		call	*%r8
 3150              	.LVL179:
 3151              	.L186:
 837:/home/xingli/share/LiteOS_Lab/network/dtls/mbedtls/mbedtls-2.16.2/library/error.c ****     if( use_ret == -(MBEDTLS_ERR_PLATFORM_FEATURE_UNSUPPORTED) )
 3152              		.loc 1 837 7
 3153 2001 837DEC72 		cmpl	$114, -20(%rbp)
 3154 2005 7524     		jne	.L187
 838:/home/xingli/share/LiteOS_Lab/network/dtls/mbedtls/mbedtls-2.16.2/library/error.c ****         mbedtls_snprintf( buf, buflen, "PLATFORM - The requested feature is not supported by the pl
 3155              		.loc 1 838 9
 3156 2007 4C8B0500 		movq	mbedtls_snprintf(%rip), %r8
 3156      000000
 3157 200e 488B4DC8 		movq	-56(%rbp), %rcx
 3158 2012 488B45D0 		movq	-48(%rbp), %rax
 3159 2016 488D1500 		leaq	.LC180(%rip), %rdx
 3159      000000
 3160 201d 4889CE   		movq	%rcx, %rsi
 3161 2020 4889C7   		movq	%rax, %rdi
 3162 2023 B8000000 		movl	$0, %eax
 3162      00
 3163 2028 41FFD0   		call	*%r8
 3164              	.LVL180:
 3165              	.L187:
 839:/home/xingli/share/LiteOS_Lab/network/dtls/mbedtls/mbedtls-2.16.2/library/error.c **** #endif /* MBEDTLS_PLATFORM_C */
 840:/home/xingli/share/LiteOS_Lab/network/dtls/mbedtls/mbedtls-2.16.2/library/error.c **** 
 841:/home/xingli/share/LiteOS_Lab/network/dtls/mbedtls/mbedtls-2.16.2/library/error.c **** #if defined(MBEDTLS_POLY1305_C)
 842:/home/xingli/share/LiteOS_Lab/network/dtls/mbedtls/mbedtls-2.16.2/library/error.c ****     if( use_ret == -(MBEDTLS_ERR_POLY1305_BAD_INPUT_DATA) )
 843:/home/xingli/share/LiteOS_Lab/network/dtls/mbedtls/mbedtls-2.16.2/library/error.c ****         mbedtls_snprintf( buf, buflen, "POLY1305 - Invalid input parameter(s)" );
 844:/home/xingli/share/LiteOS_Lab/network/dtls/mbedtls/mbedtls-2.16.2/library/error.c ****     if( use_ret == -(MBEDTLS_ERR_POLY1305_FEATURE_UNAVAILABLE) )
 845:/home/xingli/share/LiteOS_Lab/network/dtls/mbedtls/mbedtls-2.16.2/library/error.c ****         mbedtls_snprintf( buf, buflen, "POLY1305 - Feature not available. For example, s part of th
 846:/home/xingli/share/LiteOS_Lab/network/dtls/mbedtls/mbedtls-2.16.2/library/error.c ****     if( use_ret == -(MBEDTLS_ERR_POLY1305_HW_ACCEL_FAILED) )
 847:/home/xingli/share/LiteOS_Lab/network/dtls/mbedtls/mbedtls-2.16.2/library/error.c ****         mbedtls_snprintf( buf, buflen, "POLY1305 - Poly1305 hardware accelerator failed" );
 848:/home/xingli/share/LiteOS_Lab/network/dtls/mbedtls/mbedtls-2.16.2/library/error.c **** #endif /* MBEDTLS_POLY1305_C */
 849:/home/xingli/share/LiteOS_Lab/network/dtls/mbedtls/mbedtls-2.16.2/library/error.c **** 
 850:/home/xingli/share/LiteOS_Lab/network/dtls/mbedtls/mbedtls-2.16.2/library/error.c **** #if defined(MBEDTLS_RIPEMD160_C)
 851:/home/xingli/share/LiteOS_Lab/network/dtls/mbedtls/mbedtls-2.16.2/library/error.c ****     if( use_ret == -(MBEDTLS_ERR_RIPEMD160_HW_ACCEL_FAILED) )
 852:/home/xingli/share/LiteOS_Lab/network/dtls/mbedtls/mbedtls-2.16.2/library/error.c ****         mbedtls_snprintf( buf, buflen, "RIPEMD160 - RIPEMD160 hardware accelerator failed" );
 853:/home/xingli/share/LiteOS_Lab/network/dtls/mbedtls/mbedtls-2.16.2/library/error.c **** #endif /* MBEDTLS_RIPEMD160_C */
 854:/home/xingli/share/LiteOS_Lab/network/dtls/mbedtls/mbedtls-2.16.2/library/error.c **** 
 855:/home/xingli/share/LiteOS_Lab/network/dtls/mbedtls/mbedtls-2.16.2/library/error.c **** #if defined(MBEDTLS_SHA1_C)
 856:/home/xingli/share/LiteOS_Lab/network/dtls/mbedtls/mbedtls-2.16.2/library/error.c ****     if( use_ret == -(MBEDTLS_ERR_SHA1_HW_ACCEL_FAILED) )
 3166              		.loc 1 856 7
 3167 202b 837DEC35 		cmpl	$53, -20(%rbp)
 3168 202f 7524     		jne	.L188
 857:/home/xingli/share/LiteOS_Lab/network/dtls/mbedtls/mbedtls-2.16.2/library/error.c ****         mbedtls_snprintf( buf, buflen, "SHA1 - SHA-1 hardware accelerator failed" );
 3169              		.loc 1 857 9
 3170 2031 4C8B0500 		movq	mbedtls_snprintf(%rip), %r8
GAS LISTING /tmp/ccWIaY8W.s 			page 98


 3170      000000
 3171 2038 488B4DC8 		movq	-56(%rbp), %rcx
 3172 203c 488B45D0 		movq	-48(%rbp), %rax
 3173 2040 488D1500 		leaq	.LC181(%rip), %rdx
 3173      000000
 3174 2047 4889CE   		movq	%rcx, %rsi
 3175 204a 4889C7   		movq	%rax, %rdi
 3176 204d B8000000 		movl	$0, %eax
 3176      00
 3177 2052 41FFD0   		call	*%r8
 3178              	.LVL181:
 3179              	.L188:
 858:/home/xingli/share/LiteOS_Lab/network/dtls/mbedtls/mbedtls-2.16.2/library/error.c ****     if( use_ret == -(MBEDTLS_ERR_SHA1_BAD_INPUT_DATA) )
 3180              		.loc 1 858 7
 3181 2055 837DEC73 		cmpl	$115, -20(%rbp)
 3182 2059 7524     		jne	.L189
 859:/home/xingli/share/LiteOS_Lab/network/dtls/mbedtls/mbedtls-2.16.2/library/error.c ****         mbedtls_snprintf( buf, buflen, "SHA1 - SHA-1 input data was malformed" );
 3183              		.loc 1 859 9
 3184 205b 4C8B0500 		movq	mbedtls_snprintf(%rip), %r8
 3184      000000
 3185 2062 488B4DC8 		movq	-56(%rbp), %rcx
 3186 2066 488B45D0 		movq	-48(%rbp), %rax
 3187 206a 488D1500 		leaq	.LC182(%rip), %rdx
 3187      000000
 3188 2071 4889CE   		movq	%rcx, %rsi
 3189 2074 4889C7   		movq	%rax, %rdi
 3190 2077 B8000000 		movl	$0, %eax
 3190      00
 3191 207c 41FFD0   		call	*%r8
 3192              	.LVL182:
 3193              	.L189:
 860:/home/xingli/share/LiteOS_Lab/network/dtls/mbedtls/mbedtls-2.16.2/library/error.c **** #endif /* MBEDTLS_SHA1_C */
 861:/home/xingli/share/LiteOS_Lab/network/dtls/mbedtls/mbedtls-2.16.2/library/error.c **** 
 862:/home/xingli/share/LiteOS_Lab/network/dtls/mbedtls/mbedtls-2.16.2/library/error.c **** #if defined(MBEDTLS_SHA256_C)
 863:/home/xingli/share/LiteOS_Lab/network/dtls/mbedtls/mbedtls-2.16.2/library/error.c ****     if( use_ret == -(MBEDTLS_ERR_SHA256_HW_ACCEL_FAILED) )
 3194              		.loc 1 863 7
 3195 207f 837DEC37 		cmpl	$55, -20(%rbp)
 3196 2083 7524     		jne	.L190
 864:/home/xingli/share/LiteOS_Lab/network/dtls/mbedtls/mbedtls-2.16.2/library/error.c ****         mbedtls_snprintf( buf, buflen, "SHA256 - SHA-256 hardware accelerator failed" );
 3197              		.loc 1 864 9
 3198 2085 4C8B0500 		movq	mbedtls_snprintf(%rip), %r8
 3198      000000
 3199 208c 488B4DC8 		movq	-56(%rbp), %rcx
 3200 2090 488B45D0 		movq	-48(%rbp), %rax
 3201 2094 488D1500 		leaq	.LC183(%rip), %rdx
 3201      000000
 3202 209b 4889CE   		movq	%rcx, %rsi
 3203 209e 4889C7   		movq	%rax, %rdi
 3204 20a1 B8000000 		movl	$0, %eax
 3204      00
 3205 20a6 41FFD0   		call	*%r8
 3206              	.LVL183:
 3207              	.L190:
 865:/home/xingli/share/LiteOS_Lab/network/dtls/mbedtls/mbedtls-2.16.2/library/error.c ****     if( use_ret == -(MBEDTLS_ERR_SHA256_BAD_INPUT_DATA) )
 3208              		.loc 1 865 7
 3209 20a9 837DEC74 		cmpl	$116, -20(%rbp)
 3210 20ad 7524     		jne	.L191
GAS LISTING /tmp/ccWIaY8W.s 			page 99


 866:/home/xingli/share/LiteOS_Lab/network/dtls/mbedtls/mbedtls-2.16.2/library/error.c ****         mbedtls_snprintf( buf, buflen, "SHA256 - SHA-256 input data was malformed" );
 3211              		.loc 1 866 9
 3212 20af 4C8B0500 		movq	mbedtls_snprintf(%rip), %r8
 3212      000000
 3213 20b6 488B4DC8 		movq	-56(%rbp), %rcx
 3214 20ba 488B45D0 		movq	-48(%rbp), %rax
 3215 20be 488D1500 		leaq	.LC184(%rip), %rdx
 3215      000000
 3216 20c5 4889CE   		movq	%rcx, %rsi
 3217 20c8 4889C7   		movq	%rax, %rdi
 3218 20cb B8000000 		movl	$0, %eax
 3218      00
 3219 20d0 41FFD0   		call	*%r8
 3220              	.LVL184:
 3221              	.L191:
 867:/home/xingli/share/LiteOS_Lab/network/dtls/mbedtls/mbedtls-2.16.2/library/error.c **** #endif /* MBEDTLS_SHA256_C */
 868:/home/xingli/share/LiteOS_Lab/network/dtls/mbedtls/mbedtls-2.16.2/library/error.c **** 
 869:/home/xingli/share/LiteOS_Lab/network/dtls/mbedtls/mbedtls-2.16.2/library/error.c **** #if defined(MBEDTLS_SHA512_C)
 870:/home/xingli/share/LiteOS_Lab/network/dtls/mbedtls/mbedtls-2.16.2/library/error.c ****     if( use_ret == -(MBEDTLS_ERR_SHA512_HW_ACCEL_FAILED) )
 871:/home/xingli/share/LiteOS_Lab/network/dtls/mbedtls/mbedtls-2.16.2/library/error.c ****         mbedtls_snprintf( buf, buflen, "SHA512 - SHA-512 hardware accelerator failed" );
 872:/home/xingli/share/LiteOS_Lab/network/dtls/mbedtls/mbedtls-2.16.2/library/error.c ****     if( use_ret == -(MBEDTLS_ERR_SHA512_BAD_INPUT_DATA) )
 873:/home/xingli/share/LiteOS_Lab/network/dtls/mbedtls/mbedtls-2.16.2/library/error.c ****         mbedtls_snprintf( buf, buflen, "SHA512 - SHA-512 input data was malformed" );
 874:/home/xingli/share/LiteOS_Lab/network/dtls/mbedtls/mbedtls-2.16.2/library/error.c **** #endif /* MBEDTLS_SHA512_C */
 875:/home/xingli/share/LiteOS_Lab/network/dtls/mbedtls/mbedtls-2.16.2/library/error.c **** 
 876:/home/xingli/share/LiteOS_Lab/network/dtls/mbedtls/mbedtls-2.16.2/library/error.c **** #if defined(MBEDTLS_THREADING_C)
 877:/home/xingli/share/LiteOS_Lab/network/dtls/mbedtls/mbedtls-2.16.2/library/error.c ****     if( use_ret == -(MBEDTLS_ERR_THREADING_FEATURE_UNAVAILABLE) )
 878:/home/xingli/share/LiteOS_Lab/network/dtls/mbedtls/mbedtls-2.16.2/library/error.c ****         mbedtls_snprintf( buf, buflen, "THREADING - The selected feature is not available" );
 879:/home/xingli/share/LiteOS_Lab/network/dtls/mbedtls/mbedtls-2.16.2/library/error.c ****     if( use_ret == -(MBEDTLS_ERR_THREADING_BAD_INPUT_DATA) )
 880:/home/xingli/share/LiteOS_Lab/network/dtls/mbedtls/mbedtls-2.16.2/library/error.c ****         mbedtls_snprintf( buf, buflen, "THREADING - Bad input parameters to function" );
 881:/home/xingli/share/LiteOS_Lab/network/dtls/mbedtls/mbedtls-2.16.2/library/error.c ****     if( use_ret == -(MBEDTLS_ERR_THREADING_MUTEX_ERROR) )
 882:/home/xingli/share/LiteOS_Lab/network/dtls/mbedtls/mbedtls-2.16.2/library/error.c ****         mbedtls_snprintf( buf, buflen, "THREADING - Locking / unlocking / free failed with error co
 883:/home/xingli/share/LiteOS_Lab/network/dtls/mbedtls/mbedtls-2.16.2/library/error.c **** #endif /* MBEDTLS_THREADING_C */
 884:/home/xingli/share/LiteOS_Lab/network/dtls/mbedtls/mbedtls-2.16.2/library/error.c **** 
 885:/home/xingli/share/LiteOS_Lab/network/dtls/mbedtls/mbedtls-2.16.2/library/error.c **** #if defined(MBEDTLS_XTEA_C)
 886:/home/xingli/share/LiteOS_Lab/network/dtls/mbedtls/mbedtls-2.16.2/library/error.c ****     if( use_ret == -(MBEDTLS_ERR_XTEA_INVALID_INPUT_LENGTH) )
 887:/home/xingli/share/LiteOS_Lab/network/dtls/mbedtls/mbedtls-2.16.2/library/error.c ****         mbedtls_snprintf( buf, buflen, "XTEA - The data input has an invalid length" );
 888:/home/xingli/share/LiteOS_Lab/network/dtls/mbedtls/mbedtls-2.16.2/library/error.c ****     if( use_ret == -(MBEDTLS_ERR_XTEA_HW_ACCEL_FAILED) )
 889:/home/xingli/share/LiteOS_Lab/network/dtls/mbedtls/mbedtls-2.16.2/library/error.c ****         mbedtls_snprintf( buf, buflen, "XTEA - XTEA hardware accelerator failed" );
 890:/home/xingli/share/LiteOS_Lab/network/dtls/mbedtls/mbedtls-2.16.2/library/error.c **** #endif /* MBEDTLS_XTEA_C */
 891:/home/xingli/share/LiteOS_Lab/network/dtls/mbedtls/mbedtls-2.16.2/library/error.c ****     // END generated code
 892:/home/xingli/share/LiteOS_Lab/network/dtls/mbedtls/mbedtls-2.16.2/library/error.c **** 
 893:/home/xingli/share/LiteOS_Lab/network/dtls/mbedtls/mbedtls-2.16.2/library/error.c ****     if( strlen( buf ) != 0 )
 3222              		.loc 1 893 23
 3223 20d3 488B45D0 		movq	-48(%rbp), %rax
 3224 20d7 0FB600   		movzbl	(%rax), %eax
 3225              		.loc 1 893 7
 3226 20da 84C0     		testb	%al, %al
 3227 20dc 7531     		jne	.L197
 894:/home/xingli/share/LiteOS_Lab/network/dtls/mbedtls/mbedtls-2.16.2/library/error.c ****         return;
 895:/home/xingli/share/LiteOS_Lab/network/dtls/mbedtls/mbedtls-2.16.2/library/error.c **** 
 896:/home/xingli/share/LiteOS_Lab/network/dtls/mbedtls/mbedtls-2.16.2/library/error.c ****     mbedtls_snprintf( buf, buflen, "UNKNOWN ERROR CODE (%04X)", use_ret );
 3228              		.loc 1 896 5
 3229 20de 4C8B0500 		movq	mbedtls_snprintf(%rip), %r8
 3229      000000
 3230 20e5 8B55EC   		movl	-20(%rbp), %edx
 3231 20e8 488B75C8 		movq	-56(%rbp), %rsi
 3232 20ec 488B45D0 		movq	-48(%rbp), %rax
GAS LISTING /tmp/ccWIaY8W.s 			page 100


 3233 20f0 89D1     		movl	%edx, %ecx
 3234 20f2 488D1500 		leaq	.LC141(%rip), %rdx
 3234      000000
 3235 20f9 4889C7   		movq	%rax, %rdi
 3236 20fc B8000000 		movl	$0, %eax
 3236      00
 3237 2101 41FFD0   		call	*%r8
 3238              	.LVL185:
 3239 2104 EB0A     		jmp	.L1
 3240              	.L194:
 219:/home/xingli/share/LiteOS_Lab/network/dtls/mbedtls/mbedtls-2.16.2/library/error.c **** 
 3241              		.loc 1 219 9
 3242 2106 90       		nop
 3243 2107 EB07     		jmp	.L1
 3244              	.L195:
 581:/home/xingli/share/LiteOS_Lab/network/dtls/mbedtls/mbedtls-2.16.2/library/error.c **** 
 3245              		.loc 1 581 9
 3246 2109 90       		nop
 3247 210a EB04     		jmp	.L1
 3248              	.L196:
 591:/home/xingli/share/LiteOS_Lab/network/dtls/mbedtls/mbedtls-2.16.2/library/error.c **** 
 3249              		.loc 1 591 13
 3250 210c 90       		nop
 3251 210d EB01     		jmp	.L1
 3252              	.L197:
 894:/home/xingli/share/LiteOS_Lab/network/dtls/mbedtls/mbedtls-2.16.2/library/error.c **** 
 3253              		.loc 1 894 9
 3254 210f 90       		nop
 3255              	.L1:
 897:/home/xingli/share/LiteOS_Lab/network/dtls/mbedtls/mbedtls-2.16.2/library/error.c **** }
 3256              		.loc 1 897 1
 3257 2110 488B45F8 		movq	-8(%rbp), %rax
 3258 2114 64483304 		xorq	%fs:40, %rax
 3258      25280000 
 3258      00
 3259 211d 7405     		je	.L193
 3260 211f E8000000 		call	__stack_chk_fail@PLT
 3260      00
 3261              	.L193:
 3262 2124 C9       		leave
 3263              	.LCFI2:
 3264              		.cfi_def_cfa 7, 8
 3265 2125 C3       		ret
 3266              		.cfi_endproc
 3267              	.LFE21:
 3269              		.text
 3270              	.Letext0:
 3271              		.file 2 "/usr/lib/gcc/x86_64-linux-gnu/9/include/stddef.h"
 3272              		.file 3 "/usr/include/x86_64-linux-gnu/bits/types.h"
 3273              		.file 4 "/usr/include/x86_64-linux-gnu/bits/types/struct_FILE.h"
 3274              		.file 5 "/usr/include/x86_64-linux-gnu/bits/types/FILE.h"
 3275              		.file 6 "/usr/include/stdio.h"
 3276              		.file 7 "/usr/include/x86_64-linux-gnu/bits/sys_errlist.h"
 3277              		.file 8 "/usr/include/time.h"
 3278              		.file 9 "/home/xingli/share/LiteOS_Lab/network/dtls/mbedtls/mbedtls-2.16.2/include/mbedtls/platfor
 3279              		.file 10 "/usr/include/x86_64-linux-gnu/bits/stdint-uintn.h"
 3280              		.file 11 "/home/xingli/share/LiteOS_Lab/network/dtls/mbedtls/mbedtls-2.16.2/include/mbedtls/x509_c
GAS LISTING /tmp/ccWIaY8W.s 			page 101


 4493              		.section	.note.gnu.property,"a"
 4494              		.align 8
 4495 0000 04000000 		.long	 1f - 0f
 4496 0004 10000000 		.long	 4f - 1f
 4497 0008 05000000 		.long	 5
 4498              	0:
 4499 000c 474E5500 		.string	 "GNU"
 4500              	1:
 4501              		.align 8
 4502 0010 020000C0 		.long	 0xc0000002
 4503 0014 04000000 		.long	 3f - 2f
 4504              	2:
 4505 0018 03000000 		.long	 0x3
 4506              	3:
 4507 001c 00000000 		.align 8
 4508              	4:
GAS LISTING /tmp/ccWIaY8W.s 			page 102


DEFINED SYMBOLS
                            *ABS*:0000000000000000 error.c
     /tmp/ccWIaY8W.s:551    .text.mbedtls_strerror:0000000000000000 mbedtls_strerror

UNDEFINED SYMBOLS
_GLOBAL_OFFSET_TABLE_
memset
mbedtls_snprintf
strlen
__stack_chk_fail
