GAS LISTING /tmp/ccHf1ECV.s 			page 1


   1              		.file	"oid.c"
   2              		.text
   3              	.Ltext0:
   4              		.section	.rodata
   5              	.LC0:
   6 0000 55040300 		.string	"U\004\003"
   7              	.LC1:
   8 0004 69642D61 		.string	"id-at-commonName"
   8      742D636F 
   8      6D6D6F6E 
   8      4E616D65 
   8      00
   9              	.LC2:
  10 0015 436F6D6D 		.string	"Common Name"
  10      6F6E204E 
  10      616D6500 
  11              	.LC3:
  12 0021 434E00   		.string	"CN"
  13              	.LC4:
  14 0024 55040600 		.string	"U\004\006"
  15              	.LC5:
  16 0028 69642D61 		.string	"id-at-countryName"
  16      742D636F 
  16      756E7472 
  16      794E616D 
  16      6500
  17              	.LC6:
  18 003a 436F756E 		.string	"Country"
  18      74727900 
  19              	.LC7:
  20 0042 4300     		.string	"C"
  21              	.LC8:
  22 0044 55040700 		.string	"U\004\007"
  23              	.LC9:
  24 0048 69642D61 		.string	"id-at-locality"
  24      742D6C6F 
  24      63616C69 
  24      747900
  25              	.LC10:
  26 0057 4C6F6361 		.string	"Locality"
  26      6C697479 
  26      00
  27              	.LC11:
  28 0060 4C00     		.string	"L"
  29              	.LC12:
  30 0062 55040800 		.string	"U\004\b"
  31              	.LC13:
  32 0066 69642D61 		.string	"id-at-state"
  32      742D7374 
  32      61746500 
  33              	.LC14:
  34 0072 53746174 		.string	"State"
  34      6500
  35              	.LC15:
  36 0078 535400   		.string	"ST"
  37              	.LC16:
  38 007b 55040A00 		.string	"U\004\n"
GAS LISTING /tmp/ccHf1ECV.s 			page 2


  39              	.LC17:
  40 007f 69642D61 		.string	"id-at-organizationName"
  40      742D6F72 
  40      67616E69 
  40      7A617469 
  40      6F6E4E61 
  41              	.LC18:
  42 0096 4F726761 		.string	"Organization"
  42      6E697A61 
  42      74696F6E 
  42      00
  43              	.LC19:
  44 00a3 4F00     		.string	"O"
  45              	.LC20:
  46 00a5 55040B00 		.string	"U\004\013"
  47              	.LC21:
  48 00a9 69642D61 		.string	"id-at-organizationalUnitName"
  48      742D6F72 
  48      67616E69 
  48      7A617469 
  48      6F6E616C 
  49              	.LC22:
  50 00c6 4F726720 		.string	"Org Unit"
  50      556E6974 
  50      00
  51              	.LC23:
  52 00cf 4F5500   		.string	"OU"
  53              	.LC24:
  54 00d2 2A864886 		.string	"*\206H\206\367\r\001\t\001"
  54      F70D0109 
  54      0100
  55              	.LC25:
  56 00dc 656D6169 		.string	"emailAddress"
  56      6C416464 
  56      72657373 
  56      00
  57              	.LC26:
  58 00e9 452D6D61 		.string	"E-mail address"
  58      696C2061 
  58      64647265 
  58      737300
  59              	.LC27:
  60 00f8 55040500 		.string	"U\004\005"
  61              	.LC28:
  62 00fc 69642D61 		.string	"id-at-serialNumber"
  62      742D7365 
  62      7269616C 
  62      4E756D62 
  62      657200
  63              	.LC29:
  64 010f 53657269 		.string	"Serial number"
  64      616C206E 
  64      756D6265 
  64      7200
  65              	.LC30:
  66 011d 73657269 		.string	"serialNumber"
  66      616C4E75 
GAS LISTING /tmp/ccHf1ECV.s 			page 3


  66      6D626572 
  66      00
  67              	.LC31:
  68 012a 55041000 		.string	"U\004\020"
  69              	.LC32:
  70 012e 69642D61 		.string	"id-at-postalAddress"
  70      742D706F 
  70      7374616C 
  70      41646472 
  70      65737300 
  71              	.LC33:
  72 0142 506F7374 		.string	"Postal address"
  72      616C2061 
  72      64647265 
  72      737300
  73              	.LC34:
  74 0151 706F7374 		.string	"postalAddress"
  74      616C4164 
  74      64726573 
  74      7300
  75              	.LC35:
  76 015f 55041100 		.string	"U\004\021"
  77              	.LC36:
  78 0163 69642D61 		.string	"id-at-postalCode"
  78      742D706F 
  78      7374616C 
  78      436F6465 
  78      00
  79              	.LC37:
  80 0174 506F7374 		.string	"Postal code"
  80      616C2063 
  80      6F646500 
  81              	.LC38:
  82 0180 706F7374 		.string	"postalCode"
  82      616C436F 
  82      646500
  83              	.LC39:
  84 018b 55040400 		.string	"U\004\004"
  85              	.LC40:
  86 018f 69642D61 		.string	"id-at-surName"
  86      742D7375 
  86      724E616D 
  86      6500
  87              	.LC41:
  88 019d 5375726E 		.string	"Surname"
  88      616D6500 
  89              	.LC42:
  90 01a5 534E00   		.string	"SN"
  91              	.LC43:
  92 01a8 55042A00 		.string	"U\004*"
  93              	.LC44:
  94 01ac 69642D61 		.string	"id-at-givenName"
  94      742D6769 
  94      76656E4E 
  94      616D6500 
  95              	.LC45:
  96 01bc 47697665 		.string	"Given name"
GAS LISTING /tmp/ccHf1ECV.s 			page 4


  96      6E206E61 
  96      6D6500
  97              	.LC46:
  98 01c7 474E00   		.string	"GN"
  99              	.LC47:
 100 01ca 55042B00 		.string	"U\004+"
 101              	.LC48:
 102 01ce 69642D61 		.string	"id-at-initials"
 102      742D696E 
 102      69746961 
 102      6C7300
 103              	.LC49:
 104 01dd 496E6974 		.string	"Initials"
 104      69616C73 
 104      00
 105              	.LC50:
 106 01e6 696E6974 		.string	"initials"
 106      69616C73 
 106      00
 107              	.LC51:
 108 01ef 55042C00 		.string	"U\004,"
 109              	.LC52:
 110 01f3 69642D61 		.string	"id-at-generationQualifier"
 110      742D6765 
 110      6E657261 
 110      74696F6E 
 110      5175616C 
 111              	.LC53:
 112 020d 47656E65 		.string	"Generation qualifier"
 112      72617469 
 112      6F6E2071 
 112      75616C69 
 112      66696572 
 113              	.LC54:
 114 0222 67656E65 		.string	"generationQualifier"
 114      72617469 
 114      6F6E5175 
 114      616C6966 
 114      69657200 
 115              	.LC55:
 116 0236 55040C00 		.string	"U\004\f"
 117              	.LC56:
 118 023a 69642D61 		.string	"id-at-title"
 118      742D7469 
 118      746C6500 
 119              	.LC57:
 120 0246 5469746C 		.string	"Title"
 120      6500
 121              	.LC58:
 122 024c 7469746C 		.string	"title"
 122      6500
 123              	.LC59:
 124 0252 55042E00 		.string	"U\004."
 125              	.LC60:
 126 0256 69642D61 		.string	"id-at-dnQualifier"
 126      742D646E 
 126      5175616C 
GAS LISTING /tmp/ccHf1ECV.s 			page 5


 126      69666965 
 126      7200
 127              	.LC61:
 128 0268 44697374 		.string	"Distinguished Name qualifier"
 128      696E6775 
 128      69736865 
 128      64204E61 
 128      6D652071 
 129              	.LC62:
 130 0285 646E5175 		.string	"dnQualifier"
 130      616C6966 
 130      69657200 
 131              	.LC63:
 132 0291 55044100 		.string	"U\004A"
 133              	.LC64:
 134 0295 69642D61 		.string	"id-at-pseudonym"
 134      742D7073 
 134      6575646F 
 134      6E796D00 
 135              	.LC65:
 136 02a5 50736575 		.string	"Pseudonym"
 136      646F6E79 
 136      6D00
 137              	.LC66:
 138 02af 70736575 		.string	"pseudonym"
 138      646F6E79 
 138      6D00
 139              	.LC67:
 140 02b9 09922689 		.string	"\t\222&\211\223\362,d\001\031"
 140      93F22C64 
 140      011900
 141              	.LC68:
 142 02c4 69642D64 		.string	"id-domainComponent"
 142      6F6D6169 
 142      6E436F6D 
 142      706F6E65 
 142      6E7400
 143              	.LC69:
 144 02d7 446F6D61 		.string	"Domain component"
 144      696E2063 
 144      6F6D706F 
 144      6E656E74 
 144      00
 145              	.LC70:
 146 02e8 444300   		.string	"DC"
 147              	.LC71:
 148 02eb 55042D00 		.string	"U\004-"
 149              	.LC72:
 150 02ef 69642D61 		.string	"id-at-uniqueIdentifier"
 150      742D756E 
 150      69717565 
 150      4964656E 
 150      74696669 
 151              	.LC73:
 152 0306 556E6971 		.string	"Unique Identifier"
 152      75652049 
 152      64656E74 
GAS LISTING /tmp/ccHf1ECV.s 			page 6


 152      69666965 
 152      7200
 153              	.LC74:
 154 0318 756E6971 		.string	"uniqueIdentifier"
 154      75654964 
 154      656E7469 
 154      66696572 
 154      00
 155              		.section	.data.rel.ro.local.oid_x520_attr_type,"aw"
 156              		.align 32
 159              	oid_x520_attr_type:
 160 0000 00000000 		.quad	.LC0
 160      00000000 
 161 0008 03000000 		.quad	3
 161      00000000 
 162 0010 00000000 		.quad	.LC1
 162      00000000 
 163 0018 00000000 		.quad	.LC2
 163      00000000 
 164 0020 00000000 		.quad	.LC3
 164      00000000 
 165 0028 00000000 		.quad	.LC4
 165      00000000 
 166 0030 03000000 		.quad	3
 166      00000000 
 167 0038 00000000 		.quad	.LC5
 167      00000000 
 168 0040 00000000 		.quad	.LC6
 168      00000000 
 169 0048 00000000 		.quad	.LC7
 169      00000000 
 170 0050 00000000 		.quad	.LC8
 170      00000000 
 171 0058 03000000 		.quad	3
 171      00000000 
 172 0060 00000000 		.quad	.LC9
 172      00000000 
 173 0068 00000000 		.quad	.LC10
 173      00000000 
 174 0070 00000000 		.quad	.LC11
 174      00000000 
 175 0078 00000000 		.quad	.LC12
 175      00000000 
 176 0080 03000000 		.quad	3
 176      00000000 
 177 0088 00000000 		.quad	.LC13
 177      00000000 
 178 0090 00000000 		.quad	.LC14
 178      00000000 
 179 0098 00000000 		.quad	.LC15
 179      00000000 
 180 00a0 00000000 		.quad	.LC16
 180      00000000 
 181 00a8 03000000 		.quad	3
 181      00000000 
 182 00b0 00000000 		.quad	.LC17
 182      00000000 
GAS LISTING /tmp/ccHf1ECV.s 			page 7


 183 00b8 00000000 		.quad	.LC18
 183      00000000 
 184 00c0 00000000 		.quad	.LC19
 184      00000000 
 185 00c8 00000000 		.quad	.LC20
 185      00000000 
 186 00d0 03000000 		.quad	3
 186      00000000 
 187 00d8 00000000 		.quad	.LC21
 187      00000000 
 188 00e0 00000000 		.quad	.LC22
 188      00000000 
 189 00e8 00000000 		.quad	.LC23
 189      00000000 
 190 00f0 00000000 		.quad	.LC24
 190      00000000 
 191 00f8 09000000 		.quad	9
 191      00000000 
 192 0100 00000000 		.quad	.LC25
 192      00000000 
 193 0108 00000000 		.quad	.LC26
 193      00000000 
 194 0110 00000000 		.quad	.LC25
 194      00000000 
 195 0118 00000000 		.quad	.LC27
 195      00000000 
 196 0120 03000000 		.quad	3
 196      00000000 
 197 0128 00000000 		.quad	.LC28
 197      00000000 
 198 0130 00000000 		.quad	.LC29
 198      00000000 
 199 0138 00000000 		.quad	.LC30
 199      00000000 
 200 0140 00000000 		.quad	.LC31
 200      00000000 
 201 0148 03000000 		.quad	3
 201      00000000 
 202 0150 00000000 		.quad	.LC32
 202      00000000 
 203 0158 00000000 		.quad	.LC33
 203      00000000 
 204 0160 00000000 		.quad	.LC34
 204      00000000 
 205 0168 00000000 		.quad	.LC35
 205      00000000 
 206 0170 03000000 		.quad	3
 206      00000000 
 207 0178 00000000 		.quad	.LC36
 207      00000000 
 208 0180 00000000 		.quad	.LC37
 208      00000000 
 209 0188 00000000 		.quad	.LC38
 209      00000000 
 210 0190 00000000 		.quad	.LC39
 210      00000000 
 211 0198 03000000 		.quad	3
GAS LISTING /tmp/ccHf1ECV.s 			page 8


 211      00000000 
 212 01a0 00000000 		.quad	.LC40
 212      00000000 
 213 01a8 00000000 		.quad	.LC41
 213      00000000 
 214 01b0 00000000 		.quad	.LC42
 214      00000000 
 215 01b8 00000000 		.quad	.LC43
 215      00000000 
 216 01c0 03000000 		.quad	3
 216      00000000 
 217 01c8 00000000 		.quad	.LC44
 217      00000000 
 218 01d0 00000000 		.quad	.LC45
 218      00000000 
 219 01d8 00000000 		.quad	.LC46
 219      00000000 
 220 01e0 00000000 		.quad	.LC47
 220      00000000 
 221 01e8 03000000 		.quad	3
 221      00000000 
 222 01f0 00000000 		.quad	.LC48
 222      00000000 
 223 01f8 00000000 		.quad	.LC49
 223      00000000 
 224 0200 00000000 		.quad	.LC50
 224      00000000 
 225 0208 00000000 		.quad	.LC51
 225      00000000 
 226 0210 03000000 		.quad	3
 226      00000000 
 227 0218 00000000 		.quad	.LC52
 227      00000000 
 228 0220 00000000 		.quad	.LC53
 228      00000000 
 229 0228 00000000 		.quad	.LC54
 229      00000000 
 230 0230 00000000 		.quad	.LC55
 230      00000000 
 231 0238 03000000 		.quad	3
 231      00000000 
 232 0240 00000000 		.quad	.LC56
 232      00000000 
 233 0248 00000000 		.quad	.LC57
 233      00000000 
 234 0250 00000000 		.quad	.LC58
 234      00000000 
 235 0258 00000000 		.quad	.LC59
 235      00000000 
 236 0260 03000000 		.quad	3
 236      00000000 
 237 0268 00000000 		.quad	.LC60
 237      00000000 
 238 0270 00000000 		.quad	.LC61
 238      00000000 
 239 0278 00000000 		.quad	.LC62
 239      00000000 
GAS LISTING /tmp/ccHf1ECV.s 			page 9


 240 0280 00000000 		.quad	.LC63
 240      00000000 
 241 0288 03000000 		.quad	3
 241      00000000 
 242 0290 00000000 		.quad	.LC64
 242      00000000 
 243 0298 00000000 		.quad	.LC65
 243      00000000 
 244 02a0 00000000 		.quad	.LC66
 244      00000000 
 245 02a8 00000000 		.quad	.LC67
 245      00000000 
 246 02b0 0A000000 		.quad	10
 246      00000000 
 247 02b8 00000000 		.quad	.LC68
 247      00000000 
 248 02c0 00000000 		.quad	.LC69
 248      00000000 
 249 02c8 00000000 		.quad	.LC70
 249      00000000 
 250 02d0 00000000 		.quad	.LC71
 250      00000000 
 251 02d8 03000000 		.quad	3
 251      00000000 
 252 02e0 00000000 		.quad	.LC72
 252      00000000 
 253 02e8 00000000 		.quad	.LC73
 253      00000000 
 254 02f0 00000000 		.quad	.LC74
 254      00000000 
 255 02f8 00000000 		.quad	0
 255      00000000 
 256 0300 00000000 		.quad	0
 256      00000000 
 257 0308 00000000 		.quad	0
 257      00000000 
 258 0310 00000000 		.quad	0
 258      00000000 
 259 0318 00000000 		.quad	0
 259      00000000 
 260              		.section	.text.oid_x520_attr_from_asn1,"ax",@progbits
 262              	oid_x520_attr_from_asn1:
 263              	.LFB16:
 264              		.file 1 "/home/xingli/share/LiteOS_Lab/network/dtls/mbedtls/mbedtls-2.16.2/library/oid.c"
   1:/home/xingli/share/LiteOS_Lab/network/dtls/mbedtls/mbedtls-2.16.2/library/oid.c **** /**
   2:/home/xingli/share/LiteOS_Lab/network/dtls/mbedtls/mbedtls-2.16.2/library/oid.c ****  * \file oid.c
   3:/home/xingli/share/LiteOS_Lab/network/dtls/mbedtls/mbedtls-2.16.2/library/oid.c ****  *
   4:/home/xingli/share/LiteOS_Lab/network/dtls/mbedtls/mbedtls-2.16.2/library/oid.c ****  * \brief Object Identifier (OID) database
   5:/home/xingli/share/LiteOS_Lab/network/dtls/mbedtls/mbedtls-2.16.2/library/oid.c ****  *
   6:/home/xingli/share/LiteOS_Lab/network/dtls/mbedtls/mbedtls-2.16.2/library/oid.c ****  *  Copyright (C) 2006-2015, ARM Limited, All Rights Reserved
   7:/home/xingli/share/LiteOS_Lab/network/dtls/mbedtls/mbedtls-2.16.2/library/oid.c ****  *  SPDX-License-Identifier: Apache-2.0
   8:/home/xingli/share/LiteOS_Lab/network/dtls/mbedtls/mbedtls-2.16.2/library/oid.c ****  *
   9:/home/xingli/share/LiteOS_Lab/network/dtls/mbedtls/mbedtls-2.16.2/library/oid.c ****  *  Licensed under the Apache License, Version 2.0 (the "License"); you may
  10:/home/xingli/share/LiteOS_Lab/network/dtls/mbedtls/mbedtls-2.16.2/library/oid.c ****  *  not use this file except in compliance with the License.
  11:/home/xingli/share/LiteOS_Lab/network/dtls/mbedtls/mbedtls-2.16.2/library/oid.c ****  *  You may obtain a copy of the License at
  12:/home/xingli/share/LiteOS_Lab/network/dtls/mbedtls/mbedtls-2.16.2/library/oid.c ****  *
  13:/home/xingli/share/LiteOS_Lab/network/dtls/mbedtls/mbedtls-2.16.2/library/oid.c ****  *  http://www.apache.org/licenses/LICENSE-2.0
GAS LISTING /tmp/ccHf1ECV.s 			page 10


  14:/home/xingli/share/LiteOS_Lab/network/dtls/mbedtls/mbedtls-2.16.2/library/oid.c ****  *
  15:/home/xingli/share/LiteOS_Lab/network/dtls/mbedtls/mbedtls-2.16.2/library/oid.c ****  *  Unless required by applicable law or agreed to in writing, software
  16:/home/xingli/share/LiteOS_Lab/network/dtls/mbedtls/mbedtls-2.16.2/library/oid.c ****  *  distributed under the License is distributed on an "AS IS" BASIS, WITHOUT
  17:/home/xingli/share/LiteOS_Lab/network/dtls/mbedtls/mbedtls-2.16.2/library/oid.c ****  *  WARRANTIES OR CONDITIONS OF ANY KIND, either express or implied.
  18:/home/xingli/share/LiteOS_Lab/network/dtls/mbedtls/mbedtls-2.16.2/library/oid.c ****  *  See the License for the specific language governing permissions and
  19:/home/xingli/share/LiteOS_Lab/network/dtls/mbedtls/mbedtls-2.16.2/library/oid.c ****  *  limitations under the License.
  20:/home/xingli/share/LiteOS_Lab/network/dtls/mbedtls/mbedtls-2.16.2/library/oid.c ****  *
  21:/home/xingli/share/LiteOS_Lab/network/dtls/mbedtls/mbedtls-2.16.2/library/oid.c ****  *  This file is part of mbed TLS (https://tls.mbed.org)
  22:/home/xingli/share/LiteOS_Lab/network/dtls/mbedtls/mbedtls-2.16.2/library/oid.c ****  */
  23:/home/xingli/share/LiteOS_Lab/network/dtls/mbedtls/mbedtls-2.16.2/library/oid.c **** 
  24:/home/xingli/share/LiteOS_Lab/network/dtls/mbedtls/mbedtls-2.16.2/library/oid.c **** #if !defined(MBEDTLS_CONFIG_FILE)
  25:/home/xingli/share/LiteOS_Lab/network/dtls/mbedtls/mbedtls-2.16.2/library/oid.c **** #include "mbedtls/config.h"
  26:/home/xingli/share/LiteOS_Lab/network/dtls/mbedtls/mbedtls-2.16.2/library/oid.c **** #else
  27:/home/xingli/share/LiteOS_Lab/network/dtls/mbedtls/mbedtls-2.16.2/library/oid.c **** #include MBEDTLS_CONFIG_FILE
  28:/home/xingli/share/LiteOS_Lab/network/dtls/mbedtls/mbedtls-2.16.2/library/oid.c **** #endif
  29:/home/xingli/share/LiteOS_Lab/network/dtls/mbedtls/mbedtls-2.16.2/library/oid.c **** 
  30:/home/xingli/share/LiteOS_Lab/network/dtls/mbedtls/mbedtls-2.16.2/library/oid.c **** #if defined(MBEDTLS_OID_C)
  31:/home/xingli/share/LiteOS_Lab/network/dtls/mbedtls/mbedtls-2.16.2/library/oid.c **** 
  32:/home/xingli/share/LiteOS_Lab/network/dtls/mbedtls/mbedtls-2.16.2/library/oid.c **** #include "mbedtls/oid.h"
  33:/home/xingli/share/LiteOS_Lab/network/dtls/mbedtls/mbedtls-2.16.2/library/oid.c **** #include "mbedtls/rsa.h"
  34:/home/xingli/share/LiteOS_Lab/network/dtls/mbedtls/mbedtls-2.16.2/library/oid.c **** 
  35:/home/xingli/share/LiteOS_Lab/network/dtls/mbedtls/mbedtls-2.16.2/library/oid.c **** #include <stdio.h>
  36:/home/xingli/share/LiteOS_Lab/network/dtls/mbedtls/mbedtls-2.16.2/library/oid.c **** #include <string.h>
  37:/home/xingli/share/LiteOS_Lab/network/dtls/mbedtls/mbedtls-2.16.2/library/oid.c **** 
  38:/home/xingli/share/LiteOS_Lab/network/dtls/mbedtls/mbedtls-2.16.2/library/oid.c **** #if defined(MBEDTLS_PLATFORM_C)
  39:/home/xingli/share/LiteOS_Lab/network/dtls/mbedtls/mbedtls-2.16.2/library/oid.c **** #include "mbedtls/platform.h"
  40:/home/xingli/share/LiteOS_Lab/network/dtls/mbedtls/mbedtls-2.16.2/library/oid.c **** #else
  41:/home/xingli/share/LiteOS_Lab/network/dtls/mbedtls/mbedtls-2.16.2/library/oid.c **** #define mbedtls_snprintf snprintf
  42:/home/xingli/share/LiteOS_Lab/network/dtls/mbedtls/mbedtls-2.16.2/library/oid.c **** #endif
  43:/home/xingli/share/LiteOS_Lab/network/dtls/mbedtls/mbedtls-2.16.2/library/oid.c **** 
  44:/home/xingli/share/LiteOS_Lab/network/dtls/mbedtls/mbedtls-2.16.2/library/oid.c **** #if defined(MBEDTLS_X509_USE_C) || defined(MBEDTLS_X509_CREATE_C)
  45:/home/xingli/share/LiteOS_Lab/network/dtls/mbedtls/mbedtls-2.16.2/library/oid.c **** #include "mbedtls/x509.h"
  46:/home/xingli/share/LiteOS_Lab/network/dtls/mbedtls/mbedtls-2.16.2/library/oid.c **** #endif
  47:/home/xingli/share/LiteOS_Lab/network/dtls/mbedtls/mbedtls-2.16.2/library/oid.c **** 
  48:/home/xingli/share/LiteOS_Lab/network/dtls/mbedtls/mbedtls-2.16.2/library/oid.c **** /*
  49:/home/xingli/share/LiteOS_Lab/network/dtls/mbedtls/mbedtls-2.16.2/library/oid.c ****  * Macro to automatically add the size of #define'd OIDs
  50:/home/xingli/share/LiteOS_Lab/network/dtls/mbedtls/mbedtls-2.16.2/library/oid.c ****  */
  51:/home/xingli/share/LiteOS_Lab/network/dtls/mbedtls/mbedtls-2.16.2/library/oid.c **** #define ADD_LEN(s)      s, MBEDTLS_OID_SIZE(s)
  52:/home/xingli/share/LiteOS_Lab/network/dtls/mbedtls/mbedtls-2.16.2/library/oid.c **** 
  53:/home/xingli/share/LiteOS_Lab/network/dtls/mbedtls/mbedtls-2.16.2/library/oid.c **** /*
  54:/home/xingli/share/LiteOS_Lab/network/dtls/mbedtls/mbedtls-2.16.2/library/oid.c ****  * Macro to generate an internal function for oid_XXX_from_asn1() (used by
  55:/home/xingli/share/LiteOS_Lab/network/dtls/mbedtls/mbedtls-2.16.2/library/oid.c ****  * the other functions)
  56:/home/xingli/share/LiteOS_Lab/network/dtls/mbedtls/mbedtls-2.16.2/library/oid.c ****  */
  57:/home/xingli/share/LiteOS_Lab/network/dtls/mbedtls/mbedtls-2.16.2/library/oid.c **** #define FN_OID_TYPED_FROM_ASN1( TYPE_T, NAME, LIST )                    \
  58:/home/xingli/share/LiteOS_Lab/network/dtls/mbedtls/mbedtls-2.16.2/library/oid.c ****     static const TYPE_T * oid_ ## NAME ## _from_asn1(                   \
  59:/home/xingli/share/LiteOS_Lab/network/dtls/mbedtls/mbedtls-2.16.2/library/oid.c ****                                       const mbedtls_asn1_buf *oid )     \
  60:/home/xingli/share/LiteOS_Lab/network/dtls/mbedtls/mbedtls-2.16.2/library/oid.c ****     {                                                                   \
  61:/home/xingli/share/LiteOS_Lab/network/dtls/mbedtls/mbedtls-2.16.2/library/oid.c ****         const TYPE_T *p = (LIST);                                       \
  62:/home/xingli/share/LiteOS_Lab/network/dtls/mbedtls/mbedtls-2.16.2/library/oid.c ****         const mbedtls_oid_descriptor_t *cur =                           \
  63:/home/xingli/share/LiteOS_Lab/network/dtls/mbedtls/mbedtls-2.16.2/library/oid.c ****             (const mbedtls_oid_descriptor_t *) p;                       \
  64:/home/xingli/share/LiteOS_Lab/network/dtls/mbedtls/mbedtls-2.16.2/library/oid.c ****         if( p == NULL || oid == NULL ) return( NULL );                  \
  65:/home/xingli/share/LiteOS_Lab/network/dtls/mbedtls/mbedtls-2.16.2/library/oid.c ****         while( cur->asn1 != NULL ) {                                    \
  66:/home/xingli/share/LiteOS_Lab/network/dtls/mbedtls/mbedtls-2.16.2/library/oid.c ****             if( cur->asn1_len == oid->len &&                            \
  67:/home/xingli/share/LiteOS_Lab/network/dtls/mbedtls/mbedtls-2.16.2/library/oid.c ****                 memcmp( cur->asn1, oid->p, oid->len ) == 0 ) {          \
  68:/home/xingli/share/LiteOS_Lab/network/dtls/mbedtls/mbedtls-2.16.2/library/oid.c ****                 return( p );                                            \
  69:/home/xingli/share/LiteOS_Lab/network/dtls/mbedtls/mbedtls-2.16.2/library/oid.c ****             }                                                           \
  70:/home/xingli/share/LiteOS_Lab/network/dtls/mbedtls/mbedtls-2.16.2/library/oid.c ****             p++;                                                        \
GAS LISTING /tmp/ccHf1ECV.s 			page 11


  71:/home/xingli/share/LiteOS_Lab/network/dtls/mbedtls/mbedtls-2.16.2/library/oid.c ****             cur = (const mbedtls_oid_descriptor_t *) p;                 \
  72:/home/xingli/share/LiteOS_Lab/network/dtls/mbedtls/mbedtls-2.16.2/library/oid.c ****         }                                                               \
  73:/home/xingli/share/LiteOS_Lab/network/dtls/mbedtls/mbedtls-2.16.2/library/oid.c ****         return( NULL );                                                 \
  74:/home/xingli/share/LiteOS_Lab/network/dtls/mbedtls/mbedtls-2.16.2/library/oid.c ****     }
  75:/home/xingli/share/LiteOS_Lab/network/dtls/mbedtls/mbedtls-2.16.2/library/oid.c **** 
  76:/home/xingli/share/LiteOS_Lab/network/dtls/mbedtls/mbedtls-2.16.2/library/oid.c **** /*
  77:/home/xingli/share/LiteOS_Lab/network/dtls/mbedtls/mbedtls-2.16.2/library/oid.c ****  * Macro to generate a function for retrieving a single attribute from the
  78:/home/xingli/share/LiteOS_Lab/network/dtls/mbedtls/mbedtls-2.16.2/library/oid.c ****  * descriptor of an mbedtls_oid_descriptor_t wrapper.
  79:/home/xingli/share/LiteOS_Lab/network/dtls/mbedtls/mbedtls-2.16.2/library/oid.c ****  */
  80:/home/xingli/share/LiteOS_Lab/network/dtls/mbedtls/mbedtls-2.16.2/library/oid.c **** #define FN_OID_GET_DESCRIPTOR_ATTR1(FN_NAME, TYPE_T, TYPE_NAME, ATTR1_TYPE, ATTR1) \
  81:/home/xingli/share/LiteOS_Lab/network/dtls/mbedtls/mbedtls-2.16.2/library/oid.c **** int FN_NAME( const mbedtls_asn1_buf *oid, ATTR1_TYPE * ATTR1 )                  \
  82:/home/xingli/share/LiteOS_Lab/network/dtls/mbedtls/mbedtls-2.16.2/library/oid.c **** {                                                                       \
  83:/home/xingli/share/LiteOS_Lab/network/dtls/mbedtls/mbedtls-2.16.2/library/oid.c ****     const TYPE_T *data = oid_ ## TYPE_NAME ## _from_asn1( oid );        \
  84:/home/xingli/share/LiteOS_Lab/network/dtls/mbedtls/mbedtls-2.16.2/library/oid.c ****     if( data == NULL ) return( MBEDTLS_ERR_OID_NOT_FOUND );            \
  85:/home/xingli/share/LiteOS_Lab/network/dtls/mbedtls/mbedtls-2.16.2/library/oid.c ****     *ATTR1 = data->descriptor.ATTR1;                                    \
  86:/home/xingli/share/LiteOS_Lab/network/dtls/mbedtls/mbedtls-2.16.2/library/oid.c ****     return( 0 );                                                        \
  87:/home/xingli/share/LiteOS_Lab/network/dtls/mbedtls/mbedtls-2.16.2/library/oid.c **** }
  88:/home/xingli/share/LiteOS_Lab/network/dtls/mbedtls/mbedtls-2.16.2/library/oid.c **** 
  89:/home/xingli/share/LiteOS_Lab/network/dtls/mbedtls/mbedtls-2.16.2/library/oid.c **** /*
  90:/home/xingli/share/LiteOS_Lab/network/dtls/mbedtls/mbedtls-2.16.2/library/oid.c ****  * Macro to generate a function for retrieving a single attribute from an
  91:/home/xingli/share/LiteOS_Lab/network/dtls/mbedtls/mbedtls-2.16.2/library/oid.c ****  * mbedtls_oid_descriptor_t wrapper.
  92:/home/xingli/share/LiteOS_Lab/network/dtls/mbedtls/mbedtls-2.16.2/library/oid.c ****  */
  93:/home/xingli/share/LiteOS_Lab/network/dtls/mbedtls/mbedtls-2.16.2/library/oid.c **** #define FN_OID_GET_ATTR1(FN_NAME, TYPE_T, TYPE_NAME, ATTR1_TYPE, ATTR1) \
  94:/home/xingli/share/LiteOS_Lab/network/dtls/mbedtls/mbedtls-2.16.2/library/oid.c **** int FN_NAME( const mbedtls_asn1_buf *oid, ATTR1_TYPE * ATTR1 )                  \
  95:/home/xingli/share/LiteOS_Lab/network/dtls/mbedtls/mbedtls-2.16.2/library/oid.c **** {                                                                       \
  96:/home/xingli/share/LiteOS_Lab/network/dtls/mbedtls/mbedtls-2.16.2/library/oid.c ****     const TYPE_T *data = oid_ ## TYPE_NAME ## _from_asn1( oid );        \
  97:/home/xingli/share/LiteOS_Lab/network/dtls/mbedtls/mbedtls-2.16.2/library/oid.c ****     if( data == NULL ) return( MBEDTLS_ERR_OID_NOT_FOUND );            \
  98:/home/xingli/share/LiteOS_Lab/network/dtls/mbedtls/mbedtls-2.16.2/library/oid.c ****     *ATTR1 = data->ATTR1;                                               \
  99:/home/xingli/share/LiteOS_Lab/network/dtls/mbedtls/mbedtls-2.16.2/library/oid.c ****     return( 0 );                                                        \
 100:/home/xingli/share/LiteOS_Lab/network/dtls/mbedtls/mbedtls-2.16.2/library/oid.c **** }
 101:/home/xingli/share/LiteOS_Lab/network/dtls/mbedtls/mbedtls-2.16.2/library/oid.c **** 
 102:/home/xingli/share/LiteOS_Lab/network/dtls/mbedtls/mbedtls-2.16.2/library/oid.c **** /*
 103:/home/xingli/share/LiteOS_Lab/network/dtls/mbedtls/mbedtls-2.16.2/library/oid.c ****  * Macro to generate a function for retrieving two attributes from an
 104:/home/xingli/share/LiteOS_Lab/network/dtls/mbedtls/mbedtls-2.16.2/library/oid.c ****  * mbedtls_oid_descriptor_t wrapper.
 105:/home/xingli/share/LiteOS_Lab/network/dtls/mbedtls/mbedtls-2.16.2/library/oid.c ****  */
 106:/home/xingli/share/LiteOS_Lab/network/dtls/mbedtls/mbedtls-2.16.2/library/oid.c **** #define FN_OID_GET_ATTR2(FN_NAME, TYPE_T, TYPE_NAME, ATTR1_TYPE, ATTR1,     \
 107:/home/xingli/share/LiteOS_Lab/network/dtls/mbedtls/mbedtls-2.16.2/library/oid.c ****                          ATTR2_TYPE, ATTR2)                                 \
 108:/home/xingli/share/LiteOS_Lab/network/dtls/mbedtls/mbedtls-2.16.2/library/oid.c **** int FN_NAME( const mbedtls_asn1_buf *oid, ATTR1_TYPE * ATTR1,               \
 109:/home/xingli/share/LiteOS_Lab/network/dtls/mbedtls/mbedtls-2.16.2/library/oid.c ****                                           ATTR2_TYPE * ATTR2 )              \
 110:/home/xingli/share/LiteOS_Lab/network/dtls/mbedtls/mbedtls-2.16.2/library/oid.c **** {                                                                           \
 111:/home/xingli/share/LiteOS_Lab/network/dtls/mbedtls/mbedtls-2.16.2/library/oid.c ****     const TYPE_T *data = oid_ ## TYPE_NAME ## _from_asn1( oid );            \
 112:/home/xingli/share/LiteOS_Lab/network/dtls/mbedtls/mbedtls-2.16.2/library/oid.c ****     if( data == NULL ) return( MBEDTLS_ERR_OID_NOT_FOUND );                 \
 113:/home/xingli/share/LiteOS_Lab/network/dtls/mbedtls/mbedtls-2.16.2/library/oid.c ****     *(ATTR1) = data->ATTR1;                                                 \
 114:/home/xingli/share/LiteOS_Lab/network/dtls/mbedtls/mbedtls-2.16.2/library/oid.c ****     *(ATTR2) = data->ATTR2;                                                 \
 115:/home/xingli/share/LiteOS_Lab/network/dtls/mbedtls/mbedtls-2.16.2/library/oid.c ****     return( 0 );                                                            \
 116:/home/xingli/share/LiteOS_Lab/network/dtls/mbedtls/mbedtls-2.16.2/library/oid.c **** }
 117:/home/xingli/share/LiteOS_Lab/network/dtls/mbedtls/mbedtls-2.16.2/library/oid.c **** 
 118:/home/xingli/share/LiteOS_Lab/network/dtls/mbedtls/mbedtls-2.16.2/library/oid.c **** /*
 119:/home/xingli/share/LiteOS_Lab/network/dtls/mbedtls/mbedtls-2.16.2/library/oid.c ****  * Macro to generate a function for retrieving the OID based on a single
 120:/home/xingli/share/LiteOS_Lab/network/dtls/mbedtls/mbedtls-2.16.2/library/oid.c ****  * attribute from a mbedtls_oid_descriptor_t wrapper.
 121:/home/xingli/share/LiteOS_Lab/network/dtls/mbedtls/mbedtls-2.16.2/library/oid.c ****  */
 122:/home/xingli/share/LiteOS_Lab/network/dtls/mbedtls/mbedtls-2.16.2/library/oid.c **** #define FN_OID_GET_OID_BY_ATTR1(FN_NAME, TYPE_T, LIST, ATTR1_TYPE, ATTR1)   \
 123:/home/xingli/share/LiteOS_Lab/network/dtls/mbedtls/mbedtls-2.16.2/library/oid.c **** int FN_NAME( ATTR1_TYPE ATTR1, const char **oid, size_t *olen )             \
 124:/home/xingli/share/LiteOS_Lab/network/dtls/mbedtls/mbedtls-2.16.2/library/oid.c **** {                                                                           \
 125:/home/xingli/share/LiteOS_Lab/network/dtls/mbedtls/mbedtls-2.16.2/library/oid.c ****     const TYPE_T *cur = (LIST);                                             \
 126:/home/xingli/share/LiteOS_Lab/network/dtls/mbedtls/mbedtls-2.16.2/library/oid.c ****     while( cur->descriptor.asn1 != NULL ) {                                 \
 127:/home/xingli/share/LiteOS_Lab/network/dtls/mbedtls/mbedtls-2.16.2/library/oid.c ****         if( cur->ATTR1 == (ATTR1) ) {                                       \
GAS LISTING /tmp/ccHf1ECV.s 			page 12


 128:/home/xingli/share/LiteOS_Lab/network/dtls/mbedtls/mbedtls-2.16.2/library/oid.c ****             *oid = cur->descriptor.asn1;                                    \
 129:/home/xingli/share/LiteOS_Lab/network/dtls/mbedtls/mbedtls-2.16.2/library/oid.c ****             *olen = cur->descriptor.asn1_len;                               \
 130:/home/xingli/share/LiteOS_Lab/network/dtls/mbedtls/mbedtls-2.16.2/library/oid.c ****             return( 0 );                                                    \
 131:/home/xingli/share/LiteOS_Lab/network/dtls/mbedtls/mbedtls-2.16.2/library/oid.c ****         }                                                                   \
 132:/home/xingli/share/LiteOS_Lab/network/dtls/mbedtls/mbedtls-2.16.2/library/oid.c ****         cur++;                                                              \
 133:/home/xingli/share/LiteOS_Lab/network/dtls/mbedtls/mbedtls-2.16.2/library/oid.c ****     }                                                                       \
 134:/home/xingli/share/LiteOS_Lab/network/dtls/mbedtls/mbedtls-2.16.2/library/oid.c ****     return( MBEDTLS_ERR_OID_NOT_FOUND );                                    \
 135:/home/xingli/share/LiteOS_Lab/network/dtls/mbedtls/mbedtls-2.16.2/library/oid.c **** }
 136:/home/xingli/share/LiteOS_Lab/network/dtls/mbedtls/mbedtls-2.16.2/library/oid.c **** 
 137:/home/xingli/share/LiteOS_Lab/network/dtls/mbedtls/mbedtls-2.16.2/library/oid.c **** /*
 138:/home/xingli/share/LiteOS_Lab/network/dtls/mbedtls/mbedtls-2.16.2/library/oid.c ****  * Macro to generate a function for retrieving the OID based on two
 139:/home/xingli/share/LiteOS_Lab/network/dtls/mbedtls/mbedtls-2.16.2/library/oid.c ****  * attributes from a mbedtls_oid_descriptor_t wrapper.
 140:/home/xingli/share/LiteOS_Lab/network/dtls/mbedtls/mbedtls-2.16.2/library/oid.c ****  */
 141:/home/xingli/share/LiteOS_Lab/network/dtls/mbedtls/mbedtls-2.16.2/library/oid.c **** #define FN_OID_GET_OID_BY_ATTR2(FN_NAME, TYPE_T, LIST, ATTR1_TYPE, ATTR1,   \
 142:/home/xingli/share/LiteOS_Lab/network/dtls/mbedtls/mbedtls-2.16.2/library/oid.c ****                                 ATTR2_TYPE, ATTR2)                          \
 143:/home/xingli/share/LiteOS_Lab/network/dtls/mbedtls/mbedtls-2.16.2/library/oid.c **** int FN_NAME( ATTR1_TYPE ATTR1, ATTR2_TYPE ATTR2, const char **oid ,         \
 144:/home/xingli/share/LiteOS_Lab/network/dtls/mbedtls/mbedtls-2.16.2/library/oid.c ****              size_t *olen )                                                 \
 145:/home/xingli/share/LiteOS_Lab/network/dtls/mbedtls/mbedtls-2.16.2/library/oid.c **** {                                                                           \
 146:/home/xingli/share/LiteOS_Lab/network/dtls/mbedtls/mbedtls-2.16.2/library/oid.c ****     const TYPE_T *cur = (LIST);                                             \
 147:/home/xingli/share/LiteOS_Lab/network/dtls/mbedtls/mbedtls-2.16.2/library/oid.c ****     while( cur->descriptor.asn1 != NULL ) {                                 \
 148:/home/xingli/share/LiteOS_Lab/network/dtls/mbedtls/mbedtls-2.16.2/library/oid.c ****         if( cur->ATTR1 == (ATTR1) && cur->ATTR2 == (ATTR2) ) {              \
 149:/home/xingli/share/LiteOS_Lab/network/dtls/mbedtls/mbedtls-2.16.2/library/oid.c ****             *oid = cur->descriptor.asn1;                                    \
 150:/home/xingli/share/LiteOS_Lab/network/dtls/mbedtls/mbedtls-2.16.2/library/oid.c ****             *olen = cur->descriptor.asn1_len;                               \
 151:/home/xingli/share/LiteOS_Lab/network/dtls/mbedtls/mbedtls-2.16.2/library/oid.c ****             return( 0 );                                                    \
 152:/home/xingli/share/LiteOS_Lab/network/dtls/mbedtls/mbedtls-2.16.2/library/oid.c ****         }                                                                   \
 153:/home/xingli/share/LiteOS_Lab/network/dtls/mbedtls/mbedtls-2.16.2/library/oid.c ****         cur++;                                                              \
 154:/home/xingli/share/LiteOS_Lab/network/dtls/mbedtls/mbedtls-2.16.2/library/oid.c ****     }                                                                       \
 155:/home/xingli/share/LiteOS_Lab/network/dtls/mbedtls/mbedtls-2.16.2/library/oid.c ****     return( MBEDTLS_ERR_OID_NOT_FOUND );                                   \
 156:/home/xingli/share/LiteOS_Lab/network/dtls/mbedtls/mbedtls-2.16.2/library/oid.c **** }
 157:/home/xingli/share/LiteOS_Lab/network/dtls/mbedtls/mbedtls-2.16.2/library/oid.c **** 
 158:/home/xingli/share/LiteOS_Lab/network/dtls/mbedtls/mbedtls-2.16.2/library/oid.c **** #if defined(MBEDTLS_X509_USE_C) || defined(MBEDTLS_X509_CREATE_C)
 159:/home/xingli/share/LiteOS_Lab/network/dtls/mbedtls/mbedtls-2.16.2/library/oid.c **** /*
 160:/home/xingli/share/LiteOS_Lab/network/dtls/mbedtls/mbedtls-2.16.2/library/oid.c ****  * For X520 attribute types
 161:/home/xingli/share/LiteOS_Lab/network/dtls/mbedtls/mbedtls-2.16.2/library/oid.c ****  */
 162:/home/xingli/share/LiteOS_Lab/network/dtls/mbedtls/mbedtls-2.16.2/library/oid.c **** typedef struct {
 163:/home/xingli/share/LiteOS_Lab/network/dtls/mbedtls/mbedtls-2.16.2/library/oid.c ****     mbedtls_oid_descriptor_t    descriptor;
 164:/home/xingli/share/LiteOS_Lab/network/dtls/mbedtls/mbedtls-2.16.2/library/oid.c ****     const char          *short_name;
 165:/home/xingli/share/LiteOS_Lab/network/dtls/mbedtls/mbedtls-2.16.2/library/oid.c **** } oid_x520_attr_t;
 166:/home/xingli/share/LiteOS_Lab/network/dtls/mbedtls/mbedtls-2.16.2/library/oid.c **** 
 167:/home/xingli/share/LiteOS_Lab/network/dtls/mbedtls/mbedtls-2.16.2/library/oid.c **** static const oid_x520_attr_t oid_x520_attr_type[] =
 168:/home/xingli/share/LiteOS_Lab/network/dtls/mbedtls/mbedtls-2.16.2/library/oid.c **** {
 169:/home/xingli/share/LiteOS_Lab/network/dtls/mbedtls/mbedtls-2.16.2/library/oid.c ****     {
 170:/home/xingli/share/LiteOS_Lab/network/dtls/mbedtls/mbedtls-2.16.2/library/oid.c ****         { ADD_LEN( MBEDTLS_OID_AT_CN ),          "id-at-commonName",               "Common Name" },
 171:/home/xingli/share/LiteOS_Lab/network/dtls/mbedtls/mbedtls-2.16.2/library/oid.c ****         "CN",
 172:/home/xingli/share/LiteOS_Lab/network/dtls/mbedtls/mbedtls-2.16.2/library/oid.c ****     },
 173:/home/xingli/share/LiteOS_Lab/network/dtls/mbedtls/mbedtls-2.16.2/library/oid.c ****     {
 174:/home/xingli/share/LiteOS_Lab/network/dtls/mbedtls/mbedtls-2.16.2/library/oid.c ****         { ADD_LEN( MBEDTLS_OID_AT_COUNTRY ),     "id-at-countryName",              "Country" },
 175:/home/xingli/share/LiteOS_Lab/network/dtls/mbedtls/mbedtls-2.16.2/library/oid.c ****         "C",
 176:/home/xingli/share/LiteOS_Lab/network/dtls/mbedtls/mbedtls-2.16.2/library/oid.c ****     },
 177:/home/xingli/share/LiteOS_Lab/network/dtls/mbedtls/mbedtls-2.16.2/library/oid.c ****     {
 178:/home/xingli/share/LiteOS_Lab/network/dtls/mbedtls/mbedtls-2.16.2/library/oid.c ****         { ADD_LEN( MBEDTLS_OID_AT_LOCALITY ),    "id-at-locality",                 "Locality" },
 179:/home/xingli/share/LiteOS_Lab/network/dtls/mbedtls/mbedtls-2.16.2/library/oid.c ****         "L",
 180:/home/xingli/share/LiteOS_Lab/network/dtls/mbedtls/mbedtls-2.16.2/library/oid.c ****     },
 181:/home/xingli/share/LiteOS_Lab/network/dtls/mbedtls/mbedtls-2.16.2/library/oid.c ****     {
 182:/home/xingli/share/LiteOS_Lab/network/dtls/mbedtls/mbedtls-2.16.2/library/oid.c ****         { ADD_LEN( MBEDTLS_OID_AT_STATE ),       "id-at-state",                    "State" },
 183:/home/xingli/share/LiteOS_Lab/network/dtls/mbedtls/mbedtls-2.16.2/library/oid.c ****         "ST",
 184:/home/xingli/share/LiteOS_Lab/network/dtls/mbedtls/mbedtls-2.16.2/library/oid.c ****     },
GAS LISTING /tmp/ccHf1ECV.s 			page 13


 185:/home/xingli/share/LiteOS_Lab/network/dtls/mbedtls/mbedtls-2.16.2/library/oid.c ****     {
 186:/home/xingli/share/LiteOS_Lab/network/dtls/mbedtls/mbedtls-2.16.2/library/oid.c ****         { ADD_LEN( MBEDTLS_OID_AT_ORGANIZATION ),"id-at-organizationName",         "Organization" }
 187:/home/xingli/share/LiteOS_Lab/network/dtls/mbedtls/mbedtls-2.16.2/library/oid.c ****         "O",
 188:/home/xingli/share/LiteOS_Lab/network/dtls/mbedtls/mbedtls-2.16.2/library/oid.c ****     },
 189:/home/xingli/share/LiteOS_Lab/network/dtls/mbedtls/mbedtls-2.16.2/library/oid.c ****     {
 190:/home/xingli/share/LiteOS_Lab/network/dtls/mbedtls/mbedtls-2.16.2/library/oid.c ****         { ADD_LEN( MBEDTLS_OID_AT_ORG_UNIT ),    "id-at-organizationalUnitName",   "Org Unit" },
 191:/home/xingli/share/LiteOS_Lab/network/dtls/mbedtls/mbedtls-2.16.2/library/oid.c ****         "OU",
 192:/home/xingli/share/LiteOS_Lab/network/dtls/mbedtls/mbedtls-2.16.2/library/oid.c ****     },
 193:/home/xingli/share/LiteOS_Lab/network/dtls/mbedtls/mbedtls-2.16.2/library/oid.c ****     {
 194:/home/xingli/share/LiteOS_Lab/network/dtls/mbedtls/mbedtls-2.16.2/library/oid.c ****         { ADD_LEN( MBEDTLS_OID_PKCS9_EMAIL ),    "emailAddress",                   "E-mail address"
 195:/home/xingli/share/LiteOS_Lab/network/dtls/mbedtls/mbedtls-2.16.2/library/oid.c ****         "emailAddress",
 196:/home/xingli/share/LiteOS_Lab/network/dtls/mbedtls/mbedtls-2.16.2/library/oid.c ****     },
 197:/home/xingli/share/LiteOS_Lab/network/dtls/mbedtls/mbedtls-2.16.2/library/oid.c ****     {
 198:/home/xingli/share/LiteOS_Lab/network/dtls/mbedtls/mbedtls-2.16.2/library/oid.c ****         { ADD_LEN( MBEDTLS_OID_AT_SERIAL_NUMBER ),"id-at-serialNumber",            "Serial number" 
 199:/home/xingli/share/LiteOS_Lab/network/dtls/mbedtls/mbedtls-2.16.2/library/oid.c ****         "serialNumber",
 200:/home/xingli/share/LiteOS_Lab/network/dtls/mbedtls/mbedtls-2.16.2/library/oid.c ****     },
 201:/home/xingli/share/LiteOS_Lab/network/dtls/mbedtls/mbedtls-2.16.2/library/oid.c ****     {
 202:/home/xingli/share/LiteOS_Lab/network/dtls/mbedtls/mbedtls-2.16.2/library/oid.c ****         { ADD_LEN( MBEDTLS_OID_AT_POSTAL_ADDRESS ),"id-at-postalAddress",          "Postal address"
 203:/home/xingli/share/LiteOS_Lab/network/dtls/mbedtls/mbedtls-2.16.2/library/oid.c ****         "postalAddress",
 204:/home/xingli/share/LiteOS_Lab/network/dtls/mbedtls/mbedtls-2.16.2/library/oid.c ****     },
 205:/home/xingli/share/LiteOS_Lab/network/dtls/mbedtls/mbedtls-2.16.2/library/oid.c ****     {
 206:/home/xingli/share/LiteOS_Lab/network/dtls/mbedtls/mbedtls-2.16.2/library/oid.c ****         { ADD_LEN( MBEDTLS_OID_AT_POSTAL_CODE ), "id-at-postalCode",               "Postal code" },
 207:/home/xingli/share/LiteOS_Lab/network/dtls/mbedtls/mbedtls-2.16.2/library/oid.c ****         "postalCode",
 208:/home/xingli/share/LiteOS_Lab/network/dtls/mbedtls/mbedtls-2.16.2/library/oid.c ****     },
 209:/home/xingli/share/LiteOS_Lab/network/dtls/mbedtls/mbedtls-2.16.2/library/oid.c ****     {
 210:/home/xingli/share/LiteOS_Lab/network/dtls/mbedtls/mbedtls-2.16.2/library/oid.c ****         { ADD_LEN( MBEDTLS_OID_AT_SUR_NAME ),    "id-at-surName",                  "Surname" },
 211:/home/xingli/share/LiteOS_Lab/network/dtls/mbedtls/mbedtls-2.16.2/library/oid.c ****         "SN",
 212:/home/xingli/share/LiteOS_Lab/network/dtls/mbedtls/mbedtls-2.16.2/library/oid.c ****     },
 213:/home/xingli/share/LiteOS_Lab/network/dtls/mbedtls/mbedtls-2.16.2/library/oid.c ****     {
 214:/home/xingli/share/LiteOS_Lab/network/dtls/mbedtls/mbedtls-2.16.2/library/oid.c ****         { ADD_LEN( MBEDTLS_OID_AT_GIVEN_NAME ),  "id-at-givenName",                "Given name" },
 215:/home/xingli/share/LiteOS_Lab/network/dtls/mbedtls/mbedtls-2.16.2/library/oid.c ****         "GN",
 216:/home/xingli/share/LiteOS_Lab/network/dtls/mbedtls/mbedtls-2.16.2/library/oid.c ****     },
 217:/home/xingli/share/LiteOS_Lab/network/dtls/mbedtls/mbedtls-2.16.2/library/oid.c ****     {
 218:/home/xingli/share/LiteOS_Lab/network/dtls/mbedtls/mbedtls-2.16.2/library/oid.c ****         { ADD_LEN( MBEDTLS_OID_AT_INITIALS ),    "id-at-initials",                 "Initials" },
 219:/home/xingli/share/LiteOS_Lab/network/dtls/mbedtls/mbedtls-2.16.2/library/oid.c ****         "initials",
 220:/home/xingli/share/LiteOS_Lab/network/dtls/mbedtls/mbedtls-2.16.2/library/oid.c ****     },
 221:/home/xingli/share/LiteOS_Lab/network/dtls/mbedtls/mbedtls-2.16.2/library/oid.c ****     {
 222:/home/xingli/share/LiteOS_Lab/network/dtls/mbedtls/mbedtls-2.16.2/library/oid.c ****         { ADD_LEN( MBEDTLS_OID_AT_GENERATION_QUALIFIER ), "id-at-generationQualifier", "Generation 
 223:/home/xingli/share/LiteOS_Lab/network/dtls/mbedtls/mbedtls-2.16.2/library/oid.c ****         "generationQualifier",
 224:/home/xingli/share/LiteOS_Lab/network/dtls/mbedtls/mbedtls-2.16.2/library/oid.c ****     },
 225:/home/xingli/share/LiteOS_Lab/network/dtls/mbedtls/mbedtls-2.16.2/library/oid.c ****     {
 226:/home/xingli/share/LiteOS_Lab/network/dtls/mbedtls/mbedtls-2.16.2/library/oid.c ****         { ADD_LEN( MBEDTLS_OID_AT_TITLE ),       "id-at-title",                    "Title" },
 227:/home/xingli/share/LiteOS_Lab/network/dtls/mbedtls/mbedtls-2.16.2/library/oid.c ****         "title",
 228:/home/xingli/share/LiteOS_Lab/network/dtls/mbedtls/mbedtls-2.16.2/library/oid.c ****     },
 229:/home/xingli/share/LiteOS_Lab/network/dtls/mbedtls/mbedtls-2.16.2/library/oid.c ****     {
 230:/home/xingli/share/LiteOS_Lab/network/dtls/mbedtls/mbedtls-2.16.2/library/oid.c ****         { ADD_LEN( MBEDTLS_OID_AT_DN_QUALIFIER ),"id-at-dnQualifier",              "Distinguished N
 231:/home/xingli/share/LiteOS_Lab/network/dtls/mbedtls/mbedtls-2.16.2/library/oid.c ****         "dnQualifier",
 232:/home/xingli/share/LiteOS_Lab/network/dtls/mbedtls/mbedtls-2.16.2/library/oid.c ****     },
 233:/home/xingli/share/LiteOS_Lab/network/dtls/mbedtls/mbedtls-2.16.2/library/oid.c ****     {
 234:/home/xingli/share/LiteOS_Lab/network/dtls/mbedtls/mbedtls-2.16.2/library/oid.c ****         { ADD_LEN( MBEDTLS_OID_AT_PSEUDONYM ),   "id-at-pseudonym",                "Pseudonym" },
 235:/home/xingli/share/LiteOS_Lab/network/dtls/mbedtls/mbedtls-2.16.2/library/oid.c ****         "pseudonym",
 236:/home/xingli/share/LiteOS_Lab/network/dtls/mbedtls/mbedtls-2.16.2/library/oid.c ****     },
 237:/home/xingli/share/LiteOS_Lab/network/dtls/mbedtls/mbedtls-2.16.2/library/oid.c ****     {
 238:/home/xingli/share/LiteOS_Lab/network/dtls/mbedtls/mbedtls-2.16.2/library/oid.c ****         { ADD_LEN( MBEDTLS_OID_DOMAIN_COMPONENT ), "id-domainComponent",           "Domain componen
 239:/home/xingli/share/LiteOS_Lab/network/dtls/mbedtls/mbedtls-2.16.2/library/oid.c ****         "DC",
 240:/home/xingli/share/LiteOS_Lab/network/dtls/mbedtls/mbedtls-2.16.2/library/oid.c ****     },
 241:/home/xingli/share/LiteOS_Lab/network/dtls/mbedtls/mbedtls-2.16.2/library/oid.c ****     {
GAS LISTING /tmp/ccHf1ECV.s 			page 14


 242:/home/xingli/share/LiteOS_Lab/network/dtls/mbedtls/mbedtls-2.16.2/library/oid.c ****         { ADD_LEN( MBEDTLS_OID_AT_UNIQUE_IDENTIFIER ), "id-at-uniqueIdentifier",    "Unique Identif
 243:/home/xingli/share/LiteOS_Lab/network/dtls/mbedtls/mbedtls-2.16.2/library/oid.c ****         "uniqueIdentifier",
 244:/home/xingli/share/LiteOS_Lab/network/dtls/mbedtls/mbedtls-2.16.2/library/oid.c ****     },
 245:/home/xingli/share/LiteOS_Lab/network/dtls/mbedtls/mbedtls-2.16.2/library/oid.c ****     {
 246:/home/xingli/share/LiteOS_Lab/network/dtls/mbedtls/mbedtls-2.16.2/library/oid.c ****         { NULL, 0, NULL, NULL },
 247:/home/xingli/share/LiteOS_Lab/network/dtls/mbedtls/mbedtls-2.16.2/library/oid.c ****         NULL,
 248:/home/xingli/share/LiteOS_Lab/network/dtls/mbedtls/mbedtls-2.16.2/library/oid.c ****     }
 249:/home/xingli/share/LiteOS_Lab/network/dtls/mbedtls/mbedtls-2.16.2/library/oid.c **** };
 250:/home/xingli/share/LiteOS_Lab/network/dtls/mbedtls/mbedtls-2.16.2/library/oid.c **** 
 251:/home/xingli/share/LiteOS_Lab/network/dtls/mbedtls/mbedtls-2.16.2/library/oid.c **** FN_OID_TYPED_FROM_ASN1(oid_x520_attr_t, x520_attr, oid_x520_attr_type)
 265              		.loc 1 251 1
 266              		.cfi_startproc
 267 0000 F30F1EFA 		endbr64
 268 0004 55       		pushq	%rbp
 269              	.LCFI0:
 270              		.cfi_def_cfa_offset 16
 271              		.cfi_offset 6, -16
 272 0005 4889E5   		movq	%rsp, %rbp
 273              	.LCFI1:
 274              		.cfi_def_cfa_register 6
 275 0008 4883EC30 		subq	$48, %rsp
 276 000c 48897DD8 		movq	%rdi, -40(%rbp)
 277              		.loc 1 251 1
 278 0010 64488B04 		movq	%fs:40, %rax
 278      25280000 
 278      00
 279 0019 488945F8 		movq	%rax, -8(%rbp)
 280 001d 31C0     		xorl	%eax, %eax
 281 001f 488D0500 		leaq	oid_x520_attr_type(%rip), %rax
 281      000000
 282 0026 488945E8 		movq	%rax, -24(%rbp)
 283 002a 488B45E8 		movq	-24(%rbp), %rax
 284 002e 488945F0 		movq	%rax, -16(%rbp)
 285 0032 48837DE8 		cmpq	$0, -24(%rbp)
 285      00
 286 0037 7407     		je	.L2
 287              		.loc 1 251 1 is_stmt 0 discriminator 2
 288 0039 48837DD8 		cmpq	$0, -40(%rbp)
 288      00
 289 003e 7555     		jne	.L5
 290              	.L2:
 291              		.loc 1 251 1 discriminator 3
 292 0040 B8000000 		movl	$0, %eax
 292      00
 293 0045 EB5F     		jmp	.L4
 294              	.L7:
 295              		.loc 1 251 1 discriminator 9
 296 0047 488B45F0 		movq	-16(%rbp), %rax
 297 004b 488B5008 		movq	8(%rax), %rdx
 298 004f 488B45D8 		movq	-40(%rbp), %rax
 299 0053 488B4008 		movq	8(%rax), %rax
 300 0057 4839C2   		cmpq	%rax, %rdx
 301 005a 752C     		jne	.L6
 302              		.loc 1 251 1 discriminator 4
 303 005c 488B45D8 		movq	-40(%rbp), %rax
 304 0060 488B5008 		movq	8(%rax), %rdx
 305 0064 488B45D8 		movq	-40(%rbp), %rax
GAS LISTING /tmp/ccHf1ECV.s 			page 15


 306 0068 488B4810 		movq	16(%rax), %rcx
 307 006c 488B45F0 		movq	-16(%rbp), %rax
 308 0070 488B00   		movq	(%rax), %rax
 309 0073 4889CE   		movq	%rcx, %rsi
 310 0076 4889C7   		movq	%rax, %rdi
 311 0079 E8000000 		call	memcmp@PLT
 311      00
 312 007e 85C0     		testl	%eax, %eax
 313 0080 7506     		jne	.L6
 314              		.loc 1 251 1 discriminator 6
 315 0082 488B45E8 		movq	-24(%rbp), %rax
 316 0086 EB1E     		jmp	.L4
 317              	.L6:
 318              		.loc 1 251 1 discriminator 7
 319 0088 488345E8 		addq	$40, -24(%rbp)
 319      28
 320 008d 488B45E8 		movq	-24(%rbp), %rax
 321 0091 488945F0 		movq	%rax, -16(%rbp)
 322              	.L5:
 323              		.loc 1 251 1 discriminator 8
 324 0095 488B45F0 		movq	-16(%rbp), %rax
 325 0099 488B00   		movq	(%rax), %rax
 326 009c 4885C0   		testq	%rax, %rax
 327 009f 75A6     		jne	.L7
 328              		.loc 1 251 1 discriminator 10
 329 00a1 B8000000 		movl	$0, %eax
 329      00
 330              	.L4:
 331              		.loc 1 251 1
 332 00a6 488B75F8 		movq	-8(%rbp), %rsi
 333 00aa 64483334 		xorq	%fs:40, %rsi
 333      25280000 
 333      00
 334 00b3 7405     		je	.L8
 335 00b5 E8000000 		call	__stack_chk_fail@PLT
 335      00
 336              	.L8:
 337 00ba C9       		leave
 338              	.LCFI2:
 339              		.cfi_def_cfa 7, 8
 340 00bb C3       		ret
 341              		.cfi_endproc
 342              	.LFE16:
 344              		.section	.text.mbedtls_oid_get_attr_short_name,"ax",@progbits
 345              		.globl	mbedtls_oid_get_attr_short_name
 347              	mbedtls_oid_get_attr_short_name:
 348              	.LFB17:
 252:/home/xingli/share/LiteOS_Lab/network/dtls/mbedtls/mbedtls-2.16.2/library/oid.c **** FN_OID_GET_ATTR1(mbedtls_oid_get_attr_short_name, oid_x520_attr_t, x520_attr, const char *, short_n
 349              		.loc 1 252 1 is_stmt 1
 350              		.cfi_startproc
 351 0000 F30F1EFA 		endbr64
 352 0004 55       		pushq	%rbp
 353              	.LCFI3:
 354              		.cfi_def_cfa_offset 16
 355              		.cfi_offset 6, -16
 356 0005 4889E5   		movq	%rsp, %rbp
 357              	.LCFI4:
GAS LISTING /tmp/ccHf1ECV.s 			page 16


 358              		.cfi_def_cfa_register 6
 359 0008 4883EC20 		subq	$32, %rsp
 360 000c 48897DE8 		movq	%rdi, -24(%rbp)
 361 0010 488975E0 		movq	%rsi, -32(%rbp)
 362              		.loc 1 252 1
 363 0014 64488B04 		movq	%fs:40, %rax
 363      25280000 
 363      00
 364 001d 488945F8 		movq	%rax, -8(%rbp)
 365 0021 31C0     		xorl	%eax, %eax
 366 0023 488B45E8 		movq	-24(%rbp), %rax
 367 0027 4889C7   		movq	%rax, %rdi
 368 002a E8000000 		call	oid_x520_attr_from_asn1
 368      00
 369 002f 488945F0 		movq	%rax, -16(%rbp)
 370 0033 48837DF0 		cmpq	$0, -16(%rbp)
 370      00
 371 0038 7507     		jne	.L10
 372              		.loc 1 252 1 is_stmt 0 discriminator 1
 373 003a B8D2FFFF 		movl	$-46, %eax
 373      FF
 374 003f EB14     		jmp	.L11
 375              	.L10:
 376              		.loc 1 252 1 discriminator 2
 377 0041 488B45F0 		movq	-16(%rbp), %rax
 378 0045 488B5020 		movq	32(%rax), %rdx
 379 0049 488B45E0 		movq	-32(%rbp), %rax
 380 004d 488910   		movq	%rdx, (%rax)
 381 0050 B8000000 		movl	$0, %eax
 381      00
 382              	.L11:
 383              		.loc 1 252 1
 384 0055 488B4DF8 		movq	-8(%rbp), %rcx
 385 0059 6448330C 		xorq	%fs:40, %rcx
 385      25280000 
 385      00
 386 0062 7405     		je	.L12
 387 0064 E8000000 		call	__stack_chk_fail@PLT
 387      00
 388              	.L12:
 389 0069 C9       		leave
 390              	.LCFI5:
 391              		.cfi_def_cfa 7, 8
 392 006a C3       		ret
 393              		.cfi_endproc
 394              	.LFE17:
 396              		.section	.rodata
 397              	.LC75:
 398 0329 551D1300 		.string	"U\035\023"
 399              	.LC76:
 400 032d 69642D63 		.string	"id-ce-basicConstraints"
 400      652D6261 
 400      73696343 
 400      6F6E7374 
 400      7261696E 
 401              	.LC77:
 402 0344 42617369 		.string	"Basic Constraints"
GAS LISTING /tmp/ccHf1ECV.s 			page 17


 402      6320436F 
 402      6E737472 
 402      61696E74 
 402      7300
 403              	.LC78:
 404 0356 551D0F00 		.string	"U\035\017"
 405              	.LC79:
 406 035a 69642D63 		.string	"id-ce-keyUsage"
 406      652D6B65 
 406      79557361 
 406      676500
 407              	.LC80:
 408 0369 4B657920 		.string	"Key Usage"
 408      55736167 
 408      6500
 409              	.LC81:
 410 0373 551D2500 		.string	"U\035%"
 411              	.LC82:
 412 0377 69642D63 		.string	"id-ce-extKeyUsage"
 412      652D6578 
 412      744B6579 
 412      55736167 
 412      6500
 413              	.LC83:
 414 0389 45787465 		.string	"Extended Key Usage"
 414      6E646564 
 414      204B6579 
 414      20557361 
 414      676500
 415              	.LC84:
 416 039c 551D1100 		.string	"U\035\021"
 417              	.LC85:
 418 03a0 69642D63 		.string	"id-ce-subjectAltName"
 418      652D7375 
 418      626A6563 
 418      74416C74 
 418      4E616D65 
 419              	.LC86:
 420 03b5 5375626A 		.string	"Subject Alt Name"
 420      65637420 
 420      416C7420 
 420      4E616D65 
 420      00
 421              	.LC87:
 422 03c6 60864801 		.string	"`\206H\001\206\370B\001\001"
 422      86F84201 
 422      0100
 423              	.LC88:
 424 03d0 69642D6E 		.string	"id-netscape-certtype"
 424      65747363 
 424      6170652D 
 424      63657274 
 424      74797065 
 425              	.LC89:
 426 03e5 4E657473 		.string	"Netscape Certificate Type"
 426      63617065 
 426      20436572 
GAS LISTING /tmp/ccHf1ECV.s 			page 18


 426      74696669 
 426      63617465 
 427              		.section	.data.rel.ro.local.oid_x509_ext,"aw"
 428              		.align 32
 431              	oid_x509_ext:
 432 0000 00000000 		.quad	.LC75
 432      00000000 
 433 0008 03000000 		.quad	3
 433      00000000 
 434 0010 00000000 		.quad	.LC76
 434      00000000 
 435 0018 00000000 		.quad	.LC77
 435      00000000 
 436 0020 00010000 		.long	256
 437 0024 00000000 		.zero	4
 438 0028 00000000 		.quad	.LC78
 438      00000000 
 439 0030 03000000 		.quad	3
 439      00000000 
 440 0038 00000000 		.quad	.LC79
 440      00000000 
 441 0040 00000000 		.quad	.LC80
 441      00000000 
 442 0048 04000000 		.long	4
 443 004c 00000000 		.zero	4
 444 0050 00000000 		.quad	.LC81
 444      00000000 
 445 0058 03000000 		.quad	3
 445      00000000 
 446 0060 00000000 		.quad	.LC82
 446      00000000 
 447 0068 00000000 		.quad	.LC83
 447      00000000 
 448 0070 00080000 		.long	2048
 449 0074 00000000 		.zero	4
 450 0078 00000000 		.quad	.LC84
 450      00000000 
 451 0080 03000000 		.quad	3
 451      00000000 
 452 0088 00000000 		.quad	.LC85
 452      00000000 
 453 0090 00000000 		.quad	.LC86
 453      00000000 
 454 0098 20000000 		.long	32
 455 009c 00000000 		.zero	4
 456 00a0 00000000 		.quad	.LC87
 456      00000000 
 457 00a8 09000000 		.quad	9
 457      00000000 
 458 00b0 00000000 		.quad	.LC88
 458      00000000 
 459 00b8 00000000 		.quad	.LC89
 459      00000000 
 460 00c0 00000100 		.long	65536
 461 00c4 00000000 		.zero	4
 462 00c8 00000000 		.quad	0
 462      00000000 
GAS LISTING /tmp/ccHf1ECV.s 			page 19


 463 00d0 00000000 		.quad	0
 463      00000000 
 464 00d8 00000000 		.quad	0
 464      00000000 
 465 00e0 00000000 		.quad	0
 465      00000000 
 466 00e8 00000000 		.long	0
 467 00ec 00000000 		.zero	4
 468              		.section	.text.oid_x509_ext_from_asn1,"ax",@progbits
 470              	oid_x509_ext_from_asn1:
 471              	.LFB18:
 253:/home/xingli/share/LiteOS_Lab/network/dtls/mbedtls/mbedtls-2.16.2/library/oid.c **** 
 254:/home/xingli/share/LiteOS_Lab/network/dtls/mbedtls/mbedtls-2.16.2/library/oid.c **** /*
 255:/home/xingli/share/LiteOS_Lab/network/dtls/mbedtls/mbedtls-2.16.2/library/oid.c ****  * For X509 extensions
 256:/home/xingli/share/LiteOS_Lab/network/dtls/mbedtls/mbedtls-2.16.2/library/oid.c ****  */
 257:/home/xingli/share/LiteOS_Lab/network/dtls/mbedtls/mbedtls-2.16.2/library/oid.c **** typedef struct {
 258:/home/xingli/share/LiteOS_Lab/network/dtls/mbedtls/mbedtls-2.16.2/library/oid.c ****     mbedtls_oid_descriptor_t    descriptor;
 259:/home/xingli/share/LiteOS_Lab/network/dtls/mbedtls/mbedtls-2.16.2/library/oid.c ****     int                 ext_type;
 260:/home/xingli/share/LiteOS_Lab/network/dtls/mbedtls/mbedtls-2.16.2/library/oid.c **** } oid_x509_ext_t;
 261:/home/xingli/share/LiteOS_Lab/network/dtls/mbedtls/mbedtls-2.16.2/library/oid.c **** 
 262:/home/xingli/share/LiteOS_Lab/network/dtls/mbedtls/mbedtls-2.16.2/library/oid.c **** static const oid_x509_ext_t oid_x509_ext[] =
 263:/home/xingli/share/LiteOS_Lab/network/dtls/mbedtls/mbedtls-2.16.2/library/oid.c **** {
 264:/home/xingli/share/LiteOS_Lab/network/dtls/mbedtls/mbedtls-2.16.2/library/oid.c ****     {
 265:/home/xingli/share/LiteOS_Lab/network/dtls/mbedtls/mbedtls-2.16.2/library/oid.c ****         { ADD_LEN( MBEDTLS_OID_BASIC_CONSTRAINTS ),    "id-ce-basicConstraints",   "Basic Constrain
 266:/home/xingli/share/LiteOS_Lab/network/dtls/mbedtls/mbedtls-2.16.2/library/oid.c ****         MBEDTLS_X509_EXT_BASIC_CONSTRAINTS,
 267:/home/xingli/share/LiteOS_Lab/network/dtls/mbedtls/mbedtls-2.16.2/library/oid.c ****     },
 268:/home/xingli/share/LiteOS_Lab/network/dtls/mbedtls/mbedtls-2.16.2/library/oid.c ****     {
 269:/home/xingli/share/LiteOS_Lab/network/dtls/mbedtls/mbedtls-2.16.2/library/oid.c ****         { ADD_LEN( MBEDTLS_OID_KEY_USAGE ),            "id-ce-keyUsage",           "Key Usage" },
 270:/home/xingli/share/LiteOS_Lab/network/dtls/mbedtls/mbedtls-2.16.2/library/oid.c ****         MBEDTLS_X509_EXT_KEY_USAGE,
 271:/home/xingli/share/LiteOS_Lab/network/dtls/mbedtls/mbedtls-2.16.2/library/oid.c ****     },
 272:/home/xingli/share/LiteOS_Lab/network/dtls/mbedtls/mbedtls-2.16.2/library/oid.c ****     {
 273:/home/xingli/share/LiteOS_Lab/network/dtls/mbedtls/mbedtls-2.16.2/library/oid.c ****         { ADD_LEN( MBEDTLS_OID_EXTENDED_KEY_USAGE ),   "id-ce-extKeyUsage",        "Extended Key Us
 274:/home/xingli/share/LiteOS_Lab/network/dtls/mbedtls/mbedtls-2.16.2/library/oid.c ****         MBEDTLS_X509_EXT_EXTENDED_KEY_USAGE,
 275:/home/xingli/share/LiteOS_Lab/network/dtls/mbedtls/mbedtls-2.16.2/library/oid.c ****     },
 276:/home/xingli/share/LiteOS_Lab/network/dtls/mbedtls/mbedtls-2.16.2/library/oid.c ****     {
 277:/home/xingli/share/LiteOS_Lab/network/dtls/mbedtls/mbedtls-2.16.2/library/oid.c ****         { ADD_LEN( MBEDTLS_OID_SUBJECT_ALT_NAME ),     "id-ce-subjectAltName",     "Subject Alt Nam
 278:/home/xingli/share/LiteOS_Lab/network/dtls/mbedtls/mbedtls-2.16.2/library/oid.c ****         MBEDTLS_X509_EXT_SUBJECT_ALT_NAME,
 279:/home/xingli/share/LiteOS_Lab/network/dtls/mbedtls/mbedtls-2.16.2/library/oid.c ****     },
 280:/home/xingli/share/LiteOS_Lab/network/dtls/mbedtls/mbedtls-2.16.2/library/oid.c ****     {
 281:/home/xingli/share/LiteOS_Lab/network/dtls/mbedtls/mbedtls-2.16.2/library/oid.c ****         { ADD_LEN( MBEDTLS_OID_NS_CERT_TYPE ),         "id-netscape-certtype",     "Netscape Certif
 282:/home/xingli/share/LiteOS_Lab/network/dtls/mbedtls/mbedtls-2.16.2/library/oid.c ****         MBEDTLS_X509_EXT_NS_CERT_TYPE,
 283:/home/xingli/share/LiteOS_Lab/network/dtls/mbedtls/mbedtls-2.16.2/library/oid.c ****     },
 284:/home/xingli/share/LiteOS_Lab/network/dtls/mbedtls/mbedtls-2.16.2/library/oid.c ****     {
 285:/home/xingli/share/LiteOS_Lab/network/dtls/mbedtls/mbedtls-2.16.2/library/oid.c ****         { NULL, 0, NULL, NULL },
 286:/home/xingli/share/LiteOS_Lab/network/dtls/mbedtls/mbedtls-2.16.2/library/oid.c ****         0,
 287:/home/xingli/share/LiteOS_Lab/network/dtls/mbedtls/mbedtls-2.16.2/library/oid.c ****     },
 288:/home/xingli/share/LiteOS_Lab/network/dtls/mbedtls/mbedtls-2.16.2/library/oid.c **** };
 289:/home/xingli/share/LiteOS_Lab/network/dtls/mbedtls/mbedtls-2.16.2/library/oid.c **** 
 290:/home/xingli/share/LiteOS_Lab/network/dtls/mbedtls/mbedtls-2.16.2/library/oid.c **** FN_OID_TYPED_FROM_ASN1(oid_x509_ext_t, x509_ext, oid_x509_ext)
 472              		.loc 1 290 1 is_stmt 1
 473              		.cfi_startproc
 474 0000 F30F1EFA 		endbr64
 475 0004 55       		pushq	%rbp
 476              	.LCFI6:
 477              		.cfi_def_cfa_offset 16
 478              		.cfi_offset 6, -16
 479 0005 4889E5   		movq	%rsp, %rbp
GAS LISTING /tmp/ccHf1ECV.s 			page 20


 480              	.LCFI7:
 481              		.cfi_def_cfa_register 6
 482 0008 4883EC30 		subq	$48, %rsp
 483 000c 48897DD8 		movq	%rdi, -40(%rbp)
 484              		.loc 1 290 1
 485 0010 64488B04 		movq	%fs:40, %rax
 485      25280000 
 485      00
 486 0019 488945F8 		movq	%rax, -8(%rbp)
 487 001d 31C0     		xorl	%eax, %eax
 488 001f 488D0500 		leaq	oid_x509_ext(%rip), %rax
 488      000000
 489 0026 488945E8 		movq	%rax, -24(%rbp)
 490 002a 488B45E8 		movq	-24(%rbp), %rax
 491 002e 488945F0 		movq	%rax, -16(%rbp)
 492 0032 48837DE8 		cmpq	$0, -24(%rbp)
 492      00
 493 0037 7407     		je	.L14
 494              		.loc 1 290 1 is_stmt 0 discriminator 2
 495 0039 48837DD8 		cmpq	$0, -40(%rbp)
 495      00
 496 003e 7555     		jne	.L17
 497              	.L14:
 498              		.loc 1 290 1 discriminator 3
 499 0040 B8000000 		movl	$0, %eax
 499      00
 500 0045 EB5F     		jmp	.L16
 501              	.L19:
 502              		.loc 1 290 1 discriminator 9
 503 0047 488B45F0 		movq	-16(%rbp), %rax
 504 004b 488B5008 		movq	8(%rax), %rdx
 505 004f 488B45D8 		movq	-40(%rbp), %rax
 506 0053 488B4008 		movq	8(%rax), %rax
 507 0057 4839C2   		cmpq	%rax, %rdx
 508 005a 752C     		jne	.L18
 509              		.loc 1 290 1 discriminator 4
 510 005c 488B45D8 		movq	-40(%rbp), %rax
 511 0060 488B5008 		movq	8(%rax), %rdx
 512 0064 488B45D8 		movq	-40(%rbp), %rax
 513 0068 488B4810 		movq	16(%rax), %rcx
 514 006c 488B45F0 		movq	-16(%rbp), %rax
 515 0070 488B00   		movq	(%rax), %rax
 516 0073 4889CE   		movq	%rcx, %rsi
 517 0076 4889C7   		movq	%rax, %rdi
 518 0079 E8000000 		call	memcmp@PLT
 518      00
 519 007e 85C0     		testl	%eax, %eax
 520 0080 7506     		jne	.L18
 521              		.loc 1 290 1 discriminator 6
 522 0082 488B45E8 		movq	-24(%rbp), %rax
 523 0086 EB1E     		jmp	.L16
 524              	.L18:
 525              		.loc 1 290 1 discriminator 7
 526 0088 488345E8 		addq	$40, -24(%rbp)
 526      28
 527 008d 488B45E8 		movq	-24(%rbp), %rax
 528 0091 488945F0 		movq	%rax, -16(%rbp)
GAS LISTING /tmp/ccHf1ECV.s 			page 21


 529              	.L17:
 530              		.loc 1 290 1 discriminator 8
 531 0095 488B45F0 		movq	-16(%rbp), %rax
 532 0099 488B00   		movq	(%rax), %rax
 533 009c 4885C0   		testq	%rax, %rax
 534 009f 75A6     		jne	.L19
 535              		.loc 1 290 1 discriminator 10
 536 00a1 B8000000 		movl	$0, %eax
 536      00
 537              	.L16:
 538              		.loc 1 290 1
 539 00a6 488B75F8 		movq	-8(%rbp), %rsi
 540 00aa 64483334 		xorq	%fs:40, %rsi
 540      25280000 
 540      00
 541 00b3 7405     		je	.L20
 542 00b5 E8000000 		call	__stack_chk_fail@PLT
 542      00
 543              	.L20:
 544 00ba C9       		leave
 545              	.LCFI8:
 546              		.cfi_def_cfa 7, 8
 547 00bb C3       		ret
 548              		.cfi_endproc
 549              	.LFE18:
 551              		.section	.text.mbedtls_oid_get_x509_ext_type,"ax",@progbits
 552              		.globl	mbedtls_oid_get_x509_ext_type
 554              	mbedtls_oid_get_x509_ext_type:
 555              	.LFB19:
 291:/home/xingli/share/LiteOS_Lab/network/dtls/mbedtls/mbedtls-2.16.2/library/oid.c **** FN_OID_GET_ATTR1(mbedtls_oid_get_x509_ext_type, oid_x509_ext_t, x509_ext, int, ext_type)
 556              		.loc 1 291 1 is_stmt 1
 557              		.cfi_startproc
 558 0000 F30F1EFA 		endbr64
 559 0004 55       		pushq	%rbp
 560              	.LCFI9:
 561              		.cfi_def_cfa_offset 16
 562              		.cfi_offset 6, -16
 563 0005 4889E5   		movq	%rsp, %rbp
 564              	.LCFI10:
 565              		.cfi_def_cfa_register 6
 566 0008 4883EC20 		subq	$32, %rsp
 567 000c 48897DE8 		movq	%rdi, -24(%rbp)
 568 0010 488975E0 		movq	%rsi, -32(%rbp)
 569              		.loc 1 291 1
 570 0014 64488B04 		movq	%fs:40, %rax
 570      25280000 
 570      00
 571 001d 488945F8 		movq	%rax, -8(%rbp)
 572 0021 31C0     		xorl	%eax, %eax
 573 0023 488B45E8 		movq	-24(%rbp), %rax
 574 0027 4889C7   		movq	%rax, %rdi
 575 002a E8000000 		call	oid_x509_ext_from_asn1
 575      00
 576 002f 488945F0 		movq	%rax, -16(%rbp)
 577 0033 48837DF0 		cmpq	$0, -16(%rbp)
 577      00
 578 0038 7507     		jne	.L22
GAS LISTING /tmp/ccHf1ECV.s 			page 22


 579              		.loc 1 291 1 is_stmt 0 discriminator 1
 580 003a B8D2FFFF 		movl	$-46, %eax
 580      FF
 581 003f EB12     		jmp	.L23
 582              	.L22:
 583              		.loc 1 291 1 discriminator 2
 584 0041 488B45F0 		movq	-16(%rbp), %rax
 585 0045 8B5020   		movl	32(%rax), %edx
 586 0048 488B45E0 		movq	-32(%rbp), %rax
 587 004c 8910     		movl	%edx, (%rax)
 588 004e B8000000 		movl	$0, %eax
 588      00
 589              	.L23:
 590              		.loc 1 291 1
 591 0053 488B4DF8 		movq	-8(%rbp), %rcx
 592 0057 6448330C 		xorq	%fs:40, %rcx
 592      25280000 
 592      00
 593 0060 7405     		je	.L24
 594 0062 E8000000 		call	__stack_chk_fail@PLT
 594      00
 595              	.L24:
 596 0067 C9       		leave
 597              	.LCFI11:
 598              		.cfi_def_cfa 7, 8
 599 0068 C3       		ret
 600              		.cfi_endproc
 601              	.LFE19:
 603              		.section	.rodata
 604              	.LC90:
 605 03ff 2B060105 		.string	"+\006\001\005\005\007\003\001"
 605      05070301 
 605      00
 606              	.LC91:
 607 0408 69642D6B 		.string	"id-kp-serverAuth"
 607      702D7365 
 607      72766572 
 607      41757468 
 607      00
 608              	.LC92:
 609 0419 544C5320 		.string	"TLS Web Server Authentication"
 609      57656220 
 609      53657276 
 609      65722041 
 609      75746865 
 610              	.LC93:
 611 0437 2B060105 		.string	"+\006\001\005\005\007\003\002"
 611      05070302 
 611      00
 612              	.LC94:
 613 0440 69642D6B 		.string	"id-kp-clientAuth"
 613      702D636C 
 613      69656E74 
 613      41757468 
 613      00
 614              	.LC95:
 615 0451 544C5320 		.string	"TLS Web Client Authentication"
GAS LISTING /tmp/ccHf1ECV.s 			page 23


 615      57656220 
 615      436C6965 
 615      6E742041 
 615      75746865 
 616              	.LC96:
 617 046f 2B060105 		.string	"+\006\001\005\005\007\003\003"
 617      05070303 
 617      00
 618              	.LC97:
 619 0478 69642D6B 		.string	"id-kp-codeSigning"
 619      702D636F 
 619      64655369 
 619      676E696E 
 619      6700
 620              	.LC98:
 621 048a 436F6465 		.string	"Code Signing"
 621      20536967 
 621      6E696E67 
 621      00
 622              	.LC99:
 623 0497 2B060105 		.string	"+\006\001\005\005\007\003\004"
 623      05070304 
 623      00
 624              	.LC100:
 625 04a0 69642D6B 		.string	"id-kp-emailProtection"
 625      702D656D 
 625      61696C50 
 625      726F7465 
 625      6374696F 
 626              	.LC101:
 627 04b6 452D6D61 		.string	"E-mail Protection"
 627      696C2050 
 627      726F7465 
 627      6374696F 
 627      6E00
 628              	.LC102:
 629 04c8 2B060105 		.string	"+\006\001\005\005\007\003\b"
 629      05070308 
 629      00
 630              	.LC103:
 631 04d1 69642D6B 		.string	"id-kp-timeStamping"
 631      702D7469 
 631      6D655374 
 631      616D7069 
 631      6E6700
 632              	.LC104:
 633 04e4 54696D65 		.string	"Time Stamping"
 633      20537461 
 633      6D70696E 
 633      6700
 634              	.LC105:
 635 04f2 2B060105 		.string	"+\006\001\005\005\007\003\t"
 635      05070309 
 635      00
 636              	.LC106:
 637 04fb 69642D6B 		.string	"id-kp-OCSPSigning"
 637      702D4F43 
GAS LISTING /tmp/ccHf1ECV.s 			page 24


 637      53505369 
 637      676E696E 
 637      6700
 638              	.LC107:
 639 050d 4F435350 		.string	"OCSP Signing"
 639      20536967 
 639      6E696E67 
 639      00
 640              		.section	.data.rel.ro.local.oid_ext_key_usage,"aw"
 641              		.align 32
 644              	oid_ext_key_usage:
 645 0000 00000000 		.quad	.LC90
 645      00000000 
 646 0008 08000000 		.quad	8
 646      00000000 
 647 0010 00000000 		.quad	.LC91
 647      00000000 
 648 0018 00000000 		.quad	.LC92
 648      00000000 
 649 0020 00000000 		.quad	.LC93
 649      00000000 
 650 0028 08000000 		.quad	8
 650      00000000 
 651 0030 00000000 		.quad	.LC94
 651      00000000 
 652 0038 00000000 		.quad	.LC95
 652      00000000 
 653 0040 00000000 		.quad	.LC96
 653      00000000 
 654 0048 08000000 		.quad	8
 654      00000000 
 655 0050 00000000 		.quad	.LC97
 655      00000000 
 656 0058 00000000 		.quad	.LC98
 656      00000000 
 657 0060 00000000 		.quad	.LC99
 657      00000000 
 658 0068 08000000 		.quad	8
 658      00000000 
 659 0070 00000000 		.quad	.LC100
 659      00000000 
 660 0078 00000000 		.quad	.LC101
 660      00000000 
 661 0080 00000000 		.quad	.LC102
 661      00000000 
 662 0088 08000000 		.quad	8
 662      00000000 
 663 0090 00000000 		.quad	.LC103
 663      00000000 
 664 0098 00000000 		.quad	.LC104
 664      00000000 
 665 00a0 00000000 		.quad	.LC105
 665      00000000 
 666 00a8 08000000 		.quad	8
 666      00000000 
 667 00b0 00000000 		.quad	.LC106
 667      00000000 
GAS LISTING /tmp/ccHf1ECV.s 			page 25


 668 00b8 00000000 		.quad	.LC107
 668      00000000 
 669 00c0 00000000 		.quad	0
 669      00000000 
 670 00c8 00000000 		.quad	0
 670      00000000 
 671 00d0 00000000 		.quad	0
 671      00000000 
 672 00d8 00000000 		.quad	0
 672      00000000 
 673              		.section	.text.oid_ext_key_usage_from_asn1,"ax",@progbits
 675              	oid_ext_key_usage_from_asn1:
 676              	.LFB20:
 292:/home/xingli/share/LiteOS_Lab/network/dtls/mbedtls/mbedtls-2.16.2/library/oid.c **** 
 293:/home/xingli/share/LiteOS_Lab/network/dtls/mbedtls/mbedtls-2.16.2/library/oid.c **** static const mbedtls_oid_descriptor_t oid_ext_key_usage[] =
 294:/home/xingli/share/LiteOS_Lab/network/dtls/mbedtls/mbedtls-2.16.2/library/oid.c **** {
 295:/home/xingli/share/LiteOS_Lab/network/dtls/mbedtls/mbedtls-2.16.2/library/oid.c ****     { ADD_LEN( MBEDTLS_OID_SERVER_AUTH ),      "id-kp-serverAuth",      "TLS Web Server Authenticat
 296:/home/xingli/share/LiteOS_Lab/network/dtls/mbedtls/mbedtls-2.16.2/library/oid.c ****     { ADD_LEN( MBEDTLS_OID_CLIENT_AUTH ),      "id-kp-clientAuth",      "TLS Web Client Authenticat
 297:/home/xingli/share/LiteOS_Lab/network/dtls/mbedtls/mbedtls-2.16.2/library/oid.c ****     { ADD_LEN( MBEDTLS_OID_CODE_SIGNING ),     "id-kp-codeSigning",     "Code Signing" },
 298:/home/xingli/share/LiteOS_Lab/network/dtls/mbedtls/mbedtls-2.16.2/library/oid.c ****     { ADD_LEN( MBEDTLS_OID_EMAIL_PROTECTION ), "id-kp-emailProtection", "E-mail Protection" },
 299:/home/xingli/share/LiteOS_Lab/network/dtls/mbedtls/mbedtls-2.16.2/library/oid.c ****     { ADD_LEN( MBEDTLS_OID_TIME_STAMPING ),    "id-kp-timeStamping",    "Time Stamping" },
 300:/home/xingli/share/LiteOS_Lab/network/dtls/mbedtls/mbedtls-2.16.2/library/oid.c ****     { ADD_LEN( MBEDTLS_OID_OCSP_SIGNING ),     "id-kp-OCSPSigning",     "OCSP Signing" },
 301:/home/xingli/share/LiteOS_Lab/network/dtls/mbedtls/mbedtls-2.16.2/library/oid.c ****     { NULL, 0, NULL, NULL },
 302:/home/xingli/share/LiteOS_Lab/network/dtls/mbedtls/mbedtls-2.16.2/library/oid.c **** };
 303:/home/xingli/share/LiteOS_Lab/network/dtls/mbedtls/mbedtls-2.16.2/library/oid.c **** 
 304:/home/xingli/share/LiteOS_Lab/network/dtls/mbedtls/mbedtls-2.16.2/library/oid.c **** FN_OID_TYPED_FROM_ASN1(mbedtls_oid_descriptor_t, ext_key_usage, oid_ext_key_usage)
 677              		.loc 1 304 1 is_stmt 1
 678              		.cfi_startproc
 679 0000 F30F1EFA 		endbr64
 680 0004 55       		pushq	%rbp
 681              	.LCFI12:
 682              		.cfi_def_cfa_offset 16
 683              		.cfi_offset 6, -16
 684 0005 4889E5   		movq	%rsp, %rbp
 685              	.LCFI13:
 686              		.cfi_def_cfa_register 6
 687 0008 4883EC30 		subq	$48, %rsp
 688 000c 48897DD8 		movq	%rdi, -40(%rbp)
 689              		.loc 1 304 1
 690 0010 64488B04 		movq	%fs:40, %rax
 690      25280000 
 690      00
 691 0019 488945F8 		movq	%rax, -8(%rbp)
 692 001d 31C0     		xorl	%eax, %eax
 693 001f 488D0500 		leaq	oid_ext_key_usage(%rip), %rax
 693      000000
 694 0026 488945E8 		movq	%rax, -24(%rbp)
 695 002a 488B45E8 		movq	-24(%rbp), %rax
 696 002e 488945F0 		movq	%rax, -16(%rbp)
 697 0032 48837DE8 		cmpq	$0, -24(%rbp)
 697      00
 698 0037 7407     		je	.L26
 699              		.loc 1 304 1 is_stmt 0 discriminator 2
 700 0039 48837DD8 		cmpq	$0, -40(%rbp)
 700      00
 701 003e 7555     		jne	.L29
 702              	.L26:
GAS LISTING /tmp/ccHf1ECV.s 			page 26


 703              		.loc 1 304 1 discriminator 3
 704 0040 B8000000 		movl	$0, %eax
 704      00
 705 0045 EB5F     		jmp	.L28
 706              	.L31:
 707              		.loc 1 304 1 discriminator 9
 708 0047 488B45F0 		movq	-16(%rbp), %rax
 709 004b 488B5008 		movq	8(%rax), %rdx
 710 004f 488B45D8 		movq	-40(%rbp), %rax
 711 0053 488B4008 		movq	8(%rax), %rax
 712 0057 4839C2   		cmpq	%rax, %rdx
 713 005a 752C     		jne	.L30
 714              		.loc 1 304 1 discriminator 4
 715 005c 488B45D8 		movq	-40(%rbp), %rax
 716 0060 488B5008 		movq	8(%rax), %rdx
 717 0064 488B45D8 		movq	-40(%rbp), %rax
 718 0068 488B4810 		movq	16(%rax), %rcx
 719 006c 488B45F0 		movq	-16(%rbp), %rax
 720 0070 488B00   		movq	(%rax), %rax
 721 0073 4889CE   		movq	%rcx, %rsi
 722 0076 4889C7   		movq	%rax, %rdi
 723 0079 E8000000 		call	memcmp@PLT
 723      00
 724 007e 85C0     		testl	%eax, %eax
 725 0080 7506     		jne	.L30
 726              		.loc 1 304 1 discriminator 6
 727 0082 488B45E8 		movq	-24(%rbp), %rax
 728 0086 EB1E     		jmp	.L28
 729              	.L30:
 730              		.loc 1 304 1 discriminator 7
 731 0088 488345E8 		addq	$32, -24(%rbp)
 731      20
 732 008d 488B45E8 		movq	-24(%rbp), %rax
 733 0091 488945F0 		movq	%rax, -16(%rbp)
 734              	.L29:
 735              		.loc 1 304 1 discriminator 8
 736 0095 488B45F0 		movq	-16(%rbp), %rax
 737 0099 488B00   		movq	(%rax), %rax
 738 009c 4885C0   		testq	%rax, %rax
 739 009f 75A6     		jne	.L31
 740              		.loc 1 304 1 discriminator 10
 741 00a1 B8000000 		movl	$0, %eax
 741      00
 742              	.L28:
 743              		.loc 1 304 1
 744 00a6 488B75F8 		movq	-8(%rbp), %rsi
 745 00aa 64483334 		xorq	%fs:40, %rsi
 745      25280000 
 745      00
 746 00b3 7405     		je	.L32
 747 00b5 E8000000 		call	__stack_chk_fail@PLT
 747      00
 748              	.L32:
 749 00ba C9       		leave
 750              	.LCFI14:
 751              		.cfi_def_cfa 7, 8
 752 00bb C3       		ret
GAS LISTING /tmp/ccHf1ECV.s 			page 27


 753              		.cfi_endproc
 754              	.LFE20:
 756              		.section	.text.mbedtls_oid_get_extended_key_usage,"ax",@progbits
 757              		.globl	mbedtls_oid_get_extended_key_usage
 759              	mbedtls_oid_get_extended_key_usage:
 760              	.LFB21:
 305:/home/xingli/share/LiteOS_Lab/network/dtls/mbedtls/mbedtls-2.16.2/library/oid.c **** FN_OID_GET_ATTR1(mbedtls_oid_get_extended_key_usage, mbedtls_oid_descriptor_t, ext_key_usage, const
 761              		.loc 1 305 1 is_stmt 1
 762              		.cfi_startproc
 763 0000 F30F1EFA 		endbr64
 764 0004 55       		pushq	%rbp
 765              	.LCFI15:
 766              		.cfi_def_cfa_offset 16
 767              		.cfi_offset 6, -16
 768 0005 4889E5   		movq	%rsp, %rbp
 769              	.LCFI16:
 770              		.cfi_def_cfa_register 6
 771 0008 4883EC20 		subq	$32, %rsp
 772 000c 48897DE8 		movq	%rdi, -24(%rbp)
 773 0010 488975E0 		movq	%rsi, -32(%rbp)
 774              		.loc 1 305 1
 775 0014 64488B04 		movq	%fs:40, %rax
 775      25280000 
 775      00
 776 001d 488945F8 		movq	%rax, -8(%rbp)
 777 0021 31C0     		xorl	%eax, %eax
 778 0023 488B45E8 		movq	-24(%rbp), %rax
 779 0027 4889C7   		movq	%rax, %rdi
 780 002a E8000000 		call	oid_ext_key_usage_from_asn1
 780      00
 781 002f 488945F0 		movq	%rax, -16(%rbp)
 782 0033 48837DF0 		cmpq	$0, -16(%rbp)
 782      00
 783 0038 7507     		jne	.L34
 784              		.loc 1 305 1 is_stmt 0 discriminator 1
 785 003a B8D2FFFF 		movl	$-46, %eax
 785      FF
 786 003f EB14     		jmp	.L35
 787              	.L34:
 788              		.loc 1 305 1 discriminator 2
 789 0041 488B45F0 		movq	-16(%rbp), %rax
 790 0045 488B5018 		movq	24(%rax), %rdx
 791 0049 488B45E0 		movq	-32(%rbp), %rax
 792 004d 488910   		movq	%rdx, (%rax)
 793 0050 B8000000 		movl	$0, %eax
 793      00
 794              	.L35:
 795              		.loc 1 305 1
 796 0055 488B4DF8 		movq	-8(%rbp), %rcx
 797 0059 6448330C 		xorq	%fs:40, %rcx
 797      25280000 
 797      00
 798 0062 7405     		je	.L36
 799 0064 E8000000 		call	__stack_chk_fail@PLT
 799      00
 800              	.L36:
 801 0069 C9       		leave
GAS LISTING /tmp/ccHf1ECV.s 			page 28


 802              	.LCFI17:
 803              		.cfi_def_cfa 7, 8
 804 006a C3       		ret
 805              		.cfi_endproc
 806              	.LFE21:
 808              		.section	.rodata
 809              	.LC108:
 810 051a 2A864886 		.string	"*\206H\206\367\r\001\001\005"
 810      F70D0101 
 810      0500
 811              	.LC109:
 812 0524 7368612D 		.string	"sha-1WithRSAEncryption"
 812      31576974 
 812      68525341 
 812      456E6372 
 812      79707469 
 813              	.LC110:
 814 053b 52534120 		.string	"RSA with SHA1"
 814      77697468 
 814      20534841 
 814      3100
 815              	.LC111:
 816 0549 2A864886 		.string	"*\206H\206\367\r\001\001\016"
 816      F70D0101 
 816      0E00
 817              	.LC112:
 818 0553 73686132 		.string	"sha224WithRSAEncryption"
 818      32345769 
 818      74685253 
 818      41456E63 
 818      72797074 
 819              	.LC113:
 820 056b 52534120 		.string	"RSA with SHA-224"
 820      77697468 
 820      20534841 
 820      2D323234 
 820      00
 821              	.LC114:
 822 057c 2A864886 		.string	"*\206H\206\367\r\001\001\013"
 822      F70D0101 
 822      0B00
 823              	.LC115:
 824 0586 73686132 		.string	"sha256WithRSAEncryption"
 824      35365769 
 824      74685253 
 824      41456E63 
 824      72797074 
 825              	.LC116:
 826 059e 52534120 		.string	"RSA with SHA-256"
 826      77697468 
 826      20534841 
 826      2D323536 
 826      00
 827              	.LC117:
 828 05af 2B0E0302 		.string	"+\016\003\002\035"
 828      1D00
 829              	.LC118:
GAS LISTING /tmp/ccHf1ECV.s 			page 29


 830 05b5 2A8648CE 		.string	"*\206H\316=\004\001"
 830      3D040100 
 831              	.LC119:
 832 05bd 65636473 		.string	"ecdsa-with-SHA1"
 832      612D7769 
 832      74682D53 
 832      48413100 
 833              	.LC120:
 834 05cd 45434453 		.string	"ECDSA with SHA1"
 834      41207769 
 834      74682053 
 834      48413100 
 835              	.LC121:
 836 05dd 2A8648CE 		.string	"*\206H\316=\004\003\001"
 836      3D040301 
 836      00
 837              	.LC122:
 838 05e6 65636473 		.string	"ecdsa-with-SHA224"
 838      612D7769 
 838      74682D53 
 838      48413232 
 838      3400
 839              	.LC123:
 840 05f8 45434453 		.string	"ECDSA with SHA224"
 840      41207769 
 840      74682053 
 840      48413232 
 840      3400
 841              	.LC124:
 842 060a 2A8648CE 		.string	"*\206H\316=\004\003\002"
 842      3D040302 
 842      00
 843              	.LC125:
 844 0613 65636473 		.string	"ecdsa-with-SHA256"
 844      612D7769 
 844      74682D53 
 844      48413235 
 844      3600
 845              	.LC126:
 846 0625 45434453 		.string	"ECDSA with SHA256"
 846      41207769 
 846      74682053 
 846      48413235 
 846      3600
 847              	.LC127:
 848 0637 2A864886 		.string	"*\206H\206\367\r\001\001\n"
 848      F70D0101 
 848      0A00
 849              	.LC128:
 850 0641 52534153 		.string	"RSASSA-PSS"
 850      53412D50 
 850      535300
 851              		.section	.data.rel.ro.local.oid_sig_alg,"aw"
 852              		.align 32
 855              	oid_sig_alg:
 856 0000 00000000 		.quad	.LC108
 856      00000000 
GAS LISTING /tmp/ccHf1ECV.s 			page 30


 857 0008 09000000 		.quad	9
 857      00000000 
 858 0010 00000000 		.quad	.LC109
 858      00000000 
 859 0018 00000000 		.quad	.LC110
 859      00000000 
 860 0020 04000000 		.long	4
 861 0024 01000000 		.long	1
 862 0028 00000000 		.quad	.LC111
 862      00000000 
 863 0030 09000000 		.quad	9
 863      00000000 
 864 0038 00000000 		.quad	.LC112
 864      00000000 
 865 0040 00000000 		.quad	.LC113
 865      00000000 
 866 0048 05000000 		.long	5
 867 004c 01000000 		.long	1
 868 0050 00000000 		.quad	.LC114
 868      00000000 
 869 0058 09000000 		.quad	9
 869      00000000 
 870 0060 00000000 		.quad	.LC115
 870      00000000 
 871 0068 00000000 		.quad	.LC116
 871      00000000 
 872 0070 06000000 		.long	6
 873 0074 01000000 		.long	1
 874 0078 00000000 		.quad	.LC117
 874      00000000 
 875 0080 05000000 		.quad	5
 875      00000000 
 876 0088 00000000 		.quad	.LC109
 876      00000000 
 877 0090 00000000 		.quad	.LC110
 877      00000000 
 878 0098 04000000 		.long	4
 879 009c 01000000 		.long	1
 880 00a0 00000000 		.quad	.LC118
 880      00000000 
 881 00a8 07000000 		.quad	7
 881      00000000 
 882 00b0 00000000 		.quad	.LC119
 882      00000000 
 883 00b8 00000000 		.quad	.LC120
 883      00000000 
 884 00c0 04000000 		.long	4
 885 00c4 04000000 		.long	4
 886 00c8 00000000 		.quad	.LC121
 886      00000000 
 887 00d0 08000000 		.quad	8
 887      00000000 
 888 00d8 00000000 		.quad	.LC122
 888      00000000 
 889 00e0 00000000 		.quad	.LC123
 889      00000000 
 890 00e8 05000000 		.long	5
GAS LISTING /tmp/ccHf1ECV.s 			page 31


 891 00ec 04000000 		.long	4
 892 00f0 00000000 		.quad	.LC124
 892      00000000 
 893 00f8 08000000 		.quad	8
 893      00000000 
 894 0100 00000000 		.quad	.LC125
 894      00000000 
 895 0108 00000000 		.quad	.LC126
 895      00000000 
 896 0110 06000000 		.long	6
 897 0114 04000000 		.long	4
 898 0118 00000000 		.quad	.LC127
 898      00000000 
 899 0120 09000000 		.quad	9
 899      00000000 
 900 0128 00000000 		.quad	.LC128
 900      00000000 
 901 0130 00000000 		.quad	.LC128
 901      00000000 
 902 0138 00000000 		.long	0
 903 013c 06000000 		.long	6
 904 0140 00000000 		.quad	0
 904      00000000 
 905 0148 00000000 		.quad	0
 905      00000000 
 906 0150 00000000 		.quad	0
 906      00000000 
 907 0158 00000000 		.quad	0
 907      00000000 
 908 0160 00000000 		.long	0
 909 0164 00000000 		.long	0
 910              		.section	.text.oid_sig_alg_from_asn1,"ax",@progbits
 912              	oid_sig_alg_from_asn1:
 913              	.LFB22:
 306:/home/xingli/share/LiteOS_Lab/network/dtls/mbedtls/mbedtls-2.16.2/library/oid.c **** #endif /* MBEDTLS_X509_USE_C || MBEDTLS_X509_CREATE_C */
 307:/home/xingli/share/LiteOS_Lab/network/dtls/mbedtls/mbedtls-2.16.2/library/oid.c **** 
 308:/home/xingli/share/LiteOS_Lab/network/dtls/mbedtls/mbedtls-2.16.2/library/oid.c **** #if defined(MBEDTLS_MD_C)
 309:/home/xingli/share/LiteOS_Lab/network/dtls/mbedtls/mbedtls-2.16.2/library/oid.c **** /*
 310:/home/xingli/share/LiteOS_Lab/network/dtls/mbedtls/mbedtls-2.16.2/library/oid.c ****  * For SignatureAlgorithmIdentifier
 311:/home/xingli/share/LiteOS_Lab/network/dtls/mbedtls/mbedtls-2.16.2/library/oid.c ****  */
 312:/home/xingli/share/LiteOS_Lab/network/dtls/mbedtls/mbedtls-2.16.2/library/oid.c **** typedef struct {
 313:/home/xingli/share/LiteOS_Lab/network/dtls/mbedtls/mbedtls-2.16.2/library/oid.c ****     mbedtls_oid_descriptor_t    descriptor;
 314:/home/xingli/share/LiteOS_Lab/network/dtls/mbedtls/mbedtls-2.16.2/library/oid.c ****     mbedtls_md_type_t           md_alg;
 315:/home/xingli/share/LiteOS_Lab/network/dtls/mbedtls/mbedtls-2.16.2/library/oid.c ****     mbedtls_pk_type_t           pk_alg;
 316:/home/xingli/share/LiteOS_Lab/network/dtls/mbedtls/mbedtls-2.16.2/library/oid.c **** } oid_sig_alg_t;
 317:/home/xingli/share/LiteOS_Lab/network/dtls/mbedtls/mbedtls-2.16.2/library/oid.c **** 
 318:/home/xingli/share/LiteOS_Lab/network/dtls/mbedtls/mbedtls-2.16.2/library/oid.c **** static const oid_sig_alg_t oid_sig_alg[] =
 319:/home/xingli/share/LiteOS_Lab/network/dtls/mbedtls/mbedtls-2.16.2/library/oid.c **** {
 320:/home/xingli/share/LiteOS_Lab/network/dtls/mbedtls/mbedtls-2.16.2/library/oid.c **** #if defined(MBEDTLS_RSA_C)
 321:/home/xingli/share/LiteOS_Lab/network/dtls/mbedtls/mbedtls-2.16.2/library/oid.c **** #if defined(MBEDTLS_MD2_C)
 322:/home/xingli/share/LiteOS_Lab/network/dtls/mbedtls/mbedtls-2.16.2/library/oid.c ****     {
 323:/home/xingli/share/LiteOS_Lab/network/dtls/mbedtls/mbedtls-2.16.2/library/oid.c ****         { ADD_LEN( MBEDTLS_OID_PKCS1_MD2 ),        "md2WithRSAEncryption",     "RSA with MD2" },
 324:/home/xingli/share/LiteOS_Lab/network/dtls/mbedtls/mbedtls-2.16.2/library/oid.c ****         MBEDTLS_MD_MD2,      MBEDTLS_PK_RSA,
 325:/home/xingli/share/LiteOS_Lab/network/dtls/mbedtls/mbedtls-2.16.2/library/oid.c ****     },
 326:/home/xingli/share/LiteOS_Lab/network/dtls/mbedtls/mbedtls-2.16.2/library/oid.c **** #endif /* MBEDTLS_MD2_C */
 327:/home/xingli/share/LiteOS_Lab/network/dtls/mbedtls/mbedtls-2.16.2/library/oid.c **** #if defined(MBEDTLS_MD4_C)
 328:/home/xingli/share/LiteOS_Lab/network/dtls/mbedtls/mbedtls-2.16.2/library/oid.c ****     {
GAS LISTING /tmp/ccHf1ECV.s 			page 32


 329:/home/xingli/share/LiteOS_Lab/network/dtls/mbedtls/mbedtls-2.16.2/library/oid.c ****         { ADD_LEN( MBEDTLS_OID_PKCS1_MD4 ),        "md4WithRSAEncryption",     "RSA with MD4" },
 330:/home/xingli/share/LiteOS_Lab/network/dtls/mbedtls/mbedtls-2.16.2/library/oid.c ****         MBEDTLS_MD_MD4,      MBEDTLS_PK_RSA,
 331:/home/xingli/share/LiteOS_Lab/network/dtls/mbedtls/mbedtls-2.16.2/library/oid.c ****     },
 332:/home/xingli/share/LiteOS_Lab/network/dtls/mbedtls/mbedtls-2.16.2/library/oid.c **** #endif /* MBEDTLS_MD4_C */
 333:/home/xingli/share/LiteOS_Lab/network/dtls/mbedtls/mbedtls-2.16.2/library/oid.c **** #if defined(MBEDTLS_MD5_C)
 334:/home/xingli/share/LiteOS_Lab/network/dtls/mbedtls/mbedtls-2.16.2/library/oid.c ****     {
 335:/home/xingli/share/LiteOS_Lab/network/dtls/mbedtls/mbedtls-2.16.2/library/oid.c ****         { ADD_LEN( MBEDTLS_OID_PKCS1_MD5 ),        "md5WithRSAEncryption",     "RSA with MD5" },
 336:/home/xingli/share/LiteOS_Lab/network/dtls/mbedtls/mbedtls-2.16.2/library/oid.c ****         MBEDTLS_MD_MD5,      MBEDTLS_PK_RSA,
 337:/home/xingli/share/LiteOS_Lab/network/dtls/mbedtls/mbedtls-2.16.2/library/oid.c ****     },
 338:/home/xingli/share/LiteOS_Lab/network/dtls/mbedtls/mbedtls-2.16.2/library/oid.c **** #endif /* MBEDTLS_MD5_C */
 339:/home/xingli/share/LiteOS_Lab/network/dtls/mbedtls/mbedtls-2.16.2/library/oid.c **** #if defined(MBEDTLS_SHA1_C)
 340:/home/xingli/share/LiteOS_Lab/network/dtls/mbedtls/mbedtls-2.16.2/library/oid.c ****     {
 341:/home/xingli/share/LiteOS_Lab/network/dtls/mbedtls/mbedtls-2.16.2/library/oid.c ****         { ADD_LEN( MBEDTLS_OID_PKCS1_SHA1 ),       "sha-1WithRSAEncryption",   "RSA with SHA1" },
 342:/home/xingli/share/LiteOS_Lab/network/dtls/mbedtls/mbedtls-2.16.2/library/oid.c ****         MBEDTLS_MD_SHA1,     MBEDTLS_PK_RSA,
 343:/home/xingli/share/LiteOS_Lab/network/dtls/mbedtls/mbedtls-2.16.2/library/oid.c ****     },
 344:/home/xingli/share/LiteOS_Lab/network/dtls/mbedtls/mbedtls-2.16.2/library/oid.c **** #endif /* MBEDTLS_SHA1_C */
 345:/home/xingli/share/LiteOS_Lab/network/dtls/mbedtls/mbedtls-2.16.2/library/oid.c **** #if defined(MBEDTLS_SHA256_C)
 346:/home/xingli/share/LiteOS_Lab/network/dtls/mbedtls/mbedtls-2.16.2/library/oid.c ****     {
 347:/home/xingli/share/LiteOS_Lab/network/dtls/mbedtls/mbedtls-2.16.2/library/oid.c ****         { ADD_LEN( MBEDTLS_OID_PKCS1_SHA224 ),     "sha224WithRSAEncryption",  "RSA with SHA-224" }
 348:/home/xingli/share/LiteOS_Lab/network/dtls/mbedtls/mbedtls-2.16.2/library/oid.c ****         MBEDTLS_MD_SHA224,   MBEDTLS_PK_RSA,
 349:/home/xingli/share/LiteOS_Lab/network/dtls/mbedtls/mbedtls-2.16.2/library/oid.c ****     },
 350:/home/xingli/share/LiteOS_Lab/network/dtls/mbedtls/mbedtls-2.16.2/library/oid.c ****     {
 351:/home/xingli/share/LiteOS_Lab/network/dtls/mbedtls/mbedtls-2.16.2/library/oid.c ****         { ADD_LEN( MBEDTLS_OID_PKCS1_SHA256 ),     "sha256WithRSAEncryption",  "RSA with SHA-256" }
 352:/home/xingli/share/LiteOS_Lab/network/dtls/mbedtls/mbedtls-2.16.2/library/oid.c ****         MBEDTLS_MD_SHA256,   MBEDTLS_PK_RSA,
 353:/home/xingli/share/LiteOS_Lab/network/dtls/mbedtls/mbedtls-2.16.2/library/oid.c ****     },
 354:/home/xingli/share/LiteOS_Lab/network/dtls/mbedtls/mbedtls-2.16.2/library/oid.c **** #endif /* MBEDTLS_SHA256_C */
 355:/home/xingli/share/LiteOS_Lab/network/dtls/mbedtls/mbedtls-2.16.2/library/oid.c **** #if defined(MBEDTLS_SHA512_C)
 356:/home/xingli/share/LiteOS_Lab/network/dtls/mbedtls/mbedtls-2.16.2/library/oid.c ****     {
 357:/home/xingli/share/LiteOS_Lab/network/dtls/mbedtls/mbedtls-2.16.2/library/oid.c ****         { ADD_LEN( MBEDTLS_OID_PKCS1_SHA384 ),     "sha384WithRSAEncryption",  "RSA with SHA-384" }
 358:/home/xingli/share/LiteOS_Lab/network/dtls/mbedtls/mbedtls-2.16.2/library/oid.c ****         MBEDTLS_MD_SHA384,   MBEDTLS_PK_RSA,
 359:/home/xingli/share/LiteOS_Lab/network/dtls/mbedtls/mbedtls-2.16.2/library/oid.c ****     },
 360:/home/xingli/share/LiteOS_Lab/network/dtls/mbedtls/mbedtls-2.16.2/library/oid.c ****     {
 361:/home/xingli/share/LiteOS_Lab/network/dtls/mbedtls/mbedtls-2.16.2/library/oid.c ****         { ADD_LEN( MBEDTLS_OID_PKCS1_SHA512 ),     "sha512WithRSAEncryption",  "RSA with SHA-512" }
 362:/home/xingli/share/LiteOS_Lab/network/dtls/mbedtls/mbedtls-2.16.2/library/oid.c ****         MBEDTLS_MD_SHA512,   MBEDTLS_PK_RSA,
 363:/home/xingli/share/LiteOS_Lab/network/dtls/mbedtls/mbedtls-2.16.2/library/oid.c ****     },
 364:/home/xingli/share/LiteOS_Lab/network/dtls/mbedtls/mbedtls-2.16.2/library/oid.c **** #endif /* MBEDTLS_SHA512_C */
 365:/home/xingli/share/LiteOS_Lab/network/dtls/mbedtls/mbedtls-2.16.2/library/oid.c **** #if defined(MBEDTLS_SHA1_C)
 366:/home/xingli/share/LiteOS_Lab/network/dtls/mbedtls/mbedtls-2.16.2/library/oid.c ****     {
 367:/home/xingli/share/LiteOS_Lab/network/dtls/mbedtls/mbedtls-2.16.2/library/oid.c ****         { ADD_LEN( MBEDTLS_OID_RSA_SHA_OBS ),      "sha-1WithRSAEncryption",   "RSA with SHA1" },
 368:/home/xingli/share/LiteOS_Lab/network/dtls/mbedtls/mbedtls-2.16.2/library/oid.c ****         MBEDTLS_MD_SHA1,     MBEDTLS_PK_RSA,
 369:/home/xingli/share/LiteOS_Lab/network/dtls/mbedtls/mbedtls-2.16.2/library/oid.c ****     },
 370:/home/xingli/share/LiteOS_Lab/network/dtls/mbedtls/mbedtls-2.16.2/library/oid.c **** #endif /* MBEDTLS_SHA1_C */
 371:/home/xingli/share/LiteOS_Lab/network/dtls/mbedtls/mbedtls-2.16.2/library/oid.c **** #endif /* MBEDTLS_RSA_C */
 372:/home/xingli/share/LiteOS_Lab/network/dtls/mbedtls/mbedtls-2.16.2/library/oid.c **** #if defined(MBEDTLS_ECDSA_C)
 373:/home/xingli/share/LiteOS_Lab/network/dtls/mbedtls/mbedtls-2.16.2/library/oid.c **** #if defined(MBEDTLS_SHA1_C)
 374:/home/xingli/share/LiteOS_Lab/network/dtls/mbedtls/mbedtls-2.16.2/library/oid.c ****     {
 375:/home/xingli/share/LiteOS_Lab/network/dtls/mbedtls/mbedtls-2.16.2/library/oid.c ****         { ADD_LEN( MBEDTLS_OID_ECDSA_SHA1 ),       "ecdsa-with-SHA1",      "ECDSA with SHA1" },
 376:/home/xingli/share/LiteOS_Lab/network/dtls/mbedtls/mbedtls-2.16.2/library/oid.c ****         MBEDTLS_MD_SHA1,     MBEDTLS_PK_ECDSA,
 377:/home/xingli/share/LiteOS_Lab/network/dtls/mbedtls/mbedtls-2.16.2/library/oid.c ****     },
 378:/home/xingli/share/LiteOS_Lab/network/dtls/mbedtls/mbedtls-2.16.2/library/oid.c **** #endif /* MBEDTLS_SHA1_C */
 379:/home/xingli/share/LiteOS_Lab/network/dtls/mbedtls/mbedtls-2.16.2/library/oid.c **** #if defined(MBEDTLS_SHA256_C)
 380:/home/xingli/share/LiteOS_Lab/network/dtls/mbedtls/mbedtls-2.16.2/library/oid.c ****     {
 381:/home/xingli/share/LiteOS_Lab/network/dtls/mbedtls/mbedtls-2.16.2/library/oid.c ****         { ADD_LEN( MBEDTLS_OID_ECDSA_SHA224 ),     "ecdsa-with-SHA224",    "ECDSA with SHA224" },
 382:/home/xingli/share/LiteOS_Lab/network/dtls/mbedtls/mbedtls-2.16.2/library/oid.c ****         MBEDTLS_MD_SHA224,   MBEDTLS_PK_ECDSA,
 383:/home/xingli/share/LiteOS_Lab/network/dtls/mbedtls/mbedtls-2.16.2/library/oid.c ****     },
 384:/home/xingli/share/LiteOS_Lab/network/dtls/mbedtls/mbedtls-2.16.2/library/oid.c ****     {
 385:/home/xingli/share/LiteOS_Lab/network/dtls/mbedtls/mbedtls-2.16.2/library/oid.c ****         { ADD_LEN( MBEDTLS_OID_ECDSA_SHA256 ),     "ecdsa-with-SHA256",    "ECDSA with SHA256" },
GAS LISTING /tmp/ccHf1ECV.s 			page 33


 386:/home/xingli/share/LiteOS_Lab/network/dtls/mbedtls/mbedtls-2.16.2/library/oid.c ****         MBEDTLS_MD_SHA256,   MBEDTLS_PK_ECDSA,
 387:/home/xingli/share/LiteOS_Lab/network/dtls/mbedtls/mbedtls-2.16.2/library/oid.c ****     },
 388:/home/xingli/share/LiteOS_Lab/network/dtls/mbedtls/mbedtls-2.16.2/library/oid.c **** #endif /* MBEDTLS_SHA256_C */
 389:/home/xingli/share/LiteOS_Lab/network/dtls/mbedtls/mbedtls-2.16.2/library/oid.c **** #if defined(MBEDTLS_SHA512_C)
 390:/home/xingli/share/LiteOS_Lab/network/dtls/mbedtls/mbedtls-2.16.2/library/oid.c ****     {
 391:/home/xingli/share/LiteOS_Lab/network/dtls/mbedtls/mbedtls-2.16.2/library/oid.c ****         { ADD_LEN( MBEDTLS_OID_ECDSA_SHA384 ),     "ecdsa-with-SHA384",    "ECDSA with SHA384" },
 392:/home/xingli/share/LiteOS_Lab/network/dtls/mbedtls/mbedtls-2.16.2/library/oid.c ****         MBEDTLS_MD_SHA384,   MBEDTLS_PK_ECDSA,
 393:/home/xingli/share/LiteOS_Lab/network/dtls/mbedtls/mbedtls-2.16.2/library/oid.c ****     },
 394:/home/xingli/share/LiteOS_Lab/network/dtls/mbedtls/mbedtls-2.16.2/library/oid.c ****     {
 395:/home/xingli/share/LiteOS_Lab/network/dtls/mbedtls/mbedtls-2.16.2/library/oid.c ****         { ADD_LEN( MBEDTLS_OID_ECDSA_SHA512 ),     "ecdsa-with-SHA512",    "ECDSA with SHA512" },
 396:/home/xingli/share/LiteOS_Lab/network/dtls/mbedtls/mbedtls-2.16.2/library/oid.c ****         MBEDTLS_MD_SHA512,   MBEDTLS_PK_ECDSA,
 397:/home/xingli/share/LiteOS_Lab/network/dtls/mbedtls/mbedtls-2.16.2/library/oid.c ****     },
 398:/home/xingli/share/LiteOS_Lab/network/dtls/mbedtls/mbedtls-2.16.2/library/oid.c **** #endif /* MBEDTLS_SHA512_C */
 399:/home/xingli/share/LiteOS_Lab/network/dtls/mbedtls/mbedtls-2.16.2/library/oid.c **** #endif /* MBEDTLS_ECDSA_C */
 400:/home/xingli/share/LiteOS_Lab/network/dtls/mbedtls/mbedtls-2.16.2/library/oid.c **** #if defined(MBEDTLS_RSA_C)
 401:/home/xingli/share/LiteOS_Lab/network/dtls/mbedtls/mbedtls-2.16.2/library/oid.c ****     {
 402:/home/xingli/share/LiteOS_Lab/network/dtls/mbedtls/mbedtls-2.16.2/library/oid.c ****         { ADD_LEN( MBEDTLS_OID_RSASSA_PSS ),        "RSASSA-PSS",           "RSASSA-PSS" },
 403:/home/xingli/share/LiteOS_Lab/network/dtls/mbedtls/mbedtls-2.16.2/library/oid.c ****         MBEDTLS_MD_NONE,     MBEDTLS_PK_RSASSA_PSS,
 404:/home/xingli/share/LiteOS_Lab/network/dtls/mbedtls/mbedtls-2.16.2/library/oid.c ****     },
 405:/home/xingli/share/LiteOS_Lab/network/dtls/mbedtls/mbedtls-2.16.2/library/oid.c **** #endif /* MBEDTLS_RSA_C */
 406:/home/xingli/share/LiteOS_Lab/network/dtls/mbedtls/mbedtls-2.16.2/library/oid.c ****     {
 407:/home/xingli/share/LiteOS_Lab/network/dtls/mbedtls/mbedtls-2.16.2/library/oid.c ****         { NULL, 0, NULL, NULL },
 408:/home/xingli/share/LiteOS_Lab/network/dtls/mbedtls/mbedtls-2.16.2/library/oid.c ****         MBEDTLS_MD_NONE, MBEDTLS_PK_NONE,
 409:/home/xingli/share/LiteOS_Lab/network/dtls/mbedtls/mbedtls-2.16.2/library/oid.c ****     },
 410:/home/xingli/share/LiteOS_Lab/network/dtls/mbedtls/mbedtls-2.16.2/library/oid.c **** };
 411:/home/xingli/share/LiteOS_Lab/network/dtls/mbedtls/mbedtls-2.16.2/library/oid.c **** 
 412:/home/xingli/share/LiteOS_Lab/network/dtls/mbedtls/mbedtls-2.16.2/library/oid.c **** FN_OID_TYPED_FROM_ASN1(oid_sig_alg_t, sig_alg, oid_sig_alg)
 914              		.loc 1 412 1 is_stmt 1
 915              		.cfi_startproc
 916 0000 F30F1EFA 		endbr64
 917 0004 55       		pushq	%rbp
 918              	.LCFI18:
 919              		.cfi_def_cfa_offset 16
 920              		.cfi_offset 6, -16
 921 0005 4889E5   		movq	%rsp, %rbp
 922              	.LCFI19:
 923              		.cfi_def_cfa_register 6
 924 0008 4883EC30 		subq	$48, %rsp
 925 000c 48897DD8 		movq	%rdi, -40(%rbp)
 926              		.loc 1 412 1
 927 0010 64488B04 		movq	%fs:40, %rax
 927      25280000 
 927      00
 928 0019 488945F8 		movq	%rax, -8(%rbp)
 929 001d 31C0     		xorl	%eax, %eax
 930 001f 488D0500 		leaq	oid_sig_alg(%rip), %rax
 930      000000
 931 0026 488945E8 		movq	%rax, -24(%rbp)
 932 002a 488B45E8 		movq	-24(%rbp), %rax
 933 002e 488945F0 		movq	%rax, -16(%rbp)
 934 0032 48837DE8 		cmpq	$0, -24(%rbp)
 934      00
 935 0037 7407     		je	.L38
 936              		.loc 1 412 1 is_stmt 0 discriminator 2
 937 0039 48837DD8 		cmpq	$0, -40(%rbp)
 937      00
 938 003e 7555     		jne	.L41
GAS LISTING /tmp/ccHf1ECV.s 			page 34


 939              	.L38:
 940              		.loc 1 412 1 discriminator 3
 941 0040 B8000000 		movl	$0, %eax
 941      00
 942 0045 EB5F     		jmp	.L40
 943              	.L43:
 944              		.loc 1 412 1 discriminator 9
 945 0047 488B45F0 		movq	-16(%rbp), %rax
 946 004b 488B5008 		movq	8(%rax), %rdx
 947 004f 488B45D8 		movq	-40(%rbp), %rax
 948 0053 488B4008 		movq	8(%rax), %rax
 949 0057 4839C2   		cmpq	%rax, %rdx
 950 005a 752C     		jne	.L42
 951              		.loc 1 412 1 discriminator 4
 952 005c 488B45D8 		movq	-40(%rbp), %rax
 953 0060 488B5008 		movq	8(%rax), %rdx
 954 0064 488B45D8 		movq	-40(%rbp), %rax
 955 0068 488B4810 		movq	16(%rax), %rcx
 956 006c 488B45F0 		movq	-16(%rbp), %rax
 957 0070 488B00   		movq	(%rax), %rax
 958 0073 4889CE   		movq	%rcx, %rsi
 959 0076 4889C7   		movq	%rax, %rdi
 960 0079 E8000000 		call	memcmp@PLT
 960      00
 961 007e 85C0     		testl	%eax, %eax
 962 0080 7506     		jne	.L42
 963              		.loc 1 412 1 discriminator 6
 964 0082 488B45E8 		movq	-24(%rbp), %rax
 965 0086 EB1E     		jmp	.L40
 966              	.L42:
 967              		.loc 1 412 1 discriminator 7
 968 0088 488345E8 		addq	$40, -24(%rbp)
 968      28
 969 008d 488B45E8 		movq	-24(%rbp), %rax
 970 0091 488945F0 		movq	%rax, -16(%rbp)
 971              	.L41:
 972              		.loc 1 412 1 discriminator 8
 973 0095 488B45F0 		movq	-16(%rbp), %rax
 974 0099 488B00   		movq	(%rax), %rax
 975 009c 4885C0   		testq	%rax, %rax
 976 009f 75A6     		jne	.L43
 977              		.loc 1 412 1 discriminator 10
 978 00a1 B8000000 		movl	$0, %eax
 978      00
 979              	.L40:
 980              		.loc 1 412 1
 981 00a6 488B75F8 		movq	-8(%rbp), %rsi
 982 00aa 64483334 		xorq	%fs:40, %rsi
 982      25280000 
 982      00
 983 00b3 7405     		je	.L44
 984 00b5 E8000000 		call	__stack_chk_fail@PLT
 984      00
 985              	.L44:
 986 00ba C9       		leave
 987              	.LCFI20:
 988              		.cfi_def_cfa 7, 8
GAS LISTING /tmp/ccHf1ECV.s 			page 35


 989 00bb C3       		ret
 990              		.cfi_endproc
 991              	.LFE22:
 993              		.section	.text.mbedtls_oid_get_sig_alg_desc,"ax",@progbits
 994              		.globl	mbedtls_oid_get_sig_alg_desc
 996              	mbedtls_oid_get_sig_alg_desc:
 997              	.LFB23:
 413:/home/xingli/share/LiteOS_Lab/network/dtls/mbedtls/mbedtls-2.16.2/library/oid.c **** FN_OID_GET_DESCRIPTOR_ATTR1(mbedtls_oid_get_sig_alg_desc, oid_sig_alg_t, sig_alg, const char *, des
 998              		.loc 1 413 1 is_stmt 1
 999              		.cfi_startproc
 1000 0000 F30F1EFA 		endbr64
 1001 0004 55       		pushq	%rbp
 1002              	.LCFI21:
 1003              		.cfi_def_cfa_offset 16
 1004              		.cfi_offset 6, -16
 1005 0005 4889E5   		movq	%rsp, %rbp
 1006              	.LCFI22:
 1007              		.cfi_def_cfa_register 6
 1008 0008 4883EC20 		subq	$32, %rsp
 1009 000c 48897DE8 		movq	%rdi, -24(%rbp)
 1010 0010 488975E0 		movq	%rsi, -32(%rbp)
 1011              		.loc 1 413 1
 1012 0014 64488B04 		movq	%fs:40, %rax
 1012      25280000 
 1012      00
 1013 001d 488945F8 		movq	%rax, -8(%rbp)
 1014 0021 31C0     		xorl	%eax, %eax
 1015 0023 488B45E8 		movq	-24(%rbp), %rax
 1016 0027 4889C7   		movq	%rax, %rdi
 1017 002a E8000000 		call	oid_sig_alg_from_asn1
 1017      00
 1018 002f 488945F0 		movq	%rax, -16(%rbp)
 1019 0033 48837DF0 		cmpq	$0, -16(%rbp)
 1019      00
 1020 0038 7507     		jne	.L46
 1021              		.loc 1 413 1 is_stmt 0 discriminator 1
 1022 003a B8D2FFFF 		movl	$-46, %eax
 1022      FF
 1023 003f EB14     		jmp	.L47
 1024              	.L46:
 1025              		.loc 1 413 1 discriminator 2
 1026 0041 488B45F0 		movq	-16(%rbp), %rax
 1027 0045 488B5018 		movq	24(%rax), %rdx
 1028 0049 488B45E0 		movq	-32(%rbp), %rax
 1029 004d 488910   		movq	%rdx, (%rax)
 1030 0050 B8000000 		movl	$0, %eax
 1030      00
 1031              	.L47:
 1032              		.loc 1 413 1
 1033 0055 488B4DF8 		movq	-8(%rbp), %rcx
 1034 0059 6448330C 		xorq	%fs:40, %rcx
 1034      25280000 
 1034      00
 1035 0062 7405     		je	.L48
 1036 0064 E8000000 		call	__stack_chk_fail@PLT
 1036      00
 1037              	.L48:
GAS LISTING /tmp/ccHf1ECV.s 			page 36


 1038 0069 C9       		leave
 1039              	.LCFI23:
 1040              		.cfi_def_cfa 7, 8
 1041 006a C3       		ret
 1042              		.cfi_endproc
 1043              	.LFE23:
 1045              		.section	.text.mbedtls_oid_get_sig_alg,"ax",@progbits
 1046              		.globl	mbedtls_oid_get_sig_alg
 1048              	mbedtls_oid_get_sig_alg:
 1049              	.LFB24:
 414:/home/xingli/share/LiteOS_Lab/network/dtls/mbedtls/mbedtls-2.16.2/library/oid.c **** FN_OID_GET_ATTR2(mbedtls_oid_get_sig_alg, oid_sig_alg_t, sig_alg, mbedtls_md_type_t, md_alg, mbedtl
 1050              		.loc 1 414 1 is_stmt 1
 1051              		.cfi_startproc
 1052 0000 F30F1EFA 		endbr64
 1053 0004 55       		pushq	%rbp
 1054              	.LCFI24:
 1055              		.cfi_def_cfa_offset 16
 1056              		.cfi_offset 6, -16
 1057 0005 4889E5   		movq	%rsp, %rbp
 1058              	.LCFI25:
 1059              		.cfi_def_cfa_register 6
 1060 0008 4883EC30 		subq	$48, %rsp
 1061 000c 48897DE8 		movq	%rdi, -24(%rbp)
 1062 0010 488975E0 		movq	%rsi, -32(%rbp)
 1063 0014 488955D8 		movq	%rdx, -40(%rbp)
 1064              		.loc 1 414 1
 1065 0018 64488B04 		movq	%fs:40, %rax
 1065      25280000 
 1065      00
 1066 0021 488945F8 		movq	%rax, -8(%rbp)
 1067 0025 31C0     		xorl	%eax, %eax
 1068 0027 488B45E8 		movq	-24(%rbp), %rax
 1069 002b 4889C7   		movq	%rax, %rdi
 1070 002e E8000000 		call	oid_sig_alg_from_asn1
 1070      00
 1071 0033 488945F0 		movq	%rax, -16(%rbp)
 1072 0037 48837DF0 		cmpq	$0, -16(%rbp)
 1072      00
 1073 003c 7507     		jne	.L50
 1074              		.loc 1 414 1 is_stmt 0 discriminator 1
 1075 003e B8D2FFFF 		movl	$-46, %eax
 1075      FF
 1076 0043 EB1F     		jmp	.L51
 1077              	.L50:
 1078              		.loc 1 414 1 discriminator 2
 1079 0045 488B45F0 		movq	-16(%rbp), %rax
 1080 0049 8B5020   		movl	32(%rax), %edx
 1081 004c 488B45E0 		movq	-32(%rbp), %rax
 1082 0050 8910     		movl	%edx, (%rax)
 1083 0052 488B45F0 		movq	-16(%rbp), %rax
 1084 0056 8B5024   		movl	36(%rax), %edx
 1085 0059 488B45D8 		movq	-40(%rbp), %rax
 1086 005d 8910     		movl	%edx, (%rax)
 1087 005f B8000000 		movl	$0, %eax
 1087      00
 1088              	.L51:
 1089              		.loc 1 414 1
GAS LISTING /tmp/ccHf1ECV.s 			page 37


 1090 0064 488B4DF8 		movq	-8(%rbp), %rcx
 1091 0068 6448330C 		xorq	%fs:40, %rcx
 1091      25280000 
 1091      00
 1092 0071 7405     		je	.L52
 1093 0073 E8000000 		call	__stack_chk_fail@PLT
 1093      00
 1094              	.L52:
 1095 0078 C9       		leave
 1096              	.LCFI26:
 1097              		.cfi_def_cfa 7, 8
 1098 0079 C3       		ret
 1099              		.cfi_endproc
 1100              	.LFE24:
 1102              		.section	.text.mbedtls_oid_get_oid_by_sig_alg,"ax",@progbits
 1103              		.globl	mbedtls_oid_get_oid_by_sig_alg
 1105              	mbedtls_oid_get_oid_by_sig_alg:
 1106              	.LFB25:
 415:/home/xingli/share/LiteOS_Lab/network/dtls/mbedtls/mbedtls-2.16.2/library/oid.c **** FN_OID_GET_OID_BY_ATTR2(mbedtls_oid_get_oid_by_sig_alg, oid_sig_alg_t, oid_sig_alg, mbedtls_pk_type
 1107              		.loc 1 415 1 is_stmt 1
 1108              		.cfi_startproc
 1109 0000 F30F1EFA 		endbr64
 1110 0004 55       		pushq	%rbp
 1111              	.LCFI27:
 1112              		.cfi_def_cfa_offset 16
 1113              		.cfi_offset 6, -16
 1114 0005 4889E5   		movq	%rsp, %rbp
 1115              	.LCFI28:
 1116              		.cfi_def_cfa_register 6
 1117 0008 4883EC30 		subq	$48, %rsp
 1118 000c 897DEC   		movl	%edi, -20(%rbp)
 1119 000f 8975E8   		movl	%esi, -24(%rbp)
 1120 0012 488955E0 		movq	%rdx, -32(%rbp)
 1121 0016 48894DD8 		movq	%rcx, -40(%rbp)
 1122              		.loc 1 415 1
 1123 001a 64488B04 		movq	%fs:40, %rax
 1123      25280000 
 1123      00
 1124 0023 488945F8 		movq	%rax, -8(%rbp)
 1125 0027 31C0     		xorl	%eax, %eax
 1126 0029 488D0500 		leaq	oid_sig_alg(%rip), %rax
 1126      000000
 1127 0030 488945F0 		movq	%rax, -16(%rbp)
 1128 0034 EB41     		jmp	.L54
 1129              	.L57:
 1130              		.loc 1 415 1 is_stmt 0 discriminator 7
 1131 0036 488B45F0 		movq	-16(%rbp), %rax
 1132 003a 8B4024   		movl	36(%rax), %eax
 1133 003d 3945EC   		cmpl	%eax, -20(%rbp)
 1134 0040 7530     		jne	.L55
 1135              		.loc 1 415 1 discriminator 2
 1136 0042 488B45F0 		movq	-16(%rbp), %rax
 1137 0046 8B4020   		movl	32(%rax), %eax
 1138 0049 3945E8   		cmpl	%eax, -24(%rbp)
 1139 004c 7524     		jne	.L55
 1140              		.loc 1 415 1 discriminator 4
 1141 004e 488B45F0 		movq	-16(%rbp), %rax
GAS LISTING /tmp/ccHf1ECV.s 			page 38


 1142 0052 488B10   		movq	(%rax), %rdx
 1143 0055 488B45E0 		movq	-32(%rbp), %rax
 1144 0059 488910   		movq	%rdx, (%rax)
 1145 005c 488B45F0 		movq	-16(%rbp), %rax
 1146 0060 488B5008 		movq	8(%rax), %rdx
 1147 0064 488B45D8 		movq	-40(%rbp), %rax
 1148 0068 488910   		movq	%rdx, (%rax)
 1149 006b B8000000 		movl	$0, %eax
 1149      00
 1150 0070 EB16     		jmp	.L56
 1151              	.L55:
 1152              		.loc 1 415 1 discriminator 5
 1153 0072 488345F0 		addq	$40, -16(%rbp)
 1153      28
 1154              	.L54:
 1155              		.loc 1 415 1 discriminator 6
 1156 0077 488B45F0 		movq	-16(%rbp), %rax
 1157 007b 488B00   		movq	(%rax), %rax
 1158 007e 4885C0   		testq	%rax, %rax
 1159 0081 75B3     		jne	.L57
 1160              		.loc 1 415 1 discriminator 8
 1161 0083 B8D2FFFF 		movl	$-46, %eax
 1161      FF
 1162              	.L56:
 1163              		.loc 1 415 1
 1164 0088 488B4DF8 		movq	-8(%rbp), %rcx
 1165 008c 6448330C 		xorq	%fs:40, %rcx
 1165      25280000 
 1165      00
 1166 0095 7405     		je	.L58
 1167 0097 E8000000 		call	__stack_chk_fail@PLT
 1167      00
 1168              	.L58:
 1169 009c C9       		leave
 1170              	.LCFI29:
 1171              		.cfi_def_cfa 7, 8
 1172 009d C3       		ret
 1173              		.cfi_endproc
 1174              	.LFE25:
 1176              		.section	.rodata
 1177              	.LC129:
 1178 064c 2A864886 		.string	"*\206H\206\367\r\001\001\001"
 1178      F70D0101 
 1178      0100
 1179              	.LC130:
 1180 0656 72736145 		.string	"rsaEncryption"
 1180      6E637279 
 1180      7074696F 
 1180      6E00
 1181              	.LC131:
 1182 0664 52534100 		.string	"RSA"
 1183              	.LC132:
 1184 0668 2A8648CE 		.string	"*\206H\316=\002\001"
 1184      3D020100 
 1185              	.LC133:
 1186 0670 69642D65 		.string	"id-ecPublicKey"
 1186      63507562 
GAS LISTING /tmp/ccHf1ECV.s 			page 39


 1186      6C69634B 
 1186      657900
 1187              	.LC134:
 1188 067f 47656E65 		.string	"Generic EC key"
 1188      72696320 
 1188      4543206B 
 1188      657900
 1189              	.LC135:
 1190 068e 2B810401 		.string	"+\201\004\001\f"
 1190      0C00
 1191              	.LC136:
 1192 0694 69642D65 		.string	"id-ecDH"
 1192      63444800 
 1193              	.LC137:
 1194 069c 4543206B 		.string	"EC key for ECDH"
 1194      65792066 
 1194      6F722045 
 1194      43444800 
 1195              		.section	.data.rel.ro.local.oid_pk_alg,"aw"
 1196              		.align 32
 1199              	oid_pk_alg:
 1200 0000 00000000 		.quad	.LC129
 1200      00000000 
 1201 0008 09000000 		.quad	9
 1201      00000000 
 1202 0010 00000000 		.quad	.LC130
 1202      00000000 
 1203 0018 00000000 		.quad	.LC131
 1203      00000000 
 1204 0020 01000000 		.long	1
 1205 0024 00000000 		.zero	4
 1206 0028 00000000 		.quad	.LC132
 1206      00000000 
 1207 0030 07000000 		.quad	7
 1207      00000000 
 1208 0038 00000000 		.quad	.LC133
 1208      00000000 
 1209 0040 00000000 		.quad	.LC134
 1209      00000000 
 1210 0048 02000000 		.long	2
 1211 004c 00000000 		.zero	4
 1212 0050 00000000 		.quad	.LC135
 1212      00000000 
 1213 0058 05000000 		.quad	5
 1213      00000000 
 1214 0060 00000000 		.quad	.LC136
 1214      00000000 
 1215 0068 00000000 		.quad	.LC137
 1215      00000000 
 1216 0070 03000000 		.long	3
 1217 0074 00000000 		.zero	4
 1218 0078 00000000 		.quad	0
 1218      00000000 
 1219 0080 00000000 		.quad	0
 1219      00000000 
 1220 0088 00000000 		.quad	0
 1220      00000000 
GAS LISTING /tmp/ccHf1ECV.s 			page 40


 1221 0090 00000000 		.quad	0
 1221      00000000 
 1222 0098 00000000 		.long	0
 1223 009c 00000000 		.zero	4
 1224              		.section	.text.oid_pk_alg_from_asn1,"ax",@progbits
 1226              	oid_pk_alg_from_asn1:
 1227              	.LFB26:
 416:/home/xingli/share/LiteOS_Lab/network/dtls/mbedtls/mbedtls-2.16.2/library/oid.c **** #endif /* MBEDTLS_MD_C */
 417:/home/xingli/share/LiteOS_Lab/network/dtls/mbedtls/mbedtls-2.16.2/library/oid.c **** 
 418:/home/xingli/share/LiteOS_Lab/network/dtls/mbedtls/mbedtls-2.16.2/library/oid.c **** /*
 419:/home/xingli/share/LiteOS_Lab/network/dtls/mbedtls/mbedtls-2.16.2/library/oid.c ****  * For PublicKeyInfo (PKCS1, RFC 5480)
 420:/home/xingli/share/LiteOS_Lab/network/dtls/mbedtls/mbedtls-2.16.2/library/oid.c ****  */
 421:/home/xingli/share/LiteOS_Lab/network/dtls/mbedtls/mbedtls-2.16.2/library/oid.c **** typedef struct {
 422:/home/xingli/share/LiteOS_Lab/network/dtls/mbedtls/mbedtls-2.16.2/library/oid.c ****     mbedtls_oid_descriptor_t    descriptor;
 423:/home/xingli/share/LiteOS_Lab/network/dtls/mbedtls/mbedtls-2.16.2/library/oid.c ****     mbedtls_pk_type_t           pk_alg;
 424:/home/xingli/share/LiteOS_Lab/network/dtls/mbedtls/mbedtls-2.16.2/library/oid.c **** } oid_pk_alg_t;
 425:/home/xingli/share/LiteOS_Lab/network/dtls/mbedtls/mbedtls-2.16.2/library/oid.c **** 
 426:/home/xingli/share/LiteOS_Lab/network/dtls/mbedtls/mbedtls-2.16.2/library/oid.c **** static const oid_pk_alg_t oid_pk_alg[] =
 427:/home/xingli/share/LiteOS_Lab/network/dtls/mbedtls/mbedtls-2.16.2/library/oid.c **** {
 428:/home/xingli/share/LiteOS_Lab/network/dtls/mbedtls/mbedtls-2.16.2/library/oid.c ****     {
 429:/home/xingli/share/LiteOS_Lab/network/dtls/mbedtls/mbedtls-2.16.2/library/oid.c ****         { ADD_LEN( MBEDTLS_OID_PKCS1_RSA ),      "rsaEncryption",   "RSA" },
 430:/home/xingli/share/LiteOS_Lab/network/dtls/mbedtls/mbedtls-2.16.2/library/oid.c ****         MBEDTLS_PK_RSA,
 431:/home/xingli/share/LiteOS_Lab/network/dtls/mbedtls/mbedtls-2.16.2/library/oid.c ****     },
 432:/home/xingli/share/LiteOS_Lab/network/dtls/mbedtls/mbedtls-2.16.2/library/oid.c ****     {
 433:/home/xingli/share/LiteOS_Lab/network/dtls/mbedtls/mbedtls-2.16.2/library/oid.c ****         { ADD_LEN( MBEDTLS_OID_EC_ALG_UNRESTRICTED ),  "id-ecPublicKey",   "Generic EC key" },
 434:/home/xingli/share/LiteOS_Lab/network/dtls/mbedtls/mbedtls-2.16.2/library/oid.c ****         MBEDTLS_PK_ECKEY,
 435:/home/xingli/share/LiteOS_Lab/network/dtls/mbedtls/mbedtls-2.16.2/library/oid.c ****     },
 436:/home/xingli/share/LiteOS_Lab/network/dtls/mbedtls/mbedtls-2.16.2/library/oid.c ****     {
 437:/home/xingli/share/LiteOS_Lab/network/dtls/mbedtls/mbedtls-2.16.2/library/oid.c ****         { ADD_LEN( MBEDTLS_OID_EC_ALG_ECDH ),          "id-ecDH",          "EC key for ECDH" },
 438:/home/xingli/share/LiteOS_Lab/network/dtls/mbedtls/mbedtls-2.16.2/library/oid.c ****         MBEDTLS_PK_ECKEY_DH,
 439:/home/xingli/share/LiteOS_Lab/network/dtls/mbedtls/mbedtls-2.16.2/library/oid.c ****     },
 440:/home/xingli/share/LiteOS_Lab/network/dtls/mbedtls/mbedtls-2.16.2/library/oid.c ****     {
 441:/home/xingli/share/LiteOS_Lab/network/dtls/mbedtls/mbedtls-2.16.2/library/oid.c ****         { NULL, 0, NULL, NULL },
 442:/home/xingli/share/LiteOS_Lab/network/dtls/mbedtls/mbedtls-2.16.2/library/oid.c ****         MBEDTLS_PK_NONE,
 443:/home/xingli/share/LiteOS_Lab/network/dtls/mbedtls/mbedtls-2.16.2/library/oid.c ****     },
 444:/home/xingli/share/LiteOS_Lab/network/dtls/mbedtls/mbedtls-2.16.2/library/oid.c **** };
 445:/home/xingli/share/LiteOS_Lab/network/dtls/mbedtls/mbedtls-2.16.2/library/oid.c **** 
 446:/home/xingli/share/LiteOS_Lab/network/dtls/mbedtls/mbedtls-2.16.2/library/oid.c **** FN_OID_TYPED_FROM_ASN1(oid_pk_alg_t, pk_alg, oid_pk_alg)
 1228              		.loc 1 446 1 is_stmt 1
 1229              		.cfi_startproc
 1230 0000 F30F1EFA 		endbr64
 1231 0004 55       		pushq	%rbp
 1232              	.LCFI30:
 1233              		.cfi_def_cfa_offset 16
 1234              		.cfi_offset 6, -16
 1235 0005 4889E5   		movq	%rsp, %rbp
 1236              	.LCFI31:
 1237              		.cfi_def_cfa_register 6
 1238 0008 4883EC30 		subq	$48, %rsp
 1239 000c 48897DD8 		movq	%rdi, -40(%rbp)
 1240              		.loc 1 446 1
 1241 0010 64488B04 		movq	%fs:40, %rax
 1241      25280000 
 1241      00
 1242 0019 488945F8 		movq	%rax, -8(%rbp)
 1243 001d 31C0     		xorl	%eax, %eax
 1244 001f 488D0500 		leaq	oid_pk_alg(%rip), %rax
GAS LISTING /tmp/ccHf1ECV.s 			page 41


 1244      000000
 1245 0026 488945E8 		movq	%rax, -24(%rbp)
 1246 002a 488B45E8 		movq	-24(%rbp), %rax
 1247 002e 488945F0 		movq	%rax, -16(%rbp)
 1248 0032 48837DE8 		cmpq	$0, -24(%rbp)
 1248      00
 1249 0037 7407     		je	.L60
 1250              		.loc 1 446 1 is_stmt 0 discriminator 2
 1251 0039 48837DD8 		cmpq	$0, -40(%rbp)
 1251      00
 1252 003e 7555     		jne	.L63
 1253              	.L60:
 1254              		.loc 1 446 1 discriminator 3
 1255 0040 B8000000 		movl	$0, %eax
 1255      00
 1256 0045 EB5F     		jmp	.L62
 1257              	.L65:
 1258              		.loc 1 446 1 discriminator 9
 1259 0047 488B45F0 		movq	-16(%rbp), %rax
 1260 004b 488B5008 		movq	8(%rax), %rdx
 1261 004f 488B45D8 		movq	-40(%rbp), %rax
 1262 0053 488B4008 		movq	8(%rax), %rax
 1263 0057 4839C2   		cmpq	%rax, %rdx
 1264 005a 752C     		jne	.L64
 1265              		.loc 1 446 1 discriminator 4
 1266 005c 488B45D8 		movq	-40(%rbp), %rax
 1267 0060 488B5008 		movq	8(%rax), %rdx
 1268 0064 488B45D8 		movq	-40(%rbp), %rax
 1269 0068 488B4810 		movq	16(%rax), %rcx
 1270 006c 488B45F0 		movq	-16(%rbp), %rax
 1271 0070 488B00   		movq	(%rax), %rax
 1272 0073 4889CE   		movq	%rcx, %rsi
 1273 0076 4889C7   		movq	%rax, %rdi
 1274 0079 E8000000 		call	memcmp@PLT
 1274      00
 1275 007e 85C0     		testl	%eax, %eax
 1276 0080 7506     		jne	.L64
 1277              		.loc 1 446 1 discriminator 6
 1278 0082 488B45E8 		movq	-24(%rbp), %rax
 1279 0086 EB1E     		jmp	.L62
 1280              	.L64:
 1281              		.loc 1 446 1 discriminator 7
 1282 0088 488345E8 		addq	$40, -24(%rbp)
 1282      28
 1283 008d 488B45E8 		movq	-24(%rbp), %rax
 1284 0091 488945F0 		movq	%rax, -16(%rbp)
 1285              	.L63:
 1286              		.loc 1 446 1 discriminator 8
 1287 0095 488B45F0 		movq	-16(%rbp), %rax
 1288 0099 488B00   		movq	(%rax), %rax
 1289 009c 4885C0   		testq	%rax, %rax
 1290 009f 75A6     		jne	.L65
 1291              		.loc 1 446 1 discriminator 10
 1292 00a1 B8000000 		movl	$0, %eax
 1292      00
 1293              	.L62:
 1294              		.loc 1 446 1
GAS LISTING /tmp/ccHf1ECV.s 			page 42


 1295 00a6 488B75F8 		movq	-8(%rbp), %rsi
 1296 00aa 64483334 		xorq	%fs:40, %rsi
 1296      25280000 
 1296      00
 1297 00b3 7405     		je	.L66
 1298 00b5 E8000000 		call	__stack_chk_fail@PLT
 1298      00
 1299              	.L66:
 1300 00ba C9       		leave
 1301              	.LCFI32:
 1302              		.cfi_def_cfa 7, 8
 1303 00bb C3       		ret
 1304              		.cfi_endproc
 1305              	.LFE26:
 1307              		.section	.text.mbedtls_oid_get_pk_alg,"ax",@progbits
 1308              		.globl	mbedtls_oid_get_pk_alg
 1310              	mbedtls_oid_get_pk_alg:
 1311              	.LFB27:
 447:/home/xingli/share/LiteOS_Lab/network/dtls/mbedtls/mbedtls-2.16.2/library/oid.c **** FN_OID_GET_ATTR1(mbedtls_oid_get_pk_alg, oid_pk_alg_t, pk_alg, mbedtls_pk_type_t, pk_alg)
 1312              		.loc 1 447 1 is_stmt 1
 1313              		.cfi_startproc
 1314 0000 F30F1EFA 		endbr64
 1315 0004 55       		pushq	%rbp
 1316              	.LCFI33:
 1317              		.cfi_def_cfa_offset 16
 1318              		.cfi_offset 6, -16
 1319 0005 4889E5   		movq	%rsp, %rbp
 1320              	.LCFI34:
 1321              		.cfi_def_cfa_register 6
 1322 0008 4883EC20 		subq	$32, %rsp
 1323 000c 48897DE8 		movq	%rdi, -24(%rbp)
 1324 0010 488975E0 		movq	%rsi, -32(%rbp)
 1325              		.loc 1 447 1
 1326 0014 64488B04 		movq	%fs:40, %rax
 1326      25280000 
 1326      00
 1327 001d 488945F8 		movq	%rax, -8(%rbp)
 1328 0021 31C0     		xorl	%eax, %eax
 1329 0023 488B45E8 		movq	-24(%rbp), %rax
 1330 0027 4889C7   		movq	%rax, %rdi
 1331 002a E8000000 		call	oid_pk_alg_from_asn1
 1331      00
 1332 002f 488945F0 		movq	%rax, -16(%rbp)
 1333 0033 48837DF0 		cmpq	$0, -16(%rbp)
 1333      00
 1334 0038 7507     		jne	.L68
 1335              		.loc 1 447 1 is_stmt 0 discriminator 1
 1336 003a B8D2FFFF 		movl	$-46, %eax
 1336      FF
 1337 003f EB12     		jmp	.L69
 1338              	.L68:
 1339              		.loc 1 447 1 discriminator 2
 1340 0041 488B45F0 		movq	-16(%rbp), %rax
 1341 0045 8B5020   		movl	32(%rax), %edx
 1342 0048 488B45E0 		movq	-32(%rbp), %rax
 1343 004c 8910     		movl	%edx, (%rax)
 1344 004e B8000000 		movl	$0, %eax
GAS LISTING /tmp/ccHf1ECV.s 			page 43


 1344      00
 1345              	.L69:
 1346              		.loc 1 447 1
 1347 0053 488B4DF8 		movq	-8(%rbp), %rcx
 1348 0057 6448330C 		xorq	%fs:40, %rcx
 1348      25280000 
 1348      00
 1349 0060 7405     		je	.L70
 1350 0062 E8000000 		call	__stack_chk_fail@PLT
 1350      00
 1351              	.L70:
 1352 0067 C9       		leave
 1353              	.LCFI35:
 1354              		.cfi_def_cfa 7, 8
 1355 0068 C3       		ret
 1356              		.cfi_endproc
 1357              	.LFE27:
 1359              		.section	.text.mbedtls_oid_get_oid_by_pk_alg,"ax",@progbits
 1360              		.globl	mbedtls_oid_get_oid_by_pk_alg
 1362              	mbedtls_oid_get_oid_by_pk_alg:
 1363              	.LFB28:
 448:/home/xingli/share/LiteOS_Lab/network/dtls/mbedtls/mbedtls-2.16.2/library/oid.c **** FN_OID_GET_OID_BY_ATTR1(mbedtls_oid_get_oid_by_pk_alg, oid_pk_alg_t, oid_pk_alg, mbedtls_pk_type_t,
 1364              		.loc 1 448 1 is_stmt 1
 1365              		.cfi_startproc
 1366 0000 F30F1EFA 		endbr64
 1367 0004 55       		pushq	%rbp
 1368              	.LCFI36:
 1369              		.cfi_def_cfa_offset 16
 1370              		.cfi_offset 6, -16
 1371 0005 4889E5   		movq	%rsp, %rbp
 1372              	.LCFI37:
 1373              		.cfi_def_cfa_register 6
 1374 0008 4883EC30 		subq	$48, %rsp
 1375 000c 897DEC   		movl	%edi, -20(%rbp)
 1376 000f 488975E0 		movq	%rsi, -32(%rbp)
 1377 0013 488955D8 		movq	%rdx, -40(%rbp)
 1378              		.loc 1 448 1
 1379 0017 64488B04 		movq	%fs:40, %rax
 1379      25280000 
 1379      00
 1380 0020 488945F8 		movq	%rax, -8(%rbp)
 1381 0024 31C0     		xorl	%eax, %eax
 1382 0026 488D0500 		leaq	oid_pk_alg(%rip), %rax
 1382      000000
 1383 002d 488945F0 		movq	%rax, -16(%rbp)
 1384 0031 EB35     		jmp	.L72
 1385              	.L75:
 1386              		.loc 1 448 1 is_stmt 0 discriminator 5
 1387 0033 488B45F0 		movq	-16(%rbp), %rax
 1388 0037 8B4020   		movl	32(%rax), %eax
 1389 003a 3945EC   		cmpl	%eax, -20(%rbp)
 1390 003d 7524     		jne	.L73
 1391              		.loc 1 448 1 discriminator 2
 1392 003f 488B45F0 		movq	-16(%rbp), %rax
 1393 0043 488B10   		movq	(%rax), %rdx
 1394 0046 488B45E0 		movq	-32(%rbp), %rax
 1395 004a 488910   		movq	%rdx, (%rax)
GAS LISTING /tmp/ccHf1ECV.s 			page 44


 1396 004d 488B45F0 		movq	-16(%rbp), %rax
 1397 0051 488B5008 		movq	8(%rax), %rdx
 1398 0055 488B45D8 		movq	-40(%rbp), %rax
 1399 0059 488910   		movq	%rdx, (%rax)
 1400 005c B8000000 		movl	$0, %eax
 1400      00
 1401 0061 EB16     		jmp	.L74
 1402              	.L73:
 1403              		.loc 1 448 1 discriminator 3
 1404 0063 488345F0 		addq	$40, -16(%rbp)
 1404      28
 1405              	.L72:
 1406              		.loc 1 448 1 discriminator 4
 1407 0068 488B45F0 		movq	-16(%rbp), %rax
 1408 006c 488B00   		movq	(%rax), %rax
 1409 006f 4885C0   		testq	%rax, %rax
 1410 0072 75BF     		jne	.L75
 1411              		.loc 1 448 1 discriminator 6
 1412 0074 B8D2FFFF 		movl	$-46, %eax
 1412      FF
 1413              	.L74:
 1414              		.loc 1 448 1
 1415 0079 488B4DF8 		movq	-8(%rbp), %rcx
 1416 007d 6448330C 		xorq	%fs:40, %rcx
 1416      25280000 
 1416      00
 1417 0086 7405     		je	.L76
 1418 0088 E8000000 		call	__stack_chk_fail@PLT
 1418      00
 1419              	.L76:
 1420 008d C9       		leave
 1421              	.LCFI38:
 1422              		.cfi_def_cfa 7, 8
 1423 008e C3       		ret
 1424              		.cfi_endproc
 1425              	.LFE28:
 1427              		.section	.rodata
 1428              	.LC138:
 1429 06ac 2A8648CE 		.string	"*\206H\316=\003\001\001"
 1429      3D030101 
 1429      00
 1430              	.LC139:
 1431 06b5 73656370 		.string	"secp192r1"
 1431      31393272 
 1431      3100
 1432              	.LC140:
 1433 06bf 2B810400 		.string	"+\201\004"
 1434 06c3 2100     		.string	"!"
 1435              	.LC141:
 1436 06c5 73656370 		.string	"secp224r1"
 1436      32323472 
 1436      3100
 1437              	.LC142:
 1438 06cf 2A8648CE 		.string	"*\206H\316=\003\001\007"
 1438      3D030107 
 1438      00
 1439              	.LC143:
GAS LISTING /tmp/ccHf1ECV.s 			page 45


 1440 06d8 73656370 		.string	"secp256r1"
 1440      32353672 
 1440      3100
 1441              	.LC144:
 1442 06e2 2B810400 		.string	"+\201\004"
 1443 06e6 2200     		.string	"\""
 1444              	.LC145:
 1445 06e8 73656370 		.string	"secp384r1"
 1445      33383472 
 1445      3100
 1446              	.LC146:
 1447 06f2 2B810400 		.string	"+\201\004"
 1448 06f6 2300     		.string	"#"
 1449              	.LC147:
 1450 06f8 73656370 		.string	"secp521r1"
 1450      35323172 
 1450      3100
 1451              	.LC148:
 1452 0702 2B810400 		.string	"+\201\004"
 1453 0706 1F00     		.string	"\037"
 1454              	.LC149:
 1455 0708 73656370 		.string	"secp192k1"
 1455      3139326B 
 1455      3100
 1456              	.LC150:
 1457 0712 2B810400 		.string	"+\201\004"
 1458 0716 2000     		.string	" "
 1459              	.LC151:
 1460 0718 73656370 		.string	"secp224k1"
 1460      3232346B 
 1460      3100
 1461              	.LC152:
 1462 0722 2B810400 		.string	"+\201\004"
 1463 0726 0A00     		.string	"\n"
 1464              	.LC153:
 1465 0728 73656370 		.string	"secp256k1"
 1465      3235366B 
 1465      3100
 1466              		.section	.data.rel.ro.local.oid_ecp_grp,"aw"
 1467              		.align 32
 1470              	oid_ecp_grp:
 1471 0000 00000000 		.quad	.LC138
 1471      00000000 
 1472 0008 08000000 		.quad	8
 1472      00000000 
 1473 0010 00000000 		.quad	.LC139
 1473      00000000 
 1474 0018 00000000 		.quad	.LC139
 1474      00000000 
 1475 0020 01000000 		.long	1
 1476 0024 00000000 		.zero	4
 1477 0028 00000000 		.quad	.LC140
 1477      00000000 
 1478 0030 05000000 		.quad	5
 1478      00000000 
 1479 0038 00000000 		.quad	.LC141
 1479      00000000 
GAS LISTING /tmp/ccHf1ECV.s 			page 46


 1480 0040 00000000 		.quad	.LC141
 1480      00000000 
 1481 0048 02000000 		.long	2
 1482 004c 00000000 		.zero	4
 1483 0050 00000000 		.quad	.LC142
 1483      00000000 
 1484 0058 08000000 		.quad	8
 1484      00000000 
 1485 0060 00000000 		.quad	.LC143
 1485      00000000 
 1486 0068 00000000 		.quad	.LC143
 1486      00000000 
 1487 0070 03000000 		.long	3
 1488 0074 00000000 		.zero	4
 1489 0078 00000000 		.quad	.LC144
 1489      00000000 
 1490 0080 05000000 		.quad	5
 1490      00000000 
 1491 0088 00000000 		.quad	.LC145
 1491      00000000 
 1492 0090 00000000 		.quad	.LC145
 1492      00000000 
 1493 0098 04000000 		.long	4
 1494 009c 00000000 		.zero	4
 1495 00a0 00000000 		.quad	.LC146
 1495      00000000 
 1496 00a8 05000000 		.quad	5
 1496      00000000 
 1497 00b0 00000000 		.quad	.LC147
 1497      00000000 
 1498 00b8 00000000 		.quad	.LC147
 1498      00000000 
 1499 00c0 05000000 		.long	5
 1500 00c4 00000000 		.zero	4
 1501 00c8 00000000 		.quad	.LC148
 1501      00000000 
 1502 00d0 05000000 		.quad	5
 1502      00000000 
 1503 00d8 00000000 		.quad	.LC149
 1503      00000000 
 1504 00e0 00000000 		.quad	.LC149
 1504      00000000 
 1505 00e8 0A000000 		.long	10
 1506 00ec 00000000 		.zero	4
 1507 00f0 00000000 		.quad	.LC150
 1507      00000000 
 1508 00f8 05000000 		.quad	5
 1508      00000000 
 1509 0100 00000000 		.quad	.LC151
 1509      00000000 
 1510 0108 00000000 		.quad	.LC151
 1510      00000000 
 1511 0110 0B000000 		.long	11
 1512 0114 00000000 		.zero	4
 1513 0118 00000000 		.quad	.LC152
 1513      00000000 
 1514 0120 05000000 		.quad	5
GAS LISTING /tmp/ccHf1ECV.s 			page 47


 1514      00000000 
 1515 0128 00000000 		.quad	.LC153
 1515      00000000 
 1516 0130 00000000 		.quad	.LC153
 1516      00000000 
 1517 0138 0C000000 		.long	12
 1518 013c 00000000 		.zero	4
 1519 0140 00000000 		.quad	0
 1519      00000000 
 1520 0148 00000000 		.quad	0
 1520      00000000 
 1521 0150 00000000 		.quad	0
 1521      00000000 
 1522 0158 00000000 		.quad	0
 1522      00000000 
 1523 0160 00000000 		.long	0
 1524 0164 00000000 		.zero	4
 1525              		.section	.text.oid_grp_id_from_asn1,"ax",@progbits
 1527              	oid_grp_id_from_asn1:
 1528              	.LFB29:
 449:/home/xingli/share/LiteOS_Lab/network/dtls/mbedtls/mbedtls-2.16.2/library/oid.c **** 
 450:/home/xingli/share/LiteOS_Lab/network/dtls/mbedtls/mbedtls-2.16.2/library/oid.c **** #if defined(MBEDTLS_ECP_C)
 451:/home/xingli/share/LiteOS_Lab/network/dtls/mbedtls/mbedtls-2.16.2/library/oid.c **** /*
 452:/home/xingli/share/LiteOS_Lab/network/dtls/mbedtls/mbedtls-2.16.2/library/oid.c ****  * For namedCurve (RFC 5480)
 453:/home/xingli/share/LiteOS_Lab/network/dtls/mbedtls/mbedtls-2.16.2/library/oid.c ****  */
 454:/home/xingli/share/LiteOS_Lab/network/dtls/mbedtls/mbedtls-2.16.2/library/oid.c **** typedef struct {
 455:/home/xingli/share/LiteOS_Lab/network/dtls/mbedtls/mbedtls-2.16.2/library/oid.c ****     mbedtls_oid_descriptor_t    descriptor;
 456:/home/xingli/share/LiteOS_Lab/network/dtls/mbedtls/mbedtls-2.16.2/library/oid.c ****     mbedtls_ecp_group_id        grp_id;
 457:/home/xingli/share/LiteOS_Lab/network/dtls/mbedtls/mbedtls-2.16.2/library/oid.c **** } oid_ecp_grp_t;
 458:/home/xingli/share/LiteOS_Lab/network/dtls/mbedtls/mbedtls-2.16.2/library/oid.c **** 
 459:/home/xingli/share/LiteOS_Lab/network/dtls/mbedtls/mbedtls-2.16.2/library/oid.c **** static const oid_ecp_grp_t oid_ecp_grp[] =
 460:/home/xingli/share/LiteOS_Lab/network/dtls/mbedtls/mbedtls-2.16.2/library/oid.c **** {
 461:/home/xingli/share/LiteOS_Lab/network/dtls/mbedtls/mbedtls-2.16.2/library/oid.c **** #if defined(MBEDTLS_ECP_DP_SECP192R1_ENABLED)
 462:/home/xingli/share/LiteOS_Lab/network/dtls/mbedtls/mbedtls-2.16.2/library/oid.c ****     {
 463:/home/xingli/share/LiteOS_Lab/network/dtls/mbedtls/mbedtls-2.16.2/library/oid.c ****         { ADD_LEN( MBEDTLS_OID_EC_GRP_SECP192R1 ), "secp192r1",    "secp192r1" },
 464:/home/xingli/share/LiteOS_Lab/network/dtls/mbedtls/mbedtls-2.16.2/library/oid.c ****         MBEDTLS_ECP_DP_SECP192R1,
 465:/home/xingli/share/LiteOS_Lab/network/dtls/mbedtls/mbedtls-2.16.2/library/oid.c ****     },
 466:/home/xingli/share/LiteOS_Lab/network/dtls/mbedtls/mbedtls-2.16.2/library/oid.c **** #endif /* MBEDTLS_ECP_DP_SECP192R1_ENABLED */
 467:/home/xingli/share/LiteOS_Lab/network/dtls/mbedtls/mbedtls-2.16.2/library/oid.c **** #if defined(MBEDTLS_ECP_DP_SECP224R1_ENABLED)
 468:/home/xingli/share/LiteOS_Lab/network/dtls/mbedtls/mbedtls-2.16.2/library/oid.c ****     {
 469:/home/xingli/share/LiteOS_Lab/network/dtls/mbedtls/mbedtls-2.16.2/library/oid.c ****         { ADD_LEN( MBEDTLS_OID_EC_GRP_SECP224R1 ), "secp224r1",    "secp224r1" },
 470:/home/xingli/share/LiteOS_Lab/network/dtls/mbedtls/mbedtls-2.16.2/library/oid.c ****         MBEDTLS_ECP_DP_SECP224R1,
 471:/home/xingli/share/LiteOS_Lab/network/dtls/mbedtls/mbedtls-2.16.2/library/oid.c ****     },
 472:/home/xingli/share/LiteOS_Lab/network/dtls/mbedtls/mbedtls-2.16.2/library/oid.c **** #endif /* MBEDTLS_ECP_DP_SECP224R1_ENABLED */
 473:/home/xingli/share/LiteOS_Lab/network/dtls/mbedtls/mbedtls-2.16.2/library/oid.c **** #if defined(MBEDTLS_ECP_DP_SECP256R1_ENABLED)
 474:/home/xingli/share/LiteOS_Lab/network/dtls/mbedtls/mbedtls-2.16.2/library/oid.c ****     {
 475:/home/xingli/share/LiteOS_Lab/network/dtls/mbedtls/mbedtls-2.16.2/library/oid.c ****         { ADD_LEN( MBEDTLS_OID_EC_GRP_SECP256R1 ), "secp256r1",    "secp256r1" },
 476:/home/xingli/share/LiteOS_Lab/network/dtls/mbedtls/mbedtls-2.16.2/library/oid.c ****         MBEDTLS_ECP_DP_SECP256R1,
 477:/home/xingli/share/LiteOS_Lab/network/dtls/mbedtls/mbedtls-2.16.2/library/oid.c ****     },
 478:/home/xingli/share/LiteOS_Lab/network/dtls/mbedtls/mbedtls-2.16.2/library/oid.c **** #endif /* MBEDTLS_ECP_DP_SECP256R1_ENABLED */
 479:/home/xingli/share/LiteOS_Lab/network/dtls/mbedtls/mbedtls-2.16.2/library/oid.c **** #if defined(MBEDTLS_ECP_DP_SECP384R1_ENABLED)
 480:/home/xingli/share/LiteOS_Lab/network/dtls/mbedtls/mbedtls-2.16.2/library/oid.c ****     {
 481:/home/xingli/share/LiteOS_Lab/network/dtls/mbedtls/mbedtls-2.16.2/library/oid.c ****         { ADD_LEN( MBEDTLS_OID_EC_GRP_SECP384R1 ), "secp384r1",    "secp384r1" },
 482:/home/xingli/share/LiteOS_Lab/network/dtls/mbedtls/mbedtls-2.16.2/library/oid.c ****         MBEDTLS_ECP_DP_SECP384R1,
 483:/home/xingli/share/LiteOS_Lab/network/dtls/mbedtls/mbedtls-2.16.2/library/oid.c ****     },
 484:/home/xingli/share/LiteOS_Lab/network/dtls/mbedtls/mbedtls-2.16.2/library/oid.c **** #endif /* MBEDTLS_ECP_DP_SECP384R1_ENABLED */
 485:/home/xingli/share/LiteOS_Lab/network/dtls/mbedtls/mbedtls-2.16.2/library/oid.c **** #if defined(MBEDTLS_ECP_DP_SECP521R1_ENABLED)
GAS LISTING /tmp/ccHf1ECV.s 			page 48


 486:/home/xingli/share/LiteOS_Lab/network/dtls/mbedtls/mbedtls-2.16.2/library/oid.c ****     {
 487:/home/xingli/share/LiteOS_Lab/network/dtls/mbedtls/mbedtls-2.16.2/library/oid.c ****         { ADD_LEN( MBEDTLS_OID_EC_GRP_SECP521R1 ), "secp521r1",    "secp521r1" },
 488:/home/xingli/share/LiteOS_Lab/network/dtls/mbedtls/mbedtls-2.16.2/library/oid.c ****         MBEDTLS_ECP_DP_SECP521R1,
 489:/home/xingli/share/LiteOS_Lab/network/dtls/mbedtls/mbedtls-2.16.2/library/oid.c ****     },
 490:/home/xingli/share/LiteOS_Lab/network/dtls/mbedtls/mbedtls-2.16.2/library/oid.c **** #endif /* MBEDTLS_ECP_DP_SECP521R1_ENABLED */
 491:/home/xingli/share/LiteOS_Lab/network/dtls/mbedtls/mbedtls-2.16.2/library/oid.c **** #if defined(MBEDTLS_ECP_DP_SECP192K1_ENABLED)
 492:/home/xingli/share/LiteOS_Lab/network/dtls/mbedtls/mbedtls-2.16.2/library/oid.c ****     {
 493:/home/xingli/share/LiteOS_Lab/network/dtls/mbedtls/mbedtls-2.16.2/library/oid.c ****         { ADD_LEN( MBEDTLS_OID_EC_GRP_SECP192K1 ), "secp192k1",    "secp192k1" },
 494:/home/xingli/share/LiteOS_Lab/network/dtls/mbedtls/mbedtls-2.16.2/library/oid.c ****         MBEDTLS_ECP_DP_SECP192K1,
 495:/home/xingli/share/LiteOS_Lab/network/dtls/mbedtls/mbedtls-2.16.2/library/oid.c ****     },
 496:/home/xingli/share/LiteOS_Lab/network/dtls/mbedtls/mbedtls-2.16.2/library/oid.c **** #endif /* MBEDTLS_ECP_DP_SECP192K1_ENABLED */
 497:/home/xingli/share/LiteOS_Lab/network/dtls/mbedtls/mbedtls-2.16.2/library/oid.c **** #if defined(MBEDTLS_ECP_DP_SECP224K1_ENABLED)
 498:/home/xingli/share/LiteOS_Lab/network/dtls/mbedtls/mbedtls-2.16.2/library/oid.c ****     {
 499:/home/xingli/share/LiteOS_Lab/network/dtls/mbedtls/mbedtls-2.16.2/library/oid.c ****         { ADD_LEN( MBEDTLS_OID_EC_GRP_SECP224K1 ), "secp224k1",    "secp224k1" },
 500:/home/xingli/share/LiteOS_Lab/network/dtls/mbedtls/mbedtls-2.16.2/library/oid.c ****         MBEDTLS_ECP_DP_SECP224K1,
 501:/home/xingli/share/LiteOS_Lab/network/dtls/mbedtls/mbedtls-2.16.2/library/oid.c ****     },
 502:/home/xingli/share/LiteOS_Lab/network/dtls/mbedtls/mbedtls-2.16.2/library/oid.c **** #endif /* MBEDTLS_ECP_DP_SECP224K1_ENABLED */
 503:/home/xingli/share/LiteOS_Lab/network/dtls/mbedtls/mbedtls-2.16.2/library/oid.c **** #if defined(MBEDTLS_ECP_DP_SECP256K1_ENABLED)
 504:/home/xingli/share/LiteOS_Lab/network/dtls/mbedtls/mbedtls-2.16.2/library/oid.c ****     {
 505:/home/xingli/share/LiteOS_Lab/network/dtls/mbedtls/mbedtls-2.16.2/library/oid.c ****         { ADD_LEN( MBEDTLS_OID_EC_GRP_SECP256K1 ), "secp256k1",    "secp256k1" },
 506:/home/xingli/share/LiteOS_Lab/network/dtls/mbedtls/mbedtls-2.16.2/library/oid.c ****         MBEDTLS_ECP_DP_SECP256K1,
 507:/home/xingli/share/LiteOS_Lab/network/dtls/mbedtls/mbedtls-2.16.2/library/oid.c ****     },
 508:/home/xingli/share/LiteOS_Lab/network/dtls/mbedtls/mbedtls-2.16.2/library/oid.c **** #endif /* MBEDTLS_ECP_DP_SECP256K1_ENABLED */
 509:/home/xingli/share/LiteOS_Lab/network/dtls/mbedtls/mbedtls-2.16.2/library/oid.c **** #if defined(MBEDTLS_ECP_DP_BP256R1_ENABLED)
 510:/home/xingli/share/LiteOS_Lab/network/dtls/mbedtls/mbedtls-2.16.2/library/oid.c ****     {
 511:/home/xingli/share/LiteOS_Lab/network/dtls/mbedtls/mbedtls-2.16.2/library/oid.c ****         { ADD_LEN( MBEDTLS_OID_EC_GRP_BP256R1 ),   "brainpoolP256r1","brainpool256r1" },
 512:/home/xingli/share/LiteOS_Lab/network/dtls/mbedtls/mbedtls-2.16.2/library/oid.c ****         MBEDTLS_ECP_DP_BP256R1,
 513:/home/xingli/share/LiteOS_Lab/network/dtls/mbedtls/mbedtls-2.16.2/library/oid.c ****     },
 514:/home/xingli/share/LiteOS_Lab/network/dtls/mbedtls/mbedtls-2.16.2/library/oid.c **** #endif /* MBEDTLS_ECP_DP_BP256R1_ENABLED */
 515:/home/xingli/share/LiteOS_Lab/network/dtls/mbedtls/mbedtls-2.16.2/library/oid.c **** #if defined(MBEDTLS_ECP_DP_BP384R1_ENABLED)
 516:/home/xingli/share/LiteOS_Lab/network/dtls/mbedtls/mbedtls-2.16.2/library/oid.c ****     {
 517:/home/xingli/share/LiteOS_Lab/network/dtls/mbedtls/mbedtls-2.16.2/library/oid.c ****         { ADD_LEN( MBEDTLS_OID_EC_GRP_BP384R1 ),   "brainpoolP384r1","brainpool384r1" },
 518:/home/xingli/share/LiteOS_Lab/network/dtls/mbedtls/mbedtls-2.16.2/library/oid.c ****         MBEDTLS_ECP_DP_BP384R1,
 519:/home/xingli/share/LiteOS_Lab/network/dtls/mbedtls/mbedtls-2.16.2/library/oid.c ****     },
 520:/home/xingli/share/LiteOS_Lab/network/dtls/mbedtls/mbedtls-2.16.2/library/oid.c **** #endif /* MBEDTLS_ECP_DP_BP384R1_ENABLED */
 521:/home/xingli/share/LiteOS_Lab/network/dtls/mbedtls/mbedtls-2.16.2/library/oid.c **** #if defined(MBEDTLS_ECP_DP_BP512R1_ENABLED)
 522:/home/xingli/share/LiteOS_Lab/network/dtls/mbedtls/mbedtls-2.16.2/library/oid.c ****     {
 523:/home/xingli/share/LiteOS_Lab/network/dtls/mbedtls/mbedtls-2.16.2/library/oid.c ****         { ADD_LEN( MBEDTLS_OID_EC_GRP_BP512R1 ),   "brainpoolP512r1","brainpool512r1" },
 524:/home/xingli/share/LiteOS_Lab/network/dtls/mbedtls/mbedtls-2.16.2/library/oid.c ****         MBEDTLS_ECP_DP_BP512R1,
 525:/home/xingli/share/LiteOS_Lab/network/dtls/mbedtls/mbedtls-2.16.2/library/oid.c ****     },
 526:/home/xingli/share/LiteOS_Lab/network/dtls/mbedtls/mbedtls-2.16.2/library/oid.c **** #endif /* MBEDTLS_ECP_DP_BP512R1_ENABLED */
 527:/home/xingli/share/LiteOS_Lab/network/dtls/mbedtls/mbedtls-2.16.2/library/oid.c ****     {
 528:/home/xingli/share/LiteOS_Lab/network/dtls/mbedtls/mbedtls-2.16.2/library/oid.c ****         { NULL, 0, NULL, NULL },
 529:/home/xingli/share/LiteOS_Lab/network/dtls/mbedtls/mbedtls-2.16.2/library/oid.c ****         MBEDTLS_ECP_DP_NONE,
 530:/home/xingli/share/LiteOS_Lab/network/dtls/mbedtls/mbedtls-2.16.2/library/oid.c ****     },
 531:/home/xingli/share/LiteOS_Lab/network/dtls/mbedtls/mbedtls-2.16.2/library/oid.c **** };
 532:/home/xingli/share/LiteOS_Lab/network/dtls/mbedtls/mbedtls-2.16.2/library/oid.c **** 
 533:/home/xingli/share/LiteOS_Lab/network/dtls/mbedtls/mbedtls-2.16.2/library/oid.c **** FN_OID_TYPED_FROM_ASN1(oid_ecp_grp_t, grp_id, oid_ecp_grp)
 1529              		.loc 1 533 1 is_stmt 1
 1530              		.cfi_startproc
 1531 0000 F30F1EFA 		endbr64
 1532 0004 55       		pushq	%rbp
 1533              	.LCFI39:
 1534              		.cfi_def_cfa_offset 16
 1535              		.cfi_offset 6, -16
 1536 0005 4889E5   		movq	%rsp, %rbp
 1537              	.LCFI40:
GAS LISTING /tmp/ccHf1ECV.s 			page 49


 1538              		.cfi_def_cfa_register 6
 1539 0008 4883EC30 		subq	$48, %rsp
 1540 000c 48897DD8 		movq	%rdi, -40(%rbp)
 1541              		.loc 1 533 1
 1542 0010 64488B04 		movq	%fs:40, %rax
 1542      25280000 
 1542      00
 1543 0019 488945F8 		movq	%rax, -8(%rbp)
 1544 001d 31C0     		xorl	%eax, %eax
 1545 001f 488D0500 		leaq	oid_ecp_grp(%rip), %rax
 1545      000000
 1546 0026 488945E8 		movq	%rax, -24(%rbp)
 1547 002a 488B45E8 		movq	-24(%rbp), %rax
 1548 002e 488945F0 		movq	%rax, -16(%rbp)
 1549 0032 48837DE8 		cmpq	$0, -24(%rbp)
 1549      00
 1550 0037 7407     		je	.L78
 1551              		.loc 1 533 1 is_stmt 0 discriminator 2
 1552 0039 48837DD8 		cmpq	$0, -40(%rbp)
 1552      00
 1553 003e 7555     		jne	.L81
 1554              	.L78:
 1555              		.loc 1 533 1 discriminator 3
 1556 0040 B8000000 		movl	$0, %eax
 1556      00
 1557 0045 EB5F     		jmp	.L80
 1558              	.L83:
 1559              		.loc 1 533 1 discriminator 9
 1560 0047 488B45F0 		movq	-16(%rbp), %rax
 1561 004b 488B5008 		movq	8(%rax), %rdx
 1562 004f 488B45D8 		movq	-40(%rbp), %rax
 1563 0053 488B4008 		movq	8(%rax), %rax
 1564 0057 4839C2   		cmpq	%rax, %rdx
 1565 005a 752C     		jne	.L82
 1566              		.loc 1 533 1 discriminator 4
 1567 005c 488B45D8 		movq	-40(%rbp), %rax
 1568 0060 488B5008 		movq	8(%rax), %rdx
 1569 0064 488B45D8 		movq	-40(%rbp), %rax
 1570 0068 488B4810 		movq	16(%rax), %rcx
 1571 006c 488B45F0 		movq	-16(%rbp), %rax
 1572 0070 488B00   		movq	(%rax), %rax
 1573 0073 4889CE   		movq	%rcx, %rsi
 1574 0076 4889C7   		movq	%rax, %rdi
 1575 0079 E8000000 		call	memcmp@PLT
 1575      00
 1576 007e 85C0     		testl	%eax, %eax
 1577 0080 7506     		jne	.L82
 1578              		.loc 1 533 1 discriminator 6
 1579 0082 488B45E8 		movq	-24(%rbp), %rax
 1580 0086 EB1E     		jmp	.L80
 1581              	.L82:
 1582              		.loc 1 533 1 discriminator 7
 1583 0088 488345E8 		addq	$40, -24(%rbp)
 1583      28
 1584 008d 488B45E8 		movq	-24(%rbp), %rax
 1585 0091 488945F0 		movq	%rax, -16(%rbp)
 1586              	.L81:
GAS LISTING /tmp/ccHf1ECV.s 			page 50


 1587              		.loc 1 533 1 discriminator 8
 1588 0095 488B45F0 		movq	-16(%rbp), %rax
 1589 0099 488B00   		movq	(%rax), %rax
 1590 009c 4885C0   		testq	%rax, %rax
 1591 009f 75A6     		jne	.L83
 1592              		.loc 1 533 1 discriminator 10
 1593 00a1 B8000000 		movl	$0, %eax
 1593      00
 1594              	.L80:
 1595              		.loc 1 533 1
 1596 00a6 488B75F8 		movq	-8(%rbp), %rsi
 1597 00aa 64483334 		xorq	%fs:40, %rsi
 1597      25280000 
 1597      00
 1598 00b3 7405     		je	.L84
 1599 00b5 E8000000 		call	__stack_chk_fail@PLT
 1599      00
 1600              	.L84:
 1601 00ba C9       		leave
 1602              	.LCFI41:
 1603              		.cfi_def_cfa 7, 8
 1604 00bb C3       		ret
 1605              		.cfi_endproc
 1606              	.LFE29:
 1608              		.section	.text.mbedtls_oid_get_ec_grp,"ax",@progbits
 1609              		.globl	mbedtls_oid_get_ec_grp
 1611              	mbedtls_oid_get_ec_grp:
 1612              	.LFB30:
 534:/home/xingli/share/LiteOS_Lab/network/dtls/mbedtls/mbedtls-2.16.2/library/oid.c **** FN_OID_GET_ATTR1(mbedtls_oid_get_ec_grp, oid_ecp_grp_t, grp_id, mbedtls_ecp_group_id, grp_id)
 1613              		.loc 1 534 1 is_stmt 1
 1614              		.cfi_startproc
 1615 0000 F30F1EFA 		endbr64
 1616 0004 55       		pushq	%rbp
 1617              	.LCFI42:
 1618              		.cfi_def_cfa_offset 16
 1619              		.cfi_offset 6, -16
 1620 0005 4889E5   		movq	%rsp, %rbp
 1621              	.LCFI43:
 1622              		.cfi_def_cfa_register 6
 1623 0008 4883EC20 		subq	$32, %rsp
 1624 000c 48897DE8 		movq	%rdi, -24(%rbp)
 1625 0010 488975E0 		movq	%rsi, -32(%rbp)
 1626              		.loc 1 534 1
 1627 0014 64488B04 		movq	%fs:40, %rax
 1627      25280000 
 1627      00
 1628 001d 488945F8 		movq	%rax, -8(%rbp)
 1629 0021 31C0     		xorl	%eax, %eax
 1630 0023 488B45E8 		movq	-24(%rbp), %rax
 1631 0027 4889C7   		movq	%rax, %rdi
 1632 002a E8000000 		call	oid_grp_id_from_asn1
 1632      00
 1633 002f 488945F0 		movq	%rax, -16(%rbp)
 1634 0033 48837DF0 		cmpq	$0, -16(%rbp)
 1634      00
 1635 0038 7507     		jne	.L86
 1636              		.loc 1 534 1 is_stmt 0 discriminator 1
GAS LISTING /tmp/ccHf1ECV.s 			page 51


 1637 003a B8D2FFFF 		movl	$-46, %eax
 1637      FF
 1638 003f EB12     		jmp	.L87
 1639              	.L86:
 1640              		.loc 1 534 1 discriminator 2
 1641 0041 488B45F0 		movq	-16(%rbp), %rax
 1642 0045 8B5020   		movl	32(%rax), %edx
 1643 0048 488B45E0 		movq	-32(%rbp), %rax
 1644 004c 8910     		movl	%edx, (%rax)
 1645 004e B8000000 		movl	$0, %eax
 1645      00
 1646              	.L87:
 1647              		.loc 1 534 1
 1648 0053 488B4DF8 		movq	-8(%rbp), %rcx
 1649 0057 6448330C 		xorq	%fs:40, %rcx
 1649      25280000 
 1649      00
 1650 0060 7405     		je	.L88
 1651 0062 E8000000 		call	__stack_chk_fail@PLT
 1651      00
 1652              	.L88:
 1653 0067 C9       		leave
 1654              	.LCFI44:
 1655              		.cfi_def_cfa 7, 8
 1656 0068 C3       		ret
 1657              		.cfi_endproc
 1658              	.LFE30:
 1660              		.section	.text.mbedtls_oid_get_oid_by_ec_grp,"ax",@progbits
 1661              		.globl	mbedtls_oid_get_oid_by_ec_grp
 1663              	mbedtls_oid_get_oid_by_ec_grp:
 1664              	.LFB31:
 535:/home/xingli/share/LiteOS_Lab/network/dtls/mbedtls/mbedtls-2.16.2/library/oid.c **** FN_OID_GET_OID_BY_ATTR1(mbedtls_oid_get_oid_by_ec_grp, oid_ecp_grp_t, oid_ecp_grp, mbedtls_ecp_grou
 1665              		.loc 1 535 1 is_stmt 1
 1666              		.cfi_startproc
 1667 0000 F30F1EFA 		endbr64
 1668 0004 55       		pushq	%rbp
 1669              	.LCFI45:
 1670              		.cfi_def_cfa_offset 16
 1671              		.cfi_offset 6, -16
 1672 0005 4889E5   		movq	%rsp, %rbp
 1673              	.LCFI46:
 1674              		.cfi_def_cfa_register 6
 1675 0008 4883EC30 		subq	$48, %rsp
 1676 000c 897DEC   		movl	%edi, -20(%rbp)
 1677 000f 488975E0 		movq	%rsi, -32(%rbp)
 1678 0013 488955D8 		movq	%rdx, -40(%rbp)
 1679              		.loc 1 535 1
 1680 0017 64488B04 		movq	%fs:40, %rax
 1680      25280000 
 1680      00
 1681 0020 488945F8 		movq	%rax, -8(%rbp)
 1682 0024 31C0     		xorl	%eax, %eax
 1683 0026 488D0500 		leaq	oid_ecp_grp(%rip), %rax
 1683      000000
 1684 002d 488945F0 		movq	%rax, -16(%rbp)
 1685 0031 EB35     		jmp	.L90
 1686              	.L93:
GAS LISTING /tmp/ccHf1ECV.s 			page 52


 1687              		.loc 1 535 1 is_stmt 0 discriminator 5
 1688 0033 488B45F0 		movq	-16(%rbp), %rax
 1689 0037 8B4020   		movl	32(%rax), %eax
 1690 003a 3945EC   		cmpl	%eax, -20(%rbp)
 1691 003d 7524     		jne	.L91
 1692              		.loc 1 535 1 discriminator 2
 1693 003f 488B45F0 		movq	-16(%rbp), %rax
 1694 0043 488B10   		movq	(%rax), %rdx
 1695 0046 488B45E0 		movq	-32(%rbp), %rax
 1696 004a 488910   		movq	%rdx, (%rax)
 1697 004d 488B45F0 		movq	-16(%rbp), %rax
 1698 0051 488B5008 		movq	8(%rax), %rdx
 1699 0055 488B45D8 		movq	-40(%rbp), %rax
 1700 0059 488910   		movq	%rdx, (%rax)
 1701 005c B8000000 		movl	$0, %eax
 1701      00
 1702 0061 EB16     		jmp	.L92
 1703              	.L91:
 1704              		.loc 1 535 1 discriminator 3
 1705 0063 488345F0 		addq	$40, -16(%rbp)
 1705      28
 1706              	.L90:
 1707              		.loc 1 535 1 discriminator 4
 1708 0068 488B45F0 		movq	-16(%rbp), %rax
 1709 006c 488B00   		movq	(%rax), %rax
 1710 006f 4885C0   		testq	%rax, %rax
 1711 0072 75BF     		jne	.L93
 1712              		.loc 1 535 1 discriminator 6
 1713 0074 B8D2FFFF 		movl	$-46, %eax
 1713      FF
 1714              	.L92:
 1715              		.loc 1 535 1
 1716 0079 488B4DF8 		movq	-8(%rbp), %rcx
 1717 007d 6448330C 		xorq	%fs:40, %rcx
 1717      25280000 
 1717      00
 1718 0086 7405     		je	.L94
 1719 0088 E8000000 		call	__stack_chk_fail@PLT
 1719      00
 1720              	.L94:
 1721 008d C9       		leave
 1722              	.LCFI47:
 1723              		.cfi_def_cfa 7, 8
 1724 008e C3       		ret
 1725              		.cfi_endproc
 1726              	.LFE31:
 1728              		.section	.rodata
 1729              	.LC154:
 1730 0732 2B0E0302 		.string	"+\016\003\002\007"
 1730      0700
 1731              	.LC155:
 1732 0738 64657343 		.string	"desCBC"
 1732      424300
 1733              	.LC156:
 1734 073f 4445532D 		.string	"DES-CBC"
 1734      43424300 
 1735              	.LC157:
GAS LISTING /tmp/ccHf1ECV.s 			page 53


 1736 0747 2A864886 		.string	"*\206H\206\367\r\003\007"
 1736      F70D0307 
 1736      00
 1737              	.LC158:
 1738 0750 6465732D 		.string	"des-ede3-cbc"
 1738      65646533 
 1738      2D636263 
 1738      00
 1739              	.LC159:
 1740 075d 4445532D 		.string	"DES-EDE3-CBC"
 1740      45444533 
 1740      2D434243 
 1740      00
 1741              		.section	.data.rel.ro.local.oid_cipher_alg,"aw"
 1742              		.align 32
 1745              	oid_cipher_alg:
 1746 0000 00000000 		.quad	.LC154
 1746      00000000 
 1747 0008 05000000 		.quad	5
 1747      00000000 
 1748 0010 00000000 		.quad	.LC155
 1748      00000000 
 1749 0018 00000000 		.quad	.LC156
 1749      00000000 
 1750 0020 21000000 		.long	33
 1751 0024 00000000 		.zero	4
 1752 0028 00000000 		.quad	.LC157
 1752      00000000 
 1753 0030 08000000 		.quad	8
 1753      00000000 
 1754 0038 00000000 		.quad	.LC158
 1754      00000000 
 1755 0040 00000000 		.quad	.LC159
 1755      00000000 
 1756 0048 25000000 		.long	37
 1757 004c 00000000 		.zero	4
 1758 0050 00000000 		.quad	0
 1758      00000000 
 1759 0058 00000000 		.quad	0
 1759      00000000 
 1760 0060 00000000 		.quad	0
 1760      00000000 
 1761 0068 00000000 		.quad	0
 1761      00000000 
 1762 0070 00000000 		.long	0
 1763 0074 00000000 		.zero	4
 1764              		.section	.text.oid_cipher_alg_from_asn1,"ax",@progbits
 1766              	oid_cipher_alg_from_asn1:
 1767              	.LFB32:
 536:/home/xingli/share/LiteOS_Lab/network/dtls/mbedtls/mbedtls-2.16.2/library/oid.c **** #endif /* MBEDTLS_ECP_C */
 537:/home/xingli/share/LiteOS_Lab/network/dtls/mbedtls/mbedtls-2.16.2/library/oid.c **** 
 538:/home/xingli/share/LiteOS_Lab/network/dtls/mbedtls/mbedtls-2.16.2/library/oid.c **** #if defined(MBEDTLS_CIPHER_C)
 539:/home/xingli/share/LiteOS_Lab/network/dtls/mbedtls/mbedtls-2.16.2/library/oid.c **** /*
 540:/home/xingli/share/LiteOS_Lab/network/dtls/mbedtls/mbedtls-2.16.2/library/oid.c ****  * For PKCS#5 PBES2 encryption algorithm
 541:/home/xingli/share/LiteOS_Lab/network/dtls/mbedtls/mbedtls-2.16.2/library/oid.c ****  */
 542:/home/xingli/share/LiteOS_Lab/network/dtls/mbedtls/mbedtls-2.16.2/library/oid.c **** typedef struct {
 543:/home/xingli/share/LiteOS_Lab/network/dtls/mbedtls/mbedtls-2.16.2/library/oid.c ****     mbedtls_oid_descriptor_t    descriptor;
GAS LISTING /tmp/ccHf1ECV.s 			page 54


 544:/home/xingli/share/LiteOS_Lab/network/dtls/mbedtls/mbedtls-2.16.2/library/oid.c ****     mbedtls_cipher_type_t       cipher_alg;
 545:/home/xingli/share/LiteOS_Lab/network/dtls/mbedtls/mbedtls-2.16.2/library/oid.c **** } oid_cipher_alg_t;
 546:/home/xingli/share/LiteOS_Lab/network/dtls/mbedtls/mbedtls-2.16.2/library/oid.c **** 
 547:/home/xingli/share/LiteOS_Lab/network/dtls/mbedtls/mbedtls-2.16.2/library/oid.c **** static const oid_cipher_alg_t oid_cipher_alg[] =
 548:/home/xingli/share/LiteOS_Lab/network/dtls/mbedtls/mbedtls-2.16.2/library/oid.c **** {
 549:/home/xingli/share/LiteOS_Lab/network/dtls/mbedtls/mbedtls-2.16.2/library/oid.c ****     {
 550:/home/xingli/share/LiteOS_Lab/network/dtls/mbedtls/mbedtls-2.16.2/library/oid.c ****         { ADD_LEN( MBEDTLS_OID_DES_CBC ),              "desCBC",       "DES-CBC" },
 551:/home/xingli/share/LiteOS_Lab/network/dtls/mbedtls/mbedtls-2.16.2/library/oid.c ****         MBEDTLS_CIPHER_DES_CBC,
 552:/home/xingli/share/LiteOS_Lab/network/dtls/mbedtls/mbedtls-2.16.2/library/oid.c ****     },
 553:/home/xingli/share/LiteOS_Lab/network/dtls/mbedtls/mbedtls-2.16.2/library/oid.c ****     {
 554:/home/xingli/share/LiteOS_Lab/network/dtls/mbedtls/mbedtls-2.16.2/library/oid.c ****         { ADD_LEN( MBEDTLS_OID_DES_EDE3_CBC ),         "des-ede3-cbc", "DES-EDE3-CBC" },
 555:/home/xingli/share/LiteOS_Lab/network/dtls/mbedtls/mbedtls-2.16.2/library/oid.c ****         MBEDTLS_CIPHER_DES_EDE3_CBC,
 556:/home/xingli/share/LiteOS_Lab/network/dtls/mbedtls/mbedtls-2.16.2/library/oid.c ****     },
 557:/home/xingli/share/LiteOS_Lab/network/dtls/mbedtls/mbedtls-2.16.2/library/oid.c ****     {
 558:/home/xingli/share/LiteOS_Lab/network/dtls/mbedtls/mbedtls-2.16.2/library/oid.c ****         { NULL, 0, NULL, NULL },
 559:/home/xingli/share/LiteOS_Lab/network/dtls/mbedtls/mbedtls-2.16.2/library/oid.c ****         MBEDTLS_CIPHER_NONE,
 560:/home/xingli/share/LiteOS_Lab/network/dtls/mbedtls/mbedtls-2.16.2/library/oid.c ****     },
 561:/home/xingli/share/LiteOS_Lab/network/dtls/mbedtls/mbedtls-2.16.2/library/oid.c **** };
 562:/home/xingli/share/LiteOS_Lab/network/dtls/mbedtls/mbedtls-2.16.2/library/oid.c **** 
 563:/home/xingli/share/LiteOS_Lab/network/dtls/mbedtls/mbedtls-2.16.2/library/oid.c **** FN_OID_TYPED_FROM_ASN1(oid_cipher_alg_t, cipher_alg, oid_cipher_alg)
 1768              		.loc 1 563 1 is_stmt 1
 1769              		.cfi_startproc
 1770 0000 F30F1EFA 		endbr64
 1771 0004 55       		pushq	%rbp
 1772              	.LCFI48:
 1773              		.cfi_def_cfa_offset 16
 1774              		.cfi_offset 6, -16
 1775 0005 4889E5   		movq	%rsp, %rbp
 1776              	.LCFI49:
 1777              		.cfi_def_cfa_register 6
 1778 0008 4883EC30 		subq	$48, %rsp
 1779 000c 48897DD8 		movq	%rdi, -40(%rbp)
 1780              		.loc 1 563 1
 1781 0010 64488B04 		movq	%fs:40, %rax
 1781      25280000 
 1781      00
 1782 0019 488945F8 		movq	%rax, -8(%rbp)
 1783 001d 31C0     		xorl	%eax, %eax
 1784 001f 488D0500 		leaq	oid_cipher_alg(%rip), %rax
 1784      000000
 1785 0026 488945E8 		movq	%rax, -24(%rbp)
 1786 002a 488B45E8 		movq	-24(%rbp), %rax
 1787 002e 488945F0 		movq	%rax, -16(%rbp)
 1788 0032 48837DE8 		cmpq	$0, -24(%rbp)
 1788      00
 1789 0037 7407     		je	.L96
 1790              		.loc 1 563 1 is_stmt 0 discriminator 2
 1791 0039 48837DD8 		cmpq	$0, -40(%rbp)
 1791      00
 1792 003e 7555     		jne	.L99
 1793              	.L96:
 1794              		.loc 1 563 1 discriminator 3
 1795 0040 B8000000 		movl	$0, %eax
 1795      00
 1796 0045 EB5F     		jmp	.L98
 1797              	.L101:
 1798              		.loc 1 563 1 discriminator 9
GAS LISTING /tmp/ccHf1ECV.s 			page 55


 1799 0047 488B45F0 		movq	-16(%rbp), %rax
 1800 004b 488B5008 		movq	8(%rax), %rdx
 1801 004f 488B45D8 		movq	-40(%rbp), %rax
 1802 0053 488B4008 		movq	8(%rax), %rax
 1803 0057 4839C2   		cmpq	%rax, %rdx
 1804 005a 752C     		jne	.L100
 1805              		.loc 1 563 1 discriminator 4
 1806 005c 488B45D8 		movq	-40(%rbp), %rax
 1807 0060 488B5008 		movq	8(%rax), %rdx
 1808 0064 488B45D8 		movq	-40(%rbp), %rax
 1809 0068 488B4810 		movq	16(%rax), %rcx
 1810 006c 488B45F0 		movq	-16(%rbp), %rax
 1811 0070 488B00   		movq	(%rax), %rax
 1812 0073 4889CE   		movq	%rcx, %rsi
 1813 0076 4889C7   		movq	%rax, %rdi
 1814 0079 E8000000 		call	memcmp@PLT
 1814      00
 1815 007e 85C0     		testl	%eax, %eax
 1816 0080 7506     		jne	.L100
 1817              		.loc 1 563 1 discriminator 6
 1818 0082 488B45E8 		movq	-24(%rbp), %rax
 1819 0086 EB1E     		jmp	.L98
 1820              	.L100:
 1821              		.loc 1 563 1 discriminator 7
 1822 0088 488345E8 		addq	$40, -24(%rbp)
 1822      28
 1823 008d 488B45E8 		movq	-24(%rbp), %rax
 1824 0091 488945F0 		movq	%rax, -16(%rbp)
 1825              	.L99:
 1826              		.loc 1 563 1 discriminator 8
 1827 0095 488B45F0 		movq	-16(%rbp), %rax
 1828 0099 488B00   		movq	(%rax), %rax
 1829 009c 4885C0   		testq	%rax, %rax
 1830 009f 75A6     		jne	.L101
 1831              		.loc 1 563 1 discriminator 10
 1832 00a1 B8000000 		movl	$0, %eax
 1832      00
 1833              	.L98:
 1834              		.loc 1 563 1
 1835 00a6 488B75F8 		movq	-8(%rbp), %rsi
 1836 00aa 64483334 		xorq	%fs:40, %rsi
 1836      25280000 
 1836      00
 1837 00b3 7405     		je	.L102
 1838 00b5 E8000000 		call	__stack_chk_fail@PLT
 1838      00
 1839              	.L102:
 1840 00ba C9       		leave
 1841              	.LCFI50:
 1842              		.cfi_def_cfa 7, 8
 1843 00bb C3       		ret
 1844              		.cfi_endproc
 1845              	.LFE32:
 1847              		.section	.text.mbedtls_oid_get_cipher_alg,"ax",@progbits
 1848              		.globl	mbedtls_oid_get_cipher_alg
 1850              	mbedtls_oid_get_cipher_alg:
 1851              	.LFB33:
GAS LISTING /tmp/ccHf1ECV.s 			page 56


 564:/home/xingli/share/LiteOS_Lab/network/dtls/mbedtls/mbedtls-2.16.2/library/oid.c **** FN_OID_GET_ATTR1(mbedtls_oid_get_cipher_alg, oid_cipher_alg_t, cipher_alg, mbedtls_cipher_type_t, c
 1852              		.loc 1 564 1 is_stmt 1
 1853              		.cfi_startproc
 1854 0000 F30F1EFA 		endbr64
 1855 0004 55       		pushq	%rbp
 1856              	.LCFI51:
 1857              		.cfi_def_cfa_offset 16
 1858              		.cfi_offset 6, -16
 1859 0005 4889E5   		movq	%rsp, %rbp
 1860              	.LCFI52:
 1861              		.cfi_def_cfa_register 6
 1862 0008 4883EC20 		subq	$32, %rsp
 1863 000c 48897DE8 		movq	%rdi, -24(%rbp)
 1864 0010 488975E0 		movq	%rsi, -32(%rbp)
 1865              		.loc 1 564 1
 1866 0014 64488B04 		movq	%fs:40, %rax
 1866      25280000 
 1866      00
 1867 001d 488945F8 		movq	%rax, -8(%rbp)
 1868 0021 31C0     		xorl	%eax, %eax
 1869 0023 488B45E8 		movq	-24(%rbp), %rax
 1870 0027 4889C7   		movq	%rax, %rdi
 1871 002a E8000000 		call	oid_cipher_alg_from_asn1
 1871      00
 1872 002f 488945F0 		movq	%rax, -16(%rbp)
 1873 0033 48837DF0 		cmpq	$0, -16(%rbp)
 1873      00
 1874 0038 7507     		jne	.L104
 1875              		.loc 1 564 1 is_stmt 0 discriminator 1
 1876 003a B8D2FFFF 		movl	$-46, %eax
 1876      FF
 1877 003f EB12     		jmp	.L105
 1878              	.L104:
 1879              		.loc 1 564 1 discriminator 2
 1880 0041 488B45F0 		movq	-16(%rbp), %rax
 1881 0045 8B5020   		movl	32(%rax), %edx
 1882 0048 488B45E0 		movq	-32(%rbp), %rax
 1883 004c 8910     		movl	%edx, (%rax)
 1884 004e B8000000 		movl	$0, %eax
 1884      00
 1885              	.L105:
 1886              		.loc 1 564 1
 1887 0053 488B4DF8 		movq	-8(%rbp), %rcx
 1888 0057 6448330C 		xorq	%fs:40, %rcx
 1888      25280000 
 1888      00
 1889 0060 7405     		je	.L106
 1890 0062 E8000000 		call	__stack_chk_fail@PLT
 1890      00
 1891              	.L106:
 1892 0067 C9       		leave
 1893              	.LCFI53:
 1894              		.cfi_def_cfa 7, 8
 1895 0068 C3       		ret
 1896              		.cfi_endproc
 1897              	.LFE33:
 1899              		.section	.rodata
GAS LISTING /tmp/ccHf1ECV.s 			page 57


 1900              	.LC160:
 1901 076a 2B0E0302 		.string	"+\016\003\002\032"
 1901      1A00
 1902              	.LC161:
 1903 0770 69642D73 		.string	"id-sha1"
 1903      68613100 
 1904              	.LC162:
 1905 0778 5348412D 		.string	"SHA-1"
 1905      3100
 1906              	.LC163:
 1907 077e 60864801 		.string	"`\206H\001e\003\004\002\004"
 1907      65030402 
 1907      0400
 1908              	.LC164:
 1909 0788 69642D73 		.string	"id-sha224"
 1909      68613232 
 1909      3400
 1910              	.LC165:
 1911 0792 5348412D 		.string	"SHA-224"
 1911      32323400 
 1912              	.LC166:
 1913 079a 60864801 		.string	"`\206H\001e\003\004\002\001"
 1913      65030402 
 1913      0100
 1914              	.LC167:
 1915 07a4 69642D73 		.string	"id-sha256"
 1915      68613235 
 1915      3600
 1916              	.LC168:
 1917 07ae 5348412D 		.string	"SHA-256"
 1917      32353600 
 1918              		.section	.data.rel.ro.local.oid_md_alg,"aw"
 1919              		.align 32
 1922              	oid_md_alg:
 1923 0000 00000000 		.quad	.LC160
 1923      00000000 
 1924 0008 05000000 		.quad	5
 1924      00000000 
 1925 0010 00000000 		.quad	.LC161
 1925      00000000 
 1926 0018 00000000 		.quad	.LC162
 1926      00000000 
 1927 0020 04000000 		.long	4
 1928 0024 00000000 		.zero	4
 1929 0028 00000000 		.quad	.LC163
 1929      00000000 
 1930 0030 09000000 		.quad	9
 1930      00000000 
 1931 0038 00000000 		.quad	.LC164
 1931      00000000 
 1932 0040 00000000 		.quad	.LC165
 1932      00000000 
 1933 0048 05000000 		.long	5
 1934 004c 00000000 		.zero	4
 1935 0050 00000000 		.quad	.LC166
 1935      00000000 
 1936 0058 09000000 		.quad	9
GAS LISTING /tmp/ccHf1ECV.s 			page 58


 1936      00000000 
 1937 0060 00000000 		.quad	.LC167
 1937      00000000 
 1938 0068 00000000 		.quad	.LC168
 1938      00000000 
 1939 0070 06000000 		.long	6
 1940 0074 00000000 		.zero	4
 1941 0078 00000000 		.quad	0
 1941      00000000 
 1942 0080 00000000 		.quad	0
 1942      00000000 
 1943 0088 00000000 		.quad	0
 1943      00000000 
 1944 0090 00000000 		.quad	0
 1944      00000000 
 1945 0098 00000000 		.long	0
 1946 009c 00000000 		.zero	4
 1947              		.section	.text.oid_md_alg_from_asn1,"ax",@progbits
 1949              	oid_md_alg_from_asn1:
 1950              	.LFB34:
 565:/home/xingli/share/LiteOS_Lab/network/dtls/mbedtls/mbedtls-2.16.2/library/oid.c **** #endif /* MBEDTLS_CIPHER_C */
 566:/home/xingli/share/LiteOS_Lab/network/dtls/mbedtls/mbedtls-2.16.2/library/oid.c **** 
 567:/home/xingli/share/LiteOS_Lab/network/dtls/mbedtls/mbedtls-2.16.2/library/oid.c **** #if defined(MBEDTLS_MD_C)
 568:/home/xingli/share/LiteOS_Lab/network/dtls/mbedtls/mbedtls-2.16.2/library/oid.c **** /*
 569:/home/xingli/share/LiteOS_Lab/network/dtls/mbedtls/mbedtls-2.16.2/library/oid.c ****  * For digestAlgorithm
 570:/home/xingli/share/LiteOS_Lab/network/dtls/mbedtls/mbedtls-2.16.2/library/oid.c ****  */
 571:/home/xingli/share/LiteOS_Lab/network/dtls/mbedtls/mbedtls-2.16.2/library/oid.c **** typedef struct {
 572:/home/xingli/share/LiteOS_Lab/network/dtls/mbedtls/mbedtls-2.16.2/library/oid.c ****     mbedtls_oid_descriptor_t    descriptor;
 573:/home/xingli/share/LiteOS_Lab/network/dtls/mbedtls/mbedtls-2.16.2/library/oid.c ****     mbedtls_md_type_t           md_alg;
 574:/home/xingli/share/LiteOS_Lab/network/dtls/mbedtls/mbedtls-2.16.2/library/oid.c **** } oid_md_alg_t;
 575:/home/xingli/share/LiteOS_Lab/network/dtls/mbedtls/mbedtls-2.16.2/library/oid.c **** 
 576:/home/xingli/share/LiteOS_Lab/network/dtls/mbedtls/mbedtls-2.16.2/library/oid.c **** static const oid_md_alg_t oid_md_alg[] =
 577:/home/xingli/share/LiteOS_Lab/network/dtls/mbedtls/mbedtls-2.16.2/library/oid.c **** {
 578:/home/xingli/share/LiteOS_Lab/network/dtls/mbedtls/mbedtls-2.16.2/library/oid.c **** #if defined(MBEDTLS_MD2_C)
 579:/home/xingli/share/LiteOS_Lab/network/dtls/mbedtls/mbedtls-2.16.2/library/oid.c ****     {
 580:/home/xingli/share/LiteOS_Lab/network/dtls/mbedtls/mbedtls-2.16.2/library/oid.c ****         { ADD_LEN( MBEDTLS_OID_DIGEST_ALG_MD2 ),       "id-md2",       "MD2" },
 581:/home/xingli/share/LiteOS_Lab/network/dtls/mbedtls/mbedtls-2.16.2/library/oid.c ****         MBEDTLS_MD_MD2,
 582:/home/xingli/share/LiteOS_Lab/network/dtls/mbedtls/mbedtls-2.16.2/library/oid.c ****     },
 583:/home/xingli/share/LiteOS_Lab/network/dtls/mbedtls/mbedtls-2.16.2/library/oid.c **** #endif /* MBEDTLS_MD2_C */
 584:/home/xingli/share/LiteOS_Lab/network/dtls/mbedtls/mbedtls-2.16.2/library/oid.c **** #if defined(MBEDTLS_MD4_C)
 585:/home/xingli/share/LiteOS_Lab/network/dtls/mbedtls/mbedtls-2.16.2/library/oid.c ****     {
 586:/home/xingli/share/LiteOS_Lab/network/dtls/mbedtls/mbedtls-2.16.2/library/oid.c ****         { ADD_LEN( MBEDTLS_OID_DIGEST_ALG_MD4 ),       "id-md4",       "MD4" },
 587:/home/xingli/share/LiteOS_Lab/network/dtls/mbedtls/mbedtls-2.16.2/library/oid.c ****         MBEDTLS_MD_MD4,
 588:/home/xingli/share/LiteOS_Lab/network/dtls/mbedtls/mbedtls-2.16.2/library/oid.c ****     },
 589:/home/xingli/share/LiteOS_Lab/network/dtls/mbedtls/mbedtls-2.16.2/library/oid.c **** #endif /* MBEDTLS_MD4_C */
 590:/home/xingli/share/LiteOS_Lab/network/dtls/mbedtls/mbedtls-2.16.2/library/oid.c **** #if defined(MBEDTLS_MD5_C)
 591:/home/xingli/share/LiteOS_Lab/network/dtls/mbedtls/mbedtls-2.16.2/library/oid.c ****     {
 592:/home/xingli/share/LiteOS_Lab/network/dtls/mbedtls/mbedtls-2.16.2/library/oid.c ****         { ADD_LEN( MBEDTLS_OID_DIGEST_ALG_MD5 ),       "id-md5",       "MD5" },
 593:/home/xingli/share/LiteOS_Lab/network/dtls/mbedtls/mbedtls-2.16.2/library/oid.c ****         MBEDTLS_MD_MD5,
 594:/home/xingli/share/LiteOS_Lab/network/dtls/mbedtls/mbedtls-2.16.2/library/oid.c ****     },
 595:/home/xingli/share/LiteOS_Lab/network/dtls/mbedtls/mbedtls-2.16.2/library/oid.c **** #endif /* MBEDTLS_MD5_C */
 596:/home/xingli/share/LiteOS_Lab/network/dtls/mbedtls/mbedtls-2.16.2/library/oid.c **** #if defined(MBEDTLS_SHA1_C)
 597:/home/xingli/share/LiteOS_Lab/network/dtls/mbedtls/mbedtls-2.16.2/library/oid.c ****     {
 598:/home/xingli/share/LiteOS_Lab/network/dtls/mbedtls/mbedtls-2.16.2/library/oid.c ****         { ADD_LEN( MBEDTLS_OID_DIGEST_ALG_SHA1 ),      "id-sha1",      "SHA-1" },
 599:/home/xingli/share/LiteOS_Lab/network/dtls/mbedtls/mbedtls-2.16.2/library/oid.c ****         MBEDTLS_MD_SHA1,
 600:/home/xingli/share/LiteOS_Lab/network/dtls/mbedtls/mbedtls-2.16.2/library/oid.c ****     },
 601:/home/xingli/share/LiteOS_Lab/network/dtls/mbedtls/mbedtls-2.16.2/library/oid.c **** #endif /* MBEDTLS_SHA1_C */
GAS LISTING /tmp/ccHf1ECV.s 			page 59


 602:/home/xingli/share/LiteOS_Lab/network/dtls/mbedtls/mbedtls-2.16.2/library/oid.c **** #if defined(MBEDTLS_SHA256_C)
 603:/home/xingli/share/LiteOS_Lab/network/dtls/mbedtls/mbedtls-2.16.2/library/oid.c ****     {
 604:/home/xingli/share/LiteOS_Lab/network/dtls/mbedtls/mbedtls-2.16.2/library/oid.c ****         { ADD_LEN( MBEDTLS_OID_DIGEST_ALG_SHA224 ),    "id-sha224",    "SHA-224" },
 605:/home/xingli/share/LiteOS_Lab/network/dtls/mbedtls/mbedtls-2.16.2/library/oid.c ****         MBEDTLS_MD_SHA224,
 606:/home/xingli/share/LiteOS_Lab/network/dtls/mbedtls/mbedtls-2.16.2/library/oid.c ****     },
 607:/home/xingli/share/LiteOS_Lab/network/dtls/mbedtls/mbedtls-2.16.2/library/oid.c ****     {
 608:/home/xingli/share/LiteOS_Lab/network/dtls/mbedtls/mbedtls-2.16.2/library/oid.c ****         { ADD_LEN( MBEDTLS_OID_DIGEST_ALG_SHA256 ),    "id-sha256",    "SHA-256" },
 609:/home/xingli/share/LiteOS_Lab/network/dtls/mbedtls/mbedtls-2.16.2/library/oid.c ****         MBEDTLS_MD_SHA256,
 610:/home/xingli/share/LiteOS_Lab/network/dtls/mbedtls/mbedtls-2.16.2/library/oid.c ****     },
 611:/home/xingli/share/LiteOS_Lab/network/dtls/mbedtls/mbedtls-2.16.2/library/oid.c **** #endif /* MBEDTLS_SHA256_C */
 612:/home/xingli/share/LiteOS_Lab/network/dtls/mbedtls/mbedtls-2.16.2/library/oid.c **** #if defined(MBEDTLS_SHA512_C)
 613:/home/xingli/share/LiteOS_Lab/network/dtls/mbedtls/mbedtls-2.16.2/library/oid.c ****     {
 614:/home/xingli/share/LiteOS_Lab/network/dtls/mbedtls/mbedtls-2.16.2/library/oid.c ****         { ADD_LEN( MBEDTLS_OID_DIGEST_ALG_SHA384 ),    "id-sha384",    "SHA-384" },
 615:/home/xingli/share/LiteOS_Lab/network/dtls/mbedtls/mbedtls-2.16.2/library/oid.c ****         MBEDTLS_MD_SHA384,
 616:/home/xingli/share/LiteOS_Lab/network/dtls/mbedtls/mbedtls-2.16.2/library/oid.c ****     },
 617:/home/xingli/share/LiteOS_Lab/network/dtls/mbedtls/mbedtls-2.16.2/library/oid.c ****     {
 618:/home/xingli/share/LiteOS_Lab/network/dtls/mbedtls/mbedtls-2.16.2/library/oid.c ****         { ADD_LEN( MBEDTLS_OID_DIGEST_ALG_SHA512 ),    "id-sha512",    "SHA-512" },
 619:/home/xingli/share/LiteOS_Lab/network/dtls/mbedtls/mbedtls-2.16.2/library/oid.c ****         MBEDTLS_MD_SHA512,
 620:/home/xingli/share/LiteOS_Lab/network/dtls/mbedtls/mbedtls-2.16.2/library/oid.c ****     },
 621:/home/xingli/share/LiteOS_Lab/network/dtls/mbedtls/mbedtls-2.16.2/library/oid.c **** #endif /* MBEDTLS_SHA512_C */
 622:/home/xingli/share/LiteOS_Lab/network/dtls/mbedtls/mbedtls-2.16.2/library/oid.c ****     {
 623:/home/xingli/share/LiteOS_Lab/network/dtls/mbedtls/mbedtls-2.16.2/library/oid.c ****         { NULL, 0, NULL, NULL },
 624:/home/xingli/share/LiteOS_Lab/network/dtls/mbedtls/mbedtls-2.16.2/library/oid.c ****         MBEDTLS_MD_NONE,
 625:/home/xingli/share/LiteOS_Lab/network/dtls/mbedtls/mbedtls-2.16.2/library/oid.c ****     },
 626:/home/xingli/share/LiteOS_Lab/network/dtls/mbedtls/mbedtls-2.16.2/library/oid.c **** };
 627:/home/xingli/share/LiteOS_Lab/network/dtls/mbedtls/mbedtls-2.16.2/library/oid.c **** 
 628:/home/xingli/share/LiteOS_Lab/network/dtls/mbedtls/mbedtls-2.16.2/library/oid.c **** FN_OID_TYPED_FROM_ASN1(oid_md_alg_t, md_alg, oid_md_alg)
 1951              		.loc 1 628 1 is_stmt 1
 1952              		.cfi_startproc
 1953 0000 F30F1EFA 		endbr64
 1954 0004 55       		pushq	%rbp
 1955              	.LCFI54:
 1956              		.cfi_def_cfa_offset 16
 1957              		.cfi_offset 6, -16
 1958 0005 4889E5   		movq	%rsp, %rbp
 1959              	.LCFI55:
 1960              		.cfi_def_cfa_register 6
 1961 0008 4883EC30 		subq	$48, %rsp
 1962 000c 48897DD8 		movq	%rdi, -40(%rbp)
 1963              		.loc 1 628 1
 1964 0010 64488B04 		movq	%fs:40, %rax
 1964      25280000 
 1964      00
 1965 0019 488945F8 		movq	%rax, -8(%rbp)
 1966 001d 31C0     		xorl	%eax, %eax
 1967 001f 488D0500 		leaq	oid_md_alg(%rip), %rax
 1967      000000
 1968 0026 488945E8 		movq	%rax, -24(%rbp)
 1969 002a 488B45E8 		movq	-24(%rbp), %rax
 1970 002e 488945F0 		movq	%rax, -16(%rbp)
 1971 0032 48837DE8 		cmpq	$0, -24(%rbp)
 1971      00
 1972 0037 7407     		je	.L108
 1973              		.loc 1 628 1 is_stmt 0 discriminator 2
 1974 0039 48837DD8 		cmpq	$0, -40(%rbp)
 1974      00
 1975 003e 7555     		jne	.L111
GAS LISTING /tmp/ccHf1ECV.s 			page 60


 1976              	.L108:
 1977              		.loc 1 628 1 discriminator 3
 1978 0040 B8000000 		movl	$0, %eax
 1978      00
 1979 0045 EB5F     		jmp	.L110
 1980              	.L113:
 1981              		.loc 1 628 1 discriminator 9
 1982 0047 488B45F0 		movq	-16(%rbp), %rax
 1983 004b 488B5008 		movq	8(%rax), %rdx
 1984 004f 488B45D8 		movq	-40(%rbp), %rax
 1985 0053 488B4008 		movq	8(%rax), %rax
 1986 0057 4839C2   		cmpq	%rax, %rdx
 1987 005a 752C     		jne	.L112
 1988              		.loc 1 628 1 discriminator 4
 1989 005c 488B45D8 		movq	-40(%rbp), %rax
 1990 0060 488B5008 		movq	8(%rax), %rdx
 1991 0064 488B45D8 		movq	-40(%rbp), %rax
 1992 0068 488B4810 		movq	16(%rax), %rcx
 1993 006c 488B45F0 		movq	-16(%rbp), %rax
 1994 0070 488B00   		movq	(%rax), %rax
 1995 0073 4889CE   		movq	%rcx, %rsi
 1996 0076 4889C7   		movq	%rax, %rdi
 1997 0079 E8000000 		call	memcmp@PLT
 1997      00
 1998 007e 85C0     		testl	%eax, %eax
 1999 0080 7506     		jne	.L112
 2000              		.loc 1 628 1 discriminator 6
 2001 0082 488B45E8 		movq	-24(%rbp), %rax
 2002 0086 EB1E     		jmp	.L110
 2003              	.L112:
 2004              		.loc 1 628 1 discriminator 7
 2005 0088 488345E8 		addq	$40, -24(%rbp)
 2005      28
 2006 008d 488B45E8 		movq	-24(%rbp), %rax
 2007 0091 488945F0 		movq	%rax, -16(%rbp)
 2008              	.L111:
 2009              		.loc 1 628 1 discriminator 8
 2010 0095 488B45F0 		movq	-16(%rbp), %rax
 2011 0099 488B00   		movq	(%rax), %rax
 2012 009c 4885C0   		testq	%rax, %rax
 2013 009f 75A6     		jne	.L113
 2014              		.loc 1 628 1 discriminator 10
 2015 00a1 B8000000 		movl	$0, %eax
 2015      00
 2016              	.L110:
 2017              		.loc 1 628 1
 2018 00a6 488B75F8 		movq	-8(%rbp), %rsi
 2019 00aa 64483334 		xorq	%fs:40, %rsi
 2019      25280000 
 2019      00
 2020 00b3 7405     		je	.L114
 2021 00b5 E8000000 		call	__stack_chk_fail@PLT
 2021      00
 2022              	.L114:
 2023 00ba C9       		leave
 2024              	.LCFI56:
 2025              		.cfi_def_cfa 7, 8
GAS LISTING /tmp/ccHf1ECV.s 			page 61


 2026 00bb C3       		ret
 2027              		.cfi_endproc
 2028              	.LFE34:
 2030              		.section	.text.mbedtls_oid_get_md_alg,"ax",@progbits
 2031              		.globl	mbedtls_oid_get_md_alg
 2033              	mbedtls_oid_get_md_alg:
 2034              	.LFB35:
 629:/home/xingli/share/LiteOS_Lab/network/dtls/mbedtls/mbedtls-2.16.2/library/oid.c **** FN_OID_GET_ATTR1(mbedtls_oid_get_md_alg, oid_md_alg_t, md_alg, mbedtls_md_type_t, md_alg)
 2035              		.loc 1 629 1 is_stmt 1
 2036              		.cfi_startproc
 2037 0000 F30F1EFA 		endbr64
 2038 0004 55       		pushq	%rbp
 2039              	.LCFI57:
 2040              		.cfi_def_cfa_offset 16
 2041              		.cfi_offset 6, -16
 2042 0005 4889E5   		movq	%rsp, %rbp
 2043              	.LCFI58:
 2044              		.cfi_def_cfa_register 6
 2045 0008 4883EC20 		subq	$32, %rsp
 2046 000c 48897DE8 		movq	%rdi, -24(%rbp)
 2047 0010 488975E0 		movq	%rsi, -32(%rbp)
 2048              		.loc 1 629 1
 2049 0014 64488B04 		movq	%fs:40, %rax
 2049      25280000 
 2049      00
 2050 001d 488945F8 		movq	%rax, -8(%rbp)
 2051 0021 31C0     		xorl	%eax, %eax
 2052 0023 488B45E8 		movq	-24(%rbp), %rax
 2053 0027 4889C7   		movq	%rax, %rdi
 2054 002a E8000000 		call	oid_md_alg_from_asn1
 2054      00
 2055 002f 488945F0 		movq	%rax, -16(%rbp)
 2056 0033 48837DF0 		cmpq	$0, -16(%rbp)
 2056      00
 2057 0038 7507     		jne	.L116
 2058              		.loc 1 629 1 is_stmt 0 discriminator 1
 2059 003a B8D2FFFF 		movl	$-46, %eax
 2059      FF
 2060 003f EB12     		jmp	.L117
 2061              	.L116:
 2062              		.loc 1 629 1 discriminator 2
 2063 0041 488B45F0 		movq	-16(%rbp), %rax
 2064 0045 8B5020   		movl	32(%rax), %edx
 2065 0048 488B45E0 		movq	-32(%rbp), %rax
 2066 004c 8910     		movl	%edx, (%rax)
 2067 004e B8000000 		movl	$0, %eax
 2067      00
 2068              	.L117:
 2069              		.loc 1 629 1
 2070 0053 488B4DF8 		movq	-8(%rbp), %rcx
 2071 0057 6448330C 		xorq	%fs:40, %rcx
 2071      25280000 
 2071      00
 2072 0060 7405     		je	.L118
 2073 0062 E8000000 		call	__stack_chk_fail@PLT
 2073      00
 2074              	.L118:
GAS LISTING /tmp/ccHf1ECV.s 			page 62


 2075 0067 C9       		leave
 2076              	.LCFI59:
 2077              		.cfi_def_cfa 7, 8
 2078 0068 C3       		ret
 2079              		.cfi_endproc
 2080              	.LFE35:
 2082              		.section	.text.mbedtls_oid_get_oid_by_md,"ax",@progbits
 2083              		.globl	mbedtls_oid_get_oid_by_md
 2085              	mbedtls_oid_get_oid_by_md:
 2086              	.LFB36:
 630:/home/xingli/share/LiteOS_Lab/network/dtls/mbedtls/mbedtls-2.16.2/library/oid.c **** FN_OID_GET_OID_BY_ATTR1(mbedtls_oid_get_oid_by_md, oid_md_alg_t, oid_md_alg, mbedtls_md_type_t, md_
 2087              		.loc 1 630 1 is_stmt 1
 2088              		.cfi_startproc
 2089 0000 F30F1EFA 		endbr64
 2090 0004 55       		pushq	%rbp
 2091              	.LCFI60:
 2092              		.cfi_def_cfa_offset 16
 2093              		.cfi_offset 6, -16
 2094 0005 4889E5   		movq	%rsp, %rbp
 2095              	.LCFI61:
 2096              		.cfi_def_cfa_register 6
 2097 0008 4883EC30 		subq	$48, %rsp
 2098 000c 897DEC   		movl	%edi, -20(%rbp)
 2099 000f 488975E0 		movq	%rsi, -32(%rbp)
 2100 0013 488955D8 		movq	%rdx, -40(%rbp)
 2101              		.loc 1 630 1
 2102 0017 64488B04 		movq	%fs:40, %rax
 2102      25280000 
 2102      00
 2103 0020 488945F8 		movq	%rax, -8(%rbp)
 2104 0024 31C0     		xorl	%eax, %eax
 2105 0026 488D0500 		leaq	oid_md_alg(%rip), %rax
 2105      000000
 2106 002d 488945F0 		movq	%rax, -16(%rbp)
 2107 0031 EB35     		jmp	.L120
 2108              	.L123:
 2109              		.loc 1 630 1 is_stmt 0 discriminator 5
 2110 0033 488B45F0 		movq	-16(%rbp), %rax
 2111 0037 8B4020   		movl	32(%rax), %eax
 2112 003a 3945EC   		cmpl	%eax, -20(%rbp)
 2113 003d 7524     		jne	.L121
 2114              		.loc 1 630 1 discriminator 2
 2115 003f 488B45F0 		movq	-16(%rbp), %rax
 2116 0043 488B10   		movq	(%rax), %rdx
 2117 0046 488B45E0 		movq	-32(%rbp), %rax
 2118 004a 488910   		movq	%rdx, (%rax)
 2119 004d 488B45F0 		movq	-16(%rbp), %rax
 2120 0051 488B5008 		movq	8(%rax), %rdx
 2121 0055 488B45D8 		movq	-40(%rbp), %rax
 2122 0059 488910   		movq	%rdx, (%rax)
 2123 005c B8000000 		movl	$0, %eax
 2123      00
 2124 0061 EB16     		jmp	.L122
 2125              	.L121:
 2126              		.loc 1 630 1 discriminator 3
 2127 0063 488345F0 		addq	$40, -16(%rbp)
 2127      28
GAS LISTING /tmp/ccHf1ECV.s 			page 63


 2128              	.L120:
 2129              		.loc 1 630 1 discriminator 4
 2130 0068 488B45F0 		movq	-16(%rbp), %rax
 2131 006c 488B00   		movq	(%rax), %rax
 2132 006f 4885C0   		testq	%rax, %rax
 2133 0072 75BF     		jne	.L123
 2134              		.loc 1 630 1 discriminator 6
 2135 0074 B8D2FFFF 		movl	$-46, %eax
 2135      FF
 2136              	.L122:
 2137              		.loc 1 630 1
 2138 0079 488B4DF8 		movq	-8(%rbp), %rcx
 2139 007d 6448330C 		xorq	%fs:40, %rcx
 2139      25280000 
 2139      00
 2140 0086 7405     		je	.L124
 2141 0088 E8000000 		call	__stack_chk_fail@PLT
 2141      00
 2142              	.L124:
 2143 008d C9       		leave
 2144              	.LCFI62:
 2145              		.cfi_def_cfa 7, 8
 2146 008e C3       		ret
 2147              		.cfi_endproc
 2148              	.LFE36:
 2150              		.section	.rodata
 2151              	.LC169:
 2152 07b6 2A864886 		.string	"*\206H\206\367\r\002\007"
 2152      F70D0207 
 2152      00
 2153              	.LC170:
 2154 07bf 686D6163 		.string	"hmacSHA1"
 2154      53484131 
 2154      00
 2155              	.LC171:
 2156 07c8 484D4143 		.string	"HMAC-SHA-1"
 2156      2D534841 
 2156      2D3100
 2157              	.LC172:
 2158 07d3 2A864886 		.string	"*\206H\206\367\r\002\b"
 2158      F70D0208 
 2158      00
 2159              	.LC173:
 2160 07dc 686D6163 		.string	"hmacSHA224"
 2160      53484132 
 2160      323400
 2161              	.LC174:
 2162 07e7 484D4143 		.string	"HMAC-SHA-224"
 2162      2D534841 
 2162      2D323234 
 2162      00
 2163              	.LC175:
 2164 07f4 2A864886 		.string	"*\206H\206\367\r\002\t"
 2164      F70D0209 
 2164      00
 2165              	.LC176:
 2166 07fd 686D6163 		.string	"hmacSHA256"
GAS LISTING /tmp/ccHf1ECV.s 			page 64


 2166      53484132 
 2166      353600
 2167              	.LC177:
 2168 0808 484D4143 		.string	"HMAC-SHA-256"
 2168      2D534841 
 2168      2D323536 
 2168      00
 2169              		.section	.data.rel.ro.local.oid_md_hmac,"aw"
 2170              		.align 32
 2173              	oid_md_hmac:
 2174 0000 00000000 		.quad	.LC169
 2174      00000000 
 2175 0008 08000000 		.quad	8
 2175      00000000 
 2176 0010 00000000 		.quad	.LC170
 2176      00000000 
 2177 0018 00000000 		.quad	.LC171
 2177      00000000 
 2178 0020 04000000 		.long	4
 2179 0024 00000000 		.zero	4
 2180 0028 00000000 		.quad	.LC172
 2180      00000000 
 2181 0030 08000000 		.quad	8
 2181      00000000 
 2182 0038 00000000 		.quad	.LC173
 2182      00000000 
 2183 0040 00000000 		.quad	.LC174
 2183      00000000 
 2184 0048 05000000 		.long	5
 2185 004c 00000000 		.zero	4
 2186 0050 00000000 		.quad	.LC175
 2186      00000000 
 2187 0058 08000000 		.quad	8
 2187      00000000 
 2188 0060 00000000 		.quad	.LC176
 2188      00000000 
 2189 0068 00000000 		.quad	.LC177
 2189      00000000 
 2190 0070 06000000 		.long	6
 2191 0074 00000000 		.zero	4
 2192 0078 00000000 		.quad	0
 2192      00000000 
 2193 0080 00000000 		.quad	0
 2193      00000000 
 2194 0088 00000000 		.quad	0
 2194      00000000 
 2195 0090 00000000 		.quad	0
 2195      00000000 
 2196 0098 00000000 		.long	0
 2197 009c 00000000 		.zero	4
 2198              		.section	.text.oid_md_hmac_from_asn1,"ax",@progbits
 2200              	oid_md_hmac_from_asn1:
 2201              	.LFB37:
 631:/home/xingli/share/LiteOS_Lab/network/dtls/mbedtls/mbedtls-2.16.2/library/oid.c **** 
 632:/home/xingli/share/LiteOS_Lab/network/dtls/mbedtls/mbedtls-2.16.2/library/oid.c **** /*
 633:/home/xingli/share/LiteOS_Lab/network/dtls/mbedtls/mbedtls-2.16.2/library/oid.c ****  * For HMAC digestAlgorithm
 634:/home/xingli/share/LiteOS_Lab/network/dtls/mbedtls/mbedtls-2.16.2/library/oid.c ****  */
GAS LISTING /tmp/ccHf1ECV.s 			page 65


 635:/home/xingli/share/LiteOS_Lab/network/dtls/mbedtls/mbedtls-2.16.2/library/oid.c **** typedef struct {
 636:/home/xingli/share/LiteOS_Lab/network/dtls/mbedtls/mbedtls-2.16.2/library/oid.c ****     mbedtls_oid_descriptor_t    descriptor;
 637:/home/xingli/share/LiteOS_Lab/network/dtls/mbedtls/mbedtls-2.16.2/library/oid.c ****     mbedtls_md_type_t           md_hmac;
 638:/home/xingli/share/LiteOS_Lab/network/dtls/mbedtls/mbedtls-2.16.2/library/oid.c **** } oid_md_hmac_t;
 639:/home/xingli/share/LiteOS_Lab/network/dtls/mbedtls/mbedtls-2.16.2/library/oid.c **** 
 640:/home/xingli/share/LiteOS_Lab/network/dtls/mbedtls/mbedtls-2.16.2/library/oid.c **** static const oid_md_hmac_t oid_md_hmac[] =
 641:/home/xingli/share/LiteOS_Lab/network/dtls/mbedtls/mbedtls-2.16.2/library/oid.c **** {
 642:/home/xingli/share/LiteOS_Lab/network/dtls/mbedtls/mbedtls-2.16.2/library/oid.c **** #if defined(MBEDTLS_SHA1_C)
 643:/home/xingli/share/LiteOS_Lab/network/dtls/mbedtls/mbedtls-2.16.2/library/oid.c ****     {
 644:/home/xingli/share/LiteOS_Lab/network/dtls/mbedtls/mbedtls-2.16.2/library/oid.c ****         { ADD_LEN( MBEDTLS_OID_HMAC_SHA1 ),      "hmacSHA1",      "HMAC-SHA-1" },
 645:/home/xingli/share/LiteOS_Lab/network/dtls/mbedtls/mbedtls-2.16.2/library/oid.c ****         MBEDTLS_MD_SHA1,
 646:/home/xingli/share/LiteOS_Lab/network/dtls/mbedtls/mbedtls-2.16.2/library/oid.c ****     },
 647:/home/xingli/share/LiteOS_Lab/network/dtls/mbedtls/mbedtls-2.16.2/library/oid.c **** #endif /* MBEDTLS_SHA1_C */
 648:/home/xingli/share/LiteOS_Lab/network/dtls/mbedtls/mbedtls-2.16.2/library/oid.c **** #if defined(MBEDTLS_SHA256_C)
 649:/home/xingli/share/LiteOS_Lab/network/dtls/mbedtls/mbedtls-2.16.2/library/oid.c ****     {
 650:/home/xingli/share/LiteOS_Lab/network/dtls/mbedtls/mbedtls-2.16.2/library/oid.c ****         { ADD_LEN( MBEDTLS_OID_HMAC_SHA224 ),    "hmacSHA224",    "HMAC-SHA-224" },
 651:/home/xingli/share/LiteOS_Lab/network/dtls/mbedtls/mbedtls-2.16.2/library/oid.c ****         MBEDTLS_MD_SHA224,
 652:/home/xingli/share/LiteOS_Lab/network/dtls/mbedtls/mbedtls-2.16.2/library/oid.c ****     },
 653:/home/xingli/share/LiteOS_Lab/network/dtls/mbedtls/mbedtls-2.16.2/library/oid.c ****     {
 654:/home/xingli/share/LiteOS_Lab/network/dtls/mbedtls/mbedtls-2.16.2/library/oid.c ****         { ADD_LEN( MBEDTLS_OID_HMAC_SHA256 ),    "hmacSHA256",    "HMAC-SHA-256" },
 655:/home/xingli/share/LiteOS_Lab/network/dtls/mbedtls/mbedtls-2.16.2/library/oid.c ****         MBEDTLS_MD_SHA256,
 656:/home/xingli/share/LiteOS_Lab/network/dtls/mbedtls/mbedtls-2.16.2/library/oid.c ****     },
 657:/home/xingli/share/LiteOS_Lab/network/dtls/mbedtls/mbedtls-2.16.2/library/oid.c **** #endif /* MBEDTLS_SHA256_C */
 658:/home/xingli/share/LiteOS_Lab/network/dtls/mbedtls/mbedtls-2.16.2/library/oid.c **** #if defined(MBEDTLS_SHA512_C)
 659:/home/xingli/share/LiteOS_Lab/network/dtls/mbedtls/mbedtls-2.16.2/library/oid.c ****     {
 660:/home/xingli/share/LiteOS_Lab/network/dtls/mbedtls/mbedtls-2.16.2/library/oid.c ****         { ADD_LEN( MBEDTLS_OID_HMAC_SHA384 ),    "hmacSHA384",    "HMAC-SHA-384" },
 661:/home/xingli/share/LiteOS_Lab/network/dtls/mbedtls/mbedtls-2.16.2/library/oid.c ****         MBEDTLS_MD_SHA384,
 662:/home/xingli/share/LiteOS_Lab/network/dtls/mbedtls/mbedtls-2.16.2/library/oid.c ****     },
 663:/home/xingli/share/LiteOS_Lab/network/dtls/mbedtls/mbedtls-2.16.2/library/oid.c ****     {
 664:/home/xingli/share/LiteOS_Lab/network/dtls/mbedtls/mbedtls-2.16.2/library/oid.c ****         { ADD_LEN( MBEDTLS_OID_HMAC_SHA512 ),    "hmacSHA512",    "HMAC-SHA-512" },
 665:/home/xingli/share/LiteOS_Lab/network/dtls/mbedtls/mbedtls-2.16.2/library/oid.c ****         MBEDTLS_MD_SHA512,
 666:/home/xingli/share/LiteOS_Lab/network/dtls/mbedtls/mbedtls-2.16.2/library/oid.c ****     },
 667:/home/xingli/share/LiteOS_Lab/network/dtls/mbedtls/mbedtls-2.16.2/library/oid.c **** #endif /* MBEDTLS_SHA512_C */
 668:/home/xingli/share/LiteOS_Lab/network/dtls/mbedtls/mbedtls-2.16.2/library/oid.c ****     {
 669:/home/xingli/share/LiteOS_Lab/network/dtls/mbedtls/mbedtls-2.16.2/library/oid.c ****         { NULL, 0, NULL, NULL },
 670:/home/xingli/share/LiteOS_Lab/network/dtls/mbedtls/mbedtls-2.16.2/library/oid.c ****         MBEDTLS_MD_NONE,
 671:/home/xingli/share/LiteOS_Lab/network/dtls/mbedtls/mbedtls-2.16.2/library/oid.c ****     },
 672:/home/xingli/share/LiteOS_Lab/network/dtls/mbedtls/mbedtls-2.16.2/library/oid.c **** };
 673:/home/xingli/share/LiteOS_Lab/network/dtls/mbedtls/mbedtls-2.16.2/library/oid.c **** 
 674:/home/xingli/share/LiteOS_Lab/network/dtls/mbedtls/mbedtls-2.16.2/library/oid.c **** FN_OID_TYPED_FROM_ASN1(oid_md_hmac_t, md_hmac, oid_md_hmac)
 2202              		.loc 1 674 1 is_stmt 1
 2203              		.cfi_startproc
 2204 0000 F30F1EFA 		endbr64
 2205 0004 55       		pushq	%rbp
 2206              	.LCFI63:
 2207              		.cfi_def_cfa_offset 16
 2208              		.cfi_offset 6, -16
 2209 0005 4889E5   		movq	%rsp, %rbp
 2210              	.LCFI64:
 2211              		.cfi_def_cfa_register 6
 2212 0008 4883EC30 		subq	$48, %rsp
 2213 000c 48897DD8 		movq	%rdi, -40(%rbp)
 2214              		.loc 1 674 1
 2215 0010 64488B04 		movq	%fs:40, %rax
 2215      25280000 
 2215      00
 2216 0019 488945F8 		movq	%rax, -8(%rbp)
GAS LISTING /tmp/ccHf1ECV.s 			page 66


 2217 001d 31C0     		xorl	%eax, %eax
 2218 001f 488D0500 		leaq	oid_md_hmac(%rip), %rax
 2218      000000
 2219 0026 488945E8 		movq	%rax, -24(%rbp)
 2220 002a 488B45E8 		movq	-24(%rbp), %rax
 2221 002e 488945F0 		movq	%rax, -16(%rbp)
 2222 0032 48837DE8 		cmpq	$0, -24(%rbp)
 2222      00
 2223 0037 7407     		je	.L126
 2224              		.loc 1 674 1 is_stmt 0 discriminator 2
 2225 0039 48837DD8 		cmpq	$0, -40(%rbp)
 2225      00
 2226 003e 7555     		jne	.L129
 2227              	.L126:
 2228              		.loc 1 674 1 discriminator 3
 2229 0040 B8000000 		movl	$0, %eax
 2229      00
 2230 0045 EB5F     		jmp	.L128
 2231              	.L131:
 2232              		.loc 1 674 1 discriminator 9
 2233 0047 488B45F0 		movq	-16(%rbp), %rax
 2234 004b 488B5008 		movq	8(%rax), %rdx
 2235 004f 488B45D8 		movq	-40(%rbp), %rax
 2236 0053 488B4008 		movq	8(%rax), %rax
 2237 0057 4839C2   		cmpq	%rax, %rdx
 2238 005a 752C     		jne	.L130
 2239              		.loc 1 674 1 discriminator 4
 2240 005c 488B45D8 		movq	-40(%rbp), %rax
 2241 0060 488B5008 		movq	8(%rax), %rdx
 2242 0064 488B45D8 		movq	-40(%rbp), %rax
 2243 0068 488B4810 		movq	16(%rax), %rcx
 2244 006c 488B45F0 		movq	-16(%rbp), %rax
 2245 0070 488B00   		movq	(%rax), %rax
 2246 0073 4889CE   		movq	%rcx, %rsi
 2247 0076 4889C7   		movq	%rax, %rdi
 2248 0079 E8000000 		call	memcmp@PLT
 2248      00
 2249 007e 85C0     		testl	%eax, %eax
 2250 0080 7506     		jne	.L130
 2251              		.loc 1 674 1 discriminator 6
 2252 0082 488B45E8 		movq	-24(%rbp), %rax
 2253 0086 EB1E     		jmp	.L128
 2254              	.L130:
 2255              		.loc 1 674 1 discriminator 7
 2256 0088 488345E8 		addq	$40, -24(%rbp)
 2256      28
 2257 008d 488B45E8 		movq	-24(%rbp), %rax
 2258 0091 488945F0 		movq	%rax, -16(%rbp)
 2259              	.L129:
 2260              		.loc 1 674 1 discriminator 8
 2261 0095 488B45F0 		movq	-16(%rbp), %rax
 2262 0099 488B00   		movq	(%rax), %rax
 2263 009c 4885C0   		testq	%rax, %rax
 2264 009f 75A6     		jne	.L131
 2265              		.loc 1 674 1 discriminator 10
 2266 00a1 B8000000 		movl	$0, %eax
 2266      00
GAS LISTING /tmp/ccHf1ECV.s 			page 67


 2267              	.L128:
 2268              		.loc 1 674 1
 2269 00a6 488B75F8 		movq	-8(%rbp), %rsi
 2270 00aa 64483334 		xorq	%fs:40, %rsi
 2270      25280000 
 2270      00
 2271 00b3 7405     		je	.L132
 2272 00b5 E8000000 		call	__stack_chk_fail@PLT
 2272      00
 2273              	.L132:
 2274 00ba C9       		leave
 2275              	.LCFI65:
 2276              		.cfi_def_cfa 7, 8
 2277 00bb C3       		ret
 2278              		.cfi_endproc
 2279              	.LFE37:
 2281              		.section	.text.mbedtls_oid_get_md_hmac,"ax",@progbits
 2282              		.globl	mbedtls_oid_get_md_hmac
 2284              	mbedtls_oid_get_md_hmac:
 2285              	.LFB38:
 675:/home/xingli/share/LiteOS_Lab/network/dtls/mbedtls/mbedtls-2.16.2/library/oid.c **** FN_OID_GET_ATTR1(mbedtls_oid_get_md_hmac, oid_md_hmac_t, md_hmac, mbedtls_md_type_t, md_hmac)
 2286              		.loc 1 675 1 is_stmt 1
 2287              		.cfi_startproc
 2288 0000 F30F1EFA 		endbr64
 2289 0004 55       		pushq	%rbp
 2290              	.LCFI66:
 2291              		.cfi_def_cfa_offset 16
 2292              		.cfi_offset 6, -16
 2293 0005 4889E5   		movq	%rsp, %rbp
 2294              	.LCFI67:
 2295              		.cfi_def_cfa_register 6
 2296 0008 4883EC20 		subq	$32, %rsp
 2297 000c 48897DE8 		movq	%rdi, -24(%rbp)
 2298 0010 488975E0 		movq	%rsi, -32(%rbp)
 2299              		.loc 1 675 1
 2300 0014 64488B04 		movq	%fs:40, %rax
 2300      25280000 
 2300      00
 2301 001d 488945F8 		movq	%rax, -8(%rbp)
 2302 0021 31C0     		xorl	%eax, %eax
 2303 0023 488B45E8 		movq	-24(%rbp), %rax
 2304 0027 4889C7   		movq	%rax, %rdi
 2305 002a E8000000 		call	oid_md_hmac_from_asn1
 2305      00
 2306 002f 488945F0 		movq	%rax, -16(%rbp)
 2307 0033 48837DF0 		cmpq	$0, -16(%rbp)
 2307      00
 2308 0038 7507     		jne	.L134
 2309              		.loc 1 675 1 is_stmt 0 discriminator 1
 2310 003a B8D2FFFF 		movl	$-46, %eax
 2310      FF
 2311 003f EB12     		jmp	.L135
 2312              	.L134:
 2313              		.loc 1 675 1 discriminator 2
 2314 0041 488B45F0 		movq	-16(%rbp), %rax
 2315 0045 8B5020   		movl	32(%rax), %edx
 2316 0048 488B45E0 		movq	-32(%rbp), %rax
GAS LISTING /tmp/ccHf1ECV.s 			page 68


 2317 004c 8910     		movl	%edx, (%rax)
 2318 004e B8000000 		movl	$0, %eax
 2318      00
 2319              	.L135:
 2320              		.loc 1 675 1
 2321 0053 488B4DF8 		movq	-8(%rbp), %rcx
 2322 0057 6448330C 		xorq	%fs:40, %rcx
 2322      25280000 
 2322      00
 2323 0060 7405     		je	.L136
 2324 0062 E8000000 		call	__stack_chk_fail@PLT
 2324      00
 2325              	.L136:
 2326 0067 C9       		leave
 2327              	.LCFI68:
 2328              		.cfi_def_cfa 7, 8
 2329 0068 C3       		ret
 2330              		.cfi_endproc
 2331              	.LFE38:
 2333              		.section	.rodata
 2334              	.LC178:
 2335 0815 2A864886 		.string	"*\206H\206\367\r\001\f\001\003"
 2335      F70D010C 
 2335      010300
 2336              		.align 8
 2337              	.LC179:
 2338 0820 70626557 		.string	"pbeWithSHAAnd3-KeyTripleDES-CBC"
 2338      69746853 
 2338      4841416E 
 2338      64332D4B 
 2338      65795472 
 2339              	.LC180:
 2340 0840 50424520 		.string	"PBE with SHA1 and 3-Key 3DES"
 2340      77697468 
 2340      20534841 
 2340      3120616E 
 2340      6420332D 
 2341              	.LC181:
 2342 085d 2A864886 		.string	"*\206H\206\367\r\001\f\001\004"
 2342      F70D010C 
 2342      010400
 2343              		.align 8
 2344              	.LC182:
 2345 0868 70626557 		.string	"pbeWithSHAAnd2-KeyTripleDES-CBC"
 2345      69746853 
 2345      4841416E 
 2345      64322D4B 
 2345      65795472 
 2346              	.LC183:
 2347 0888 50424520 		.string	"PBE with SHA1 and 2-Key 3DES"
 2347      77697468 
 2347      20534841 
 2347      3120616E 
 2347      6420322D 
 2348              		.section	.data.rel.ro.local.oid_pkcs12_pbe_alg,"aw"
 2349              		.align 32
 2352              	oid_pkcs12_pbe_alg:
GAS LISTING /tmp/ccHf1ECV.s 			page 69


 2353 0000 00000000 		.quad	.LC178
 2353      00000000 
 2354 0008 0A000000 		.quad	10
 2354      00000000 
 2355 0010 00000000 		.quad	.LC179
 2355      00000000 
 2356 0018 00000000 		.quad	.LC180
 2356      00000000 
 2357 0020 04000000 		.long	4
 2358 0024 25000000 		.long	37
 2359 0028 00000000 		.quad	.LC181
 2359      00000000 
 2360 0030 0A000000 		.quad	10
 2360      00000000 
 2361 0038 00000000 		.quad	.LC182
 2361      00000000 
 2362 0040 00000000 		.quad	.LC183
 2362      00000000 
 2363 0048 04000000 		.long	4
 2364 004c 23000000 		.long	35
 2365 0050 00000000 		.quad	0
 2365      00000000 
 2366 0058 00000000 		.quad	0
 2366      00000000 
 2367 0060 00000000 		.quad	0
 2367      00000000 
 2368 0068 00000000 		.quad	0
 2368      00000000 
 2369 0070 00000000 		.long	0
 2370 0074 00000000 		.long	0
 2371              		.section	.text.oid_pkcs12_pbe_alg_from_asn1,"ax",@progbits
 2373              	oid_pkcs12_pbe_alg_from_asn1:
 2374              	.LFB39:
 676:/home/xingli/share/LiteOS_Lab/network/dtls/mbedtls/mbedtls-2.16.2/library/oid.c **** #endif /* MBEDTLS_MD_C */
 677:/home/xingli/share/LiteOS_Lab/network/dtls/mbedtls/mbedtls-2.16.2/library/oid.c **** 
 678:/home/xingli/share/LiteOS_Lab/network/dtls/mbedtls/mbedtls-2.16.2/library/oid.c **** #if defined(MBEDTLS_PKCS12_C)
 679:/home/xingli/share/LiteOS_Lab/network/dtls/mbedtls/mbedtls-2.16.2/library/oid.c **** /*
 680:/home/xingli/share/LiteOS_Lab/network/dtls/mbedtls/mbedtls-2.16.2/library/oid.c ****  * For PKCS#12 PBEs
 681:/home/xingli/share/LiteOS_Lab/network/dtls/mbedtls/mbedtls-2.16.2/library/oid.c ****  */
 682:/home/xingli/share/LiteOS_Lab/network/dtls/mbedtls/mbedtls-2.16.2/library/oid.c **** typedef struct {
 683:/home/xingli/share/LiteOS_Lab/network/dtls/mbedtls/mbedtls-2.16.2/library/oid.c ****     mbedtls_oid_descriptor_t    descriptor;
 684:/home/xingli/share/LiteOS_Lab/network/dtls/mbedtls/mbedtls-2.16.2/library/oid.c ****     mbedtls_md_type_t           md_alg;
 685:/home/xingli/share/LiteOS_Lab/network/dtls/mbedtls/mbedtls-2.16.2/library/oid.c ****     mbedtls_cipher_type_t       cipher_alg;
 686:/home/xingli/share/LiteOS_Lab/network/dtls/mbedtls/mbedtls-2.16.2/library/oid.c **** } oid_pkcs12_pbe_alg_t;
 687:/home/xingli/share/LiteOS_Lab/network/dtls/mbedtls/mbedtls-2.16.2/library/oid.c **** 
 688:/home/xingli/share/LiteOS_Lab/network/dtls/mbedtls/mbedtls-2.16.2/library/oid.c **** static const oid_pkcs12_pbe_alg_t oid_pkcs12_pbe_alg[] =
 689:/home/xingli/share/LiteOS_Lab/network/dtls/mbedtls/mbedtls-2.16.2/library/oid.c **** {
 690:/home/xingli/share/LiteOS_Lab/network/dtls/mbedtls/mbedtls-2.16.2/library/oid.c ****     {
 691:/home/xingli/share/LiteOS_Lab/network/dtls/mbedtls/mbedtls-2.16.2/library/oid.c ****         { ADD_LEN( MBEDTLS_OID_PKCS12_PBE_SHA1_DES3_EDE_CBC ), "pbeWithSHAAnd3-KeyTripleDES-CBC", "
 692:/home/xingli/share/LiteOS_Lab/network/dtls/mbedtls/mbedtls-2.16.2/library/oid.c ****         MBEDTLS_MD_SHA1,      MBEDTLS_CIPHER_DES_EDE3_CBC,
 693:/home/xingli/share/LiteOS_Lab/network/dtls/mbedtls/mbedtls-2.16.2/library/oid.c ****     },
 694:/home/xingli/share/LiteOS_Lab/network/dtls/mbedtls/mbedtls-2.16.2/library/oid.c ****     {
 695:/home/xingli/share/LiteOS_Lab/network/dtls/mbedtls/mbedtls-2.16.2/library/oid.c ****         { ADD_LEN( MBEDTLS_OID_PKCS12_PBE_SHA1_DES2_EDE_CBC ), "pbeWithSHAAnd2-KeyTripleDES-CBC", "
 696:/home/xingli/share/LiteOS_Lab/network/dtls/mbedtls/mbedtls-2.16.2/library/oid.c ****         MBEDTLS_MD_SHA1,      MBEDTLS_CIPHER_DES_EDE_CBC,
 697:/home/xingli/share/LiteOS_Lab/network/dtls/mbedtls/mbedtls-2.16.2/library/oid.c ****     },
 698:/home/xingli/share/LiteOS_Lab/network/dtls/mbedtls/mbedtls-2.16.2/library/oid.c ****     {
 699:/home/xingli/share/LiteOS_Lab/network/dtls/mbedtls/mbedtls-2.16.2/library/oid.c ****         { NULL, 0, NULL, NULL },
GAS LISTING /tmp/ccHf1ECV.s 			page 70


 700:/home/xingli/share/LiteOS_Lab/network/dtls/mbedtls/mbedtls-2.16.2/library/oid.c ****         MBEDTLS_MD_NONE, MBEDTLS_CIPHER_NONE,
 701:/home/xingli/share/LiteOS_Lab/network/dtls/mbedtls/mbedtls-2.16.2/library/oid.c ****     },
 702:/home/xingli/share/LiteOS_Lab/network/dtls/mbedtls/mbedtls-2.16.2/library/oid.c **** };
 703:/home/xingli/share/LiteOS_Lab/network/dtls/mbedtls/mbedtls-2.16.2/library/oid.c **** 
 704:/home/xingli/share/LiteOS_Lab/network/dtls/mbedtls/mbedtls-2.16.2/library/oid.c **** FN_OID_TYPED_FROM_ASN1(oid_pkcs12_pbe_alg_t, pkcs12_pbe_alg, oid_pkcs12_pbe_alg)
 2375              		.loc 1 704 1 is_stmt 1
 2376              		.cfi_startproc
 2377 0000 F30F1EFA 		endbr64
 2378 0004 55       		pushq	%rbp
 2379              	.LCFI69:
 2380              		.cfi_def_cfa_offset 16
 2381              		.cfi_offset 6, -16
 2382 0005 4889E5   		movq	%rsp, %rbp
 2383              	.LCFI70:
 2384              		.cfi_def_cfa_register 6
 2385 0008 4883EC30 		subq	$48, %rsp
 2386 000c 48897DD8 		movq	%rdi, -40(%rbp)
 2387              		.loc 1 704 1
 2388 0010 64488B04 		movq	%fs:40, %rax
 2388      25280000 
 2388      00
 2389 0019 488945F8 		movq	%rax, -8(%rbp)
 2390 001d 31C0     		xorl	%eax, %eax
 2391 001f 488D0500 		leaq	oid_pkcs12_pbe_alg(%rip), %rax
 2391      000000
 2392 0026 488945E8 		movq	%rax, -24(%rbp)
 2393 002a 488B45E8 		movq	-24(%rbp), %rax
 2394 002e 488945F0 		movq	%rax, -16(%rbp)
 2395 0032 48837DE8 		cmpq	$0, -24(%rbp)
 2395      00
 2396 0037 7407     		je	.L138
 2397              		.loc 1 704 1 is_stmt 0 discriminator 2
 2398 0039 48837DD8 		cmpq	$0, -40(%rbp)
 2398      00
 2399 003e 7555     		jne	.L141
 2400              	.L138:
 2401              		.loc 1 704 1 discriminator 3
 2402 0040 B8000000 		movl	$0, %eax
 2402      00
 2403 0045 EB5F     		jmp	.L140
 2404              	.L143:
 2405              		.loc 1 704 1 discriminator 9
 2406 0047 488B45F0 		movq	-16(%rbp), %rax
 2407 004b 488B5008 		movq	8(%rax), %rdx
 2408 004f 488B45D8 		movq	-40(%rbp), %rax
 2409 0053 488B4008 		movq	8(%rax), %rax
 2410 0057 4839C2   		cmpq	%rax, %rdx
 2411 005a 752C     		jne	.L142
 2412              		.loc 1 704 1 discriminator 4
 2413 005c 488B45D8 		movq	-40(%rbp), %rax
 2414 0060 488B5008 		movq	8(%rax), %rdx
 2415 0064 488B45D8 		movq	-40(%rbp), %rax
 2416 0068 488B4810 		movq	16(%rax), %rcx
 2417 006c 488B45F0 		movq	-16(%rbp), %rax
 2418 0070 488B00   		movq	(%rax), %rax
 2419 0073 4889CE   		movq	%rcx, %rsi
 2420 0076 4889C7   		movq	%rax, %rdi
GAS LISTING /tmp/ccHf1ECV.s 			page 71


 2421 0079 E8000000 		call	memcmp@PLT
 2421      00
 2422 007e 85C0     		testl	%eax, %eax
 2423 0080 7506     		jne	.L142
 2424              		.loc 1 704 1 discriminator 6
 2425 0082 488B45E8 		movq	-24(%rbp), %rax
 2426 0086 EB1E     		jmp	.L140
 2427              	.L142:
 2428              		.loc 1 704 1 discriminator 7
 2429 0088 488345E8 		addq	$40, -24(%rbp)
 2429      28
 2430 008d 488B45E8 		movq	-24(%rbp), %rax
 2431 0091 488945F0 		movq	%rax, -16(%rbp)
 2432              	.L141:
 2433              		.loc 1 704 1 discriminator 8
 2434 0095 488B45F0 		movq	-16(%rbp), %rax
 2435 0099 488B00   		movq	(%rax), %rax
 2436 009c 4885C0   		testq	%rax, %rax
 2437 009f 75A6     		jne	.L143
 2438              		.loc 1 704 1 discriminator 10
 2439 00a1 B8000000 		movl	$0, %eax
 2439      00
 2440              	.L140:
 2441              		.loc 1 704 1
 2442 00a6 488B75F8 		movq	-8(%rbp), %rsi
 2443 00aa 64483334 		xorq	%fs:40, %rsi
 2443      25280000 
 2443      00
 2444 00b3 7405     		je	.L144
 2445 00b5 E8000000 		call	__stack_chk_fail@PLT
 2445      00
 2446              	.L144:
 2447 00ba C9       		leave
 2448              	.LCFI71:
 2449              		.cfi_def_cfa 7, 8
 2450 00bb C3       		ret
 2451              		.cfi_endproc
 2452              	.LFE39:
 2454              		.section	.text.mbedtls_oid_get_pkcs12_pbe_alg,"ax",@progbits
 2455              		.globl	mbedtls_oid_get_pkcs12_pbe_alg
 2457              	mbedtls_oid_get_pkcs12_pbe_alg:
 2458              	.LFB40:
 705:/home/xingli/share/LiteOS_Lab/network/dtls/mbedtls/mbedtls-2.16.2/library/oid.c **** FN_OID_GET_ATTR2(mbedtls_oid_get_pkcs12_pbe_alg, oid_pkcs12_pbe_alg_t, pkcs12_pbe_alg, mbedtls_md_t
 2459              		.loc 1 705 1 is_stmt 1
 2460              		.cfi_startproc
 2461 0000 F30F1EFA 		endbr64
 2462 0004 55       		pushq	%rbp
 2463              	.LCFI72:
 2464              		.cfi_def_cfa_offset 16
 2465              		.cfi_offset 6, -16
 2466 0005 4889E5   		movq	%rsp, %rbp
 2467              	.LCFI73:
 2468              		.cfi_def_cfa_register 6
 2469 0008 4883EC30 		subq	$48, %rsp
 2470 000c 48897DE8 		movq	%rdi, -24(%rbp)
 2471 0010 488975E0 		movq	%rsi, -32(%rbp)
 2472 0014 488955D8 		movq	%rdx, -40(%rbp)
GAS LISTING /tmp/ccHf1ECV.s 			page 72


 2473              		.loc 1 705 1
 2474 0018 64488B04 		movq	%fs:40, %rax
 2474      25280000 
 2474      00
 2475 0021 488945F8 		movq	%rax, -8(%rbp)
 2476 0025 31C0     		xorl	%eax, %eax
 2477 0027 488B45E8 		movq	-24(%rbp), %rax
 2478 002b 4889C7   		movq	%rax, %rdi
 2479 002e E8000000 		call	oid_pkcs12_pbe_alg_from_asn1
 2479      00
 2480 0033 488945F0 		movq	%rax, -16(%rbp)
 2481 0037 48837DF0 		cmpq	$0, -16(%rbp)
 2481      00
 2482 003c 7507     		jne	.L146
 2483              		.loc 1 705 1 is_stmt 0 discriminator 1
 2484 003e B8D2FFFF 		movl	$-46, %eax
 2484      FF
 2485 0043 EB1F     		jmp	.L147
 2486              	.L146:
 2487              		.loc 1 705 1 discriminator 2
 2488 0045 488B45F0 		movq	-16(%rbp), %rax
 2489 0049 8B5020   		movl	32(%rax), %edx
 2490 004c 488B45E0 		movq	-32(%rbp), %rax
 2491 0050 8910     		movl	%edx, (%rax)
 2492 0052 488B45F0 		movq	-16(%rbp), %rax
 2493 0056 8B5024   		movl	36(%rax), %edx
 2494 0059 488B45D8 		movq	-40(%rbp), %rax
 2495 005d 8910     		movl	%edx, (%rax)
 2496 005f B8000000 		movl	$0, %eax
 2496      00
 2497              	.L147:
 2498              		.loc 1 705 1
 2499 0064 488B4DF8 		movq	-8(%rbp), %rcx
 2500 0068 6448330C 		xorq	%fs:40, %rcx
 2500      25280000 
 2500      00
 2501 0071 7405     		je	.L148
 2502 0073 E8000000 		call	__stack_chk_fail@PLT
 2502      00
 2503              	.L148:
 2504 0078 C9       		leave
 2505              	.LCFI74:
 2506              		.cfi_def_cfa 7, 8
 2507 0079 C3       		ret
 2508              		.cfi_endproc
 2509              	.LFE40:
 2511              		.section	.rodata
 2512              	.LC184:
 2513 08a5 25642E25 		.string	"%d.%d"
 2513      6400
 2514              	.LC185:
 2515 08ab 2E256400 		.string	".%d"
 2516              		.section	.text.mbedtls_oid_get_numeric_string,"ax",@progbits
 2517              		.globl	mbedtls_oid_get_numeric_string
 2519              	mbedtls_oid_get_numeric_string:
 2520              	.LFB41:
 706:/home/xingli/share/LiteOS_Lab/network/dtls/mbedtls/mbedtls-2.16.2/library/oid.c **** #endif /* MBEDTLS_PKCS12_C */
GAS LISTING /tmp/ccHf1ECV.s 			page 73


 707:/home/xingli/share/LiteOS_Lab/network/dtls/mbedtls/mbedtls-2.16.2/library/oid.c **** 
 708:/home/xingli/share/LiteOS_Lab/network/dtls/mbedtls/mbedtls-2.16.2/library/oid.c **** #define OID_SAFE_SNPRINTF                               \
 709:/home/xingli/share/LiteOS_Lab/network/dtls/mbedtls/mbedtls-2.16.2/library/oid.c ****     do {                                                \
 710:/home/xingli/share/LiteOS_Lab/network/dtls/mbedtls/mbedtls-2.16.2/library/oid.c ****         if( ret < 0 || (size_t) ret >= n )              \
 711:/home/xingli/share/LiteOS_Lab/network/dtls/mbedtls/mbedtls-2.16.2/library/oid.c ****             return( MBEDTLS_ERR_OID_BUF_TOO_SMALL );    \
 712:/home/xingli/share/LiteOS_Lab/network/dtls/mbedtls/mbedtls-2.16.2/library/oid.c ****                                                         \
 713:/home/xingli/share/LiteOS_Lab/network/dtls/mbedtls/mbedtls-2.16.2/library/oid.c ****         n -= (size_t) ret;                              \
 714:/home/xingli/share/LiteOS_Lab/network/dtls/mbedtls/mbedtls-2.16.2/library/oid.c ****         p += (size_t) ret;                              \
 715:/home/xingli/share/LiteOS_Lab/network/dtls/mbedtls/mbedtls-2.16.2/library/oid.c ****     } while( 0 )
 716:/home/xingli/share/LiteOS_Lab/network/dtls/mbedtls/mbedtls-2.16.2/library/oid.c **** 
 717:/home/xingli/share/LiteOS_Lab/network/dtls/mbedtls/mbedtls-2.16.2/library/oid.c **** /* Return the x.y.z.... style numeric string for the given OID */
 718:/home/xingli/share/LiteOS_Lab/network/dtls/mbedtls/mbedtls-2.16.2/library/oid.c **** int mbedtls_oid_get_numeric_string( char *buf, size_t size,
 719:/home/xingli/share/LiteOS_Lab/network/dtls/mbedtls/mbedtls-2.16.2/library/oid.c ****                             const mbedtls_asn1_buf *oid )
 720:/home/xingli/share/LiteOS_Lab/network/dtls/mbedtls/mbedtls-2.16.2/library/oid.c **** {
 2521              		.loc 1 720 1 is_stmt 1
 2522              		.cfi_startproc
 2523 0000 F30F1EFA 		endbr64
 2524 0004 55       		pushq	%rbp
 2525              	.LCFI75:
 2526              		.cfi_def_cfa_offset 16
 2527              		.cfi_offset 6, -16
 2528 0005 4889E5   		movq	%rsp, %rbp
 2529              	.LCFI76:
 2530              		.cfi_def_cfa_register 6
 2531 0008 4883EC50 		subq	$80, %rsp
 2532 000c 48897DC8 		movq	%rdi, -56(%rbp)
 2533 0010 488975C0 		movq	%rsi, -64(%rbp)
 2534 0014 488955B8 		movq	%rdx, -72(%rbp)
 2535              		.loc 1 720 1
 2536 0018 64488B04 		movq	%fs:40, %rax
 2536      25280000 
 2536      00
 2537 0021 488945F8 		movq	%rax, -8(%rbp)
 2538 0025 31C0     		xorl	%eax, %eax
 721:/home/xingli/share/LiteOS_Lab/network/dtls/mbedtls/mbedtls-2.16.2/library/oid.c ****     int ret;
 722:/home/xingli/share/LiteOS_Lab/network/dtls/mbedtls/mbedtls-2.16.2/library/oid.c ****     size_t i, n;
 723:/home/xingli/share/LiteOS_Lab/network/dtls/mbedtls/mbedtls-2.16.2/library/oid.c ****     unsigned int value;
 724:/home/xingli/share/LiteOS_Lab/network/dtls/mbedtls/mbedtls-2.16.2/library/oid.c ****     char *p;
 725:/home/xingli/share/LiteOS_Lab/network/dtls/mbedtls/mbedtls-2.16.2/library/oid.c **** 
 726:/home/xingli/share/LiteOS_Lab/network/dtls/mbedtls/mbedtls-2.16.2/library/oid.c ****     p = buf;
 2539              		.loc 1 726 7
 2540 0027 488B45C8 		movq	-56(%rbp), %rax
 2541 002b 488945F0 		movq	%rax, -16(%rbp)
 727:/home/xingli/share/LiteOS_Lab/network/dtls/mbedtls/mbedtls-2.16.2/library/oid.c ****     n = size;
 2542              		.loc 1 727 7
 2543 002f 488B45C0 		movq	-64(%rbp), %rax
 2544 0033 488945E8 		movq	%rax, -24(%rbp)
 728:/home/xingli/share/LiteOS_Lab/network/dtls/mbedtls/mbedtls-2.16.2/library/oid.c **** 
 729:/home/xingli/share/LiteOS_Lab/network/dtls/mbedtls/mbedtls-2.16.2/library/oid.c ****     /* First byte contains first two dots */
 730:/home/xingli/share/LiteOS_Lab/network/dtls/mbedtls/mbedtls-2.16.2/library/oid.c ****     if( oid->len > 0 )
 2545              		.loc 1 730 12
 2546 0037 488B45B8 		movq	-72(%rbp), %rax
 2547 003b 488B4008 		movq	8(%rax), %rax
 2548              		.loc 1 730 7
 2549 003f 4885C0   		testq	%rax, %rax
 2550 0042 0F84C000 		je	.L150
 2550      0000
GAS LISTING /tmp/ccHf1ECV.s 			page 74


 731:/home/xingli/share/LiteOS_Lab/network/dtls/mbedtls/mbedtls-2.16.2/library/oid.c ****     {
 732:/home/xingli/share/LiteOS_Lab/network/dtls/mbedtls/mbedtls-2.16.2/library/oid.c ****         ret = mbedtls_snprintf( p, n, "%d.%d", oid->p[0] / 40, oid->p[0] % 40 );
 2551              		.loc 1 732 15
 2552 0048 4C8B0D00 		movq	mbedtls_snprintf(%rip), %r9
 2552      000000
 2553              		.loc 1 732 67
 2554 004f 488B45B8 		movq	-72(%rbp), %rax
 2555 0053 488B4010 		movq	16(%rax), %rax
 2556              		.loc 1 732 70
 2557 0057 0FB608   		movzbl	(%rax), %ecx
 2558              		.loc 1 732 15
 2559 005a 0FB6D1   		movzbl	%cl, %edx
 2560 005d 89D0     		movl	%edx, %eax
 2561 005f C1E002   		sall	$2, %eax
 2562 0062 01D0     		addl	%edx, %eax
 2563 0064 C1E003   		sall	$3, %eax
 2564 0067 01D0     		addl	%edx, %eax
 2565 0069 8D148500 		leal	0(,%rax,4), %edx
 2565      000000
 2566 0070 01D0     		addl	%edx, %eax
 2567 0072 66C1E808 		shrw	$8, %ax
 2568 0076 89C2     		movl	%eax, %edx
 2569 0078 C0EA05   		shrb	$5, %dl
 2570 007b 89D0     		movl	%edx, %eax
 2571 007d C1E002   		sall	$2, %eax
 2572 0080 01D0     		addl	%edx, %eax
 2573 0082 C1E003   		sall	$3, %eax
 2574 0085 29C1     		subl	%eax, %ecx
 2575 0087 89CA     		movl	%ecx, %edx
 2576 0089 0FB6CA   		movzbl	%dl, %ecx
 2577              		.loc 1 732 51
 2578 008c 488B45B8 		movq	-72(%rbp), %rax
 2579 0090 488B4010 		movq	16(%rax), %rax
 2580              		.loc 1 732 54
 2581 0094 0FB600   		movzbl	(%rax), %eax
 2582              		.loc 1 732 15
 2583 0097 0FB6D0   		movzbl	%al, %edx
 2584 009a 89D0     		movl	%edx, %eax
 2585 009c C1E002   		sall	$2, %eax
 2586 009f 01D0     		addl	%edx, %eax
 2587 00a1 C1E003   		sall	$3, %eax
 2588 00a4 01D0     		addl	%edx, %eax
 2589 00a6 8D148500 		leal	0(,%rax,4), %edx
 2589      000000
 2590 00ad 01D0     		addl	%edx, %eax
 2591 00af 66C1E808 		shrw	$8, %ax
 2592 00b3 C0E805   		shrb	$5, %al
 2593 00b6 0FB6D0   		movzbl	%al, %edx
 2594 00b9 488B75E8 		movq	-24(%rbp), %rsi
 2595 00bd 488B45F0 		movq	-16(%rbp), %rax
 2596 00c1 4189C8   		movl	%ecx, %r8d
 2597 00c4 89D1     		movl	%edx, %ecx
 2598 00c6 488D1500 		leaq	.LC184(%rip), %rdx
 2598      000000
 2599 00cd 4889C7   		movq	%rax, %rdi
 2600 00d0 B8000000 		movl	$0, %eax
 2600      00
GAS LISTING /tmp/ccHf1ECV.s 			page 75


 2601 00d5 41FFD1   		call	*%r9
 2602              	.LVL0:
 2603 00d8 8945DC   		movl	%eax, -36(%rbp)
 733:/home/xingli/share/LiteOS_Lab/network/dtls/mbedtls/mbedtls-2.16.2/library/oid.c ****         OID_SAFE_SNPRINTF;
 2604              		.loc 1 733 9
 2605 00db 837DDC00 		cmpl	$0, -36(%rbp)
 2606 00df 780B     		js	.L151
 2607              		.loc 1 733 9 is_stmt 0 discriminator 2
 2608 00e1 8B45DC   		movl	-36(%rbp), %eax
 2609 00e4 4898     		cltq
 2610 00e6 483945E8 		cmpq	%rax, -24(%rbp)
 2611 00ea 770A     		ja	.L152
 2612              	.L151:
 2613              		.loc 1 733 9 discriminator 3
 2614 00ec B8F5FFFF 		movl	$-11, %eax
 2614      FF
 2615 00f1 E9F10000 		jmp	.L153
 2615      00
 2616              	.L152:
 2617              		.loc 1 733 9 discriminator 4
 2618 00f6 8B45DC   		movl	-36(%rbp), %eax
 2619 00f9 4898     		cltq
 2620 00fb 482945E8 		subq	%rax, -24(%rbp)
 2621 00ff 8B45DC   		movl	-36(%rbp), %eax
 2622 0102 4898     		cltq
 2623 0104 480145F0 		addq	%rax, -16(%rbp)
 2624              	.L150:
 734:/home/xingli/share/LiteOS_Lab/network/dtls/mbedtls/mbedtls-2.16.2/library/oid.c ****     }
 735:/home/xingli/share/LiteOS_Lab/network/dtls/mbedtls/mbedtls-2.16.2/library/oid.c **** 
 736:/home/xingli/share/LiteOS_Lab/network/dtls/mbedtls/mbedtls-2.16.2/library/oid.c ****     value = 0;
 2625              		.loc 1 736 11 is_stmt 1
 2626 0108 C745D800 		movl	$0, -40(%rbp)
 2626      000000
 737:/home/xingli/share/LiteOS_Lab/network/dtls/mbedtls/mbedtls-2.16.2/library/oid.c ****     for( i = 1; i < oid->len; i++ )
 2627              		.loc 1 737 12
 2628 010f 48C745E0 		movq	$1, -32(%rbp)
 2628      01000000 
 2629              		.loc 1 737 5
 2630 0117 E9AB0000 		jmp	.L154
 2630      00
 2631              	.L159:
 738:/home/xingli/share/LiteOS_Lab/network/dtls/mbedtls/mbedtls-2.16.2/library/oid.c ****     {
 739:/home/xingli/share/LiteOS_Lab/network/dtls/mbedtls/mbedtls-2.16.2/library/oid.c ****         /* Prevent overflow in value. */
 740:/home/xingli/share/LiteOS_Lab/network/dtls/mbedtls/mbedtls-2.16.2/library/oid.c ****         if( ( ( value << 7 ) >> 7 ) != value )
 2632              		.loc 1 740 30
 2633 011c 8B45D8   		movl	-40(%rbp), %eax
 2634 011f 25FFFFFF 		andl	$33554431, %eax
 2634      01
 2635              		.loc 1 740 11
 2636 0124 3945D8   		cmpl	%eax, -40(%rbp)
 2637 0127 740A     		je	.L155
 741:/home/xingli/share/LiteOS_Lab/network/dtls/mbedtls/mbedtls-2.16.2/library/oid.c ****             return( MBEDTLS_ERR_OID_BUF_TOO_SMALL );
 2638              		.loc 1 741 19
 2639 0129 B8F5FFFF 		movl	$-11, %eax
 2639      FF
 2640 012e E9B40000 		jmp	.L153
 2640      00
GAS LISTING /tmp/ccHf1ECV.s 			page 76


 2641              	.L155:
 742:/home/xingli/share/LiteOS_Lab/network/dtls/mbedtls/mbedtls-2.16.2/library/oid.c **** 
 743:/home/xingli/share/LiteOS_Lab/network/dtls/mbedtls/mbedtls-2.16.2/library/oid.c ****         value <<= 7;
 2642              		.loc 1 743 15
 2643 0133 C165D807 		sall	$7, -40(%rbp)
 744:/home/xingli/share/LiteOS_Lab/network/dtls/mbedtls/mbedtls-2.16.2/library/oid.c ****         value += oid->p[i] & 0x7F;
 2644              		.loc 1 744 21
 2645 0137 488B45B8 		movq	-72(%rbp), %rax
 2646 013b 488B5010 		movq	16(%rax), %rdx
 2647              		.loc 1 744 24
 2648 013f 488B45E0 		movq	-32(%rbp), %rax
 2649 0143 4801D0   		addq	%rdx, %rax
 2650 0146 0FB600   		movzbl	(%rax), %eax
 2651              		.loc 1 744 28
 2652 0149 0FB6C0   		movzbl	%al, %eax
 2653 014c 83E07F   		andl	$127, %eax
 2654              		.loc 1 744 15
 2655 014f 0145D8   		addl	%eax, -40(%rbp)
 745:/home/xingli/share/LiteOS_Lab/network/dtls/mbedtls/mbedtls-2.16.2/library/oid.c **** 
 746:/home/xingli/share/LiteOS_Lab/network/dtls/mbedtls/mbedtls-2.16.2/library/oid.c ****         if( !( oid->p[i] & 0x80 ) )
 2656              		.loc 1 746 19
 2657 0152 488B45B8 		movq	-72(%rbp), %rax
 2658 0156 488B5010 		movq	16(%rax), %rdx
 2659              		.loc 1 746 22
 2660 015a 488B45E0 		movq	-32(%rbp), %rax
 2661 015e 4801D0   		addq	%rdx, %rax
 2662 0161 0FB600   		movzbl	(%rax), %eax
 2663              		.loc 1 746 11
 2664 0164 84C0     		testb	%al, %al
 2665 0166 785A     		js	.L156
 747:/home/xingli/share/LiteOS_Lab/network/dtls/mbedtls/mbedtls-2.16.2/library/oid.c ****         {
 748:/home/xingli/share/LiteOS_Lab/network/dtls/mbedtls/mbedtls-2.16.2/library/oid.c ****             /* Last byte */
 749:/home/xingli/share/LiteOS_Lab/network/dtls/mbedtls/mbedtls-2.16.2/library/oid.c ****             ret = mbedtls_snprintf( p, n, ".%d", value );
 2666              		.loc 1 749 19
 2667 0168 4C8B0500 		movq	mbedtls_snprintf(%rip), %r8
 2667      000000
 2668 016f 8B55D8   		movl	-40(%rbp), %edx
 2669 0172 488B75E8 		movq	-24(%rbp), %rsi
 2670 0176 488B45F0 		movq	-16(%rbp), %rax
 2671 017a 89D1     		movl	%edx, %ecx
 2672 017c 488D1500 		leaq	.LC185(%rip), %rdx
 2672      000000
 2673 0183 4889C7   		movq	%rax, %rdi
 2674 0186 B8000000 		movl	$0, %eax
 2674      00
 2675 018b 41FFD0   		call	*%r8
 2676              	.LVL1:
 2677 018e 8945DC   		movl	%eax, -36(%rbp)
 750:/home/xingli/share/LiteOS_Lab/network/dtls/mbedtls/mbedtls-2.16.2/library/oid.c ****             OID_SAFE_SNPRINTF;
 2678              		.loc 1 750 13
 2679 0191 837DDC00 		cmpl	$0, -36(%rbp)
 2680 0195 780B     		js	.L157
 2681              		.loc 1 750 13 is_stmt 0 discriminator 2
 2682 0197 8B45DC   		movl	-36(%rbp), %eax
 2683 019a 4898     		cltq
 2684 019c 483945E8 		cmpq	%rax, -24(%rbp)
 2685 01a0 7707     		ja	.L158
GAS LISTING /tmp/ccHf1ECV.s 			page 77


 2686              	.L157:
 2687              		.loc 1 750 13 discriminator 3
 2688 01a2 B8F5FFFF 		movl	$-11, %eax
 2688      FF
 2689 01a7 EB3E     		jmp	.L153
 2690              	.L158:
 2691              		.loc 1 750 13 discriminator 4
 2692 01a9 8B45DC   		movl	-36(%rbp), %eax
 2693 01ac 4898     		cltq
 2694 01ae 482945E8 		subq	%rax, -24(%rbp)
 2695 01b2 8B45DC   		movl	-36(%rbp), %eax
 2696 01b5 4898     		cltq
 2697 01b7 480145F0 		addq	%rax, -16(%rbp)
 751:/home/xingli/share/LiteOS_Lab/network/dtls/mbedtls/mbedtls-2.16.2/library/oid.c ****             value = 0;
 2698              		.loc 1 751 19 is_stmt 1 discriminator 4
 2699 01bb C745D800 		movl	$0, -40(%rbp)
 2699      000000
 2700              	.L156:
 737:/home/xingli/share/LiteOS_Lab/network/dtls/mbedtls/mbedtls-2.16.2/library/oid.c ****     {
 2701              		.loc 1 737 32 discriminator 2
 2702 01c2 488345E0 		addq	$1, -32(%rbp)
 2702      01
 2703              	.L154:
 737:/home/xingli/share/LiteOS_Lab/network/dtls/mbedtls/mbedtls-2.16.2/library/oid.c ****     {
 2704              		.loc 1 737 24 discriminator 1
 2705 01c7 488B45B8 		movq	-72(%rbp), %rax
 2706 01cb 488B4008 		movq	8(%rax), %rax
 737:/home/xingli/share/LiteOS_Lab/network/dtls/mbedtls/mbedtls-2.16.2/library/oid.c ****     {
 2707              		.loc 1 737 5 discriminator 1
 2708 01cf 483945E0 		cmpq	%rax, -32(%rbp)
 2709 01d3 0F8243FF 		jb	.L159
 2709      FFFF
 752:/home/xingli/share/LiteOS_Lab/network/dtls/mbedtls/mbedtls-2.16.2/library/oid.c ****         }
 753:/home/xingli/share/LiteOS_Lab/network/dtls/mbedtls/mbedtls-2.16.2/library/oid.c ****     }
 754:/home/xingli/share/LiteOS_Lab/network/dtls/mbedtls/mbedtls-2.16.2/library/oid.c **** 
 755:/home/xingli/share/LiteOS_Lab/network/dtls/mbedtls/mbedtls-2.16.2/library/oid.c ****     return( (int) ( size - n ) );
 2710              		.loc 1 755 26
 2711 01d9 488B45C0 		movq	-64(%rbp), %rax
 2712 01dd 89C2     		movl	%eax, %edx
 2713 01df 488B45E8 		movq	-24(%rbp), %rax
 2714 01e3 29C2     		subl	%eax, %edx
 2715 01e5 89D0     		movl	%edx, %eax
 2716              	.L153:
 756:/home/xingli/share/LiteOS_Lab/network/dtls/mbedtls/mbedtls-2.16.2/library/oid.c **** }
 2717              		.loc 1 756 1
 2718 01e7 488B7DF8 		movq	-8(%rbp), %rdi
 2719 01eb 6448333C 		xorq	%fs:40, %rdi
 2719      25280000 
 2719      00
 2720 01f4 7405     		je	.L160
 2721 01f6 E8000000 		call	__stack_chk_fail@PLT
 2721      00
 2722              	.L160:
 2723 01fb C9       		leave
 2724              	.LCFI77:
 2725              		.cfi_def_cfa 7, 8
 2726 01fc C3       		ret
GAS LISTING /tmp/ccHf1ECV.s 			page 78


 2727              		.cfi_endproc
 2728              	.LFE41:
 2730              		.text
 2731              	.Letext0:
 2732              		.file 2 "/usr/lib/gcc/x86_64-linux-gnu/9/include/stddef.h"
 2733              		.file 3 "/usr/include/x86_64-linux-gnu/bits/types.h"
 2734              		.file 4 "/home/xingli/share/LiteOS_Lab/network/dtls/mbedtls/mbedtls-2.16.2/include/mbedtls/asn1.h"
 2735              		.file 5 "/home/xingli/share/LiteOS_Lab/network/dtls/mbedtls/mbedtls-2.16.2/include/mbedtls/md.h"
 2736              		.file 6 "/home/xingli/share/LiteOS_Lab/network/dtls/mbedtls/mbedtls-2.16.2/include/mbedtls/ecp.h"
 2737              		.file 7 "/home/xingli/share/LiteOS_Lab/network/dtls/mbedtls/mbedtls-2.16.2/include/mbedtls/pk.h"
 2738              		.file 8 "/home/xingli/share/LiteOS_Lab/network/dtls/mbedtls/mbedtls-2.16.2/include/mbedtls/cipher.
 2739              		.file 9 "/home/xingli/share/LiteOS_Lab/network/dtls/mbedtls/mbedtls-2.16.2/include/mbedtls/oid.h"
 2740              		.file 10 "/usr/include/x86_64-linux-gnu/bits/types/struct_FILE.h"
 2741              		.file 11 "/usr/include/x86_64-linux-gnu/bits/types/FILE.h"
 2742              		.file 12 "/usr/include/stdio.h"
 2743              		.file 13 "/usr/include/x86_64-linux-gnu/bits/sys_errlist.h"
 2744              		.file 14 "/usr/include/time.h"
 2745              		.file 15 "/home/xingli/share/LiteOS_Lab/network/dtls/mbedtls/mbedtls-2.16.2/include/mbedtls/platfo
 7268              		.section	.note.gnu.property,"a"
 7269              		.align 8
 7270 0000 04000000 		.long	 1f - 0f
 7271 0004 10000000 		.long	 4f - 1f
 7272 0008 05000000 		.long	 5
 7273              	0:
 7274 000c 474E5500 		.string	 "GNU"
 7275              	1:
 7276              		.align 8
 7277 0010 020000C0 		.long	 0xc0000002
 7278 0014 04000000 		.long	 3f - 2f
 7279              	2:
 7280 0018 03000000 		.long	 0x3
 7281              	3:
 7282 001c 00000000 		.align 8
 7283              	4:
GAS LISTING /tmp/ccHf1ECV.s 			page 79

