GAS LISTING /tmp/ccV3GUoK.s 			page 1


   1              		.file	"pkcs12.c"
   2              		.text
   3              	.Ltext0:
   4              		.section	.text.pkcs12_parse_pbe_params,"ax",@progbits
   6              	pkcs12_parse_pbe_params:
   7              	.LFB7:
   8              		.file 1 "/home/xingli/share/1205tiny/network/dtls/mbedtls/mbedtls-2.16.2/library/pkcs12.c"
   1:/home/xingli/share/1205tiny/network/dtls/mbedtls/mbedtls-2.16.2/library/pkcs12.c **** /*
   2:/home/xingli/share/1205tiny/network/dtls/mbedtls/mbedtls-2.16.2/library/pkcs12.c ****  *  PKCS#12 Personal Information Exchange Syntax
   3:/home/xingli/share/1205tiny/network/dtls/mbedtls/mbedtls-2.16.2/library/pkcs12.c ****  *
   4:/home/xingli/share/1205tiny/network/dtls/mbedtls/mbedtls-2.16.2/library/pkcs12.c ****  *  Copyright (C) 2006-2015, ARM Limited, All Rights Reserved
   5:/home/xingli/share/1205tiny/network/dtls/mbedtls/mbedtls-2.16.2/library/pkcs12.c ****  *  SPDX-License-Identifier: Apache-2.0
   6:/home/xingli/share/1205tiny/network/dtls/mbedtls/mbedtls-2.16.2/library/pkcs12.c ****  *
   7:/home/xingli/share/1205tiny/network/dtls/mbedtls/mbedtls-2.16.2/library/pkcs12.c ****  *  Licensed under the Apache License, Version 2.0 (the "License"); you may
   8:/home/xingli/share/1205tiny/network/dtls/mbedtls/mbedtls-2.16.2/library/pkcs12.c ****  *  not use this file except in compliance with the License.
   9:/home/xingli/share/1205tiny/network/dtls/mbedtls/mbedtls-2.16.2/library/pkcs12.c ****  *  You may obtain a copy of the License at
  10:/home/xingli/share/1205tiny/network/dtls/mbedtls/mbedtls-2.16.2/library/pkcs12.c ****  *
  11:/home/xingli/share/1205tiny/network/dtls/mbedtls/mbedtls-2.16.2/library/pkcs12.c ****  *  http://www.apache.org/licenses/LICENSE-2.0
  12:/home/xingli/share/1205tiny/network/dtls/mbedtls/mbedtls-2.16.2/library/pkcs12.c ****  *
  13:/home/xingli/share/1205tiny/network/dtls/mbedtls/mbedtls-2.16.2/library/pkcs12.c ****  *  Unless required by applicable law or agreed to in writing, software
  14:/home/xingli/share/1205tiny/network/dtls/mbedtls/mbedtls-2.16.2/library/pkcs12.c ****  *  distributed under the License is distributed on an "AS IS" BASIS, WITHOUT
  15:/home/xingli/share/1205tiny/network/dtls/mbedtls/mbedtls-2.16.2/library/pkcs12.c ****  *  WARRANTIES OR CONDITIONS OF ANY KIND, either express or implied.
  16:/home/xingli/share/1205tiny/network/dtls/mbedtls/mbedtls-2.16.2/library/pkcs12.c ****  *  See the License for the specific language governing permissions and
  17:/home/xingli/share/1205tiny/network/dtls/mbedtls/mbedtls-2.16.2/library/pkcs12.c ****  *  limitations under the License.
  18:/home/xingli/share/1205tiny/network/dtls/mbedtls/mbedtls-2.16.2/library/pkcs12.c ****  *
  19:/home/xingli/share/1205tiny/network/dtls/mbedtls/mbedtls-2.16.2/library/pkcs12.c ****  *  This file is part of mbed TLS (https://tls.mbed.org)
  20:/home/xingli/share/1205tiny/network/dtls/mbedtls/mbedtls-2.16.2/library/pkcs12.c ****  */
  21:/home/xingli/share/1205tiny/network/dtls/mbedtls/mbedtls-2.16.2/library/pkcs12.c **** /*
  22:/home/xingli/share/1205tiny/network/dtls/mbedtls/mbedtls-2.16.2/library/pkcs12.c ****  *  The PKCS #12 Personal Information Exchange Syntax Standard v1.1
  23:/home/xingli/share/1205tiny/network/dtls/mbedtls/mbedtls-2.16.2/library/pkcs12.c ****  *
  24:/home/xingli/share/1205tiny/network/dtls/mbedtls/mbedtls-2.16.2/library/pkcs12.c ****  *  http://www.rsa.com/rsalabs/pkcs/files/h11301-wp-pkcs-12v1-1-personal-information-exchange-synta
  25:/home/xingli/share/1205tiny/network/dtls/mbedtls/mbedtls-2.16.2/library/pkcs12.c ****  *  ftp://ftp.rsasecurity.com/pub/pkcs/pkcs-12/pkcs-12v1-1.asn
  26:/home/xingli/share/1205tiny/network/dtls/mbedtls/mbedtls-2.16.2/library/pkcs12.c ****  */
  27:/home/xingli/share/1205tiny/network/dtls/mbedtls/mbedtls-2.16.2/library/pkcs12.c **** 
  28:/home/xingli/share/1205tiny/network/dtls/mbedtls/mbedtls-2.16.2/library/pkcs12.c **** #if !defined(MBEDTLS_CONFIG_FILE)
  29:/home/xingli/share/1205tiny/network/dtls/mbedtls/mbedtls-2.16.2/library/pkcs12.c **** #include "mbedtls/config.h"
  30:/home/xingli/share/1205tiny/network/dtls/mbedtls/mbedtls-2.16.2/library/pkcs12.c **** #else
  31:/home/xingli/share/1205tiny/network/dtls/mbedtls/mbedtls-2.16.2/library/pkcs12.c **** #include MBEDTLS_CONFIG_FILE
  32:/home/xingli/share/1205tiny/network/dtls/mbedtls/mbedtls-2.16.2/library/pkcs12.c **** #endif
  33:/home/xingli/share/1205tiny/network/dtls/mbedtls/mbedtls-2.16.2/library/pkcs12.c **** 
  34:/home/xingli/share/1205tiny/network/dtls/mbedtls/mbedtls-2.16.2/library/pkcs12.c **** #if defined(MBEDTLS_PKCS12_C)
  35:/home/xingli/share/1205tiny/network/dtls/mbedtls/mbedtls-2.16.2/library/pkcs12.c **** 
  36:/home/xingli/share/1205tiny/network/dtls/mbedtls/mbedtls-2.16.2/library/pkcs12.c **** #include "mbedtls/pkcs12.h"
  37:/home/xingli/share/1205tiny/network/dtls/mbedtls/mbedtls-2.16.2/library/pkcs12.c **** #include "mbedtls/asn1.h"
  38:/home/xingli/share/1205tiny/network/dtls/mbedtls/mbedtls-2.16.2/library/pkcs12.c **** #include "mbedtls/cipher.h"
  39:/home/xingli/share/1205tiny/network/dtls/mbedtls/mbedtls-2.16.2/library/pkcs12.c **** #include "mbedtls/platform_util.h"
  40:/home/xingli/share/1205tiny/network/dtls/mbedtls/mbedtls-2.16.2/library/pkcs12.c **** 
  41:/home/xingli/share/1205tiny/network/dtls/mbedtls/mbedtls-2.16.2/library/pkcs12.c **** #include <string.h>
  42:/home/xingli/share/1205tiny/network/dtls/mbedtls/mbedtls-2.16.2/library/pkcs12.c **** 
  43:/home/xingli/share/1205tiny/network/dtls/mbedtls/mbedtls-2.16.2/library/pkcs12.c **** #if defined(MBEDTLS_ARC4_C)
  44:/home/xingli/share/1205tiny/network/dtls/mbedtls/mbedtls-2.16.2/library/pkcs12.c **** #include "mbedtls/arc4.h"
  45:/home/xingli/share/1205tiny/network/dtls/mbedtls/mbedtls-2.16.2/library/pkcs12.c **** #endif
  46:/home/xingli/share/1205tiny/network/dtls/mbedtls/mbedtls-2.16.2/library/pkcs12.c **** 
  47:/home/xingli/share/1205tiny/network/dtls/mbedtls/mbedtls-2.16.2/library/pkcs12.c **** #if defined(MBEDTLS_DES_C)
  48:/home/xingli/share/1205tiny/network/dtls/mbedtls/mbedtls-2.16.2/library/pkcs12.c **** #include "mbedtls/des.h"
  49:/home/xingli/share/1205tiny/network/dtls/mbedtls/mbedtls-2.16.2/library/pkcs12.c **** #endif
  50:/home/xingli/share/1205tiny/network/dtls/mbedtls/mbedtls-2.16.2/library/pkcs12.c **** 
GAS LISTING /tmp/ccV3GUoK.s 			page 2


  51:/home/xingli/share/1205tiny/network/dtls/mbedtls/mbedtls-2.16.2/library/pkcs12.c **** #if defined(MBEDTLS_ASN1_PARSE_C)
  52:/home/xingli/share/1205tiny/network/dtls/mbedtls/mbedtls-2.16.2/library/pkcs12.c **** 
  53:/home/xingli/share/1205tiny/network/dtls/mbedtls/mbedtls-2.16.2/library/pkcs12.c **** static int pkcs12_parse_pbe_params( mbedtls_asn1_buf *params,
  54:/home/xingli/share/1205tiny/network/dtls/mbedtls/mbedtls-2.16.2/library/pkcs12.c ****                                     mbedtls_asn1_buf *salt, int *iterations )
  55:/home/xingli/share/1205tiny/network/dtls/mbedtls/mbedtls-2.16.2/library/pkcs12.c **** {
   9              		.loc 1 55 1
  10              		.cfi_startproc
  11 0000 F30F1EFA 		endbr64
  12 0004 55       		pushq	%rbp
  13              	.LCFI0:
  14              		.cfi_def_cfa_offset 16
  15              		.cfi_offset 6, -16
  16 0005 4889E5   		movq	%rsp, %rbp
  17              	.LCFI1:
  18              		.cfi_def_cfa_register 6
  19 0008 4883EC40 		subq	$64, %rsp
  20 000c 48897DD8 		movq	%rdi, -40(%rbp)
  21 0010 488975D0 		movq	%rsi, -48(%rbp)
  22 0014 488955C8 		movq	%rdx, -56(%rbp)
  23              		.loc 1 55 1
  24 0018 64488B04 		movq	%fs:40, %rax
  24      25280000 
  24      00
  25 0021 488945F8 		movq	%rax, -8(%rbp)
  26 0025 31C0     		xorl	%eax, %eax
  56:/home/xingli/share/1205tiny/network/dtls/mbedtls/mbedtls-2.16.2/library/pkcs12.c ****     int ret;
  57:/home/xingli/share/1205tiny/network/dtls/mbedtls/mbedtls-2.16.2/library/pkcs12.c ****     unsigned char **p = &params->p;
  27              		.loc 1 57 21
  28 0027 488B45D8 		movq	-40(%rbp), %rax
  29 002b 4883C010 		addq	$16, %rax
  30 002f 488945E8 		movq	%rax, -24(%rbp)
  58:/home/xingli/share/1205tiny/network/dtls/mbedtls/mbedtls-2.16.2/library/pkcs12.c ****     const unsigned char *end = params->p + params->len;
  31              		.loc 1 58 38
  32 0033 488B45D8 		movq	-40(%rbp), %rax
  33 0037 488B5010 		movq	16(%rax), %rdx
  34              		.loc 1 58 50
  35 003b 488B45D8 		movq	-40(%rbp), %rax
  36 003f 488B4008 		movq	8(%rax), %rax
  37              		.loc 1 58 26
  38 0043 4801D0   		addq	%rdx, %rax
  39 0046 488945F0 		movq	%rax, -16(%rbp)
  59:/home/xingli/share/1205tiny/network/dtls/mbedtls/mbedtls-2.16.2/library/pkcs12.c **** 
  60:/home/xingli/share/1205tiny/network/dtls/mbedtls/mbedtls-2.16.2/library/pkcs12.c ****     /*
  61:/home/xingli/share/1205tiny/network/dtls/mbedtls/mbedtls-2.16.2/library/pkcs12.c ****      *  pkcs-12PbeParams ::= SEQUENCE {
  62:/home/xingli/share/1205tiny/network/dtls/mbedtls/mbedtls-2.16.2/library/pkcs12.c ****      *    salt          OCTET STRING,
  63:/home/xingli/share/1205tiny/network/dtls/mbedtls/mbedtls-2.16.2/library/pkcs12.c ****      *    iterations    INTEGER
  64:/home/xingli/share/1205tiny/network/dtls/mbedtls/mbedtls-2.16.2/library/pkcs12.c ****      *  }
  65:/home/xingli/share/1205tiny/network/dtls/mbedtls/mbedtls-2.16.2/library/pkcs12.c ****      *
  66:/home/xingli/share/1205tiny/network/dtls/mbedtls/mbedtls-2.16.2/library/pkcs12.c ****      */
  67:/home/xingli/share/1205tiny/network/dtls/mbedtls/mbedtls-2.16.2/library/pkcs12.c ****     if( params->tag != ( MBEDTLS_ASN1_CONSTRUCTED | MBEDTLS_ASN1_SEQUENCE ) )
  40              		.loc 1 67 15
  41 004a 488B45D8 		movq	-40(%rbp), %rax
  42 004e 8B00     		movl	(%rax), %eax
  43              		.loc 1 67 7
  44 0050 83F830   		cmpl	$48, %eax
  45 0053 740A     		je	.L2
  68:/home/xingli/share/1205tiny/network/dtls/mbedtls/mbedtls-2.16.2/library/pkcs12.c ****         return( MBEDTLS_ERR_PKCS12_PBE_INVALID_FORMAT +
GAS LISTING /tmp/ccV3GUoK.s 			page 3


  46              		.loc 1 68 15
  47 0055 B81EE1FF 		movl	$-7906, %eax
  47      FF
  48 005a E99B0000 		jmp	.L3
  48      00
  49              	.L2:
  69:/home/xingli/share/1205tiny/network/dtls/mbedtls/mbedtls-2.16.2/library/pkcs12.c ****                 MBEDTLS_ERR_ASN1_UNEXPECTED_TAG );
  70:/home/xingli/share/1205tiny/network/dtls/mbedtls/mbedtls-2.16.2/library/pkcs12.c **** 
  71:/home/xingli/share/1205tiny/network/dtls/mbedtls/mbedtls-2.16.2/library/pkcs12.c ****     if( ( ret = mbedtls_asn1_get_tag( p, end, &salt->len, MBEDTLS_ASN1_OCTET_STRING ) ) != 0 )
  50              		.loc 1 71 17
  51 005f 488B45D0 		movq	-48(%rbp), %rax
  52 0063 488D5008 		leaq	8(%rax), %rdx
  53 0067 488B75F0 		movq	-16(%rbp), %rsi
  54 006b 488B45E8 		movq	-24(%rbp), %rax
  55 006f B9040000 		movl	$4, %ecx
  55      00
  56 0074 4889C7   		movq	%rax, %rdi
  57 0077 E8000000 		call	mbedtls_asn1_get_tag@PLT
  57      00
  58 007c 8945E4   		movl	%eax, -28(%rbp)
  59              		.loc 1 71 7
  60 007f 837DE400 		cmpl	$0, -28(%rbp)
  61 0083 740A     		je	.L4
  72:/home/xingli/share/1205tiny/network/dtls/mbedtls/mbedtls-2.16.2/library/pkcs12.c ****         return( MBEDTLS_ERR_PKCS12_PBE_INVALID_FORMAT + ret );
  62              		.loc 1 72 55
  63 0085 8B45E4   		movl	-28(%rbp), %eax
  64 0088 2D801E00 		subl	$7808, %eax
  64      00
  65 008d EB6B     		jmp	.L3
  66              	.L4:
  73:/home/xingli/share/1205tiny/network/dtls/mbedtls/mbedtls-2.16.2/library/pkcs12.c **** 
  74:/home/xingli/share/1205tiny/network/dtls/mbedtls/mbedtls-2.16.2/library/pkcs12.c ****     salt->p = *p;
  67              		.loc 1 74 15
  68 008f 488B45E8 		movq	-24(%rbp), %rax
  69 0093 488B10   		movq	(%rax), %rdx
  70              		.loc 1 74 13
  71 0096 488B45D0 		movq	-48(%rbp), %rax
  72 009a 48895010 		movq	%rdx, 16(%rax)
  75:/home/xingli/share/1205tiny/network/dtls/mbedtls/mbedtls-2.16.2/library/pkcs12.c ****     *p += salt->len;
  73              		.loc 1 75 8
  74 009e 488B45E8 		movq	-24(%rbp), %rax
  75 00a2 488B10   		movq	(%rax), %rdx
  76              		.loc 1 75 15
  77 00a5 488B45D0 		movq	-48(%rbp), %rax
  78 00a9 488B4008 		movq	8(%rax), %rax
  79              		.loc 1 75 8
  80 00ad 4801C2   		addq	%rax, %rdx
  81 00b0 488B45E8 		movq	-24(%rbp), %rax
  82 00b4 488910   		movq	%rdx, (%rax)
  76:/home/xingli/share/1205tiny/network/dtls/mbedtls/mbedtls-2.16.2/library/pkcs12.c **** 
  77:/home/xingli/share/1205tiny/network/dtls/mbedtls/mbedtls-2.16.2/library/pkcs12.c ****     if( ( ret = mbedtls_asn1_get_int( p, end, iterations ) ) != 0 )
  83              		.loc 1 77 17
  84 00b7 488B55C8 		movq	-56(%rbp), %rdx
  85 00bb 488B4DF0 		movq	-16(%rbp), %rcx
  86 00bf 488B45E8 		movq	-24(%rbp), %rax
  87 00c3 4889CE   		movq	%rcx, %rsi
  88 00c6 4889C7   		movq	%rax, %rdi
GAS LISTING /tmp/ccV3GUoK.s 			page 4


  89 00c9 E8000000 		call	mbedtls_asn1_get_int@PLT
  89      00
  90 00ce 8945E4   		movl	%eax, -28(%rbp)
  91              		.loc 1 77 7
  92 00d1 837DE400 		cmpl	$0, -28(%rbp)
  93 00d5 740A     		je	.L5
  78:/home/xingli/share/1205tiny/network/dtls/mbedtls/mbedtls-2.16.2/library/pkcs12.c ****         return( MBEDTLS_ERR_PKCS12_PBE_INVALID_FORMAT + ret );
  94              		.loc 1 78 55
  95 00d7 8B45E4   		movl	-28(%rbp), %eax
  96 00da 2D801E00 		subl	$7808, %eax
  96      00
  97 00df EB19     		jmp	.L3
  98              	.L5:
  79:/home/xingli/share/1205tiny/network/dtls/mbedtls/mbedtls-2.16.2/library/pkcs12.c **** 
  80:/home/xingli/share/1205tiny/network/dtls/mbedtls/mbedtls-2.16.2/library/pkcs12.c ****     if( *p != end )
  99              		.loc 1 80 9
 100 00e1 488B45E8 		movq	-24(%rbp), %rax
 101 00e5 488B00   		movq	(%rax), %rax
 102              		.loc 1 80 7
 103 00e8 483945F0 		cmpq	%rax, -16(%rbp)
 104 00ec 7407     		je	.L6
  81:/home/xingli/share/1205tiny/network/dtls/mbedtls/mbedtls-2.16.2/library/pkcs12.c ****         return( MBEDTLS_ERR_PKCS12_PBE_INVALID_FORMAT +
 105              		.loc 1 81 15
 106 00ee B81AE1FF 		movl	$-7910, %eax
 106      FF
 107 00f3 EB05     		jmp	.L3
 108              	.L6:
  82:/home/xingli/share/1205tiny/network/dtls/mbedtls/mbedtls-2.16.2/library/pkcs12.c ****                 MBEDTLS_ERR_ASN1_LENGTH_MISMATCH );
  83:/home/xingli/share/1205tiny/network/dtls/mbedtls/mbedtls-2.16.2/library/pkcs12.c **** 
  84:/home/xingli/share/1205tiny/network/dtls/mbedtls/mbedtls-2.16.2/library/pkcs12.c ****     return( 0 );
 109              		.loc 1 84 11
 110 00f5 B8000000 		movl	$0, %eax
 110      00
 111              	.L3:
  85:/home/xingli/share/1205tiny/network/dtls/mbedtls/mbedtls-2.16.2/library/pkcs12.c **** }
 112              		.loc 1 85 1
 113 00fa 488B4DF8 		movq	-8(%rbp), %rcx
 114 00fe 6448330C 		xorq	%fs:40, %rcx
 114      25280000 
 114      00
 115 0107 7405     		je	.L7
 116 0109 E8000000 		call	__stack_chk_fail@PLT
 116      00
 117              	.L7:
 118 010e C9       		leave
 119              	.LCFI2:
 120              		.cfi_def_cfa 7, 8
 121 010f C3       		ret
 122              		.cfi_endproc
 123              	.LFE7:
 125              		.section	.text.pkcs12_pbe_derive_key_iv,"ax",@progbits
 127              	pkcs12_pbe_derive_key_iv:
 128              	.LFB8:
  86:/home/xingli/share/1205tiny/network/dtls/mbedtls/mbedtls-2.16.2/library/pkcs12.c **** 
  87:/home/xingli/share/1205tiny/network/dtls/mbedtls/mbedtls-2.16.2/library/pkcs12.c **** #define PKCS12_MAX_PWDLEN 128
  88:/home/xingli/share/1205tiny/network/dtls/mbedtls/mbedtls-2.16.2/library/pkcs12.c **** 
  89:/home/xingli/share/1205tiny/network/dtls/mbedtls/mbedtls-2.16.2/library/pkcs12.c **** static int pkcs12_pbe_derive_key_iv( mbedtls_asn1_buf *pbe_params, mbedtls_md_type_t md_type,
GAS LISTING /tmp/ccV3GUoK.s 			page 5


  90:/home/xingli/share/1205tiny/network/dtls/mbedtls/mbedtls-2.16.2/library/pkcs12.c ****                                      const unsigned char *pwd,  size_t pwdlen,
  91:/home/xingli/share/1205tiny/network/dtls/mbedtls/mbedtls-2.16.2/library/pkcs12.c ****                                      unsigned char *key, size_t keylen,
  92:/home/xingli/share/1205tiny/network/dtls/mbedtls/mbedtls-2.16.2/library/pkcs12.c ****                                      unsigned char *iv,  size_t ivlen )
  93:/home/xingli/share/1205tiny/network/dtls/mbedtls/mbedtls-2.16.2/library/pkcs12.c **** {
 129              		.loc 1 93 1
 130              		.cfi_startproc
 131 0000 F30F1EFA 		endbr64
 132 0004 55       		pushq	%rbp
 133              	.LCFI3:
 134              		.cfi_def_cfa_offset 16
 135              		.cfi_offset 6, -16
 136 0005 4889E5   		movq	%rsp, %rbp
 137              	.LCFI4:
 138              		.cfi_def_cfa_register 6
 139 0008 4881EC80 		subq	$384, %rsp
 139      010000
 140 000f 4889BDB8 		movq	%rdi, -328(%rbp)
 140      FEFFFF
 141 0016 89B5B4FE 		movl	%esi, -332(%rbp)
 141      FFFF
 142 001c 488995A8 		movq	%rdx, -344(%rbp)
 142      FEFFFF
 143 0023 48898DA0 		movq	%rcx, -352(%rbp)
 143      FEFFFF
 144 002a 4C898598 		movq	%r8, -360(%rbp)
 144      FEFFFF
 145 0031 4C898D90 		movq	%r9, -368(%rbp)
 145      FEFFFF
 146 0038 488B4510 		movq	16(%rbp), %rax
 147 003c 48898588 		movq	%rax, -376(%rbp)
 147      FEFFFF
 148 0043 488B4518 		movq	24(%rbp), %rax
 149 0047 48898580 		movq	%rax, -384(%rbp)
 149      FEFFFF
 150              		.loc 1 93 1
 151 004e 64488B04 		movq	%fs:40, %rax
 151      25280000 
 151      00
 152 0057 488945F8 		movq	%rax, -8(%rbp)
 153 005b 31C0     		xorl	%eax, %eax
  94:/home/xingli/share/1205tiny/network/dtls/mbedtls/mbedtls-2.16.2/library/pkcs12.c ****     int ret, iterations = 0;
 154              		.loc 1 94 14
 155 005d C785C0FE 		movl	$0, -320(%rbp)
 155      FFFF0000 
 155      0000
  95:/home/xingli/share/1205tiny/network/dtls/mbedtls/mbedtls-2.16.2/library/pkcs12.c ****     mbedtls_asn1_buf salt;
  96:/home/xingli/share/1205tiny/network/dtls/mbedtls/mbedtls-2.16.2/library/pkcs12.c ****     size_t i;
  97:/home/xingli/share/1205tiny/network/dtls/mbedtls/mbedtls-2.16.2/library/pkcs12.c ****     unsigned char unipwd[PKCS12_MAX_PWDLEN * 2 + 2];
  98:/home/xingli/share/1205tiny/network/dtls/mbedtls/mbedtls-2.16.2/library/pkcs12.c **** 
  99:/home/xingli/share/1205tiny/network/dtls/mbedtls/mbedtls-2.16.2/library/pkcs12.c ****     if( pwdlen > PKCS12_MAX_PWDLEN )
 156              		.loc 1 99 7
 157 0067 4881BDA0 		cmpq	$128, -352(%rbp)
 157      FEFFFF80 
 157      000000
 158 0072 760A     		jbe	.L9
 100:/home/xingli/share/1205tiny/network/dtls/mbedtls/mbedtls-2.16.2/library/pkcs12.c ****         return( MBEDTLS_ERR_PKCS12_BAD_INPUT_DATA );
 159              		.loc 1 100 15
GAS LISTING /tmp/ccV3GUoK.s 			page 6


 160 0074 B880E0FF 		movl	$-8064, %eax
 160      FF
 161 0079 E9AF0100 		jmp	.L18
 161      00
 162              	.L9:
 101:/home/xingli/share/1205tiny/network/dtls/mbedtls/mbedtls-2.16.2/library/pkcs12.c **** 
 102:/home/xingli/share/1205tiny/network/dtls/mbedtls/mbedtls-2.16.2/library/pkcs12.c ****     memset( &salt, 0, sizeof(mbedtls_asn1_buf) );
 163              		.loc 1 102 5
 164 007e 488D85D0 		leaq	-304(%rbp), %rax
 164      FEFFFF
 165 0085 BA180000 		movl	$24, %edx
 165      00
 166 008a BE000000 		movl	$0, %esi
 166      00
 167 008f 4889C7   		movq	%rax, %rdi
 168 0092 E8000000 		call	memset@PLT
 168      00
 103:/home/xingli/share/1205tiny/network/dtls/mbedtls/mbedtls-2.16.2/library/pkcs12.c ****     memset( &unipwd, 0, sizeof(unipwd) );
 169              		.loc 1 103 5
 170 0097 488D85F0 		leaq	-272(%rbp), %rax
 170      FEFFFF
 171 009e BA020100 		movl	$258, %edx
 171      00
 172 00a3 BE000000 		movl	$0, %esi
 172      00
 173 00a8 4889C7   		movq	%rax, %rdi
 174 00ab E8000000 		call	memset@PLT
 174      00
 104:/home/xingli/share/1205tiny/network/dtls/mbedtls/mbedtls-2.16.2/library/pkcs12.c **** 
 105:/home/xingli/share/1205tiny/network/dtls/mbedtls/mbedtls-2.16.2/library/pkcs12.c ****     if( ( ret = pkcs12_parse_pbe_params( pbe_params, &salt,
 175              		.loc 1 105 17
 176 00b0 488D95C0 		leaq	-320(%rbp), %rdx
 176      FEFFFF
 177 00b7 488D8DD0 		leaq	-304(%rbp), %rcx
 177      FEFFFF
 178 00be 488B85B8 		movq	-328(%rbp), %rax
 178      FEFFFF
 179 00c5 4889CE   		movq	%rcx, %rsi
 180 00c8 4889C7   		movq	%rax, %rdi
 181 00cb E8000000 		call	pkcs12_parse_pbe_params
 181      00
 182 00d0 8985C4FE 		movl	%eax, -316(%rbp)
 182      FFFF
 183              		.loc 1 105 7
 184 00d6 83BDC4FE 		cmpl	$0, -316(%rbp)
 184      FFFF00
 185 00dd 740B     		je	.L11
 106:/home/xingli/share/1205tiny/network/dtls/mbedtls/mbedtls-2.16.2/library/pkcs12.c ****                                          &iterations ) ) != 0 )
 107:/home/xingli/share/1205tiny/network/dtls/mbedtls/mbedtls-2.16.2/library/pkcs12.c ****         return( ret );
 186              		.loc 1 107 15
 187 00df 8B85C4FE 		movl	-316(%rbp), %eax
 187      FFFF
 188 00e5 E9430100 		jmp	.L18
 188      00
 189              	.L11:
 108:/home/xingli/share/1205tiny/network/dtls/mbedtls/mbedtls-2.16.2/library/pkcs12.c **** 
 109:/home/xingli/share/1205tiny/network/dtls/mbedtls/mbedtls-2.16.2/library/pkcs12.c ****     for( i = 0; i < pwdlen; i++ )
GAS LISTING /tmp/ccV3GUoK.s 			page 7


 190              		.loc 1 109 12
 191 00ea 48C785C8 		movq	$0, -312(%rbp)
 191      FEFFFF00 
 191      000000
 192              		.loc 1 109 5
 193 00f5 EB31     		jmp	.L12
 194              	.L13:
 110:/home/xingli/share/1205tiny/network/dtls/mbedtls/mbedtls-2.16.2/library/pkcs12.c ****         unipwd[i * 2 + 1] = pwd[i];
 195              		.loc 1 110 32 discriminator 3
 196 00f7 488B95A8 		movq	-344(%rbp), %rdx
 196      FEFFFF
 197 00fe 488B85C8 		movq	-312(%rbp), %rax
 197      FEFFFF
 198 0105 4801D0   		addq	%rdx, %rax
 199              		.loc 1 110 18 discriminator 3
 200 0108 488B95C8 		movq	-312(%rbp), %rdx
 200      FEFFFF
 201 010f 4801D2   		addq	%rdx, %rdx
 202              		.loc 1 110 22 discriminator 3
 203 0112 4883C201 		addq	$1, %rdx
 204              		.loc 1 110 32 discriminator 3
 205 0116 0FB600   		movzbl	(%rax), %eax
 206              		.loc 1 110 27 discriminator 3
 207 0119 888415F0 		movb	%al, -272(%rbp,%rdx)
 207      FEFFFF
 109:/home/xingli/share/1205tiny/network/dtls/mbedtls/mbedtls-2.16.2/library/pkcs12.c ****         unipwd[i * 2 + 1] = pwd[i];
 208              		.loc 1 109 30 discriminator 3
 209 0120 488385C8 		addq	$1, -312(%rbp)
 209      FEFFFF01 
 210              	.L12:
 109:/home/xingli/share/1205tiny/network/dtls/mbedtls/mbedtls-2.16.2/library/pkcs12.c ****         unipwd[i * 2 + 1] = pwd[i];
 211              		.loc 1 109 5 discriminator 1
 212 0128 488B85C8 		movq	-312(%rbp), %rax
 212      FEFFFF
 213 012f 483B85A0 		cmpq	-352(%rbp), %rax
 213      FEFFFF
 214 0136 72BF     		jb	.L13
 111:/home/xingli/share/1205tiny/network/dtls/mbedtls/mbedtls-2.16.2/library/pkcs12.c **** 
 112:/home/xingli/share/1205tiny/network/dtls/mbedtls/mbedtls-2.16.2/library/pkcs12.c ****     if( ( ret = mbedtls_pkcs12_derivation( key, keylen, unipwd, pwdlen * 2 + 2,
 215              		.loc 1 112 17
 216 0138 8BBDC0FE 		movl	-320(%rbp), %edi
 216      FFFF
 217 013e 4C8B8DD8 		movq	-296(%rbp), %r9
 217      FEFFFF
 113:/home/xingli/share/1205tiny/network/dtls/mbedtls/mbedtls-2.16.2/library/pkcs12.c ****                                    salt.p, salt.len, md_type,
 218              		.loc 1 113 40
 219 0145 4C8B85E0 		movq	-288(%rbp), %r8
 219      FEFFFF
 112:/home/xingli/share/1205tiny/network/dtls/mbedtls/mbedtls-2.16.2/library/pkcs12.c ****                                    salt.p, salt.len, md_type,
 220              		.loc 1 112 76
 221 014c 488B85A0 		movq	-352(%rbp), %rax
 221      FEFFFF
 222 0153 4883C001 		addq	$1, %rax
 112:/home/xingli/share/1205tiny/network/dtls/mbedtls/mbedtls-2.16.2/library/pkcs12.c ****                                    salt.p, salt.len, md_type,
 223              		.loc 1 112 17
 224 0157 488D0C00 		leaq	(%rax,%rax), %rcx
 225 015b 488D95F0 		leaq	-272(%rbp), %rdx
GAS LISTING /tmp/ccV3GUoK.s 			page 8


 225      FEFFFF
 226 0162 488BB590 		movq	-368(%rbp), %rsi
 226      FEFFFF
 227 0169 488B8598 		movq	-360(%rbp), %rax
 227      FEFFFF
 228 0170 4883EC08 		subq	$8, %rsp
 229 0174 57       		pushq	%rdi
 230 0175 6A01     		pushq	$1
 231 0177 8BBDB4FE 		movl	-332(%rbp), %edi
 231      FFFF
 232 017d 57       		pushq	%rdi
 233 017e 4889C7   		movq	%rax, %rdi
 234 0181 E8000000 		call	mbedtls_pkcs12_derivation
 234      00
 235 0186 4883C420 		addq	$32, %rsp
 236 018a 8985C4FE 		movl	%eax, -316(%rbp)
 236      FFFF
 112:/home/xingli/share/1205tiny/network/dtls/mbedtls/mbedtls-2.16.2/library/pkcs12.c ****                                    salt.p, salt.len, md_type,
 237              		.loc 1 112 7
 238 0190 83BDC4FE 		cmpl	$0, -316(%rbp)
 238      FFFF00
 239 0197 740B     		je	.L14
 114:/home/xingli/share/1205tiny/network/dtls/mbedtls/mbedtls-2.16.2/library/pkcs12.c ****                                    MBEDTLS_PKCS12_DERIVE_KEY, iterations ) ) != 0 )
 115:/home/xingli/share/1205tiny/network/dtls/mbedtls/mbedtls-2.16.2/library/pkcs12.c ****     {
 116:/home/xingli/share/1205tiny/network/dtls/mbedtls/mbedtls-2.16.2/library/pkcs12.c ****         return( ret );
 240              		.loc 1 116 15
 241 0199 8B85C4FE 		movl	-316(%rbp), %eax
 241      FFFF
 242 019f E9890000 		jmp	.L18
 242      00
 243              	.L14:
 117:/home/xingli/share/1205tiny/network/dtls/mbedtls/mbedtls-2.16.2/library/pkcs12.c ****     }
 118:/home/xingli/share/1205tiny/network/dtls/mbedtls/mbedtls-2.16.2/library/pkcs12.c **** 
 119:/home/xingli/share/1205tiny/network/dtls/mbedtls/mbedtls-2.16.2/library/pkcs12.c ****     if( iv == NULL || ivlen == 0 )
 244              		.loc 1 119 7
 245 01a4 4883BD88 		cmpq	$0, -376(%rbp)
 245      FEFFFF00 
 246 01ac 740A     		je	.L15
 247              		.loc 1 119 20 discriminator 1
 248 01ae 4883BD80 		cmpq	$0, -384(%rbp)
 248      FEFFFF00 
 249 01b6 7507     		jne	.L16
 250              	.L15:
 120:/home/xingli/share/1205tiny/network/dtls/mbedtls/mbedtls-2.16.2/library/pkcs12.c ****         return( 0 );
 251              		.loc 1 120 15
 252 01b8 B8000000 		movl	$0, %eax
 252      00
 253 01bd EB6E     		jmp	.L18
 254              	.L16:
 121:/home/xingli/share/1205tiny/network/dtls/mbedtls/mbedtls-2.16.2/library/pkcs12.c **** 
 122:/home/xingli/share/1205tiny/network/dtls/mbedtls/mbedtls-2.16.2/library/pkcs12.c ****     if( ( ret = mbedtls_pkcs12_derivation( iv, ivlen, unipwd, pwdlen * 2 + 2,
 255              		.loc 1 122 17
 256 01bf 8BBDC0FE 		movl	-320(%rbp), %edi
 256      FFFF
 257 01c5 4C8B8DD8 		movq	-296(%rbp), %r9
 257      FEFFFF
 123:/home/xingli/share/1205tiny/network/dtls/mbedtls/mbedtls-2.16.2/library/pkcs12.c ****                                    salt.p, salt.len, md_type,
GAS LISTING /tmp/ccV3GUoK.s 			page 9


 258              		.loc 1 123 40
 259 01cc 4C8B85E0 		movq	-288(%rbp), %r8
 259      FEFFFF
 122:/home/xingli/share/1205tiny/network/dtls/mbedtls/mbedtls-2.16.2/library/pkcs12.c ****                                    salt.p, salt.len, md_type,
 260              		.loc 1 122 74
 261 01d3 488B85A0 		movq	-352(%rbp), %rax
 261      FEFFFF
 262 01da 4883C001 		addq	$1, %rax
 122:/home/xingli/share/1205tiny/network/dtls/mbedtls/mbedtls-2.16.2/library/pkcs12.c ****                                    salt.p, salt.len, md_type,
 263              		.loc 1 122 17
 264 01de 488D0C00 		leaq	(%rax,%rax), %rcx
 265 01e2 488D95F0 		leaq	-272(%rbp), %rdx
 265      FEFFFF
 266 01e9 488BB580 		movq	-384(%rbp), %rsi
 266      FEFFFF
 267 01f0 488B8588 		movq	-376(%rbp), %rax
 267      FEFFFF
 268 01f7 4883EC08 		subq	$8, %rsp
 269 01fb 57       		pushq	%rdi
 270 01fc 6A02     		pushq	$2
 271 01fe 8BBDB4FE 		movl	-332(%rbp), %edi
 271      FFFF
 272 0204 57       		pushq	%rdi
 273 0205 4889C7   		movq	%rax, %rdi
 274 0208 E8000000 		call	mbedtls_pkcs12_derivation
 274      00
 275 020d 4883C420 		addq	$32, %rsp
 276 0211 8985C4FE 		movl	%eax, -316(%rbp)
 276      FFFF
 122:/home/xingli/share/1205tiny/network/dtls/mbedtls/mbedtls-2.16.2/library/pkcs12.c ****                                    salt.p, salt.len, md_type,
 277              		.loc 1 122 7
 278 0217 83BDC4FE 		cmpl	$0, -316(%rbp)
 278      FFFF00
 279 021e 7408     		je	.L17
 124:/home/xingli/share/1205tiny/network/dtls/mbedtls/mbedtls-2.16.2/library/pkcs12.c ****                                    MBEDTLS_PKCS12_DERIVE_IV, iterations ) ) != 0 )
 125:/home/xingli/share/1205tiny/network/dtls/mbedtls/mbedtls-2.16.2/library/pkcs12.c ****     {
 126:/home/xingli/share/1205tiny/network/dtls/mbedtls/mbedtls-2.16.2/library/pkcs12.c ****         return( ret );
 280              		.loc 1 126 15
 281 0220 8B85C4FE 		movl	-316(%rbp), %eax
 281      FFFF
 282 0226 EB05     		jmp	.L18
 283              	.L17:
 127:/home/xingli/share/1205tiny/network/dtls/mbedtls/mbedtls-2.16.2/library/pkcs12.c ****     }
 128:/home/xingli/share/1205tiny/network/dtls/mbedtls/mbedtls-2.16.2/library/pkcs12.c ****     return( 0 );
 284              		.loc 1 128 11
 285 0228 B8000000 		movl	$0, %eax
 285      00
 286              	.L18:
 129:/home/xingli/share/1205tiny/network/dtls/mbedtls/mbedtls-2.16.2/library/pkcs12.c **** }
 287              		.loc 1 129 1 discriminator 1
 288 022d 488B4DF8 		movq	-8(%rbp), %rcx
 289 0231 6448330C 		xorq	%fs:40, %rcx
 289      25280000 
 289      00
 290 023a 7405     		je	.L19
 291              		.loc 1 129 1 is_stmt 0
 292 023c E8000000 		call	__stack_chk_fail@PLT
GAS LISTING /tmp/ccV3GUoK.s 			page 10


 292      00
 293              	.L19:
 294 0241 C9       		leave
 295              	.LCFI5:
 296              		.cfi_def_cfa 7, 8
 297 0242 C3       		ret
 298              		.cfi_endproc
 299              	.LFE8:
 301              		.section	.text.mbedtls_pkcs12_pbe_sha1_rc4_128,"ax",@progbits
 302              		.globl	mbedtls_pkcs12_pbe_sha1_rc4_128
 304              	mbedtls_pkcs12_pbe_sha1_rc4_128:
 305              	.LFB9:
 130:/home/xingli/share/1205tiny/network/dtls/mbedtls/mbedtls-2.16.2/library/pkcs12.c **** 
 131:/home/xingli/share/1205tiny/network/dtls/mbedtls/mbedtls-2.16.2/library/pkcs12.c **** #undef PKCS12_MAX_PWDLEN
 132:/home/xingli/share/1205tiny/network/dtls/mbedtls/mbedtls-2.16.2/library/pkcs12.c **** 
 133:/home/xingli/share/1205tiny/network/dtls/mbedtls/mbedtls-2.16.2/library/pkcs12.c **** int mbedtls_pkcs12_pbe_sha1_rc4_128( mbedtls_asn1_buf *pbe_params, int mode,
 134:/home/xingli/share/1205tiny/network/dtls/mbedtls/mbedtls-2.16.2/library/pkcs12.c ****                              const unsigned char *pwd,  size_t pwdlen,
 135:/home/xingli/share/1205tiny/network/dtls/mbedtls/mbedtls-2.16.2/library/pkcs12.c ****                              const unsigned char *data, size_t len,
 136:/home/xingli/share/1205tiny/network/dtls/mbedtls/mbedtls-2.16.2/library/pkcs12.c ****                              unsigned char *output )
 137:/home/xingli/share/1205tiny/network/dtls/mbedtls/mbedtls-2.16.2/library/pkcs12.c **** {
 306              		.loc 1 137 1 is_stmt 1
 307              		.cfi_startproc
 308 0000 F30F1EFA 		endbr64
 309 0004 55       		pushq	%rbp
 310              	.LCFI6:
 311              		.cfi_def_cfa_offset 16
 312              		.cfi_offset 6, -16
 313 0005 4889E5   		movq	%rsp, %rbp
 314              	.LCFI7:
 315              		.cfi_def_cfa_register 6
 316 0008 4883EC50 		subq	$80, %rsp
 317 000c 48897DE8 		movq	%rdi, -24(%rbp)
 318 0010 8975E4   		movl	%esi, -28(%rbp)
 319 0013 488955D8 		movq	%rdx, -40(%rbp)
 320 0017 48894DD0 		movq	%rcx, -48(%rbp)
 321 001b 4C8945C8 		movq	%r8, -56(%rbp)
 322 001f 4C894DC0 		movq	%r9, -64(%rbp)
 323 0023 488B4510 		movq	16(%rbp), %rax
 324 0027 488945B8 		movq	%rax, -72(%rbp)
 325              		.loc 1 137 1
 326 002b 64488B04 		movq	%fs:40, %rax
 326      25280000 
 326      00
 327 0034 488945F8 		movq	%rax, -8(%rbp)
 328 0038 31C0     		xorl	%eax, %eax
 138:/home/xingli/share/1205tiny/network/dtls/mbedtls/mbedtls-2.16.2/library/pkcs12.c **** #if !defined(MBEDTLS_ARC4_C)
 139:/home/xingli/share/1205tiny/network/dtls/mbedtls/mbedtls-2.16.2/library/pkcs12.c ****     ((void) pbe_params);
 140:/home/xingli/share/1205tiny/network/dtls/mbedtls/mbedtls-2.16.2/library/pkcs12.c ****     ((void) mode);
 141:/home/xingli/share/1205tiny/network/dtls/mbedtls/mbedtls-2.16.2/library/pkcs12.c ****     ((void) pwd);
 142:/home/xingli/share/1205tiny/network/dtls/mbedtls/mbedtls-2.16.2/library/pkcs12.c ****     ((void) pwdlen);
 143:/home/xingli/share/1205tiny/network/dtls/mbedtls/mbedtls-2.16.2/library/pkcs12.c ****     ((void) data);
 144:/home/xingli/share/1205tiny/network/dtls/mbedtls/mbedtls-2.16.2/library/pkcs12.c ****     ((void) len);
 145:/home/xingli/share/1205tiny/network/dtls/mbedtls/mbedtls-2.16.2/library/pkcs12.c ****     ((void) output);
 146:/home/xingli/share/1205tiny/network/dtls/mbedtls/mbedtls-2.16.2/library/pkcs12.c ****     return( MBEDTLS_ERR_PKCS12_FEATURE_UNAVAILABLE );
 329              		.loc 1 146 11
 330 003a B800E1FF 		movl	$-7936, %eax
 330      FF
GAS LISTING /tmp/ccV3GUoK.s 			page 11


 147:/home/xingli/share/1205tiny/network/dtls/mbedtls/mbedtls-2.16.2/library/pkcs12.c **** #else
 148:/home/xingli/share/1205tiny/network/dtls/mbedtls/mbedtls-2.16.2/library/pkcs12.c ****     int ret;
 149:/home/xingli/share/1205tiny/network/dtls/mbedtls/mbedtls-2.16.2/library/pkcs12.c ****     unsigned char key[16];
 150:/home/xingli/share/1205tiny/network/dtls/mbedtls/mbedtls-2.16.2/library/pkcs12.c ****     mbedtls_arc4_context ctx;
 151:/home/xingli/share/1205tiny/network/dtls/mbedtls/mbedtls-2.16.2/library/pkcs12.c ****     ((void) mode);
 152:/home/xingli/share/1205tiny/network/dtls/mbedtls/mbedtls-2.16.2/library/pkcs12.c **** 
 153:/home/xingli/share/1205tiny/network/dtls/mbedtls/mbedtls-2.16.2/library/pkcs12.c ****     mbedtls_arc4_init( &ctx );
 154:/home/xingli/share/1205tiny/network/dtls/mbedtls/mbedtls-2.16.2/library/pkcs12.c **** 
 155:/home/xingli/share/1205tiny/network/dtls/mbedtls/mbedtls-2.16.2/library/pkcs12.c ****     if( ( ret = pkcs12_pbe_derive_key_iv( pbe_params, MBEDTLS_MD_SHA1,
 156:/home/xingli/share/1205tiny/network/dtls/mbedtls/mbedtls-2.16.2/library/pkcs12.c ****                                           pwd, pwdlen,
 157:/home/xingli/share/1205tiny/network/dtls/mbedtls/mbedtls-2.16.2/library/pkcs12.c ****                                           key, 16, NULL, 0 ) ) != 0 )
 158:/home/xingli/share/1205tiny/network/dtls/mbedtls/mbedtls-2.16.2/library/pkcs12.c ****     {
 159:/home/xingli/share/1205tiny/network/dtls/mbedtls/mbedtls-2.16.2/library/pkcs12.c ****         return( ret );
 160:/home/xingli/share/1205tiny/network/dtls/mbedtls/mbedtls-2.16.2/library/pkcs12.c ****     }
 161:/home/xingli/share/1205tiny/network/dtls/mbedtls/mbedtls-2.16.2/library/pkcs12.c **** 
 162:/home/xingli/share/1205tiny/network/dtls/mbedtls/mbedtls-2.16.2/library/pkcs12.c ****     mbedtls_arc4_setup( &ctx, key, 16 );
 163:/home/xingli/share/1205tiny/network/dtls/mbedtls/mbedtls-2.16.2/library/pkcs12.c ****     if( ( ret = mbedtls_arc4_crypt( &ctx, len, data, output ) ) != 0 )
 164:/home/xingli/share/1205tiny/network/dtls/mbedtls/mbedtls-2.16.2/library/pkcs12.c ****         goto exit;
 165:/home/xingli/share/1205tiny/network/dtls/mbedtls/mbedtls-2.16.2/library/pkcs12.c **** 
 166:/home/xingli/share/1205tiny/network/dtls/mbedtls/mbedtls-2.16.2/library/pkcs12.c **** exit:
 167:/home/xingli/share/1205tiny/network/dtls/mbedtls/mbedtls-2.16.2/library/pkcs12.c ****     mbedtls_platform_zeroize( key, sizeof( key ) );
 168:/home/xingli/share/1205tiny/network/dtls/mbedtls/mbedtls-2.16.2/library/pkcs12.c ****     mbedtls_arc4_free( &ctx );
 169:/home/xingli/share/1205tiny/network/dtls/mbedtls/mbedtls-2.16.2/library/pkcs12.c **** 
 170:/home/xingli/share/1205tiny/network/dtls/mbedtls/mbedtls-2.16.2/library/pkcs12.c ****     return( ret );
 171:/home/xingli/share/1205tiny/network/dtls/mbedtls/mbedtls-2.16.2/library/pkcs12.c **** #endif /* MBEDTLS_ARC4_C */
 172:/home/xingli/share/1205tiny/network/dtls/mbedtls/mbedtls-2.16.2/library/pkcs12.c **** }
 331              		.loc 1 172 1
 332 003f 488B55F8 		movq	-8(%rbp), %rdx
 333 0043 64483314 		xorq	%fs:40, %rdx
 333      25280000 
 333      00
 334 004c 7405     		je	.L22
 335 004e E8000000 		call	__stack_chk_fail@PLT
 335      00
 336              	.L22:
 337 0053 C9       		leave
 338              	.LCFI8:
 339              		.cfi_def_cfa 7, 8
 340 0054 C3       		ret
 341              		.cfi_endproc
 342              	.LFE9:
 344              		.section	.text.mbedtls_pkcs12_pbe,"ax",@progbits
 345              		.globl	mbedtls_pkcs12_pbe
 347              	mbedtls_pkcs12_pbe:
 348              	.LFB10:
 173:/home/xingli/share/1205tiny/network/dtls/mbedtls/mbedtls-2.16.2/library/pkcs12.c **** 
 174:/home/xingli/share/1205tiny/network/dtls/mbedtls/mbedtls-2.16.2/library/pkcs12.c **** int mbedtls_pkcs12_pbe( mbedtls_asn1_buf *pbe_params, int mode,
 175:/home/xingli/share/1205tiny/network/dtls/mbedtls/mbedtls-2.16.2/library/pkcs12.c ****                 mbedtls_cipher_type_t cipher_type, mbedtls_md_type_t md_type,
 176:/home/xingli/share/1205tiny/network/dtls/mbedtls/mbedtls-2.16.2/library/pkcs12.c ****                 const unsigned char *pwd,  size_t pwdlen,
 177:/home/xingli/share/1205tiny/network/dtls/mbedtls/mbedtls-2.16.2/library/pkcs12.c ****                 const unsigned char *data, size_t len,
 178:/home/xingli/share/1205tiny/network/dtls/mbedtls/mbedtls-2.16.2/library/pkcs12.c ****                 unsigned char *output )
 179:/home/xingli/share/1205tiny/network/dtls/mbedtls/mbedtls-2.16.2/library/pkcs12.c **** {
 349              		.loc 1 179 1
 350              		.cfi_startproc
 351 0000 F30F1EFA 		endbr64
 352 0004 55       		pushq	%rbp
 353              	.LCFI9:
GAS LISTING /tmp/ccV3GUoK.s 			page 12


 354              		.cfi_def_cfa_offset 16
 355              		.cfi_offset 6, -16
 356 0005 4889E5   		movq	%rsp, %rbp
 357              	.LCFI10:
 358              		.cfi_def_cfa_register 6
 359 0008 4881EC00 		subq	$256, %rsp
 359      010000
 360 000f 4889BD38 		movq	%rdi, -200(%rbp)
 360      FFFFFF
 361 0016 89B534FF 		movl	%esi, -204(%rbp)
 361      FFFF
 362 001c 899530FF 		movl	%edx, -208(%rbp)
 362      FFFF
 363 0022 898D2CFF 		movl	%ecx, -212(%rbp)
 363      FFFF
 364 0028 4C898520 		movq	%r8, -224(%rbp)
 364      FFFFFF
 365 002f 4C898D18 		movq	%r9, -232(%rbp)
 365      FFFFFF
 366 0036 488B4510 		movq	16(%rbp), %rax
 367 003a 48898510 		movq	%rax, -240(%rbp)
 367      FFFFFF
 368 0041 488B4518 		movq	24(%rbp), %rax
 369 0045 48898508 		movq	%rax, -248(%rbp)
 369      FFFFFF
 370 004c 488B4520 		movq	32(%rbp), %rax
 371 0050 48898500 		movq	%rax, -256(%rbp)
 371      FFFFFF
 372              		.loc 1 179 1
 373 0057 64488B04 		movq	%fs:40, %rax
 373      25280000 
 373      00
 374 0060 488945F8 		movq	%rax, -8(%rbp)
 375 0064 31C0     		xorl	%eax, %eax
 180:/home/xingli/share/1205tiny/network/dtls/mbedtls/mbedtls-2.16.2/library/pkcs12.c ****     int ret, keylen = 0;
 376              		.loc 1 180 14
 377 0066 C7854CFF 		movl	$0, -180(%rbp)
 377      FFFF0000 
 377      0000
 181:/home/xingli/share/1205tiny/network/dtls/mbedtls/mbedtls-2.16.2/library/pkcs12.c ****     unsigned char key[32];
 182:/home/xingli/share/1205tiny/network/dtls/mbedtls/mbedtls-2.16.2/library/pkcs12.c ****     unsigned char iv[16];
 183:/home/xingli/share/1205tiny/network/dtls/mbedtls/mbedtls-2.16.2/library/pkcs12.c ****     const mbedtls_cipher_info_t *cipher_info;
 184:/home/xingli/share/1205tiny/network/dtls/mbedtls/mbedtls-2.16.2/library/pkcs12.c ****     mbedtls_cipher_context_t cipher_ctx;
 185:/home/xingli/share/1205tiny/network/dtls/mbedtls/mbedtls-2.16.2/library/pkcs12.c ****     size_t olen = 0;
 378              		.loc 1 185 12
 379 0070 48C78550 		movq	$0, -176(%rbp)
 379      FFFFFF00 
 379      000000
 186:/home/xingli/share/1205tiny/network/dtls/mbedtls/mbedtls-2.16.2/library/pkcs12.c **** 
 187:/home/xingli/share/1205tiny/network/dtls/mbedtls/mbedtls-2.16.2/library/pkcs12.c ****     cipher_info = mbedtls_cipher_info_from_type( cipher_type );
 380              		.loc 1 187 19
 381 007b 8B8530FF 		movl	-208(%rbp), %eax
 381      FFFF
 382 0081 89C7     		movl	%eax, %edi
 383 0083 E8000000 		call	mbedtls_cipher_info_from_type@PLT
 383      00
 384 0088 48898558 		movq	%rax, -168(%rbp)
GAS LISTING /tmp/ccV3GUoK.s 			page 13


 384      FFFFFF
 188:/home/xingli/share/1205tiny/network/dtls/mbedtls/mbedtls-2.16.2/library/pkcs12.c ****     if( cipher_info == NULL )
 385              		.loc 1 188 7
 386 008f 4883BD58 		cmpq	$0, -168(%rbp)
 386      FFFFFF00 
 387 0097 750A     		jne	.L24
 189:/home/xingli/share/1205tiny/network/dtls/mbedtls/mbedtls-2.16.2/library/pkcs12.c ****         return( MBEDTLS_ERR_PKCS12_FEATURE_UNAVAILABLE );
 388              		.loc 1 189 15
 389 0099 B800E1FF 		movl	$-7936, %eax
 389      FF
 390 009e E90C0200 		jmp	.L33
 390      00
 391              	.L24:
 190:/home/xingli/share/1205tiny/network/dtls/mbedtls/mbedtls-2.16.2/library/pkcs12.c **** 
 191:/home/xingli/share/1205tiny/network/dtls/mbedtls/mbedtls-2.16.2/library/pkcs12.c ****     keylen = cipher_info->key_bitlen / 8;
 392              		.loc 1 191 25
 393 00a3 488B8558 		movq	-168(%rbp), %rax
 393      FFFFFF
 394 00aa 8B4008   		movl	8(%rax), %eax
 395              		.loc 1 191 38
 396 00ad C1E803   		shrl	$3, %eax
 397              		.loc 1 191 12
 398 00b0 89854CFF 		movl	%eax, -180(%rbp)
 398      FFFF
 192:/home/xingli/share/1205tiny/network/dtls/mbedtls/mbedtls-2.16.2/library/pkcs12.c **** 
 193:/home/xingli/share/1205tiny/network/dtls/mbedtls/mbedtls-2.16.2/library/pkcs12.c ****     if( ( ret = pkcs12_pbe_derive_key_iv( pbe_params, md_type, pwd, pwdlen,
 194:/home/xingli/share/1205tiny/network/dtls/mbedtls/mbedtls-2.16.2/library/pkcs12.c ****                                           key, keylen,
 195:/home/xingli/share/1205tiny/network/dtls/mbedtls/mbedtls-2.16.2/library/pkcs12.c ****                                           iv, cipher_info->iv_size ) ) != 0 )
 399              		.loc 1 195 58
 400 00b6 488B8558 		movq	-168(%rbp), %rax
 400      FFFFFF
 401 00bd 8B4018   		movl	24(%rax), %eax
 193:/home/xingli/share/1205tiny/network/dtls/mbedtls/mbedtls-2.16.2/library/pkcs12.c ****                                           key, keylen,
 402              		.loc 1 193 17
 403 00c0 89C7     		movl	%eax, %edi
 404 00c2 8B854CFF 		movl	-180(%rbp), %eax
 404      FFFF
 405 00c8 4C63C8   		movslq	%eax, %r9
 406 00cb 4C8D45D0 		leaq	-48(%rbp), %r8
 407 00cf 488B8D18 		movq	-232(%rbp), %rcx
 407      FFFFFF
 408 00d6 488B9520 		movq	-224(%rbp), %rdx
 408      FFFFFF
 409 00dd 8BB52CFF 		movl	-212(%rbp), %esi
 409      FFFF
 410 00e3 488B8538 		movq	-200(%rbp), %rax
 410      FFFFFF
 411 00ea 57       		pushq	%rdi
 412 00eb 488D7DC0 		leaq	-64(%rbp), %rdi
 413 00ef 57       		pushq	%rdi
 414 00f0 4889C7   		movq	%rax, %rdi
 415 00f3 E8000000 		call	pkcs12_pbe_derive_key_iv
 415      00
 416 00f8 4883C410 		addq	$16, %rsp
 417 00fc 898548FF 		movl	%eax, -184(%rbp)
 417      FFFF
 193:/home/xingli/share/1205tiny/network/dtls/mbedtls/mbedtls-2.16.2/library/pkcs12.c ****                                           key, keylen,
GAS LISTING /tmp/ccV3GUoK.s 			page 14


 418              		.loc 1 193 7
 419 0102 83BD48FF 		cmpl	$0, -184(%rbp)
 419      FFFF00
 420 0109 740B     		je	.L26
 196:/home/xingli/share/1205tiny/network/dtls/mbedtls/mbedtls-2.16.2/library/pkcs12.c ****     {
 197:/home/xingli/share/1205tiny/network/dtls/mbedtls/mbedtls-2.16.2/library/pkcs12.c ****         return( ret );
 421              		.loc 1 197 15
 422 010b 8B8548FF 		movl	-184(%rbp), %eax
 422      FFFF
 423 0111 E9990100 		jmp	.L33
 423      00
 424              	.L26:
 198:/home/xingli/share/1205tiny/network/dtls/mbedtls/mbedtls-2.16.2/library/pkcs12.c ****     }
 199:/home/xingli/share/1205tiny/network/dtls/mbedtls/mbedtls-2.16.2/library/pkcs12.c **** 
 200:/home/xingli/share/1205tiny/network/dtls/mbedtls/mbedtls-2.16.2/library/pkcs12.c ****     mbedtls_cipher_init( &cipher_ctx );
 425              		.loc 1 200 5
 426 0116 488D8560 		leaq	-160(%rbp), %rax
 426      FFFFFF
 427 011d 4889C7   		movq	%rax, %rdi
 428 0120 E8000000 		call	mbedtls_cipher_init@PLT
 428      00
 201:/home/xingli/share/1205tiny/network/dtls/mbedtls/mbedtls-2.16.2/library/pkcs12.c **** 
 202:/home/xingli/share/1205tiny/network/dtls/mbedtls/mbedtls-2.16.2/library/pkcs12.c ****     if( ( ret = mbedtls_cipher_setup( &cipher_ctx, cipher_info ) ) != 0 )
 429              		.loc 1 202 17
 430 0125 488B9558 		movq	-168(%rbp), %rdx
 430      FFFFFF
 431 012c 488D8560 		leaq	-160(%rbp), %rax
 431      FFFFFF
 432 0133 4889D6   		movq	%rdx, %rsi
 433 0136 4889C7   		movq	%rax, %rdi
 434 0139 E8000000 		call	mbedtls_cipher_setup@PLT
 434      00
 435 013e 898548FF 		movl	%eax, -184(%rbp)
 435      FFFF
 436              		.loc 1 202 7
 437 0144 83BD48FF 		cmpl	$0, -184(%rbp)
 437      FFFF00
 438 014b 0F851701 		jne	.L35
 438      0000
 203:/home/xingli/share/1205tiny/network/dtls/mbedtls/mbedtls-2.16.2/library/pkcs12.c ****         goto exit;
 204:/home/xingli/share/1205tiny/network/dtls/mbedtls/mbedtls-2.16.2/library/pkcs12.c **** 
 205:/home/xingli/share/1205tiny/network/dtls/mbedtls/mbedtls-2.16.2/library/pkcs12.c ****     if( ( ret = mbedtls_cipher_setkey( &cipher_ctx, key, 8 * keylen, (mbedtls_operation_t) mode ) )
 439              		.loc 1 205 17
 440 0151 8B854CFF 		movl	-180(%rbp), %eax
 440      FFFF
 441 0157 8D3CC500 		leal	0(,%rax,8), %edi
 441      000000
 442 015e 8B9534FF 		movl	-204(%rbp), %edx
 442      FFFF
 443 0164 488D75D0 		leaq	-48(%rbp), %rsi
 444 0168 488D8560 		leaq	-160(%rbp), %rax
 444      FFFFFF
 445 016f 89D1     		movl	%edx, %ecx
 446 0171 89FA     		movl	%edi, %edx
 447 0173 4889C7   		movq	%rax, %rdi
 448 0176 E8000000 		call	mbedtls_cipher_setkey@PLT
 448      00
GAS LISTING /tmp/ccV3GUoK.s 			page 15


 449 017b 898548FF 		movl	%eax, -184(%rbp)
 449      FFFF
 450              		.loc 1 205 7
 451 0181 83BD48FF 		cmpl	$0, -184(%rbp)
 451      FFFF00
 452 0188 0F85DD00 		jne	.L36
 452      0000
 206:/home/xingli/share/1205tiny/network/dtls/mbedtls/mbedtls-2.16.2/library/pkcs12.c ****         goto exit;
 207:/home/xingli/share/1205tiny/network/dtls/mbedtls/mbedtls-2.16.2/library/pkcs12.c **** 
 208:/home/xingli/share/1205tiny/network/dtls/mbedtls/mbedtls-2.16.2/library/pkcs12.c ****     if( ( ret = mbedtls_cipher_set_iv( &cipher_ctx, iv, cipher_info->iv_size ) ) != 0 )
 453              		.loc 1 208 68
 454 018e 488B8558 		movq	-168(%rbp), %rax
 454      FFFFFF
 455 0195 8B4018   		movl	24(%rax), %eax
 456              		.loc 1 208 17
 457 0198 89C2     		movl	%eax, %edx
 458 019a 488D4DC0 		leaq	-64(%rbp), %rcx
 459 019e 488D8560 		leaq	-160(%rbp), %rax
 459      FFFFFF
 460 01a5 4889CE   		movq	%rcx, %rsi
 461 01a8 4889C7   		movq	%rax, %rdi
 462 01ab E8000000 		call	mbedtls_cipher_set_iv@PLT
 462      00
 463 01b0 898548FF 		movl	%eax, -184(%rbp)
 463      FFFF
 464              		.loc 1 208 7
 465 01b6 83BD48FF 		cmpl	$0, -184(%rbp)
 465      FFFF00
 466 01bd 0F85AB00 		jne	.L37
 466      0000
 209:/home/xingli/share/1205tiny/network/dtls/mbedtls/mbedtls-2.16.2/library/pkcs12.c ****         goto exit;
 210:/home/xingli/share/1205tiny/network/dtls/mbedtls/mbedtls-2.16.2/library/pkcs12.c **** 
 211:/home/xingli/share/1205tiny/network/dtls/mbedtls/mbedtls-2.16.2/library/pkcs12.c ****     if( ( ret = mbedtls_cipher_reset( &cipher_ctx ) ) != 0 )
 467              		.loc 1 211 17
 468 01c3 488D8560 		leaq	-160(%rbp), %rax
 468      FFFFFF
 469 01ca 4889C7   		movq	%rax, %rdi
 470 01cd E8000000 		call	mbedtls_cipher_reset@PLT
 470      00
 471 01d2 898548FF 		movl	%eax, -184(%rbp)
 471      FFFF
 472              		.loc 1 211 7
 473 01d8 83BD48FF 		cmpl	$0, -184(%rbp)
 473      FFFF00
 474 01df 0F858C00 		jne	.L38
 474      0000
 212:/home/xingli/share/1205tiny/network/dtls/mbedtls/mbedtls-2.16.2/library/pkcs12.c ****         goto exit;
 213:/home/xingli/share/1205tiny/network/dtls/mbedtls/mbedtls-2.16.2/library/pkcs12.c **** 
 214:/home/xingli/share/1205tiny/network/dtls/mbedtls/mbedtls-2.16.2/library/pkcs12.c ****     if( ( ret = mbedtls_cipher_update( &cipher_ctx, data, len,
 475              		.loc 1 214 17
 476 01e5 488DBD50 		leaq	-176(%rbp), %rdi
 476      FFFFFF
 477 01ec 488B8D00 		movq	-256(%rbp), %rcx
 477      FFFFFF
 478 01f3 488B9508 		movq	-248(%rbp), %rdx
 478      FFFFFF
 479 01fa 488BB510 		movq	-240(%rbp), %rsi
GAS LISTING /tmp/ccV3GUoK.s 			page 16


 479      FFFFFF
 480 0201 488D8560 		leaq	-160(%rbp), %rax
 480      FFFFFF
 481 0208 4989F8   		movq	%rdi, %r8
 482 020b 4889C7   		movq	%rax, %rdi
 483 020e E8000000 		call	mbedtls_cipher_update@PLT
 483      00
 484 0213 898548FF 		movl	%eax, -184(%rbp)
 484      FFFF
 485              		.loc 1 214 7
 486 0219 83BD48FF 		cmpl	$0, -184(%rbp)
 486      FFFF00
 487 0220 7552     		jne	.L39
 215:/home/xingli/share/1205tiny/network/dtls/mbedtls/mbedtls-2.16.2/library/pkcs12.c ****                                 output, &olen ) ) != 0 )
 216:/home/xingli/share/1205tiny/network/dtls/mbedtls/mbedtls-2.16.2/library/pkcs12.c ****     {
 217:/home/xingli/share/1205tiny/network/dtls/mbedtls/mbedtls-2.16.2/library/pkcs12.c ****         goto exit;
 218:/home/xingli/share/1205tiny/network/dtls/mbedtls/mbedtls-2.16.2/library/pkcs12.c ****     }
 219:/home/xingli/share/1205tiny/network/dtls/mbedtls/mbedtls-2.16.2/library/pkcs12.c **** 
 220:/home/xingli/share/1205tiny/network/dtls/mbedtls/mbedtls-2.16.2/library/pkcs12.c ****     if( ( ret = mbedtls_cipher_finish( &cipher_ctx, output + olen, &olen ) ) != 0 )
 488              		.loc 1 220 17
 489 0222 488B9550 		movq	-176(%rbp), %rdx
 489      FFFFFF
 490 0229 488B8500 		movq	-256(%rbp), %rax
 490      FFFFFF
 491 0230 488D0C02 		leaq	(%rdx,%rax), %rcx
 492 0234 488D9550 		leaq	-176(%rbp), %rdx
 492      FFFFFF
 493 023b 488D8560 		leaq	-160(%rbp), %rax
 493      FFFFFF
 494 0242 4889CE   		movq	%rcx, %rsi
 495 0245 4889C7   		movq	%rax, %rdi
 496 0248 E8000000 		call	mbedtls_cipher_finish@PLT
 496      00
 497 024d 898548FF 		movl	%eax, -184(%rbp)
 497      FFFF
 498              		.loc 1 220 7
 499 0253 83BD48FF 		cmpl	$0, -184(%rbp)
 499      FFFF00
 500 025a 741B     		je	.L40
 221:/home/xingli/share/1205tiny/network/dtls/mbedtls/mbedtls-2.16.2/library/pkcs12.c ****         ret = MBEDTLS_ERR_PKCS12_PASSWORD_MISMATCH;
 501              		.loc 1 221 13
 502 025c C78548FF 		movl	$-7680, -184(%rbp)
 502      FFFF00E2 
 502      FFFF
 503 0266 EB10     		jmp	.L28
 504              	.L35:
 203:/home/xingli/share/1205tiny/network/dtls/mbedtls/mbedtls-2.16.2/library/pkcs12.c **** 
 505              		.loc 1 203 9
 506 0268 90       		nop
 507 0269 EB0D     		jmp	.L28
 508              	.L36:
 206:/home/xingli/share/1205tiny/network/dtls/mbedtls/mbedtls-2.16.2/library/pkcs12.c **** 
 509              		.loc 1 206 9
 510 026b 90       		nop
 511 026c EB0A     		jmp	.L28
 512              	.L37:
 209:/home/xingli/share/1205tiny/network/dtls/mbedtls/mbedtls-2.16.2/library/pkcs12.c **** 
GAS LISTING /tmp/ccV3GUoK.s 			page 17


 513              		.loc 1 209 9
 514 026e 90       		nop
 515 026f EB07     		jmp	.L28
 516              	.L38:
 212:/home/xingli/share/1205tiny/network/dtls/mbedtls/mbedtls-2.16.2/library/pkcs12.c **** 
 517              		.loc 1 212 9
 518 0271 90       		nop
 519 0272 EB04     		jmp	.L28
 520              	.L39:
 217:/home/xingli/share/1205tiny/network/dtls/mbedtls/mbedtls-2.16.2/library/pkcs12.c ****     }
 521              		.loc 1 217 9
 522 0274 90       		nop
 523 0275 EB01     		jmp	.L28
 524              	.L40:
 222:/home/xingli/share/1205tiny/network/dtls/mbedtls/mbedtls-2.16.2/library/pkcs12.c **** 
 223:/home/xingli/share/1205tiny/network/dtls/mbedtls/mbedtls-2.16.2/library/pkcs12.c **** exit:
 525              		.loc 1 223 1
 526 0277 90       		nop
 527              	.L28:
 224:/home/xingli/share/1205tiny/network/dtls/mbedtls/mbedtls-2.16.2/library/pkcs12.c ****     mbedtls_platform_zeroize( key, sizeof( key ) );
 528              		.loc 1 224 5
 529 0278 488D45D0 		leaq	-48(%rbp), %rax
 530 027c BE200000 		movl	$32, %esi
 530      00
 531 0281 4889C7   		movq	%rax, %rdi
 532 0284 E8000000 		call	mbedtls_platform_zeroize@PLT
 532      00
 225:/home/xingli/share/1205tiny/network/dtls/mbedtls/mbedtls-2.16.2/library/pkcs12.c ****     mbedtls_platform_zeroize( iv,  sizeof( iv  ) );
 533              		.loc 1 225 5
 534 0289 488D45C0 		leaq	-64(%rbp), %rax
 535 028d BE100000 		movl	$16, %esi
 535      00
 536 0292 4889C7   		movq	%rax, %rdi
 537 0295 E8000000 		call	mbedtls_platform_zeroize@PLT
 537      00
 226:/home/xingli/share/1205tiny/network/dtls/mbedtls/mbedtls-2.16.2/library/pkcs12.c ****     mbedtls_cipher_free( &cipher_ctx );
 538              		.loc 1 226 5
 539 029a 488D8560 		leaq	-160(%rbp), %rax
 539      FFFFFF
 540 02a1 4889C7   		movq	%rax, %rdi
 541 02a4 E8000000 		call	mbedtls_cipher_free@PLT
 541      00
 227:/home/xingli/share/1205tiny/network/dtls/mbedtls/mbedtls-2.16.2/library/pkcs12.c **** 
 228:/home/xingli/share/1205tiny/network/dtls/mbedtls/mbedtls-2.16.2/library/pkcs12.c ****     return( ret );
 542              		.loc 1 228 11
 543 02a9 8B8548FF 		movl	-184(%rbp), %eax
 543      FFFF
 544              	.L33:
 229:/home/xingli/share/1205tiny/network/dtls/mbedtls/mbedtls-2.16.2/library/pkcs12.c **** }
 545              		.loc 1 229 1 discriminator 1
 546 02af 488B4DF8 		movq	-8(%rbp), %rcx
 547 02b3 6448330C 		xorq	%fs:40, %rcx
 547      25280000 
 547      00
 548 02bc 7405     		je	.L34
 549              		.loc 1 229 1 is_stmt 0
 550 02be E8000000 		call	__stack_chk_fail@PLT
GAS LISTING /tmp/ccV3GUoK.s 			page 18


 550      00
 551              	.L34:
 552 02c3 C9       		leave
 553              	.LCFI11:
 554              		.cfi_def_cfa 7, 8
 555 02c4 C3       		ret
 556              		.cfi_endproc
 557              	.LFE10:
 559              		.section	.text.pkcs12_fill_buffer,"ax",@progbits
 561              	pkcs12_fill_buffer:
 562              	.LFB11:
 230:/home/xingli/share/1205tiny/network/dtls/mbedtls/mbedtls-2.16.2/library/pkcs12.c **** 
 231:/home/xingli/share/1205tiny/network/dtls/mbedtls/mbedtls-2.16.2/library/pkcs12.c **** #endif /* MBEDTLS_ASN1_PARSE_C */
 232:/home/xingli/share/1205tiny/network/dtls/mbedtls/mbedtls-2.16.2/library/pkcs12.c **** 
 233:/home/xingli/share/1205tiny/network/dtls/mbedtls/mbedtls-2.16.2/library/pkcs12.c **** static void pkcs12_fill_buffer( unsigned char *data, size_t data_len,
 234:/home/xingli/share/1205tiny/network/dtls/mbedtls/mbedtls-2.16.2/library/pkcs12.c ****                                 const unsigned char *filler, size_t fill_len )
 235:/home/xingli/share/1205tiny/network/dtls/mbedtls/mbedtls-2.16.2/library/pkcs12.c **** {
 563              		.loc 1 235 1 is_stmt 1
 564              		.cfi_startproc
 565 0000 F30F1EFA 		endbr64
 566 0004 55       		pushq	%rbp
 567              	.LCFI12:
 568              		.cfi_def_cfa_offset 16
 569              		.cfi_offset 6, -16
 570 0005 4889E5   		movq	%rsp, %rbp
 571              	.LCFI13:
 572              		.cfi_def_cfa_register 6
 573 0008 4883EC40 		subq	$64, %rsp
 574 000c 48897DD8 		movq	%rdi, -40(%rbp)
 575 0010 488975D0 		movq	%rsi, -48(%rbp)
 576 0014 488955C8 		movq	%rdx, -56(%rbp)
 577 0018 48894DC0 		movq	%rcx, -64(%rbp)
 578              		.loc 1 235 1
 579 001c 64488B04 		movq	%fs:40, %rax
 579      25280000 
 579      00
 580 0025 488945F8 		movq	%rax, -8(%rbp)
 581 0029 31C0     		xorl	%eax, %eax
 236:/home/xingli/share/1205tiny/network/dtls/mbedtls/mbedtls-2.16.2/library/pkcs12.c ****     unsigned char *p = data;
 582              		.loc 1 236 20
 583 002b 488B45D8 		movq	-40(%rbp), %rax
 584 002f 488945E8 		movq	%rax, -24(%rbp)
 237:/home/xingli/share/1205tiny/network/dtls/mbedtls/mbedtls-2.16.2/library/pkcs12.c ****     size_t use_len;
 238:/home/xingli/share/1205tiny/network/dtls/mbedtls/mbedtls-2.16.2/library/pkcs12.c **** 
 239:/home/xingli/share/1205tiny/network/dtls/mbedtls/mbedtls-2.16.2/library/pkcs12.c ****     while( data_len > 0 )
 585              		.loc 1 239 10
 586 0033 EB38     		jmp	.L42
 587              	.L43:
 240:/home/xingli/share/1205tiny/network/dtls/mbedtls/mbedtls-2.16.2/library/pkcs12.c ****     {
 241:/home/xingli/share/1205tiny/network/dtls/mbedtls/mbedtls-2.16.2/library/pkcs12.c ****         use_len = ( data_len > fill_len ) ? fill_len : data_len;
 588              		.loc 1 241 17
 589 0035 488B45C0 		movq	-64(%rbp), %rax
 590 0039 483945D0 		cmpq	%rax, -48(%rbp)
 591 003d 480F4645 		cmovbe	-48(%rbp), %rax
 591      D0
 592 0042 488945F0 		movq	%rax, -16(%rbp)
 242:/home/xingli/share/1205tiny/network/dtls/mbedtls/mbedtls-2.16.2/library/pkcs12.c ****         memcpy( p, filler, use_len );
GAS LISTING /tmp/ccV3GUoK.s 			page 19


 593              		.loc 1 242 9
 594 0046 488B55F0 		movq	-16(%rbp), %rdx
 595 004a 488B4DC8 		movq	-56(%rbp), %rcx
 596 004e 488B45E8 		movq	-24(%rbp), %rax
 597 0052 4889CE   		movq	%rcx, %rsi
 598 0055 4889C7   		movq	%rax, %rdi
 599 0058 E8000000 		call	memcpy@PLT
 599      00
 243:/home/xingli/share/1205tiny/network/dtls/mbedtls/mbedtls-2.16.2/library/pkcs12.c ****         p += use_len;
 600              		.loc 1 243 11
 601 005d 488B45F0 		movq	-16(%rbp), %rax
 602 0061 480145E8 		addq	%rax, -24(%rbp)
 244:/home/xingli/share/1205tiny/network/dtls/mbedtls/mbedtls-2.16.2/library/pkcs12.c ****         data_len -= use_len;
 603              		.loc 1 244 18
 604 0065 488B45F0 		movq	-16(%rbp), %rax
 605 0069 482945D0 		subq	%rax, -48(%rbp)
 606              	.L42:
 239:/home/xingli/share/1205tiny/network/dtls/mbedtls/mbedtls-2.16.2/library/pkcs12.c ****     {
 607              		.loc 1 239 10
 608 006d 48837DD0 		cmpq	$0, -48(%rbp)
 608      00
 609 0072 75C1     		jne	.L43
 245:/home/xingli/share/1205tiny/network/dtls/mbedtls/mbedtls-2.16.2/library/pkcs12.c ****     }
 246:/home/xingli/share/1205tiny/network/dtls/mbedtls/mbedtls-2.16.2/library/pkcs12.c **** }
 610              		.loc 1 246 1
 611 0074 90       		nop
 612 0075 488B45F8 		movq	-8(%rbp), %rax
 613 0079 64483304 		xorq	%fs:40, %rax
 613      25280000 
 613      00
 614 0082 7405     		je	.L44
 615 0084 E8000000 		call	__stack_chk_fail@PLT
 615      00
 616              	.L44:
 617 0089 C9       		leave
 618              	.LCFI14:
 619              		.cfi_def_cfa 7, 8
 620 008a C3       		ret
 621              		.cfi_endproc
 622              	.LFE11:
 624              		.section	.text.mbedtls_pkcs12_derivation,"ax",@progbits
 625              		.globl	mbedtls_pkcs12_derivation
 627              	mbedtls_pkcs12_derivation:
 628              	.LFB12:
 247:/home/xingli/share/1205tiny/network/dtls/mbedtls/mbedtls-2.16.2/library/pkcs12.c **** 
 248:/home/xingli/share/1205tiny/network/dtls/mbedtls/mbedtls-2.16.2/library/pkcs12.c **** int mbedtls_pkcs12_derivation( unsigned char *data, size_t datalen,
 249:/home/xingli/share/1205tiny/network/dtls/mbedtls/mbedtls-2.16.2/library/pkcs12.c ****                        const unsigned char *pwd, size_t pwdlen,
 250:/home/xingli/share/1205tiny/network/dtls/mbedtls/mbedtls-2.16.2/library/pkcs12.c ****                        const unsigned char *salt, size_t saltlen,
 251:/home/xingli/share/1205tiny/network/dtls/mbedtls/mbedtls-2.16.2/library/pkcs12.c ****                        mbedtls_md_type_t md_type, int id, int iterations )
 252:/home/xingli/share/1205tiny/network/dtls/mbedtls/mbedtls-2.16.2/library/pkcs12.c **** {
 629              		.loc 1 252 1
 630              		.cfi_startproc
 631 0000 F30F1EFA 		endbr64
 632 0004 55       		pushq	%rbp
 633              	.LCFI15:
 634              		.cfi_def_cfa_offset 16
 635              		.cfi_offset 6, -16
GAS LISTING /tmp/ccV3GUoK.s 			page 20


 636 0005 4889E5   		movq	%rsp, %rbp
 637              	.LCFI16:
 638              		.cfi_def_cfa_register 6
 639 0008 4881ECD0 		subq	$720, %rsp
 639      020000
 640 000f 4889BD68 		movq	%rdi, -664(%rbp)
 640      FDFFFF
 641 0016 4889B560 		movq	%rsi, -672(%rbp)
 641      FDFFFF
 642 001d 48899558 		movq	%rdx, -680(%rbp)
 642      FDFFFF
 643 0024 48898D50 		movq	%rcx, -688(%rbp)
 643      FDFFFF
 644 002b 4C898548 		movq	%r8, -696(%rbp)
 644      FDFFFF
 645 0032 4C898D40 		movq	%r9, -704(%rbp)
 645      FDFFFF
 646 0039 8B4510   		movl	16(%rbp), %eax
 647 003c 89853CFD 		movl	%eax, -708(%rbp)
 647      FFFF
 648 0042 8B4518   		movl	24(%rbp), %eax
 649 0045 898538FD 		movl	%eax, -712(%rbp)
 649      FFFF
 650 004b 8B4520   		movl	32(%rbp), %eax
 651 004e 898534FD 		movl	%eax, -716(%rbp)
 651      FFFF
 652              		.loc 1 252 1
 653 0054 64488B04 		movq	%fs:40, %rax
 653      25280000 
 653      00
 654 005d 488945F8 		movq	%rax, -8(%rbp)
 655 0061 31C0     		xorl	%eax, %eax
 253:/home/xingli/share/1205tiny/network/dtls/mbedtls/mbedtls-2.16.2/library/pkcs12.c ****     int ret;
 254:/home/xingli/share/1205tiny/network/dtls/mbedtls/mbedtls-2.16.2/library/pkcs12.c ****     unsigned int j;
 255:/home/xingli/share/1205tiny/network/dtls/mbedtls/mbedtls-2.16.2/library/pkcs12.c **** 
 256:/home/xingli/share/1205tiny/network/dtls/mbedtls/mbedtls-2.16.2/library/pkcs12.c ****     unsigned char diversifier[128];
 257:/home/xingli/share/1205tiny/network/dtls/mbedtls/mbedtls-2.16.2/library/pkcs12.c ****     unsigned char salt_block[128], pwd_block[128], hash_block[128];
 258:/home/xingli/share/1205tiny/network/dtls/mbedtls/mbedtls-2.16.2/library/pkcs12.c ****     unsigned char hash_output[MBEDTLS_MD_MAX_SIZE];
 259:/home/xingli/share/1205tiny/network/dtls/mbedtls/mbedtls-2.16.2/library/pkcs12.c ****     unsigned char *p;
 260:/home/xingli/share/1205tiny/network/dtls/mbedtls/mbedtls-2.16.2/library/pkcs12.c ****     unsigned char c;
 261:/home/xingli/share/1205tiny/network/dtls/mbedtls/mbedtls-2.16.2/library/pkcs12.c **** 
 262:/home/xingli/share/1205tiny/network/dtls/mbedtls/mbedtls-2.16.2/library/pkcs12.c ****     size_t hlen, use_len, v, i;
 263:/home/xingli/share/1205tiny/network/dtls/mbedtls/mbedtls-2.16.2/library/pkcs12.c **** 
 264:/home/xingli/share/1205tiny/network/dtls/mbedtls/mbedtls-2.16.2/library/pkcs12.c ****     const mbedtls_md_info_t *md_info;
 265:/home/xingli/share/1205tiny/network/dtls/mbedtls/mbedtls-2.16.2/library/pkcs12.c ****     mbedtls_md_context_t md_ctx;
 266:/home/xingli/share/1205tiny/network/dtls/mbedtls/mbedtls-2.16.2/library/pkcs12.c **** 
 267:/home/xingli/share/1205tiny/network/dtls/mbedtls/mbedtls-2.16.2/library/pkcs12.c ****     // This version only allows max of 64 bytes of password or salt
 268:/home/xingli/share/1205tiny/network/dtls/mbedtls/mbedtls-2.16.2/library/pkcs12.c ****     if( datalen > 128 || pwdlen > 64 || saltlen > 64 )
 656              		.loc 1 268 7
 657 0063 4881BD60 		cmpq	$128, -672(%rbp)
 657      FDFFFF80 
 657      000000
 658 006e 7714     		ja	.L46
 659              		.loc 1 268 23 discriminator 1
 660 0070 4883BD50 		cmpq	$64, -688(%rbp)
 660      FDFFFF40 
 661 0078 770A     		ja	.L46
GAS LISTING /tmp/ccV3GUoK.s 			page 21


 662              		.loc 1 268 38 discriminator 2
 663 007a 4883BD40 		cmpq	$64, -704(%rbp)
 663      FDFFFF40 
 664 0082 760A     		jbe	.L47
 665              	.L46:
 269:/home/xingli/share/1205tiny/network/dtls/mbedtls/mbedtls-2.16.2/library/pkcs12.c ****         return( MBEDTLS_ERR_PKCS12_BAD_INPUT_DATA );
 666              		.loc 1 269 15
 667 0084 B880E0FF 		movl	$-8064, %eax
 667      FF
 668 0089 E9EF0400 		jmp	.L74
 668      00
 669              	.L47:
 270:/home/xingli/share/1205tiny/network/dtls/mbedtls/mbedtls-2.16.2/library/pkcs12.c **** 
 271:/home/xingli/share/1205tiny/network/dtls/mbedtls/mbedtls-2.16.2/library/pkcs12.c ****     md_info = mbedtls_md_info_from_type( md_type );
 670              		.loc 1 271 15
 671 008e 8B853CFD 		movl	-708(%rbp), %eax
 671      FFFF
 672 0094 89C7     		movl	%eax, %edi
 673 0096 E8000000 		call	mbedtls_md_info_from_type@PLT
 673      00
 674 009b 48898598 		movq	%rax, -616(%rbp)
 674      FDFFFF
 272:/home/xingli/share/1205tiny/network/dtls/mbedtls/mbedtls-2.16.2/library/pkcs12.c ****     if( md_info == NULL )
 675              		.loc 1 272 7
 676 00a2 4883BD98 		cmpq	$0, -616(%rbp)
 676      FDFFFF00 
 677 00aa 750A     		jne	.L49
 273:/home/xingli/share/1205tiny/network/dtls/mbedtls/mbedtls-2.16.2/library/pkcs12.c ****         return( MBEDTLS_ERR_PKCS12_FEATURE_UNAVAILABLE );
 678              		.loc 1 273 15
 679 00ac B800E1FF 		movl	$-7936, %eax
 679      FF
 680 00b1 E9C70400 		jmp	.L74
 680      00
 681              	.L49:
 274:/home/xingli/share/1205tiny/network/dtls/mbedtls/mbedtls-2.16.2/library/pkcs12.c **** 
 275:/home/xingli/share/1205tiny/network/dtls/mbedtls/mbedtls-2.16.2/library/pkcs12.c ****     mbedtls_md_init( &md_ctx );
 682              		.loc 1 275 5
 683 00b6 488D85B0 		leaq	-592(%rbp), %rax
 683      FDFFFF
 684 00bd 4889C7   		movq	%rax, %rdi
 685 00c0 E8000000 		call	mbedtls_md_init@PLT
 685      00
 276:/home/xingli/share/1205tiny/network/dtls/mbedtls/mbedtls-2.16.2/library/pkcs12.c **** 
 277:/home/xingli/share/1205tiny/network/dtls/mbedtls/mbedtls-2.16.2/library/pkcs12.c ****     if( ( ret = mbedtls_md_setup( &md_ctx, md_info, 0 ) ) != 0 )
 686              		.loc 1 277 17
 687 00c5 488B8D98 		movq	-616(%rbp), %rcx
 687      FDFFFF
 688 00cc 488D85B0 		leaq	-592(%rbp), %rax
 688      FDFFFF
 689 00d3 BA000000 		movl	$0, %edx
 689      00
 690 00d8 4889CE   		movq	%rcx, %rsi
 691 00db 4889C7   		movq	%rax, %rdi
 692 00de E8000000 		call	mbedtls_md_setup@PLT
 692      00
 693 00e3 898578FD 		movl	%eax, -648(%rbp)
 693      FFFF
GAS LISTING /tmp/ccV3GUoK.s 			page 22


 694              		.loc 1 277 7
 695 00e9 83BD78FD 		cmpl	$0, -648(%rbp)
 695      FFFF00
 696 00f0 740B     		je	.L50
 278:/home/xingli/share/1205tiny/network/dtls/mbedtls/mbedtls-2.16.2/library/pkcs12.c ****         return( ret );
 697              		.loc 1 278 15
 698 00f2 8B8578FD 		movl	-648(%rbp), %eax
 698      FFFF
 699 00f8 E9800400 		jmp	.L74
 699      00
 700              	.L50:
 279:/home/xingli/share/1205tiny/network/dtls/mbedtls/mbedtls-2.16.2/library/pkcs12.c ****     hlen = mbedtls_md_get_size( md_info );
 701              		.loc 1 279 12
 702 00fd 488B8598 		movq	-616(%rbp), %rax
 702      FDFFFF
 703 0104 4889C7   		movq	%rax, %rdi
 704 0107 E8000000 		call	mbedtls_md_get_size@PLT
 704      00
 705              		.loc 1 279 10
 706 010c 0FB6C0   		movzbl	%al, %eax
 707 010f 488985A0 		movq	%rax, -608(%rbp)
 707      FDFFFF
 280:/home/xingli/share/1205tiny/network/dtls/mbedtls/mbedtls-2.16.2/library/pkcs12.c **** 
 281:/home/xingli/share/1205tiny/network/dtls/mbedtls/mbedtls-2.16.2/library/pkcs12.c ****     if( hlen <= 32 )
 708              		.loc 1 281 7
 709 0116 4883BDA0 		cmpq	$32, -608(%rbp)
 709      FDFFFF20 
 710 011e 770D     		ja	.L51
 282:/home/xingli/share/1205tiny/network/dtls/mbedtls/mbedtls-2.16.2/library/pkcs12.c ****         v = 64;
 711              		.loc 1 282 11
 712 0120 48C78588 		movq	$64, -632(%rbp)
 712      FDFFFF40 
 712      000000
 713 012b EB0B     		jmp	.L52
 714              	.L51:
 283:/home/xingli/share/1205tiny/network/dtls/mbedtls/mbedtls-2.16.2/library/pkcs12.c ****     else
 284:/home/xingli/share/1205tiny/network/dtls/mbedtls/mbedtls-2.16.2/library/pkcs12.c ****         v = 128;
 715              		.loc 1 284 11
 716 012d 48C78588 		movq	$128, -632(%rbp)
 716      FDFFFF80 
 716      000000
 717              	.L52:
 285:/home/xingli/share/1205tiny/network/dtls/mbedtls/mbedtls-2.16.2/library/pkcs12.c **** 
 286:/home/xingli/share/1205tiny/network/dtls/mbedtls/mbedtls-2.16.2/library/pkcs12.c ****     memset( diversifier, (unsigned char) id, v );
 718              		.loc 1 286 26
 719 0138 8B8538FD 		movl	-712(%rbp), %eax
 719      FFFF
 720              		.loc 1 286 5
 721 013e 0FB6C8   		movzbl	%al, %ecx
 722 0141 488B9588 		movq	-632(%rbp), %rdx
 722      FDFFFF
 723 0148 488D85F0 		leaq	-528(%rbp), %rax
 723      FDFFFF
 724 014f 89CE     		movl	%ecx, %esi
 725 0151 4889C7   		movq	%rax, %rdi
 726 0154 E8000000 		call	memset@PLT
 726      00
GAS LISTING /tmp/ccV3GUoK.s 			page 23


 287:/home/xingli/share/1205tiny/network/dtls/mbedtls/mbedtls-2.16.2/library/pkcs12.c **** 
 288:/home/xingli/share/1205tiny/network/dtls/mbedtls/mbedtls-2.16.2/library/pkcs12.c ****     pkcs12_fill_buffer( salt_block, v, salt, saltlen );
 727              		.loc 1 288 5
 728 0159 488B8D40 		movq	-704(%rbp), %rcx
 728      FDFFFF
 729 0160 488B9548 		movq	-696(%rbp), %rdx
 729      FDFFFF
 730 0167 488BB588 		movq	-632(%rbp), %rsi
 730      FDFFFF
 731 016e 488D8570 		leaq	-400(%rbp), %rax
 731      FEFFFF
 732 0175 4889C7   		movq	%rax, %rdi
 733 0178 E8000000 		call	pkcs12_fill_buffer
 733      00
 289:/home/xingli/share/1205tiny/network/dtls/mbedtls/mbedtls-2.16.2/library/pkcs12.c ****     pkcs12_fill_buffer( pwd_block,  v, pwd,  pwdlen  );
 734              		.loc 1 289 5
 735 017d 488B8D50 		movq	-688(%rbp), %rcx
 735      FDFFFF
 736 0184 488B9558 		movq	-680(%rbp), %rdx
 736      FDFFFF
 737 018b 488BB588 		movq	-632(%rbp), %rsi
 737      FDFFFF
 738 0192 488D85F0 		leaq	-272(%rbp), %rax
 738      FEFFFF
 739 0199 4889C7   		movq	%rax, %rdi
 740 019c E8000000 		call	pkcs12_fill_buffer
 740      00
 290:/home/xingli/share/1205tiny/network/dtls/mbedtls/mbedtls-2.16.2/library/pkcs12.c **** 
 291:/home/xingli/share/1205tiny/network/dtls/mbedtls/mbedtls-2.16.2/library/pkcs12.c ****     p = data;
 741              		.loc 1 291 7
 742 01a1 488B8568 		movq	-664(%rbp), %rax
 742      FDFFFF
 743 01a8 48898580 		movq	%rax, -640(%rbp)
 743      FDFFFF
 292:/home/xingli/share/1205tiny/network/dtls/mbedtls/mbedtls-2.16.2/library/pkcs12.c ****     while( datalen > 0 )
 744              		.loc 1 292 10
 745 01af E9370300 		jmp	.L53
 745      00
 746              	.L73:
 293:/home/xingli/share/1205tiny/network/dtls/mbedtls/mbedtls-2.16.2/library/pkcs12.c ****     {
 294:/home/xingli/share/1205tiny/network/dtls/mbedtls/mbedtls-2.16.2/library/pkcs12.c ****         // Calculate hash( diversifier || salt_block || pwd_block )
 295:/home/xingli/share/1205tiny/network/dtls/mbedtls/mbedtls-2.16.2/library/pkcs12.c ****         if( ( ret = mbedtls_md_starts( &md_ctx ) ) != 0 )
 747              		.loc 1 295 21
 748 01b4 488D85B0 		leaq	-592(%rbp), %rax
 748      FDFFFF
 749 01bb 4889C7   		movq	%rax, %rdi
 750 01be E8000000 		call	mbedtls_md_starts@PLT
 750      00
 751 01c3 898578FD 		movl	%eax, -648(%rbp)
 751      FFFF
 752              		.loc 1 295 11
 753 01c9 83BD78FD 		cmpl	$0, -648(%rbp)
 753      FFFF00
 754 01d0 0F853203 		jne	.L76
 754      0000
 296:/home/xingli/share/1205tiny/network/dtls/mbedtls/mbedtls-2.16.2/library/pkcs12.c ****             goto exit;
 297:/home/xingli/share/1205tiny/network/dtls/mbedtls/mbedtls-2.16.2/library/pkcs12.c **** 
GAS LISTING /tmp/ccV3GUoK.s 			page 24


 298:/home/xingli/share/1205tiny/network/dtls/mbedtls/mbedtls-2.16.2/library/pkcs12.c ****         if( ( ret = mbedtls_md_update( &md_ctx, diversifier, v ) ) != 0 )
 755              		.loc 1 298 21
 756 01d6 488B9588 		movq	-632(%rbp), %rdx
 756      FDFFFF
 757 01dd 488D8DF0 		leaq	-528(%rbp), %rcx
 757      FDFFFF
 758 01e4 488D85B0 		leaq	-592(%rbp), %rax
 758      FDFFFF
 759 01eb 4889CE   		movq	%rcx, %rsi
 760 01ee 4889C7   		movq	%rax, %rdi
 761 01f1 E8000000 		call	mbedtls_md_update@PLT
 761      00
 762 01f6 898578FD 		movl	%eax, -648(%rbp)
 762      FFFF
 763              		.loc 1 298 11
 764 01fc 83BD78FD 		cmpl	$0, -648(%rbp)
 764      FFFF00
 765 0203 0F850203 		jne	.L77
 765      0000
 299:/home/xingli/share/1205tiny/network/dtls/mbedtls/mbedtls-2.16.2/library/pkcs12.c ****             goto exit;
 300:/home/xingli/share/1205tiny/network/dtls/mbedtls/mbedtls-2.16.2/library/pkcs12.c **** 
 301:/home/xingli/share/1205tiny/network/dtls/mbedtls/mbedtls-2.16.2/library/pkcs12.c ****         if( ( ret = mbedtls_md_update( &md_ctx, salt_block, v ) ) != 0 )
 766              		.loc 1 301 21
 767 0209 488B9588 		movq	-632(%rbp), %rdx
 767      FDFFFF
 768 0210 488D8D70 		leaq	-400(%rbp), %rcx
 768      FEFFFF
 769 0217 488D85B0 		leaq	-592(%rbp), %rax
 769      FDFFFF
 770 021e 4889CE   		movq	%rcx, %rsi
 771 0221 4889C7   		movq	%rax, %rdi
 772 0224 E8000000 		call	mbedtls_md_update@PLT
 772      00
 773 0229 898578FD 		movl	%eax, -648(%rbp)
 773      FFFF
 774              		.loc 1 301 11
 775 022f 83BD78FD 		cmpl	$0, -648(%rbp)
 775      FFFF00
 776 0236 0F85D202 		jne	.L78
 776      0000
 302:/home/xingli/share/1205tiny/network/dtls/mbedtls/mbedtls-2.16.2/library/pkcs12.c ****             goto exit;
 303:/home/xingli/share/1205tiny/network/dtls/mbedtls/mbedtls-2.16.2/library/pkcs12.c **** 
 304:/home/xingli/share/1205tiny/network/dtls/mbedtls/mbedtls-2.16.2/library/pkcs12.c ****         if( ( ret = mbedtls_md_update( &md_ctx, pwd_block, v ) ) != 0 )
 777              		.loc 1 304 21
 778 023c 488B9588 		movq	-632(%rbp), %rdx
 778      FDFFFF
 779 0243 488D8DF0 		leaq	-272(%rbp), %rcx
 779      FEFFFF
 780 024a 488D85B0 		leaq	-592(%rbp), %rax
 780      FDFFFF
 781 0251 4889CE   		movq	%rcx, %rsi
 782 0254 4889C7   		movq	%rax, %rdi
 783 0257 E8000000 		call	mbedtls_md_update@PLT
 783      00
 784 025c 898578FD 		movl	%eax, -648(%rbp)
 784      FFFF
 785              		.loc 1 304 11
GAS LISTING /tmp/ccV3GUoK.s 			page 25


 786 0262 83BD78FD 		cmpl	$0, -648(%rbp)
 786      FFFF00
 787 0269 0F85A202 		jne	.L79
 787      0000
 305:/home/xingli/share/1205tiny/network/dtls/mbedtls/mbedtls-2.16.2/library/pkcs12.c ****             goto exit;
 306:/home/xingli/share/1205tiny/network/dtls/mbedtls/mbedtls-2.16.2/library/pkcs12.c **** 
 307:/home/xingli/share/1205tiny/network/dtls/mbedtls/mbedtls-2.16.2/library/pkcs12.c ****         if( ( ret = mbedtls_md_finish( &md_ctx, hash_output ) ) != 0 )
 788              		.loc 1 307 21
 789 026f 488D95D0 		leaq	-560(%rbp), %rdx
 789      FDFFFF
 790 0276 488D85B0 		leaq	-592(%rbp), %rax
 790      FDFFFF
 791 027d 4889D6   		movq	%rdx, %rsi
 792 0280 4889C7   		movq	%rax, %rdi
 793 0283 E8000000 		call	mbedtls_md_finish@PLT
 793      00
 794 0288 898578FD 		movl	%eax, -648(%rbp)
 794      FFFF
 795              		.loc 1 307 11
 796 028e 83BD78FD 		cmpl	$0, -648(%rbp)
 796      FFFF00
 797 0295 0F857902 		jne	.L80
 797      0000
 308:/home/xingli/share/1205tiny/network/dtls/mbedtls/mbedtls-2.16.2/library/pkcs12.c ****             goto exit;
 309:/home/xingli/share/1205tiny/network/dtls/mbedtls/mbedtls-2.16.2/library/pkcs12.c **** 
 310:/home/xingli/share/1205tiny/network/dtls/mbedtls/mbedtls-2.16.2/library/pkcs12.c ****         // Perform remaining ( iterations - 1 ) recursive hash calculations
 311:/home/xingli/share/1205tiny/network/dtls/mbedtls/mbedtls-2.16.2/library/pkcs12.c ****         for( i = 1; i < (size_t) iterations; i++ )
 798              		.loc 1 311 16
 799 029b 48C78590 		movq	$1, -624(%rbp)
 799      FDFFFF01 
 799      000000
 800              		.loc 1 311 9
 801 02a6 EB3F     		jmp	.L60
 802              	.L62:
 312:/home/xingli/share/1205tiny/network/dtls/mbedtls/mbedtls-2.16.2/library/pkcs12.c ****         {
 313:/home/xingli/share/1205tiny/network/dtls/mbedtls/mbedtls-2.16.2/library/pkcs12.c ****             if( ( ret = mbedtls_md( md_info, hash_output, hlen, hash_output ) ) != 0 )
 803              		.loc 1 313 25
 804 02a8 488D8DD0 		leaq	-560(%rbp), %rcx
 804      FDFFFF
 805 02af 488B95A0 		movq	-608(%rbp), %rdx
 805      FDFFFF
 806 02b6 488DB5D0 		leaq	-560(%rbp), %rsi
 806      FDFFFF
 807 02bd 488B8598 		movq	-616(%rbp), %rax
 807      FDFFFF
 808 02c4 4889C7   		movq	%rax, %rdi
 809 02c7 E8000000 		call	mbedtls_md@PLT
 809      00
 810 02cc 898578FD 		movl	%eax, -648(%rbp)
 810      FFFF
 811              		.loc 1 313 15
 812 02d2 83BD78FD 		cmpl	$0, -648(%rbp)
 812      FFFF00
 813 02d9 0F853802 		jne	.L81
 813      0000
 311:/home/xingli/share/1205tiny/network/dtls/mbedtls/mbedtls-2.16.2/library/pkcs12.c ****         {
 814              		.loc 1 311 47 discriminator 2
GAS LISTING /tmp/ccV3GUoK.s 			page 26


 815 02df 48838590 		addq	$1, -624(%rbp)
 815      FDFFFF01 
 816              	.L60:
 311:/home/xingli/share/1205tiny/network/dtls/mbedtls/mbedtls-2.16.2/library/pkcs12.c ****         {
 817              		.loc 1 311 25 discriminator 1
 818 02e7 8B8534FD 		movl	-716(%rbp), %eax
 818      FFFF
 819 02ed 4898     		cltq
 311:/home/xingli/share/1205tiny/network/dtls/mbedtls/mbedtls-2.16.2/library/pkcs12.c ****         {
 820              		.loc 1 311 9 discriminator 1
 821 02ef 48398590 		cmpq	%rax, -624(%rbp)
 821      FDFFFF
 822 02f6 72B0     		jb	.L62
 314:/home/xingli/share/1205tiny/network/dtls/mbedtls/mbedtls-2.16.2/library/pkcs12.c ****                 goto exit;
 315:/home/xingli/share/1205tiny/network/dtls/mbedtls/mbedtls-2.16.2/library/pkcs12.c ****         }
 316:/home/xingli/share/1205tiny/network/dtls/mbedtls/mbedtls-2.16.2/library/pkcs12.c **** 
 317:/home/xingli/share/1205tiny/network/dtls/mbedtls/mbedtls-2.16.2/library/pkcs12.c ****         use_len = ( datalen > hlen ) ? hlen : datalen;
 823              		.loc 1 317 17
 824 02f8 488B85A0 		movq	-608(%rbp), %rax
 824      FDFFFF
 825 02ff 48398560 		cmpq	%rax, -672(%rbp)
 825      FDFFFF
 826 0306 480F4685 		cmovbe	-672(%rbp), %rax
 826      60FDFFFF 
 827 030e 488985A8 		movq	%rax, -600(%rbp)
 827      FDFFFF
 318:/home/xingli/share/1205tiny/network/dtls/mbedtls/mbedtls-2.16.2/library/pkcs12.c ****         memcpy( p, hash_output, use_len );
 828              		.loc 1 318 9
 829 0315 488B95A8 		movq	-600(%rbp), %rdx
 829      FDFFFF
 830 031c 488D8DD0 		leaq	-560(%rbp), %rcx
 830      FDFFFF
 831 0323 488B8580 		movq	-640(%rbp), %rax
 831      FDFFFF
 832 032a 4889CE   		movq	%rcx, %rsi
 833 032d 4889C7   		movq	%rax, %rdi
 834 0330 E8000000 		call	memcpy@PLT
 834      00
 319:/home/xingli/share/1205tiny/network/dtls/mbedtls/mbedtls-2.16.2/library/pkcs12.c ****         datalen -= use_len;
 835              		.loc 1 319 17
 836 0335 488B85A8 		movq	-600(%rbp), %rax
 836      FDFFFF
 837 033c 48298560 		subq	%rax, -672(%rbp)
 837      FDFFFF
 320:/home/xingli/share/1205tiny/network/dtls/mbedtls/mbedtls-2.16.2/library/pkcs12.c ****         p += use_len;
 838              		.loc 1 320 11
 839 0343 488B85A8 		movq	-600(%rbp), %rax
 839      FDFFFF
 840 034a 48018580 		addq	%rax, -640(%rbp)
 840      FDFFFF
 321:/home/xingli/share/1205tiny/network/dtls/mbedtls/mbedtls-2.16.2/library/pkcs12.c **** 
 322:/home/xingli/share/1205tiny/network/dtls/mbedtls/mbedtls-2.16.2/library/pkcs12.c ****         if( datalen == 0 )
 841              		.loc 1 322 11
 842 0351 4883BD60 		cmpq	$0, -672(%rbp)
 842      FDFFFF00 
 843 0359 0F849C01 		je	.L82
 843      0000
GAS LISTING /tmp/ccV3GUoK.s 			page 27


 323:/home/xingli/share/1205tiny/network/dtls/mbedtls/mbedtls-2.16.2/library/pkcs12.c ****             break;
 324:/home/xingli/share/1205tiny/network/dtls/mbedtls/mbedtls-2.16.2/library/pkcs12.c **** 
 325:/home/xingli/share/1205tiny/network/dtls/mbedtls/mbedtls-2.16.2/library/pkcs12.c ****         // Concatenating copies of hash_output into hash_block (B)
 326:/home/xingli/share/1205tiny/network/dtls/mbedtls/mbedtls-2.16.2/library/pkcs12.c ****         pkcs12_fill_buffer( hash_block, v, hash_output, hlen );
 844              		.loc 1 326 9
 845 035f 488B8DA0 		movq	-608(%rbp), %rcx
 845      FDFFFF
 846 0366 488D95D0 		leaq	-560(%rbp), %rdx
 846      FDFFFF
 847 036d 488BB588 		movq	-632(%rbp), %rsi
 847      FDFFFF
 848 0374 488D8570 		leaq	-144(%rbp), %rax
 848      FFFFFF
 849 037b 4889C7   		movq	%rax, %rdi
 850 037e E8000000 		call	pkcs12_fill_buffer
 850      00
 327:/home/xingli/share/1205tiny/network/dtls/mbedtls/mbedtls-2.16.2/library/pkcs12.c **** 
 328:/home/xingli/share/1205tiny/network/dtls/mbedtls/mbedtls-2.16.2/library/pkcs12.c ****         // B += 1
 329:/home/xingli/share/1205tiny/network/dtls/mbedtls/mbedtls-2.16.2/library/pkcs12.c ****         for( i = v; i > 0; i-- )
 851              		.loc 1 329 16
 852 0383 488B8588 		movq	-632(%rbp), %rax
 852      FDFFFF
 853 038a 48898590 		movq	%rax, -624(%rbp)
 853      FDFFFF
 854              		.loc 1 329 9
 855 0391 EB31     		jmp	.L65
 856              	.L68:
 330:/home/xingli/share/1205tiny/network/dtls/mbedtls/mbedtls-2.16.2/library/pkcs12.c ****             if( ++hash_block[i - 1] != 0 )
 857              		.loc 1 330 32
 858 0393 488B8590 		movq	-624(%rbp), %rax
 858      FDFFFF
 859 039a 4883E801 		subq	$1, %rax
 860              		.loc 1 330 29
 861 039e 0FB69405 		movzbl	-144(%rbp,%rax), %edx
 861      70FFFFFF 
 862              		.loc 1 330 17
 863 03a6 83C201   		addl	$1, %edx
 864              		.loc 1 330 15
 865 03a9 88940570 		movb	%dl, -144(%rbp,%rax)
 865      FFFFFF
 866              		.loc 1 330 29
 867 03b0 0FB68405 		movzbl	-144(%rbp,%rax), %eax
 867      70FFFFFF 
 868              		.loc 1 330 15
 869 03b8 84C0     		testb	%al, %al
 870 03ba 7514     		jne	.L83
 329:/home/xingli/share/1205tiny/network/dtls/mbedtls/mbedtls-2.16.2/library/pkcs12.c ****             if( ++hash_block[i - 1] != 0 )
 871              		.loc 1 329 29 discriminator 2
 872 03bc 4883AD90 		subq	$1, -624(%rbp)
 872      FDFFFF01 
 873              	.L65:
 329:/home/xingli/share/1205tiny/network/dtls/mbedtls/mbedtls-2.16.2/library/pkcs12.c ****             if( ++hash_block[i - 1] != 0 )
 874              		.loc 1 329 9 discriminator 1
 875 03c4 4883BD90 		cmpq	$0, -624(%rbp)
 875      FDFFFF00 
 876 03cc 75C5     		jne	.L68
 877 03ce EB01     		jmp	.L67
GAS LISTING /tmp/ccV3GUoK.s 			page 28


 878              	.L83:
 331:/home/xingli/share/1205tiny/network/dtls/mbedtls/mbedtls-2.16.2/library/pkcs12.c ****                 break;
 879              		.loc 1 331 17
 880 03d0 90       		nop
 881              	.L67:
 332:/home/xingli/share/1205tiny/network/dtls/mbedtls/mbedtls-2.16.2/library/pkcs12.c **** 
 333:/home/xingli/share/1205tiny/network/dtls/mbedtls/mbedtls-2.16.2/library/pkcs12.c ****         // salt_block += B
 334:/home/xingli/share/1205tiny/network/dtls/mbedtls/mbedtls-2.16.2/library/pkcs12.c ****         c = 0;
 882              		.loc 1 334 11
 883 03d1 C68577FD 		movb	$0, -649(%rbp)
 883      FFFF00
 335:/home/xingli/share/1205tiny/network/dtls/mbedtls/mbedtls-2.16.2/library/pkcs12.c ****         for( i = v; i > 0; i-- )
 884              		.loc 1 335 16
 885 03d8 488B8588 		movq	-632(%rbp), %rax
 885      FDFFFF
 886 03df 48898590 		movq	%rax, -624(%rbp)
 886      FDFFFF
 887              		.loc 1 335 9
 888 03e6 EB6C     		jmp	.L69
 889              	.L70:
 336:/home/xingli/share/1205tiny/network/dtls/mbedtls/mbedtls-2.16.2/library/pkcs12.c ****         {
 337:/home/xingli/share/1205tiny/network/dtls/mbedtls/mbedtls-2.16.2/library/pkcs12.c ****             j = salt_block[i - 1] + hash_block[i - 1] + c;
 890              		.loc 1 337 30 discriminator 3
 891 03e8 488B8590 		movq	-624(%rbp), %rax
 891      FDFFFF
 892 03ef 4883E801 		subq	$1, %rax
 893              		.loc 1 337 27 discriminator 3
 894 03f3 0FB68405 		movzbl	-400(%rbp,%rax), %eax
 894      70FEFFFF 
 895 03fb 0FB6D0   		movzbl	%al, %edx
 896              		.loc 1 337 50 discriminator 3
 897 03fe 488B8590 		movq	-624(%rbp), %rax
 897      FDFFFF
 898 0405 4883E801 		subq	$1, %rax
 899              		.loc 1 337 47 discriminator 3
 900 0409 0FB68405 		movzbl	-144(%rbp,%rax), %eax
 900      70FFFFFF 
 901 0411 0FB6C0   		movzbl	%al, %eax
 902              		.loc 1 337 35 discriminator 3
 903 0414 01C2     		addl	%eax, %edx
 904              		.loc 1 337 55 discriminator 3
 905 0416 0FB68577 		movzbl	-649(%rbp), %eax
 905      FDFFFF
 906 041d 01D0     		addl	%edx, %eax
 907              		.loc 1 337 15 discriminator 3
 908 041f 89857CFD 		movl	%eax, -644(%rbp)
 908      FFFF
 338:/home/xingli/share/1205tiny/network/dtls/mbedtls/mbedtls-2.16.2/library/pkcs12.c ****             c = (unsigned char) (j >> 8);
 909              		.loc 1 338 36 discriminator 3
 910 0425 8B857CFD 		movl	-644(%rbp), %eax
 910      FFFF
 911 042b C1E808   		shrl	$8, %eax
 912              		.loc 1 338 15 discriminator 3
 913 042e 888577FD 		movb	%al, -649(%rbp)
 913      FFFF
 339:/home/xingli/share/1205tiny/network/dtls/mbedtls/mbedtls-2.16.2/library/pkcs12.c ****             salt_block[i - 1] = j & 0xFF;
 914              		.loc 1 339 26 discriminator 3
GAS LISTING /tmp/ccV3GUoK.s 			page 29


 915 0434 488B8590 		movq	-624(%rbp), %rax
 915      FDFFFF
 916 043b 4883E801 		subq	$1, %rax
 917              		.loc 1 339 31 discriminator 3
 918 043f 8B957CFD 		movl	-644(%rbp), %edx
 918      FFFF
 919 0445 88940570 		movb	%dl, -400(%rbp,%rax)
 919      FEFFFF
 335:/home/xingli/share/1205tiny/network/dtls/mbedtls/mbedtls-2.16.2/library/pkcs12.c ****         {
 920              		.loc 1 335 29 discriminator 3
 921 044c 4883AD90 		subq	$1, -624(%rbp)
 921      FDFFFF01 
 922              	.L69:
 335:/home/xingli/share/1205tiny/network/dtls/mbedtls/mbedtls-2.16.2/library/pkcs12.c ****         {
 923              		.loc 1 335 9 discriminator 1
 924 0454 4883BD90 		cmpq	$0, -624(%rbp)
 924      FDFFFF00 
 925 045c 758A     		jne	.L70
 340:/home/xingli/share/1205tiny/network/dtls/mbedtls/mbedtls-2.16.2/library/pkcs12.c ****         }
 341:/home/xingli/share/1205tiny/network/dtls/mbedtls/mbedtls-2.16.2/library/pkcs12.c **** 
 342:/home/xingli/share/1205tiny/network/dtls/mbedtls/mbedtls-2.16.2/library/pkcs12.c ****         // pwd_block  += B
 343:/home/xingli/share/1205tiny/network/dtls/mbedtls/mbedtls-2.16.2/library/pkcs12.c ****         c = 0;
 926              		.loc 1 343 11
 927 045e C68577FD 		movb	$0, -649(%rbp)
 927      FFFF00
 344:/home/xingli/share/1205tiny/network/dtls/mbedtls/mbedtls-2.16.2/library/pkcs12.c ****         for( i = v; i > 0; i-- )
 928              		.loc 1 344 16
 929 0465 488B8588 		movq	-632(%rbp), %rax
 929      FDFFFF
 930 046c 48898590 		movq	%rax, -624(%rbp)
 930      FDFFFF
 931              		.loc 1 344 9
 932 0473 EB6C     		jmp	.L71
 933              	.L72:
 345:/home/xingli/share/1205tiny/network/dtls/mbedtls/mbedtls-2.16.2/library/pkcs12.c ****         {
 346:/home/xingli/share/1205tiny/network/dtls/mbedtls/mbedtls-2.16.2/library/pkcs12.c ****             j = pwd_block[i - 1] + hash_block[i - 1] + c;
 934              		.loc 1 346 29 discriminator 3
 935 0475 488B8590 		movq	-624(%rbp), %rax
 935      FDFFFF
 936 047c 4883E801 		subq	$1, %rax
 937              		.loc 1 346 26 discriminator 3
 938 0480 0FB68405 		movzbl	-272(%rbp,%rax), %eax
 938      F0FEFFFF 
 939 0488 0FB6D0   		movzbl	%al, %edx
 940              		.loc 1 346 49 discriminator 3
 941 048b 488B8590 		movq	-624(%rbp), %rax
 941      FDFFFF
 942 0492 4883E801 		subq	$1, %rax
 943              		.loc 1 346 46 discriminator 3
 944 0496 0FB68405 		movzbl	-144(%rbp,%rax), %eax
 944      70FFFFFF 
 945 049e 0FB6C0   		movzbl	%al, %eax
 946              		.loc 1 346 34 discriminator 3
 947 04a1 01C2     		addl	%eax, %edx
 948              		.loc 1 346 54 discriminator 3
 949 04a3 0FB68577 		movzbl	-649(%rbp), %eax
 949      FDFFFF
GAS LISTING /tmp/ccV3GUoK.s 			page 30


 950 04aa 01D0     		addl	%edx, %eax
 951              		.loc 1 346 15 discriminator 3
 952 04ac 89857CFD 		movl	%eax, -644(%rbp)
 952      FFFF
 347:/home/xingli/share/1205tiny/network/dtls/mbedtls/mbedtls-2.16.2/library/pkcs12.c ****             c = (unsigned char) (j >> 8);
 953              		.loc 1 347 36 discriminator 3
 954 04b2 8B857CFD 		movl	-644(%rbp), %eax
 954      FFFF
 955 04b8 C1E808   		shrl	$8, %eax
 956              		.loc 1 347 15 discriminator 3
 957 04bb 888577FD 		movb	%al, -649(%rbp)
 957      FFFF
 348:/home/xingli/share/1205tiny/network/dtls/mbedtls/mbedtls-2.16.2/library/pkcs12.c ****             pwd_block[i - 1] = j & 0xFF;
 958              		.loc 1 348 25 discriminator 3
 959 04c1 488B8590 		movq	-624(%rbp), %rax
 959      FDFFFF
 960 04c8 4883E801 		subq	$1, %rax
 961              		.loc 1 348 30 discriminator 3
 962 04cc 8B957CFD 		movl	-644(%rbp), %edx
 962      FFFF
 963 04d2 889405F0 		movb	%dl, -272(%rbp,%rax)
 963      FEFFFF
 344:/home/xingli/share/1205tiny/network/dtls/mbedtls/mbedtls-2.16.2/library/pkcs12.c ****         {
 964              		.loc 1 344 29 discriminator 3
 965 04d9 4883AD90 		subq	$1, -624(%rbp)
 965      FDFFFF01 
 966              	.L71:
 344:/home/xingli/share/1205tiny/network/dtls/mbedtls/mbedtls-2.16.2/library/pkcs12.c ****         {
 967              		.loc 1 344 9 discriminator 1
 968 04e1 4883BD90 		cmpq	$0, -624(%rbp)
 968      FDFFFF00 
 969 04e9 758A     		jne	.L72
 970              	.L53:
 292:/home/xingli/share/1205tiny/network/dtls/mbedtls/mbedtls-2.16.2/library/pkcs12.c ****     {
 971              		.loc 1 292 10
 972 04eb 4883BD60 		cmpq	$0, -672(%rbp)
 972      FDFFFF00 
 973 04f3 0F85BBFC 		jne	.L73
 973      FFFF
 974 04f9 EB01     		jmp	.L64
 975              	.L82:
 323:/home/xingli/share/1205tiny/network/dtls/mbedtls/mbedtls-2.16.2/library/pkcs12.c **** 
 976              		.loc 1 323 13
 977 04fb 90       		nop
 978              	.L64:
 349:/home/xingli/share/1205tiny/network/dtls/mbedtls/mbedtls-2.16.2/library/pkcs12.c ****         }
 350:/home/xingli/share/1205tiny/network/dtls/mbedtls/mbedtls-2.16.2/library/pkcs12.c ****     }
 351:/home/xingli/share/1205tiny/network/dtls/mbedtls/mbedtls-2.16.2/library/pkcs12.c **** 
 352:/home/xingli/share/1205tiny/network/dtls/mbedtls/mbedtls-2.16.2/library/pkcs12.c ****     ret = 0;
 979              		.loc 1 352 9
 980 04fc C78578FD 		movl	$0, -648(%rbp)
 980      FFFF0000 
 980      0000
 981 0506 EB10     		jmp	.L55
 982              	.L76:
 296:/home/xingli/share/1205tiny/network/dtls/mbedtls/mbedtls-2.16.2/library/pkcs12.c **** 
 983              		.loc 1 296 13
GAS LISTING /tmp/ccV3GUoK.s 			page 31


 984 0508 90       		nop
 985 0509 EB0D     		jmp	.L55
 986              	.L77:
 299:/home/xingli/share/1205tiny/network/dtls/mbedtls/mbedtls-2.16.2/library/pkcs12.c **** 
 987              		.loc 1 299 13
 988 050b 90       		nop
 989 050c EB0A     		jmp	.L55
 990              	.L78:
 302:/home/xingli/share/1205tiny/network/dtls/mbedtls/mbedtls-2.16.2/library/pkcs12.c **** 
 991              		.loc 1 302 13
 992 050e 90       		nop
 993 050f EB07     		jmp	.L55
 994              	.L79:
 305:/home/xingli/share/1205tiny/network/dtls/mbedtls/mbedtls-2.16.2/library/pkcs12.c **** 
 995              		.loc 1 305 13
 996 0511 90       		nop
 997 0512 EB04     		jmp	.L55
 998              	.L80:
 308:/home/xingli/share/1205tiny/network/dtls/mbedtls/mbedtls-2.16.2/library/pkcs12.c **** 
 999              		.loc 1 308 13
 1000 0514 90       		nop
 1001 0515 EB01     		jmp	.L55
 1002              	.L81:
 314:/home/xingli/share/1205tiny/network/dtls/mbedtls/mbedtls-2.16.2/library/pkcs12.c ****         }
 1003              		.loc 1 314 17
 1004 0517 90       		nop
 1005              	.L55:
 353:/home/xingli/share/1205tiny/network/dtls/mbedtls/mbedtls-2.16.2/library/pkcs12.c **** 
 354:/home/xingli/share/1205tiny/network/dtls/mbedtls/mbedtls-2.16.2/library/pkcs12.c **** exit:
 355:/home/xingli/share/1205tiny/network/dtls/mbedtls/mbedtls-2.16.2/library/pkcs12.c ****     mbedtls_platform_zeroize( salt_block, sizeof( salt_block ) );
 1006              		.loc 1 355 5
 1007 0518 488D8570 		leaq	-400(%rbp), %rax
 1007      FEFFFF
 1008 051f BE800000 		movl	$128, %esi
 1008      00
 1009 0524 4889C7   		movq	%rax, %rdi
 1010 0527 E8000000 		call	mbedtls_platform_zeroize@PLT
 1010      00
 356:/home/xingli/share/1205tiny/network/dtls/mbedtls/mbedtls-2.16.2/library/pkcs12.c ****     mbedtls_platform_zeroize( pwd_block, sizeof( pwd_block ) );
 1011              		.loc 1 356 5
 1012 052c 488D85F0 		leaq	-272(%rbp), %rax
 1012      FEFFFF
 1013 0533 BE800000 		movl	$128, %esi
 1013      00
 1014 0538 4889C7   		movq	%rax, %rdi
 1015 053b E8000000 		call	mbedtls_platform_zeroize@PLT
 1015      00
 357:/home/xingli/share/1205tiny/network/dtls/mbedtls/mbedtls-2.16.2/library/pkcs12.c ****     mbedtls_platform_zeroize( hash_block, sizeof( hash_block ) );
 1016              		.loc 1 357 5
 1017 0540 488D8570 		leaq	-144(%rbp), %rax
 1017      FFFFFF
 1018 0547 BE800000 		movl	$128, %esi
 1018      00
 1019 054c 4889C7   		movq	%rax, %rdi
 1020 054f E8000000 		call	mbedtls_platform_zeroize@PLT
 1020      00
 358:/home/xingli/share/1205tiny/network/dtls/mbedtls/mbedtls-2.16.2/library/pkcs12.c ****     mbedtls_platform_zeroize( hash_output, sizeof( hash_output ) );
GAS LISTING /tmp/ccV3GUoK.s 			page 32


 1021              		.loc 1 358 5
 1022 0554 488D85D0 		leaq	-560(%rbp), %rax
 1022      FDFFFF
 1023 055b BE200000 		movl	$32, %esi
 1023      00
 1024 0560 4889C7   		movq	%rax, %rdi
 1025 0563 E8000000 		call	mbedtls_platform_zeroize@PLT
 1025      00
 359:/home/xingli/share/1205tiny/network/dtls/mbedtls/mbedtls-2.16.2/library/pkcs12.c **** 
 360:/home/xingli/share/1205tiny/network/dtls/mbedtls/mbedtls-2.16.2/library/pkcs12.c ****     mbedtls_md_free( &md_ctx );
 1026              		.loc 1 360 5
 1027 0568 488D85B0 		leaq	-592(%rbp), %rax
 1027      FDFFFF
 1028 056f 4889C7   		movq	%rax, %rdi
 1029 0572 E8000000 		call	mbedtls_md_free@PLT
 1029      00
 361:/home/xingli/share/1205tiny/network/dtls/mbedtls/mbedtls-2.16.2/library/pkcs12.c **** 
 362:/home/xingli/share/1205tiny/network/dtls/mbedtls/mbedtls-2.16.2/library/pkcs12.c ****     return( ret );
 1030              		.loc 1 362 11
 1031 0577 8B8578FD 		movl	-648(%rbp), %eax
 1031      FFFF
 1032              	.L74:
 363:/home/xingli/share/1205tiny/network/dtls/mbedtls/mbedtls-2.16.2/library/pkcs12.c **** }
 1033              		.loc 1 363 1 discriminator 1
 1034 057d 488B7DF8 		movq	-8(%rbp), %rdi
 1035 0581 6448333C 		xorq	%fs:40, %rdi
 1035      25280000 
 1035      00
 1036 058a 7405     		je	.L75
 1037              		.loc 1 363 1 is_stmt 0
 1038 058c E8000000 		call	__stack_chk_fail@PLT
 1038      00
 1039              	.L75:
 1040 0591 C9       		leave
 1041              	.LCFI17:
 1042              		.cfi_def_cfa 7, 8
 1043 0592 C3       		ret
 1044              		.cfi_endproc
 1045              	.LFE12:
 1047              		.text
 1048              	.Letext0:
 1049              		.file 2 "/usr/lib/gcc/x86_64-linux-gnu/9/include/stddef.h"
 1050              		.file 3 "/home/xingli/share/1205tiny/network/dtls/mbedtls/mbedtls-2.16.2/include/mbedtls/md.h"
 1051              		.file 4 "/home/xingli/share/1205tiny/network/dtls/mbedtls/mbedtls-2.16.2/include/mbedtls/cipher.h"
 1052              		.file 5 "/home/xingli/share/1205tiny/network/dtls/mbedtls/mbedtls-2.16.2/include/mbedtls/asn1.h"
 3647              		.section	.note.gnu.property,"a"
 3648              		.align 8
 3649 0000 04000000 		.long	 1f - 0f
 3650 0004 10000000 		.long	 4f - 1f
 3651 0008 05000000 		.long	 5
 3652              	0:
 3653 000c 474E5500 		.string	 "GNU"
 3654              	1:
 3655              		.align 8
 3656 0010 020000C0 		.long	 0xc0000002
 3657 0014 04000000 		.long	 3f - 2f
 3658              	2:
GAS LISTING /tmp/ccV3GUoK.s 			page 33


 3659 0018 03000000 		.long	 0x3
 3660              	3:
 3661 001c 00000000 		.align 8
 3662              	4:
GAS LISTING /tmp/ccV3GUoK.s 			page 34

