GAS LISTING /tmp/ccmvMAN8.s 			page 1


   1              		.file	"pkparse.c"
   2              		.text
   3              	.Ltext0:
   4              		.section	.text.mbedtls_pk_rsa,"ax",@progbits
   6              	mbedtls_pk_rsa:
   7              	.LFB0:
   8              		.file 1 "/home/xingli/share/LiteOS_Lab/network/dtls/mbedtls/mbedtls-2.16.2/include/mbedtls/pk.h"
   1:/home/xingli/share/LiteOS_Lab/network/dtls/mbedtls/mbedtls-2.16.2/include/mbedtls/pk.h **** /**
   2:/home/xingli/share/LiteOS_Lab/network/dtls/mbedtls/mbedtls-2.16.2/include/mbedtls/pk.h ****  * \file pk.h
   3:/home/xingli/share/LiteOS_Lab/network/dtls/mbedtls/mbedtls-2.16.2/include/mbedtls/pk.h ****  *
   4:/home/xingli/share/LiteOS_Lab/network/dtls/mbedtls/mbedtls-2.16.2/include/mbedtls/pk.h ****  * \brief Public Key abstraction layer
   5:/home/xingli/share/LiteOS_Lab/network/dtls/mbedtls/mbedtls-2.16.2/include/mbedtls/pk.h ****  */
   6:/home/xingli/share/LiteOS_Lab/network/dtls/mbedtls/mbedtls-2.16.2/include/mbedtls/pk.h **** /*
   7:/home/xingli/share/LiteOS_Lab/network/dtls/mbedtls/mbedtls-2.16.2/include/mbedtls/pk.h ****  *  Copyright (C) 2006-2015, ARM Limited, All Rights Reserved
   8:/home/xingli/share/LiteOS_Lab/network/dtls/mbedtls/mbedtls-2.16.2/include/mbedtls/pk.h ****  *  SPDX-License-Identifier: Apache-2.0
   9:/home/xingli/share/LiteOS_Lab/network/dtls/mbedtls/mbedtls-2.16.2/include/mbedtls/pk.h ****  *
  10:/home/xingli/share/LiteOS_Lab/network/dtls/mbedtls/mbedtls-2.16.2/include/mbedtls/pk.h ****  *  Licensed under the Apache License, Version 2.0 (the "License"); you may
  11:/home/xingli/share/LiteOS_Lab/network/dtls/mbedtls/mbedtls-2.16.2/include/mbedtls/pk.h ****  *  not use this file except in compliance with the License.
  12:/home/xingli/share/LiteOS_Lab/network/dtls/mbedtls/mbedtls-2.16.2/include/mbedtls/pk.h ****  *  You may obtain a copy of the License at
  13:/home/xingli/share/LiteOS_Lab/network/dtls/mbedtls/mbedtls-2.16.2/include/mbedtls/pk.h ****  *
  14:/home/xingli/share/LiteOS_Lab/network/dtls/mbedtls/mbedtls-2.16.2/include/mbedtls/pk.h ****  *  http://www.apache.org/licenses/LICENSE-2.0
  15:/home/xingli/share/LiteOS_Lab/network/dtls/mbedtls/mbedtls-2.16.2/include/mbedtls/pk.h ****  *
  16:/home/xingli/share/LiteOS_Lab/network/dtls/mbedtls/mbedtls-2.16.2/include/mbedtls/pk.h ****  *  Unless required by applicable law or agreed to in writing, software
  17:/home/xingli/share/LiteOS_Lab/network/dtls/mbedtls/mbedtls-2.16.2/include/mbedtls/pk.h ****  *  distributed under the License is distributed on an "AS IS" BASIS, WITHOUT
  18:/home/xingli/share/LiteOS_Lab/network/dtls/mbedtls/mbedtls-2.16.2/include/mbedtls/pk.h ****  *  WARRANTIES OR CONDITIONS OF ANY KIND, either express or implied.
  19:/home/xingli/share/LiteOS_Lab/network/dtls/mbedtls/mbedtls-2.16.2/include/mbedtls/pk.h ****  *  See the License for the specific language governing permissions and
  20:/home/xingli/share/LiteOS_Lab/network/dtls/mbedtls/mbedtls-2.16.2/include/mbedtls/pk.h ****  *  limitations under the License.
  21:/home/xingli/share/LiteOS_Lab/network/dtls/mbedtls/mbedtls-2.16.2/include/mbedtls/pk.h ****  *
  22:/home/xingli/share/LiteOS_Lab/network/dtls/mbedtls/mbedtls-2.16.2/include/mbedtls/pk.h ****  *  This file is part of mbed TLS (https://tls.mbed.org)
  23:/home/xingli/share/LiteOS_Lab/network/dtls/mbedtls/mbedtls-2.16.2/include/mbedtls/pk.h ****  */
  24:/home/xingli/share/LiteOS_Lab/network/dtls/mbedtls/mbedtls-2.16.2/include/mbedtls/pk.h **** 
  25:/home/xingli/share/LiteOS_Lab/network/dtls/mbedtls/mbedtls-2.16.2/include/mbedtls/pk.h **** #ifndef MBEDTLS_PK_H
  26:/home/xingli/share/LiteOS_Lab/network/dtls/mbedtls/mbedtls-2.16.2/include/mbedtls/pk.h **** #define MBEDTLS_PK_H
  27:/home/xingli/share/LiteOS_Lab/network/dtls/mbedtls/mbedtls-2.16.2/include/mbedtls/pk.h **** 
  28:/home/xingli/share/LiteOS_Lab/network/dtls/mbedtls/mbedtls-2.16.2/include/mbedtls/pk.h **** #if !defined(MBEDTLS_CONFIG_FILE)
  29:/home/xingli/share/LiteOS_Lab/network/dtls/mbedtls/mbedtls-2.16.2/include/mbedtls/pk.h **** #include "config.h"
  30:/home/xingli/share/LiteOS_Lab/network/dtls/mbedtls/mbedtls-2.16.2/include/mbedtls/pk.h **** #else
  31:/home/xingli/share/LiteOS_Lab/network/dtls/mbedtls/mbedtls-2.16.2/include/mbedtls/pk.h **** #include MBEDTLS_CONFIG_FILE
  32:/home/xingli/share/LiteOS_Lab/network/dtls/mbedtls/mbedtls-2.16.2/include/mbedtls/pk.h **** #endif
  33:/home/xingli/share/LiteOS_Lab/network/dtls/mbedtls/mbedtls-2.16.2/include/mbedtls/pk.h **** 
  34:/home/xingli/share/LiteOS_Lab/network/dtls/mbedtls/mbedtls-2.16.2/include/mbedtls/pk.h **** #include "md.h"
  35:/home/xingli/share/LiteOS_Lab/network/dtls/mbedtls/mbedtls-2.16.2/include/mbedtls/pk.h **** 
  36:/home/xingli/share/LiteOS_Lab/network/dtls/mbedtls/mbedtls-2.16.2/include/mbedtls/pk.h **** #if defined(MBEDTLS_RSA_C)
  37:/home/xingli/share/LiteOS_Lab/network/dtls/mbedtls/mbedtls-2.16.2/include/mbedtls/pk.h **** #include "rsa.h"
  38:/home/xingli/share/LiteOS_Lab/network/dtls/mbedtls/mbedtls-2.16.2/include/mbedtls/pk.h **** #endif
  39:/home/xingli/share/LiteOS_Lab/network/dtls/mbedtls/mbedtls-2.16.2/include/mbedtls/pk.h **** 
  40:/home/xingli/share/LiteOS_Lab/network/dtls/mbedtls/mbedtls-2.16.2/include/mbedtls/pk.h **** #if defined(MBEDTLS_ECP_C)
  41:/home/xingli/share/LiteOS_Lab/network/dtls/mbedtls/mbedtls-2.16.2/include/mbedtls/pk.h **** #include "ecp.h"
  42:/home/xingli/share/LiteOS_Lab/network/dtls/mbedtls/mbedtls-2.16.2/include/mbedtls/pk.h **** #endif
  43:/home/xingli/share/LiteOS_Lab/network/dtls/mbedtls/mbedtls-2.16.2/include/mbedtls/pk.h **** 
  44:/home/xingli/share/LiteOS_Lab/network/dtls/mbedtls/mbedtls-2.16.2/include/mbedtls/pk.h **** #if defined(MBEDTLS_ECDSA_C)
  45:/home/xingli/share/LiteOS_Lab/network/dtls/mbedtls/mbedtls-2.16.2/include/mbedtls/pk.h **** #include "ecdsa.h"
  46:/home/xingli/share/LiteOS_Lab/network/dtls/mbedtls/mbedtls-2.16.2/include/mbedtls/pk.h **** #endif
  47:/home/xingli/share/LiteOS_Lab/network/dtls/mbedtls/mbedtls-2.16.2/include/mbedtls/pk.h **** 
  48:/home/xingli/share/LiteOS_Lab/network/dtls/mbedtls/mbedtls-2.16.2/include/mbedtls/pk.h **** #if ( defined(__ARMCC_VERSION) || defined(_MSC_VER) ) && \
  49:/home/xingli/share/LiteOS_Lab/network/dtls/mbedtls/mbedtls-2.16.2/include/mbedtls/pk.h ****     !defined(inline) && !defined(__cplusplus)
  50:/home/xingli/share/LiteOS_Lab/network/dtls/mbedtls/mbedtls-2.16.2/include/mbedtls/pk.h **** #define inline __inline
GAS LISTING /tmp/ccmvMAN8.s 			page 2


  51:/home/xingli/share/LiteOS_Lab/network/dtls/mbedtls/mbedtls-2.16.2/include/mbedtls/pk.h **** #endif
  52:/home/xingli/share/LiteOS_Lab/network/dtls/mbedtls/mbedtls-2.16.2/include/mbedtls/pk.h **** 
  53:/home/xingli/share/LiteOS_Lab/network/dtls/mbedtls/mbedtls-2.16.2/include/mbedtls/pk.h **** #define MBEDTLS_ERR_PK_ALLOC_FAILED        -0x3F80  /**< Memory allocation failed. */
  54:/home/xingli/share/LiteOS_Lab/network/dtls/mbedtls/mbedtls-2.16.2/include/mbedtls/pk.h **** #define MBEDTLS_ERR_PK_TYPE_MISMATCH       -0x3F00  /**< Type mismatch, eg attempt to encrypt with 
  55:/home/xingli/share/LiteOS_Lab/network/dtls/mbedtls/mbedtls-2.16.2/include/mbedtls/pk.h **** #define MBEDTLS_ERR_PK_BAD_INPUT_DATA      -0x3E80  /**< Bad input parameters to function. */
  56:/home/xingli/share/LiteOS_Lab/network/dtls/mbedtls/mbedtls-2.16.2/include/mbedtls/pk.h **** #define MBEDTLS_ERR_PK_FILE_IO_ERROR       -0x3E00  /**< Read/write of file failed. */
  57:/home/xingli/share/LiteOS_Lab/network/dtls/mbedtls/mbedtls-2.16.2/include/mbedtls/pk.h **** #define MBEDTLS_ERR_PK_KEY_INVALID_VERSION -0x3D80  /**< Unsupported key version */
  58:/home/xingli/share/LiteOS_Lab/network/dtls/mbedtls/mbedtls-2.16.2/include/mbedtls/pk.h **** #define MBEDTLS_ERR_PK_KEY_INVALID_FORMAT  -0x3D00  /**< Invalid key tag or value. */
  59:/home/xingli/share/LiteOS_Lab/network/dtls/mbedtls/mbedtls-2.16.2/include/mbedtls/pk.h **** #define MBEDTLS_ERR_PK_UNKNOWN_PK_ALG      -0x3C80  /**< Key algorithm is unsupported (only RSA and
  60:/home/xingli/share/LiteOS_Lab/network/dtls/mbedtls/mbedtls-2.16.2/include/mbedtls/pk.h **** #define MBEDTLS_ERR_PK_PASSWORD_REQUIRED   -0x3C00  /**< Private key password can't be empty. */
  61:/home/xingli/share/LiteOS_Lab/network/dtls/mbedtls/mbedtls-2.16.2/include/mbedtls/pk.h **** #define MBEDTLS_ERR_PK_PASSWORD_MISMATCH   -0x3B80  /**< Given private key password does not allow 
  62:/home/xingli/share/LiteOS_Lab/network/dtls/mbedtls/mbedtls-2.16.2/include/mbedtls/pk.h **** #define MBEDTLS_ERR_PK_INVALID_PUBKEY      -0x3B00  /**< The pubkey tag or value is invalid (only R
  63:/home/xingli/share/LiteOS_Lab/network/dtls/mbedtls/mbedtls-2.16.2/include/mbedtls/pk.h **** #define MBEDTLS_ERR_PK_INVALID_ALG         -0x3A80  /**< The algorithm tag or value is invalid. */
  64:/home/xingli/share/LiteOS_Lab/network/dtls/mbedtls/mbedtls-2.16.2/include/mbedtls/pk.h **** #define MBEDTLS_ERR_PK_UNKNOWN_NAMED_CURVE -0x3A00  /**< Elliptic curve is unsupported (only NIST c
  65:/home/xingli/share/LiteOS_Lab/network/dtls/mbedtls/mbedtls-2.16.2/include/mbedtls/pk.h **** #define MBEDTLS_ERR_PK_FEATURE_UNAVAILABLE -0x3980  /**< Unavailable feature, e.g. RSA disabled for
  66:/home/xingli/share/LiteOS_Lab/network/dtls/mbedtls/mbedtls-2.16.2/include/mbedtls/pk.h **** #define MBEDTLS_ERR_PK_SIG_LEN_MISMATCH    -0x3900  /**< The buffer contains a valid signature foll
  67:/home/xingli/share/LiteOS_Lab/network/dtls/mbedtls/mbedtls-2.16.2/include/mbedtls/pk.h **** 
  68:/home/xingli/share/LiteOS_Lab/network/dtls/mbedtls/mbedtls-2.16.2/include/mbedtls/pk.h **** /* MBEDTLS_ERR_PK_HW_ACCEL_FAILED is deprecated and should not be used. */
  69:/home/xingli/share/LiteOS_Lab/network/dtls/mbedtls/mbedtls-2.16.2/include/mbedtls/pk.h **** #define MBEDTLS_ERR_PK_HW_ACCEL_FAILED     -0x3880  /**< PK hardware accelerator failed. */
  70:/home/xingli/share/LiteOS_Lab/network/dtls/mbedtls/mbedtls-2.16.2/include/mbedtls/pk.h **** 
  71:/home/xingli/share/LiteOS_Lab/network/dtls/mbedtls/mbedtls-2.16.2/include/mbedtls/pk.h **** #ifdef __cplusplus
  72:/home/xingli/share/LiteOS_Lab/network/dtls/mbedtls/mbedtls-2.16.2/include/mbedtls/pk.h **** extern "C" {
  73:/home/xingli/share/LiteOS_Lab/network/dtls/mbedtls/mbedtls-2.16.2/include/mbedtls/pk.h **** #endif
  74:/home/xingli/share/LiteOS_Lab/network/dtls/mbedtls/mbedtls-2.16.2/include/mbedtls/pk.h **** 
  75:/home/xingli/share/LiteOS_Lab/network/dtls/mbedtls/mbedtls-2.16.2/include/mbedtls/pk.h **** /**
  76:/home/xingli/share/LiteOS_Lab/network/dtls/mbedtls/mbedtls-2.16.2/include/mbedtls/pk.h ****  * \brief          Public key types
  77:/home/xingli/share/LiteOS_Lab/network/dtls/mbedtls/mbedtls-2.16.2/include/mbedtls/pk.h ****  */
  78:/home/xingli/share/LiteOS_Lab/network/dtls/mbedtls/mbedtls-2.16.2/include/mbedtls/pk.h **** typedef enum {
  79:/home/xingli/share/LiteOS_Lab/network/dtls/mbedtls/mbedtls-2.16.2/include/mbedtls/pk.h ****     MBEDTLS_PK_NONE=0,
  80:/home/xingli/share/LiteOS_Lab/network/dtls/mbedtls/mbedtls-2.16.2/include/mbedtls/pk.h ****     MBEDTLS_PK_RSA,
  81:/home/xingli/share/LiteOS_Lab/network/dtls/mbedtls/mbedtls-2.16.2/include/mbedtls/pk.h ****     MBEDTLS_PK_ECKEY,
  82:/home/xingli/share/LiteOS_Lab/network/dtls/mbedtls/mbedtls-2.16.2/include/mbedtls/pk.h ****     MBEDTLS_PK_ECKEY_DH,
  83:/home/xingli/share/LiteOS_Lab/network/dtls/mbedtls/mbedtls-2.16.2/include/mbedtls/pk.h ****     MBEDTLS_PK_ECDSA,
  84:/home/xingli/share/LiteOS_Lab/network/dtls/mbedtls/mbedtls-2.16.2/include/mbedtls/pk.h ****     MBEDTLS_PK_RSA_ALT,
  85:/home/xingli/share/LiteOS_Lab/network/dtls/mbedtls/mbedtls-2.16.2/include/mbedtls/pk.h ****     MBEDTLS_PK_RSASSA_PSS,
  86:/home/xingli/share/LiteOS_Lab/network/dtls/mbedtls/mbedtls-2.16.2/include/mbedtls/pk.h **** } mbedtls_pk_type_t;
  87:/home/xingli/share/LiteOS_Lab/network/dtls/mbedtls/mbedtls-2.16.2/include/mbedtls/pk.h **** 
  88:/home/xingli/share/LiteOS_Lab/network/dtls/mbedtls/mbedtls-2.16.2/include/mbedtls/pk.h **** /**
  89:/home/xingli/share/LiteOS_Lab/network/dtls/mbedtls/mbedtls-2.16.2/include/mbedtls/pk.h ****  * \brief           Options for RSASSA-PSS signature verification.
  90:/home/xingli/share/LiteOS_Lab/network/dtls/mbedtls/mbedtls-2.16.2/include/mbedtls/pk.h ****  *                  See \c mbedtls_rsa_rsassa_pss_verify_ext()
  91:/home/xingli/share/LiteOS_Lab/network/dtls/mbedtls/mbedtls-2.16.2/include/mbedtls/pk.h ****  */
  92:/home/xingli/share/LiteOS_Lab/network/dtls/mbedtls/mbedtls-2.16.2/include/mbedtls/pk.h **** typedef struct mbedtls_pk_rsassa_pss_options
  93:/home/xingli/share/LiteOS_Lab/network/dtls/mbedtls/mbedtls-2.16.2/include/mbedtls/pk.h **** {
  94:/home/xingli/share/LiteOS_Lab/network/dtls/mbedtls/mbedtls-2.16.2/include/mbedtls/pk.h ****     mbedtls_md_type_t mgf1_hash_id;
  95:/home/xingli/share/LiteOS_Lab/network/dtls/mbedtls/mbedtls-2.16.2/include/mbedtls/pk.h ****     int expected_salt_len;
  96:/home/xingli/share/LiteOS_Lab/network/dtls/mbedtls/mbedtls-2.16.2/include/mbedtls/pk.h **** 
  97:/home/xingli/share/LiteOS_Lab/network/dtls/mbedtls/mbedtls-2.16.2/include/mbedtls/pk.h **** } mbedtls_pk_rsassa_pss_options;
  98:/home/xingli/share/LiteOS_Lab/network/dtls/mbedtls/mbedtls-2.16.2/include/mbedtls/pk.h **** 
  99:/home/xingli/share/LiteOS_Lab/network/dtls/mbedtls/mbedtls-2.16.2/include/mbedtls/pk.h **** /**
 100:/home/xingli/share/LiteOS_Lab/network/dtls/mbedtls/mbedtls-2.16.2/include/mbedtls/pk.h ****  * \brief           Types for interfacing with the debug module
 101:/home/xingli/share/LiteOS_Lab/network/dtls/mbedtls/mbedtls-2.16.2/include/mbedtls/pk.h ****  */
 102:/home/xingli/share/LiteOS_Lab/network/dtls/mbedtls/mbedtls-2.16.2/include/mbedtls/pk.h **** typedef enum
 103:/home/xingli/share/LiteOS_Lab/network/dtls/mbedtls/mbedtls-2.16.2/include/mbedtls/pk.h **** {
 104:/home/xingli/share/LiteOS_Lab/network/dtls/mbedtls/mbedtls-2.16.2/include/mbedtls/pk.h ****     MBEDTLS_PK_DEBUG_NONE = 0,
 105:/home/xingli/share/LiteOS_Lab/network/dtls/mbedtls/mbedtls-2.16.2/include/mbedtls/pk.h ****     MBEDTLS_PK_DEBUG_MPI,
 106:/home/xingli/share/LiteOS_Lab/network/dtls/mbedtls/mbedtls-2.16.2/include/mbedtls/pk.h ****     MBEDTLS_PK_DEBUG_ECP,
 107:/home/xingli/share/LiteOS_Lab/network/dtls/mbedtls/mbedtls-2.16.2/include/mbedtls/pk.h **** } mbedtls_pk_debug_type;
GAS LISTING /tmp/ccmvMAN8.s 			page 3


 108:/home/xingli/share/LiteOS_Lab/network/dtls/mbedtls/mbedtls-2.16.2/include/mbedtls/pk.h **** 
 109:/home/xingli/share/LiteOS_Lab/network/dtls/mbedtls/mbedtls-2.16.2/include/mbedtls/pk.h **** /**
 110:/home/xingli/share/LiteOS_Lab/network/dtls/mbedtls/mbedtls-2.16.2/include/mbedtls/pk.h ****  * \brief           Item to send to the debug module
 111:/home/xingli/share/LiteOS_Lab/network/dtls/mbedtls/mbedtls-2.16.2/include/mbedtls/pk.h ****  */
 112:/home/xingli/share/LiteOS_Lab/network/dtls/mbedtls/mbedtls-2.16.2/include/mbedtls/pk.h **** typedef struct mbedtls_pk_debug_item
 113:/home/xingli/share/LiteOS_Lab/network/dtls/mbedtls/mbedtls-2.16.2/include/mbedtls/pk.h **** {
 114:/home/xingli/share/LiteOS_Lab/network/dtls/mbedtls/mbedtls-2.16.2/include/mbedtls/pk.h ****     mbedtls_pk_debug_type type;
 115:/home/xingli/share/LiteOS_Lab/network/dtls/mbedtls/mbedtls-2.16.2/include/mbedtls/pk.h ****     const char *name;
 116:/home/xingli/share/LiteOS_Lab/network/dtls/mbedtls/mbedtls-2.16.2/include/mbedtls/pk.h ****     void *value;
 117:/home/xingli/share/LiteOS_Lab/network/dtls/mbedtls/mbedtls-2.16.2/include/mbedtls/pk.h **** } mbedtls_pk_debug_item;
 118:/home/xingli/share/LiteOS_Lab/network/dtls/mbedtls/mbedtls-2.16.2/include/mbedtls/pk.h **** 
 119:/home/xingli/share/LiteOS_Lab/network/dtls/mbedtls/mbedtls-2.16.2/include/mbedtls/pk.h **** /** Maximum number of item send for debugging, plus 1 */
 120:/home/xingli/share/LiteOS_Lab/network/dtls/mbedtls/mbedtls-2.16.2/include/mbedtls/pk.h **** #define MBEDTLS_PK_DEBUG_MAX_ITEMS 3
 121:/home/xingli/share/LiteOS_Lab/network/dtls/mbedtls/mbedtls-2.16.2/include/mbedtls/pk.h **** 
 122:/home/xingli/share/LiteOS_Lab/network/dtls/mbedtls/mbedtls-2.16.2/include/mbedtls/pk.h **** /**
 123:/home/xingli/share/LiteOS_Lab/network/dtls/mbedtls/mbedtls-2.16.2/include/mbedtls/pk.h ****  * \brief           Public key information and operations
 124:/home/xingli/share/LiteOS_Lab/network/dtls/mbedtls/mbedtls-2.16.2/include/mbedtls/pk.h ****  */
 125:/home/xingli/share/LiteOS_Lab/network/dtls/mbedtls/mbedtls-2.16.2/include/mbedtls/pk.h **** typedef struct mbedtls_pk_info_t mbedtls_pk_info_t;
 126:/home/xingli/share/LiteOS_Lab/network/dtls/mbedtls/mbedtls-2.16.2/include/mbedtls/pk.h **** 
 127:/home/xingli/share/LiteOS_Lab/network/dtls/mbedtls/mbedtls-2.16.2/include/mbedtls/pk.h **** /**
 128:/home/xingli/share/LiteOS_Lab/network/dtls/mbedtls/mbedtls-2.16.2/include/mbedtls/pk.h ****  * \brief           Public key container
 129:/home/xingli/share/LiteOS_Lab/network/dtls/mbedtls/mbedtls-2.16.2/include/mbedtls/pk.h ****  */
 130:/home/xingli/share/LiteOS_Lab/network/dtls/mbedtls/mbedtls-2.16.2/include/mbedtls/pk.h **** typedef struct mbedtls_pk_context
 131:/home/xingli/share/LiteOS_Lab/network/dtls/mbedtls/mbedtls-2.16.2/include/mbedtls/pk.h **** {
 132:/home/xingli/share/LiteOS_Lab/network/dtls/mbedtls/mbedtls-2.16.2/include/mbedtls/pk.h ****     const mbedtls_pk_info_t *   pk_info; /**< Public key information         */
 133:/home/xingli/share/LiteOS_Lab/network/dtls/mbedtls/mbedtls-2.16.2/include/mbedtls/pk.h ****     void *                      pk_ctx;  /**< Underlying public key context  */
 134:/home/xingli/share/LiteOS_Lab/network/dtls/mbedtls/mbedtls-2.16.2/include/mbedtls/pk.h **** } mbedtls_pk_context;
 135:/home/xingli/share/LiteOS_Lab/network/dtls/mbedtls/mbedtls-2.16.2/include/mbedtls/pk.h **** 
 136:/home/xingli/share/LiteOS_Lab/network/dtls/mbedtls/mbedtls-2.16.2/include/mbedtls/pk.h **** #if defined(MBEDTLS_ECDSA_C) && defined(MBEDTLS_ECP_RESTARTABLE)
 137:/home/xingli/share/LiteOS_Lab/network/dtls/mbedtls/mbedtls-2.16.2/include/mbedtls/pk.h **** /**
 138:/home/xingli/share/LiteOS_Lab/network/dtls/mbedtls/mbedtls-2.16.2/include/mbedtls/pk.h ****  * \brief           Context for resuming operations
 139:/home/xingli/share/LiteOS_Lab/network/dtls/mbedtls/mbedtls-2.16.2/include/mbedtls/pk.h ****  */
 140:/home/xingli/share/LiteOS_Lab/network/dtls/mbedtls/mbedtls-2.16.2/include/mbedtls/pk.h **** typedef struct
 141:/home/xingli/share/LiteOS_Lab/network/dtls/mbedtls/mbedtls-2.16.2/include/mbedtls/pk.h **** {
 142:/home/xingli/share/LiteOS_Lab/network/dtls/mbedtls/mbedtls-2.16.2/include/mbedtls/pk.h ****     const mbedtls_pk_info_t *   pk_info; /**< Public key information         */
 143:/home/xingli/share/LiteOS_Lab/network/dtls/mbedtls/mbedtls-2.16.2/include/mbedtls/pk.h ****     void *                      rs_ctx;  /**< Underlying restart context     */
 144:/home/xingli/share/LiteOS_Lab/network/dtls/mbedtls/mbedtls-2.16.2/include/mbedtls/pk.h **** } mbedtls_pk_restart_ctx;
 145:/home/xingli/share/LiteOS_Lab/network/dtls/mbedtls/mbedtls-2.16.2/include/mbedtls/pk.h **** #else /* MBEDTLS_ECDSA_C && MBEDTLS_ECP_RESTARTABLE */
 146:/home/xingli/share/LiteOS_Lab/network/dtls/mbedtls/mbedtls-2.16.2/include/mbedtls/pk.h **** /* Now we can declare functions that take a pointer to that */
 147:/home/xingli/share/LiteOS_Lab/network/dtls/mbedtls/mbedtls-2.16.2/include/mbedtls/pk.h **** typedef void mbedtls_pk_restart_ctx;
 148:/home/xingli/share/LiteOS_Lab/network/dtls/mbedtls/mbedtls-2.16.2/include/mbedtls/pk.h **** #endif /* MBEDTLS_ECDSA_C && MBEDTLS_ECP_RESTARTABLE */
 149:/home/xingli/share/LiteOS_Lab/network/dtls/mbedtls/mbedtls-2.16.2/include/mbedtls/pk.h **** 
 150:/home/xingli/share/LiteOS_Lab/network/dtls/mbedtls/mbedtls-2.16.2/include/mbedtls/pk.h **** #if defined(MBEDTLS_RSA_C)
 151:/home/xingli/share/LiteOS_Lab/network/dtls/mbedtls/mbedtls-2.16.2/include/mbedtls/pk.h **** /**
 152:/home/xingli/share/LiteOS_Lab/network/dtls/mbedtls/mbedtls-2.16.2/include/mbedtls/pk.h ****  * Quick access to an RSA context inside a PK context.
 153:/home/xingli/share/LiteOS_Lab/network/dtls/mbedtls/mbedtls-2.16.2/include/mbedtls/pk.h ****  *
 154:/home/xingli/share/LiteOS_Lab/network/dtls/mbedtls/mbedtls-2.16.2/include/mbedtls/pk.h ****  * \warning You must make sure the PK context actually holds an RSA context
 155:/home/xingli/share/LiteOS_Lab/network/dtls/mbedtls/mbedtls-2.16.2/include/mbedtls/pk.h ****  * before using this function!
 156:/home/xingli/share/LiteOS_Lab/network/dtls/mbedtls/mbedtls-2.16.2/include/mbedtls/pk.h ****  */
 157:/home/xingli/share/LiteOS_Lab/network/dtls/mbedtls/mbedtls-2.16.2/include/mbedtls/pk.h **** static inline mbedtls_rsa_context *mbedtls_pk_rsa( const mbedtls_pk_context pk )
 158:/home/xingli/share/LiteOS_Lab/network/dtls/mbedtls/mbedtls-2.16.2/include/mbedtls/pk.h **** {
   9              		.loc 1 158 1
  10              		.cfi_startproc
  11 0000 55       		pushq	%rbp
  12              	.LCFI0:
  13              		.cfi_def_cfa_offset 16
  14              		.cfi_offset 6, -16
GAS LISTING /tmp/ccmvMAN8.s 			page 4


  15 0001 4889E5   		movq	%rsp, %rbp
  16              	.LCFI1:
  17              		.cfi_def_cfa_register 6
  18 0004 4883EC20 		subq	$32, %rsp
  19 0008 4889F8   		movq	%rdi, %rax
  20 000b 4889F1   		movq	%rsi, %rcx
  21 000e 4889CA   		movq	%rcx, %rdx
  22 0011 488945E0 		movq	%rax, -32(%rbp)
  23 0015 488955E8 		movq	%rdx, -24(%rbp)
  24              		.loc 1 158 1
  25 0019 64488B04 		movq	%fs:40, %rax
  25      25280000 
  25      00
  26 0022 488945F8 		movq	%rax, -8(%rbp)
  27 0026 31C0     		xorl	%eax, %eax
 159:/home/xingli/share/LiteOS_Lab/network/dtls/mbedtls/mbedtls-2.16.2/include/mbedtls/pk.h ****     return( (mbedtls_rsa_context *) (pk).pk_ctx );
  28              		.loc 1 159 13
  29 0028 488B45E8 		movq	-24(%rbp), %rax
 160:/home/xingli/share/LiteOS_Lab/network/dtls/mbedtls/mbedtls-2.16.2/include/mbedtls/pk.h **** }
  30              		.loc 1 160 1
  31 002c 488B55F8 		movq	-8(%rbp), %rdx
  32 0030 64483314 		xorq	%fs:40, %rdx
  32      25280000 
  32      00
  33 0039 7405     		je	.L3
  34 003b E8000000 		call	__stack_chk_fail@PLT
  34      00
  35              	.L3:
  36 0040 C9       		leave
  37              	.LCFI2:
  38              		.cfi_def_cfa 7, 8
  39 0041 C3       		ret
  40              		.cfi_endproc
  41              	.LFE0:
  43              		.section	.text.mbedtls_pk_ec,"ax",@progbits
  45              	mbedtls_pk_ec:
  46              	.LFB1:
 161:/home/xingli/share/LiteOS_Lab/network/dtls/mbedtls/mbedtls-2.16.2/include/mbedtls/pk.h **** #endif /* MBEDTLS_RSA_C */
 162:/home/xingli/share/LiteOS_Lab/network/dtls/mbedtls/mbedtls-2.16.2/include/mbedtls/pk.h **** 
 163:/home/xingli/share/LiteOS_Lab/network/dtls/mbedtls/mbedtls-2.16.2/include/mbedtls/pk.h **** #if defined(MBEDTLS_ECP_C)
 164:/home/xingli/share/LiteOS_Lab/network/dtls/mbedtls/mbedtls-2.16.2/include/mbedtls/pk.h **** /**
 165:/home/xingli/share/LiteOS_Lab/network/dtls/mbedtls/mbedtls-2.16.2/include/mbedtls/pk.h ****  * Quick access to an EC context inside a PK context.
 166:/home/xingli/share/LiteOS_Lab/network/dtls/mbedtls/mbedtls-2.16.2/include/mbedtls/pk.h ****  *
 167:/home/xingli/share/LiteOS_Lab/network/dtls/mbedtls/mbedtls-2.16.2/include/mbedtls/pk.h ****  * \warning You must make sure the PK context actually holds an EC context
 168:/home/xingli/share/LiteOS_Lab/network/dtls/mbedtls/mbedtls-2.16.2/include/mbedtls/pk.h ****  * before using this function!
 169:/home/xingli/share/LiteOS_Lab/network/dtls/mbedtls/mbedtls-2.16.2/include/mbedtls/pk.h ****  */
 170:/home/xingli/share/LiteOS_Lab/network/dtls/mbedtls/mbedtls-2.16.2/include/mbedtls/pk.h **** static inline mbedtls_ecp_keypair *mbedtls_pk_ec( const mbedtls_pk_context pk )
 171:/home/xingli/share/LiteOS_Lab/network/dtls/mbedtls/mbedtls-2.16.2/include/mbedtls/pk.h **** {
  47              		.loc 1 171 1
  48              		.cfi_startproc
  49 0000 55       		pushq	%rbp
  50              	.LCFI3:
  51              		.cfi_def_cfa_offset 16
  52              		.cfi_offset 6, -16
  53 0001 4889E5   		movq	%rsp, %rbp
  54              	.LCFI4:
  55              		.cfi_def_cfa_register 6
GAS LISTING /tmp/ccmvMAN8.s 			page 5


  56 0004 4883EC20 		subq	$32, %rsp
  57 0008 4889F8   		movq	%rdi, %rax
  58 000b 4889F1   		movq	%rsi, %rcx
  59 000e 4889CA   		movq	%rcx, %rdx
  60 0011 488945E0 		movq	%rax, -32(%rbp)
  61 0015 488955E8 		movq	%rdx, -24(%rbp)
  62              		.loc 1 171 1
  63 0019 64488B04 		movq	%fs:40, %rax
  63      25280000 
  63      00
  64 0022 488945F8 		movq	%rax, -8(%rbp)
  65 0026 31C0     		xorl	%eax, %eax
 172:/home/xingli/share/LiteOS_Lab/network/dtls/mbedtls/mbedtls-2.16.2/include/mbedtls/pk.h ****     return( (mbedtls_ecp_keypair *) (pk).pk_ctx );
  66              		.loc 1 172 13
  67 0028 488B45E8 		movq	-24(%rbp), %rax
 173:/home/xingli/share/LiteOS_Lab/network/dtls/mbedtls/mbedtls-2.16.2/include/mbedtls/pk.h **** }
  68              		.loc 1 173 1
  69 002c 488B55F8 		movq	-8(%rbp), %rdx
  70 0030 64483314 		xorq	%fs:40, %rdx
  70      25280000 
  70      00
  71 0039 7405     		je	.L6
  72 003b E8000000 		call	__stack_chk_fail@PLT
  72      00
  73              	.L6:
  74 0040 C9       		leave
  75              	.LCFI5:
  76              		.cfi_def_cfa 7, 8
  77 0041 C3       		ret
  78              		.cfi_endproc
  79              	.LFE1:
  81              		.section	.text.pk_get_ecparams,"ax",@progbits
  83              	pk_get_ecparams:
  84              	.LFB16:
  85              		.file 2 "/home/xingli/share/LiteOS_Lab/network/dtls/mbedtls/mbedtls-2.16.2/library/pkparse.c"
   1:/home/xingli/share/LiteOS_Lab/network/dtls/mbedtls/mbedtls-2.16.2/library/pkparse.c **** /*
   2:/home/xingli/share/LiteOS_Lab/network/dtls/mbedtls/mbedtls-2.16.2/library/pkparse.c ****  *  Public Key layer for parsing key files and structures
   3:/home/xingli/share/LiteOS_Lab/network/dtls/mbedtls/mbedtls-2.16.2/library/pkparse.c ****  *
   4:/home/xingli/share/LiteOS_Lab/network/dtls/mbedtls/mbedtls-2.16.2/library/pkparse.c ****  *  Copyright (C) 2006-2015, ARM Limited, All Rights Reserved
   5:/home/xingli/share/LiteOS_Lab/network/dtls/mbedtls/mbedtls-2.16.2/library/pkparse.c ****  *  SPDX-License-Identifier: Apache-2.0
   6:/home/xingli/share/LiteOS_Lab/network/dtls/mbedtls/mbedtls-2.16.2/library/pkparse.c ****  *
   7:/home/xingli/share/LiteOS_Lab/network/dtls/mbedtls/mbedtls-2.16.2/library/pkparse.c ****  *  Licensed under the Apache License, Version 2.0 (the "License"); you may
   8:/home/xingli/share/LiteOS_Lab/network/dtls/mbedtls/mbedtls-2.16.2/library/pkparse.c ****  *  not use this file except in compliance with the License.
   9:/home/xingli/share/LiteOS_Lab/network/dtls/mbedtls/mbedtls-2.16.2/library/pkparse.c ****  *  You may obtain a copy of the License at
  10:/home/xingli/share/LiteOS_Lab/network/dtls/mbedtls/mbedtls-2.16.2/library/pkparse.c ****  *
  11:/home/xingli/share/LiteOS_Lab/network/dtls/mbedtls/mbedtls-2.16.2/library/pkparse.c ****  *  http://www.apache.org/licenses/LICENSE-2.0
  12:/home/xingli/share/LiteOS_Lab/network/dtls/mbedtls/mbedtls-2.16.2/library/pkparse.c ****  *
  13:/home/xingli/share/LiteOS_Lab/network/dtls/mbedtls/mbedtls-2.16.2/library/pkparse.c ****  *  Unless required by applicable law or agreed to in writing, software
  14:/home/xingli/share/LiteOS_Lab/network/dtls/mbedtls/mbedtls-2.16.2/library/pkparse.c ****  *  distributed under the License is distributed on an "AS IS" BASIS, WITHOUT
  15:/home/xingli/share/LiteOS_Lab/network/dtls/mbedtls/mbedtls-2.16.2/library/pkparse.c ****  *  WARRANTIES OR CONDITIONS OF ANY KIND, either express or implied.
  16:/home/xingli/share/LiteOS_Lab/network/dtls/mbedtls/mbedtls-2.16.2/library/pkparse.c ****  *  See the License for the specific language governing permissions and
  17:/home/xingli/share/LiteOS_Lab/network/dtls/mbedtls/mbedtls-2.16.2/library/pkparse.c ****  *  limitations under the License.
  18:/home/xingli/share/LiteOS_Lab/network/dtls/mbedtls/mbedtls-2.16.2/library/pkparse.c ****  *
  19:/home/xingli/share/LiteOS_Lab/network/dtls/mbedtls/mbedtls-2.16.2/library/pkparse.c ****  *  This file is part of mbed TLS (https://tls.mbed.org)
  20:/home/xingli/share/LiteOS_Lab/network/dtls/mbedtls/mbedtls-2.16.2/library/pkparse.c ****  */
  21:/home/xingli/share/LiteOS_Lab/network/dtls/mbedtls/mbedtls-2.16.2/library/pkparse.c **** 
  22:/home/xingli/share/LiteOS_Lab/network/dtls/mbedtls/mbedtls-2.16.2/library/pkparse.c **** #if !defined(MBEDTLS_CONFIG_FILE)
GAS LISTING /tmp/ccmvMAN8.s 			page 6


  23:/home/xingli/share/LiteOS_Lab/network/dtls/mbedtls/mbedtls-2.16.2/library/pkparse.c **** #include "mbedtls/config.h"
  24:/home/xingli/share/LiteOS_Lab/network/dtls/mbedtls/mbedtls-2.16.2/library/pkparse.c **** #else
  25:/home/xingli/share/LiteOS_Lab/network/dtls/mbedtls/mbedtls-2.16.2/library/pkparse.c **** #include MBEDTLS_CONFIG_FILE
  26:/home/xingli/share/LiteOS_Lab/network/dtls/mbedtls/mbedtls-2.16.2/library/pkparse.c **** #endif
  27:/home/xingli/share/LiteOS_Lab/network/dtls/mbedtls/mbedtls-2.16.2/library/pkparse.c **** 
  28:/home/xingli/share/LiteOS_Lab/network/dtls/mbedtls/mbedtls-2.16.2/library/pkparse.c **** #if defined(MBEDTLS_PK_PARSE_C)
  29:/home/xingli/share/LiteOS_Lab/network/dtls/mbedtls/mbedtls-2.16.2/library/pkparse.c **** 
  30:/home/xingli/share/LiteOS_Lab/network/dtls/mbedtls/mbedtls-2.16.2/library/pkparse.c **** #include "mbedtls/pk.h"
  31:/home/xingli/share/LiteOS_Lab/network/dtls/mbedtls/mbedtls-2.16.2/library/pkparse.c **** #include "mbedtls/asn1.h"
  32:/home/xingli/share/LiteOS_Lab/network/dtls/mbedtls/mbedtls-2.16.2/library/pkparse.c **** #include "mbedtls/oid.h"
  33:/home/xingli/share/LiteOS_Lab/network/dtls/mbedtls/mbedtls-2.16.2/library/pkparse.c **** #include "mbedtls/platform_util.h"
  34:/home/xingli/share/LiteOS_Lab/network/dtls/mbedtls/mbedtls-2.16.2/library/pkparse.c **** 
  35:/home/xingli/share/LiteOS_Lab/network/dtls/mbedtls/mbedtls-2.16.2/library/pkparse.c **** #include <string.h>
  36:/home/xingli/share/LiteOS_Lab/network/dtls/mbedtls/mbedtls-2.16.2/library/pkparse.c **** 
  37:/home/xingli/share/LiteOS_Lab/network/dtls/mbedtls/mbedtls-2.16.2/library/pkparse.c **** #if defined(MBEDTLS_RSA_C)
  38:/home/xingli/share/LiteOS_Lab/network/dtls/mbedtls/mbedtls-2.16.2/library/pkparse.c **** #include "mbedtls/rsa.h"
  39:/home/xingli/share/LiteOS_Lab/network/dtls/mbedtls/mbedtls-2.16.2/library/pkparse.c **** #endif
  40:/home/xingli/share/LiteOS_Lab/network/dtls/mbedtls/mbedtls-2.16.2/library/pkparse.c **** #if defined(MBEDTLS_ECP_C)
  41:/home/xingli/share/LiteOS_Lab/network/dtls/mbedtls/mbedtls-2.16.2/library/pkparse.c **** #include "mbedtls/ecp.h"
  42:/home/xingli/share/LiteOS_Lab/network/dtls/mbedtls/mbedtls-2.16.2/library/pkparse.c **** #endif
  43:/home/xingli/share/LiteOS_Lab/network/dtls/mbedtls/mbedtls-2.16.2/library/pkparse.c **** #if defined(MBEDTLS_ECDSA_C)
  44:/home/xingli/share/LiteOS_Lab/network/dtls/mbedtls/mbedtls-2.16.2/library/pkparse.c **** #include "mbedtls/ecdsa.h"
  45:/home/xingli/share/LiteOS_Lab/network/dtls/mbedtls/mbedtls-2.16.2/library/pkparse.c **** #endif
  46:/home/xingli/share/LiteOS_Lab/network/dtls/mbedtls/mbedtls-2.16.2/library/pkparse.c **** #if defined(MBEDTLS_PEM_PARSE_C)
  47:/home/xingli/share/LiteOS_Lab/network/dtls/mbedtls/mbedtls-2.16.2/library/pkparse.c **** #include "mbedtls/pem.h"
  48:/home/xingli/share/LiteOS_Lab/network/dtls/mbedtls/mbedtls-2.16.2/library/pkparse.c **** #endif
  49:/home/xingli/share/LiteOS_Lab/network/dtls/mbedtls/mbedtls-2.16.2/library/pkparse.c **** #if defined(MBEDTLS_PKCS5_C)
  50:/home/xingli/share/LiteOS_Lab/network/dtls/mbedtls/mbedtls-2.16.2/library/pkparse.c **** #include "mbedtls/pkcs5.h"
  51:/home/xingli/share/LiteOS_Lab/network/dtls/mbedtls/mbedtls-2.16.2/library/pkparse.c **** #endif
  52:/home/xingli/share/LiteOS_Lab/network/dtls/mbedtls/mbedtls-2.16.2/library/pkparse.c **** #if defined(MBEDTLS_PKCS12_C)
  53:/home/xingli/share/LiteOS_Lab/network/dtls/mbedtls/mbedtls-2.16.2/library/pkparse.c **** #include "mbedtls/pkcs12.h"
  54:/home/xingli/share/LiteOS_Lab/network/dtls/mbedtls/mbedtls-2.16.2/library/pkparse.c **** #endif
  55:/home/xingli/share/LiteOS_Lab/network/dtls/mbedtls/mbedtls-2.16.2/library/pkparse.c **** 
  56:/home/xingli/share/LiteOS_Lab/network/dtls/mbedtls/mbedtls-2.16.2/library/pkparse.c **** #if defined(MBEDTLS_PLATFORM_C)
  57:/home/xingli/share/LiteOS_Lab/network/dtls/mbedtls/mbedtls-2.16.2/library/pkparse.c **** #include "mbedtls/platform.h"
  58:/home/xingli/share/LiteOS_Lab/network/dtls/mbedtls/mbedtls-2.16.2/library/pkparse.c **** #else
  59:/home/xingli/share/LiteOS_Lab/network/dtls/mbedtls/mbedtls-2.16.2/library/pkparse.c **** #include <stdlib.h>
  60:/home/xingli/share/LiteOS_Lab/network/dtls/mbedtls/mbedtls-2.16.2/library/pkparse.c **** #define mbedtls_calloc    calloc
  61:/home/xingli/share/LiteOS_Lab/network/dtls/mbedtls/mbedtls-2.16.2/library/pkparse.c **** #define mbedtls_free       free
  62:/home/xingli/share/LiteOS_Lab/network/dtls/mbedtls/mbedtls-2.16.2/library/pkparse.c **** #endif
  63:/home/xingli/share/LiteOS_Lab/network/dtls/mbedtls/mbedtls-2.16.2/library/pkparse.c **** 
  64:/home/xingli/share/LiteOS_Lab/network/dtls/mbedtls/mbedtls-2.16.2/library/pkparse.c **** /* Parameter validation macros based on platform_util.h */
  65:/home/xingli/share/LiteOS_Lab/network/dtls/mbedtls/mbedtls-2.16.2/library/pkparse.c **** #define PK_VALIDATE_RET( cond )    \
  66:/home/xingli/share/LiteOS_Lab/network/dtls/mbedtls/mbedtls-2.16.2/library/pkparse.c ****     MBEDTLS_INTERNAL_VALIDATE_RET( cond, MBEDTLS_ERR_PK_BAD_INPUT_DATA )
  67:/home/xingli/share/LiteOS_Lab/network/dtls/mbedtls/mbedtls-2.16.2/library/pkparse.c **** #define PK_VALIDATE( cond )        \
  68:/home/xingli/share/LiteOS_Lab/network/dtls/mbedtls/mbedtls-2.16.2/library/pkparse.c ****     MBEDTLS_INTERNAL_VALIDATE( cond )
  69:/home/xingli/share/LiteOS_Lab/network/dtls/mbedtls/mbedtls-2.16.2/library/pkparse.c **** 
  70:/home/xingli/share/LiteOS_Lab/network/dtls/mbedtls/mbedtls-2.16.2/library/pkparse.c **** #if defined(MBEDTLS_FS_IO)
  71:/home/xingli/share/LiteOS_Lab/network/dtls/mbedtls/mbedtls-2.16.2/library/pkparse.c **** /*
  72:/home/xingli/share/LiteOS_Lab/network/dtls/mbedtls/mbedtls-2.16.2/library/pkparse.c ****  * Load all data from a file into a given buffer.
  73:/home/xingli/share/LiteOS_Lab/network/dtls/mbedtls/mbedtls-2.16.2/library/pkparse.c ****  *
  74:/home/xingli/share/LiteOS_Lab/network/dtls/mbedtls/mbedtls-2.16.2/library/pkparse.c ****  * The file is expected to contain either PEM or DER encoded data.
  75:/home/xingli/share/LiteOS_Lab/network/dtls/mbedtls/mbedtls-2.16.2/library/pkparse.c ****  * A terminating null byte is always appended. It is included in the announced
  76:/home/xingli/share/LiteOS_Lab/network/dtls/mbedtls/mbedtls-2.16.2/library/pkparse.c ****  * length only if the data looks like it is PEM encoded.
  77:/home/xingli/share/LiteOS_Lab/network/dtls/mbedtls/mbedtls-2.16.2/library/pkparse.c ****  */
  78:/home/xingli/share/LiteOS_Lab/network/dtls/mbedtls/mbedtls-2.16.2/library/pkparse.c **** int mbedtls_pk_load_file( const char *path, unsigned char **buf, size_t *n )
  79:/home/xingli/share/LiteOS_Lab/network/dtls/mbedtls/mbedtls-2.16.2/library/pkparse.c **** {
GAS LISTING /tmp/ccmvMAN8.s 			page 7


  80:/home/xingli/share/LiteOS_Lab/network/dtls/mbedtls/mbedtls-2.16.2/library/pkparse.c ****     FILE *f;
  81:/home/xingli/share/LiteOS_Lab/network/dtls/mbedtls/mbedtls-2.16.2/library/pkparse.c ****     long size;
  82:/home/xingli/share/LiteOS_Lab/network/dtls/mbedtls/mbedtls-2.16.2/library/pkparse.c **** 
  83:/home/xingli/share/LiteOS_Lab/network/dtls/mbedtls/mbedtls-2.16.2/library/pkparse.c ****     PK_VALIDATE_RET( path != NULL );
  84:/home/xingli/share/LiteOS_Lab/network/dtls/mbedtls/mbedtls-2.16.2/library/pkparse.c ****     PK_VALIDATE_RET( buf != NULL );
  85:/home/xingli/share/LiteOS_Lab/network/dtls/mbedtls/mbedtls-2.16.2/library/pkparse.c ****     PK_VALIDATE_RET( n != NULL );
  86:/home/xingli/share/LiteOS_Lab/network/dtls/mbedtls/mbedtls-2.16.2/library/pkparse.c **** 
  87:/home/xingli/share/LiteOS_Lab/network/dtls/mbedtls/mbedtls-2.16.2/library/pkparse.c ****     if( ( f = fopen( path, "rb" ) ) == NULL )
  88:/home/xingli/share/LiteOS_Lab/network/dtls/mbedtls/mbedtls-2.16.2/library/pkparse.c ****         return( MBEDTLS_ERR_PK_FILE_IO_ERROR );
  89:/home/xingli/share/LiteOS_Lab/network/dtls/mbedtls/mbedtls-2.16.2/library/pkparse.c **** 
  90:/home/xingli/share/LiteOS_Lab/network/dtls/mbedtls/mbedtls-2.16.2/library/pkparse.c ****     fseek( f, 0, SEEK_END );
  91:/home/xingli/share/LiteOS_Lab/network/dtls/mbedtls/mbedtls-2.16.2/library/pkparse.c ****     if( ( size = ftell( f ) ) == -1 )
  92:/home/xingli/share/LiteOS_Lab/network/dtls/mbedtls/mbedtls-2.16.2/library/pkparse.c ****     {
  93:/home/xingli/share/LiteOS_Lab/network/dtls/mbedtls/mbedtls-2.16.2/library/pkparse.c ****         fclose( f );
  94:/home/xingli/share/LiteOS_Lab/network/dtls/mbedtls/mbedtls-2.16.2/library/pkparse.c ****         return( MBEDTLS_ERR_PK_FILE_IO_ERROR );
  95:/home/xingli/share/LiteOS_Lab/network/dtls/mbedtls/mbedtls-2.16.2/library/pkparse.c ****     }
  96:/home/xingli/share/LiteOS_Lab/network/dtls/mbedtls/mbedtls-2.16.2/library/pkparse.c ****     fseek( f, 0, SEEK_SET );
  97:/home/xingli/share/LiteOS_Lab/network/dtls/mbedtls/mbedtls-2.16.2/library/pkparse.c **** 
  98:/home/xingli/share/LiteOS_Lab/network/dtls/mbedtls/mbedtls-2.16.2/library/pkparse.c ****     *n = (size_t) size;
  99:/home/xingli/share/LiteOS_Lab/network/dtls/mbedtls/mbedtls-2.16.2/library/pkparse.c **** 
 100:/home/xingli/share/LiteOS_Lab/network/dtls/mbedtls/mbedtls-2.16.2/library/pkparse.c ****     if( *n + 1 == 0 ||
 101:/home/xingli/share/LiteOS_Lab/network/dtls/mbedtls/mbedtls-2.16.2/library/pkparse.c ****         ( *buf = mbedtls_calloc( 1, *n + 1 ) ) == NULL )
 102:/home/xingli/share/LiteOS_Lab/network/dtls/mbedtls/mbedtls-2.16.2/library/pkparse.c ****     {
 103:/home/xingli/share/LiteOS_Lab/network/dtls/mbedtls/mbedtls-2.16.2/library/pkparse.c ****         fclose( f );
 104:/home/xingli/share/LiteOS_Lab/network/dtls/mbedtls/mbedtls-2.16.2/library/pkparse.c ****         return( MBEDTLS_ERR_PK_ALLOC_FAILED );
 105:/home/xingli/share/LiteOS_Lab/network/dtls/mbedtls/mbedtls-2.16.2/library/pkparse.c ****     }
 106:/home/xingli/share/LiteOS_Lab/network/dtls/mbedtls/mbedtls-2.16.2/library/pkparse.c **** 
 107:/home/xingli/share/LiteOS_Lab/network/dtls/mbedtls/mbedtls-2.16.2/library/pkparse.c ****     if( fread( *buf, 1, *n, f ) != *n )
 108:/home/xingli/share/LiteOS_Lab/network/dtls/mbedtls/mbedtls-2.16.2/library/pkparse.c ****     {
 109:/home/xingli/share/LiteOS_Lab/network/dtls/mbedtls/mbedtls-2.16.2/library/pkparse.c ****         fclose( f );
 110:/home/xingli/share/LiteOS_Lab/network/dtls/mbedtls/mbedtls-2.16.2/library/pkparse.c **** 
 111:/home/xingli/share/LiteOS_Lab/network/dtls/mbedtls/mbedtls-2.16.2/library/pkparse.c ****         mbedtls_platform_zeroize( *buf, *n );
 112:/home/xingli/share/LiteOS_Lab/network/dtls/mbedtls/mbedtls-2.16.2/library/pkparse.c ****         mbedtls_free( *buf );
 113:/home/xingli/share/LiteOS_Lab/network/dtls/mbedtls/mbedtls-2.16.2/library/pkparse.c **** 
 114:/home/xingli/share/LiteOS_Lab/network/dtls/mbedtls/mbedtls-2.16.2/library/pkparse.c ****         return( MBEDTLS_ERR_PK_FILE_IO_ERROR );
 115:/home/xingli/share/LiteOS_Lab/network/dtls/mbedtls/mbedtls-2.16.2/library/pkparse.c ****     }
 116:/home/xingli/share/LiteOS_Lab/network/dtls/mbedtls/mbedtls-2.16.2/library/pkparse.c **** 
 117:/home/xingli/share/LiteOS_Lab/network/dtls/mbedtls/mbedtls-2.16.2/library/pkparse.c ****     fclose( f );
 118:/home/xingli/share/LiteOS_Lab/network/dtls/mbedtls/mbedtls-2.16.2/library/pkparse.c **** 
 119:/home/xingli/share/LiteOS_Lab/network/dtls/mbedtls/mbedtls-2.16.2/library/pkparse.c ****     (*buf)[*n] = '\0';
 120:/home/xingli/share/LiteOS_Lab/network/dtls/mbedtls/mbedtls-2.16.2/library/pkparse.c **** 
 121:/home/xingli/share/LiteOS_Lab/network/dtls/mbedtls/mbedtls-2.16.2/library/pkparse.c ****     if( strstr( (const char *) *buf, "-----BEGIN " ) != NULL )
 122:/home/xingli/share/LiteOS_Lab/network/dtls/mbedtls/mbedtls-2.16.2/library/pkparse.c ****         ++*n;
 123:/home/xingli/share/LiteOS_Lab/network/dtls/mbedtls/mbedtls-2.16.2/library/pkparse.c **** 
 124:/home/xingli/share/LiteOS_Lab/network/dtls/mbedtls/mbedtls-2.16.2/library/pkparse.c ****     return( 0 );
 125:/home/xingli/share/LiteOS_Lab/network/dtls/mbedtls/mbedtls-2.16.2/library/pkparse.c **** }
 126:/home/xingli/share/LiteOS_Lab/network/dtls/mbedtls/mbedtls-2.16.2/library/pkparse.c **** 
 127:/home/xingli/share/LiteOS_Lab/network/dtls/mbedtls/mbedtls-2.16.2/library/pkparse.c **** /*
 128:/home/xingli/share/LiteOS_Lab/network/dtls/mbedtls/mbedtls-2.16.2/library/pkparse.c ****  * Load and parse a private key
 129:/home/xingli/share/LiteOS_Lab/network/dtls/mbedtls/mbedtls-2.16.2/library/pkparse.c ****  */
 130:/home/xingli/share/LiteOS_Lab/network/dtls/mbedtls/mbedtls-2.16.2/library/pkparse.c **** int mbedtls_pk_parse_keyfile( mbedtls_pk_context *ctx,
 131:/home/xingli/share/LiteOS_Lab/network/dtls/mbedtls/mbedtls-2.16.2/library/pkparse.c ****                       const char *path, const char *pwd )
 132:/home/xingli/share/LiteOS_Lab/network/dtls/mbedtls/mbedtls-2.16.2/library/pkparse.c **** {
 133:/home/xingli/share/LiteOS_Lab/network/dtls/mbedtls/mbedtls-2.16.2/library/pkparse.c ****     int ret;
 134:/home/xingli/share/LiteOS_Lab/network/dtls/mbedtls/mbedtls-2.16.2/library/pkparse.c ****     size_t n;
 135:/home/xingli/share/LiteOS_Lab/network/dtls/mbedtls/mbedtls-2.16.2/library/pkparse.c ****     unsigned char *buf;
 136:/home/xingli/share/LiteOS_Lab/network/dtls/mbedtls/mbedtls-2.16.2/library/pkparse.c **** 
GAS LISTING /tmp/ccmvMAN8.s 			page 8


 137:/home/xingli/share/LiteOS_Lab/network/dtls/mbedtls/mbedtls-2.16.2/library/pkparse.c ****     PK_VALIDATE_RET( ctx != NULL );
 138:/home/xingli/share/LiteOS_Lab/network/dtls/mbedtls/mbedtls-2.16.2/library/pkparse.c ****     PK_VALIDATE_RET( path != NULL );
 139:/home/xingli/share/LiteOS_Lab/network/dtls/mbedtls/mbedtls-2.16.2/library/pkparse.c **** 
 140:/home/xingli/share/LiteOS_Lab/network/dtls/mbedtls/mbedtls-2.16.2/library/pkparse.c ****     if( ( ret = mbedtls_pk_load_file( path, &buf, &n ) ) != 0 )
 141:/home/xingli/share/LiteOS_Lab/network/dtls/mbedtls/mbedtls-2.16.2/library/pkparse.c ****         return( ret );
 142:/home/xingli/share/LiteOS_Lab/network/dtls/mbedtls/mbedtls-2.16.2/library/pkparse.c **** 
 143:/home/xingli/share/LiteOS_Lab/network/dtls/mbedtls/mbedtls-2.16.2/library/pkparse.c ****     if( pwd == NULL )
 144:/home/xingli/share/LiteOS_Lab/network/dtls/mbedtls/mbedtls-2.16.2/library/pkparse.c ****         ret = mbedtls_pk_parse_key( ctx, buf, n, NULL, 0 );
 145:/home/xingli/share/LiteOS_Lab/network/dtls/mbedtls/mbedtls-2.16.2/library/pkparse.c ****     else
 146:/home/xingli/share/LiteOS_Lab/network/dtls/mbedtls/mbedtls-2.16.2/library/pkparse.c ****         ret = mbedtls_pk_parse_key( ctx, buf, n,
 147:/home/xingli/share/LiteOS_Lab/network/dtls/mbedtls/mbedtls-2.16.2/library/pkparse.c ****                 (const unsigned char *) pwd, strlen( pwd ) );
 148:/home/xingli/share/LiteOS_Lab/network/dtls/mbedtls/mbedtls-2.16.2/library/pkparse.c **** 
 149:/home/xingli/share/LiteOS_Lab/network/dtls/mbedtls/mbedtls-2.16.2/library/pkparse.c ****     mbedtls_platform_zeroize( buf, n );
 150:/home/xingli/share/LiteOS_Lab/network/dtls/mbedtls/mbedtls-2.16.2/library/pkparse.c ****     mbedtls_free( buf );
 151:/home/xingli/share/LiteOS_Lab/network/dtls/mbedtls/mbedtls-2.16.2/library/pkparse.c **** 
 152:/home/xingli/share/LiteOS_Lab/network/dtls/mbedtls/mbedtls-2.16.2/library/pkparse.c ****     return( ret );
 153:/home/xingli/share/LiteOS_Lab/network/dtls/mbedtls/mbedtls-2.16.2/library/pkparse.c **** }
 154:/home/xingli/share/LiteOS_Lab/network/dtls/mbedtls/mbedtls-2.16.2/library/pkparse.c **** 
 155:/home/xingli/share/LiteOS_Lab/network/dtls/mbedtls/mbedtls-2.16.2/library/pkparse.c **** /*
 156:/home/xingli/share/LiteOS_Lab/network/dtls/mbedtls/mbedtls-2.16.2/library/pkparse.c ****  * Load and parse a public key
 157:/home/xingli/share/LiteOS_Lab/network/dtls/mbedtls/mbedtls-2.16.2/library/pkparse.c ****  */
 158:/home/xingli/share/LiteOS_Lab/network/dtls/mbedtls/mbedtls-2.16.2/library/pkparse.c **** int mbedtls_pk_parse_public_keyfile( mbedtls_pk_context *ctx, const char *path )
 159:/home/xingli/share/LiteOS_Lab/network/dtls/mbedtls/mbedtls-2.16.2/library/pkparse.c **** {
 160:/home/xingli/share/LiteOS_Lab/network/dtls/mbedtls/mbedtls-2.16.2/library/pkparse.c ****     int ret;
 161:/home/xingli/share/LiteOS_Lab/network/dtls/mbedtls/mbedtls-2.16.2/library/pkparse.c ****     size_t n;
 162:/home/xingli/share/LiteOS_Lab/network/dtls/mbedtls/mbedtls-2.16.2/library/pkparse.c ****     unsigned char *buf;
 163:/home/xingli/share/LiteOS_Lab/network/dtls/mbedtls/mbedtls-2.16.2/library/pkparse.c **** 
 164:/home/xingli/share/LiteOS_Lab/network/dtls/mbedtls/mbedtls-2.16.2/library/pkparse.c ****     PK_VALIDATE_RET( ctx != NULL );
 165:/home/xingli/share/LiteOS_Lab/network/dtls/mbedtls/mbedtls-2.16.2/library/pkparse.c ****     PK_VALIDATE_RET( path != NULL );
 166:/home/xingli/share/LiteOS_Lab/network/dtls/mbedtls/mbedtls-2.16.2/library/pkparse.c **** 
 167:/home/xingli/share/LiteOS_Lab/network/dtls/mbedtls/mbedtls-2.16.2/library/pkparse.c ****     if( ( ret = mbedtls_pk_load_file( path, &buf, &n ) ) != 0 )
 168:/home/xingli/share/LiteOS_Lab/network/dtls/mbedtls/mbedtls-2.16.2/library/pkparse.c ****         return( ret );
 169:/home/xingli/share/LiteOS_Lab/network/dtls/mbedtls/mbedtls-2.16.2/library/pkparse.c **** 
 170:/home/xingli/share/LiteOS_Lab/network/dtls/mbedtls/mbedtls-2.16.2/library/pkparse.c ****     ret = mbedtls_pk_parse_public_key( ctx, buf, n );
 171:/home/xingli/share/LiteOS_Lab/network/dtls/mbedtls/mbedtls-2.16.2/library/pkparse.c **** 
 172:/home/xingli/share/LiteOS_Lab/network/dtls/mbedtls/mbedtls-2.16.2/library/pkparse.c ****     mbedtls_platform_zeroize( buf, n );
 173:/home/xingli/share/LiteOS_Lab/network/dtls/mbedtls/mbedtls-2.16.2/library/pkparse.c ****     mbedtls_free( buf );
 174:/home/xingli/share/LiteOS_Lab/network/dtls/mbedtls/mbedtls-2.16.2/library/pkparse.c **** 
 175:/home/xingli/share/LiteOS_Lab/network/dtls/mbedtls/mbedtls-2.16.2/library/pkparse.c ****     return( ret );
 176:/home/xingli/share/LiteOS_Lab/network/dtls/mbedtls/mbedtls-2.16.2/library/pkparse.c **** }
 177:/home/xingli/share/LiteOS_Lab/network/dtls/mbedtls/mbedtls-2.16.2/library/pkparse.c **** #endif /* MBEDTLS_FS_IO */
 178:/home/xingli/share/LiteOS_Lab/network/dtls/mbedtls/mbedtls-2.16.2/library/pkparse.c **** 
 179:/home/xingli/share/LiteOS_Lab/network/dtls/mbedtls/mbedtls-2.16.2/library/pkparse.c **** #if defined(MBEDTLS_ECP_C)
 180:/home/xingli/share/LiteOS_Lab/network/dtls/mbedtls/mbedtls-2.16.2/library/pkparse.c **** /* Minimally parse an ECParameters buffer to and mbedtls_asn1_buf
 181:/home/xingli/share/LiteOS_Lab/network/dtls/mbedtls/mbedtls-2.16.2/library/pkparse.c ****  *
 182:/home/xingli/share/LiteOS_Lab/network/dtls/mbedtls/mbedtls-2.16.2/library/pkparse.c ****  * ECParameters ::= CHOICE {
 183:/home/xingli/share/LiteOS_Lab/network/dtls/mbedtls/mbedtls-2.16.2/library/pkparse.c ****  *   namedCurve         OBJECT IDENTIFIER
 184:/home/xingli/share/LiteOS_Lab/network/dtls/mbedtls/mbedtls-2.16.2/library/pkparse.c ****  *   specifiedCurve     SpecifiedECDomain -- = SEQUENCE { ... }
 185:/home/xingli/share/LiteOS_Lab/network/dtls/mbedtls/mbedtls-2.16.2/library/pkparse.c ****  *   -- implicitCurve   NULL
 186:/home/xingli/share/LiteOS_Lab/network/dtls/mbedtls/mbedtls-2.16.2/library/pkparse.c ****  * }
 187:/home/xingli/share/LiteOS_Lab/network/dtls/mbedtls/mbedtls-2.16.2/library/pkparse.c ****  */
 188:/home/xingli/share/LiteOS_Lab/network/dtls/mbedtls/mbedtls-2.16.2/library/pkparse.c **** static int pk_get_ecparams( unsigned char **p, const unsigned char *end,
 189:/home/xingli/share/LiteOS_Lab/network/dtls/mbedtls/mbedtls-2.16.2/library/pkparse.c ****                             mbedtls_asn1_buf *params )
 190:/home/xingli/share/LiteOS_Lab/network/dtls/mbedtls/mbedtls-2.16.2/library/pkparse.c **** {
  86              		.loc 2 190 1
  87              		.cfi_startproc
  88 0000 F30F1EFA 		endbr64
GAS LISTING /tmp/ccmvMAN8.s 			page 9


  89 0004 55       		pushq	%rbp
  90              	.LCFI6:
  91              		.cfi_def_cfa_offset 16
  92              		.cfi_offset 6, -16
  93 0005 4889E5   		movq	%rsp, %rbp
  94              	.LCFI7:
  95              		.cfi_def_cfa_register 6
  96 0008 4883EC30 		subq	$48, %rsp
  97 000c 48897DE8 		movq	%rdi, -24(%rbp)
  98 0010 488975E0 		movq	%rsi, -32(%rbp)
  99 0014 488955D8 		movq	%rdx, -40(%rbp)
 100              		.loc 2 190 1
 101 0018 64488B04 		movq	%fs:40, %rax
 101      25280000 
 101      00
 102 0021 488945F8 		movq	%rax, -8(%rbp)
 103 0025 31C0     		xorl	%eax, %eax
 191:/home/xingli/share/LiteOS_Lab/network/dtls/mbedtls/mbedtls-2.16.2/library/pkparse.c ****     int ret;
 192:/home/xingli/share/LiteOS_Lab/network/dtls/mbedtls/mbedtls-2.16.2/library/pkparse.c **** 
 193:/home/xingli/share/LiteOS_Lab/network/dtls/mbedtls/mbedtls-2.16.2/library/pkparse.c ****     if ( end - *p < 1 )
 104              		.loc 2 193 16
 105 0027 488B45E8 		movq	-24(%rbp), %rax
 106 002b 488B00   		movq	(%rax), %rax
 107              		.loc 2 193 14
 108 002e 488B55E0 		movq	-32(%rbp), %rdx
 109 0032 4829C2   		subq	%rax, %rdx
 110 0035 4889D0   		movq	%rdx, %rax
 111              		.loc 2 193 8
 112 0038 4885C0   		testq	%rax, %rax
 113 003b 7F0A     		jg	.L8
 194:/home/xingli/share/LiteOS_Lab/network/dtls/mbedtls/mbedtls-2.16.2/library/pkparse.c ****         return( MBEDTLS_ERR_PK_KEY_INVALID_FORMAT +
 114              		.loc 2 194 15
 115 003d B8A0C2FF 		movl	$-15712, %eax
 115      FF
 116 0042 E9A70000 		jmp	.L9
 116      00
 117              	.L8:
 195:/home/xingli/share/LiteOS_Lab/network/dtls/mbedtls/mbedtls-2.16.2/library/pkparse.c ****                 MBEDTLS_ERR_ASN1_OUT_OF_DATA );
 196:/home/xingli/share/LiteOS_Lab/network/dtls/mbedtls/mbedtls-2.16.2/library/pkparse.c **** 
 197:/home/xingli/share/LiteOS_Lab/network/dtls/mbedtls/mbedtls-2.16.2/library/pkparse.c ****     /* Tag may be either OID or SEQUENCE */
 198:/home/xingli/share/LiteOS_Lab/network/dtls/mbedtls/mbedtls-2.16.2/library/pkparse.c ****     params->tag = **p;
 118              		.loc 2 198 20
 119 0047 488B45E8 		movq	-24(%rbp), %rax
 120 004b 488B00   		movq	(%rax), %rax
 121              		.loc 2 198 19
 122 004e 0FB600   		movzbl	(%rax), %eax
 123 0051 0FB6D0   		movzbl	%al, %edx
 124              		.loc 2 198 17
 125 0054 488B45D8 		movq	-40(%rbp), %rax
 126 0058 8910     		movl	%edx, (%rax)
 199:/home/xingli/share/LiteOS_Lab/network/dtls/mbedtls/mbedtls-2.16.2/library/pkparse.c ****     if( params->tag != MBEDTLS_ASN1_OID
 127              		.loc 2 199 15
 128 005a 488B45D8 		movq	-40(%rbp), %rax
 129 005e 8B00     		movl	(%rax), %eax
 130              		.loc 2 199 7
 131 0060 83F806   		cmpl	$6, %eax
 132 0063 7412     		je	.L10
GAS LISTING /tmp/ccmvMAN8.s 			page 10


 200:/home/xingli/share/LiteOS_Lab/network/dtls/mbedtls/mbedtls-2.16.2/library/pkparse.c **** #if defined(MBEDTLS_PK_PARSE_EC_EXTENDED)
 201:/home/xingli/share/LiteOS_Lab/network/dtls/mbedtls/mbedtls-2.16.2/library/pkparse.c ****             && params->tag != ( MBEDTLS_ASN1_CONSTRUCTED | MBEDTLS_ASN1_SEQUENCE )
 133              		.loc 2 201 22
 134 0065 488B45D8 		movq	-40(%rbp), %rax
 135 0069 8B00     		movl	(%rax), %eax
 136              		.loc 2 201 13
 137 006b 83F830   		cmpl	$48, %eax
 138 006e 7407     		je	.L10
 202:/home/xingli/share/LiteOS_Lab/network/dtls/mbedtls/mbedtls-2.16.2/library/pkparse.c **** #endif
 203:/home/xingli/share/LiteOS_Lab/network/dtls/mbedtls/mbedtls-2.16.2/library/pkparse.c ****             )
 204:/home/xingli/share/LiteOS_Lab/network/dtls/mbedtls/mbedtls-2.16.2/library/pkparse.c ****     {
 205:/home/xingli/share/LiteOS_Lab/network/dtls/mbedtls/mbedtls-2.16.2/library/pkparse.c ****         return( MBEDTLS_ERR_PK_KEY_INVALID_FORMAT +
 139              		.loc 2 205 15
 140 0070 B89EC2FF 		movl	$-15714, %eax
 140      FF
 141 0075 EB77     		jmp	.L9
 142              	.L10:
 206:/home/xingli/share/LiteOS_Lab/network/dtls/mbedtls/mbedtls-2.16.2/library/pkparse.c ****                 MBEDTLS_ERR_ASN1_UNEXPECTED_TAG );
 207:/home/xingli/share/LiteOS_Lab/network/dtls/mbedtls/mbedtls-2.16.2/library/pkparse.c ****     }
 208:/home/xingli/share/LiteOS_Lab/network/dtls/mbedtls/mbedtls-2.16.2/library/pkparse.c **** 
 209:/home/xingli/share/LiteOS_Lab/network/dtls/mbedtls/mbedtls-2.16.2/library/pkparse.c ****     if( ( ret = mbedtls_asn1_get_tag( p, end, &params->len, params->tag ) ) != 0 )
 143              		.loc 2 209 17
 144 0077 488B45D8 		movq	-40(%rbp), %rax
 145 007b 8B10     		movl	(%rax), %edx
 146 007d 488B45D8 		movq	-40(%rbp), %rax
 147 0081 488D7808 		leaq	8(%rax), %rdi
 148 0085 488B75E0 		movq	-32(%rbp), %rsi
 149 0089 488B45E8 		movq	-24(%rbp), %rax
 150 008d 89D1     		movl	%edx, %ecx
 151 008f 4889FA   		movq	%rdi, %rdx
 152 0092 4889C7   		movq	%rax, %rdi
 153 0095 E8000000 		call	mbedtls_asn1_get_tag@PLT
 153      00
 154 009a 8945F4   		movl	%eax, -12(%rbp)
 155              		.loc 2 209 7
 156 009d 837DF400 		cmpl	$0, -12(%rbp)
 157 00a1 740A     		je	.L11
 210:/home/xingli/share/LiteOS_Lab/network/dtls/mbedtls/mbedtls-2.16.2/library/pkparse.c ****     {
 211:/home/xingli/share/LiteOS_Lab/network/dtls/mbedtls/mbedtls-2.16.2/library/pkparse.c ****         return( MBEDTLS_ERR_PK_KEY_INVALID_FORMAT + ret );
 158              		.loc 2 211 51
 159 00a3 8B45F4   		movl	-12(%rbp), %eax
 160 00a6 2D003D00 		subl	$15616, %eax
 160      00
 161 00ab EB41     		jmp	.L9
 162              	.L11:
 212:/home/xingli/share/LiteOS_Lab/network/dtls/mbedtls/mbedtls-2.16.2/library/pkparse.c ****     }
 213:/home/xingli/share/LiteOS_Lab/network/dtls/mbedtls/mbedtls-2.16.2/library/pkparse.c **** 
 214:/home/xingli/share/LiteOS_Lab/network/dtls/mbedtls/mbedtls-2.16.2/library/pkparse.c ****     params->p = *p;
 163              		.loc 2 214 17
 164 00ad 488B45E8 		movq	-24(%rbp), %rax
 165 00b1 488B10   		movq	(%rax), %rdx
 166              		.loc 2 214 15
 167 00b4 488B45D8 		movq	-40(%rbp), %rax
 168 00b8 48895010 		movq	%rdx, 16(%rax)
 215:/home/xingli/share/LiteOS_Lab/network/dtls/mbedtls/mbedtls-2.16.2/library/pkparse.c ****     *p += params->len;
 169              		.loc 2 215 8
 170 00bc 488B45E8 		movq	-24(%rbp), %rax
GAS LISTING /tmp/ccmvMAN8.s 			page 11


 171 00c0 488B10   		movq	(%rax), %rdx
 172              		.loc 2 215 17
 173 00c3 488B45D8 		movq	-40(%rbp), %rax
 174 00c7 488B4008 		movq	8(%rax), %rax
 175              		.loc 2 215 8
 176 00cb 4801C2   		addq	%rax, %rdx
 177 00ce 488B45E8 		movq	-24(%rbp), %rax
 178 00d2 488910   		movq	%rdx, (%rax)
 216:/home/xingli/share/LiteOS_Lab/network/dtls/mbedtls/mbedtls-2.16.2/library/pkparse.c **** 
 217:/home/xingli/share/LiteOS_Lab/network/dtls/mbedtls/mbedtls-2.16.2/library/pkparse.c ****     if( *p != end )
 179              		.loc 2 217 9
 180 00d5 488B45E8 		movq	-24(%rbp), %rax
 181 00d9 488B00   		movq	(%rax), %rax
 182              		.loc 2 217 7
 183 00dc 483945E0 		cmpq	%rax, -32(%rbp)
 184 00e0 7407     		je	.L12
 218:/home/xingli/share/LiteOS_Lab/network/dtls/mbedtls/mbedtls-2.16.2/library/pkparse.c ****         return( MBEDTLS_ERR_PK_KEY_INVALID_FORMAT +
 185              		.loc 2 218 15
 186 00e2 B89AC2FF 		movl	$-15718, %eax
 186      FF
 187 00e7 EB05     		jmp	.L9
 188              	.L12:
 219:/home/xingli/share/LiteOS_Lab/network/dtls/mbedtls/mbedtls-2.16.2/library/pkparse.c ****                 MBEDTLS_ERR_ASN1_LENGTH_MISMATCH );
 220:/home/xingli/share/LiteOS_Lab/network/dtls/mbedtls/mbedtls-2.16.2/library/pkparse.c **** 
 221:/home/xingli/share/LiteOS_Lab/network/dtls/mbedtls/mbedtls-2.16.2/library/pkparse.c ****     return( 0 );
 189              		.loc 2 221 11
 190 00e9 B8000000 		movl	$0, %eax
 190      00
 191              	.L9:
 222:/home/xingli/share/LiteOS_Lab/network/dtls/mbedtls/mbedtls-2.16.2/library/pkparse.c **** }
 192              		.loc 2 222 1
 193 00ee 488B4DF8 		movq	-8(%rbp), %rcx
 194 00f2 6448330C 		xorq	%fs:40, %rcx
 194      25280000 
 194      00
 195 00fb 7405     		je	.L13
 196 00fd E8000000 		call	__stack_chk_fail@PLT
 196      00
 197              	.L13:
 198 0102 C9       		leave
 199              	.LCFI8:
 200              		.cfi_def_cfa 7, 8
 201 0103 C3       		ret
 202              		.cfi_endproc
 203              	.LFE16:
 205              		.section	.rodata
 206              	.LC0:
 207 0000 2A8648CE 		.string	"*\206H\316=\001\001"
 207      3D010100 
 208              		.section	.text.pk_group_from_specified,"ax",@progbits
 210              	pk_group_from_specified:
 211              	.LFB17:
 223:/home/xingli/share/LiteOS_Lab/network/dtls/mbedtls/mbedtls-2.16.2/library/pkparse.c **** 
 224:/home/xingli/share/LiteOS_Lab/network/dtls/mbedtls/mbedtls-2.16.2/library/pkparse.c **** #if defined(MBEDTLS_PK_PARSE_EC_EXTENDED)
 225:/home/xingli/share/LiteOS_Lab/network/dtls/mbedtls/mbedtls-2.16.2/library/pkparse.c **** /*
 226:/home/xingli/share/LiteOS_Lab/network/dtls/mbedtls/mbedtls-2.16.2/library/pkparse.c ****  * Parse a SpecifiedECDomain (SEC 1 C.2) and (mostly) fill the group with it.
 227:/home/xingli/share/LiteOS_Lab/network/dtls/mbedtls/mbedtls-2.16.2/library/pkparse.c ****  * WARNING: the resulting group should only be used with
GAS LISTING /tmp/ccmvMAN8.s 			page 12


 228:/home/xingli/share/LiteOS_Lab/network/dtls/mbedtls/mbedtls-2.16.2/library/pkparse.c ****  * pk_group_id_from_specified(), since its base point may not be set correctly
 229:/home/xingli/share/LiteOS_Lab/network/dtls/mbedtls/mbedtls-2.16.2/library/pkparse.c ****  * if it was encoded compressed.
 230:/home/xingli/share/LiteOS_Lab/network/dtls/mbedtls/mbedtls-2.16.2/library/pkparse.c ****  *
 231:/home/xingli/share/LiteOS_Lab/network/dtls/mbedtls/mbedtls-2.16.2/library/pkparse.c ****  *  SpecifiedECDomain ::= SEQUENCE {
 232:/home/xingli/share/LiteOS_Lab/network/dtls/mbedtls/mbedtls-2.16.2/library/pkparse.c ****  *      version SpecifiedECDomainVersion(ecdpVer1 | ecdpVer2 | ecdpVer3, ...),
 233:/home/xingli/share/LiteOS_Lab/network/dtls/mbedtls/mbedtls-2.16.2/library/pkparse.c ****  *      fieldID FieldID {{FieldTypes}},
 234:/home/xingli/share/LiteOS_Lab/network/dtls/mbedtls/mbedtls-2.16.2/library/pkparse.c ****  *      curve Curve,
 235:/home/xingli/share/LiteOS_Lab/network/dtls/mbedtls/mbedtls-2.16.2/library/pkparse.c ****  *      base ECPoint,
 236:/home/xingli/share/LiteOS_Lab/network/dtls/mbedtls/mbedtls-2.16.2/library/pkparse.c ****  *      order INTEGER,
 237:/home/xingli/share/LiteOS_Lab/network/dtls/mbedtls/mbedtls-2.16.2/library/pkparse.c ****  *      cofactor INTEGER OPTIONAL,
 238:/home/xingli/share/LiteOS_Lab/network/dtls/mbedtls/mbedtls-2.16.2/library/pkparse.c ****  *      hash HashAlgorithm OPTIONAL,
 239:/home/xingli/share/LiteOS_Lab/network/dtls/mbedtls/mbedtls-2.16.2/library/pkparse.c ****  *      ...
 240:/home/xingli/share/LiteOS_Lab/network/dtls/mbedtls/mbedtls-2.16.2/library/pkparse.c ****  *  }
 241:/home/xingli/share/LiteOS_Lab/network/dtls/mbedtls/mbedtls-2.16.2/library/pkparse.c ****  *
 242:/home/xingli/share/LiteOS_Lab/network/dtls/mbedtls/mbedtls-2.16.2/library/pkparse.c ****  * We only support prime-field as field type, and ignore hash and cofactor.
 243:/home/xingli/share/LiteOS_Lab/network/dtls/mbedtls/mbedtls-2.16.2/library/pkparse.c ****  */
 244:/home/xingli/share/LiteOS_Lab/network/dtls/mbedtls/mbedtls-2.16.2/library/pkparse.c **** static int pk_group_from_specified( const mbedtls_asn1_buf *params, mbedtls_ecp_group *grp )
 245:/home/xingli/share/LiteOS_Lab/network/dtls/mbedtls/mbedtls-2.16.2/library/pkparse.c **** {
 212              		.loc 2 245 1
 213              		.cfi_startproc
 214 0000 F30F1EFA 		endbr64
 215 0004 55       		pushq	%rbp
 216              	.LCFI9:
 217              		.cfi_def_cfa_offset 16
 218              		.cfi_offset 6, -16
 219 0005 4889E5   		movq	%rsp, %rbp
 220              	.LCFI10:
 221              		.cfi_def_cfa_register 6
 222 0008 4883EC50 		subq	$80, %rsp
 223 000c 48897DB8 		movq	%rdi, -72(%rbp)
 224 0010 488975B0 		movq	%rsi, -80(%rbp)
 225              		.loc 2 245 1
 226 0014 64488B04 		movq	%fs:40, %rax
 226      25280000 
 226      00
 227 001d 488945F8 		movq	%rax, -8(%rbp)
 228 0021 31C0     		xorl	%eax, %eax
 246:/home/xingli/share/LiteOS_Lab/network/dtls/mbedtls/mbedtls-2.16.2/library/pkparse.c ****     int ret;
 247:/home/xingli/share/LiteOS_Lab/network/dtls/mbedtls/mbedtls-2.16.2/library/pkparse.c ****     unsigned char *p = params->p;
 229              		.loc 2 247 30
 230 0023 488B45B8 		movq	-72(%rbp), %rax
 231 0027 488B4010 		movq	16(%rax), %rax
 232              		.loc 2 247 20
 233 002b 488945D0 		movq	%rax, -48(%rbp)
 248:/home/xingli/share/LiteOS_Lab/network/dtls/mbedtls/mbedtls-2.16.2/library/pkparse.c ****     const unsigned char * const end = params->p + params->len;
 234              		.loc 2 248 45
 235 002f 488B45B8 		movq	-72(%rbp), %rax
 236 0033 488B5010 		movq	16(%rax), %rdx
 237              		.loc 2 248 57
 238 0037 488B45B8 		movq	-72(%rbp), %rax
 239 003b 488B4008 		movq	8(%rax), %rax
 240              		.loc 2 248 33
 241 003f 4801D0   		addq	%rdx, %rax
 242 0042 488945E0 		movq	%rax, -32(%rbp)
 249:/home/xingli/share/LiteOS_Lab/network/dtls/mbedtls/mbedtls-2.16.2/library/pkparse.c ****     const unsigned char *end_field, *end_curve;
 250:/home/xingli/share/LiteOS_Lab/network/dtls/mbedtls/mbedtls-2.16.2/library/pkparse.c ****     size_t len;
 251:/home/xingli/share/LiteOS_Lab/network/dtls/mbedtls/mbedtls-2.16.2/library/pkparse.c ****     int ver;
GAS LISTING /tmp/ccmvMAN8.s 			page 13


 252:/home/xingli/share/LiteOS_Lab/network/dtls/mbedtls/mbedtls-2.16.2/library/pkparse.c **** 
 253:/home/xingli/share/LiteOS_Lab/network/dtls/mbedtls/mbedtls-2.16.2/library/pkparse.c ****     /* SpecifiedECDomainVersion ::= INTEGER { 1, 2, 3 } */
 254:/home/xingli/share/LiteOS_Lab/network/dtls/mbedtls/mbedtls-2.16.2/library/pkparse.c ****     if( ( ret = mbedtls_asn1_get_int( &p, end, &ver ) ) != 0 )
 243              		.loc 2 254 17
 244 0046 488D55C8 		leaq	-56(%rbp), %rdx
 245 004a 488B4DE0 		movq	-32(%rbp), %rcx
 246 004e 488D45D0 		leaq	-48(%rbp), %rax
 247 0052 4889CE   		movq	%rcx, %rsi
 248 0055 4889C7   		movq	%rax, %rdi
 249 0058 E8000000 		call	mbedtls_asn1_get_int@PLT
 249      00
 250 005d 8945CC   		movl	%eax, -52(%rbp)
 251              		.loc 2 254 7
 252 0060 837DCC00 		cmpl	$0, -52(%rbp)
 253 0064 740D     		je	.L15
 255:/home/xingli/share/LiteOS_Lab/network/dtls/mbedtls/mbedtls-2.16.2/library/pkparse.c ****         return( MBEDTLS_ERR_PK_KEY_INVALID_FORMAT + ret );
 254              		.loc 2 255 51
 255 0066 8B45CC   		movl	-52(%rbp), %eax
 256 0069 2D003D00 		subl	$15616, %eax
 256      00
 257 006e E9C70300 		jmp	.L37
 257      00
 258              	.L15:
 256:/home/xingli/share/LiteOS_Lab/network/dtls/mbedtls/mbedtls-2.16.2/library/pkparse.c **** 
 257:/home/xingli/share/LiteOS_Lab/network/dtls/mbedtls/mbedtls-2.16.2/library/pkparse.c ****     if( ver < 1 || ver > 3 )
 259              		.loc 2 257 13
 260 0073 8B45C8   		movl	-56(%rbp), %eax
 261              		.loc 2 257 7
 262 0076 85C0     		testl	%eax, %eax
 263 0078 7E08     		jle	.L17
 264              		.loc 2 257 24 discriminator 1
 265 007a 8B45C8   		movl	-56(%rbp), %eax
 266              		.loc 2 257 17 discriminator 1
 267 007d 83F803   		cmpl	$3, %eax
 268 0080 7E0A     		jle	.L18
 269              	.L17:
 258:/home/xingli/share/LiteOS_Lab/network/dtls/mbedtls/mbedtls-2.16.2/library/pkparse.c ****         return( MBEDTLS_ERR_PK_KEY_INVALID_FORMAT );
 270              		.loc 2 258 15
 271 0082 B800C3FF 		movl	$-15616, %eax
 271      FF
 272 0087 E9AE0300 		jmp	.L37
 272      00
 273              	.L18:
 259:/home/xingli/share/LiteOS_Lab/network/dtls/mbedtls/mbedtls-2.16.2/library/pkparse.c **** 
 260:/home/xingli/share/LiteOS_Lab/network/dtls/mbedtls/mbedtls-2.16.2/library/pkparse.c ****     /*
 261:/home/xingli/share/LiteOS_Lab/network/dtls/mbedtls/mbedtls-2.16.2/library/pkparse.c ****      * FieldID { FIELD-ID:IOSet } ::= SEQUENCE { -- Finite field
 262:/home/xingli/share/LiteOS_Lab/network/dtls/mbedtls/mbedtls-2.16.2/library/pkparse.c ****      *       fieldType FIELD-ID.&id({IOSet}),
 263:/home/xingli/share/LiteOS_Lab/network/dtls/mbedtls/mbedtls-2.16.2/library/pkparse.c ****      *       parameters FIELD-ID.&Type({IOSet}{@fieldType})
 264:/home/xingli/share/LiteOS_Lab/network/dtls/mbedtls/mbedtls-2.16.2/library/pkparse.c ****      * }
 265:/home/xingli/share/LiteOS_Lab/network/dtls/mbedtls/mbedtls-2.16.2/library/pkparse.c ****      */
 266:/home/xingli/share/LiteOS_Lab/network/dtls/mbedtls/mbedtls-2.16.2/library/pkparse.c ****     if( ( ret = mbedtls_asn1_get_tag( &p, end, &len,
 274              		.loc 2 266 17
 275 008c 488D55D8 		leaq	-40(%rbp), %rdx
 276 0090 488B75E0 		movq	-32(%rbp), %rsi
 277 0094 488D45D0 		leaq	-48(%rbp), %rax
 278 0098 B9300000 		movl	$48, %ecx
 278      00
GAS LISTING /tmp/ccmvMAN8.s 			page 14


 279 009d 4889C7   		movq	%rax, %rdi
 280 00a0 E8000000 		call	mbedtls_asn1_get_tag@PLT
 280      00
 281 00a5 8945CC   		movl	%eax, -52(%rbp)
 282              		.loc 2 266 7
 283 00a8 837DCC00 		cmpl	$0, -52(%rbp)
 284 00ac 7408     		je	.L19
 267:/home/xingli/share/LiteOS_Lab/network/dtls/mbedtls/mbedtls-2.16.2/library/pkparse.c ****             MBEDTLS_ASN1_CONSTRUCTED | MBEDTLS_ASN1_SEQUENCE ) ) != 0 )
 268:/home/xingli/share/LiteOS_Lab/network/dtls/mbedtls/mbedtls-2.16.2/library/pkparse.c ****         return( ret );
 285              		.loc 2 268 15
 286 00ae 8B45CC   		movl	-52(%rbp), %eax
 287 00b1 E9840300 		jmp	.L37
 287      00
 288              	.L19:
 269:/home/xingli/share/LiteOS_Lab/network/dtls/mbedtls/mbedtls-2.16.2/library/pkparse.c **** 
 270:/home/xingli/share/LiteOS_Lab/network/dtls/mbedtls/mbedtls-2.16.2/library/pkparse.c ****     end_field = p + len;
 289              		.loc 2 270 19
 290 00b6 488B55D0 		movq	-48(%rbp), %rdx
 291 00ba 488B45D8 		movq	-40(%rbp), %rax
 292              		.loc 2 270 15
 293 00be 4801D0   		addq	%rdx, %rax
 294 00c1 488945E8 		movq	%rax, -24(%rbp)
 271:/home/xingli/share/LiteOS_Lab/network/dtls/mbedtls/mbedtls-2.16.2/library/pkparse.c **** 
 272:/home/xingli/share/LiteOS_Lab/network/dtls/mbedtls/mbedtls-2.16.2/library/pkparse.c ****     /*
 273:/home/xingli/share/LiteOS_Lab/network/dtls/mbedtls/mbedtls-2.16.2/library/pkparse.c ****      * FIELD-ID ::= TYPE-IDENTIFIER
 274:/home/xingli/share/LiteOS_Lab/network/dtls/mbedtls/mbedtls-2.16.2/library/pkparse.c ****      * FieldTypes FIELD-ID ::= {
 275:/home/xingli/share/LiteOS_Lab/network/dtls/mbedtls/mbedtls-2.16.2/library/pkparse.c ****      *       { Prime-p IDENTIFIED BY prime-field } |
 276:/home/xingli/share/LiteOS_Lab/network/dtls/mbedtls/mbedtls-2.16.2/library/pkparse.c ****      *       { Characteristic-two IDENTIFIED BY characteristic-two-field }
 277:/home/xingli/share/LiteOS_Lab/network/dtls/mbedtls/mbedtls-2.16.2/library/pkparse.c ****      * }
 278:/home/xingli/share/LiteOS_Lab/network/dtls/mbedtls/mbedtls-2.16.2/library/pkparse.c ****      * prime-field OBJECT IDENTIFIER ::= { id-fieldType 1 }
 279:/home/xingli/share/LiteOS_Lab/network/dtls/mbedtls/mbedtls-2.16.2/library/pkparse.c ****      */
 280:/home/xingli/share/LiteOS_Lab/network/dtls/mbedtls/mbedtls-2.16.2/library/pkparse.c ****     if( ( ret = mbedtls_asn1_get_tag( &p, end_field, &len, MBEDTLS_ASN1_OID ) ) != 0 )
 295              		.loc 2 280 17
 296 00c5 488D55D8 		leaq	-40(%rbp), %rdx
 297 00c9 488B75E8 		movq	-24(%rbp), %rsi
 298 00cd 488D45D0 		leaq	-48(%rbp), %rax
 299 00d1 B9060000 		movl	$6, %ecx
 299      00
 300 00d6 4889C7   		movq	%rax, %rdi
 301 00d9 E8000000 		call	mbedtls_asn1_get_tag@PLT
 301      00
 302 00de 8945CC   		movl	%eax, -52(%rbp)
 303              		.loc 2 280 7
 304 00e1 837DCC00 		cmpl	$0, -52(%rbp)
 305 00e5 7408     		je	.L20
 281:/home/xingli/share/LiteOS_Lab/network/dtls/mbedtls/mbedtls-2.16.2/library/pkparse.c ****         return( ret );
 306              		.loc 2 281 15
 307 00e7 8B45CC   		movl	-52(%rbp), %eax
 308 00ea E94B0300 		jmp	.L37
 308      00
 309              	.L20:
 282:/home/xingli/share/LiteOS_Lab/network/dtls/mbedtls/mbedtls-2.16.2/library/pkparse.c **** 
 283:/home/xingli/share/LiteOS_Lab/network/dtls/mbedtls/mbedtls-2.16.2/library/pkparse.c ****     if( len != MBEDTLS_OID_SIZE( MBEDTLS_OID_ANSI_X9_62_PRIME_FIELD ) ||
 310              		.loc 2 283 13
 311 00ef 488B45D8 		movq	-40(%rbp), %rax
 312              		.loc 2 283 7
 313 00f3 4883F807 		cmpq	$7, %rax
GAS LISTING /tmp/ccmvMAN8.s 			page 15


 314 00f7 751B     		jne	.L21
 284:/home/xingli/share/LiteOS_Lab/network/dtls/mbedtls/mbedtls-2.16.2/library/pkparse.c ****         memcmp( p, MBEDTLS_OID_ANSI_X9_62_PRIME_FIELD, len ) != 0 )
 315              		.loc 2 284 9 discriminator 1
 316 00f9 488B55D8 		movq	-40(%rbp), %rdx
 317 00fd 488B45D0 		movq	-48(%rbp), %rax
 318 0101 488D3500 		leaq	.LC0(%rip), %rsi
 318      000000
 319 0108 4889C7   		movq	%rax, %rdi
 320 010b E8000000 		call	memcmp@PLT
 320      00
 283:/home/xingli/share/LiteOS_Lab/network/dtls/mbedtls/mbedtls-2.16.2/library/pkparse.c ****         memcmp( p, MBEDTLS_OID_ANSI_X9_62_PRIME_FIELD, len ) != 0 )
 321              		.loc 2 283 71 discriminator 1
 322 0110 85C0     		testl	%eax, %eax
 323 0112 740A     		je	.L22
 324              	.L21:
 285:/home/xingli/share/LiteOS_Lab/network/dtls/mbedtls/mbedtls-2.16.2/library/pkparse.c ****     {
 286:/home/xingli/share/LiteOS_Lab/network/dtls/mbedtls/mbedtls-2.16.2/library/pkparse.c ****         return( MBEDTLS_ERR_PK_FEATURE_UNAVAILABLE );
 325              		.loc 2 286 15
 326 0114 B880C6FF 		movl	$-14720, %eax
 326      FF
 327 0119 E91C0300 		jmp	.L37
 327      00
 328              	.L22:
 287:/home/xingli/share/LiteOS_Lab/network/dtls/mbedtls/mbedtls-2.16.2/library/pkparse.c ****     }
 288:/home/xingli/share/LiteOS_Lab/network/dtls/mbedtls/mbedtls-2.16.2/library/pkparse.c **** 
 289:/home/xingli/share/LiteOS_Lab/network/dtls/mbedtls/mbedtls-2.16.2/library/pkparse.c ****     p += len;
 329              		.loc 2 289 7
 330 011e 488B55D0 		movq	-48(%rbp), %rdx
 331 0122 488B45D8 		movq	-40(%rbp), %rax
 332 0126 4801D0   		addq	%rdx, %rax
 333 0129 488945D0 		movq	%rax, -48(%rbp)
 290:/home/xingli/share/LiteOS_Lab/network/dtls/mbedtls/mbedtls-2.16.2/library/pkparse.c **** 
 291:/home/xingli/share/LiteOS_Lab/network/dtls/mbedtls/mbedtls-2.16.2/library/pkparse.c ****     /* Prime-p ::= INTEGER -- Field of size p. */
 292:/home/xingli/share/LiteOS_Lab/network/dtls/mbedtls/mbedtls-2.16.2/library/pkparse.c ****     if( ( ret = mbedtls_asn1_get_mpi( &p, end_field, &grp->P ) ) != 0 )
 334              		.loc 2 292 17
 335 012d 488B45B0 		movq	-80(%rbp), %rax
 336 0131 488D5008 		leaq	8(%rax), %rdx
 337 0135 488B4DE8 		movq	-24(%rbp), %rcx
 338 0139 488D45D0 		leaq	-48(%rbp), %rax
 339 013d 4889CE   		movq	%rcx, %rsi
 340 0140 4889C7   		movq	%rax, %rdi
 341 0143 E8000000 		call	mbedtls_asn1_get_mpi@PLT
 341      00
 342 0148 8945CC   		movl	%eax, -52(%rbp)
 343              		.loc 2 292 7
 344 014b 837DCC00 		cmpl	$0, -52(%rbp)
 345 014f 740D     		je	.L23
 293:/home/xingli/share/LiteOS_Lab/network/dtls/mbedtls/mbedtls-2.16.2/library/pkparse.c ****         return( MBEDTLS_ERR_PK_KEY_INVALID_FORMAT + ret );
 346              		.loc 2 293 51
 347 0151 8B45CC   		movl	-52(%rbp), %eax
 348 0154 2D003D00 		subl	$15616, %eax
 348      00
 349 0159 E9DC0200 		jmp	.L37
 349      00
 350              	.L23:
 294:/home/xingli/share/LiteOS_Lab/network/dtls/mbedtls/mbedtls-2.16.2/library/pkparse.c **** 
 295:/home/xingli/share/LiteOS_Lab/network/dtls/mbedtls/mbedtls-2.16.2/library/pkparse.c ****     grp->pbits = mbedtls_mpi_bitlen( &grp->P );
GAS LISTING /tmp/ccmvMAN8.s 			page 16


 351              		.loc 2 295 38
 352 015e 488B45B0 		movq	-80(%rbp), %rax
 353 0162 4883C008 		addq	$8, %rax
 354              		.loc 2 295 18
 355 0166 4889C7   		movq	%rax, %rdi
 356 0169 E8000000 		call	mbedtls_mpi_bitlen@PLT
 356      00
 357              		.loc 2 295 16
 358 016e 488B55B0 		movq	-80(%rbp), %rdx
 359 0172 488982B0 		movq	%rax, 176(%rdx)
 359      000000
 296:/home/xingli/share/LiteOS_Lab/network/dtls/mbedtls/mbedtls-2.16.2/library/pkparse.c **** 
 297:/home/xingli/share/LiteOS_Lab/network/dtls/mbedtls/mbedtls-2.16.2/library/pkparse.c ****     if( p != end_field )
 360              		.loc 2 297 11
 361 0179 488B45D0 		movq	-48(%rbp), %rax
 362              		.loc 2 297 7
 363 017d 483945E8 		cmpq	%rax, -24(%rbp)
 364 0181 740A     		je	.L24
 298:/home/xingli/share/LiteOS_Lab/network/dtls/mbedtls/mbedtls-2.16.2/library/pkparse.c ****         return( MBEDTLS_ERR_PK_KEY_INVALID_FORMAT +
 365              		.loc 2 298 15
 366 0183 B89AC2FF 		movl	$-15718, %eax
 366      FF
 367 0188 E9AD0200 		jmp	.L37
 367      00
 368              	.L24:
 299:/home/xingli/share/LiteOS_Lab/network/dtls/mbedtls/mbedtls-2.16.2/library/pkparse.c ****                 MBEDTLS_ERR_ASN1_LENGTH_MISMATCH );
 300:/home/xingli/share/LiteOS_Lab/network/dtls/mbedtls/mbedtls-2.16.2/library/pkparse.c **** 
 301:/home/xingli/share/LiteOS_Lab/network/dtls/mbedtls/mbedtls-2.16.2/library/pkparse.c ****     /*
 302:/home/xingli/share/LiteOS_Lab/network/dtls/mbedtls/mbedtls-2.16.2/library/pkparse.c ****      * Curve ::= SEQUENCE {
 303:/home/xingli/share/LiteOS_Lab/network/dtls/mbedtls/mbedtls-2.16.2/library/pkparse.c ****      *       a FieldElement,
 304:/home/xingli/share/LiteOS_Lab/network/dtls/mbedtls/mbedtls-2.16.2/library/pkparse.c ****      *       b FieldElement,
 305:/home/xingli/share/LiteOS_Lab/network/dtls/mbedtls/mbedtls-2.16.2/library/pkparse.c ****      *       seed BIT STRING OPTIONAL
 306:/home/xingli/share/LiteOS_Lab/network/dtls/mbedtls/mbedtls-2.16.2/library/pkparse.c ****      *       -- Shall be present if used in SpecifiedECDomain
 307:/home/xingli/share/LiteOS_Lab/network/dtls/mbedtls/mbedtls-2.16.2/library/pkparse.c ****      *       -- with version equal to ecdpVer2 or ecdpVer3
 308:/home/xingli/share/LiteOS_Lab/network/dtls/mbedtls/mbedtls-2.16.2/library/pkparse.c ****      * }
 309:/home/xingli/share/LiteOS_Lab/network/dtls/mbedtls/mbedtls-2.16.2/library/pkparse.c ****      */
 310:/home/xingli/share/LiteOS_Lab/network/dtls/mbedtls/mbedtls-2.16.2/library/pkparse.c ****     if( ( ret = mbedtls_asn1_get_tag( &p, end, &len,
 369              		.loc 2 310 17
 370 018d 488D55D8 		leaq	-40(%rbp), %rdx
 371 0191 488B75E0 		movq	-32(%rbp), %rsi
 372 0195 488D45D0 		leaq	-48(%rbp), %rax
 373 0199 B9300000 		movl	$48, %ecx
 373      00
 374 019e 4889C7   		movq	%rax, %rdi
 375 01a1 E8000000 		call	mbedtls_asn1_get_tag@PLT
 375      00
 376 01a6 8945CC   		movl	%eax, -52(%rbp)
 377              		.loc 2 310 7
 378 01a9 837DCC00 		cmpl	$0, -52(%rbp)
 379 01ad 7408     		je	.L25
 311:/home/xingli/share/LiteOS_Lab/network/dtls/mbedtls/mbedtls-2.16.2/library/pkparse.c ****             MBEDTLS_ASN1_CONSTRUCTED | MBEDTLS_ASN1_SEQUENCE ) ) != 0 )
 312:/home/xingli/share/LiteOS_Lab/network/dtls/mbedtls/mbedtls-2.16.2/library/pkparse.c ****         return( ret );
 380              		.loc 2 312 15
 381 01af 8B45CC   		movl	-52(%rbp), %eax
 382 01b2 E9830200 		jmp	.L37
 382      00
 383              	.L25:
GAS LISTING /tmp/ccmvMAN8.s 			page 17


 313:/home/xingli/share/LiteOS_Lab/network/dtls/mbedtls/mbedtls-2.16.2/library/pkparse.c **** 
 314:/home/xingli/share/LiteOS_Lab/network/dtls/mbedtls/mbedtls-2.16.2/library/pkparse.c ****     end_curve = p + len;
 384              		.loc 2 314 19
 385 01b7 488B55D0 		movq	-48(%rbp), %rdx
 386 01bb 488B45D8 		movq	-40(%rbp), %rax
 387              		.loc 2 314 15
 388 01bf 4801D0   		addq	%rdx, %rax
 389 01c2 488945F0 		movq	%rax, -16(%rbp)
 315:/home/xingli/share/LiteOS_Lab/network/dtls/mbedtls/mbedtls-2.16.2/library/pkparse.c **** 
 316:/home/xingli/share/LiteOS_Lab/network/dtls/mbedtls/mbedtls-2.16.2/library/pkparse.c ****     /*
 317:/home/xingli/share/LiteOS_Lab/network/dtls/mbedtls/mbedtls-2.16.2/library/pkparse.c ****      * FieldElement ::= OCTET STRING
 318:/home/xingli/share/LiteOS_Lab/network/dtls/mbedtls/mbedtls-2.16.2/library/pkparse.c ****      * containing an integer in the case of a prime field
 319:/home/xingli/share/LiteOS_Lab/network/dtls/mbedtls/mbedtls-2.16.2/library/pkparse.c ****      */
 320:/home/xingli/share/LiteOS_Lab/network/dtls/mbedtls/mbedtls-2.16.2/library/pkparse.c ****     if( ( ret = mbedtls_asn1_get_tag( &p, end_curve, &len, MBEDTLS_ASN1_OCTET_STRING ) ) != 0 ||
 390              		.loc 2 320 17
 391 01c6 488D55D8 		leaq	-40(%rbp), %rdx
 392 01ca 488B75F0 		movq	-16(%rbp), %rsi
 393 01ce 488D45D0 		leaq	-48(%rbp), %rax
 394 01d2 B9040000 		movl	$4, %ecx
 394      00
 395 01d7 4889C7   		movq	%rax, %rdi
 396 01da E8000000 		call	mbedtls_asn1_get_tag@PLT
 396      00
 397 01df 8945CC   		movl	%eax, -52(%rbp)
 398              		.loc 2 320 7
 399 01e2 837DCC00 		cmpl	$0, -52(%rbp)
 400 01e6 7524     		jne	.L26
 321:/home/xingli/share/LiteOS_Lab/network/dtls/mbedtls/mbedtls-2.16.2/library/pkparse.c ****         ( ret = mbedtls_mpi_read_binary( &grp->A, p, len ) ) != 0 )
 401              		.loc 2 321 17 discriminator 1
 402 01e8 488B55D8 		movq	-40(%rbp), %rdx
 403 01ec 488B45D0 		movq	-48(%rbp), %rax
 404 01f0 488B4DB0 		movq	-80(%rbp), %rcx
 405 01f4 4883C120 		addq	$32, %rcx
 406 01f8 4889C6   		movq	%rax, %rsi
 407 01fb 4889CF   		movq	%rcx, %rdi
 408 01fe E8000000 		call	mbedtls_mpi_read_binary@PLT
 408      00
 409 0203 8945CC   		movl	%eax, -52(%rbp)
 320:/home/xingli/share/LiteOS_Lab/network/dtls/mbedtls/mbedtls-2.16.2/library/pkparse.c ****         ( ret = mbedtls_mpi_read_binary( &grp->A, p, len ) ) != 0 )
 410              		.loc 2 320 95 discriminator 1
 411 0206 837DCC00 		cmpl	$0, -52(%rbp)
 412 020a 740D     		je	.L27
 413              	.L26:
 322:/home/xingli/share/LiteOS_Lab/network/dtls/mbedtls/mbedtls-2.16.2/library/pkparse.c ****     {
 323:/home/xingli/share/LiteOS_Lab/network/dtls/mbedtls/mbedtls-2.16.2/library/pkparse.c ****         return( MBEDTLS_ERR_PK_KEY_INVALID_FORMAT + ret );
 414              		.loc 2 323 51
 415 020c 8B45CC   		movl	-52(%rbp), %eax
 416 020f 2D003D00 		subl	$15616, %eax
 416      00
 417 0214 E9210200 		jmp	.L37
 417      00
 418              	.L27:
 324:/home/xingli/share/LiteOS_Lab/network/dtls/mbedtls/mbedtls-2.16.2/library/pkparse.c ****     }
 325:/home/xingli/share/LiteOS_Lab/network/dtls/mbedtls/mbedtls-2.16.2/library/pkparse.c **** 
 326:/home/xingli/share/LiteOS_Lab/network/dtls/mbedtls/mbedtls-2.16.2/library/pkparse.c ****     p += len;
 419              		.loc 2 326 7
 420 0219 488B55D0 		movq	-48(%rbp), %rdx
GAS LISTING /tmp/ccmvMAN8.s 			page 18


 421 021d 488B45D8 		movq	-40(%rbp), %rax
 422 0221 4801D0   		addq	%rdx, %rax
 423 0224 488945D0 		movq	%rax, -48(%rbp)
 327:/home/xingli/share/LiteOS_Lab/network/dtls/mbedtls/mbedtls-2.16.2/library/pkparse.c **** 
 328:/home/xingli/share/LiteOS_Lab/network/dtls/mbedtls/mbedtls-2.16.2/library/pkparse.c ****     if( ( ret = mbedtls_asn1_get_tag( &p, end_curve, &len, MBEDTLS_ASN1_OCTET_STRING ) ) != 0 ||
 424              		.loc 2 328 17
 425 0228 488D55D8 		leaq	-40(%rbp), %rdx
 426 022c 488B75F0 		movq	-16(%rbp), %rsi
 427 0230 488D45D0 		leaq	-48(%rbp), %rax
 428 0234 B9040000 		movl	$4, %ecx
 428      00
 429 0239 4889C7   		movq	%rax, %rdi
 430 023c E8000000 		call	mbedtls_asn1_get_tag@PLT
 430      00
 431 0241 8945CC   		movl	%eax, -52(%rbp)
 432              		.loc 2 328 7
 433 0244 837DCC00 		cmpl	$0, -52(%rbp)
 434 0248 7524     		jne	.L28
 329:/home/xingli/share/LiteOS_Lab/network/dtls/mbedtls/mbedtls-2.16.2/library/pkparse.c ****         ( ret = mbedtls_mpi_read_binary( &grp->B, p, len ) ) != 0 )
 435              		.loc 2 329 17 discriminator 1
 436 024a 488B55D8 		movq	-40(%rbp), %rdx
 437 024e 488B45D0 		movq	-48(%rbp), %rax
 438 0252 488B4DB0 		movq	-80(%rbp), %rcx
 439 0256 4883C138 		addq	$56, %rcx
 440 025a 4889C6   		movq	%rax, %rsi
 441 025d 4889CF   		movq	%rcx, %rdi
 442 0260 E8000000 		call	mbedtls_mpi_read_binary@PLT
 442      00
 443 0265 8945CC   		movl	%eax, -52(%rbp)
 328:/home/xingli/share/LiteOS_Lab/network/dtls/mbedtls/mbedtls-2.16.2/library/pkparse.c ****         ( ret = mbedtls_mpi_read_binary( &grp->B, p, len ) ) != 0 )
 444              		.loc 2 328 95 discriminator 1
 445 0268 837DCC00 		cmpl	$0, -52(%rbp)
 446 026c 740D     		je	.L29
 447              	.L28:
 330:/home/xingli/share/LiteOS_Lab/network/dtls/mbedtls/mbedtls-2.16.2/library/pkparse.c ****     {
 331:/home/xingli/share/LiteOS_Lab/network/dtls/mbedtls/mbedtls-2.16.2/library/pkparse.c ****         return( MBEDTLS_ERR_PK_KEY_INVALID_FORMAT + ret );
 448              		.loc 2 331 51
 449 026e 8B45CC   		movl	-52(%rbp), %eax
 450 0271 2D003D00 		subl	$15616, %eax
 450      00
 451 0276 E9BF0100 		jmp	.L37
 451      00
 452              	.L29:
 332:/home/xingli/share/LiteOS_Lab/network/dtls/mbedtls/mbedtls-2.16.2/library/pkparse.c ****     }
 333:/home/xingli/share/LiteOS_Lab/network/dtls/mbedtls/mbedtls-2.16.2/library/pkparse.c **** 
 334:/home/xingli/share/LiteOS_Lab/network/dtls/mbedtls/mbedtls-2.16.2/library/pkparse.c ****     p += len;
 453              		.loc 2 334 7
 454 027b 488B55D0 		movq	-48(%rbp), %rdx
 455 027f 488B45D8 		movq	-40(%rbp), %rax
 456 0283 4801D0   		addq	%rdx, %rax
 457 0286 488945D0 		movq	%rax, -48(%rbp)
 335:/home/xingli/share/LiteOS_Lab/network/dtls/mbedtls/mbedtls-2.16.2/library/pkparse.c **** 
 336:/home/xingli/share/LiteOS_Lab/network/dtls/mbedtls/mbedtls-2.16.2/library/pkparse.c ****     /* Ignore seed BIT STRING OPTIONAL */
 337:/home/xingli/share/LiteOS_Lab/network/dtls/mbedtls/mbedtls-2.16.2/library/pkparse.c ****     if( ( ret = mbedtls_asn1_get_tag( &p, end_curve, &len, MBEDTLS_ASN1_BIT_STRING ) ) == 0 )
 458              		.loc 2 337 17
 459 028a 488D55D8 		leaq	-40(%rbp), %rdx
 460 028e 488B75F0 		movq	-16(%rbp), %rsi
GAS LISTING /tmp/ccmvMAN8.s 			page 19


 461 0292 488D45D0 		leaq	-48(%rbp), %rax
 462 0296 B9030000 		movl	$3, %ecx
 462      00
 463 029b 4889C7   		movq	%rax, %rdi
 464 029e E8000000 		call	mbedtls_asn1_get_tag@PLT
 464      00
 465 02a3 8945CC   		movl	%eax, -52(%rbp)
 466              		.loc 2 337 7
 467 02a6 837DCC00 		cmpl	$0, -52(%rbp)
 468 02aa 750F     		jne	.L30
 338:/home/xingli/share/LiteOS_Lab/network/dtls/mbedtls/mbedtls-2.16.2/library/pkparse.c ****         p += len;
 469              		.loc 2 338 11
 470 02ac 488B55D0 		movq	-48(%rbp), %rdx
 471 02b0 488B45D8 		movq	-40(%rbp), %rax
 472 02b4 4801D0   		addq	%rdx, %rax
 473 02b7 488945D0 		movq	%rax, -48(%rbp)
 474              	.L30:
 339:/home/xingli/share/LiteOS_Lab/network/dtls/mbedtls/mbedtls-2.16.2/library/pkparse.c **** 
 340:/home/xingli/share/LiteOS_Lab/network/dtls/mbedtls/mbedtls-2.16.2/library/pkparse.c ****     if( p != end_curve )
 475              		.loc 2 340 11
 476 02bb 488B45D0 		movq	-48(%rbp), %rax
 477              		.loc 2 340 7
 478 02bf 483945F0 		cmpq	%rax, -16(%rbp)
 479 02c3 740A     		je	.L31
 341:/home/xingli/share/LiteOS_Lab/network/dtls/mbedtls/mbedtls-2.16.2/library/pkparse.c ****         return( MBEDTLS_ERR_PK_KEY_INVALID_FORMAT +
 480              		.loc 2 341 15
 481 02c5 B89AC2FF 		movl	$-15718, %eax
 481      FF
 482 02ca E96B0100 		jmp	.L37
 482      00
 483              	.L31:
 342:/home/xingli/share/LiteOS_Lab/network/dtls/mbedtls/mbedtls-2.16.2/library/pkparse.c ****                 MBEDTLS_ERR_ASN1_LENGTH_MISMATCH );
 343:/home/xingli/share/LiteOS_Lab/network/dtls/mbedtls/mbedtls-2.16.2/library/pkparse.c **** 
 344:/home/xingli/share/LiteOS_Lab/network/dtls/mbedtls/mbedtls-2.16.2/library/pkparse.c ****     /*
 345:/home/xingli/share/LiteOS_Lab/network/dtls/mbedtls/mbedtls-2.16.2/library/pkparse.c ****      * ECPoint ::= OCTET STRING
 346:/home/xingli/share/LiteOS_Lab/network/dtls/mbedtls/mbedtls-2.16.2/library/pkparse.c ****      */
 347:/home/xingli/share/LiteOS_Lab/network/dtls/mbedtls/mbedtls-2.16.2/library/pkparse.c ****     if( ( ret = mbedtls_asn1_get_tag( &p, end, &len, MBEDTLS_ASN1_OCTET_STRING ) ) != 0 )
 484              		.loc 2 347 17
 485 02cf 488D55D8 		leaq	-40(%rbp), %rdx
 486 02d3 488B75E0 		movq	-32(%rbp), %rsi
 487 02d7 488D45D0 		leaq	-48(%rbp), %rax
 488 02db B9040000 		movl	$4, %ecx
 488      00
 489 02e0 4889C7   		movq	%rax, %rdi
 490 02e3 E8000000 		call	mbedtls_asn1_get_tag@PLT
 490      00
 491 02e8 8945CC   		movl	%eax, -52(%rbp)
 492              		.loc 2 347 7
 493 02eb 837DCC00 		cmpl	$0, -52(%rbp)
 494 02ef 740D     		je	.L32
 348:/home/xingli/share/LiteOS_Lab/network/dtls/mbedtls/mbedtls-2.16.2/library/pkparse.c ****         return( MBEDTLS_ERR_PK_KEY_INVALID_FORMAT + ret );
 495              		.loc 2 348 51
 496 02f1 8B45CC   		movl	-52(%rbp), %eax
 497 02f4 2D003D00 		subl	$15616, %eax
 497      00
 498 02f9 E93C0100 		jmp	.L37
 498      00
GAS LISTING /tmp/ccmvMAN8.s 			page 20


 499              	.L32:
 349:/home/xingli/share/LiteOS_Lab/network/dtls/mbedtls/mbedtls-2.16.2/library/pkparse.c **** 
 350:/home/xingli/share/LiteOS_Lab/network/dtls/mbedtls/mbedtls-2.16.2/library/pkparse.c ****     if( ( ret = mbedtls_ecp_point_read_binary( grp, &grp->G,
 500              		.loc 2 350 17
 501 02fe 488B4DD8 		movq	-40(%rbp), %rcx
 502 0302 488B55D0 		movq	-48(%rbp), %rdx
 503 0306 488B45B0 		movq	-80(%rbp), %rax
 504 030a 488D7050 		leaq	80(%rax), %rsi
 505 030e 488B45B0 		movq	-80(%rbp), %rax
 506 0312 4889C7   		movq	%rax, %rdi
 507 0315 E8000000 		call	mbedtls_ecp_point_read_binary@PLT
 507      00
 508 031a 8945CC   		movl	%eax, -52(%rbp)
 509              		.loc 2 350 7
 510 031d 837DCC00 		cmpl	$0, -52(%rbp)
 511 0321 0F84B100 		je	.L33
 511      0000
 351:/home/xingli/share/LiteOS_Lab/network/dtls/mbedtls/mbedtls-2.16.2/library/pkparse.c ****                                       ( const unsigned char *) p, len ) ) != 0 )
 352:/home/xingli/share/LiteOS_Lab/network/dtls/mbedtls/mbedtls-2.16.2/library/pkparse.c ****     {
 353:/home/xingli/share/LiteOS_Lab/network/dtls/mbedtls/mbedtls-2.16.2/library/pkparse.c ****         /*
 354:/home/xingli/share/LiteOS_Lab/network/dtls/mbedtls/mbedtls-2.16.2/library/pkparse.c ****          * If we can't read the point because it's compressed, cheat by
 355:/home/xingli/share/LiteOS_Lab/network/dtls/mbedtls/mbedtls-2.16.2/library/pkparse.c ****          * reading only the X coordinate and the parity bit of Y.
 356:/home/xingli/share/LiteOS_Lab/network/dtls/mbedtls/mbedtls-2.16.2/library/pkparse.c ****          */
 357:/home/xingli/share/LiteOS_Lab/network/dtls/mbedtls/mbedtls-2.16.2/library/pkparse.c ****         if( ret != MBEDTLS_ERR_ECP_FEATURE_UNAVAILABLE ||
 512              		.loc 2 357 11
 513 0327 817DCC80 		cmpl	$-20096, -52(%rbp)
 513      B1FFFF
 514 032e 0F859D00 		jne	.L34
 514      0000
 358:/home/xingli/share/LiteOS_Lab/network/dtls/mbedtls/mbedtls-2.16.2/library/pkparse.c ****             ( p[0] != 0x02 && p[0] != 0x03 ) ||
 515              		.loc 2 358 16 discriminator 1
 516 0334 488B45D0 		movq	-48(%rbp), %rax
 517 0338 0FB600   		movzbl	(%rax), %eax
 357:/home/xingli/share/LiteOS_Lab/network/dtls/mbedtls/mbedtls-2.16.2/library/pkparse.c ****             ( p[0] != 0x02 && p[0] != 0x03 ) ||
 518              		.loc 2 357 56 discriminator 1
 519 033b 3C02     		cmpb	$2, %al
 520 033d 740F     		je	.L35
 521              		.loc 2 358 32
 522 033f 488B45D0 		movq	-48(%rbp), %rax
 523 0343 0FB600   		movzbl	(%rax), %eax
 524              		.loc 2 358 28
 525 0346 3C03     		cmpb	$3, %al
 526 0348 0F858300 		jne	.L34
 526      0000
 527              	.L35:
 359:/home/xingli/share/LiteOS_Lab/network/dtls/mbedtls/mbedtls-2.16.2/library/pkparse.c ****             len != mbedtls_mpi_size( &grp->P ) + 1 ||
 528              		.loc 2 359 38 discriminator 1
 529 034e 488B45B0 		movq	-80(%rbp), %rax
 530 0352 4883C008 		addq	$8, %rax
 531              		.loc 2 359 20 discriminator 1
 532 0356 4889C7   		movq	%rax, %rdi
 533 0359 E8000000 		call	mbedtls_mpi_size@PLT
 533      00
 534              		.loc 2 359 48 discriminator 1
 535 035e 488D5001 		leaq	1(%rax), %rdx
 536              		.loc 2 359 17 discriminator 1
 537 0362 488B45D8 		movq	-40(%rbp), %rax
GAS LISTING /tmp/ccmvMAN8.s 			page 21


 358:/home/xingli/share/LiteOS_Lab/network/dtls/mbedtls/mbedtls-2.16.2/library/pkparse.c ****             ( p[0] != 0x02 && p[0] != 0x03 ) ||
 538              		.loc 2 358 46 discriminator 1
 539 0366 4839C2   		cmpq	%rax, %rdx
 540 0369 7566     		jne	.L34
 360:/home/xingli/share/LiteOS_Lab/network/dtls/mbedtls/mbedtls-2.16.2/library/pkparse.c ****             mbedtls_mpi_read_binary( &grp->G.X, p + 1, len - 1 ) != 0 ||
 541              		.loc 2 360 13
 542 036b 488B45D8 		movq	-40(%rbp), %rax
 543 036f 488D50FF 		leaq	-1(%rax), %rdx
 544 0373 488B45D0 		movq	-48(%rbp), %rax
 545              		.loc 2 360 51
 546 0377 488D4801 		leaq	1(%rax), %rcx
 547              		.loc 2 360 13
 548 037b 488B45B0 		movq	-80(%rbp), %rax
 549 037f 4883C050 		addq	$80, %rax
 550 0383 4889CE   		movq	%rcx, %rsi
 551 0386 4889C7   		movq	%rax, %rdi
 552 0389 E8000000 		call	mbedtls_mpi_read_binary@PLT
 552      00
 359:/home/xingli/share/LiteOS_Lab/network/dtls/mbedtls/mbedtls-2.16.2/library/pkparse.c ****             len != mbedtls_mpi_size( &grp->P ) + 1 ||
 553              		.loc 2 359 52
 554 038e 85C0     		testl	%eax, %eax
 555 0390 753F     		jne	.L34
 361:/home/xingli/share/LiteOS_Lab/network/dtls/mbedtls/mbedtls-2.16.2/library/pkparse.c ****             mbedtls_mpi_lset( &grp->G.Y, p[0] - 2 ) != 0 ||
 556              		.loc 2 361 43
 557 0392 488B45D0 		movq	-48(%rbp), %rax
 558 0396 0FB600   		movzbl	(%rax), %eax
 559 0399 0FB6C0   		movzbl	%al, %eax
 560              		.loc 2 361 47
 561 039c 83E802   		subl	$2, %eax
 562              		.loc 2 361 13
 563 039f 4898     		cltq
 564 03a1 488B55B0 		movq	-80(%rbp), %rdx
 565 03a5 4883C268 		addq	$104, %rdx
 566 03a9 4889C6   		movq	%rax, %rsi
 567 03ac 4889D7   		movq	%rdx, %rdi
 568 03af E8000000 		call	mbedtls_mpi_lset@PLT
 568      00
 360:/home/xingli/share/LiteOS_Lab/network/dtls/mbedtls/mbedtls-2.16.2/library/pkparse.c ****             mbedtls_mpi_read_binary( &grp->G.X, p + 1, len - 1 ) != 0 ||
 569              		.loc 2 360 71
 570 03b4 85C0     		testl	%eax, %eax
 571 03b6 7519     		jne	.L34
 362:/home/xingli/share/LiteOS_Lab/network/dtls/mbedtls/mbedtls-2.16.2/library/pkparse.c ****             mbedtls_mpi_lset( &grp->G.Z, 1 ) != 0 )
 572              		.loc 2 362 13
 573 03b8 488B45B0 		movq	-80(%rbp), %rax
 574 03bc 4883E880 		subq	$-128, %rax
 575 03c0 BE010000 		movl	$1, %esi
 575      00
 576 03c5 4889C7   		movq	%rax, %rdi
 577 03c8 E8000000 		call	mbedtls_mpi_lset@PLT
 577      00
 361:/home/xingli/share/LiteOS_Lab/network/dtls/mbedtls/mbedtls-2.16.2/library/pkparse.c ****             mbedtls_mpi_lset( &grp->G.Y, p[0] - 2 ) != 0 ||
 578              		.loc 2 361 58
 579 03cd 85C0     		testl	%eax, %eax
 580 03cf 7407     		je	.L33
 581              	.L34:
 363:/home/xingli/share/LiteOS_Lab/network/dtls/mbedtls/mbedtls-2.16.2/library/pkparse.c ****         {
 364:/home/xingli/share/LiteOS_Lab/network/dtls/mbedtls/mbedtls-2.16.2/library/pkparse.c ****             return( MBEDTLS_ERR_PK_KEY_INVALID_FORMAT );
GAS LISTING /tmp/ccmvMAN8.s 			page 22


 582              		.loc 2 364 19
 583 03d1 B800C3FF 		movl	$-15616, %eax
 583      FF
 584 03d6 EB62     		jmp	.L37
 585              	.L33:
 365:/home/xingli/share/LiteOS_Lab/network/dtls/mbedtls/mbedtls-2.16.2/library/pkparse.c ****         }
 366:/home/xingli/share/LiteOS_Lab/network/dtls/mbedtls/mbedtls-2.16.2/library/pkparse.c ****     }
 367:/home/xingli/share/LiteOS_Lab/network/dtls/mbedtls/mbedtls-2.16.2/library/pkparse.c **** 
 368:/home/xingli/share/LiteOS_Lab/network/dtls/mbedtls/mbedtls-2.16.2/library/pkparse.c ****     p += len;
 586              		.loc 2 368 7
 587 03d8 488B55D0 		movq	-48(%rbp), %rdx
 588 03dc 488B45D8 		movq	-40(%rbp), %rax
 589 03e0 4801D0   		addq	%rdx, %rax
 590 03e3 488945D0 		movq	%rax, -48(%rbp)
 369:/home/xingli/share/LiteOS_Lab/network/dtls/mbedtls/mbedtls-2.16.2/library/pkparse.c **** 
 370:/home/xingli/share/LiteOS_Lab/network/dtls/mbedtls/mbedtls-2.16.2/library/pkparse.c ****     /*
 371:/home/xingli/share/LiteOS_Lab/network/dtls/mbedtls/mbedtls-2.16.2/library/pkparse.c ****      * order INTEGER
 372:/home/xingli/share/LiteOS_Lab/network/dtls/mbedtls/mbedtls-2.16.2/library/pkparse.c ****      */
 373:/home/xingli/share/LiteOS_Lab/network/dtls/mbedtls/mbedtls-2.16.2/library/pkparse.c ****     if( ( ret = mbedtls_asn1_get_mpi( &p, end, &grp->N ) ) != 0 )
 591              		.loc 2 373 17
 592 03e7 488B45B0 		movq	-80(%rbp), %rax
 593 03eb 488D9098 		leaq	152(%rax), %rdx
 593      000000
 594 03f2 488B4DE0 		movq	-32(%rbp), %rcx
 595 03f6 488D45D0 		leaq	-48(%rbp), %rax
 596 03fa 4889CE   		movq	%rcx, %rsi
 597 03fd 4889C7   		movq	%rax, %rdi
 598 0400 E8000000 		call	mbedtls_asn1_get_mpi@PLT
 598      00
 599 0405 8945CC   		movl	%eax, -52(%rbp)
 600              		.loc 2 373 7
 601 0408 837DCC00 		cmpl	$0, -52(%rbp)
 602 040c 740A     		je	.L36
 374:/home/xingli/share/LiteOS_Lab/network/dtls/mbedtls/mbedtls-2.16.2/library/pkparse.c ****         return( MBEDTLS_ERR_PK_KEY_INVALID_FORMAT + ret );
 603              		.loc 2 374 51
 604 040e 8B45CC   		movl	-52(%rbp), %eax
 605 0411 2D003D00 		subl	$15616, %eax
 605      00
 606 0416 EB22     		jmp	.L37
 607              	.L36:
 375:/home/xingli/share/LiteOS_Lab/network/dtls/mbedtls/mbedtls-2.16.2/library/pkparse.c **** 
 376:/home/xingli/share/LiteOS_Lab/network/dtls/mbedtls/mbedtls-2.16.2/library/pkparse.c ****     grp->nbits = mbedtls_mpi_bitlen( &grp->N );
 608              		.loc 2 376 38
 609 0418 488B45B0 		movq	-80(%rbp), %rax
 610 041c 48059800 		addq	$152, %rax
 610      0000
 611              		.loc 2 376 18
 612 0422 4889C7   		movq	%rax, %rdi
 613 0425 E8000000 		call	mbedtls_mpi_bitlen@PLT
 613      00
 614              		.loc 2 376 16
 615 042a 488B55B0 		movq	-80(%rbp), %rdx
 616 042e 488982B8 		movq	%rax, 184(%rdx)
 616      000000
 377:/home/xingli/share/LiteOS_Lab/network/dtls/mbedtls/mbedtls-2.16.2/library/pkparse.c **** 
 378:/home/xingli/share/LiteOS_Lab/network/dtls/mbedtls/mbedtls-2.16.2/library/pkparse.c ****     /*
 379:/home/xingli/share/LiteOS_Lab/network/dtls/mbedtls/mbedtls-2.16.2/library/pkparse.c ****      * Allow optional elements by purposefully not enforcing p == end here.
GAS LISTING /tmp/ccmvMAN8.s 			page 23


 380:/home/xingli/share/LiteOS_Lab/network/dtls/mbedtls/mbedtls-2.16.2/library/pkparse.c ****      */
 381:/home/xingli/share/LiteOS_Lab/network/dtls/mbedtls/mbedtls-2.16.2/library/pkparse.c **** 
 382:/home/xingli/share/LiteOS_Lab/network/dtls/mbedtls/mbedtls-2.16.2/library/pkparse.c ****     return( 0 );
 617              		.loc 2 382 11
 618 0435 B8000000 		movl	$0, %eax
 618      00
 619              	.L37:
 383:/home/xingli/share/LiteOS_Lab/network/dtls/mbedtls/mbedtls-2.16.2/library/pkparse.c **** }
 620              		.loc 2 383 1 discriminator 1
 621 043a 488B7DF8 		movq	-8(%rbp), %rdi
 622 043e 6448333C 		xorq	%fs:40, %rdi
 622      25280000 
 622      00
 623 0447 7405     		je	.L38
 624              		.loc 2 383 1 is_stmt 0
 625 0449 E8000000 		call	__stack_chk_fail@PLT
 625      00
 626              	.L38:
 627 044e C9       		leave
 628              	.LCFI11:
 629              		.cfi_def_cfa 7, 8
 630 044f C3       		ret
 631              		.cfi_endproc
 632              	.LFE17:
 634              		.section	.text.pk_group_id_from_group,"ax",@progbits
 636              	pk_group_id_from_group:
 637              	.LFB18:
 384:/home/xingli/share/LiteOS_Lab/network/dtls/mbedtls/mbedtls-2.16.2/library/pkparse.c **** 
 385:/home/xingli/share/LiteOS_Lab/network/dtls/mbedtls/mbedtls-2.16.2/library/pkparse.c **** /*
 386:/home/xingli/share/LiteOS_Lab/network/dtls/mbedtls/mbedtls-2.16.2/library/pkparse.c ****  * Find the group id associated with an (almost filled) group as generated by
 387:/home/xingli/share/LiteOS_Lab/network/dtls/mbedtls/mbedtls-2.16.2/library/pkparse.c ****  * pk_group_from_specified(), or return an error if unknown.
 388:/home/xingli/share/LiteOS_Lab/network/dtls/mbedtls/mbedtls-2.16.2/library/pkparse.c ****  */
 389:/home/xingli/share/LiteOS_Lab/network/dtls/mbedtls/mbedtls-2.16.2/library/pkparse.c **** static int pk_group_id_from_group( const mbedtls_ecp_group *grp, mbedtls_ecp_group_id *grp_id )
 390:/home/xingli/share/LiteOS_Lab/network/dtls/mbedtls/mbedtls-2.16.2/library/pkparse.c **** {
 638              		.loc 2 390 1 is_stmt 1
 639              		.cfi_startproc
 640 0000 F30F1EFA 		endbr64
 641 0004 55       		pushq	%rbp
 642              	.LCFI12:
 643              		.cfi_def_cfa_offset 16
 644              		.cfi_offset 6, -16
 645 0005 4889E5   		movq	%rsp, %rbp
 646              	.LCFI13:
 647              		.cfi_def_cfa_register 6
 648 0008 53       		pushq	%rbx
 649 0009 4881EC28 		subq	$296, %rsp
 649      010000
 650              		.cfi_offset 3, -24
 651 0010 4889BDD8 		movq	%rdi, -296(%rbp)
 651      FEFFFF
 652 0017 4889B5D0 		movq	%rsi, -304(%rbp)
 652      FEFFFF
 653              		.loc 2 390 1
 654 001e 64488B04 		movq	%fs:40, %rax
 654      25280000 
 654      00
 655 0027 488945E8 		movq	%rax, -24(%rbp)
GAS LISTING /tmp/ccmvMAN8.s 			page 24


 656 002b 31C0     		xorl	%eax, %eax
 391:/home/xingli/share/LiteOS_Lab/network/dtls/mbedtls/mbedtls-2.16.2/library/pkparse.c ****     int ret = 0;
 657              		.loc 2 391 9
 658 002d C785E4FE 		movl	$0, -284(%rbp)
 658      FFFF0000 
 658      0000
 392:/home/xingli/share/LiteOS_Lab/network/dtls/mbedtls/mbedtls-2.16.2/library/pkparse.c ****     mbedtls_ecp_group ref;
 393:/home/xingli/share/LiteOS_Lab/network/dtls/mbedtls/mbedtls-2.16.2/library/pkparse.c ****     const mbedtls_ecp_group_id *id;
 394:/home/xingli/share/LiteOS_Lab/network/dtls/mbedtls/mbedtls-2.16.2/library/pkparse.c **** 
 395:/home/xingli/share/LiteOS_Lab/network/dtls/mbedtls/mbedtls-2.16.2/library/pkparse.c ****     mbedtls_ecp_group_init( &ref );
 659              		.loc 2 395 5
 660 0037 488D85F0 		leaq	-272(%rbp), %rax
 660      FEFFFF
 661 003e 4889C7   		movq	%rax, %rdi
 662 0041 E8000000 		call	mbedtls_ecp_group_init@PLT
 662      00
 396:/home/xingli/share/LiteOS_Lab/network/dtls/mbedtls/mbedtls-2.16.2/library/pkparse.c **** 
 397:/home/xingli/share/LiteOS_Lab/network/dtls/mbedtls/mbedtls-2.16.2/library/pkparse.c ****     for( id = mbedtls_ecp_grp_id_list(); *id != MBEDTLS_ECP_DP_NONE; id++ )
 663              		.loc 2 397 15
 664 0046 E8000000 		call	mbedtls_ecp_grp_id_list@PLT
 664      00
 665 004b 488985E8 		movq	%rax, -280(%rbp)
 665      FEFFFF
 666              		.loc 2 397 5
 667 0052 E9A30100 		jmp	.L40
 667      00
 668              	.L44:
 398:/home/xingli/share/LiteOS_Lab/network/dtls/mbedtls/mbedtls-2.16.2/library/pkparse.c ****     {
 399:/home/xingli/share/LiteOS_Lab/network/dtls/mbedtls/mbedtls-2.16.2/library/pkparse.c ****         /* Load the group associated to that id */
 400:/home/xingli/share/LiteOS_Lab/network/dtls/mbedtls/mbedtls-2.16.2/library/pkparse.c ****         mbedtls_ecp_group_free( &ref );
 669              		.loc 2 400 9
 670 0057 488D85F0 		leaq	-272(%rbp), %rax
 670      FEFFFF
 671 005e 4889C7   		movq	%rax, %rdi
 672 0061 E8000000 		call	mbedtls_ecp_group_free@PLT
 672      00
 401:/home/xingli/share/LiteOS_Lab/network/dtls/mbedtls/mbedtls-2.16.2/library/pkparse.c ****         MBEDTLS_MPI_CHK( mbedtls_ecp_group_load( &ref, *id ) );
 673              		.loc 2 401 9
 674 0066 488B85E8 		movq	-280(%rbp), %rax
 674      FEFFFF
 675 006d 8B10     		movl	(%rax), %edx
 676 006f 488D85F0 		leaq	-272(%rbp), %rax
 676      FEFFFF
 677 0076 89D6     		movl	%edx, %esi
 678 0078 4889C7   		movq	%rax, %rdi
 679 007b E8000000 		call	mbedtls_ecp_group_load@PLT
 679      00
 680 0080 8985E4FE 		movl	%eax, -284(%rbp)
 680      FFFF
 681 0086 83BDE4FE 		cmpl	$0, -284(%rbp)
 681      FFFF00
 682 008d 0F857A01 		jne	.L48
 682      0000
 402:/home/xingli/share/LiteOS_Lab/network/dtls/mbedtls/mbedtls-2.16.2/library/pkparse.c **** 
 403:/home/xingli/share/LiteOS_Lab/network/dtls/mbedtls/mbedtls-2.16.2/library/pkparse.c ****         /* Compare to the group we were given, starting with easy tests */
 404:/home/xingli/share/LiteOS_Lab/network/dtls/mbedtls/mbedtls-2.16.2/library/pkparse.c ****         if( grp->pbits == ref.pbits && grp->nbits == ref.nbits &&
 683              		.loc 2 404 16
GAS LISTING /tmp/ccmvMAN8.s 			page 25


 684 0093 488B85D8 		movq	-296(%rbp), %rax
 684      FEFFFF
 685 009a 488B90B0 		movq	176(%rax), %rdx
 685      000000
 686              		.loc 2 404 30
 687 00a1 488B45A0 		movq	-96(%rbp), %rax
 688              		.loc 2 404 11
 689 00a5 4839C2   		cmpq	%rax, %rdx
 690 00a8 0F854401 		jne	.L43
 690      0000
 691              		.loc 2 404 43 discriminator 1
 692 00ae 488B85D8 		movq	-296(%rbp), %rax
 692      FEFFFF
 693 00b5 488B90B8 		movq	184(%rax), %rdx
 693      000000
 694              		.loc 2 404 57 discriminator 1
 695 00bc 488B45A8 		movq	-88(%rbp), %rax
 696              		.loc 2 404 37 discriminator 1
 697 00c0 4839C2   		cmpq	%rax, %rdx
 698 00c3 0F852901 		jne	.L43
 698      0000
 405:/home/xingli/share/LiteOS_Lab/network/dtls/mbedtls/mbedtls-2.16.2/library/pkparse.c ****             mbedtls_mpi_cmp_mpi( &grp->P, &ref.P ) == 0 &&
 699              		.loc 2 405 13 discriminator 2
 700 00c9 488B85D8 		movq	-296(%rbp), %rax
 700      FEFFFF
 701 00d0 4883C008 		addq	$8, %rax
 702 00d4 488D95F0 		leaq	-272(%rbp), %rdx
 702      FEFFFF
 703 00db 4883C208 		addq	$8, %rdx
 704 00df 4889D6   		movq	%rdx, %rsi
 705 00e2 4889C7   		movq	%rax, %rdi
 706 00e5 E8000000 		call	mbedtls_mpi_cmp_mpi@PLT
 706      00
 404:/home/xingli/share/LiteOS_Lab/network/dtls/mbedtls/mbedtls-2.16.2/library/pkparse.c ****             mbedtls_mpi_cmp_mpi( &grp->P, &ref.P ) == 0 &&
 707              		.loc 2 404 64 discriminator 2
 708 00ea 85C0     		testl	%eax, %eax
 709 00ec 0F850001 		jne	.L43
 709      0000
 406:/home/xingli/share/LiteOS_Lab/network/dtls/mbedtls/mbedtls-2.16.2/library/pkparse.c ****             mbedtls_mpi_cmp_mpi( &grp->A, &ref.A ) == 0 &&
 710              		.loc 2 406 13
 711 00f2 488B85D8 		movq	-296(%rbp), %rax
 711      FEFFFF
 712 00f9 4883C020 		addq	$32, %rax
 713 00fd 488D95F0 		leaq	-272(%rbp), %rdx
 713      FEFFFF
 714 0104 4883C220 		addq	$32, %rdx
 715 0108 4889D6   		movq	%rdx, %rsi
 716 010b 4889C7   		movq	%rax, %rdi
 717 010e E8000000 		call	mbedtls_mpi_cmp_mpi@PLT
 717      00
 405:/home/xingli/share/LiteOS_Lab/network/dtls/mbedtls/mbedtls-2.16.2/library/pkparse.c ****             mbedtls_mpi_cmp_mpi( &grp->P, &ref.P ) == 0 &&
 718              		.loc 2 405 57
 719 0113 85C0     		testl	%eax, %eax
 720 0115 0F85D700 		jne	.L43
 720      0000
 407:/home/xingli/share/LiteOS_Lab/network/dtls/mbedtls/mbedtls-2.16.2/library/pkparse.c ****             mbedtls_mpi_cmp_mpi( &grp->B, &ref.B ) == 0 &&
 721              		.loc 2 407 13
GAS LISTING /tmp/ccmvMAN8.s 			page 26


 722 011b 488B85D8 		movq	-296(%rbp), %rax
 722      FEFFFF
 723 0122 4883C038 		addq	$56, %rax
 724 0126 488D95F0 		leaq	-272(%rbp), %rdx
 724      FEFFFF
 725 012d 4883C238 		addq	$56, %rdx
 726 0131 4889D6   		movq	%rdx, %rsi
 727 0134 4889C7   		movq	%rax, %rdi
 728 0137 E8000000 		call	mbedtls_mpi_cmp_mpi@PLT
 728      00
 406:/home/xingli/share/LiteOS_Lab/network/dtls/mbedtls/mbedtls-2.16.2/library/pkparse.c ****             mbedtls_mpi_cmp_mpi( &grp->A, &ref.A ) == 0 &&
 729              		.loc 2 406 57
 730 013c 85C0     		testl	%eax, %eax
 731 013e 0F85AE00 		jne	.L43
 731      0000
 408:/home/xingli/share/LiteOS_Lab/network/dtls/mbedtls/mbedtls-2.16.2/library/pkparse.c ****             mbedtls_mpi_cmp_mpi( &grp->N, &ref.N ) == 0 &&
 732              		.loc 2 408 13
 733 0144 488B85D8 		movq	-296(%rbp), %rax
 733      FEFFFF
 734 014b 48059800 		addq	$152, %rax
 734      0000
 735 0151 488D95F0 		leaq	-272(%rbp), %rdx
 735      FEFFFF
 736 0158 4881C298 		addq	$152, %rdx
 736      000000
 737 015f 4889D6   		movq	%rdx, %rsi
 738 0162 4889C7   		movq	%rax, %rdi
 739 0165 E8000000 		call	mbedtls_mpi_cmp_mpi@PLT
 739      00
 407:/home/xingli/share/LiteOS_Lab/network/dtls/mbedtls/mbedtls-2.16.2/library/pkparse.c ****             mbedtls_mpi_cmp_mpi( &grp->B, &ref.B ) == 0 &&
 740              		.loc 2 407 57
 741 016a 85C0     		testl	%eax, %eax
 742 016c 0F858000 		jne	.L43
 742      0000
 409:/home/xingli/share/LiteOS_Lab/network/dtls/mbedtls/mbedtls-2.16.2/library/pkparse.c ****             mbedtls_mpi_cmp_mpi( &grp->G.X, &ref.G.X ) == 0 &&
 743              		.loc 2 409 13
 744 0172 488B85D8 		movq	-296(%rbp), %rax
 744      FEFFFF
 745 0179 4883C050 		addq	$80, %rax
 746 017d 488D95F0 		leaq	-272(%rbp), %rdx
 746      FEFFFF
 747 0184 4883C250 		addq	$80, %rdx
 748 0188 4889D6   		movq	%rdx, %rsi
 749 018b 4889C7   		movq	%rax, %rdi
 750 018e E8000000 		call	mbedtls_mpi_cmp_mpi@PLT
 750      00
 408:/home/xingli/share/LiteOS_Lab/network/dtls/mbedtls/mbedtls-2.16.2/library/pkparse.c ****             mbedtls_mpi_cmp_mpi( &grp->N, &ref.N ) == 0 &&
 751              		.loc 2 408 57
 752 0193 85C0     		testl	%eax, %eax
 753 0195 755B     		jne	.L43
 410:/home/xingli/share/LiteOS_Lab/network/dtls/mbedtls/mbedtls-2.16.2/library/pkparse.c ****             mbedtls_mpi_cmp_mpi( &grp->G.Z, &ref.G.Z ) == 0 &&
 754              		.loc 2 410 13
 755 0197 488B85D8 		movq	-296(%rbp), %rax
 755      FEFFFF
 756 019e 4883E880 		subq	$-128, %rax
 757 01a2 488D95F0 		leaq	-272(%rbp), %rdx
 757      FEFFFF
GAS LISTING /tmp/ccmvMAN8.s 			page 27


 758 01a9 4883EA80 		subq	$-128, %rdx
 759 01ad 4889D6   		movq	%rdx, %rsi
 760 01b0 4889C7   		movq	%rax, %rdi
 761 01b3 E8000000 		call	mbedtls_mpi_cmp_mpi@PLT
 761      00
 409:/home/xingli/share/LiteOS_Lab/network/dtls/mbedtls/mbedtls-2.16.2/library/pkparse.c ****             mbedtls_mpi_cmp_mpi( &grp->G.X, &ref.G.X ) == 0 &&
 762              		.loc 2 409 61
 763 01b8 85C0     		testl	%eax, %eax
 764 01ba 7536     		jne	.L43
 411:/home/xingli/share/LiteOS_Lab/network/dtls/mbedtls/mbedtls-2.16.2/library/pkparse.c ****             /* For Y we may only know the parity bit, so compare only that */
 412:/home/xingli/share/LiteOS_Lab/network/dtls/mbedtls/mbedtls-2.16.2/library/pkparse.c ****             mbedtls_mpi_get_bit( &grp->G.Y, 0 ) == mbedtls_mpi_get_bit( &ref.G.Y, 0 ) )
 765              		.loc 2 412 13
 766 01bc 488B85D8 		movq	-296(%rbp), %rax
 766      FEFFFF
 767 01c3 4883C068 		addq	$104, %rax
 768 01c7 BE000000 		movl	$0, %esi
 768      00
 769 01cc 4889C7   		movq	%rax, %rdi
 770 01cf E8000000 		call	mbedtls_mpi_get_bit@PLT
 770      00
 771 01d4 89C3     		movl	%eax, %ebx
 772              		.loc 2 412 52
 773 01d6 488D85F0 		leaq	-272(%rbp), %rax
 773      FEFFFF
 774 01dd 4883C068 		addq	$104, %rax
 775 01e1 BE000000 		movl	$0, %esi
 775      00
 776 01e6 4889C7   		movq	%rax, %rdi
 777 01e9 E8000000 		call	mbedtls_mpi_get_bit@PLT
 777      00
 410:/home/xingli/share/LiteOS_Lab/network/dtls/mbedtls/mbedtls-2.16.2/library/pkparse.c ****             mbedtls_mpi_cmp_mpi( &grp->G.Z, &ref.G.Z ) == 0 &&
 778              		.loc 2 410 61
 779 01ee 39C3     		cmpl	%eax, %ebx
 780 01f0 741E     		je	.L49
 781              	.L43:
 397:/home/xingli/share/LiteOS_Lab/network/dtls/mbedtls/mbedtls-2.16.2/library/pkparse.c ****     {
 782              		.loc 2 397 72 discriminator 2
 783 01f2 488385E8 		addq	$4, -280(%rbp)
 783      FEFFFF04 
 784              	.L40:
 397:/home/xingli/share/LiteOS_Lab/network/dtls/mbedtls/mbedtls-2.16.2/library/pkparse.c ****     {
 785              		.loc 2 397 42 discriminator 1
 786 01fa 488B85E8 		movq	-280(%rbp), %rax
 786      FEFFFF
 787 0201 8B00     		movl	(%rax), %eax
 397:/home/xingli/share/LiteOS_Lab/network/dtls/mbedtls/mbedtls-2.16.2/library/pkparse.c ****     {
 788              		.loc 2 397 5 discriminator 1
 789 0203 85C0     		testl	%eax, %eax
 790 0205 0F854CFE 		jne	.L44
 790      FFFF
 413:/home/xingli/share/LiteOS_Lab/network/dtls/mbedtls/mbedtls-2.16.2/library/pkparse.c ****         {
 414:/home/xingli/share/LiteOS_Lab/network/dtls/mbedtls/mbedtls-2.16.2/library/pkparse.c ****             break;
 415:/home/xingli/share/LiteOS_Lab/network/dtls/mbedtls/mbedtls-2.16.2/library/pkparse.c ****         }
 416:/home/xingli/share/LiteOS_Lab/network/dtls/mbedtls/mbedtls-2.16.2/library/pkparse.c **** 
 417:/home/xingli/share/LiteOS_Lab/network/dtls/mbedtls/mbedtls-2.16.2/library/pkparse.c ****     }
 418:/home/xingli/share/LiteOS_Lab/network/dtls/mbedtls/mbedtls-2.16.2/library/pkparse.c **** 
 419:/home/xingli/share/LiteOS_Lab/network/dtls/mbedtls/mbedtls-2.16.2/library/pkparse.c **** cleanup:
GAS LISTING /tmp/ccmvMAN8.s 			page 28


 791              		.loc 2 419 1
 792 020b EB04     		jmp	.L42
 793              	.L48:
 401:/home/xingli/share/LiteOS_Lab/network/dtls/mbedtls/mbedtls-2.16.2/library/pkparse.c **** 
 794              		.loc 2 401 9
 795 020d 90       		nop
 796 020e EB01     		jmp	.L42
 797              	.L49:
 414:/home/xingli/share/LiteOS_Lab/network/dtls/mbedtls/mbedtls-2.16.2/library/pkparse.c ****         }
 798              		.loc 2 414 13
 799 0210 90       		nop
 800              	.L42:
 420:/home/xingli/share/LiteOS_Lab/network/dtls/mbedtls/mbedtls-2.16.2/library/pkparse.c ****     mbedtls_ecp_group_free( &ref );
 801              		.loc 2 420 5
 802 0211 488D85F0 		leaq	-272(%rbp), %rax
 802      FEFFFF
 803 0218 4889C7   		movq	%rax, %rdi
 804 021b E8000000 		call	mbedtls_ecp_group_free@PLT
 804      00
 421:/home/xingli/share/LiteOS_Lab/network/dtls/mbedtls/mbedtls-2.16.2/library/pkparse.c **** 
 422:/home/xingli/share/LiteOS_Lab/network/dtls/mbedtls/mbedtls-2.16.2/library/pkparse.c ****     *grp_id = *id;
 805              		.loc 2 422 15
 806 0220 488B85E8 		movq	-280(%rbp), %rax
 806      FEFFFF
 807 0227 8B10     		movl	(%rax), %edx
 808              		.loc 2 422 13
 809 0229 488B85D0 		movq	-304(%rbp), %rax
 809      FEFFFF
 810 0230 8910     		movl	%edx, (%rax)
 423:/home/xingli/share/LiteOS_Lab/network/dtls/mbedtls/mbedtls-2.16.2/library/pkparse.c **** 
 424:/home/xingli/share/LiteOS_Lab/network/dtls/mbedtls/mbedtls-2.16.2/library/pkparse.c ****     if( ret == 0 && *id == MBEDTLS_ECP_DP_NONE )
 811              		.loc 2 424 7
 812 0232 83BDE4FE 		cmpl	$0, -284(%rbp)
 812      FFFF00
 813 0239 7517     		jne	.L45
 814              		.loc 2 424 21 discriminator 1
 815 023b 488B85E8 		movq	-280(%rbp), %rax
 815      FEFFFF
 816 0242 8B00     		movl	(%rax), %eax
 817              		.loc 2 424 18 discriminator 1
 818 0244 85C0     		testl	%eax, %eax
 819 0246 750A     		jne	.L45
 425:/home/xingli/share/LiteOS_Lab/network/dtls/mbedtls/mbedtls-2.16.2/library/pkparse.c ****         ret = MBEDTLS_ERR_ECP_FEATURE_UNAVAILABLE;
 820              		.loc 2 425 13
 821 0248 C785E4FE 		movl	$-20096, -284(%rbp)
 821      FFFF80B1 
 821      FFFF
 822              	.L45:
 426:/home/xingli/share/LiteOS_Lab/network/dtls/mbedtls/mbedtls-2.16.2/library/pkparse.c **** 
 427:/home/xingli/share/LiteOS_Lab/network/dtls/mbedtls/mbedtls-2.16.2/library/pkparse.c ****     return( ret );
 823              		.loc 2 427 11
 824 0252 8B85E4FE 		movl	-284(%rbp), %eax
 824      FFFF
 428:/home/xingli/share/LiteOS_Lab/network/dtls/mbedtls/mbedtls-2.16.2/library/pkparse.c **** }
 825              		.loc 2 428 1
 826 0258 488B4DE8 		movq	-24(%rbp), %rcx
 827 025c 6448330C 		xorq	%fs:40, %rcx
GAS LISTING /tmp/ccmvMAN8.s 			page 29


 827      25280000 
 827      00
 828 0265 7405     		je	.L47
 829 0267 E8000000 		call	__stack_chk_fail@PLT
 829      00
 830              	.L47:
 831 026c 4881C428 		addq	$296, %rsp
 831      010000
 832 0273 5B       		popq	%rbx
 833 0274 5D       		popq	%rbp
 834              	.LCFI14:
 835              		.cfi_def_cfa 7, 8
 836 0275 C3       		ret
 837              		.cfi_endproc
 838              	.LFE18:
 840              		.section	.text.pk_group_id_from_specified,"ax",@progbits
 842              	pk_group_id_from_specified:
 843              	.LFB19:
 429:/home/xingli/share/LiteOS_Lab/network/dtls/mbedtls/mbedtls-2.16.2/library/pkparse.c **** 
 430:/home/xingli/share/LiteOS_Lab/network/dtls/mbedtls/mbedtls-2.16.2/library/pkparse.c **** /*
 431:/home/xingli/share/LiteOS_Lab/network/dtls/mbedtls/mbedtls-2.16.2/library/pkparse.c ****  * Parse a SpecifiedECDomain (SEC 1 C.2) and find the associated group ID
 432:/home/xingli/share/LiteOS_Lab/network/dtls/mbedtls/mbedtls-2.16.2/library/pkparse.c ****  */
 433:/home/xingli/share/LiteOS_Lab/network/dtls/mbedtls/mbedtls-2.16.2/library/pkparse.c **** static int pk_group_id_from_specified( const mbedtls_asn1_buf *params,
 434:/home/xingli/share/LiteOS_Lab/network/dtls/mbedtls/mbedtls-2.16.2/library/pkparse.c ****                                        mbedtls_ecp_group_id *grp_id )
 435:/home/xingli/share/LiteOS_Lab/network/dtls/mbedtls/mbedtls-2.16.2/library/pkparse.c **** {
 844              		.loc 2 435 1
 845              		.cfi_startproc
 846 0000 F30F1EFA 		endbr64
 847 0004 55       		pushq	%rbp
 848              	.LCFI15:
 849              		.cfi_def_cfa_offset 16
 850              		.cfi_offset 6, -16
 851 0005 4889E5   		movq	%rsp, %rbp
 852              	.LCFI16:
 853              		.cfi_def_cfa_register 6
 854 0008 4881EC20 		subq	$288, %rsp
 854      010000
 855 000f 4889BDE8 		movq	%rdi, -280(%rbp)
 855      FEFFFF
 856 0016 4889B5E0 		movq	%rsi, -288(%rbp)
 856      FEFFFF
 857              		.loc 2 435 1
 858 001d 64488B04 		movq	%fs:40, %rax
 858      25280000 
 858      00
 859 0026 488945F8 		movq	%rax, -8(%rbp)
 860 002a 31C0     		xorl	%eax, %eax
 436:/home/xingli/share/LiteOS_Lab/network/dtls/mbedtls/mbedtls-2.16.2/library/pkparse.c ****     int ret;
 437:/home/xingli/share/LiteOS_Lab/network/dtls/mbedtls/mbedtls-2.16.2/library/pkparse.c ****     mbedtls_ecp_group grp;
 438:/home/xingli/share/LiteOS_Lab/network/dtls/mbedtls/mbedtls-2.16.2/library/pkparse.c **** 
 439:/home/xingli/share/LiteOS_Lab/network/dtls/mbedtls/mbedtls-2.16.2/library/pkparse.c ****     mbedtls_ecp_group_init( &grp );
 861              		.loc 2 439 5
 862 002c 488D8500 		leaq	-256(%rbp), %rax
 862      FFFFFF
 863 0033 4889C7   		movq	%rax, %rdi
 864 0036 E8000000 		call	mbedtls_ecp_group_init@PLT
 864      00
GAS LISTING /tmp/ccmvMAN8.s 			page 30


 440:/home/xingli/share/LiteOS_Lab/network/dtls/mbedtls/mbedtls-2.16.2/library/pkparse.c **** 
 441:/home/xingli/share/LiteOS_Lab/network/dtls/mbedtls/mbedtls-2.16.2/library/pkparse.c ****     if( ( ret = pk_group_from_specified( params, &grp ) ) != 0 )
 865              		.loc 2 441 17
 866 003b 488D9500 		leaq	-256(%rbp), %rdx
 866      FFFFFF
 867 0042 488B85E8 		movq	-280(%rbp), %rax
 867      FEFFFF
 868 0049 4889D6   		movq	%rdx, %rsi
 869 004c 4889C7   		movq	%rax, %rdi
 870 004f E8000000 		call	pk_group_from_specified
 870      00
 871 0054 8985FCFE 		movl	%eax, -260(%rbp)
 871      FFFF
 872              		.loc 2 441 7
 873 005a 83BDFCFE 		cmpl	$0, -260(%rbp)
 873      FFFF00
 874 0061 7521     		jne	.L55
 442:/home/xingli/share/LiteOS_Lab/network/dtls/mbedtls/mbedtls-2.16.2/library/pkparse.c ****         goto cleanup;
 443:/home/xingli/share/LiteOS_Lab/network/dtls/mbedtls/mbedtls-2.16.2/library/pkparse.c **** 
 444:/home/xingli/share/LiteOS_Lab/network/dtls/mbedtls/mbedtls-2.16.2/library/pkparse.c ****     ret = pk_group_id_from_group( &grp, grp_id );
 875              		.loc 2 444 11
 876 0063 488B95E0 		movq	-288(%rbp), %rdx
 876      FEFFFF
 877 006a 488D8500 		leaq	-256(%rbp), %rax
 877      FFFFFF
 878 0071 4889D6   		movq	%rdx, %rsi
 879 0074 4889C7   		movq	%rax, %rdi
 880 0077 E8000000 		call	pk_group_id_from_group
 880      00
 881 007c 8985FCFE 		movl	%eax, -260(%rbp)
 881      FFFF
 882 0082 EB01     		jmp	.L52
 883              	.L55:
 442:/home/xingli/share/LiteOS_Lab/network/dtls/mbedtls/mbedtls-2.16.2/library/pkparse.c ****         goto cleanup;
 884              		.loc 2 442 9
 885 0084 90       		nop
 886              	.L52:
 445:/home/xingli/share/LiteOS_Lab/network/dtls/mbedtls/mbedtls-2.16.2/library/pkparse.c **** 
 446:/home/xingli/share/LiteOS_Lab/network/dtls/mbedtls/mbedtls-2.16.2/library/pkparse.c **** cleanup:
 447:/home/xingli/share/LiteOS_Lab/network/dtls/mbedtls/mbedtls-2.16.2/library/pkparse.c ****     mbedtls_ecp_group_free( &grp );
 887              		.loc 2 447 5
 888 0085 488D8500 		leaq	-256(%rbp), %rax
 888      FFFFFF
 889 008c 4889C7   		movq	%rax, %rdi
 890 008f E8000000 		call	mbedtls_ecp_group_free@PLT
 890      00
 448:/home/xingli/share/LiteOS_Lab/network/dtls/mbedtls/mbedtls-2.16.2/library/pkparse.c **** 
 449:/home/xingli/share/LiteOS_Lab/network/dtls/mbedtls/mbedtls-2.16.2/library/pkparse.c ****     return( ret );
 891              		.loc 2 449 11
 892 0094 8B85FCFE 		movl	-260(%rbp), %eax
 892      FFFF
 450:/home/xingli/share/LiteOS_Lab/network/dtls/mbedtls/mbedtls-2.16.2/library/pkparse.c **** }
 893              		.loc 2 450 1
 894 009a 488B4DF8 		movq	-8(%rbp), %rcx
 895 009e 6448330C 		xorq	%fs:40, %rcx
 895      25280000 
 895      00
GAS LISTING /tmp/ccmvMAN8.s 			page 31


 896 00a7 7405     		je	.L54
 897 00a9 E8000000 		call	__stack_chk_fail@PLT
 897      00
 898              	.L54:
 899 00ae C9       		leave
 900              	.LCFI17:
 901              		.cfi_def_cfa 7, 8
 902 00af C3       		ret
 903              		.cfi_endproc
 904              	.LFE19:
 906              		.section	.text.pk_use_ecparams,"ax",@progbits
 908              	pk_use_ecparams:
 909              	.LFB20:
 451:/home/xingli/share/LiteOS_Lab/network/dtls/mbedtls/mbedtls-2.16.2/library/pkparse.c **** #endif /* MBEDTLS_PK_PARSE_EC_EXTENDED */
 452:/home/xingli/share/LiteOS_Lab/network/dtls/mbedtls/mbedtls-2.16.2/library/pkparse.c **** 
 453:/home/xingli/share/LiteOS_Lab/network/dtls/mbedtls/mbedtls-2.16.2/library/pkparse.c **** /*
 454:/home/xingli/share/LiteOS_Lab/network/dtls/mbedtls/mbedtls-2.16.2/library/pkparse.c ****  * Use EC parameters to initialise an EC group
 455:/home/xingli/share/LiteOS_Lab/network/dtls/mbedtls/mbedtls-2.16.2/library/pkparse.c ****  *
 456:/home/xingli/share/LiteOS_Lab/network/dtls/mbedtls/mbedtls-2.16.2/library/pkparse.c ****  * ECParameters ::= CHOICE {
 457:/home/xingli/share/LiteOS_Lab/network/dtls/mbedtls/mbedtls-2.16.2/library/pkparse.c ****  *   namedCurve         OBJECT IDENTIFIER
 458:/home/xingli/share/LiteOS_Lab/network/dtls/mbedtls/mbedtls-2.16.2/library/pkparse.c ****  *   specifiedCurve     SpecifiedECDomain -- = SEQUENCE { ... }
 459:/home/xingli/share/LiteOS_Lab/network/dtls/mbedtls/mbedtls-2.16.2/library/pkparse.c ****  *   -- implicitCurve   NULL
 460:/home/xingli/share/LiteOS_Lab/network/dtls/mbedtls/mbedtls-2.16.2/library/pkparse.c ****  */
 461:/home/xingli/share/LiteOS_Lab/network/dtls/mbedtls/mbedtls-2.16.2/library/pkparse.c **** static int pk_use_ecparams( const mbedtls_asn1_buf *params, mbedtls_ecp_group *grp )
 462:/home/xingli/share/LiteOS_Lab/network/dtls/mbedtls/mbedtls-2.16.2/library/pkparse.c **** {
 910              		.loc 2 462 1
 911              		.cfi_startproc
 912 0000 F30F1EFA 		endbr64
 913 0004 55       		pushq	%rbp
 914              	.LCFI18:
 915              		.cfi_def_cfa_offset 16
 916              		.cfi_offset 6, -16
 917 0005 4889E5   		movq	%rsp, %rbp
 918              	.LCFI19:
 919              		.cfi_def_cfa_register 6
 920 0008 4883EC20 		subq	$32, %rsp
 921 000c 48897DE8 		movq	%rdi, -24(%rbp)
 922 0010 488975E0 		movq	%rsi, -32(%rbp)
 923              		.loc 2 462 1
 924 0014 64488B04 		movq	%fs:40, %rax
 924      25280000 
 924      00
 925 001d 488945F8 		movq	%rax, -8(%rbp)
 926 0021 31C0     		xorl	%eax, %eax
 463:/home/xingli/share/LiteOS_Lab/network/dtls/mbedtls/mbedtls-2.16.2/library/pkparse.c ****     int ret;
 464:/home/xingli/share/LiteOS_Lab/network/dtls/mbedtls/mbedtls-2.16.2/library/pkparse.c ****     mbedtls_ecp_group_id grp_id;
 465:/home/xingli/share/LiteOS_Lab/network/dtls/mbedtls/mbedtls-2.16.2/library/pkparse.c **** 
 466:/home/xingli/share/LiteOS_Lab/network/dtls/mbedtls/mbedtls-2.16.2/library/pkparse.c ****     if( params->tag == MBEDTLS_ASN1_OID )
 927              		.loc 2 466 15
 928 0023 488B45E8 		movq	-24(%rbp), %rax
 929 0027 8B00     		movl	(%rax), %eax
 930              		.loc 2 466 7
 931 0029 83F806   		cmpl	$6, %eax
 932 002c 751E     		jne	.L57
 467:/home/xingli/share/LiteOS_Lab/network/dtls/mbedtls/mbedtls-2.16.2/library/pkparse.c ****     {
 468:/home/xingli/share/LiteOS_Lab/network/dtls/mbedtls/mbedtls-2.16.2/library/pkparse.c ****         if( mbedtls_oid_get_ec_grp( params, &grp_id ) != 0 )
 933              		.loc 2 468 13
GAS LISTING /tmp/ccmvMAN8.s 			page 32


 934 002e 488D55F0 		leaq	-16(%rbp), %rdx
 935 0032 488B45E8 		movq	-24(%rbp), %rax
 936 0036 4889D6   		movq	%rdx, %rsi
 937 0039 4889C7   		movq	%rax, %rdi
 938 003c E8000000 		call	mbedtls_oid_get_ec_grp@PLT
 938      00
 939              		.loc 2 468 11
 940 0041 85C0     		testl	%eax, %eax
 941 0043 7428     		je	.L58
 469:/home/xingli/share/LiteOS_Lab/network/dtls/mbedtls/mbedtls-2.16.2/library/pkparse.c ****             return( MBEDTLS_ERR_PK_UNKNOWN_NAMED_CURVE );
 942              		.loc 2 469 19
 943 0045 B800C6FF 		movl	$-14848, %eax
 943      FF
 944 004a EB63     		jmp	.L62
 945              	.L57:
 470:/home/xingli/share/LiteOS_Lab/network/dtls/mbedtls/mbedtls-2.16.2/library/pkparse.c ****     }
 471:/home/xingli/share/LiteOS_Lab/network/dtls/mbedtls/mbedtls-2.16.2/library/pkparse.c ****     else
 472:/home/xingli/share/LiteOS_Lab/network/dtls/mbedtls/mbedtls-2.16.2/library/pkparse.c ****     {
 473:/home/xingli/share/LiteOS_Lab/network/dtls/mbedtls/mbedtls-2.16.2/library/pkparse.c **** #if defined(MBEDTLS_PK_PARSE_EC_EXTENDED)
 474:/home/xingli/share/LiteOS_Lab/network/dtls/mbedtls/mbedtls-2.16.2/library/pkparse.c ****         if( ( ret = pk_group_id_from_specified( params, &grp_id ) ) != 0 )
 946              		.loc 2 474 21
 947 004c 488D55F0 		leaq	-16(%rbp), %rdx
 948 0050 488B45E8 		movq	-24(%rbp), %rax
 949 0054 4889D6   		movq	%rdx, %rsi
 950 0057 4889C7   		movq	%rax, %rdi
 951 005a E8000000 		call	pk_group_id_from_specified
 951      00
 952 005f 8945F4   		movl	%eax, -12(%rbp)
 953              		.loc 2 474 11
 954 0062 837DF400 		cmpl	$0, -12(%rbp)
 955 0066 7405     		je	.L58
 475:/home/xingli/share/LiteOS_Lab/network/dtls/mbedtls/mbedtls-2.16.2/library/pkparse.c ****             return( ret );
 956              		.loc 2 475 19
 957 0068 8B45F4   		movl	-12(%rbp), %eax
 958 006b EB42     		jmp	.L62
 959              	.L58:
 476:/home/xingli/share/LiteOS_Lab/network/dtls/mbedtls/mbedtls-2.16.2/library/pkparse.c **** #else
 477:/home/xingli/share/LiteOS_Lab/network/dtls/mbedtls/mbedtls-2.16.2/library/pkparse.c ****         return( MBEDTLS_ERR_PK_KEY_INVALID_FORMAT );
 478:/home/xingli/share/LiteOS_Lab/network/dtls/mbedtls/mbedtls-2.16.2/library/pkparse.c **** #endif
 479:/home/xingli/share/LiteOS_Lab/network/dtls/mbedtls/mbedtls-2.16.2/library/pkparse.c ****     }
 480:/home/xingli/share/LiteOS_Lab/network/dtls/mbedtls/mbedtls-2.16.2/library/pkparse.c **** 
 481:/home/xingli/share/LiteOS_Lab/network/dtls/mbedtls/mbedtls-2.16.2/library/pkparse.c ****     /*
 482:/home/xingli/share/LiteOS_Lab/network/dtls/mbedtls/mbedtls-2.16.2/library/pkparse.c ****      * grp may already be initilialized; if so, make sure IDs match
 483:/home/xingli/share/LiteOS_Lab/network/dtls/mbedtls/mbedtls-2.16.2/library/pkparse.c ****      */
 484:/home/xingli/share/LiteOS_Lab/network/dtls/mbedtls/mbedtls-2.16.2/library/pkparse.c ****     if( grp->id != MBEDTLS_ECP_DP_NONE && grp->id != grp_id )
 960              		.loc 2 484 12
 961 006d 488B45E0 		movq	-32(%rbp), %rax
 962 0071 8B00     		movl	(%rax), %eax
 963              		.loc 2 484 7
 964 0073 85C0     		testl	%eax, %eax
 965 0075 7414     		je	.L60
 966              		.loc 2 484 46 discriminator 1
 967 0077 488B45E0 		movq	-32(%rbp), %rax
 968 007b 8B10     		movl	(%rax), %edx
 969              		.loc 2 484 51 discriminator 1
 970 007d 8B45F0   		movl	-16(%rbp), %eax
 971              		.loc 2 484 40 discriminator 1
GAS LISTING /tmp/ccmvMAN8.s 			page 33


 972 0080 39C2     		cmpl	%eax, %edx
 973 0082 7407     		je	.L60
 485:/home/xingli/share/LiteOS_Lab/network/dtls/mbedtls/mbedtls-2.16.2/library/pkparse.c ****         return( MBEDTLS_ERR_PK_KEY_INVALID_FORMAT );
 974              		.loc 2 485 15
 975 0084 B800C3FF 		movl	$-15616, %eax
 975      FF
 976 0089 EB24     		jmp	.L62
 977              	.L60:
 486:/home/xingli/share/LiteOS_Lab/network/dtls/mbedtls/mbedtls-2.16.2/library/pkparse.c **** 
 487:/home/xingli/share/LiteOS_Lab/network/dtls/mbedtls/mbedtls-2.16.2/library/pkparse.c ****     if( ( ret = mbedtls_ecp_group_load( grp, grp_id ) ) != 0 )
 978              		.loc 2 487 17
 979 008b 8B55F0   		movl	-16(%rbp), %edx
 980 008e 488B45E0 		movq	-32(%rbp), %rax
 981 0092 89D6     		movl	%edx, %esi
 982 0094 4889C7   		movq	%rax, %rdi
 983 0097 E8000000 		call	mbedtls_ecp_group_load@PLT
 983      00
 984 009c 8945F4   		movl	%eax, -12(%rbp)
 985              		.loc 2 487 7
 986 009f 837DF400 		cmpl	$0, -12(%rbp)
 987 00a3 7405     		je	.L61
 488:/home/xingli/share/LiteOS_Lab/network/dtls/mbedtls/mbedtls-2.16.2/library/pkparse.c ****         return( ret );
 988              		.loc 2 488 15
 989 00a5 8B45F4   		movl	-12(%rbp), %eax
 990 00a8 EB05     		jmp	.L62
 991              	.L61:
 489:/home/xingli/share/LiteOS_Lab/network/dtls/mbedtls/mbedtls-2.16.2/library/pkparse.c **** 
 490:/home/xingli/share/LiteOS_Lab/network/dtls/mbedtls/mbedtls-2.16.2/library/pkparse.c ****     return( 0 );
 992              		.loc 2 490 11
 993 00aa B8000000 		movl	$0, %eax
 993      00
 994              	.L62:
 491:/home/xingli/share/LiteOS_Lab/network/dtls/mbedtls/mbedtls-2.16.2/library/pkparse.c **** }
 995              		.loc 2 491 1 discriminator 1
 996 00af 488B4DF8 		movq	-8(%rbp), %rcx
 997 00b3 6448330C 		xorq	%fs:40, %rcx
 997      25280000 
 997      00
 998 00bc 7405     		je	.L63
 999              		.loc 2 491 1 is_stmt 0
 1000 00be E8000000 		call	__stack_chk_fail@PLT
 1000      00
 1001              	.L63:
 1002 00c3 C9       		leave
 1003              	.LCFI20:
 1004              		.cfi_def_cfa 7, 8
 1005 00c4 C3       		ret
 1006              		.cfi_endproc
 1007              	.LFE20:
 1009              		.section	.text.pk_get_ecpubkey,"ax",@progbits
 1011              	pk_get_ecpubkey:
 1012              	.LFB21:
 492:/home/xingli/share/LiteOS_Lab/network/dtls/mbedtls/mbedtls-2.16.2/library/pkparse.c **** 
 493:/home/xingli/share/LiteOS_Lab/network/dtls/mbedtls/mbedtls-2.16.2/library/pkparse.c **** /*
 494:/home/xingli/share/LiteOS_Lab/network/dtls/mbedtls/mbedtls-2.16.2/library/pkparse.c ****  * EC public key is an EC point
 495:/home/xingli/share/LiteOS_Lab/network/dtls/mbedtls/mbedtls-2.16.2/library/pkparse.c ****  *
 496:/home/xingli/share/LiteOS_Lab/network/dtls/mbedtls/mbedtls-2.16.2/library/pkparse.c ****  * The caller is responsible for clearing the structure upon failure if
GAS LISTING /tmp/ccmvMAN8.s 			page 34


 497:/home/xingli/share/LiteOS_Lab/network/dtls/mbedtls/mbedtls-2.16.2/library/pkparse.c ****  * desired. Take care to pass along the possible ECP_FEATURE_UNAVAILABLE
 498:/home/xingli/share/LiteOS_Lab/network/dtls/mbedtls/mbedtls-2.16.2/library/pkparse.c ****  * return code of mbedtls_ecp_point_read_binary() and leave p in a usable state.
 499:/home/xingli/share/LiteOS_Lab/network/dtls/mbedtls/mbedtls-2.16.2/library/pkparse.c ****  */
 500:/home/xingli/share/LiteOS_Lab/network/dtls/mbedtls/mbedtls-2.16.2/library/pkparse.c **** static int pk_get_ecpubkey( unsigned char **p, const unsigned char *end,
 501:/home/xingli/share/LiteOS_Lab/network/dtls/mbedtls/mbedtls-2.16.2/library/pkparse.c ****                             mbedtls_ecp_keypair *key )
 502:/home/xingli/share/LiteOS_Lab/network/dtls/mbedtls/mbedtls-2.16.2/library/pkparse.c **** {
 1013              		.loc 2 502 1 is_stmt 1
 1014              		.cfi_startproc
 1015 0000 F30F1EFA 		endbr64
 1016 0004 55       		pushq	%rbp
 1017              	.LCFI21:
 1018              		.cfi_def_cfa_offset 16
 1019              		.cfi_offset 6, -16
 1020 0005 4889E5   		movq	%rsp, %rbp
 1021              	.LCFI22:
 1022              		.cfi_def_cfa_register 6
 1023 0008 4883EC30 		subq	$48, %rsp
 1024 000c 48897DE8 		movq	%rdi, -24(%rbp)
 1025 0010 488975E0 		movq	%rsi, -32(%rbp)
 1026 0014 488955D8 		movq	%rdx, -40(%rbp)
 1027              		.loc 2 502 1
 1028 0018 64488B04 		movq	%fs:40, %rax
 1028      25280000 
 1028      00
 1029 0021 488945F8 		movq	%rax, -8(%rbp)
 1030 0025 31C0     		xorl	%eax, %eax
 503:/home/xingli/share/LiteOS_Lab/network/dtls/mbedtls/mbedtls-2.16.2/library/pkparse.c ****     int ret;
 504:/home/xingli/share/LiteOS_Lab/network/dtls/mbedtls/mbedtls-2.16.2/library/pkparse.c **** 
 505:/home/xingli/share/LiteOS_Lab/network/dtls/mbedtls/mbedtls-2.16.2/library/pkparse.c ****     if( ( ret = mbedtls_ecp_point_read_binary( &key->grp, &key->Q,
 506:/home/xingli/share/LiteOS_Lab/network/dtls/mbedtls/mbedtls-2.16.2/library/pkparse.c ****                     (const unsigned char *) *p, end - *p ) ) == 0 )
 1031              		.loc 2 506 55
 1032 0027 488B45E8 		movq	-24(%rbp), %rax
 1033 002b 488B00   		movq	(%rax), %rax
 1034              		.loc 2 506 53
 1035 002e 488B55E0 		movq	-32(%rbp), %rdx
 1036 0032 4829C2   		subq	%rax, %rdx
 1037 0035 4889D0   		movq	%rdx, %rax
 505:/home/xingli/share/LiteOS_Lab/network/dtls/mbedtls/mbedtls-2.16.2/library/pkparse.c ****                     (const unsigned char *) *p, end - *p ) ) == 0 )
 1038              		.loc 2 505 17
 1039 0038 4889C1   		movq	%rax, %rcx
 1040 003b 488B45E8 		movq	-24(%rbp), %rax
 1041 003f 488B10   		movq	(%rax), %rdx
 1042 0042 488B45D8 		movq	-40(%rbp), %rax
 1043 0046 488DB010 		leaq	272(%rax), %rsi
 1043      010000
 505:/home/xingli/share/LiteOS_Lab/network/dtls/mbedtls/mbedtls-2.16.2/library/pkparse.c ****                     (const unsigned char *) *p, end - *p ) ) == 0 )
 1044              		.loc 2 505 48
 1045 004d 488B45D8 		movq	-40(%rbp), %rax
 505:/home/xingli/share/LiteOS_Lab/network/dtls/mbedtls/mbedtls-2.16.2/library/pkparse.c ****                     (const unsigned char *) *p, end - *p ) ) == 0 )
 1046              		.loc 2 505 17
 1047 0051 4889C7   		movq	%rax, %rdi
 1048 0054 E8000000 		call	mbedtls_ecp_point_read_binary@PLT
 1048      00
 1049 0059 8945F4   		movl	%eax, -12(%rbp)
 505:/home/xingli/share/LiteOS_Lab/network/dtls/mbedtls/mbedtls-2.16.2/library/pkparse.c ****                     (const unsigned char *) *p, end - *p ) ) == 0 )
 1050              		.loc 2 505 7
 1051 005c 837DF400 		cmpl	$0, -12(%rbp)
GAS LISTING /tmp/ccmvMAN8.s 			page 35


 1052 0060 751D     		jne	.L65
 507:/home/xingli/share/LiteOS_Lab/network/dtls/mbedtls/mbedtls-2.16.2/library/pkparse.c ****     {
 508:/home/xingli/share/LiteOS_Lab/network/dtls/mbedtls/mbedtls-2.16.2/library/pkparse.c ****         ret = mbedtls_ecp_check_pubkey( &key->grp, &key->Q );
 1053              		.loc 2 508 52
 1054 0062 488B45D8 		movq	-40(%rbp), %rax
 1055 0066 488D9010 		leaq	272(%rax), %rdx
 1055      010000
 1056              		.loc 2 508 41
 1057 006d 488B45D8 		movq	-40(%rbp), %rax
 1058              		.loc 2 508 15
 1059 0071 4889D6   		movq	%rdx, %rsi
 1060 0074 4889C7   		movq	%rax, %rdi
 1061 0077 E8000000 		call	mbedtls_ecp_check_pubkey@PLT
 1061      00
 1062 007c 8945F4   		movl	%eax, -12(%rbp)
 1063              	.L65:
 509:/home/xingli/share/LiteOS_Lab/network/dtls/mbedtls/mbedtls-2.16.2/library/pkparse.c ****     }
 510:/home/xingli/share/LiteOS_Lab/network/dtls/mbedtls/mbedtls-2.16.2/library/pkparse.c **** 
 511:/home/xingli/share/LiteOS_Lab/network/dtls/mbedtls/mbedtls-2.16.2/library/pkparse.c ****     /*
 512:/home/xingli/share/LiteOS_Lab/network/dtls/mbedtls/mbedtls-2.16.2/library/pkparse.c ****      * We know mbedtls_ecp_point_read_binary consumed all bytes or failed
 513:/home/xingli/share/LiteOS_Lab/network/dtls/mbedtls/mbedtls-2.16.2/library/pkparse.c ****      */
 514:/home/xingli/share/LiteOS_Lab/network/dtls/mbedtls/mbedtls-2.16.2/library/pkparse.c ****     *p = (unsigned char *) end;
 1064              		.loc 2 514 8
 1065 007f 488B45E8 		movq	-24(%rbp), %rax
 1066 0083 488B55E0 		movq	-32(%rbp), %rdx
 1067 0087 488910   		movq	%rdx, (%rax)
 515:/home/xingli/share/LiteOS_Lab/network/dtls/mbedtls/mbedtls-2.16.2/library/pkparse.c **** 
 516:/home/xingli/share/LiteOS_Lab/network/dtls/mbedtls/mbedtls-2.16.2/library/pkparse.c ****     return( ret );
 1068              		.loc 2 516 11
 1069 008a 8B45F4   		movl	-12(%rbp), %eax
 517:/home/xingli/share/LiteOS_Lab/network/dtls/mbedtls/mbedtls-2.16.2/library/pkparse.c **** }
 1070              		.loc 2 517 1
 1071 008d 488B4DF8 		movq	-8(%rbp), %rcx
 1072 0091 6448330C 		xorq	%fs:40, %rcx
 1072      25280000 
 1072      00
 1073 009a 7405     		je	.L67
 1074 009c E8000000 		call	__stack_chk_fail@PLT
 1074      00
 1075              	.L67:
 1076 00a1 C9       		leave
 1077              	.LCFI23:
 1078              		.cfi_def_cfa 7, 8
 1079 00a2 C3       		ret
 1080              		.cfi_endproc
 1081              	.LFE21:
 1083              		.section	.text.pk_get_rsapubkey,"ax",@progbits
 1085              	pk_get_rsapubkey:
 1086              	.LFB22:
 518:/home/xingli/share/LiteOS_Lab/network/dtls/mbedtls/mbedtls-2.16.2/library/pkparse.c **** #endif /* MBEDTLS_ECP_C */
 519:/home/xingli/share/LiteOS_Lab/network/dtls/mbedtls/mbedtls-2.16.2/library/pkparse.c **** 
 520:/home/xingli/share/LiteOS_Lab/network/dtls/mbedtls/mbedtls-2.16.2/library/pkparse.c **** #if defined(MBEDTLS_RSA_C)
 521:/home/xingli/share/LiteOS_Lab/network/dtls/mbedtls/mbedtls-2.16.2/library/pkparse.c **** /*
 522:/home/xingli/share/LiteOS_Lab/network/dtls/mbedtls/mbedtls-2.16.2/library/pkparse.c ****  *  RSAPublicKey ::= SEQUENCE {
 523:/home/xingli/share/LiteOS_Lab/network/dtls/mbedtls/mbedtls-2.16.2/library/pkparse.c ****  *      modulus           INTEGER,  -- n
 524:/home/xingli/share/LiteOS_Lab/network/dtls/mbedtls/mbedtls-2.16.2/library/pkparse.c ****  *      publicExponent    INTEGER   -- e
 525:/home/xingli/share/LiteOS_Lab/network/dtls/mbedtls/mbedtls-2.16.2/library/pkparse.c ****  *  }
GAS LISTING /tmp/ccmvMAN8.s 			page 36


 526:/home/xingli/share/LiteOS_Lab/network/dtls/mbedtls/mbedtls-2.16.2/library/pkparse.c ****  */
 527:/home/xingli/share/LiteOS_Lab/network/dtls/mbedtls/mbedtls-2.16.2/library/pkparse.c **** static int pk_get_rsapubkey( unsigned char **p,
 528:/home/xingli/share/LiteOS_Lab/network/dtls/mbedtls/mbedtls-2.16.2/library/pkparse.c ****                              const unsigned char *end,
 529:/home/xingli/share/LiteOS_Lab/network/dtls/mbedtls/mbedtls-2.16.2/library/pkparse.c ****                              mbedtls_rsa_context *rsa )
 530:/home/xingli/share/LiteOS_Lab/network/dtls/mbedtls/mbedtls-2.16.2/library/pkparse.c **** {
 1087              		.loc 2 530 1
 1088              		.cfi_startproc
 1089 0000 F30F1EFA 		endbr64
 1090 0004 55       		pushq	%rbp
 1091              	.LCFI24:
 1092              		.cfi_def_cfa_offset 16
 1093              		.cfi_offset 6, -16
 1094 0005 4889E5   		movq	%rsp, %rbp
 1095              	.LCFI25:
 1096              		.cfi_def_cfa_register 6
 1097 0008 4883EC40 		subq	$64, %rsp
 1098 000c 48897DD8 		movq	%rdi, -40(%rbp)
 1099 0010 488975D0 		movq	%rsi, -48(%rbp)
 1100 0014 488955C8 		movq	%rdx, -56(%rbp)
 1101              		.loc 2 530 1
 1102 0018 64488B04 		movq	%fs:40, %rax
 1102      25280000 
 1102      00
 1103 0021 488945F8 		movq	%rax, -8(%rbp)
 1104 0025 31C0     		xorl	%eax, %eax
 531:/home/xingli/share/LiteOS_Lab/network/dtls/mbedtls/mbedtls-2.16.2/library/pkparse.c ****     int ret;
 532:/home/xingli/share/LiteOS_Lab/network/dtls/mbedtls/mbedtls-2.16.2/library/pkparse.c ****     size_t len;
 533:/home/xingli/share/LiteOS_Lab/network/dtls/mbedtls/mbedtls-2.16.2/library/pkparse.c **** 
 534:/home/xingli/share/LiteOS_Lab/network/dtls/mbedtls/mbedtls-2.16.2/library/pkparse.c ****     if( ( ret = mbedtls_asn1_get_tag( p, end, &len,
 1105              		.loc 2 534 17
 1106 0027 488D55F0 		leaq	-16(%rbp), %rdx
 1107 002b 488B75D0 		movq	-48(%rbp), %rsi
 1108 002f 488B45D8 		movq	-40(%rbp), %rax
 1109 0033 B9300000 		movl	$48, %ecx
 1109      00
 1110 0038 4889C7   		movq	%rax, %rdi
 1111 003b E8000000 		call	mbedtls_asn1_get_tag@PLT
 1111      00
 1112 0040 8945EC   		movl	%eax, -20(%rbp)
 1113              		.loc 2 534 7
 1114 0043 837DEC00 		cmpl	$0, -20(%rbp)
 1115 0047 740D     		je	.L69
 535:/home/xingli/share/LiteOS_Lab/network/dtls/mbedtls/mbedtls-2.16.2/library/pkparse.c ****             MBEDTLS_ASN1_CONSTRUCTED | MBEDTLS_ASN1_SEQUENCE ) ) != 0 )
 536:/home/xingli/share/LiteOS_Lab/network/dtls/mbedtls/mbedtls-2.16.2/library/pkparse.c ****         return( MBEDTLS_ERR_PK_INVALID_PUBKEY + ret );
 1116              		.loc 2 536 47
 1117 0049 8B45EC   		movl	-20(%rbp), %eax
 1118 004c 2D003B00 		subl	$15104, %eax
 1118      00
 1119 0051 E9850100 		jmp	.L79
 1119      00
 1120              	.L69:
 537:/home/xingli/share/LiteOS_Lab/network/dtls/mbedtls/mbedtls-2.16.2/library/pkparse.c **** 
 538:/home/xingli/share/LiteOS_Lab/network/dtls/mbedtls/mbedtls-2.16.2/library/pkparse.c ****     if( *p + len != end )
 1121              		.loc 2 538 9
 1122 0056 488B45D8 		movq	-40(%rbp), %rax
 1123 005a 488B10   		movq	(%rax), %rdx
 1124              		.loc 2 538 12
GAS LISTING /tmp/ccmvMAN8.s 			page 37


 1125 005d 488B45F0 		movq	-16(%rbp), %rax
 1126 0061 4801D0   		addq	%rdx, %rax
 1127              		.loc 2 538 7
 1128 0064 483945D0 		cmpq	%rax, -48(%rbp)
 1129 0068 740A     		je	.L71
 539:/home/xingli/share/LiteOS_Lab/network/dtls/mbedtls/mbedtls-2.16.2/library/pkparse.c ****         return( MBEDTLS_ERR_PK_INVALID_PUBKEY +
 1130              		.loc 2 539 15
 1131 006a B89AC4FF 		movl	$-15206, %eax
 1131      FF
 1132 006f E9670100 		jmp	.L79
 1132      00
 1133              	.L71:
 540:/home/xingli/share/LiteOS_Lab/network/dtls/mbedtls/mbedtls-2.16.2/library/pkparse.c ****                 MBEDTLS_ERR_ASN1_LENGTH_MISMATCH );
 541:/home/xingli/share/LiteOS_Lab/network/dtls/mbedtls/mbedtls-2.16.2/library/pkparse.c **** 
 542:/home/xingli/share/LiteOS_Lab/network/dtls/mbedtls/mbedtls-2.16.2/library/pkparse.c ****     /* Import N */
 543:/home/xingli/share/LiteOS_Lab/network/dtls/mbedtls/mbedtls-2.16.2/library/pkparse.c ****     if( ( ret = mbedtls_asn1_get_tag( p, end, &len, MBEDTLS_ASN1_INTEGER ) ) != 0 )
 1134              		.loc 2 543 17
 1135 0074 488D55F0 		leaq	-16(%rbp), %rdx
 1136 0078 488B75D0 		movq	-48(%rbp), %rsi
 1137 007c 488B45D8 		movq	-40(%rbp), %rax
 1138 0080 B9020000 		movl	$2, %ecx
 1138      00
 1139 0085 4889C7   		movq	%rax, %rdi
 1140 0088 E8000000 		call	mbedtls_asn1_get_tag@PLT
 1140      00
 1141 008d 8945EC   		movl	%eax, -20(%rbp)
 1142              		.loc 2 543 7
 1143 0090 837DEC00 		cmpl	$0, -20(%rbp)
 1144 0094 740D     		je	.L72
 544:/home/xingli/share/LiteOS_Lab/network/dtls/mbedtls/mbedtls-2.16.2/library/pkparse.c ****         return( MBEDTLS_ERR_PK_INVALID_PUBKEY + ret );
 1145              		.loc 2 544 47
 1146 0096 8B45EC   		movl	-20(%rbp), %eax
 1147 0099 2D003B00 		subl	$15104, %eax
 1147      00
 1148 009e E9380100 		jmp	.L79
 1148      00
 1149              	.L72:
 545:/home/xingli/share/LiteOS_Lab/network/dtls/mbedtls/mbedtls-2.16.2/library/pkparse.c **** 
 546:/home/xingli/share/LiteOS_Lab/network/dtls/mbedtls/mbedtls-2.16.2/library/pkparse.c ****     if( ( ret = mbedtls_rsa_import_raw( rsa, *p, len, NULL, 0, NULL, 0,
 1150              		.loc 2 546 17
 1151 00a3 488B55F0 		movq	-16(%rbp), %rdx
 1152 00a7 488B45D8 		movq	-40(%rbp), %rax
 1153 00ab 488B30   		movq	(%rax), %rsi
 1154 00ae 488B45C8 		movq	-56(%rbp), %rax
 1155 00b2 4883EC08 		subq	$8, %rsp
 1156 00b6 6A00     		pushq	$0
 1157 00b8 6A00     		pushq	$0
 1158 00ba 6A00     		pushq	$0
 1159 00bc 6A00     		pushq	$0
 1160 00be 6A00     		pushq	$0
 1161 00c0 41B90000 		movl	$0, %r9d
 1161      0000
 1162 00c6 41B80000 		movl	$0, %r8d
 1162      0000
 1163 00cc B9000000 		movl	$0, %ecx
 1163      00
 1164 00d1 4889C7   		movq	%rax, %rdi
GAS LISTING /tmp/ccmvMAN8.s 			page 38


 1165 00d4 E8000000 		call	mbedtls_rsa_import_raw@PLT
 1165      00
 1166 00d9 4883C430 		addq	$48, %rsp
 1167 00dd 8945EC   		movl	%eax, -20(%rbp)
 1168              		.loc 2 546 7
 1169 00e0 837DEC00 		cmpl	$0, -20(%rbp)
 1170 00e4 740A     		je	.L73
 547:/home/xingli/share/LiteOS_Lab/network/dtls/mbedtls/mbedtls-2.16.2/library/pkparse.c ****                                         NULL, 0, NULL, 0 ) ) != 0 )
 548:/home/xingli/share/LiteOS_Lab/network/dtls/mbedtls/mbedtls-2.16.2/library/pkparse.c ****         return( MBEDTLS_ERR_PK_INVALID_PUBKEY );
 1171              		.loc 2 548 15
 1172 00e6 B800C5FF 		movl	$-15104, %eax
 1172      FF
 1173 00eb E9EB0000 		jmp	.L79
 1173      00
 1174              	.L73:
 549:/home/xingli/share/LiteOS_Lab/network/dtls/mbedtls/mbedtls-2.16.2/library/pkparse.c **** 
 550:/home/xingli/share/LiteOS_Lab/network/dtls/mbedtls/mbedtls-2.16.2/library/pkparse.c ****     *p += len;
 1175              		.loc 2 550 8
 1176 00f0 488B45D8 		movq	-40(%rbp), %rax
 1177 00f4 488B10   		movq	(%rax), %rdx
 1178 00f7 488B45F0 		movq	-16(%rbp), %rax
 1179 00fb 4801C2   		addq	%rax, %rdx
 1180 00fe 488B45D8 		movq	-40(%rbp), %rax
 1181 0102 488910   		movq	%rdx, (%rax)
 551:/home/xingli/share/LiteOS_Lab/network/dtls/mbedtls/mbedtls-2.16.2/library/pkparse.c **** 
 552:/home/xingli/share/LiteOS_Lab/network/dtls/mbedtls/mbedtls-2.16.2/library/pkparse.c ****     /* Import E */
 553:/home/xingli/share/LiteOS_Lab/network/dtls/mbedtls/mbedtls-2.16.2/library/pkparse.c ****     if( ( ret = mbedtls_asn1_get_tag( p, end, &len, MBEDTLS_ASN1_INTEGER ) ) != 0 )
 1182              		.loc 2 553 17
 1183 0105 488D55F0 		leaq	-16(%rbp), %rdx
 1184 0109 488B75D0 		movq	-48(%rbp), %rsi
 1185 010d 488B45D8 		movq	-40(%rbp), %rax
 1186 0111 B9020000 		movl	$2, %ecx
 1186      00
 1187 0116 4889C7   		movq	%rax, %rdi
 1188 0119 E8000000 		call	mbedtls_asn1_get_tag@PLT
 1188      00
 1189 011e 8945EC   		movl	%eax, -20(%rbp)
 1190              		.loc 2 553 7
 1191 0121 837DEC00 		cmpl	$0, -20(%rbp)
 1192 0125 740D     		je	.L74
 554:/home/xingli/share/LiteOS_Lab/network/dtls/mbedtls/mbedtls-2.16.2/library/pkparse.c ****         return( MBEDTLS_ERR_PK_INVALID_PUBKEY + ret );
 1193              		.loc 2 554 47
 1194 0127 8B45EC   		movl	-20(%rbp), %eax
 1195 012a 2D003B00 		subl	$15104, %eax
 1195      00
 1196 012f E9A70000 		jmp	.L79
 1196      00
 1197              	.L74:
 555:/home/xingli/share/LiteOS_Lab/network/dtls/mbedtls/mbedtls-2.16.2/library/pkparse.c **** 
 556:/home/xingli/share/LiteOS_Lab/network/dtls/mbedtls/mbedtls-2.16.2/library/pkparse.c ****     if( ( ret = mbedtls_rsa_import_raw( rsa, NULL, 0, NULL, 0, NULL, 0,
 1198              		.loc 2 556 17
 1199 0134 488B4DF0 		movq	-16(%rbp), %rcx
 1200 0138 488B45D8 		movq	-40(%rbp), %rax
 1201 013c 488B10   		movq	(%rax), %rdx
 1202 013f 488B45C8 		movq	-56(%rbp), %rax
 1203 0143 4883EC08 		subq	$8, %rsp
 1204 0147 51       		pushq	%rcx
GAS LISTING /tmp/ccmvMAN8.s 			page 39


 1205 0148 52       		pushq	%rdx
 1206 0149 6A00     		pushq	$0
 1207 014b 6A00     		pushq	$0
 1208 014d 6A00     		pushq	$0
 1209 014f 41B90000 		movl	$0, %r9d
 1209      0000
 1210 0155 41B80000 		movl	$0, %r8d
 1210      0000
 1211 015b B9000000 		movl	$0, %ecx
 1211      00
 1212 0160 BA000000 		movl	$0, %edx
 1212      00
 1213 0165 BE000000 		movl	$0, %esi
 1213      00
 1214 016a 4889C7   		movq	%rax, %rdi
 1215 016d E8000000 		call	mbedtls_rsa_import_raw@PLT
 1215      00
 1216 0172 4883C430 		addq	$48, %rsp
 1217 0176 8945EC   		movl	%eax, -20(%rbp)
 1218              		.loc 2 556 7
 1219 0179 837DEC00 		cmpl	$0, -20(%rbp)
 1220 017d 7407     		je	.L75
 557:/home/xingli/share/LiteOS_Lab/network/dtls/mbedtls/mbedtls-2.16.2/library/pkparse.c ****                                         NULL, 0, *p, len ) ) != 0 )
 558:/home/xingli/share/LiteOS_Lab/network/dtls/mbedtls/mbedtls-2.16.2/library/pkparse.c ****         return( MBEDTLS_ERR_PK_INVALID_PUBKEY );
 1221              		.loc 2 558 15
 1222 017f B800C5FF 		movl	$-15104, %eax
 1222      FF
 1223 0184 EB55     		jmp	.L79
 1224              	.L75:
 559:/home/xingli/share/LiteOS_Lab/network/dtls/mbedtls/mbedtls-2.16.2/library/pkparse.c **** 
 560:/home/xingli/share/LiteOS_Lab/network/dtls/mbedtls/mbedtls-2.16.2/library/pkparse.c ****     *p += len;
 1225              		.loc 2 560 8
 1226 0186 488B45D8 		movq	-40(%rbp), %rax
 1227 018a 488B10   		movq	(%rax), %rdx
 1228 018d 488B45F0 		movq	-16(%rbp), %rax
 1229 0191 4801C2   		addq	%rax, %rdx
 1230 0194 488B45D8 		movq	-40(%rbp), %rax
 1231 0198 488910   		movq	%rdx, (%rax)
 561:/home/xingli/share/LiteOS_Lab/network/dtls/mbedtls/mbedtls-2.16.2/library/pkparse.c **** 
 562:/home/xingli/share/LiteOS_Lab/network/dtls/mbedtls/mbedtls-2.16.2/library/pkparse.c ****     if( mbedtls_rsa_complete( rsa ) != 0 ||
 1232              		.loc 2 562 9
 1233 019b 488B45C8 		movq	-56(%rbp), %rax
 1234 019f 4889C7   		movq	%rax, %rdi
 1235 01a2 E8000000 		call	mbedtls_rsa_complete@PLT
 1235      00
 1236              		.loc 2 562 7
 1237 01a7 85C0     		testl	%eax, %eax
 1238 01a9 7510     		jne	.L76
 563:/home/xingli/share/LiteOS_Lab/network/dtls/mbedtls/mbedtls-2.16.2/library/pkparse.c ****         mbedtls_rsa_check_pubkey( rsa ) != 0 )
 1239              		.loc 2 563 9 discriminator 1
 1240 01ab 488B45C8 		movq	-56(%rbp), %rax
 1241 01af 4889C7   		movq	%rax, %rdi
 1242 01b2 E8000000 		call	mbedtls_rsa_check_pubkey@PLT
 1242      00
 562:/home/xingli/share/LiteOS_Lab/network/dtls/mbedtls/mbedtls-2.16.2/library/pkparse.c ****         mbedtls_rsa_check_pubkey( rsa ) != 0 )
 1243              		.loc 2 562 42 discriminator 1
 1244 01b7 85C0     		testl	%eax, %eax
GAS LISTING /tmp/ccmvMAN8.s 			page 40


 1245 01b9 7407     		je	.L77
 1246              	.L76:
 564:/home/xingli/share/LiteOS_Lab/network/dtls/mbedtls/mbedtls-2.16.2/library/pkparse.c ****     {
 565:/home/xingli/share/LiteOS_Lab/network/dtls/mbedtls/mbedtls-2.16.2/library/pkparse.c ****         return( MBEDTLS_ERR_PK_INVALID_PUBKEY );
 1247              		.loc 2 565 15
 1248 01bb B800C5FF 		movl	$-15104, %eax
 1248      FF
 1249 01c0 EB19     		jmp	.L79
 1250              	.L77:
 566:/home/xingli/share/LiteOS_Lab/network/dtls/mbedtls/mbedtls-2.16.2/library/pkparse.c ****     }
 567:/home/xingli/share/LiteOS_Lab/network/dtls/mbedtls/mbedtls-2.16.2/library/pkparse.c **** 
 568:/home/xingli/share/LiteOS_Lab/network/dtls/mbedtls/mbedtls-2.16.2/library/pkparse.c ****     if( *p != end )
 1251              		.loc 2 568 9
 1252 01c2 488B45D8 		movq	-40(%rbp), %rax
 1253 01c6 488B00   		movq	(%rax), %rax
 1254              		.loc 2 568 7
 1255 01c9 483945D0 		cmpq	%rax, -48(%rbp)
 1256 01cd 7407     		je	.L78
 569:/home/xingli/share/LiteOS_Lab/network/dtls/mbedtls/mbedtls-2.16.2/library/pkparse.c ****         return( MBEDTLS_ERR_PK_INVALID_PUBKEY +
 1257              		.loc 2 569 15
 1258 01cf B89AC4FF 		movl	$-15206, %eax
 1258      FF
 1259 01d4 EB05     		jmp	.L79
 1260              	.L78:
 570:/home/xingli/share/LiteOS_Lab/network/dtls/mbedtls/mbedtls-2.16.2/library/pkparse.c ****                 MBEDTLS_ERR_ASN1_LENGTH_MISMATCH );
 571:/home/xingli/share/LiteOS_Lab/network/dtls/mbedtls/mbedtls-2.16.2/library/pkparse.c **** 
 572:/home/xingli/share/LiteOS_Lab/network/dtls/mbedtls/mbedtls-2.16.2/library/pkparse.c ****     return( 0 );
 1261              		.loc 2 572 11
 1262 01d6 B8000000 		movl	$0, %eax
 1262      00
 1263              	.L79:
 573:/home/xingli/share/LiteOS_Lab/network/dtls/mbedtls/mbedtls-2.16.2/library/pkparse.c **** }
 1264              		.loc 2 573 1 discriminator 1
 1265 01db 488B4DF8 		movq	-8(%rbp), %rcx
 1266 01df 6448330C 		xorq	%fs:40, %rcx
 1266      25280000 
 1266      00
 1267 01e8 7405     		je	.L80
 1268              		.loc 2 573 1 is_stmt 0
 1269 01ea E8000000 		call	__stack_chk_fail@PLT
 1269      00
 1270              	.L80:
 1271 01ef C9       		leave
 1272              	.LCFI26:
 1273              		.cfi_def_cfa 7, 8
 1274 01f0 C3       		ret
 1275              		.cfi_endproc
 1276              	.LFE22:
 1278              		.section	.text.pk_get_pk_alg,"ax",@progbits
 1280              	pk_get_pk_alg:
 1281              	.LFB23:
 574:/home/xingli/share/LiteOS_Lab/network/dtls/mbedtls/mbedtls-2.16.2/library/pkparse.c **** #endif /* MBEDTLS_RSA_C */
 575:/home/xingli/share/LiteOS_Lab/network/dtls/mbedtls/mbedtls-2.16.2/library/pkparse.c **** 
 576:/home/xingli/share/LiteOS_Lab/network/dtls/mbedtls/mbedtls-2.16.2/library/pkparse.c **** /* Get a PK algorithm identifier
 577:/home/xingli/share/LiteOS_Lab/network/dtls/mbedtls/mbedtls-2.16.2/library/pkparse.c ****  *
 578:/home/xingli/share/LiteOS_Lab/network/dtls/mbedtls/mbedtls-2.16.2/library/pkparse.c ****  *  AlgorithmIdentifier  ::=  SEQUENCE  {
 579:/home/xingli/share/LiteOS_Lab/network/dtls/mbedtls/mbedtls-2.16.2/library/pkparse.c ****  *       algorithm               OBJECT IDENTIFIER,
GAS LISTING /tmp/ccmvMAN8.s 			page 41


 580:/home/xingli/share/LiteOS_Lab/network/dtls/mbedtls/mbedtls-2.16.2/library/pkparse.c ****  *       parameters              ANY DEFINED BY algorithm OPTIONAL  }
 581:/home/xingli/share/LiteOS_Lab/network/dtls/mbedtls/mbedtls-2.16.2/library/pkparse.c ****  */
 582:/home/xingli/share/LiteOS_Lab/network/dtls/mbedtls/mbedtls-2.16.2/library/pkparse.c **** static int pk_get_pk_alg( unsigned char **p,
 583:/home/xingli/share/LiteOS_Lab/network/dtls/mbedtls/mbedtls-2.16.2/library/pkparse.c ****                           const unsigned char *end,
 584:/home/xingli/share/LiteOS_Lab/network/dtls/mbedtls/mbedtls-2.16.2/library/pkparse.c ****                           mbedtls_pk_type_t *pk_alg, mbedtls_asn1_buf *params )
 585:/home/xingli/share/LiteOS_Lab/network/dtls/mbedtls/mbedtls-2.16.2/library/pkparse.c **** {
 1282              		.loc 2 585 1 is_stmt 1
 1283              		.cfi_startproc
 1284 0000 F30F1EFA 		endbr64
 1285 0004 55       		pushq	%rbp
 1286              	.LCFI27:
 1287              		.cfi_def_cfa_offset 16
 1288              		.cfi_offset 6, -16
 1289 0005 4889E5   		movq	%rsp, %rbp
 1290              	.LCFI28:
 1291              		.cfi_def_cfa_register 6
 1292 0008 4883EC50 		subq	$80, %rsp
 1293 000c 48897DC8 		movq	%rdi, -56(%rbp)
 1294 0010 488975C0 		movq	%rsi, -64(%rbp)
 1295 0014 488955B8 		movq	%rdx, -72(%rbp)
 1296 0018 48894DB0 		movq	%rcx, -80(%rbp)
 1297              		.loc 2 585 1
 1298 001c 64488B04 		movq	%fs:40, %rax
 1298      25280000 
 1298      00
 1299 0025 488945F8 		movq	%rax, -8(%rbp)
 1300 0029 31C0     		xorl	%eax, %eax
 586:/home/xingli/share/LiteOS_Lab/network/dtls/mbedtls/mbedtls-2.16.2/library/pkparse.c ****     int ret;
 587:/home/xingli/share/LiteOS_Lab/network/dtls/mbedtls/mbedtls-2.16.2/library/pkparse.c ****     mbedtls_asn1_buf alg_oid;
 588:/home/xingli/share/LiteOS_Lab/network/dtls/mbedtls/mbedtls-2.16.2/library/pkparse.c **** 
 589:/home/xingli/share/LiteOS_Lab/network/dtls/mbedtls/mbedtls-2.16.2/library/pkparse.c ****     memset( params, 0, sizeof(mbedtls_asn1_buf) );
 1301              		.loc 2 589 5
 1302 002b 488B45B0 		movq	-80(%rbp), %rax
 1303 002f BA180000 		movl	$24, %edx
 1303      00
 1304 0034 BE000000 		movl	$0, %esi
 1304      00
 1305 0039 4889C7   		movq	%rax, %rdi
 1306 003c E8000000 		call	memset@PLT
 1306      00
 590:/home/xingli/share/LiteOS_Lab/network/dtls/mbedtls/mbedtls-2.16.2/library/pkparse.c **** 
 591:/home/xingli/share/LiteOS_Lab/network/dtls/mbedtls/mbedtls-2.16.2/library/pkparse.c ****     if( ( ret = mbedtls_asn1_get_alg( p, end, &alg_oid, params ) ) != 0 )
 1307              		.loc 2 591 17
 1308 0041 488B4DB0 		movq	-80(%rbp), %rcx
 1309 0045 488D55E0 		leaq	-32(%rbp), %rdx
 1310 0049 488B75C0 		movq	-64(%rbp), %rsi
 1311 004d 488B45C8 		movq	-56(%rbp), %rax
 1312 0051 4889C7   		movq	%rax, %rdi
 1313 0054 E8000000 		call	mbedtls_asn1_get_alg@PLT
 1313      00
 1314 0059 8945DC   		movl	%eax, -36(%rbp)
 1315              		.loc 2 591 7
 1316 005c 837DDC00 		cmpl	$0, -36(%rbp)
 1317 0060 740A     		je	.L82
 592:/home/xingli/share/LiteOS_Lab/network/dtls/mbedtls/mbedtls-2.16.2/library/pkparse.c ****         return( MBEDTLS_ERR_PK_INVALID_ALG + ret );
 1318              		.loc 2 592 44
 1319 0062 8B45DC   		movl	-36(%rbp), %eax
GAS LISTING /tmp/ccmvMAN8.s 			page 42


 1320 0065 2D803A00 		subl	$14976, %eax
 1320      00
 1321 006a EB57     		jmp	.L88
 1322              	.L82:
 593:/home/xingli/share/LiteOS_Lab/network/dtls/mbedtls/mbedtls-2.16.2/library/pkparse.c **** 
 594:/home/xingli/share/LiteOS_Lab/network/dtls/mbedtls/mbedtls-2.16.2/library/pkparse.c ****     if( mbedtls_oid_get_pk_alg( &alg_oid, pk_alg ) != 0 )
 1323              		.loc 2 594 9
 1324 006c 488B55B8 		movq	-72(%rbp), %rdx
 1325 0070 488D45E0 		leaq	-32(%rbp), %rax
 1326 0074 4889D6   		movq	%rdx, %rsi
 1327 0077 4889C7   		movq	%rax, %rdi
 1328 007a E8000000 		call	mbedtls_oid_get_pk_alg@PLT
 1328      00
 1329              		.loc 2 594 7
 1330 007f 85C0     		testl	%eax, %eax
 1331 0081 7407     		je	.L84
 595:/home/xingli/share/LiteOS_Lab/network/dtls/mbedtls/mbedtls-2.16.2/library/pkparse.c ****         return( MBEDTLS_ERR_PK_UNKNOWN_PK_ALG );
 1332              		.loc 2 595 15
 1333 0083 B880C3FF 		movl	$-15488, %eax
 1333      FF
 1334 0088 EB39     		jmp	.L88
 1335              	.L84:
 596:/home/xingli/share/LiteOS_Lab/network/dtls/mbedtls/mbedtls-2.16.2/library/pkparse.c **** 
 597:/home/xingli/share/LiteOS_Lab/network/dtls/mbedtls/mbedtls-2.16.2/library/pkparse.c ****     /*
 598:/home/xingli/share/LiteOS_Lab/network/dtls/mbedtls/mbedtls-2.16.2/library/pkparse.c ****      * No parameters with RSA (only for EC)
 599:/home/xingli/share/LiteOS_Lab/network/dtls/mbedtls/mbedtls-2.16.2/library/pkparse.c ****      */
 600:/home/xingli/share/LiteOS_Lab/network/dtls/mbedtls/mbedtls-2.16.2/library/pkparse.c ****     if( *pk_alg == MBEDTLS_PK_RSA &&
 1336              		.loc 2 600 9
 1337 008a 488B45B8 		movq	-72(%rbp), %rax
 1338 008e 8B00     		movl	(%rax), %eax
 1339              		.loc 2 600 7
 1340 0090 83F801   		cmpl	$1, %eax
 1341 0093 7529     		jne	.L85
 601:/home/xingli/share/LiteOS_Lab/network/dtls/mbedtls/mbedtls-2.16.2/library/pkparse.c ****             ( ( params->tag != MBEDTLS_ASN1_NULL && params->tag != 0 ) ||
 1342              		.loc 2 601 23 discriminator 1
 1343 0095 488B45B0 		movq	-80(%rbp), %rax
 1344 0099 8B00     		movl	(%rax), %eax
 600:/home/xingli/share/LiteOS_Lab/network/dtls/mbedtls/mbedtls-2.16.2/library/pkparse.c ****             ( ( params->tag != MBEDTLS_ASN1_NULL && params->tag != 0 ) ||
 1345              		.loc 2 600 35 discriminator 1
 1346 009b 83F805   		cmpl	$5, %eax
 1347 009e 740A     		je	.L86
 1348              		.loc 2 601 59
 1349 00a0 488B45B0 		movq	-80(%rbp), %rax
 1350 00a4 8B00     		movl	(%rax), %eax
 1351              		.loc 2 601 50
 1352 00a6 85C0     		testl	%eax, %eax
 1353 00a8 750D     		jne	.L87
 1354              	.L86:
 602:/home/xingli/share/LiteOS_Lab/network/dtls/mbedtls/mbedtls-2.16.2/library/pkparse.c ****                 params->len != 0 ) )
 1355              		.loc 2 602 23 discriminator 1
 1356 00aa 488B45B0 		movq	-80(%rbp), %rax
 1357 00ae 488B4008 		movq	8(%rax), %rax
 601:/home/xingli/share/LiteOS_Lab/network/dtls/mbedtls/mbedtls-2.16.2/library/pkparse.c ****             ( ( params->tag != MBEDTLS_ASN1_NULL && params->tag != 0 ) ||
 1358              		.loc 2 601 72 discriminator 1
 1359 00b2 4885C0   		testq	%rax, %rax
 1360 00b5 7407     		je	.L85
 1361              	.L87:
GAS LISTING /tmp/ccmvMAN8.s 			page 43


 603:/home/xingli/share/LiteOS_Lab/network/dtls/mbedtls/mbedtls-2.16.2/library/pkparse.c ****     {
 604:/home/xingli/share/LiteOS_Lab/network/dtls/mbedtls/mbedtls-2.16.2/library/pkparse.c ****         return( MBEDTLS_ERR_PK_INVALID_ALG );
 1362              		.loc 2 604 15
 1363 00b7 B880C5FF 		movl	$-14976, %eax
 1363      FF
 1364 00bc EB05     		jmp	.L88
 1365              	.L85:
 605:/home/xingli/share/LiteOS_Lab/network/dtls/mbedtls/mbedtls-2.16.2/library/pkparse.c ****     }
 606:/home/xingli/share/LiteOS_Lab/network/dtls/mbedtls/mbedtls-2.16.2/library/pkparse.c **** 
 607:/home/xingli/share/LiteOS_Lab/network/dtls/mbedtls/mbedtls-2.16.2/library/pkparse.c ****     return( 0 );
 1366              		.loc 2 607 11
 1367 00be B8000000 		movl	$0, %eax
 1367      00
 1368              	.L88:
 608:/home/xingli/share/LiteOS_Lab/network/dtls/mbedtls/mbedtls-2.16.2/library/pkparse.c **** }
 1369              		.loc 2 608 1 discriminator 1
 1370 00c3 488B4DF8 		movq	-8(%rbp), %rcx
 1371 00c7 6448330C 		xorq	%fs:40, %rcx
 1371      25280000 
 1371      00
 1372 00d0 7405     		je	.L89
 1373              		.loc 2 608 1 is_stmt 0
 1374 00d2 E8000000 		call	__stack_chk_fail@PLT
 1374      00
 1375              	.L89:
 1376 00d7 C9       		leave
 1377              	.LCFI29:
 1378              		.cfi_def_cfa 7, 8
 1379 00d8 C3       		ret
 1380              		.cfi_endproc
 1381              	.LFE23:
 1383              		.section	.text.mbedtls_pk_parse_subpubkey,"ax",@progbits
 1384              		.globl	mbedtls_pk_parse_subpubkey
 1386              	mbedtls_pk_parse_subpubkey:
 1387              	.LFB24:
 609:/home/xingli/share/LiteOS_Lab/network/dtls/mbedtls/mbedtls-2.16.2/library/pkparse.c **** 
 610:/home/xingli/share/LiteOS_Lab/network/dtls/mbedtls/mbedtls-2.16.2/library/pkparse.c **** /*
 611:/home/xingli/share/LiteOS_Lab/network/dtls/mbedtls/mbedtls-2.16.2/library/pkparse.c ****  *  SubjectPublicKeyInfo  ::=  SEQUENCE  {
 612:/home/xingli/share/LiteOS_Lab/network/dtls/mbedtls/mbedtls-2.16.2/library/pkparse.c ****  *       algorithm            AlgorithmIdentifier,
 613:/home/xingli/share/LiteOS_Lab/network/dtls/mbedtls/mbedtls-2.16.2/library/pkparse.c ****  *       subjectPublicKey     BIT STRING }
 614:/home/xingli/share/LiteOS_Lab/network/dtls/mbedtls/mbedtls-2.16.2/library/pkparse.c ****  */
 615:/home/xingli/share/LiteOS_Lab/network/dtls/mbedtls/mbedtls-2.16.2/library/pkparse.c **** int mbedtls_pk_parse_subpubkey( unsigned char **p, const unsigned char *end,
 616:/home/xingli/share/LiteOS_Lab/network/dtls/mbedtls/mbedtls-2.16.2/library/pkparse.c ****                         mbedtls_pk_context *pk )
 617:/home/xingli/share/LiteOS_Lab/network/dtls/mbedtls/mbedtls-2.16.2/library/pkparse.c **** {
 1388              		.loc 2 617 1 is_stmt 1
 1389              		.cfi_startproc
 1390 0000 F30F1EFA 		endbr64
 1391 0004 55       		pushq	%rbp
 1392              	.LCFI30:
 1393              		.cfi_def_cfa_offset 16
 1394              		.cfi_offset 6, -16
 1395 0005 4889E5   		movq	%rsp, %rbp
 1396              	.LCFI31:
 1397              		.cfi_def_cfa_register 6
 1398 0008 4883EC60 		subq	$96, %rsp
 1399 000c 48897DB8 		movq	%rdi, -72(%rbp)
 1400 0010 488975B0 		movq	%rsi, -80(%rbp)
GAS LISTING /tmp/ccmvMAN8.s 			page 44


 1401 0014 488955A8 		movq	%rdx, -88(%rbp)
 1402              		.loc 2 617 1
 1403 0018 64488B04 		movq	%fs:40, %rax
 1403      25280000 
 1403      00
 1404 0021 488945F8 		movq	%rax, -8(%rbp)
 1405 0025 31C0     		xorl	%eax, %eax
 618:/home/xingli/share/LiteOS_Lab/network/dtls/mbedtls/mbedtls-2.16.2/library/pkparse.c ****     int ret;
 619:/home/xingli/share/LiteOS_Lab/network/dtls/mbedtls/mbedtls-2.16.2/library/pkparse.c ****     size_t len;
 620:/home/xingli/share/LiteOS_Lab/network/dtls/mbedtls/mbedtls-2.16.2/library/pkparse.c ****     mbedtls_asn1_buf alg_params;
 621:/home/xingli/share/LiteOS_Lab/network/dtls/mbedtls/mbedtls-2.16.2/library/pkparse.c ****     mbedtls_pk_type_t pk_alg = MBEDTLS_PK_NONE;
 1406              		.loc 2 621 23
 1407 0027 C745C800 		movl	$0, -56(%rbp)
 1407      000000
 622:/home/xingli/share/LiteOS_Lab/network/dtls/mbedtls/mbedtls-2.16.2/library/pkparse.c ****     const mbedtls_pk_info_t *pk_info;
 623:/home/xingli/share/LiteOS_Lab/network/dtls/mbedtls/mbedtls-2.16.2/library/pkparse.c **** 
 624:/home/xingli/share/LiteOS_Lab/network/dtls/mbedtls/mbedtls-2.16.2/library/pkparse.c ****     PK_VALIDATE_RET( p != NULL );
 625:/home/xingli/share/LiteOS_Lab/network/dtls/mbedtls/mbedtls-2.16.2/library/pkparse.c ****     PK_VALIDATE_RET( *p != NULL );
 626:/home/xingli/share/LiteOS_Lab/network/dtls/mbedtls/mbedtls-2.16.2/library/pkparse.c ****     PK_VALIDATE_RET( end != NULL );
 627:/home/xingli/share/LiteOS_Lab/network/dtls/mbedtls/mbedtls-2.16.2/library/pkparse.c ****     PK_VALIDATE_RET( pk != NULL );
 628:/home/xingli/share/LiteOS_Lab/network/dtls/mbedtls/mbedtls-2.16.2/library/pkparse.c **** 
 629:/home/xingli/share/LiteOS_Lab/network/dtls/mbedtls/mbedtls-2.16.2/library/pkparse.c ****     if( ( ret = mbedtls_asn1_get_tag( p, end, &len,
 1408              		.loc 2 629 17
 1409 002e 488D55D0 		leaq	-48(%rbp), %rdx
 1410 0032 488B75B0 		movq	-80(%rbp), %rsi
 1411 0036 488B45B8 		movq	-72(%rbp), %rax
 1412 003a B9300000 		movl	$48, %ecx
 1412      00
 1413 003f 4889C7   		movq	%rax, %rdi
 1414 0042 E8000000 		call	mbedtls_asn1_get_tag@PLT
 1414      00
 1415 0047 8945CC   		movl	%eax, -52(%rbp)
 1416              		.loc 2 629 7
 1417 004a 837DCC00 		cmpl	$0, -52(%rbp)
 1418 004e 740D     		je	.L91
 630:/home/xingli/share/LiteOS_Lab/network/dtls/mbedtls/mbedtls-2.16.2/library/pkparse.c ****                     MBEDTLS_ASN1_CONSTRUCTED | MBEDTLS_ASN1_SEQUENCE ) ) != 0 )
 631:/home/xingli/share/LiteOS_Lab/network/dtls/mbedtls/mbedtls-2.16.2/library/pkparse.c ****     {
 632:/home/xingli/share/LiteOS_Lab/network/dtls/mbedtls/mbedtls-2.16.2/library/pkparse.c ****         return( MBEDTLS_ERR_PK_KEY_INVALID_FORMAT + ret );
 1419              		.loc 2 632 51
 1420 0050 8B45CC   		movl	-52(%rbp), %eax
 1421 0053 2D003D00 		subl	$15616, %eax
 1421      00
 1422 0058 E9AA0100 		jmp	.L105
 1422      00
 1423              	.L91:
 633:/home/xingli/share/LiteOS_Lab/network/dtls/mbedtls/mbedtls-2.16.2/library/pkparse.c ****     }
 634:/home/xingli/share/LiteOS_Lab/network/dtls/mbedtls/mbedtls-2.16.2/library/pkparse.c **** 
 635:/home/xingli/share/LiteOS_Lab/network/dtls/mbedtls/mbedtls-2.16.2/library/pkparse.c ****     end = *p + len;
 1424              		.loc 2 635 11
 1425 005d 488B45B8 		movq	-72(%rbp), %rax
 1426 0061 488B10   		movq	(%rax), %rdx
 1427              		.loc 2 635 14
 1428 0064 488B45D0 		movq	-48(%rbp), %rax
 1429              		.loc 2 635 9
 1430 0068 4801D0   		addq	%rdx, %rax
 1431 006b 488945B0 		movq	%rax, -80(%rbp)
 636:/home/xingli/share/LiteOS_Lab/network/dtls/mbedtls/mbedtls-2.16.2/library/pkparse.c **** 
GAS LISTING /tmp/ccmvMAN8.s 			page 45


 637:/home/xingli/share/LiteOS_Lab/network/dtls/mbedtls/mbedtls-2.16.2/library/pkparse.c ****     if( ( ret = pk_get_pk_alg( p, end, &pk_alg, &alg_params ) ) != 0 )
 1432              		.loc 2 637 17
 1433 006f 488D4DE0 		leaq	-32(%rbp), %rcx
 1434 0073 488D55C8 		leaq	-56(%rbp), %rdx
 1435 0077 488B75B0 		movq	-80(%rbp), %rsi
 1436 007b 488B45B8 		movq	-72(%rbp), %rax
 1437 007f 4889C7   		movq	%rax, %rdi
 1438 0082 E8000000 		call	pk_get_pk_alg
 1438      00
 1439 0087 8945CC   		movl	%eax, -52(%rbp)
 1440              		.loc 2 637 7
 1441 008a 837DCC00 		cmpl	$0, -52(%rbp)
 1442 008e 7408     		je	.L93
 638:/home/xingli/share/LiteOS_Lab/network/dtls/mbedtls/mbedtls-2.16.2/library/pkparse.c ****         return( ret );
 1443              		.loc 2 638 15
 1444 0090 8B45CC   		movl	-52(%rbp), %eax
 1445 0093 E96F0100 		jmp	.L105
 1445      00
 1446              	.L93:
 639:/home/xingli/share/LiteOS_Lab/network/dtls/mbedtls/mbedtls-2.16.2/library/pkparse.c **** 
 640:/home/xingli/share/LiteOS_Lab/network/dtls/mbedtls/mbedtls-2.16.2/library/pkparse.c ****     if( ( ret = mbedtls_asn1_get_bitstring_null( p, end, &len ) ) != 0 )
 1447              		.loc 2 640 17
 1448 0098 488D55D0 		leaq	-48(%rbp), %rdx
 1449 009c 488B4DB0 		movq	-80(%rbp), %rcx
 1450 00a0 488B45B8 		movq	-72(%rbp), %rax
 1451 00a4 4889CE   		movq	%rcx, %rsi
 1452 00a7 4889C7   		movq	%rax, %rdi
 1453 00aa E8000000 		call	mbedtls_asn1_get_bitstring_null@PLT
 1453      00
 1454 00af 8945CC   		movl	%eax, -52(%rbp)
 1455              		.loc 2 640 7
 1456 00b2 837DCC00 		cmpl	$0, -52(%rbp)
 1457 00b6 740D     		je	.L94
 641:/home/xingli/share/LiteOS_Lab/network/dtls/mbedtls/mbedtls-2.16.2/library/pkparse.c ****         return( MBEDTLS_ERR_PK_INVALID_PUBKEY + ret );
 1458              		.loc 2 641 47
 1459 00b8 8B45CC   		movl	-52(%rbp), %eax
 1460 00bb 2D003B00 		subl	$15104, %eax
 1460      00
 1461 00c0 E9420100 		jmp	.L105
 1461      00
 1462              	.L94:
 642:/home/xingli/share/LiteOS_Lab/network/dtls/mbedtls/mbedtls-2.16.2/library/pkparse.c **** 
 643:/home/xingli/share/LiteOS_Lab/network/dtls/mbedtls/mbedtls-2.16.2/library/pkparse.c ****     if( *p + len != end )
 1463              		.loc 2 643 9
 1464 00c5 488B45B8 		movq	-72(%rbp), %rax
 1465 00c9 488B10   		movq	(%rax), %rdx
 1466              		.loc 2 643 12
 1467 00cc 488B45D0 		movq	-48(%rbp), %rax
 1468 00d0 4801D0   		addq	%rdx, %rax
 1469              		.loc 2 643 7
 1470 00d3 483945B0 		cmpq	%rax, -80(%rbp)
 1471 00d7 740A     		je	.L95
 644:/home/xingli/share/LiteOS_Lab/network/dtls/mbedtls/mbedtls-2.16.2/library/pkparse.c ****         return( MBEDTLS_ERR_PK_INVALID_PUBKEY +
 1472              		.loc 2 644 15
 1473 00d9 B89AC4FF 		movl	$-15206, %eax
 1473      FF
 1474 00de E9240100 		jmp	.L105
GAS LISTING /tmp/ccmvMAN8.s 			page 46


 1474      00
 1475              	.L95:
 645:/home/xingli/share/LiteOS_Lab/network/dtls/mbedtls/mbedtls-2.16.2/library/pkparse.c ****                 MBEDTLS_ERR_ASN1_LENGTH_MISMATCH );
 646:/home/xingli/share/LiteOS_Lab/network/dtls/mbedtls/mbedtls-2.16.2/library/pkparse.c **** 
 647:/home/xingli/share/LiteOS_Lab/network/dtls/mbedtls/mbedtls-2.16.2/library/pkparse.c ****     if( ( pk_info = mbedtls_pk_info_from_type( pk_alg ) ) == NULL )
 1476              		.loc 2 647 21
 1477 00e3 8B45C8   		movl	-56(%rbp), %eax
 1478 00e6 89C7     		movl	%eax, %edi
 1479 00e8 E8000000 		call	mbedtls_pk_info_from_type@PLT
 1479      00
 1480 00ed 488945D8 		movq	%rax, -40(%rbp)
 1481              		.loc 2 647 7
 1482 00f1 48837DD8 		cmpq	$0, -40(%rbp)
 1482      00
 1483 00f6 750A     		jne	.L96
 648:/home/xingli/share/LiteOS_Lab/network/dtls/mbedtls/mbedtls-2.16.2/library/pkparse.c ****         return( MBEDTLS_ERR_PK_UNKNOWN_PK_ALG );
 1484              		.loc 2 648 15
 1485 00f8 B880C3FF 		movl	$-15488, %eax
 1485      FF
 1486 00fd E9050100 		jmp	.L105
 1486      00
 1487              	.L96:
 649:/home/xingli/share/LiteOS_Lab/network/dtls/mbedtls/mbedtls-2.16.2/library/pkparse.c **** 
 650:/home/xingli/share/LiteOS_Lab/network/dtls/mbedtls/mbedtls-2.16.2/library/pkparse.c ****     if( ( ret = mbedtls_pk_setup( pk, pk_info ) ) != 0 )
 1488              		.loc 2 650 17
 1489 0102 488B55D8 		movq	-40(%rbp), %rdx
 1490 0106 488B45A8 		movq	-88(%rbp), %rax
 1491 010a 4889D6   		movq	%rdx, %rsi
 1492 010d 4889C7   		movq	%rax, %rdi
 1493 0110 E8000000 		call	mbedtls_pk_setup@PLT
 1493      00
 1494 0115 8945CC   		movl	%eax, -52(%rbp)
 1495              		.loc 2 650 7
 1496 0118 837DCC00 		cmpl	$0, -52(%rbp)
 1497 011c 7408     		je	.L97
 651:/home/xingli/share/LiteOS_Lab/network/dtls/mbedtls/mbedtls-2.16.2/library/pkparse.c ****         return( ret );
 1498              		.loc 2 651 15
 1499 011e 8B45CC   		movl	-52(%rbp), %eax
 1500 0121 E9E10000 		jmp	.L105
 1500      00
 1501              	.L97:
 652:/home/xingli/share/LiteOS_Lab/network/dtls/mbedtls/mbedtls-2.16.2/library/pkparse.c **** 
 653:/home/xingli/share/LiteOS_Lab/network/dtls/mbedtls/mbedtls-2.16.2/library/pkparse.c **** #if defined(MBEDTLS_RSA_C)
 654:/home/xingli/share/LiteOS_Lab/network/dtls/mbedtls/mbedtls-2.16.2/library/pkparse.c ****     if( pk_alg == MBEDTLS_PK_RSA )
 1502              		.loc 2 654 16
 1503 0126 8B45C8   		movl	-56(%rbp), %eax
 1504              		.loc 2 654 7
 1505 0129 83F801   		cmpl	$1, %eax
 1506 012c 7531     		jne	.L98
 655:/home/xingli/share/LiteOS_Lab/network/dtls/mbedtls/mbedtls-2.16.2/library/pkparse.c ****     {
 656:/home/xingli/share/LiteOS_Lab/network/dtls/mbedtls/mbedtls-2.16.2/library/pkparse.c ****         ret = pk_get_rsapubkey( p, end, mbedtls_pk_rsa( *pk ) );
 1507              		.loc 2 656 15
 1508 012e 488B45A8 		movq	-88(%rbp), %rax
 1509 0132 488B10   		movq	(%rax), %rdx
 1510 0135 488B4008 		movq	8(%rax), %rax
 1511 0139 4889D7   		movq	%rdx, %rdi
 1512 013c 4889C6   		movq	%rax, %rsi
GAS LISTING /tmp/ccmvMAN8.s 			page 47


 1513 013f E8000000 		call	mbedtls_pk_rsa
 1513      00
 1514 0144 4889C2   		movq	%rax, %rdx
 1515 0147 488B4DB0 		movq	-80(%rbp), %rcx
 1516 014b 488B45B8 		movq	-72(%rbp), %rax
 1517 014f 4889CE   		movq	%rcx, %rsi
 1518 0152 4889C7   		movq	%rax, %rdi
 1519 0155 E8000000 		call	pk_get_rsapubkey
 1519      00
 1520 015a 8945CC   		movl	%eax, -52(%rbp)
 1521 015d EB79     		jmp	.L99
 1522              	.L98:
 657:/home/xingli/share/LiteOS_Lab/network/dtls/mbedtls/mbedtls-2.16.2/library/pkparse.c ****     } else
 658:/home/xingli/share/LiteOS_Lab/network/dtls/mbedtls/mbedtls-2.16.2/library/pkparse.c **** #endif /* MBEDTLS_RSA_C */
 659:/home/xingli/share/LiteOS_Lab/network/dtls/mbedtls/mbedtls-2.16.2/library/pkparse.c **** #if defined(MBEDTLS_ECP_C)
 660:/home/xingli/share/LiteOS_Lab/network/dtls/mbedtls/mbedtls-2.16.2/library/pkparse.c ****     if( pk_alg == MBEDTLS_PK_ECKEY_DH || pk_alg == MBEDTLS_PK_ECKEY )
 1523              		.loc 2 660 16
 1524 015f 8B45C8   		movl	-56(%rbp), %eax
 1525              		.loc 2 660 7
 1526 0162 83F803   		cmpl	$3, %eax
 1527 0165 7408     		je	.L100
 1528              		.loc 2 660 49 discriminator 1
 1529 0167 8B45C8   		movl	-56(%rbp), %eax
 1530              		.loc 2 660 39 discriminator 1
 1531 016a 83F802   		cmpl	$2, %eax
 1532 016d 7562     		jne	.L101
 1533              	.L100:
 661:/home/xingli/share/LiteOS_Lab/network/dtls/mbedtls/mbedtls-2.16.2/library/pkparse.c ****     {
 662:/home/xingli/share/LiteOS_Lab/network/dtls/mbedtls/mbedtls-2.16.2/library/pkparse.c ****         ret = pk_use_ecparams( &alg_params, &mbedtls_pk_ec( *pk )->grp );
 1534              		.loc 2 662 46
 1535 016f 488B45A8 		movq	-88(%rbp), %rax
 1536 0173 488B10   		movq	(%rax), %rdx
 1537 0176 488B4008 		movq	8(%rax), %rax
 1538 017a 4889D7   		movq	%rdx, %rdi
 1539 017d 4889C6   		movq	%rax, %rsi
 1540 0180 E8000000 		call	mbedtls_pk_ec
 1540      00
 1541              		.loc 2 662 15
 1542 0185 4889C2   		movq	%rax, %rdx
 1543 0188 488D45E0 		leaq	-32(%rbp), %rax
 1544 018c 4889D6   		movq	%rdx, %rsi
 1545 018f 4889C7   		movq	%rax, %rdi
 1546 0192 E8000000 		call	pk_use_ecparams
 1546      00
 1547 0197 8945CC   		movl	%eax, -52(%rbp)
 663:/home/xingli/share/LiteOS_Lab/network/dtls/mbedtls/mbedtls-2.16.2/library/pkparse.c ****         if( ret == 0 )
 1548              		.loc 2 663 11
 1549 019a 837DCC00 		cmpl	$0, -52(%rbp)
 1550 019e 7538     		jne	.L99
 664:/home/xingli/share/LiteOS_Lab/network/dtls/mbedtls/mbedtls-2.16.2/library/pkparse.c ****             ret = pk_get_ecpubkey( p, end, mbedtls_pk_ec( *pk ) );
 1551              		.loc 2 664 19
 1552 01a0 488B45A8 		movq	-88(%rbp), %rax
 1553 01a4 488B10   		movq	(%rax), %rdx
 1554 01a7 488B4008 		movq	8(%rax), %rax
 1555 01ab 4889D7   		movq	%rdx, %rdi
 1556 01ae 4889C6   		movq	%rax, %rsi
 1557 01b1 E8000000 		call	mbedtls_pk_ec
GAS LISTING /tmp/ccmvMAN8.s 			page 48


 1557      00
 1558 01b6 4889C2   		movq	%rax, %rdx
 1559 01b9 488B4DB0 		movq	-80(%rbp), %rcx
 1560 01bd 488B45B8 		movq	-72(%rbp), %rax
 1561 01c1 4889CE   		movq	%rcx, %rsi
 1562 01c4 4889C7   		movq	%rax, %rdi
 1563 01c7 E8000000 		call	pk_get_ecpubkey
 1563      00
 1564 01cc 8945CC   		movl	%eax, -52(%rbp)
 663:/home/xingli/share/LiteOS_Lab/network/dtls/mbedtls/mbedtls-2.16.2/library/pkparse.c ****         if( ret == 0 )
 1565              		.loc 2 663 11
 1566 01cf EB07     		jmp	.L99
 1567              	.L101:
 665:/home/xingli/share/LiteOS_Lab/network/dtls/mbedtls/mbedtls-2.16.2/library/pkparse.c ****     } else
 666:/home/xingli/share/LiteOS_Lab/network/dtls/mbedtls/mbedtls-2.16.2/library/pkparse.c **** #endif /* MBEDTLS_ECP_C */
 667:/home/xingli/share/LiteOS_Lab/network/dtls/mbedtls/mbedtls-2.16.2/library/pkparse.c ****         ret = MBEDTLS_ERR_PK_UNKNOWN_PK_ALG;
 1568              		.loc 2 667 13
 1569 01d1 C745CC80 		movl	$-15488, -52(%rbp)
 1569      C3FFFF
 1570              	.L99:
 668:/home/xingli/share/LiteOS_Lab/network/dtls/mbedtls/mbedtls-2.16.2/library/pkparse.c **** 
 669:/home/xingli/share/LiteOS_Lab/network/dtls/mbedtls/mbedtls-2.16.2/library/pkparse.c ****     if( ret == 0 && *p != end )
 1571              		.loc 2 669 7
 1572 01d8 837DCC00 		cmpl	$0, -52(%rbp)
 1573 01dc 7514     		jne	.L103
 1574              		.loc 2 669 21 discriminator 1
 1575 01de 488B45B8 		movq	-72(%rbp), %rax
 1576 01e2 488B00   		movq	(%rax), %rax
 1577              		.loc 2 669 18 discriminator 1
 1578 01e5 483945B0 		cmpq	%rax, -80(%rbp)
 1579 01e9 7407     		je	.L103
 670:/home/xingli/share/LiteOS_Lab/network/dtls/mbedtls/mbedtls-2.16.2/library/pkparse.c ****         ret = MBEDTLS_ERR_PK_INVALID_PUBKEY
 1580              		.loc 2 670 13
 1581 01eb C745CC9A 		movl	$-15206, -52(%rbp)
 1581      C4FFFF
 1582              	.L103:
 671:/home/xingli/share/LiteOS_Lab/network/dtls/mbedtls/mbedtls-2.16.2/library/pkparse.c ****               MBEDTLS_ERR_ASN1_LENGTH_MISMATCH;
 672:/home/xingli/share/LiteOS_Lab/network/dtls/mbedtls/mbedtls-2.16.2/library/pkparse.c **** 
 673:/home/xingli/share/LiteOS_Lab/network/dtls/mbedtls/mbedtls-2.16.2/library/pkparse.c ****     if( ret != 0 )
 1583              		.loc 2 673 7
 1584 01f2 837DCC00 		cmpl	$0, -52(%rbp)
 1585 01f6 740C     		je	.L104
 674:/home/xingli/share/LiteOS_Lab/network/dtls/mbedtls/mbedtls-2.16.2/library/pkparse.c ****         mbedtls_pk_free( pk );
 1586              		.loc 2 674 9
 1587 01f8 488B45A8 		movq	-88(%rbp), %rax
 1588 01fc 4889C7   		movq	%rax, %rdi
 1589 01ff E8000000 		call	mbedtls_pk_free@PLT
 1589      00
 1590              	.L104:
 675:/home/xingli/share/LiteOS_Lab/network/dtls/mbedtls/mbedtls-2.16.2/library/pkparse.c **** 
 676:/home/xingli/share/LiteOS_Lab/network/dtls/mbedtls/mbedtls-2.16.2/library/pkparse.c ****     return( ret );
 1591              		.loc 2 676 11
 1592 0204 8B45CC   		movl	-52(%rbp), %eax
 1593              	.L105:
 677:/home/xingli/share/LiteOS_Lab/network/dtls/mbedtls/mbedtls-2.16.2/library/pkparse.c **** }
 1594              		.loc 2 677 1 discriminator 1
 1595 0207 488B4DF8 		movq	-8(%rbp), %rcx
GAS LISTING /tmp/ccmvMAN8.s 			page 49


 1596 020b 6448330C 		xorq	%fs:40, %rcx
 1596      25280000 
 1596      00
 1597 0214 7405     		je	.L106
 1598              		.loc 2 677 1 is_stmt 0
 1599 0216 E8000000 		call	__stack_chk_fail@PLT
 1599      00
 1600              	.L106:
 1601 021b C9       		leave
 1602              	.LCFI32:
 1603              		.cfi_def_cfa 7, 8
 1604 021c C3       		ret
 1605              		.cfi_endproc
 1606              	.LFE24:
 1608              		.section	.text.pk_parse_key_pkcs1_der,"ax",@progbits
 1610              	pk_parse_key_pkcs1_der:
 1611              	.LFB25:
 678:/home/xingli/share/LiteOS_Lab/network/dtls/mbedtls/mbedtls-2.16.2/library/pkparse.c **** 
 679:/home/xingli/share/LiteOS_Lab/network/dtls/mbedtls/mbedtls-2.16.2/library/pkparse.c **** #if defined(MBEDTLS_RSA_C)
 680:/home/xingli/share/LiteOS_Lab/network/dtls/mbedtls/mbedtls-2.16.2/library/pkparse.c **** /*
 681:/home/xingli/share/LiteOS_Lab/network/dtls/mbedtls/mbedtls-2.16.2/library/pkparse.c ****  * Parse a PKCS#1 encoded private RSA key
 682:/home/xingli/share/LiteOS_Lab/network/dtls/mbedtls/mbedtls-2.16.2/library/pkparse.c ****  */
 683:/home/xingli/share/LiteOS_Lab/network/dtls/mbedtls/mbedtls-2.16.2/library/pkparse.c **** static int pk_parse_key_pkcs1_der( mbedtls_rsa_context *rsa,
 684:/home/xingli/share/LiteOS_Lab/network/dtls/mbedtls/mbedtls-2.16.2/library/pkparse.c ****                                    const unsigned char *key,
 685:/home/xingli/share/LiteOS_Lab/network/dtls/mbedtls/mbedtls-2.16.2/library/pkparse.c ****                                    size_t keylen )
 686:/home/xingli/share/LiteOS_Lab/network/dtls/mbedtls/mbedtls-2.16.2/library/pkparse.c **** {
 1612              		.loc 2 686 1 is_stmt 1
 1613              		.cfi_startproc
 1614 0000 F30F1EFA 		endbr64
 1615 0004 55       		pushq	%rbp
 1616              	.LCFI33:
 1617              		.cfi_def_cfa_offset 16
 1618              		.cfi_offset 6, -16
 1619 0005 4889E5   		movq	%rsp, %rbp
 1620              	.LCFI34:
 1621              		.cfi_def_cfa_register 6
 1622 0008 4883EC60 		subq	$96, %rsp
 1623 000c 48897DB8 		movq	%rdi, -72(%rbp)
 1624 0010 488975B0 		movq	%rsi, -80(%rbp)
 1625 0014 488955A8 		movq	%rdx, -88(%rbp)
 1626              		.loc 2 686 1
 1627 0018 64488B04 		movq	%fs:40, %rax
 1627      25280000 
 1627      00
 1628 0021 488945F8 		movq	%rax, -8(%rbp)
 1629 0025 31C0     		xorl	%eax, %eax
 687:/home/xingli/share/LiteOS_Lab/network/dtls/mbedtls/mbedtls-2.16.2/library/pkparse.c ****     int ret, version;
 688:/home/xingli/share/LiteOS_Lab/network/dtls/mbedtls/mbedtls-2.16.2/library/pkparse.c ****     size_t len;
 689:/home/xingli/share/LiteOS_Lab/network/dtls/mbedtls/mbedtls-2.16.2/library/pkparse.c ****     unsigned char *p, *end;
 690:/home/xingli/share/LiteOS_Lab/network/dtls/mbedtls/mbedtls-2.16.2/library/pkparse.c **** 
 691:/home/xingli/share/LiteOS_Lab/network/dtls/mbedtls/mbedtls-2.16.2/library/pkparse.c ****     mbedtls_mpi T;
 692:/home/xingli/share/LiteOS_Lab/network/dtls/mbedtls/mbedtls-2.16.2/library/pkparse.c ****     mbedtls_mpi_init( &T );
 1630              		.loc 2 692 5
 1631 0027 488D45E0 		leaq	-32(%rbp), %rax
 1632 002b 4889C7   		movq	%rax, %rdi
 1633 002e E8000000 		call	mbedtls_mpi_init@PLT
 1633      00
GAS LISTING /tmp/ccmvMAN8.s 			page 50


 693:/home/xingli/share/LiteOS_Lab/network/dtls/mbedtls/mbedtls-2.16.2/library/pkparse.c **** 
 694:/home/xingli/share/LiteOS_Lab/network/dtls/mbedtls/mbedtls-2.16.2/library/pkparse.c ****     p = (unsigned char *) key;
 1634              		.loc 2 694 7
 1635 0033 488B45B0 		movq	-80(%rbp), %rax
 1636 0037 488945D0 		movq	%rax, -48(%rbp)
 695:/home/xingli/share/LiteOS_Lab/network/dtls/mbedtls/mbedtls-2.16.2/library/pkparse.c ****     end = p + keylen;
 1637              		.loc 2 695 13
 1638 003b 488B55D0 		movq	-48(%rbp), %rdx
 1639              		.loc 2 695 9
 1640 003f 488B45A8 		movq	-88(%rbp), %rax
 1641 0043 4801D0   		addq	%rdx, %rax
 1642 0046 488945D8 		movq	%rax, -40(%rbp)
 696:/home/xingli/share/LiteOS_Lab/network/dtls/mbedtls/mbedtls-2.16.2/library/pkparse.c **** 
 697:/home/xingli/share/LiteOS_Lab/network/dtls/mbedtls/mbedtls-2.16.2/library/pkparse.c ****     /*
 698:/home/xingli/share/LiteOS_Lab/network/dtls/mbedtls/mbedtls-2.16.2/library/pkparse.c ****      * This function parses the RSAPrivateKey (PKCS#1)
 699:/home/xingli/share/LiteOS_Lab/network/dtls/mbedtls/mbedtls-2.16.2/library/pkparse.c ****      *
 700:/home/xingli/share/LiteOS_Lab/network/dtls/mbedtls/mbedtls-2.16.2/library/pkparse.c ****      *  RSAPrivateKey ::= SEQUENCE {
 701:/home/xingli/share/LiteOS_Lab/network/dtls/mbedtls/mbedtls-2.16.2/library/pkparse.c ****      *      version           Version,
 702:/home/xingli/share/LiteOS_Lab/network/dtls/mbedtls/mbedtls-2.16.2/library/pkparse.c ****      *      modulus           INTEGER,  -- n
 703:/home/xingli/share/LiteOS_Lab/network/dtls/mbedtls/mbedtls-2.16.2/library/pkparse.c ****      *      publicExponent    INTEGER,  -- e
 704:/home/xingli/share/LiteOS_Lab/network/dtls/mbedtls/mbedtls-2.16.2/library/pkparse.c ****      *      privateExponent   INTEGER,  -- d
 705:/home/xingli/share/LiteOS_Lab/network/dtls/mbedtls/mbedtls-2.16.2/library/pkparse.c ****      *      prime1            INTEGER,  -- p
 706:/home/xingli/share/LiteOS_Lab/network/dtls/mbedtls/mbedtls-2.16.2/library/pkparse.c ****      *      prime2            INTEGER,  -- q
 707:/home/xingli/share/LiteOS_Lab/network/dtls/mbedtls/mbedtls-2.16.2/library/pkparse.c ****      *      exponent1         INTEGER,  -- d mod (p-1)
 708:/home/xingli/share/LiteOS_Lab/network/dtls/mbedtls/mbedtls-2.16.2/library/pkparse.c ****      *      exponent2         INTEGER,  -- d mod (q-1)
 709:/home/xingli/share/LiteOS_Lab/network/dtls/mbedtls/mbedtls-2.16.2/library/pkparse.c ****      *      coefficient       INTEGER,  -- (inverse of q) mod p
 710:/home/xingli/share/LiteOS_Lab/network/dtls/mbedtls/mbedtls-2.16.2/library/pkparse.c ****      *      otherPrimeInfos   OtherPrimeInfos OPTIONAL
 711:/home/xingli/share/LiteOS_Lab/network/dtls/mbedtls/mbedtls-2.16.2/library/pkparse.c ****      *  }
 712:/home/xingli/share/LiteOS_Lab/network/dtls/mbedtls/mbedtls-2.16.2/library/pkparse.c ****      */
 713:/home/xingli/share/LiteOS_Lab/network/dtls/mbedtls/mbedtls-2.16.2/library/pkparse.c ****     if( ( ret = mbedtls_asn1_get_tag( &p, end, &len,
 1643              		.loc 2 713 17
 1644 004a 488D55C8 		leaq	-56(%rbp), %rdx
 1645 004e 488B75D8 		movq	-40(%rbp), %rsi
 1646 0052 488D45D0 		leaq	-48(%rbp), %rax
 1647 0056 B9300000 		movl	$48, %ecx
 1647      00
 1648 005b 4889C7   		movq	%rax, %rdi
 1649 005e E8000000 		call	mbedtls_asn1_get_tag@PLT
 1649      00
 1650 0063 8945C4   		movl	%eax, -60(%rbp)
 1651              		.loc 2 713 7
 1652 0066 837DC400 		cmpl	$0, -60(%rbp)
 1653 006a 740D     		je	.L108
 714:/home/xingli/share/LiteOS_Lab/network/dtls/mbedtls/mbedtls-2.16.2/library/pkparse.c ****             MBEDTLS_ASN1_CONSTRUCTED | MBEDTLS_ASN1_SEQUENCE ) ) != 0 )
 715:/home/xingli/share/LiteOS_Lab/network/dtls/mbedtls/mbedtls-2.16.2/library/pkparse.c ****     {
 716:/home/xingli/share/LiteOS_Lab/network/dtls/mbedtls/mbedtls-2.16.2/library/pkparse.c ****         return( MBEDTLS_ERR_PK_KEY_INVALID_FORMAT + ret );
 1654              		.loc 2 716 51
 1655 006c 8B45C4   		movl	-60(%rbp), %eax
 1656 006f 2D003D00 		subl	$15616, %eax
 1656      00
 1657 0074 E9A40300 		jmp	.L129
 1657      00
 1658              	.L108:
 717:/home/xingli/share/LiteOS_Lab/network/dtls/mbedtls/mbedtls-2.16.2/library/pkparse.c ****     }
 718:/home/xingli/share/LiteOS_Lab/network/dtls/mbedtls/mbedtls-2.16.2/library/pkparse.c **** 
 719:/home/xingli/share/LiteOS_Lab/network/dtls/mbedtls/mbedtls-2.16.2/library/pkparse.c ****     end = p + len;
 1659              		.loc 2 719 13
GAS LISTING /tmp/ccmvMAN8.s 			page 51


 1660 0079 488B55D0 		movq	-48(%rbp), %rdx
 1661 007d 488B45C8 		movq	-56(%rbp), %rax
 1662              		.loc 2 719 9
 1663 0081 4801D0   		addq	%rdx, %rax
 1664 0084 488945D8 		movq	%rax, -40(%rbp)
 720:/home/xingli/share/LiteOS_Lab/network/dtls/mbedtls/mbedtls-2.16.2/library/pkparse.c **** 
 721:/home/xingli/share/LiteOS_Lab/network/dtls/mbedtls/mbedtls-2.16.2/library/pkparse.c ****     if( ( ret = mbedtls_asn1_get_int( &p, end, &version ) ) != 0 )
 1665              		.loc 2 721 17
 1666 0088 488D55C0 		leaq	-64(%rbp), %rdx
 1667 008c 488B4DD8 		movq	-40(%rbp), %rcx
 1668 0090 488D45D0 		leaq	-48(%rbp), %rax
 1669 0094 4889CE   		movq	%rcx, %rsi
 1670 0097 4889C7   		movq	%rax, %rdi
 1671 009a E8000000 		call	mbedtls_asn1_get_int@PLT
 1671      00
 1672 009f 8945C4   		movl	%eax, -60(%rbp)
 1673              		.loc 2 721 7
 1674 00a2 837DC400 		cmpl	$0, -60(%rbp)
 1675 00a6 740D     		je	.L110
 722:/home/xingli/share/LiteOS_Lab/network/dtls/mbedtls/mbedtls-2.16.2/library/pkparse.c ****     {
 723:/home/xingli/share/LiteOS_Lab/network/dtls/mbedtls/mbedtls-2.16.2/library/pkparse.c ****         return( MBEDTLS_ERR_PK_KEY_INVALID_FORMAT + ret );
 1676              		.loc 2 723 51
 1677 00a8 8B45C4   		movl	-60(%rbp), %eax
 1678 00ab 2D003D00 		subl	$15616, %eax
 1678      00
 1679 00b0 E9680300 		jmp	.L129
 1679      00
 1680              	.L110:
 724:/home/xingli/share/LiteOS_Lab/network/dtls/mbedtls/mbedtls-2.16.2/library/pkparse.c ****     }
 725:/home/xingli/share/LiteOS_Lab/network/dtls/mbedtls/mbedtls-2.16.2/library/pkparse.c **** 
 726:/home/xingli/share/LiteOS_Lab/network/dtls/mbedtls/mbedtls-2.16.2/library/pkparse.c ****     if( version != 0 )
 1681              		.loc 2 726 17
 1682 00b5 8B45C0   		movl	-64(%rbp), %eax
 1683              		.loc 2 726 7
 1684 00b8 85C0     		testl	%eax, %eax
 1685 00ba 740A     		je	.L111
 727:/home/xingli/share/LiteOS_Lab/network/dtls/mbedtls/mbedtls-2.16.2/library/pkparse.c ****     {
 728:/home/xingli/share/LiteOS_Lab/network/dtls/mbedtls/mbedtls-2.16.2/library/pkparse.c ****         return( MBEDTLS_ERR_PK_KEY_INVALID_VERSION );
 1686              		.loc 2 728 15
 1687 00bc B880C2FF 		movl	$-15744, %eax
 1687      FF
 1688 00c1 E9570300 		jmp	.L129
 1688      00
 1689              	.L111:
 729:/home/xingli/share/LiteOS_Lab/network/dtls/mbedtls/mbedtls-2.16.2/library/pkparse.c ****     }
 730:/home/xingli/share/LiteOS_Lab/network/dtls/mbedtls/mbedtls-2.16.2/library/pkparse.c **** 
 731:/home/xingli/share/LiteOS_Lab/network/dtls/mbedtls/mbedtls-2.16.2/library/pkparse.c ****     /* Import N */
 732:/home/xingli/share/LiteOS_Lab/network/dtls/mbedtls/mbedtls-2.16.2/library/pkparse.c ****     if( ( ret = mbedtls_asn1_get_tag( &p, end, &len,
 1690              		.loc 2 732 17
 1691 00c6 488D55C8 		leaq	-56(%rbp), %rdx
 1692 00ca 488B75D8 		movq	-40(%rbp), %rsi
 1693 00ce 488D45D0 		leaq	-48(%rbp), %rax
 1694 00d2 B9020000 		movl	$2, %ecx
 1694      00
 1695 00d7 4889C7   		movq	%rax, %rdi
 1696 00da E8000000 		call	mbedtls_asn1_get_tag@PLT
 1696      00
GAS LISTING /tmp/ccmvMAN8.s 			page 52


 1697 00df 8945C4   		movl	%eax, -60(%rbp)
 1698              		.loc 2 732 7
 1699 00e2 837DC400 		cmpl	$0, -60(%rbp)
 1700 00e6 0F85DE02 		jne	.L131
 1700      0000
 733:/home/xingli/share/LiteOS_Lab/network/dtls/mbedtls/mbedtls-2.16.2/library/pkparse.c ****                                       MBEDTLS_ASN1_INTEGER ) ) != 0 ||
 734:/home/xingli/share/LiteOS_Lab/network/dtls/mbedtls/mbedtls-2.16.2/library/pkparse.c ****         ( ret = mbedtls_rsa_import_raw( rsa, p, len, NULL, 0, NULL, 0,
 1701              		.loc 2 734 17
 1702 00ec 488B55C8 		movq	-56(%rbp), %rdx
 1703 00f0 488B75D0 		movq	-48(%rbp), %rsi
 1704 00f4 488B45B8 		movq	-72(%rbp), %rax
 1705 00f8 4883EC08 		subq	$8, %rsp
 1706 00fc 6A00     		pushq	$0
 1707 00fe 6A00     		pushq	$0
 1708 0100 6A00     		pushq	$0
 1709 0102 6A00     		pushq	$0
 1710 0104 6A00     		pushq	$0
 1711 0106 41B90000 		movl	$0, %r9d
 1711      0000
 1712 010c 41B80000 		movl	$0, %r8d
 1712      0000
 1713 0112 B9000000 		movl	$0, %ecx
 1713      00
 1714 0117 4889C7   		movq	%rax, %rdi
 1715 011a E8000000 		call	mbedtls_rsa_import_raw@PLT
 1715      00
 1716 011f 4883C430 		addq	$48, %rsp
 1717 0123 8945C4   		movl	%eax, -60(%rbp)
 733:/home/xingli/share/LiteOS_Lab/network/dtls/mbedtls/mbedtls-2.16.2/library/pkparse.c ****                                       MBEDTLS_ASN1_INTEGER ) ) != 0 ||
 1718              		.loc 2 733 69
 1719 0126 837DC400 		cmpl	$0, -60(%rbp)
 1720 012a 0F859A02 		jne	.L131
 1720      0000
 735:/home/xingli/share/LiteOS_Lab/network/dtls/mbedtls/mbedtls-2.16.2/library/pkparse.c ****                                         NULL, 0, NULL, 0 ) ) != 0 )
 736:/home/xingli/share/LiteOS_Lab/network/dtls/mbedtls/mbedtls-2.16.2/library/pkparse.c ****         goto cleanup;
 737:/home/xingli/share/LiteOS_Lab/network/dtls/mbedtls/mbedtls-2.16.2/library/pkparse.c ****     p += len;
 1721              		.loc 2 737 7
 1722 0130 488B55D0 		movq	-48(%rbp), %rdx
 1723 0134 488B45C8 		movq	-56(%rbp), %rax
 1724 0138 4801D0   		addq	%rdx, %rax
 1725 013b 488945D0 		movq	%rax, -48(%rbp)
 738:/home/xingli/share/LiteOS_Lab/network/dtls/mbedtls/mbedtls-2.16.2/library/pkparse.c **** 
 739:/home/xingli/share/LiteOS_Lab/network/dtls/mbedtls/mbedtls-2.16.2/library/pkparse.c ****     /* Import E */
 740:/home/xingli/share/LiteOS_Lab/network/dtls/mbedtls/mbedtls-2.16.2/library/pkparse.c ****     if( ( ret = mbedtls_asn1_get_tag( &p, end, &len,
 1726              		.loc 2 740 17
 1727 013f 488D55C8 		leaq	-56(%rbp), %rdx
 1728 0143 488B75D8 		movq	-40(%rbp), %rsi
 1729 0147 488D45D0 		leaq	-48(%rbp), %rax
 1730 014b B9020000 		movl	$2, %ecx
 1730      00
 1731 0150 4889C7   		movq	%rax, %rdi
 1732 0153 E8000000 		call	mbedtls_asn1_get_tag@PLT
 1732      00
 1733 0158 8945C4   		movl	%eax, -60(%rbp)
 1734              		.loc 2 740 7
 1735 015b 837DC400 		cmpl	$0, -60(%rbp)
 1736 015f 0F856802 		jne	.L132
GAS LISTING /tmp/ccmvMAN8.s 			page 53


 1736      0000
 741:/home/xingli/share/LiteOS_Lab/network/dtls/mbedtls/mbedtls-2.16.2/library/pkparse.c ****                                       MBEDTLS_ASN1_INTEGER ) ) != 0 ||
 742:/home/xingli/share/LiteOS_Lab/network/dtls/mbedtls/mbedtls-2.16.2/library/pkparse.c ****         ( ret = mbedtls_rsa_import_raw( rsa, NULL, 0, NULL, 0, NULL, 0,
 1737              		.loc 2 742 17
 1738 0165 488B4DC8 		movq	-56(%rbp), %rcx
 1739 0169 488B55D0 		movq	-48(%rbp), %rdx
 1740 016d 488B45B8 		movq	-72(%rbp), %rax
 1741 0171 4883EC08 		subq	$8, %rsp
 1742 0175 51       		pushq	%rcx
 1743 0176 52       		pushq	%rdx
 1744 0177 6A00     		pushq	$0
 1745 0179 6A00     		pushq	$0
 1746 017b 6A00     		pushq	$0
 1747 017d 41B90000 		movl	$0, %r9d
 1747      0000
 1748 0183 41B80000 		movl	$0, %r8d
 1748      0000
 1749 0189 B9000000 		movl	$0, %ecx
 1749      00
 1750 018e BA000000 		movl	$0, %edx
 1750      00
 1751 0193 BE000000 		movl	$0, %esi
 1751      00
 1752 0198 4889C7   		movq	%rax, %rdi
 1753 019b E8000000 		call	mbedtls_rsa_import_raw@PLT
 1753      00
 1754 01a0 4883C430 		addq	$48, %rsp
 1755 01a4 8945C4   		movl	%eax, -60(%rbp)
 741:/home/xingli/share/LiteOS_Lab/network/dtls/mbedtls/mbedtls-2.16.2/library/pkparse.c ****                                       MBEDTLS_ASN1_INTEGER ) ) != 0 ||
 1756              		.loc 2 741 69
 1757 01a7 837DC400 		cmpl	$0, -60(%rbp)
 1758 01ab 0F851C02 		jne	.L132
 1758      0000
 743:/home/xingli/share/LiteOS_Lab/network/dtls/mbedtls/mbedtls-2.16.2/library/pkparse.c ****                                         NULL, 0, p, len ) ) != 0 )
 744:/home/xingli/share/LiteOS_Lab/network/dtls/mbedtls/mbedtls-2.16.2/library/pkparse.c ****         goto cleanup;
 745:/home/xingli/share/LiteOS_Lab/network/dtls/mbedtls/mbedtls-2.16.2/library/pkparse.c ****     p += len;
 1759              		.loc 2 745 7
 1760 01b1 488B55D0 		movq	-48(%rbp), %rdx
 1761 01b5 488B45C8 		movq	-56(%rbp), %rax
 1762 01b9 4801D0   		addq	%rdx, %rax
 1763 01bc 488945D0 		movq	%rax, -48(%rbp)
 746:/home/xingli/share/LiteOS_Lab/network/dtls/mbedtls/mbedtls-2.16.2/library/pkparse.c **** 
 747:/home/xingli/share/LiteOS_Lab/network/dtls/mbedtls/mbedtls-2.16.2/library/pkparse.c ****     /* Import D */
 748:/home/xingli/share/LiteOS_Lab/network/dtls/mbedtls/mbedtls-2.16.2/library/pkparse.c ****     if( ( ret = mbedtls_asn1_get_tag( &p, end, &len,
 1764              		.loc 2 748 17
 1765 01c0 488D55C8 		leaq	-56(%rbp), %rdx
 1766 01c4 488B75D8 		movq	-40(%rbp), %rsi
 1767 01c8 488D45D0 		leaq	-48(%rbp), %rax
 1768 01cc B9020000 		movl	$2, %ecx
 1768      00
 1769 01d1 4889C7   		movq	%rax, %rdi
 1770 01d4 E8000000 		call	mbedtls_asn1_get_tag@PLT
 1770      00
 1771 01d9 8945C4   		movl	%eax, -60(%rbp)
 1772              		.loc 2 748 7
 1773 01dc 837DC400 		cmpl	$0, -60(%rbp)
 1774 01e0 0F85EA01 		jne	.L133
GAS LISTING /tmp/ccmvMAN8.s 			page 54


 1774      0000
 749:/home/xingli/share/LiteOS_Lab/network/dtls/mbedtls/mbedtls-2.16.2/library/pkparse.c ****                                       MBEDTLS_ASN1_INTEGER ) ) != 0 ||
 750:/home/xingli/share/LiteOS_Lab/network/dtls/mbedtls/mbedtls-2.16.2/library/pkparse.c ****         ( ret = mbedtls_rsa_import_raw( rsa, NULL, 0, NULL, 0, NULL, 0,
 1775              		.loc 2 750 17
 1776 01e6 488B4DC8 		movq	-56(%rbp), %rcx
 1777 01ea 488B55D0 		movq	-48(%rbp), %rdx
 1778 01ee 488B45B8 		movq	-72(%rbp), %rax
 1779 01f2 4883EC08 		subq	$8, %rsp
 1780 01f6 6A00     		pushq	$0
 1781 01f8 6A00     		pushq	$0
 1782 01fa 51       		pushq	%rcx
 1783 01fb 52       		pushq	%rdx
 1784 01fc 6A00     		pushq	$0
 1785 01fe 41B90000 		movl	$0, %r9d
 1785      0000
 1786 0204 41B80000 		movl	$0, %r8d
 1786      0000
 1787 020a B9000000 		movl	$0, %ecx
 1787      00
 1788 020f BA000000 		movl	$0, %edx
 1788      00
 1789 0214 BE000000 		movl	$0, %esi
 1789      00
 1790 0219 4889C7   		movq	%rax, %rdi
 1791 021c E8000000 		call	mbedtls_rsa_import_raw@PLT
 1791      00
 1792 0221 4883C430 		addq	$48, %rsp
 1793 0225 8945C4   		movl	%eax, -60(%rbp)
 749:/home/xingli/share/LiteOS_Lab/network/dtls/mbedtls/mbedtls-2.16.2/library/pkparse.c ****                                       MBEDTLS_ASN1_INTEGER ) ) != 0 ||
 1794              		.loc 2 749 69
 1795 0228 837DC400 		cmpl	$0, -60(%rbp)
 1796 022c 0F859E01 		jne	.L133
 1796      0000
 751:/home/xingli/share/LiteOS_Lab/network/dtls/mbedtls/mbedtls-2.16.2/library/pkparse.c ****                                         p, len, NULL, 0 ) ) != 0 )
 752:/home/xingli/share/LiteOS_Lab/network/dtls/mbedtls/mbedtls-2.16.2/library/pkparse.c ****         goto cleanup;
 753:/home/xingli/share/LiteOS_Lab/network/dtls/mbedtls/mbedtls-2.16.2/library/pkparse.c ****     p += len;
 1797              		.loc 2 753 7
 1798 0232 488B55D0 		movq	-48(%rbp), %rdx
 1799 0236 488B45C8 		movq	-56(%rbp), %rax
 1800 023a 4801D0   		addq	%rdx, %rax
 1801 023d 488945D0 		movq	%rax, -48(%rbp)
 754:/home/xingli/share/LiteOS_Lab/network/dtls/mbedtls/mbedtls-2.16.2/library/pkparse.c **** 
 755:/home/xingli/share/LiteOS_Lab/network/dtls/mbedtls/mbedtls-2.16.2/library/pkparse.c ****     /* Import P */
 756:/home/xingli/share/LiteOS_Lab/network/dtls/mbedtls/mbedtls-2.16.2/library/pkparse.c ****     if( ( ret = mbedtls_asn1_get_tag( &p, end, &len,
 1802              		.loc 2 756 17
 1803 0241 488D55C8 		leaq	-56(%rbp), %rdx
 1804 0245 488B75D8 		movq	-40(%rbp), %rsi
 1805 0249 488D45D0 		leaq	-48(%rbp), %rax
 1806 024d B9020000 		movl	$2, %ecx
 1806      00
 1807 0252 4889C7   		movq	%rax, %rdi
 1808 0255 E8000000 		call	mbedtls_asn1_get_tag@PLT
 1808      00
 1809 025a 8945C4   		movl	%eax, -60(%rbp)
 1810              		.loc 2 756 7
 1811 025d 837DC400 		cmpl	$0, -60(%rbp)
 1812 0261 0F856C01 		jne	.L134
GAS LISTING /tmp/ccmvMAN8.s 			page 55


 1812      0000
 757:/home/xingli/share/LiteOS_Lab/network/dtls/mbedtls/mbedtls-2.16.2/library/pkparse.c ****                                       MBEDTLS_ASN1_INTEGER ) ) != 0 ||
 758:/home/xingli/share/LiteOS_Lab/network/dtls/mbedtls/mbedtls-2.16.2/library/pkparse.c ****         ( ret = mbedtls_rsa_import_raw( rsa, NULL, 0, p, len, NULL, 0,
 1813              		.loc 2 758 17
 1814 0267 488B4DC8 		movq	-56(%rbp), %rcx
 1815 026b 488B55D0 		movq	-48(%rbp), %rdx
 1816 026f 488B45B8 		movq	-72(%rbp), %rax
 1817 0273 4883EC08 		subq	$8, %rsp
 1818 0277 6A00     		pushq	$0
 1819 0279 6A00     		pushq	$0
 1820 027b 6A00     		pushq	$0
 1821 027d 6A00     		pushq	$0
 1822 027f 6A00     		pushq	$0
 1823 0281 41B90000 		movl	$0, %r9d
 1823      0000
 1824 0287 4989C8   		movq	%rcx, %r8
 1825 028a 4889D1   		movq	%rdx, %rcx
 1826 028d BA000000 		movl	$0, %edx
 1826      00
 1827 0292 BE000000 		movl	$0, %esi
 1827      00
 1828 0297 4889C7   		movq	%rax, %rdi
 1829 029a E8000000 		call	mbedtls_rsa_import_raw@PLT
 1829      00
 1830 029f 4883C430 		addq	$48, %rsp
 1831 02a3 8945C4   		movl	%eax, -60(%rbp)
 757:/home/xingli/share/LiteOS_Lab/network/dtls/mbedtls/mbedtls-2.16.2/library/pkparse.c ****                                       MBEDTLS_ASN1_INTEGER ) ) != 0 ||
 1832              		.loc 2 757 69
 1833 02a6 837DC400 		cmpl	$0, -60(%rbp)
 1834 02aa 0F852301 		jne	.L134
 1834      0000
 759:/home/xingli/share/LiteOS_Lab/network/dtls/mbedtls/mbedtls-2.16.2/library/pkparse.c ****                                         NULL, 0, NULL, 0 ) ) != 0 )
 760:/home/xingli/share/LiteOS_Lab/network/dtls/mbedtls/mbedtls-2.16.2/library/pkparse.c ****         goto cleanup;
 761:/home/xingli/share/LiteOS_Lab/network/dtls/mbedtls/mbedtls-2.16.2/library/pkparse.c ****     p += len;
 1835              		.loc 2 761 7
 1836 02b0 488B55D0 		movq	-48(%rbp), %rdx
 1837 02b4 488B45C8 		movq	-56(%rbp), %rax
 1838 02b8 4801D0   		addq	%rdx, %rax
 1839 02bb 488945D0 		movq	%rax, -48(%rbp)
 762:/home/xingli/share/LiteOS_Lab/network/dtls/mbedtls/mbedtls-2.16.2/library/pkparse.c **** 
 763:/home/xingli/share/LiteOS_Lab/network/dtls/mbedtls/mbedtls-2.16.2/library/pkparse.c ****     /* Import Q */
 764:/home/xingli/share/LiteOS_Lab/network/dtls/mbedtls/mbedtls-2.16.2/library/pkparse.c ****     if( ( ret = mbedtls_asn1_get_tag( &p, end, &len,
 1840              		.loc 2 764 17
 1841 02bf 488D55C8 		leaq	-56(%rbp), %rdx
 1842 02c3 488B75D8 		movq	-40(%rbp), %rsi
 1843 02c7 488D45D0 		leaq	-48(%rbp), %rax
 1844 02cb B9020000 		movl	$2, %ecx
 1844      00
 1845 02d0 4889C7   		movq	%rax, %rdi
 1846 02d3 E8000000 		call	mbedtls_asn1_get_tag@PLT
 1846      00
 1847 02d8 8945C4   		movl	%eax, -60(%rbp)
 1848              		.loc 2 764 7
 1849 02db 837DC400 		cmpl	$0, -60(%rbp)
 1850 02df 0F85F100 		jne	.L135
 1850      0000
 765:/home/xingli/share/LiteOS_Lab/network/dtls/mbedtls/mbedtls-2.16.2/library/pkparse.c ****                                       MBEDTLS_ASN1_INTEGER ) ) != 0 ||
GAS LISTING /tmp/ccmvMAN8.s 			page 56


 766:/home/xingli/share/LiteOS_Lab/network/dtls/mbedtls/mbedtls-2.16.2/library/pkparse.c ****         ( ret = mbedtls_rsa_import_raw( rsa, NULL, 0, NULL, 0, p, len,
 1851              		.loc 2 766 17
 1852 02e5 488B55C8 		movq	-56(%rbp), %rdx
 1853 02e9 488B4DD0 		movq	-48(%rbp), %rcx
 1854 02ed 488B45B8 		movq	-72(%rbp), %rax
 1855 02f1 4883EC08 		subq	$8, %rsp
 1856 02f5 6A00     		pushq	$0
 1857 02f7 6A00     		pushq	$0
 1858 02f9 6A00     		pushq	$0
 1859 02fb 6A00     		pushq	$0
 1860 02fd 52       		pushq	%rdx
 1861 02fe 4989C9   		movq	%rcx, %r9
 1862 0301 41B80000 		movl	$0, %r8d
 1862      0000
 1863 0307 B9000000 		movl	$0, %ecx
 1863      00
 1864 030c BA000000 		movl	$0, %edx
 1864      00
 1865 0311 BE000000 		movl	$0, %esi
 1865      00
 1866 0316 4889C7   		movq	%rax, %rdi
 1867 0319 E8000000 		call	mbedtls_rsa_import_raw@PLT
 1867      00
 1868 031e 4883C430 		addq	$48, %rsp
 1869 0322 8945C4   		movl	%eax, -60(%rbp)
 765:/home/xingli/share/LiteOS_Lab/network/dtls/mbedtls/mbedtls-2.16.2/library/pkparse.c ****                                       MBEDTLS_ASN1_INTEGER ) ) != 0 ||
 1870              		.loc 2 765 69
 1871 0325 837DC400 		cmpl	$0, -60(%rbp)
 1872 0329 0F85A700 		jne	.L135
 1872      0000
 767:/home/xingli/share/LiteOS_Lab/network/dtls/mbedtls/mbedtls-2.16.2/library/pkparse.c ****                                         NULL, 0, NULL, 0 ) ) != 0 )
 768:/home/xingli/share/LiteOS_Lab/network/dtls/mbedtls/mbedtls-2.16.2/library/pkparse.c ****         goto cleanup;
 769:/home/xingli/share/LiteOS_Lab/network/dtls/mbedtls/mbedtls-2.16.2/library/pkparse.c ****     p += len;
 1873              		.loc 2 769 7
 1874 032f 488B55D0 		movq	-48(%rbp), %rdx
 1875 0333 488B45C8 		movq	-56(%rbp), %rax
 1876 0337 4801D0   		addq	%rdx, %rax
 1877 033a 488945D0 		movq	%rax, -48(%rbp)
 770:/home/xingli/share/LiteOS_Lab/network/dtls/mbedtls/mbedtls-2.16.2/library/pkparse.c **** 
 771:/home/xingli/share/LiteOS_Lab/network/dtls/mbedtls/mbedtls-2.16.2/library/pkparse.c ****     /* Complete the RSA private key */
 772:/home/xingli/share/LiteOS_Lab/network/dtls/mbedtls/mbedtls-2.16.2/library/pkparse.c ****     if( ( ret = mbedtls_rsa_complete( rsa ) ) != 0 )
 1878              		.loc 2 772 17
 1879 033e 488B45B8 		movq	-72(%rbp), %rax
 1880 0342 4889C7   		movq	%rax, %rdi
 1881 0345 E8000000 		call	mbedtls_rsa_complete@PLT
 1881      00
 1882 034a 8945C4   		movl	%eax, -60(%rbp)
 1883              		.loc 2 772 7
 1884 034d 837DC400 		cmpl	$0, -60(%rbp)
 1885 0351 0F858200 		jne	.L136
 1885      0000
 773:/home/xingli/share/LiteOS_Lab/network/dtls/mbedtls/mbedtls-2.16.2/library/pkparse.c ****         goto cleanup;
 774:/home/xingli/share/LiteOS_Lab/network/dtls/mbedtls/mbedtls-2.16.2/library/pkparse.c **** 
 775:/home/xingli/share/LiteOS_Lab/network/dtls/mbedtls/mbedtls-2.16.2/library/pkparse.c ****     /* Check optional parameters */
 776:/home/xingli/share/LiteOS_Lab/network/dtls/mbedtls/mbedtls-2.16.2/library/pkparse.c ****     if( ( ret = mbedtls_asn1_get_mpi( &p, end, &T ) ) != 0 ||
 1886              		.loc 2 776 17
 1887 0357 488D55E0 		leaq	-32(%rbp), %rdx
GAS LISTING /tmp/ccmvMAN8.s 			page 57


 1888 035b 488B4DD8 		movq	-40(%rbp), %rcx
 1889 035f 488D45D0 		leaq	-48(%rbp), %rax
 1890 0363 4889CE   		movq	%rcx, %rsi
 1891 0366 4889C7   		movq	%rax, %rdi
 1892 0369 E8000000 		call	mbedtls_asn1_get_mpi@PLT
 1892      00
 1893 036e 8945C4   		movl	%eax, -60(%rbp)
 1894              		.loc 2 776 7
 1895 0371 837DC400 		cmpl	$0, -60(%rbp)
 1896 0375 7565     		jne	.L137
 777:/home/xingli/share/LiteOS_Lab/network/dtls/mbedtls/mbedtls-2.16.2/library/pkparse.c ****         ( ret = mbedtls_asn1_get_mpi( &p, end, &T ) ) != 0 ||
 1897              		.loc 2 777 17 discriminator 1
 1898 0377 488D55E0 		leaq	-32(%rbp), %rdx
 1899 037b 488B4DD8 		movq	-40(%rbp), %rcx
 1900 037f 488D45D0 		leaq	-48(%rbp), %rax
 1901 0383 4889CE   		movq	%rcx, %rsi
 1902 0386 4889C7   		movq	%rax, %rdi
 1903 0389 E8000000 		call	mbedtls_asn1_get_mpi@PLT
 1903      00
 1904 038e 8945C4   		movl	%eax, -60(%rbp)
 776:/home/xingli/share/LiteOS_Lab/network/dtls/mbedtls/mbedtls-2.16.2/library/pkparse.c ****         ( ret = mbedtls_asn1_get_mpi( &p, end, &T ) ) != 0 ||
 1905              		.loc 2 776 60 discriminator 1
 1906 0391 837DC400 		cmpl	$0, -60(%rbp)
 1907 0395 7545     		jne	.L137
 778:/home/xingli/share/LiteOS_Lab/network/dtls/mbedtls/mbedtls-2.16.2/library/pkparse.c ****         ( ret = mbedtls_asn1_get_mpi( &p, end, &T ) ) != 0 )
 1908              		.loc 2 778 17
 1909 0397 488D55E0 		leaq	-32(%rbp), %rdx
 1910 039b 488B4DD8 		movq	-40(%rbp), %rcx
 1911 039f 488D45D0 		leaq	-48(%rbp), %rax
 1912 03a3 4889CE   		movq	%rcx, %rsi
 1913 03a6 4889C7   		movq	%rax, %rdi
 1914 03a9 E8000000 		call	mbedtls_asn1_get_mpi@PLT
 1914      00
 1915 03ae 8945C4   		movl	%eax, -60(%rbp)
 777:/home/xingli/share/LiteOS_Lab/network/dtls/mbedtls/mbedtls-2.16.2/library/pkparse.c ****         ( ret = mbedtls_asn1_get_mpi( &p, end, &T ) ) != 0 ||
 1916              		.loc 2 777 60
 1917 03b1 837DC400 		cmpl	$0, -60(%rbp)
 1918 03b5 7525     		jne	.L137
 779:/home/xingli/share/LiteOS_Lab/network/dtls/mbedtls/mbedtls-2.16.2/library/pkparse.c ****         goto cleanup;
 780:/home/xingli/share/LiteOS_Lab/network/dtls/mbedtls/mbedtls-2.16.2/library/pkparse.c **** 
 781:/home/xingli/share/LiteOS_Lab/network/dtls/mbedtls/mbedtls-2.16.2/library/pkparse.c ****     if( p != end )
 1919              		.loc 2 781 11
 1920 03b7 488B45D0 		movq	-48(%rbp), %rax
 1921              		.loc 2 781 7
 1922 03bb 483945D8 		cmpq	%rax, -40(%rbp)
 1923 03bf 741E     		je	.L138
 782:/home/xingli/share/LiteOS_Lab/network/dtls/mbedtls/mbedtls-2.16.2/library/pkparse.c ****     {
 783:/home/xingli/share/LiteOS_Lab/network/dtls/mbedtls/mbedtls-2.16.2/library/pkparse.c ****         ret = MBEDTLS_ERR_PK_KEY_INVALID_FORMAT +
 1924              		.loc 2 783 13
 1925 03c1 C745C49A 		movl	$-15718, -60(%rbp)
 1925      C2FFFF
 1926 03c8 EB16     		jmp	.L114
 1927              	.L131:
 736:/home/xingli/share/LiteOS_Lab/network/dtls/mbedtls/mbedtls-2.16.2/library/pkparse.c ****     p += len;
 1928              		.loc 2 736 9
 1929 03ca 90       		nop
 1930 03cb EB13     		jmp	.L114
GAS LISTING /tmp/ccmvMAN8.s 			page 58


 1931              	.L132:
 744:/home/xingli/share/LiteOS_Lab/network/dtls/mbedtls/mbedtls-2.16.2/library/pkparse.c ****     p += len;
 1932              		.loc 2 744 9
 1933 03cd 90       		nop
 1934 03ce EB10     		jmp	.L114
 1935              	.L133:
 752:/home/xingli/share/LiteOS_Lab/network/dtls/mbedtls/mbedtls-2.16.2/library/pkparse.c ****     p += len;
 1936              		.loc 2 752 9
 1937 03d0 90       		nop
 1938 03d1 EB0D     		jmp	.L114
 1939              	.L134:
 760:/home/xingli/share/LiteOS_Lab/network/dtls/mbedtls/mbedtls-2.16.2/library/pkparse.c ****     p += len;
 1940              		.loc 2 760 9
 1941 03d3 90       		nop
 1942 03d4 EB0A     		jmp	.L114
 1943              	.L135:
 768:/home/xingli/share/LiteOS_Lab/network/dtls/mbedtls/mbedtls-2.16.2/library/pkparse.c ****     p += len;
 1944              		.loc 2 768 9
 1945 03d6 90       		nop
 1946 03d7 EB07     		jmp	.L114
 1947              	.L136:
 773:/home/xingli/share/LiteOS_Lab/network/dtls/mbedtls/mbedtls-2.16.2/library/pkparse.c **** 
 1948              		.loc 2 773 9
 1949 03d9 90       		nop
 1950 03da EB04     		jmp	.L114
 1951              	.L137:
 779:/home/xingli/share/LiteOS_Lab/network/dtls/mbedtls/mbedtls-2.16.2/library/pkparse.c **** 
 1952              		.loc 2 779 9
 1953 03dc 90       		nop
 1954 03dd EB01     		jmp	.L114
 1955              	.L138:
 784:/home/xingli/share/LiteOS_Lab/network/dtls/mbedtls/mbedtls-2.16.2/library/pkparse.c ****               MBEDTLS_ERR_ASN1_LENGTH_MISMATCH ;
 785:/home/xingli/share/LiteOS_Lab/network/dtls/mbedtls/mbedtls-2.16.2/library/pkparse.c ****     }
 786:/home/xingli/share/LiteOS_Lab/network/dtls/mbedtls/mbedtls-2.16.2/library/pkparse.c **** 
 787:/home/xingli/share/LiteOS_Lab/network/dtls/mbedtls/mbedtls-2.16.2/library/pkparse.c **** cleanup:
 1956              		.loc 2 787 1
 1957 03df 90       		nop
 1958              	.L114:
 788:/home/xingli/share/LiteOS_Lab/network/dtls/mbedtls/mbedtls-2.16.2/library/pkparse.c **** 
 789:/home/xingli/share/LiteOS_Lab/network/dtls/mbedtls/mbedtls-2.16.2/library/pkparse.c ****     mbedtls_mpi_free( &T );
 1959              		.loc 2 789 5
 1960 03e0 488D45E0 		leaq	-32(%rbp), %rax
 1961 03e4 4889C7   		movq	%rax, %rdi
 1962 03e7 E8000000 		call	mbedtls_mpi_free@PLT
 1962      00
 790:/home/xingli/share/LiteOS_Lab/network/dtls/mbedtls/mbedtls-2.16.2/library/pkparse.c **** 
 791:/home/xingli/share/LiteOS_Lab/network/dtls/mbedtls/mbedtls-2.16.2/library/pkparse.c ****     if( ret != 0 )
 1963              		.loc 2 791 7
 1964 03ec 837DC400 		cmpl	$0, -60(%rbp)
 1965 03f0 7428     		je	.L126
 792:/home/xingli/share/LiteOS_Lab/network/dtls/mbedtls/mbedtls-2.16.2/library/pkparse.c ****     {
 793:/home/xingli/share/LiteOS_Lab/network/dtls/mbedtls/mbedtls-2.16.2/library/pkparse.c ****         /* Wrap error code if it's coming from a lower level */
 794:/home/xingli/share/LiteOS_Lab/network/dtls/mbedtls/mbedtls-2.16.2/library/pkparse.c ****         if( ( ret & 0xff80 ) == 0 )
 1966              		.loc 2 794 19
 1967 03f2 8B45C4   		movl	-60(%rbp), %eax
 1968 03f5 2580FF00 		andl	$65408, %eax
 1968      00
GAS LISTING /tmp/ccmvMAN8.s 			page 59


 1969              		.loc 2 794 11
 1970 03fa 85C0     		testl	%eax, %eax
 1971 03fc 7509     		jne	.L127
 795:/home/xingli/share/LiteOS_Lab/network/dtls/mbedtls/mbedtls-2.16.2/library/pkparse.c ****             ret = MBEDTLS_ERR_PK_KEY_INVALID_FORMAT + ret;
 1972              		.loc 2 795 17
 1973 03fe 816DC400 		subl	$15616, -60(%rbp)
 1973      3D0000
 1974 0405 EB07     		jmp	.L128
 1975              	.L127:
 796:/home/xingli/share/LiteOS_Lab/network/dtls/mbedtls/mbedtls-2.16.2/library/pkparse.c ****         else
 797:/home/xingli/share/LiteOS_Lab/network/dtls/mbedtls/mbedtls-2.16.2/library/pkparse.c ****             ret = MBEDTLS_ERR_PK_KEY_INVALID_FORMAT;
 1976              		.loc 2 797 17
 1977 0407 C745C400 		movl	$-15616, -60(%rbp)
 1977      C3FFFF
 1978              	.L128:
 798:/home/xingli/share/LiteOS_Lab/network/dtls/mbedtls/mbedtls-2.16.2/library/pkparse.c **** 
 799:/home/xingli/share/LiteOS_Lab/network/dtls/mbedtls/mbedtls-2.16.2/library/pkparse.c ****         mbedtls_rsa_free( rsa );
 1979              		.loc 2 799 9
 1980 040e 488B45B8 		movq	-72(%rbp), %rax
 1981 0412 4889C7   		movq	%rax, %rdi
 1982 0415 E8000000 		call	mbedtls_rsa_free@PLT
 1982      00
 1983              	.L126:
 800:/home/xingli/share/LiteOS_Lab/network/dtls/mbedtls/mbedtls-2.16.2/library/pkparse.c ****     }
 801:/home/xingli/share/LiteOS_Lab/network/dtls/mbedtls/mbedtls-2.16.2/library/pkparse.c **** 
 802:/home/xingli/share/LiteOS_Lab/network/dtls/mbedtls/mbedtls-2.16.2/library/pkparse.c ****     return( ret );
 1984              		.loc 2 802 11
 1985 041a 8B45C4   		movl	-60(%rbp), %eax
 1986              	.L129:
 803:/home/xingli/share/LiteOS_Lab/network/dtls/mbedtls/mbedtls-2.16.2/library/pkparse.c **** }
 1987              		.loc 2 803 1 discriminator 1
 1988 041d 488B7DF8 		movq	-8(%rbp), %rdi
 1989 0421 6448333C 		xorq	%fs:40, %rdi
 1989      25280000 
 1989      00
 1990 042a 7405     		je	.L130
 1991              		.loc 2 803 1 is_stmt 0
 1992 042c E8000000 		call	__stack_chk_fail@PLT
 1992      00
 1993              	.L130:
 1994 0431 C9       		leave
 1995              	.LCFI35:
 1996              		.cfi_def_cfa 7, 8
 1997 0432 C3       		ret
 1998              		.cfi_endproc
 1999              	.LFE25:
 2001              		.section	.text.pk_parse_key_sec1_der,"ax",@progbits
 2003              	pk_parse_key_sec1_der:
 2004              	.LFB26:
 804:/home/xingli/share/LiteOS_Lab/network/dtls/mbedtls/mbedtls-2.16.2/library/pkparse.c **** #endif /* MBEDTLS_RSA_C */
 805:/home/xingli/share/LiteOS_Lab/network/dtls/mbedtls/mbedtls-2.16.2/library/pkparse.c **** 
 806:/home/xingli/share/LiteOS_Lab/network/dtls/mbedtls/mbedtls-2.16.2/library/pkparse.c **** #if defined(MBEDTLS_ECP_C)
 807:/home/xingli/share/LiteOS_Lab/network/dtls/mbedtls/mbedtls-2.16.2/library/pkparse.c **** /*
 808:/home/xingli/share/LiteOS_Lab/network/dtls/mbedtls/mbedtls-2.16.2/library/pkparse.c ****  * Parse a SEC1 encoded private EC key
 809:/home/xingli/share/LiteOS_Lab/network/dtls/mbedtls/mbedtls-2.16.2/library/pkparse.c ****  */
 810:/home/xingli/share/LiteOS_Lab/network/dtls/mbedtls/mbedtls-2.16.2/library/pkparse.c **** static int pk_parse_key_sec1_der( mbedtls_ecp_keypair *eck,
 811:/home/xingli/share/LiteOS_Lab/network/dtls/mbedtls/mbedtls-2.16.2/library/pkparse.c ****                                   const unsigned char *key,
GAS LISTING /tmp/ccmvMAN8.s 			page 60


 812:/home/xingli/share/LiteOS_Lab/network/dtls/mbedtls/mbedtls-2.16.2/library/pkparse.c ****                                   size_t keylen )
 813:/home/xingli/share/LiteOS_Lab/network/dtls/mbedtls/mbedtls-2.16.2/library/pkparse.c **** {
 2005              		.loc 2 813 1 is_stmt 1
 2006              		.cfi_startproc
 2007 0000 F30F1EFA 		endbr64
 2008 0004 55       		pushq	%rbp
 2009              	.LCFI36:
 2010              		.cfi_def_cfa_offset 16
 2011              		.cfi_offset 6, -16
 2012 0005 4889E5   		movq	%rsp, %rbp
 2013              	.LCFI37:
 2014              		.cfi_def_cfa_register 6
 2015 0008 4883EC70 		subq	$112, %rsp
 2016 000c 48897DA8 		movq	%rdi, -88(%rbp)
 2017 0010 488975A0 		movq	%rsi, -96(%rbp)
 2018 0014 48895598 		movq	%rdx, -104(%rbp)
 2019              		.loc 2 813 1
 2020 0018 64488B04 		movq	%fs:40, %rax
 2020      25280000 
 2020      00
 2021 0021 488945F8 		movq	%rax, -8(%rbp)
 2022 0025 31C0     		xorl	%eax, %eax
 814:/home/xingli/share/LiteOS_Lab/network/dtls/mbedtls/mbedtls-2.16.2/library/pkparse.c ****     int ret;
 815:/home/xingli/share/LiteOS_Lab/network/dtls/mbedtls/mbedtls-2.16.2/library/pkparse.c ****     int version, pubkey_done;
 816:/home/xingli/share/LiteOS_Lab/network/dtls/mbedtls/mbedtls-2.16.2/library/pkparse.c ****     size_t len;
 817:/home/xingli/share/LiteOS_Lab/network/dtls/mbedtls/mbedtls-2.16.2/library/pkparse.c ****     mbedtls_asn1_buf params;
 818:/home/xingli/share/LiteOS_Lab/network/dtls/mbedtls/mbedtls-2.16.2/library/pkparse.c ****     unsigned char *p = (unsigned char *) key;
 2023              		.loc 2 818 20
 2024 0027 488B45A0 		movq	-96(%rbp), %rax
 2025 002b 488945C8 		movq	%rax, -56(%rbp)
 819:/home/xingli/share/LiteOS_Lab/network/dtls/mbedtls/mbedtls-2.16.2/library/pkparse.c ****     unsigned char *end = p + keylen;
 2026              		.loc 2 819 28
 2027 002f 488B55C8 		movq	-56(%rbp), %rdx
 2028              		.loc 2 819 20
 2029 0033 488B4598 		movq	-104(%rbp), %rax
 2030 0037 4801D0   		addq	%rdx, %rax
 2031 003a 488945D0 		movq	%rax, -48(%rbp)
 820:/home/xingli/share/LiteOS_Lab/network/dtls/mbedtls/mbedtls-2.16.2/library/pkparse.c ****     unsigned char *end2;
 821:/home/xingli/share/LiteOS_Lab/network/dtls/mbedtls/mbedtls-2.16.2/library/pkparse.c **** 
 822:/home/xingli/share/LiteOS_Lab/network/dtls/mbedtls/mbedtls-2.16.2/library/pkparse.c ****     /*
 823:/home/xingli/share/LiteOS_Lab/network/dtls/mbedtls/mbedtls-2.16.2/library/pkparse.c ****      * RFC 5915, or SEC1 Appendix C.4
 824:/home/xingli/share/LiteOS_Lab/network/dtls/mbedtls/mbedtls-2.16.2/library/pkparse.c ****      *
 825:/home/xingli/share/LiteOS_Lab/network/dtls/mbedtls/mbedtls-2.16.2/library/pkparse.c ****      * ECPrivateKey ::= SEQUENCE {
 826:/home/xingli/share/LiteOS_Lab/network/dtls/mbedtls/mbedtls-2.16.2/library/pkparse.c ****      *      version        INTEGER { ecPrivkeyVer1(1) } (ecPrivkeyVer1),
 827:/home/xingli/share/LiteOS_Lab/network/dtls/mbedtls/mbedtls-2.16.2/library/pkparse.c ****      *      privateKey     OCTET STRING,
 828:/home/xingli/share/LiteOS_Lab/network/dtls/mbedtls/mbedtls-2.16.2/library/pkparse.c ****      *      parameters [0] ECParameters {{ NamedCurve }} OPTIONAL,
 829:/home/xingli/share/LiteOS_Lab/network/dtls/mbedtls/mbedtls-2.16.2/library/pkparse.c ****      *      publicKey  [1] BIT STRING OPTIONAL
 830:/home/xingli/share/LiteOS_Lab/network/dtls/mbedtls/mbedtls-2.16.2/library/pkparse.c ****      *    }
 831:/home/xingli/share/LiteOS_Lab/network/dtls/mbedtls/mbedtls-2.16.2/library/pkparse.c ****      */
 832:/home/xingli/share/LiteOS_Lab/network/dtls/mbedtls/mbedtls-2.16.2/library/pkparse.c ****     if( ( ret = mbedtls_asn1_get_tag( &p, end, &len,
 2032              		.loc 2 832 17
 2033 003e 488D55C0 		leaq	-64(%rbp), %rdx
 2034 0042 488B75D0 		movq	-48(%rbp), %rsi
 2035 0046 488D45C8 		leaq	-56(%rbp), %rax
 2036 004a B9300000 		movl	$48, %ecx
 2036      00
 2037 004f 4889C7   		movq	%rax, %rdi
GAS LISTING /tmp/ccmvMAN8.s 			page 61


 2038 0052 E8000000 		call	mbedtls_asn1_get_tag@PLT
 2038      00
 2039 0057 8945B8   		movl	%eax, -72(%rbp)
 2040              		.loc 2 832 7
 2041 005a 837DB800 		cmpl	$0, -72(%rbp)
 2042 005e 740D     		je	.L140
 833:/home/xingli/share/LiteOS_Lab/network/dtls/mbedtls/mbedtls-2.16.2/library/pkparse.c ****             MBEDTLS_ASN1_CONSTRUCTED | MBEDTLS_ASN1_SEQUENCE ) ) != 0 )
 834:/home/xingli/share/LiteOS_Lab/network/dtls/mbedtls/mbedtls-2.16.2/library/pkparse.c ****     {
 835:/home/xingli/share/LiteOS_Lab/network/dtls/mbedtls/mbedtls-2.16.2/library/pkparse.c ****         return( MBEDTLS_ERR_PK_KEY_INVALID_FORMAT + ret );
 2043              		.loc 2 835 51
 2044 0060 8B45B8   		movl	-72(%rbp), %eax
 2045 0063 2D003D00 		subl	$15616, %eax
 2045      00
 2046 0068 E9F40200 		jmp	.L156
 2046      00
 2047              	.L140:
 836:/home/xingli/share/LiteOS_Lab/network/dtls/mbedtls/mbedtls-2.16.2/library/pkparse.c ****     }
 837:/home/xingli/share/LiteOS_Lab/network/dtls/mbedtls/mbedtls-2.16.2/library/pkparse.c **** 
 838:/home/xingli/share/LiteOS_Lab/network/dtls/mbedtls/mbedtls-2.16.2/library/pkparse.c ****     end = p + len;
 2048              		.loc 2 838 13
 2049 006d 488B55C8 		movq	-56(%rbp), %rdx
 2050 0071 488B45C0 		movq	-64(%rbp), %rax
 2051              		.loc 2 838 9
 2052 0075 4801D0   		addq	%rdx, %rax
 2053 0078 488945D0 		movq	%rax, -48(%rbp)
 839:/home/xingli/share/LiteOS_Lab/network/dtls/mbedtls/mbedtls-2.16.2/library/pkparse.c **** 
 840:/home/xingli/share/LiteOS_Lab/network/dtls/mbedtls/mbedtls-2.16.2/library/pkparse.c ****     if( ( ret = mbedtls_asn1_get_int( &p, end, &version ) ) != 0 )
 2054              		.loc 2 840 17
 2055 007c 488D55B4 		leaq	-76(%rbp), %rdx
 2056 0080 488B4DD0 		movq	-48(%rbp), %rcx
 2057 0084 488D45C8 		leaq	-56(%rbp), %rax
 2058 0088 4889CE   		movq	%rcx, %rsi
 2059 008b 4889C7   		movq	%rax, %rdi
 2060 008e E8000000 		call	mbedtls_asn1_get_int@PLT
 2060      00
 2061 0093 8945B8   		movl	%eax, -72(%rbp)
 2062              		.loc 2 840 7
 2063 0096 837DB800 		cmpl	$0, -72(%rbp)
 2064 009a 740D     		je	.L142
 841:/home/xingli/share/LiteOS_Lab/network/dtls/mbedtls/mbedtls-2.16.2/library/pkparse.c ****         return( MBEDTLS_ERR_PK_KEY_INVALID_FORMAT + ret );
 2065              		.loc 2 841 51
 2066 009c 8B45B8   		movl	-72(%rbp), %eax
 2067 009f 2D003D00 		subl	$15616, %eax
 2067      00
 2068 00a4 E9B80200 		jmp	.L156
 2068      00
 2069              	.L142:
 842:/home/xingli/share/LiteOS_Lab/network/dtls/mbedtls/mbedtls-2.16.2/library/pkparse.c **** 
 843:/home/xingli/share/LiteOS_Lab/network/dtls/mbedtls/mbedtls-2.16.2/library/pkparse.c ****     if( version != 1 )
 2070              		.loc 2 843 17
 2071 00a9 8B45B4   		movl	-76(%rbp), %eax
 2072              		.loc 2 843 7
 2073 00ac 83F801   		cmpl	$1, %eax
 2074 00af 740A     		je	.L143
 844:/home/xingli/share/LiteOS_Lab/network/dtls/mbedtls/mbedtls-2.16.2/library/pkparse.c ****         return( MBEDTLS_ERR_PK_KEY_INVALID_VERSION );
 2075              		.loc 2 844 15
 2076 00b1 B880C2FF 		movl	$-15744, %eax
GAS LISTING /tmp/ccmvMAN8.s 			page 62


 2076      FF
 2077 00b6 E9A60200 		jmp	.L156
 2077      00
 2078              	.L143:
 845:/home/xingli/share/LiteOS_Lab/network/dtls/mbedtls/mbedtls-2.16.2/library/pkparse.c **** 
 846:/home/xingli/share/LiteOS_Lab/network/dtls/mbedtls/mbedtls-2.16.2/library/pkparse.c ****     if( ( ret = mbedtls_asn1_get_tag( &p, end, &len, MBEDTLS_ASN1_OCTET_STRING ) ) != 0 )
 2079              		.loc 2 846 17
 2080 00bb 488D55C0 		leaq	-64(%rbp), %rdx
 2081 00bf 488B75D0 		movq	-48(%rbp), %rsi
 2082 00c3 488D45C8 		leaq	-56(%rbp), %rax
 2083 00c7 B9040000 		movl	$4, %ecx
 2083      00
 2084 00cc 4889C7   		movq	%rax, %rdi
 2085 00cf E8000000 		call	mbedtls_asn1_get_tag@PLT
 2085      00
 2086 00d4 8945B8   		movl	%eax, -72(%rbp)
 2087              		.loc 2 846 7
 2088 00d7 837DB800 		cmpl	$0, -72(%rbp)
 2089 00db 740D     		je	.L144
 847:/home/xingli/share/LiteOS_Lab/network/dtls/mbedtls/mbedtls-2.16.2/library/pkparse.c ****         return( MBEDTLS_ERR_PK_KEY_INVALID_FORMAT + ret );
 2090              		.loc 2 847 51
 2091 00dd 8B45B8   		movl	-72(%rbp), %eax
 2092 00e0 2D003D00 		subl	$15616, %eax
 2092      00
 2093 00e5 E9770200 		jmp	.L156
 2093      00
 2094              	.L144:
 848:/home/xingli/share/LiteOS_Lab/network/dtls/mbedtls/mbedtls-2.16.2/library/pkparse.c **** 
 849:/home/xingli/share/LiteOS_Lab/network/dtls/mbedtls/mbedtls-2.16.2/library/pkparse.c ****     if( ( ret = mbedtls_mpi_read_binary( &eck->d, p, len ) ) != 0 )
 2095              		.loc 2 849 17
 2096 00ea 488B55C0 		movq	-64(%rbp), %rdx
 2097 00ee 488B45C8 		movq	-56(%rbp), %rax
 2098 00f2 488B4DA8 		movq	-88(%rbp), %rcx
 2099 00f6 4881C1F8 		addq	$248, %rcx
 2099      000000
 2100 00fd 4889C6   		movq	%rax, %rsi
 2101 0100 4889CF   		movq	%rcx, %rdi
 2102 0103 E8000000 		call	mbedtls_mpi_read_binary@PLT
 2102      00
 2103 0108 8945B8   		movl	%eax, -72(%rbp)
 2104              		.loc 2 849 7
 2105 010b 837DB800 		cmpl	$0, -72(%rbp)
 2106 010f 7419     		je	.L145
 850:/home/xingli/share/LiteOS_Lab/network/dtls/mbedtls/mbedtls-2.16.2/library/pkparse.c ****     {
 851:/home/xingli/share/LiteOS_Lab/network/dtls/mbedtls/mbedtls-2.16.2/library/pkparse.c ****         mbedtls_ecp_keypair_free( eck );
 2107              		.loc 2 851 9
 2108 0111 488B45A8 		movq	-88(%rbp), %rax
 2109 0115 4889C7   		movq	%rax, %rdi
 2110 0118 E8000000 		call	mbedtls_ecp_keypair_free@PLT
 2110      00
 852:/home/xingli/share/LiteOS_Lab/network/dtls/mbedtls/mbedtls-2.16.2/library/pkparse.c ****         return( MBEDTLS_ERR_PK_KEY_INVALID_FORMAT + ret );
 2111              		.loc 2 852 51
 2112 011d 8B45B8   		movl	-72(%rbp), %eax
 2113 0120 2D003D00 		subl	$15616, %eax
 2113      00
 2114 0125 E9370200 		jmp	.L156
 2114      00
GAS LISTING /tmp/ccmvMAN8.s 			page 63


 2115              	.L145:
 853:/home/xingli/share/LiteOS_Lab/network/dtls/mbedtls/mbedtls-2.16.2/library/pkparse.c ****     }
 854:/home/xingli/share/LiteOS_Lab/network/dtls/mbedtls/mbedtls-2.16.2/library/pkparse.c **** 
 855:/home/xingli/share/LiteOS_Lab/network/dtls/mbedtls/mbedtls-2.16.2/library/pkparse.c ****     p += len;
 2116              		.loc 2 855 7
 2117 012a 488B55C8 		movq	-56(%rbp), %rdx
 2118 012e 488B45C0 		movq	-64(%rbp), %rax
 2119 0132 4801D0   		addq	%rdx, %rax
 2120 0135 488945C8 		movq	%rax, -56(%rbp)
 856:/home/xingli/share/LiteOS_Lab/network/dtls/mbedtls/mbedtls-2.16.2/library/pkparse.c **** 
 857:/home/xingli/share/LiteOS_Lab/network/dtls/mbedtls/mbedtls-2.16.2/library/pkparse.c ****     pubkey_done = 0;
 2121              		.loc 2 857 17
 2122 0139 C745BC00 		movl	$0, -68(%rbp)
 2122      000000
 858:/home/xingli/share/LiteOS_Lab/network/dtls/mbedtls/mbedtls-2.16.2/library/pkparse.c ****     if( p != end )
 2123              		.loc 2 858 11
 2124 0140 488B45C8 		movq	-56(%rbp), %rax
 2125              		.loc 2 858 7
 2126 0144 483945D0 		cmpq	%rax, -48(%rbp)
 2127 0148 0F849900 		je	.L146
 2127      0000
 859:/home/xingli/share/LiteOS_Lab/network/dtls/mbedtls/mbedtls-2.16.2/library/pkparse.c ****     {
 860:/home/xingli/share/LiteOS_Lab/network/dtls/mbedtls/mbedtls-2.16.2/library/pkparse.c ****         /*
 861:/home/xingli/share/LiteOS_Lab/network/dtls/mbedtls/mbedtls-2.16.2/library/pkparse.c ****          * Is 'parameters' present?
 862:/home/xingli/share/LiteOS_Lab/network/dtls/mbedtls/mbedtls-2.16.2/library/pkparse.c ****          */
 863:/home/xingli/share/LiteOS_Lab/network/dtls/mbedtls/mbedtls-2.16.2/library/pkparse.c ****         if( ( ret = mbedtls_asn1_get_tag( &p, end, &len,
 2128              		.loc 2 863 21
 2129 014e 488D55C0 		leaq	-64(%rbp), %rdx
 2130 0152 488B75D0 		movq	-48(%rbp), %rsi
 2131 0156 488D45C8 		leaq	-56(%rbp), %rax
 2132 015a B9A00000 		movl	$160, %ecx
 2132      00
 2133 015f 4889C7   		movq	%rax, %rdi
 2134 0162 E8000000 		call	mbedtls_asn1_get_tag@PLT
 2134      00
 2135 0167 8945B8   		movl	%eax, -72(%rbp)
 2136              		.loc 2 863 11
 2137 016a 837DB800 		cmpl	$0, -72(%rbp)
 2138 016e 7558     		jne	.L147
 864:/home/xingli/share/LiteOS_Lab/network/dtls/mbedtls/mbedtls-2.16.2/library/pkparse.c ****                         MBEDTLS_ASN1_CONTEXT_SPECIFIC | MBEDTLS_ASN1_CONSTRUCTED | 0 ) ) == 0 )
 865:/home/xingli/share/LiteOS_Lab/network/dtls/mbedtls/mbedtls-2.16.2/library/pkparse.c ****         {
 866:/home/xingli/share/LiteOS_Lab/network/dtls/mbedtls/mbedtls-2.16.2/library/pkparse.c ****             if( ( ret = pk_get_ecparams( &p, p + len, &params) ) != 0 ||
 2139              		.loc 2 866 25
 2140 0170 488B55C8 		movq	-56(%rbp), %rdx
 2141 0174 488B45C0 		movq	-64(%rbp), %rax
 2142              		.loc 2 866 48
 2143 0178 488D0C02 		leaq	(%rdx,%rax), %rcx
 2144              		.loc 2 866 25
 2145 017c 488D55E0 		leaq	-32(%rbp), %rdx
 2146 0180 488D45C8 		leaq	-56(%rbp), %rax
 2147 0184 4889CE   		movq	%rcx, %rsi
 2148 0187 4889C7   		movq	%rax, %rdi
 2149 018a E8000000 		call	pk_get_ecparams
 2149      00
 2150 018f 8945B8   		movl	%eax, -72(%rbp)
 2151              		.loc 2 866 15
 2152 0192 837DB800 		cmpl	$0, -72(%rbp)
GAS LISTING /tmp/ccmvMAN8.s 			page 64


 2153 0196 751C     		jne	.L148
 867:/home/xingli/share/LiteOS_Lab/network/dtls/mbedtls/mbedtls-2.16.2/library/pkparse.c ****                 ( ret = pk_use_ecparams( &params, &eck->grp )  ) != 0 )
 2154              		.loc 2 867 25 discriminator 1
 2155 0198 488B55A8 		movq	-88(%rbp), %rdx
 2156 019c 488D45E0 		leaq	-32(%rbp), %rax
 2157 01a0 4889D6   		movq	%rdx, %rsi
 2158 01a3 4889C7   		movq	%rax, %rdi
 2159 01a6 E8000000 		call	pk_use_ecparams
 2159      00
 2160 01ab 8945B8   		movl	%eax, -72(%rbp)
 866:/home/xingli/share/LiteOS_Lab/network/dtls/mbedtls/mbedtls-2.16.2/library/pkparse.c ****                 ( ret = pk_use_ecparams( &params, &eck->grp )  ) != 0 )
 2161              		.loc 2 866 71 discriminator 1
 2162 01ae 837DB800 		cmpl	$0, -72(%rbp)
 2163 01b2 7433     		je	.L146
 2164              	.L148:
 868:/home/xingli/share/LiteOS_Lab/network/dtls/mbedtls/mbedtls-2.16.2/library/pkparse.c ****             {
 869:/home/xingli/share/LiteOS_Lab/network/dtls/mbedtls/mbedtls-2.16.2/library/pkparse.c ****                 mbedtls_ecp_keypair_free( eck );
 2165              		.loc 2 869 17
 2166 01b4 488B45A8 		movq	-88(%rbp), %rax
 2167 01b8 4889C7   		movq	%rax, %rdi
 2168 01bb E8000000 		call	mbedtls_ecp_keypair_free@PLT
 2168      00
 870:/home/xingli/share/LiteOS_Lab/network/dtls/mbedtls/mbedtls-2.16.2/library/pkparse.c ****                 return( ret );
 2169              		.loc 2 870 23
 2170 01c0 8B45B8   		movl	-72(%rbp), %eax
 2171 01c3 E9990100 		jmp	.L156
 2171      00
 2172              	.L147:
 871:/home/xingli/share/LiteOS_Lab/network/dtls/mbedtls/mbedtls-2.16.2/library/pkparse.c ****             }
 872:/home/xingli/share/LiteOS_Lab/network/dtls/mbedtls/mbedtls-2.16.2/library/pkparse.c ****         }
 873:/home/xingli/share/LiteOS_Lab/network/dtls/mbedtls/mbedtls-2.16.2/library/pkparse.c ****         else if( ret != MBEDTLS_ERR_ASN1_UNEXPECTED_TAG )
 2173              		.loc 2 873 16
 2174 01c8 837DB89E 		cmpl	$-98, -72(%rbp)
 2175 01cc 7419     		je	.L146
 874:/home/xingli/share/LiteOS_Lab/network/dtls/mbedtls/mbedtls-2.16.2/library/pkparse.c ****         {
 875:/home/xingli/share/LiteOS_Lab/network/dtls/mbedtls/mbedtls-2.16.2/library/pkparse.c ****             mbedtls_ecp_keypair_free( eck );
 2176              		.loc 2 875 13
 2177 01ce 488B45A8 		movq	-88(%rbp), %rax
 2178 01d2 4889C7   		movq	%rax, %rdi
 2179 01d5 E8000000 		call	mbedtls_ecp_keypair_free@PLT
 2179      00
 876:/home/xingli/share/LiteOS_Lab/network/dtls/mbedtls/mbedtls-2.16.2/library/pkparse.c ****             return( MBEDTLS_ERR_PK_KEY_INVALID_FORMAT + ret );
 2180              		.loc 2 876 55
 2181 01da 8B45B8   		movl	-72(%rbp), %eax
 2182 01dd 2D003D00 		subl	$15616, %eax
 2182      00
 2183 01e2 E97A0100 		jmp	.L156
 2183      00
 2184              	.L146:
 877:/home/xingli/share/LiteOS_Lab/network/dtls/mbedtls/mbedtls-2.16.2/library/pkparse.c ****         }
 878:/home/xingli/share/LiteOS_Lab/network/dtls/mbedtls/mbedtls-2.16.2/library/pkparse.c ****     }
 879:/home/xingli/share/LiteOS_Lab/network/dtls/mbedtls/mbedtls-2.16.2/library/pkparse.c **** 
 880:/home/xingli/share/LiteOS_Lab/network/dtls/mbedtls/mbedtls-2.16.2/library/pkparse.c ****     if( p != end )
 2185              		.loc 2 880 11
 2186 01e7 488B45C8 		movq	-56(%rbp), %rax
 2187              		.loc 2 880 7
 2188 01eb 483945D0 		cmpq	%rax, -48(%rbp)
GAS LISTING /tmp/ccmvMAN8.s 			page 65


 2189 01ef 0F84D800 		je	.L149
 2189      0000
 881:/home/xingli/share/LiteOS_Lab/network/dtls/mbedtls/mbedtls-2.16.2/library/pkparse.c ****     {
 882:/home/xingli/share/LiteOS_Lab/network/dtls/mbedtls/mbedtls-2.16.2/library/pkparse.c ****         /*
 883:/home/xingli/share/LiteOS_Lab/network/dtls/mbedtls/mbedtls-2.16.2/library/pkparse.c ****          * Is 'publickey' present? If not, or if we can't read it (eg because it
 884:/home/xingli/share/LiteOS_Lab/network/dtls/mbedtls/mbedtls-2.16.2/library/pkparse.c ****          * is compressed), create it from the private key.
 885:/home/xingli/share/LiteOS_Lab/network/dtls/mbedtls/mbedtls-2.16.2/library/pkparse.c ****          */
 886:/home/xingli/share/LiteOS_Lab/network/dtls/mbedtls/mbedtls-2.16.2/library/pkparse.c ****         if( ( ret = mbedtls_asn1_get_tag( &p, end, &len,
 2190              		.loc 2 886 21
 2191 01f5 488D55C0 		leaq	-64(%rbp), %rdx
 2192 01f9 488B75D0 		movq	-48(%rbp), %rsi
 2193 01fd 488D45C8 		leaq	-56(%rbp), %rax
 2194 0201 B9A10000 		movl	$161, %ecx
 2194      00
 2195 0206 4889C7   		movq	%rax, %rdi
 2196 0209 E8000000 		call	mbedtls_asn1_get_tag@PLT
 2196      00
 2197 020e 8945B8   		movl	%eax, -72(%rbp)
 2198              		.loc 2 886 11
 2199 0211 837DB800 		cmpl	$0, -72(%rbp)
 2200 0215 0F859300 		jne	.L150
 2200      0000
 887:/home/xingli/share/LiteOS_Lab/network/dtls/mbedtls/mbedtls-2.16.2/library/pkparse.c ****                         MBEDTLS_ASN1_CONTEXT_SPECIFIC | MBEDTLS_ASN1_CONSTRUCTED | 1 ) ) == 0 )
 888:/home/xingli/share/LiteOS_Lab/network/dtls/mbedtls/mbedtls-2.16.2/library/pkparse.c ****         {
 889:/home/xingli/share/LiteOS_Lab/network/dtls/mbedtls/mbedtls-2.16.2/library/pkparse.c ****             end2 = p + len;
 2201              		.loc 2 889 22
 2202 021b 488B55C8 		movq	-56(%rbp), %rdx
 2203 021f 488B45C0 		movq	-64(%rbp), %rax
 2204              		.loc 2 889 18
 2205 0223 4801D0   		addq	%rdx, %rax
 2206 0226 488945D8 		movq	%rax, -40(%rbp)
 890:/home/xingli/share/LiteOS_Lab/network/dtls/mbedtls/mbedtls-2.16.2/library/pkparse.c **** 
 891:/home/xingli/share/LiteOS_Lab/network/dtls/mbedtls/mbedtls-2.16.2/library/pkparse.c ****             if( ( ret = mbedtls_asn1_get_bitstring_null( &p, end2, &len ) ) != 0 )
 2207              		.loc 2 891 25
 2208 022a 488D55C0 		leaq	-64(%rbp), %rdx
 2209 022e 488B4DD8 		movq	-40(%rbp), %rcx
 2210 0232 488D45C8 		leaq	-56(%rbp), %rax
 2211 0236 4889CE   		movq	%rcx, %rsi
 2212 0239 4889C7   		movq	%rax, %rdi
 2213 023c E8000000 		call	mbedtls_asn1_get_bitstring_null@PLT
 2213      00
 2214 0241 8945B8   		movl	%eax, -72(%rbp)
 2215              		.loc 2 891 15
 2216 0244 837DB800 		cmpl	$0, -72(%rbp)
 2217 0248 740D     		je	.L151
 892:/home/xingli/share/LiteOS_Lab/network/dtls/mbedtls/mbedtls-2.16.2/library/pkparse.c ****                 return( MBEDTLS_ERR_PK_KEY_INVALID_FORMAT + ret );
 2218              		.loc 2 892 59
 2219 024a 8B45B8   		movl	-72(%rbp), %eax
 2220 024d 2D003D00 		subl	$15616, %eax
 2220      00
 2221 0252 E90A0100 		jmp	.L156
 2221      00
 2222              	.L151:
 893:/home/xingli/share/LiteOS_Lab/network/dtls/mbedtls/mbedtls-2.16.2/library/pkparse.c **** 
 894:/home/xingli/share/LiteOS_Lab/network/dtls/mbedtls/mbedtls-2.16.2/library/pkparse.c ****             if( p + len != end2 )
 2223              		.loc 2 894 19
 2224 0257 488B55C8 		movq	-56(%rbp), %rdx
GAS LISTING /tmp/ccmvMAN8.s 			page 66


 2225 025b 488B45C0 		movq	-64(%rbp), %rax
 2226 025f 4801D0   		addq	%rdx, %rax
 2227              		.loc 2 894 15
 2228 0262 483945D8 		cmpq	%rax, -40(%rbp)
 2229 0266 740A     		je	.L152
 895:/home/xingli/share/LiteOS_Lab/network/dtls/mbedtls/mbedtls-2.16.2/library/pkparse.c ****                 return( MBEDTLS_ERR_PK_KEY_INVALID_FORMAT +
 2230              		.loc 2 895 23
 2231 0268 B89AC2FF 		movl	$-15718, %eax
 2231      FF
 2232 026d E9EF0000 		jmp	.L156
 2232      00
 2233              	.L152:
 896:/home/xingli/share/LiteOS_Lab/network/dtls/mbedtls/mbedtls-2.16.2/library/pkparse.c ****                         MBEDTLS_ERR_ASN1_LENGTH_MISMATCH );
 897:/home/xingli/share/LiteOS_Lab/network/dtls/mbedtls/mbedtls-2.16.2/library/pkparse.c **** 
 898:/home/xingli/share/LiteOS_Lab/network/dtls/mbedtls/mbedtls-2.16.2/library/pkparse.c ****             if( ( ret = pk_get_ecpubkey( &p, end2, eck ) ) == 0 )
 2234              		.loc 2 898 25
 2235 0272 488B55A8 		movq	-88(%rbp), %rdx
 2236 0276 488B4DD8 		movq	-40(%rbp), %rcx
 2237 027a 488D45C8 		leaq	-56(%rbp), %rax
 2238 027e 4889CE   		movq	%rcx, %rsi
 2239 0281 4889C7   		movq	%rax, %rdi
 2240 0284 E8000000 		call	pk_get_ecpubkey
 2240      00
 2241 0289 8945B8   		movl	%eax, -72(%rbp)
 2242              		.loc 2 898 15
 2243 028c 837DB800 		cmpl	$0, -72(%rbp)
 2244 0290 7509     		jne	.L153
 899:/home/xingli/share/LiteOS_Lab/network/dtls/mbedtls/mbedtls-2.16.2/library/pkparse.c ****                 pubkey_done = 1;
 2245              		.loc 2 899 29
 2246 0292 C745BC01 		movl	$1, -68(%rbp)
 2246      000000
 2247 0299 EB32     		jmp	.L149
 2248              	.L153:
 900:/home/xingli/share/LiteOS_Lab/network/dtls/mbedtls/mbedtls-2.16.2/library/pkparse.c ****             else
 901:/home/xingli/share/LiteOS_Lab/network/dtls/mbedtls/mbedtls-2.16.2/library/pkparse.c ****             {
 902:/home/xingli/share/LiteOS_Lab/network/dtls/mbedtls/mbedtls-2.16.2/library/pkparse.c ****                 /*
 903:/home/xingli/share/LiteOS_Lab/network/dtls/mbedtls/mbedtls-2.16.2/library/pkparse.c ****                  * The only acceptable failure mode of pk_get_ecpubkey() above
 904:/home/xingli/share/LiteOS_Lab/network/dtls/mbedtls/mbedtls-2.16.2/library/pkparse.c ****                  * is if the point format is not recognized.
 905:/home/xingli/share/LiteOS_Lab/network/dtls/mbedtls/mbedtls-2.16.2/library/pkparse.c ****                  */
 906:/home/xingli/share/LiteOS_Lab/network/dtls/mbedtls/mbedtls-2.16.2/library/pkparse.c ****                 if( ret != MBEDTLS_ERR_ECP_FEATURE_UNAVAILABLE )
 2249              		.loc 2 906 19
 2250 029b 817DB880 		cmpl	$-20096, -72(%rbp)
 2250      B1FFFF
 2251 02a2 7429     		je	.L149
 907:/home/xingli/share/LiteOS_Lab/network/dtls/mbedtls/mbedtls-2.16.2/library/pkparse.c ****                     return( MBEDTLS_ERR_PK_KEY_INVALID_FORMAT );
 2252              		.loc 2 907 27
 2253 02a4 B800C3FF 		movl	$-15616, %eax
 2253      FF
 2254 02a9 E9B30000 		jmp	.L156
 2254      00
 2255              	.L150:
 908:/home/xingli/share/LiteOS_Lab/network/dtls/mbedtls/mbedtls-2.16.2/library/pkparse.c ****             }
 909:/home/xingli/share/LiteOS_Lab/network/dtls/mbedtls/mbedtls-2.16.2/library/pkparse.c ****         }
 910:/home/xingli/share/LiteOS_Lab/network/dtls/mbedtls/mbedtls-2.16.2/library/pkparse.c ****         else if( ret != MBEDTLS_ERR_ASN1_UNEXPECTED_TAG )
 2256              		.loc 2 910 16
 2257 02ae 837DB89E 		cmpl	$-98, -72(%rbp)
 2258 02b2 7419     		je	.L149
GAS LISTING /tmp/ccmvMAN8.s 			page 67


 911:/home/xingli/share/LiteOS_Lab/network/dtls/mbedtls/mbedtls-2.16.2/library/pkparse.c ****         {
 912:/home/xingli/share/LiteOS_Lab/network/dtls/mbedtls/mbedtls-2.16.2/library/pkparse.c ****             mbedtls_ecp_keypair_free( eck );
 2259              		.loc 2 912 13
 2260 02b4 488B45A8 		movq	-88(%rbp), %rax
 2261 02b8 4889C7   		movq	%rax, %rdi
 2262 02bb E8000000 		call	mbedtls_ecp_keypair_free@PLT
 2262      00
 913:/home/xingli/share/LiteOS_Lab/network/dtls/mbedtls/mbedtls-2.16.2/library/pkparse.c ****             return( MBEDTLS_ERR_PK_KEY_INVALID_FORMAT + ret );
 2263              		.loc 2 913 55
 2264 02c0 8B45B8   		movl	-72(%rbp), %eax
 2265 02c3 2D003D00 		subl	$15616, %eax
 2265      00
 2266 02c8 E9940000 		jmp	.L156
 2266      00
 2267              	.L149:
 914:/home/xingli/share/LiteOS_Lab/network/dtls/mbedtls/mbedtls-2.16.2/library/pkparse.c ****         }
 915:/home/xingli/share/LiteOS_Lab/network/dtls/mbedtls/mbedtls-2.16.2/library/pkparse.c ****     }
 916:/home/xingli/share/LiteOS_Lab/network/dtls/mbedtls/mbedtls-2.16.2/library/pkparse.c **** 
 917:/home/xingli/share/LiteOS_Lab/network/dtls/mbedtls/mbedtls-2.16.2/library/pkparse.c ****     if( ! pubkey_done &&
 2268              		.loc 2 917 7
 2269 02cd 837DBC00 		cmpl	$0, -68(%rbp)
 2270 02d1 7555     		jne	.L154
 918:/home/xingli/share/LiteOS_Lab/network/dtls/mbedtls/mbedtls-2.16.2/library/pkparse.c ****         ( ret = mbedtls_ecp_mul( &eck->grp, &eck->Q, &eck->d, &eck->grp.G,
 2271              		.loc 2 918 63 discriminator 1
 2272 02d3 488B45A8 		movq	-88(%rbp), %rax
 2273 02d7 488D4850 		leaq	80(%rax), %rcx
 2274              		.loc 2 918 54 discriminator 1
 2275 02db 488B45A8 		movq	-88(%rbp), %rax
 2276 02df 488D90F8 		leaq	248(%rax), %rdx
 2276      000000
 2277              		.loc 2 918 17 discriminator 1
 2278 02e6 488B45A8 		movq	-88(%rbp), %rax
 2279 02ea 488DB010 		leaq	272(%rax), %rsi
 2279      010000
 2280 02f1 488B45A8 		movq	-88(%rbp), %rax
 2281 02f5 41B90000 		movl	$0, %r9d
 2281      0000
 2282 02fb 41B80000 		movl	$0, %r8d
 2282      0000
 2283 0301 4889C7   		movq	%rax, %rdi
 2284 0304 E8000000 		call	mbedtls_ecp_mul@PLT
 2284      00
 2285 0309 8945B8   		movl	%eax, -72(%rbp)
 917:/home/xingli/share/LiteOS_Lab/network/dtls/mbedtls/mbedtls-2.16.2/library/pkparse.c ****         ( ret = mbedtls_ecp_mul( &eck->grp, &eck->Q, &eck->d, &eck->grp.G,
 2286              		.loc 2 917 23 discriminator 1
 2287 030c 837DB800 		cmpl	$0, -72(%rbp)
 2288 0310 7416     		je	.L154
 919:/home/xingli/share/LiteOS_Lab/network/dtls/mbedtls/mbedtls-2.16.2/library/pkparse.c ****                                                       NULL, NULL ) ) != 0 )
 920:/home/xingli/share/LiteOS_Lab/network/dtls/mbedtls/mbedtls-2.16.2/library/pkparse.c ****     {
 921:/home/xingli/share/LiteOS_Lab/network/dtls/mbedtls/mbedtls-2.16.2/library/pkparse.c ****         mbedtls_ecp_keypair_free( eck );
 2289              		.loc 2 921 9
 2290 0312 488B45A8 		movq	-88(%rbp), %rax
 2291 0316 4889C7   		movq	%rax, %rdi
 2292 0319 E8000000 		call	mbedtls_ecp_keypair_free@PLT
 2292      00
 922:/home/xingli/share/LiteOS_Lab/network/dtls/mbedtls/mbedtls-2.16.2/library/pkparse.c ****         return( MBEDTLS_ERR_PK_KEY_INVALID_FORMAT + ret );
 2293              		.loc 2 922 51
GAS LISTING /tmp/ccmvMAN8.s 			page 68


 2294 031e 8B45B8   		movl	-72(%rbp), %eax
 2295 0321 2D003D00 		subl	$15616, %eax
 2295      00
 2296 0326 EB39     		jmp	.L156
 2297              	.L154:
 923:/home/xingli/share/LiteOS_Lab/network/dtls/mbedtls/mbedtls-2.16.2/library/pkparse.c ****     }
 924:/home/xingli/share/LiteOS_Lab/network/dtls/mbedtls/mbedtls-2.16.2/library/pkparse.c **** 
 925:/home/xingli/share/LiteOS_Lab/network/dtls/mbedtls/mbedtls-2.16.2/library/pkparse.c ****     if( ( ret = mbedtls_ecp_check_privkey( &eck->grp, &eck->d ) ) != 0 )
 2298              		.loc 2 925 55
 2299 0328 488B45A8 		movq	-88(%rbp), %rax
 2300 032c 488D90F8 		leaq	248(%rax), %rdx
 2300      000000
 2301              		.loc 2 925 44
 2302 0333 488B45A8 		movq	-88(%rbp), %rax
 2303              		.loc 2 925 17
 2304 0337 4889D6   		movq	%rdx, %rsi
 2305 033a 4889C7   		movq	%rax, %rdi
 2306 033d E8000000 		call	mbedtls_ecp_check_privkey@PLT
 2306      00
 2307 0342 8945B8   		movl	%eax, -72(%rbp)
 2308              		.loc 2 925 7
 2309 0345 837DB800 		cmpl	$0, -72(%rbp)
 2310 0349 7411     		je	.L155
 926:/home/xingli/share/LiteOS_Lab/network/dtls/mbedtls/mbedtls-2.16.2/library/pkparse.c ****     {
 927:/home/xingli/share/LiteOS_Lab/network/dtls/mbedtls/mbedtls-2.16.2/library/pkparse.c ****         mbedtls_ecp_keypair_free( eck );
 2311              		.loc 2 927 9
 2312 034b 488B45A8 		movq	-88(%rbp), %rax
 2313 034f 4889C7   		movq	%rax, %rdi
 2314 0352 E8000000 		call	mbedtls_ecp_keypair_free@PLT
 2314      00
 928:/home/xingli/share/LiteOS_Lab/network/dtls/mbedtls/mbedtls-2.16.2/library/pkparse.c ****         return( ret );
 2315              		.loc 2 928 15
 2316 0357 8B45B8   		movl	-72(%rbp), %eax
 2317 035a EB05     		jmp	.L156
 2318              	.L155:
 929:/home/xingli/share/LiteOS_Lab/network/dtls/mbedtls/mbedtls-2.16.2/library/pkparse.c ****     }
 930:/home/xingli/share/LiteOS_Lab/network/dtls/mbedtls/mbedtls-2.16.2/library/pkparse.c **** 
 931:/home/xingli/share/LiteOS_Lab/network/dtls/mbedtls/mbedtls-2.16.2/library/pkparse.c ****     return( 0 );
 2319              		.loc 2 931 11
 2320 035c B8000000 		movl	$0, %eax
 2320      00
 2321              	.L156:
 932:/home/xingli/share/LiteOS_Lab/network/dtls/mbedtls/mbedtls-2.16.2/library/pkparse.c **** }
 2322              		.loc 2 932 1 discriminator 1
 2323 0361 488B4DF8 		movq	-8(%rbp), %rcx
 2324 0365 6448330C 		xorq	%fs:40, %rcx
 2324      25280000 
 2324      00
 2325 036e 7405     		je	.L157
 2326              		.loc 2 932 1 is_stmt 0
 2327 0370 E8000000 		call	__stack_chk_fail@PLT
 2327      00
 2328              	.L157:
 2329 0375 C9       		leave
 2330              	.LCFI38:
 2331              		.cfi_def_cfa 7, 8
 2332 0376 C3       		ret
GAS LISTING /tmp/ccmvMAN8.s 			page 69


 2333              		.cfi_endproc
 2334              	.LFE26:
 2336              		.section	.text.pk_parse_key_pkcs8_unencrypted_der,"ax",@progbits
 2338              	pk_parse_key_pkcs8_unencrypted_der:
 2339              	.LFB27:
 933:/home/xingli/share/LiteOS_Lab/network/dtls/mbedtls/mbedtls-2.16.2/library/pkparse.c **** #endif /* MBEDTLS_ECP_C */
 934:/home/xingli/share/LiteOS_Lab/network/dtls/mbedtls/mbedtls-2.16.2/library/pkparse.c **** 
 935:/home/xingli/share/LiteOS_Lab/network/dtls/mbedtls/mbedtls-2.16.2/library/pkparse.c **** /*
 936:/home/xingli/share/LiteOS_Lab/network/dtls/mbedtls/mbedtls-2.16.2/library/pkparse.c ****  * Parse an unencrypted PKCS#8 encoded private key
 937:/home/xingli/share/LiteOS_Lab/network/dtls/mbedtls/mbedtls-2.16.2/library/pkparse.c ****  *
 938:/home/xingli/share/LiteOS_Lab/network/dtls/mbedtls/mbedtls-2.16.2/library/pkparse.c ****  * Notes:
 939:/home/xingli/share/LiteOS_Lab/network/dtls/mbedtls/mbedtls-2.16.2/library/pkparse.c ****  *
 940:/home/xingli/share/LiteOS_Lab/network/dtls/mbedtls/mbedtls-2.16.2/library/pkparse.c ****  * - This function does not own the key buffer. It is the
 941:/home/xingli/share/LiteOS_Lab/network/dtls/mbedtls/mbedtls-2.16.2/library/pkparse.c ****  *   responsibility of the caller to take care of zeroizing
 942:/home/xingli/share/LiteOS_Lab/network/dtls/mbedtls/mbedtls-2.16.2/library/pkparse.c ****  *   and freeing it after use.
 943:/home/xingli/share/LiteOS_Lab/network/dtls/mbedtls/mbedtls-2.16.2/library/pkparse.c ****  *
 944:/home/xingli/share/LiteOS_Lab/network/dtls/mbedtls/mbedtls-2.16.2/library/pkparse.c ****  * - The function is responsible for freeing the provided
 945:/home/xingli/share/LiteOS_Lab/network/dtls/mbedtls/mbedtls-2.16.2/library/pkparse.c ****  *   PK context on failure.
 946:/home/xingli/share/LiteOS_Lab/network/dtls/mbedtls/mbedtls-2.16.2/library/pkparse.c ****  *
 947:/home/xingli/share/LiteOS_Lab/network/dtls/mbedtls/mbedtls-2.16.2/library/pkparse.c ****  */
 948:/home/xingli/share/LiteOS_Lab/network/dtls/mbedtls/mbedtls-2.16.2/library/pkparse.c **** static int pk_parse_key_pkcs8_unencrypted_der(
 949:/home/xingli/share/LiteOS_Lab/network/dtls/mbedtls/mbedtls-2.16.2/library/pkparse.c ****                                     mbedtls_pk_context *pk,
 950:/home/xingli/share/LiteOS_Lab/network/dtls/mbedtls/mbedtls-2.16.2/library/pkparse.c ****                                     const unsigned char* key,
 951:/home/xingli/share/LiteOS_Lab/network/dtls/mbedtls/mbedtls-2.16.2/library/pkparse.c ****                                     size_t keylen )
 952:/home/xingli/share/LiteOS_Lab/network/dtls/mbedtls/mbedtls-2.16.2/library/pkparse.c **** {
 2340              		.loc 2 952 1 is_stmt 1
 2341              		.cfi_startproc
 2342 0000 F30F1EFA 		endbr64
 2343 0004 55       		pushq	%rbp
 2344              	.LCFI39:
 2345              		.cfi_def_cfa_offset 16
 2346              		.cfi_offset 6, -16
 2347 0005 4889E5   		movq	%rsp, %rbp
 2348              	.LCFI40:
 2349              		.cfi_def_cfa_register 6
 2350 0008 4154     		pushq	%r12
 2351 000a 53       		pushq	%rbx
 2352 000b 4883EC70 		subq	$112, %rsp
 2353              		.cfi_offset 12, -24
 2354              		.cfi_offset 3, -32
 2355 000f 48897D98 		movq	%rdi, -104(%rbp)
 2356 0013 48897590 		movq	%rsi, -112(%rbp)
 2357 0017 48895588 		movq	%rdx, -120(%rbp)
 2358              		.loc 2 952 1
 2359 001b 64488B04 		movq	%fs:40, %rax
 2359      25280000 
 2359      00
 2360 0024 488945E8 		movq	%rax, -24(%rbp)
 2361 0028 31C0     		xorl	%eax, %eax
 953:/home/xingli/share/LiteOS_Lab/network/dtls/mbedtls/mbedtls-2.16.2/library/pkparse.c ****     int ret, version;
 954:/home/xingli/share/LiteOS_Lab/network/dtls/mbedtls/mbedtls-2.16.2/library/pkparse.c ****     size_t len;
 955:/home/xingli/share/LiteOS_Lab/network/dtls/mbedtls/mbedtls-2.16.2/library/pkparse.c ****     mbedtls_asn1_buf params;
 956:/home/xingli/share/LiteOS_Lab/network/dtls/mbedtls/mbedtls-2.16.2/library/pkparse.c ****     unsigned char *p = (unsigned char *) key;
 2362              		.loc 2 956 20
 2363 002a 488B4590 		movq	-112(%rbp), %rax
 2364 002e 488945B8 		movq	%rax, -72(%rbp)
 957:/home/xingli/share/LiteOS_Lab/network/dtls/mbedtls/mbedtls-2.16.2/library/pkparse.c ****     unsigned char *end = p + keylen;
GAS LISTING /tmp/ccmvMAN8.s 			page 70


 2365              		.loc 2 957 28
 2366 0032 488B55B8 		movq	-72(%rbp), %rdx
 2367              		.loc 2 957 20
 2368 0036 488B4588 		movq	-120(%rbp), %rax
 2369 003a 4801D0   		addq	%rdx, %rax
 2370 003d 488945C0 		movq	%rax, -64(%rbp)
 958:/home/xingli/share/LiteOS_Lab/network/dtls/mbedtls/mbedtls-2.16.2/library/pkparse.c ****     mbedtls_pk_type_t pk_alg = MBEDTLS_PK_NONE;
 2371              		.loc 2 958 23
 2372 0041 C745A800 		movl	$0, -88(%rbp)
 2372      000000
 959:/home/xingli/share/LiteOS_Lab/network/dtls/mbedtls/mbedtls-2.16.2/library/pkparse.c ****     const mbedtls_pk_info_t *pk_info;
 960:/home/xingli/share/LiteOS_Lab/network/dtls/mbedtls/mbedtls-2.16.2/library/pkparse.c **** 
 961:/home/xingli/share/LiteOS_Lab/network/dtls/mbedtls/mbedtls-2.16.2/library/pkparse.c ****     /*
 962:/home/xingli/share/LiteOS_Lab/network/dtls/mbedtls/mbedtls-2.16.2/library/pkparse.c ****      * This function parses the PrivateKeyInfo object (PKCS#8 v1.2 = RFC 5208)
 963:/home/xingli/share/LiteOS_Lab/network/dtls/mbedtls/mbedtls-2.16.2/library/pkparse.c ****      *
 964:/home/xingli/share/LiteOS_Lab/network/dtls/mbedtls/mbedtls-2.16.2/library/pkparse.c ****      *    PrivateKeyInfo ::= SEQUENCE {
 965:/home/xingli/share/LiteOS_Lab/network/dtls/mbedtls/mbedtls-2.16.2/library/pkparse.c ****      *      version                   Version,
 966:/home/xingli/share/LiteOS_Lab/network/dtls/mbedtls/mbedtls-2.16.2/library/pkparse.c ****      *      privateKeyAlgorithm       PrivateKeyAlgorithmIdentifier,
 967:/home/xingli/share/LiteOS_Lab/network/dtls/mbedtls/mbedtls-2.16.2/library/pkparse.c ****      *      privateKey                PrivateKey,
 968:/home/xingli/share/LiteOS_Lab/network/dtls/mbedtls/mbedtls-2.16.2/library/pkparse.c ****      *      attributes           [0]  IMPLICIT Attributes OPTIONAL }
 969:/home/xingli/share/LiteOS_Lab/network/dtls/mbedtls/mbedtls-2.16.2/library/pkparse.c ****      *
 970:/home/xingli/share/LiteOS_Lab/network/dtls/mbedtls/mbedtls-2.16.2/library/pkparse.c ****      *    Version ::= INTEGER
 971:/home/xingli/share/LiteOS_Lab/network/dtls/mbedtls/mbedtls-2.16.2/library/pkparse.c ****      *    PrivateKeyAlgorithmIdentifier ::= AlgorithmIdentifier
 972:/home/xingli/share/LiteOS_Lab/network/dtls/mbedtls/mbedtls-2.16.2/library/pkparse.c ****      *    PrivateKey ::= OCTET STRING
 973:/home/xingli/share/LiteOS_Lab/network/dtls/mbedtls/mbedtls-2.16.2/library/pkparse.c ****      *
 974:/home/xingli/share/LiteOS_Lab/network/dtls/mbedtls/mbedtls-2.16.2/library/pkparse.c ****      *  The PrivateKey OCTET STRING is a SEC1 ECPrivateKey
 975:/home/xingli/share/LiteOS_Lab/network/dtls/mbedtls/mbedtls-2.16.2/library/pkparse.c ****      */
 976:/home/xingli/share/LiteOS_Lab/network/dtls/mbedtls/mbedtls-2.16.2/library/pkparse.c **** 
 977:/home/xingli/share/LiteOS_Lab/network/dtls/mbedtls/mbedtls-2.16.2/library/pkparse.c ****     if( ( ret = mbedtls_asn1_get_tag( &p, end, &len,
 2373              		.loc 2 977 17
 2374 0048 488D55B0 		leaq	-80(%rbp), %rdx
 2375 004c 488B75C0 		movq	-64(%rbp), %rsi
 2376 0050 488D45B8 		leaq	-72(%rbp), %rax
 2377 0054 B9300000 		movl	$48, %ecx
 2377      00
 2378 0059 4889C7   		movq	%rax, %rdi
 2379 005c E8000000 		call	mbedtls_asn1_get_tag@PLT
 2379      00
 2380 0061 8945AC   		movl	%eax, -84(%rbp)
 2381              		.loc 2 977 7
 2382 0064 837DAC00 		cmpl	$0, -84(%rbp)
 2383 0068 740D     		je	.L159
 978:/home/xingli/share/LiteOS_Lab/network/dtls/mbedtls/mbedtls-2.16.2/library/pkparse.c ****             MBEDTLS_ASN1_CONSTRUCTED | MBEDTLS_ASN1_SEQUENCE ) ) != 0 )
 979:/home/xingli/share/LiteOS_Lab/network/dtls/mbedtls/mbedtls-2.16.2/library/pkparse.c ****     {
 980:/home/xingli/share/LiteOS_Lab/network/dtls/mbedtls/mbedtls-2.16.2/library/pkparse.c ****         return( MBEDTLS_ERR_PK_KEY_INVALID_FORMAT + ret );
 2384              		.loc 2 980 51
 2385 006a 8B45AC   		movl	-84(%rbp), %eax
 2386 006d 2D003D00 		subl	$15616, %eax
 2386      00
 2387 0072 E9EC0100 		jmp	.L174
 2387      00
 2388              	.L159:
 981:/home/xingli/share/LiteOS_Lab/network/dtls/mbedtls/mbedtls-2.16.2/library/pkparse.c ****     }
 982:/home/xingli/share/LiteOS_Lab/network/dtls/mbedtls/mbedtls-2.16.2/library/pkparse.c **** 
 983:/home/xingli/share/LiteOS_Lab/network/dtls/mbedtls/mbedtls-2.16.2/library/pkparse.c ****     end = p + len;
 2389              		.loc 2 983 13
 2390 0077 488B55B8 		movq	-72(%rbp), %rdx
GAS LISTING /tmp/ccmvMAN8.s 			page 71


 2391 007b 488B45B0 		movq	-80(%rbp), %rax
 2392              		.loc 2 983 9
 2393 007f 4801D0   		addq	%rdx, %rax
 2394 0082 488945C0 		movq	%rax, -64(%rbp)
 984:/home/xingli/share/LiteOS_Lab/network/dtls/mbedtls/mbedtls-2.16.2/library/pkparse.c **** 
 985:/home/xingli/share/LiteOS_Lab/network/dtls/mbedtls/mbedtls-2.16.2/library/pkparse.c ****     if( ( ret = mbedtls_asn1_get_int( &p, end, &version ) ) != 0 )
 2395              		.loc 2 985 17
 2396 0086 488D55A4 		leaq	-92(%rbp), %rdx
 2397 008a 488B4DC0 		movq	-64(%rbp), %rcx
 2398 008e 488D45B8 		leaq	-72(%rbp), %rax
 2399 0092 4889CE   		movq	%rcx, %rsi
 2400 0095 4889C7   		movq	%rax, %rdi
 2401 0098 E8000000 		call	mbedtls_asn1_get_int@PLT
 2401      00
 2402 009d 8945AC   		movl	%eax, -84(%rbp)
 2403              		.loc 2 985 7
 2404 00a0 837DAC00 		cmpl	$0, -84(%rbp)
 2405 00a4 740D     		je	.L161
 986:/home/xingli/share/LiteOS_Lab/network/dtls/mbedtls/mbedtls-2.16.2/library/pkparse.c ****         return( MBEDTLS_ERR_PK_KEY_INVALID_FORMAT + ret );
 2406              		.loc 2 986 51
 2407 00a6 8B45AC   		movl	-84(%rbp), %eax
