GAS LISTING /tmp/ccXi9PaW.s 			page 1


   1              		.file	"platform.c"
   2              		.text
   3              	.Ltext0:
   4              		.section	.data.rel.mbedtls_calloc_func,"aw"
   5              		.align 8
   8              	mbedtls_calloc_func:
   9 0000 00000000 		.quad	calloc
   9      00000000 
  10              		.section	.data.rel.mbedtls_free_func,"aw"
  11              		.align 8
  14              	mbedtls_free_func:
  15 0000 00000000 		.quad	free
  15      00000000 
  16              		.section	.text.mbedtls_calloc,"ax",@progbits
  17              		.globl	mbedtls_calloc
  19              	mbedtls_calloc:
  20              	.LFB6:
  21              		.file 1 "/home/xingli/share/1205tiny/network/dtls/mbedtls/mbedtls-2.16.2/library/platform.c"
   1:/home/xingli/share/1205tiny/network/dtls/mbedtls/mbedtls-2.16.2/library/platform.c **** /*
   2:/home/xingli/share/1205tiny/network/dtls/mbedtls/mbedtls-2.16.2/library/platform.c ****  *  Platform abstraction layer
   3:/home/xingli/share/1205tiny/network/dtls/mbedtls/mbedtls-2.16.2/library/platform.c ****  *
   4:/home/xingli/share/1205tiny/network/dtls/mbedtls/mbedtls-2.16.2/library/platform.c ****  *  Copyright (C) 2006-2016, ARM Limited, All Rights Reserved
   5:/home/xingli/share/1205tiny/network/dtls/mbedtls/mbedtls-2.16.2/library/platform.c ****  *  SPDX-License-Identifier: Apache-2.0
   6:/home/xingli/share/1205tiny/network/dtls/mbedtls/mbedtls-2.16.2/library/platform.c ****  *
   7:/home/xingli/share/1205tiny/network/dtls/mbedtls/mbedtls-2.16.2/library/platform.c ****  *  Licensed under the Apache License, Version 2.0 (the "License"); you may
   8:/home/xingli/share/1205tiny/network/dtls/mbedtls/mbedtls-2.16.2/library/platform.c ****  *  not use this file except in compliance with the License.
   9:/home/xingli/share/1205tiny/network/dtls/mbedtls/mbedtls-2.16.2/library/platform.c ****  *  You may obtain a copy of the License at
  10:/home/xingli/share/1205tiny/network/dtls/mbedtls/mbedtls-2.16.2/library/platform.c ****  *
  11:/home/xingli/share/1205tiny/network/dtls/mbedtls/mbedtls-2.16.2/library/platform.c ****  *  http://www.apache.org/licenses/LICENSE-2.0
  12:/home/xingli/share/1205tiny/network/dtls/mbedtls/mbedtls-2.16.2/library/platform.c ****  *
  13:/home/xingli/share/1205tiny/network/dtls/mbedtls/mbedtls-2.16.2/library/platform.c ****  *  Unless required by applicable law or agreed to in writing, software
  14:/home/xingli/share/1205tiny/network/dtls/mbedtls/mbedtls-2.16.2/library/platform.c ****  *  distributed under the License is distributed on an "AS IS" BASIS, WITHOUT
  15:/home/xingli/share/1205tiny/network/dtls/mbedtls/mbedtls-2.16.2/library/platform.c ****  *  WARRANTIES OR CONDITIONS OF ANY KIND, either express or implied.
  16:/home/xingli/share/1205tiny/network/dtls/mbedtls/mbedtls-2.16.2/library/platform.c ****  *  See the License for the specific language governing permissions and
  17:/home/xingli/share/1205tiny/network/dtls/mbedtls/mbedtls-2.16.2/library/platform.c ****  *  limitations under the License.
  18:/home/xingli/share/1205tiny/network/dtls/mbedtls/mbedtls-2.16.2/library/platform.c ****  *
  19:/home/xingli/share/1205tiny/network/dtls/mbedtls/mbedtls-2.16.2/library/platform.c ****  *  This file is part of mbed TLS (https://tls.mbed.org)
  20:/home/xingli/share/1205tiny/network/dtls/mbedtls/mbedtls-2.16.2/library/platform.c ****  */
  21:/home/xingli/share/1205tiny/network/dtls/mbedtls/mbedtls-2.16.2/library/platform.c **** 
  22:/home/xingli/share/1205tiny/network/dtls/mbedtls/mbedtls-2.16.2/library/platform.c **** #if !defined(MBEDTLS_CONFIG_FILE)
  23:/home/xingli/share/1205tiny/network/dtls/mbedtls/mbedtls-2.16.2/library/platform.c **** #include "mbedtls/config.h"
  24:/home/xingli/share/1205tiny/network/dtls/mbedtls/mbedtls-2.16.2/library/platform.c **** #else
  25:/home/xingli/share/1205tiny/network/dtls/mbedtls/mbedtls-2.16.2/library/platform.c **** #include MBEDTLS_CONFIG_FILE
  26:/home/xingli/share/1205tiny/network/dtls/mbedtls/mbedtls-2.16.2/library/platform.c **** #endif
  27:/home/xingli/share/1205tiny/network/dtls/mbedtls/mbedtls-2.16.2/library/platform.c **** 
  28:/home/xingli/share/1205tiny/network/dtls/mbedtls/mbedtls-2.16.2/library/platform.c **** #if defined(MBEDTLS_PLATFORM_C)
  29:/home/xingli/share/1205tiny/network/dtls/mbedtls/mbedtls-2.16.2/library/platform.c **** 
  30:/home/xingli/share/1205tiny/network/dtls/mbedtls/mbedtls-2.16.2/library/platform.c **** #include "mbedtls/platform.h"
  31:/home/xingli/share/1205tiny/network/dtls/mbedtls/mbedtls-2.16.2/library/platform.c **** #include "mbedtls/platform_util.h"
  32:/home/xingli/share/1205tiny/network/dtls/mbedtls/mbedtls-2.16.2/library/platform.c **** 
  33:/home/xingli/share/1205tiny/network/dtls/mbedtls/mbedtls-2.16.2/library/platform.c **** /* The compile time configuration of memory allocation via the macros
  34:/home/xingli/share/1205tiny/network/dtls/mbedtls/mbedtls-2.16.2/library/platform.c ****  * MBEDTLS_PLATFORM_{FREE/CALLOC}_MACRO takes precedence over the runtime
  35:/home/xingli/share/1205tiny/network/dtls/mbedtls/mbedtls-2.16.2/library/platform.c ****  * configuration via mbedtls_platform_set_calloc_free(). So, omit everything
  36:/home/xingli/share/1205tiny/network/dtls/mbedtls/mbedtls-2.16.2/library/platform.c ****  * related to the latter if MBEDTLS_PLATFORM_{FREE/CALLOC}_MACRO are defined. */
  37:/home/xingli/share/1205tiny/network/dtls/mbedtls/mbedtls-2.16.2/library/platform.c **** #if defined(MBEDTLS_PLATFORM_MEMORY) &&                 \
  38:/home/xingli/share/1205tiny/network/dtls/mbedtls/mbedtls-2.16.2/library/platform.c ****     !( defined(MBEDTLS_PLATFORM_CALLOC_MACRO) &&        \
  39:/home/xingli/share/1205tiny/network/dtls/mbedtls/mbedtls-2.16.2/library/platform.c ****        defined(MBEDTLS_PLATFORM_FREE_MACRO) )
GAS LISTING /tmp/ccXi9PaW.s 			page 2


  40:/home/xingli/share/1205tiny/network/dtls/mbedtls/mbedtls-2.16.2/library/platform.c **** 
  41:/home/xingli/share/1205tiny/network/dtls/mbedtls/mbedtls-2.16.2/library/platform.c **** #if !defined(MBEDTLS_PLATFORM_STD_CALLOC)
  42:/home/xingli/share/1205tiny/network/dtls/mbedtls/mbedtls-2.16.2/library/platform.c **** static void *platform_calloc_uninit( size_t n, size_t size )
  43:/home/xingli/share/1205tiny/network/dtls/mbedtls/mbedtls-2.16.2/library/platform.c **** {
  44:/home/xingli/share/1205tiny/network/dtls/mbedtls/mbedtls-2.16.2/library/platform.c ****     ((void) n);
  45:/home/xingli/share/1205tiny/network/dtls/mbedtls/mbedtls-2.16.2/library/platform.c ****     ((void) size);
  46:/home/xingli/share/1205tiny/network/dtls/mbedtls/mbedtls-2.16.2/library/platform.c ****     return( NULL );
  47:/home/xingli/share/1205tiny/network/dtls/mbedtls/mbedtls-2.16.2/library/platform.c **** }
  48:/home/xingli/share/1205tiny/network/dtls/mbedtls/mbedtls-2.16.2/library/platform.c **** 
  49:/home/xingli/share/1205tiny/network/dtls/mbedtls/mbedtls-2.16.2/library/platform.c **** #define MBEDTLS_PLATFORM_STD_CALLOC   platform_calloc_uninit
  50:/home/xingli/share/1205tiny/network/dtls/mbedtls/mbedtls-2.16.2/library/platform.c **** #endif /* !MBEDTLS_PLATFORM_STD_CALLOC */
  51:/home/xingli/share/1205tiny/network/dtls/mbedtls/mbedtls-2.16.2/library/platform.c **** 
  52:/home/xingli/share/1205tiny/network/dtls/mbedtls/mbedtls-2.16.2/library/platform.c **** #if !defined(MBEDTLS_PLATFORM_STD_FREE)
  53:/home/xingli/share/1205tiny/network/dtls/mbedtls/mbedtls-2.16.2/library/platform.c **** static void platform_free_uninit( void *ptr )
  54:/home/xingli/share/1205tiny/network/dtls/mbedtls/mbedtls-2.16.2/library/platform.c **** {
  55:/home/xingli/share/1205tiny/network/dtls/mbedtls/mbedtls-2.16.2/library/platform.c ****     ((void) ptr);
  56:/home/xingli/share/1205tiny/network/dtls/mbedtls/mbedtls-2.16.2/library/platform.c **** }
  57:/home/xingli/share/1205tiny/network/dtls/mbedtls/mbedtls-2.16.2/library/platform.c **** 
  58:/home/xingli/share/1205tiny/network/dtls/mbedtls/mbedtls-2.16.2/library/platform.c **** #define MBEDTLS_PLATFORM_STD_FREE     platform_free_uninit
  59:/home/xingli/share/1205tiny/network/dtls/mbedtls/mbedtls-2.16.2/library/platform.c **** #endif /* !MBEDTLS_PLATFORM_STD_FREE */
  60:/home/xingli/share/1205tiny/network/dtls/mbedtls/mbedtls-2.16.2/library/platform.c **** 
  61:/home/xingli/share/1205tiny/network/dtls/mbedtls/mbedtls-2.16.2/library/platform.c **** static void * (*mbedtls_calloc_func)( size_t, size_t ) = MBEDTLS_PLATFORM_STD_CALLOC;
  62:/home/xingli/share/1205tiny/network/dtls/mbedtls/mbedtls-2.16.2/library/platform.c **** static void (*mbedtls_free_func)( void * ) = MBEDTLS_PLATFORM_STD_FREE;
  63:/home/xingli/share/1205tiny/network/dtls/mbedtls/mbedtls-2.16.2/library/platform.c **** 
  64:/home/xingli/share/1205tiny/network/dtls/mbedtls/mbedtls-2.16.2/library/platform.c **** void * mbedtls_calloc( size_t nmemb, size_t size )
  65:/home/xingli/share/1205tiny/network/dtls/mbedtls/mbedtls-2.16.2/library/platform.c **** {
  22              		.loc 1 65 1
  23              		.cfi_startproc
  24 0000 F30F1EFA 		endbr64
  25 0004 55       		pushq	%rbp
  26              	.LCFI0:
  27              		.cfi_def_cfa_offset 16
  28              		.cfi_offset 6, -16
  29 0005 4889E5   		movq	%rsp, %rbp
  30              	.LCFI1:
  31              		.cfi_def_cfa_register 6
  32 0008 4883EC20 		subq	$32, %rsp
  33 000c 48897DE8 		movq	%rdi, -24(%rbp)
  34 0010 488975E0 		movq	%rsi, -32(%rbp)
  35              		.loc 1 65 1
  36 0014 64488B04 		movq	%fs:40, %rax
  36      25280000 
  36      00
  37 001d 488945F8 		movq	%rax, -8(%rbp)
  38 0021 31C0     		xorl	%eax, %eax
  66:/home/xingli/share/1205tiny/network/dtls/mbedtls/mbedtls-2.16.2/library/platform.c ****     return (*mbedtls_calloc_func)( nmemb, size );
  39              		.loc 1 66 13
  40 0023 488B0D00 		movq	mbedtls_calloc_func(%rip), %rcx
  40      000000
  41 002a 488B55E0 		movq	-32(%rbp), %rdx
  42 002e 488B45E8 		movq	-24(%rbp), %rax
  43 0032 4889D6   		movq	%rdx, %rsi
  44 0035 4889C7   		movq	%rax, %rdi
  45 0038 FFD1     		call	*%rcx
  46              	.LVL0:
  67:/home/xingli/share/1205tiny/network/dtls/mbedtls/mbedtls-2.16.2/library/platform.c **** }
  47              		.loc 1 67 1
GAS LISTING /tmp/ccXi9PaW.s 			page 3


  48 003a 488B55F8 		movq	-8(%rbp), %rdx
  49 003e 64483314 		xorq	%fs:40, %rdx
  49      25280000 
  49      00
  50 0047 7405     		je	.L3
  51 0049 E8000000 		call	__stack_chk_fail@PLT
  51      00
  52              	.L3:
  53 004e C9       		leave
  54              	.LCFI2:
  55              		.cfi_def_cfa 7, 8
  56 004f C3       		ret
  57              		.cfi_endproc
  58              	.LFE6:
  60              		.section	.text.mbedtls_free,"ax",@progbits
  61              		.globl	mbedtls_free
  63              	mbedtls_free:
  64              	.LFB7:
  68:/home/xingli/share/1205tiny/network/dtls/mbedtls/mbedtls-2.16.2/library/platform.c **** 
  69:/home/xingli/share/1205tiny/network/dtls/mbedtls/mbedtls-2.16.2/library/platform.c **** void mbedtls_free( void * ptr )
  70:/home/xingli/share/1205tiny/network/dtls/mbedtls/mbedtls-2.16.2/library/platform.c **** {
  65              		.loc 1 70 1
  66              		.cfi_startproc
  67 0000 F30F1EFA 		endbr64
  68 0004 55       		pushq	%rbp
  69              	.LCFI3:
  70              		.cfi_def_cfa_offset 16
  71              		.cfi_offset 6, -16
  72 0005 4889E5   		movq	%rsp, %rbp
  73              	.LCFI4:
  74              		.cfi_def_cfa_register 6
  75 0008 4883EC20 		subq	$32, %rsp
  76 000c 48897DE8 		movq	%rdi, -24(%rbp)
  77              		.loc 1 70 1
  78 0010 64488B04 		movq	%fs:40, %rax
  78      25280000 
  78      00
  79 0019 488945F8 		movq	%rax, -8(%rbp)
  80 001d 31C0     		xorl	%eax, %eax
  71:/home/xingli/share/1205tiny/network/dtls/mbedtls/mbedtls-2.16.2/library/platform.c ****     (*mbedtls_free_func)( ptr );
  81              		.loc 1 71 6
  82 001f 488B1500 		movq	mbedtls_free_func(%rip), %rdx
  82      000000
  83 0026 488B45E8 		movq	-24(%rbp), %rax
  84 002a 4889C7   		movq	%rax, %rdi
  85 002d FFD2     		call	*%rdx
  86              	.LVL1:
  72:/home/xingli/share/1205tiny/network/dtls/mbedtls/mbedtls-2.16.2/library/platform.c **** }
  87              		.loc 1 72 1
  88 002f 90       		nop
  89 0030 488B45F8 		movq	-8(%rbp), %rax
  90 0034 64483304 		xorq	%fs:40, %rax
  90      25280000 
  90      00
  91 003d 7405     		je	.L5
  92 003f E8000000 		call	__stack_chk_fail@PLT
  92      00
GAS LISTING /tmp/ccXi9PaW.s 			page 4


  93              	.L5:
  94 0044 C9       		leave
  95              	.LCFI5:
  96              		.cfi_def_cfa 7, 8
  97 0045 C3       		ret
  98              		.cfi_endproc
  99              	.LFE7:
 101              		.section	.text.mbedtls_platform_set_calloc_free,"ax",@progbits
 102              		.globl	mbedtls_platform_set_calloc_free
 104              	mbedtls_platform_set_calloc_free:
 105              	.LFB8:
  73:/home/xingli/share/1205tiny/network/dtls/mbedtls/mbedtls-2.16.2/library/platform.c **** 
  74:/home/xingli/share/1205tiny/network/dtls/mbedtls/mbedtls-2.16.2/library/platform.c **** int mbedtls_platform_set_calloc_free( void * (*calloc_func)( size_t, size_t ),
  75:/home/xingli/share/1205tiny/network/dtls/mbedtls/mbedtls-2.16.2/library/platform.c ****                               void (*free_func)( void * ) )
  76:/home/xingli/share/1205tiny/network/dtls/mbedtls/mbedtls-2.16.2/library/platform.c **** {
 106              		.loc 1 76 1
 107              		.cfi_startproc
 108 0000 F30F1EFA 		endbr64
 109 0004 55       		pushq	%rbp
 110              	.LCFI6:
 111              		.cfi_def_cfa_offset 16
 112              		.cfi_offset 6, -16
 113 0005 4889E5   		movq	%rsp, %rbp
 114              	.LCFI7:
 115              		.cfi_def_cfa_register 6
 116 0008 4883EC20 		subq	$32, %rsp
 117 000c 48897DE8 		movq	%rdi, -24(%rbp)
 118 0010 488975E0 		movq	%rsi, -32(%rbp)
 119              		.loc 1 76 1
 120 0014 64488B04 		movq	%fs:40, %rax
 120      25280000 
 120      00
 121 001d 488945F8 		movq	%rax, -8(%rbp)
 122 0021 31C0     		xorl	%eax, %eax
  77:/home/xingli/share/1205tiny/network/dtls/mbedtls/mbedtls-2.16.2/library/platform.c ****     mbedtls_calloc_func = calloc_func;
 123              		.loc 1 77 25
 124 0023 488B45E8 		movq	-24(%rbp), %rax
 125 0027 48890500 		movq	%rax, mbedtls_calloc_func(%rip)
 125      000000
  78:/home/xingli/share/1205tiny/network/dtls/mbedtls/mbedtls-2.16.2/library/platform.c ****     mbedtls_free_func = free_func;
 126              		.loc 1 78 23
 127 002e 488B45E0 		movq	-32(%rbp), %rax
 128 0032 48890500 		movq	%rax, mbedtls_free_func(%rip)
 128      000000
  79:/home/xingli/share/1205tiny/network/dtls/mbedtls/mbedtls-2.16.2/library/platform.c ****     return( 0 );
 129              		.loc 1 79 11
 130 0039 B8000000 		movl	$0, %eax
 130      00
  80:/home/xingli/share/1205tiny/network/dtls/mbedtls/mbedtls-2.16.2/library/platform.c **** }
 131              		.loc 1 80 1
 132 003e 488B55F8 		movq	-8(%rbp), %rdx
 133 0042 64483314 		xorq	%fs:40, %rdx
 133      25280000 
 133      00
 134 004b 7405     		je	.L8
 135 004d E8000000 		call	__stack_chk_fail@PLT
 135      00
GAS LISTING /tmp/ccXi9PaW.s 			page 5


 136              	.L8:
 137 0052 C9       		leave
 138              	.LCFI8:
 139              		.cfi_def_cfa 7, 8
 140 0053 C3       		ret
 141              		.cfi_endproc
 142              	.LFE8:
 144              		.globl	mbedtls_snprintf
 145              		.section	.data.rel.mbedtls_snprintf,"aw"
 146              		.align 8
 149              	mbedtls_snprintf:
 150 0000 00000000 		.quad	snprintf
 150      00000000 
 151              		.section	.text.mbedtls_platform_set_snprintf,"ax",@progbits
 152              		.globl	mbedtls_platform_set_snprintf
 154              	mbedtls_platform_set_snprintf:
 155              	.LFB9:
  81:/home/xingli/share/1205tiny/network/dtls/mbedtls/mbedtls-2.16.2/library/platform.c **** #endif /* MBEDTLS_PLATFORM_MEMORY &&
  82:/home/xingli/share/1205tiny/network/dtls/mbedtls/mbedtls-2.16.2/library/platform.c ****           !( defined(MBEDTLS_PLATFORM_CALLOC_MACRO) &&
  83:/home/xingli/share/1205tiny/network/dtls/mbedtls/mbedtls-2.16.2/library/platform.c ****              defined(MBEDTLS_PLATFORM_FREE_MACRO) ) */
  84:/home/xingli/share/1205tiny/network/dtls/mbedtls/mbedtls-2.16.2/library/platform.c **** 
  85:/home/xingli/share/1205tiny/network/dtls/mbedtls/mbedtls-2.16.2/library/platform.c **** #if defined(_WIN32)
  86:/home/xingli/share/1205tiny/network/dtls/mbedtls/mbedtls-2.16.2/library/platform.c **** #include <stdarg.h>
  87:/home/xingli/share/1205tiny/network/dtls/mbedtls/mbedtls-2.16.2/library/platform.c **** int mbedtls_platform_win32_snprintf( char *s, size_t n, const char *fmt, ... )
  88:/home/xingli/share/1205tiny/network/dtls/mbedtls/mbedtls-2.16.2/library/platform.c **** {
  89:/home/xingli/share/1205tiny/network/dtls/mbedtls/mbedtls-2.16.2/library/platform.c ****     int ret;
  90:/home/xingli/share/1205tiny/network/dtls/mbedtls/mbedtls-2.16.2/library/platform.c ****     va_list argp;
  91:/home/xingli/share/1205tiny/network/dtls/mbedtls/mbedtls-2.16.2/library/platform.c **** 
  92:/home/xingli/share/1205tiny/network/dtls/mbedtls/mbedtls-2.16.2/library/platform.c ****     /* Avoid calling the invalid parameter handler by checking ourselves */
  93:/home/xingli/share/1205tiny/network/dtls/mbedtls/mbedtls-2.16.2/library/platform.c ****     if( s == NULL || n == 0 || fmt == NULL )
  94:/home/xingli/share/1205tiny/network/dtls/mbedtls/mbedtls-2.16.2/library/platform.c ****         return( -1 );
  95:/home/xingli/share/1205tiny/network/dtls/mbedtls/mbedtls-2.16.2/library/platform.c **** 
  96:/home/xingli/share/1205tiny/network/dtls/mbedtls/mbedtls-2.16.2/library/platform.c ****     va_start( argp, fmt );
  97:/home/xingli/share/1205tiny/network/dtls/mbedtls/mbedtls-2.16.2/library/platform.c **** #if defined(_TRUNCATE) && !defined(__MINGW32__)
  98:/home/xingli/share/1205tiny/network/dtls/mbedtls/mbedtls-2.16.2/library/platform.c ****     ret = _vsnprintf_s( s, n, _TRUNCATE, fmt, argp );
  99:/home/xingli/share/1205tiny/network/dtls/mbedtls/mbedtls-2.16.2/library/platform.c **** #else
 100:/home/xingli/share/1205tiny/network/dtls/mbedtls/mbedtls-2.16.2/library/platform.c ****     ret = _vsnprintf( s, n, fmt, argp );
 101:/home/xingli/share/1205tiny/network/dtls/mbedtls/mbedtls-2.16.2/library/platform.c ****     if( ret < 0 || (size_t) ret == n )
 102:/home/xingli/share/1205tiny/network/dtls/mbedtls/mbedtls-2.16.2/library/platform.c ****     {
 103:/home/xingli/share/1205tiny/network/dtls/mbedtls/mbedtls-2.16.2/library/platform.c ****         s[n-1] = '\0';
 104:/home/xingli/share/1205tiny/network/dtls/mbedtls/mbedtls-2.16.2/library/platform.c ****         ret = -1;
 105:/home/xingli/share/1205tiny/network/dtls/mbedtls/mbedtls-2.16.2/library/platform.c ****     }
 106:/home/xingli/share/1205tiny/network/dtls/mbedtls/mbedtls-2.16.2/library/platform.c **** #endif
 107:/home/xingli/share/1205tiny/network/dtls/mbedtls/mbedtls-2.16.2/library/platform.c ****     va_end( argp );
 108:/home/xingli/share/1205tiny/network/dtls/mbedtls/mbedtls-2.16.2/library/platform.c **** 
 109:/home/xingli/share/1205tiny/network/dtls/mbedtls/mbedtls-2.16.2/library/platform.c ****     return( ret );
 110:/home/xingli/share/1205tiny/network/dtls/mbedtls/mbedtls-2.16.2/library/platform.c **** }
 111:/home/xingli/share/1205tiny/network/dtls/mbedtls/mbedtls-2.16.2/library/platform.c **** #endif
 112:/home/xingli/share/1205tiny/network/dtls/mbedtls/mbedtls-2.16.2/library/platform.c **** 
 113:/home/xingli/share/1205tiny/network/dtls/mbedtls/mbedtls-2.16.2/library/platform.c **** #if defined(MBEDTLS_PLATFORM_SNPRINTF_ALT)
 114:/home/xingli/share/1205tiny/network/dtls/mbedtls/mbedtls-2.16.2/library/platform.c **** #if !defined(MBEDTLS_PLATFORM_STD_SNPRINTF)
 115:/home/xingli/share/1205tiny/network/dtls/mbedtls/mbedtls-2.16.2/library/platform.c **** /*
 116:/home/xingli/share/1205tiny/network/dtls/mbedtls/mbedtls-2.16.2/library/platform.c ****  * Make dummy function to prevent NULL pointer dereferences
 117:/home/xingli/share/1205tiny/network/dtls/mbedtls/mbedtls-2.16.2/library/platform.c ****  */
 118:/home/xingli/share/1205tiny/network/dtls/mbedtls/mbedtls-2.16.2/library/platform.c **** static int platform_snprintf_uninit( char * s, size_t n,
 119:/home/xingli/share/1205tiny/network/dtls/mbedtls/mbedtls-2.16.2/library/platform.c ****                                      const char * format, ... )
 120:/home/xingli/share/1205tiny/network/dtls/mbedtls/mbedtls-2.16.2/library/platform.c **** {
GAS LISTING /tmp/ccXi9PaW.s 			page 6


 121:/home/xingli/share/1205tiny/network/dtls/mbedtls/mbedtls-2.16.2/library/platform.c ****     ((void) s);
 122:/home/xingli/share/1205tiny/network/dtls/mbedtls/mbedtls-2.16.2/library/platform.c ****     ((void) n);
 123:/home/xingli/share/1205tiny/network/dtls/mbedtls/mbedtls-2.16.2/library/platform.c ****     ((void) format);
 124:/home/xingli/share/1205tiny/network/dtls/mbedtls/mbedtls-2.16.2/library/platform.c ****     return( 0 );
 125:/home/xingli/share/1205tiny/network/dtls/mbedtls/mbedtls-2.16.2/library/platform.c **** }
 126:/home/xingli/share/1205tiny/network/dtls/mbedtls/mbedtls-2.16.2/library/platform.c **** 
 127:/home/xingli/share/1205tiny/network/dtls/mbedtls/mbedtls-2.16.2/library/platform.c **** #define MBEDTLS_PLATFORM_STD_SNPRINTF    platform_snprintf_uninit
 128:/home/xingli/share/1205tiny/network/dtls/mbedtls/mbedtls-2.16.2/library/platform.c **** #endif /* !MBEDTLS_PLATFORM_STD_SNPRINTF */
 129:/home/xingli/share/1205tiny/network/dtls/mbedtls/mbedtls-2.16.2/library/platform.c **** 
 130:/home/xingli/share/1205tiny/network/dtls/mbedtls/mbedtls-2.16.2/library/platform.c **** int (*mbedtls_snprintf)( char * s, size_t n,
 131:/home/xingli/share/1205tiny/network/dtls/mbedtls/mbedtls-2.16.2/library/platform.c ****                           const char * format,
 132:/home/xingli/share/1205tiny/network/dtls/mbedtls/mbedtls-2.16.2/library/platform.c ****                           ... ) = MBEDTLS_PLATFORM_STD_SNPRINTF;
 133:/home/xingli/share/1205tiny/network/dtls/mbedtls/mbedtls-2.16.2/library/platform.c **** 
 134:/home/xingli/share/1205tiny/network/dtls/mbedtls/mbedtls-2.16.2/library/platform.c **** int mbedtls_platform_set_snprintf( int (*snprintf_func)( char * s, size_t n,
 135:/home/xingli/share/1205tiny/network/dtls/mbedtls/mbedtls-2.16.2/library/platform.c ****                                                  const char * format,
 136:/home/xingli/share/1205tiny/network/dtls/mbedtls/mbedtls-2.16.2/library/platform.c ****                                                  ... ) )
 137:/home/xingli/share/1205tiny/network/dtls/mbedtls/mbedtls-2.16.2/library/platform.c **** {
 156              		.loc 1 137 1
 157              		.cfi_startproc
 158 0000 F30F1EFA 		endbr64
 159 0004 55       		pushq	%rbp
 160              	.LCFI9:
 161              		.cfi_def_cfa_offset 16
 162              		.cfi_offset 6, -16
 163 0005 4889E5   		movq	%rsp, %rbp
 164              	.LCFI10:
 165              		.cfi_def_cfa_register 6
 166 0008 4883EC20 		subq	$32, %rsp
 167 000c 48897DE8 		movq	%rdi, -24(%rbp)
 168              		.loc 1 137 1
 169 0010 64488B04 		movq	%fs:40, %rax
 169      25280000 
 169      00
 170 0019 488945F8 		movq	%rax, -8(%rbp)
 171 001d 31C0     		xorl	%eax, %eax
 138:/home/xingli/share/1205tiny/network/dtls/mbedtls/mbedtls-2.16.2/library/platform.c ****     mbedtls_snprintf = snprintf_func;
 172              		.loc 1 138 22
 173 001f 488B45E8 		movq	-24(%rbp), %rax
 174 0023 48890500 		movq	%rax, mbedtls_snprintf(%rip)
 174      000000
 139:/home/xingli/share/1205tiny/network/dtls/mbedtls/mbedtls-2.16.2/library/platform.c ****     return( 0 );
 175              		.loc 1 139 11
 176 002a B8000000 		movl	$0, %eax
 176      00
 140:/home/xingli/share/1205tiny/network/dtls/mbedtls/mbedtls-2.16.2/library/platform.c **** }
 177              		.loc 1 140 1
 178 002f 488B55F8 		movq	-8(%rbp), %rdx
 179 0033 64483314 		xorq	%fs:40, %rdx
 179      25280000 
 179      00
 180 003c 7405     		je	.L11
 181 003e E8000000 		call	__stack_chk_fail@PLT
 181      00
 182              	.L11:
 183 0043 C9       		leave
 184              	.LCFI11:
 185              		.cfi_def_cfa 7, 8
GAS LISTING /tmp/ccXi9PaW.s 			page 7


 186 0044 C3       		ret
 187              		.cfi_endproc
 188              	.LFE9:
 190              		.globl	mbedtls_printf
 191              		.section	.data.rel.mbedtls_printf,"aw"
 192              		.align 8
 195              	mbedtls_printf:
 196 0000 00000000 		.quad	printf
 196      00000000 
 197              		.section	.text.mbedtls_platform_set_printf,"ax",@progbits
 198              		.globl	mbedtls_platform_set_printf
 200              	mbedtls_platform_set_printf:
 201              	.LFB10:
 141:/home/xingli/share/1205tiny/network/dtls/mbedtls/mbedtls-2.16.2/library/platform.c **** #endif /* MBEDTLS_PLATFORM_SNPRINTF_ALT */
 142:/home/xingli/share/1205tiny/network/dtls/mbedtls/mbedtls-2.16.2/library/platform.c **** 
 143:/home/xingli/share/1205tiny/network/dtls/mbedtls/mbedtls-2.16.2/library/platform.c **** #if defined(MBEDTLS_PLATFORM_PRINTF_ALT)
 144:/home/xingli/share/1205tiny/network/dtls/mbedtls/mbedtls-2.16.2/library/platform.c **** #if !defined(MBEDTLS_PLATFORM_STD_PRINTF)
 145:/home/xingli/share/1205tiny/network/dtls/mbedtls/mbedtls-2.16.2/library/platform.c **** /*
 146:/home/xingli/share/1205tiny/network/dtls/mbedtls/mbedtls-2.16.2/library/platform.c ****  * Make dummy function to prevent NULL pointer dereferences
 147:/home/xingli/share/1205tiny/network/dtls/mbedtls/mbedtls-2.16.2/library/platform.c ****  */
 148:/home/xingli/share/1205tiny/network/dtls/mbedtls/mbedtls-2.16.2/library/platform.c **** static int platform_printf_uninit( const char *format, ... )
 149:/home/xingli/share/1205tiny/network/dtls/mbedtls/mbedtls-2.16.2/library/platform.c **** {
 150:/home/xingli/share/1205tiny/network/dtls/mbedtls/mbedtls-2.16.2/library/platform.c ****     ((void) format);
 151:/home/xingli/share/1205tiny/network/dtls/mbedtls/mbedtls-2.16.2/library/platform.c ****     return( 0 );
 152:/home/xingli/share/1205tiny/network/dtls/mbedtls/mbedtls-2.16.2/library/platform.c **** }
 153:/home/xingli/share/1205tiny/network/dtls/mbedtls/mbedtls-2.16.2/library/platform.c **** 
 154:/home/xingli/share/1205tiny/network/dtls/mbedtls/mbedtls-2.16.2/library/platform.c **** #define MBEDTLS_PLATFORM_STD_PRINTF    platform_printf_uninit
 155:/home/xingli/share/1205tiny/network/dtls/mbedtls/mbedtls-2.16.2/library/platform.c **** #endif /* !MBEDTLS_PLATFORM_STD_PRINTF */
 156:/home/xingli/share/1205tiny/network/dtls/mbedtls/mbedtls-2.16.2/library/platform.c **** 
 157:/home/xingli/share/1205tiny/network/dtls/mbedtls/mbedtls-2.16.2/library/platform.c **** int (*mbedtls_printf)( const char *, ... ) = MBEDTLS_PLATFORM_STD_PRINTF;
 158:/home/xingli/share/1205tiny/network/dtls/mbedtls/mbedtls-2.16.2/library/platform.c **** 
 159:/home/xingli/share/1205tiny/network/dtls/mbedtls/mbedtls-2.16.2/library/platform.c **** int mbedtls_platform_set_printf( int (*printf_func)( const char *, ... ) )
 160:/home/xingli/share/1205tiny/network/dtls/mbedtls/mbedtls-2.16.2/library/platform.c **** {
 202              		.loc 1 160 1
 203              		.cfi_startproc
 204 0000 F30F1EFA 		endbr64
 205 0004 55       		pushq	%rbp
 206              	.LCFI12:
 207              		.cfi_def_cfa_offset 16
 208              		.cfi_offset 6, -16
 209 0005 4889E5   		movq	%rsp, %rbp
 210              	.LCFI13:
 211              		.cfi_def_cfa_register 6
 212 0008 4883EC20 		subq	$32, %rsp
 213 000c 48897DE8 		movq	%rdi, -24(%rbp)
 214              		.loc 1 160 1
 215 0010 64488B04 		movq	%fs:40, %rax
 215      25280000 
 215      00
 216 0019 488945F8 		movq	%rax, -8(%rbp)
 217 001d 31C0     		xorl	%eax, %eax
 161:/home/xingli/share/1205tiny/network/dtls/mbedtls/mbedtls-2.16.2/library/platform.c ****     mbedtls_printf = printf_func;
 218              		.loc 1 161 20
 219 001f 488B45E8 		movq	-24(%rbp), %rax
 220 0023 48890500 		movq	%rax, mbedtls_printf(%rip)
 220      000000
 162:/home/xingli/share/1205tiny/network/dtls/mbedtls/mbedtls-2.16.2/library/platform.c ****     return( 0 );
GAS LISTING /tmp/ccXi9PaW.s 			page 8


 221              		.loc 1 162 11
 222 002a B8000000 		movl	$0, %eax
 222      00
 163:/home/xingli/share/1205tiny/network/dtls/mbedtls/mbedtls-2.16.2/library/platform.c **** }
 223              		.loc 1 163 1
 224 002f 488B55F8 		movq	-8(%rbp), %rdx
 225 0033 64483314 		xorq	%fs:40, %rdx
 225      25280000 
 225      00
 226 003c 7405     		je	.L14
 227 003e E8000000 		call	__stack_chk_fail@PLT
 227      00
 228              	.L14:
 229 0043 C9       		leave
 230              	.LCFI14:
 231              		.cfi_def_cfa 7, 8
 232 0044 C3       		ret
 233              		.cfi_endproc
 234              	.LFE10:
 236              		.section	.text.mbedtls_platform_setup,"ax",@progbits
 237              		.globl	mbedtls_platform_setup
 239              	mbedtls_platform_setup:
 240              	.LFB11:
 164:/home/xingli/share/1205tiny/network/dtls/mbedtls/mbedtls-2.16.2/library/platform.c **** #endif /* MBEDTLS_PLATFORM_PRINTF_ALT */
 165:/home/xingli/share/1205tiny/network/dtls/mbedtls/mbedtls-2.16.2/library/platform.c **** 
 166:/home/xingli/share/1205tiny/network/dtls/mbedtls/mbedtls-2.16.2/library/platform.c **** #if defined(MBEDTLS_PLATFORM_FPRINTF_ALT)
 167:/home/xingli/share/1205tiny/network/dtls/mbedtls/mbedtls-2.16.2/library/platform.c **** #if !defined(MBEDTLS_PLATFORM_STD_FPRINTF)
 168:/home/xingli/share/1205tiny/network/dtls/mbedtls/mbedtls-2.16.2/library/platform.c **** /*
 169:/home/xingli/share/1205tiny/network/dtls/mbedtls/mbedtls-2.16.2/library/platform.c ****  * Make dummy function to prevent NULL pointer dereferences
 170:/home/xingli/share/1205tiny/network/dtls/mbedtls/mbedtls-2.16.2/library/platform.c ****  */
 171:/home/xingli/share/1205tiny/network/dtls/mbedtls/mbedtls-2.16.2/library/platform.c **** static int platform_fprintf_uninit( FILE *stream, const char *format, ... )
 172:/home/xingli/share/1205tiny/network/dtls/mbedtls/mbedtls-2.16.2/library/platform.c **** {
 173:/home/xingli/share/1205tiny/network/dtls/mbedtls/mbedtls-2.16.2/library/platform.c ****     ((void) stream);
 174:/home/xingli/share/1205tiny/network/dtls/mbedtls/mbedtls-2.16.2/library/platform.c ****     ((void) format);
 175:/home/xingli/share/1205tiny/network/dtls/mbedtls/mbedtls-2.16.2/library/platform.c ****     return( 0 );
 176:/home/xingli/share/1205tiny/network/dtls/mbedtls/mbedtls-2.16.2/library/platform.c **** }
 177:/home/xingli/share/1205tiny/network/dtls/mbedtls/mbedtls-2.16.2/library/platform.c **** 
 178:/home/xingli/share/1205tiny/network/dtls/mbedtls/mbedtls-2.16.2/library/platform.c **** #define MBEDTLS_PLATFORM_STD_FPRINTF   platform_fprintf_uninit
 179:/home/xingli/share/1205tiny/network/dtls/mbedtls/mbedtls-2.16.2/library/platform.c **** #endif /* !MBEDTLS_PLATFORM_STD_FPRINTF */
 180:/home/xingli/share/1205tiny/network/dtls/mbedtls/mbedtls-2.16.2/library/platform.c **** 
 181:/home/xingli/share/1205tiny/network/dtls/mbedtls/mbedtls-2.16.2/library/platform.c **** int (*mbedtls_fprintf)( FILE *, const char *, ... ) =
 182:/home/xingli/share/1205tiny/network/dtls/mbedtls/mbedtls-2.16.2/library/platform.c ****                                         MBEDTLS_PLATFORM_STD_FPRINTF;
 183:/home/xingli/share/1205tiny/network/dtls/mbedtls/mbedtls-2.16.2/library/platform.c **** 
 184:/home/xingli/share/1205tiny/network/dtls/mbedtls/mbedtls-2.16.2/library/platform.c **** int mbedtls_platform_set_fprintf( int (*fprintf_func)( FILE *, const char *, ... ) )
 185:/home/xingli/share/1205tiny/network/dtls/mbedtls/mbedtls-2.16.2/library/platform.c **** {
 186:/home/xingli/share/1205tiny/network/dtls/mbedtls/mbedtls-2.16.2/library/platform.c ****     mbedtls_fprintf = fprintf_func;
 187:/home/xingli/share/1205tiny/network/dtls/mbedtls/mbedtls-2.16.2/library/platform.c ****     return( 0 );
 188:/home/xingli/share/1205tiny/network/dtls/mbedtls/mbedtls-2.16.2/library/platform.c **** }
 189:/home/xingli/share/1205tiny/network/dtls/mbedtls/mbedtls-2.16.2/library/platform.c **** #endif /* MBEDTLS_PLATFORM_FPRINTF_ALT */
 190:/home/xingli/share/1205tiny/network/dtls/mbedtls/mbedtls-2.16.2/library/platform.c **** 
 191:/home/xingli/share/1205tiny/network/dtls/mbedtls/mbedtls-2.16.2/library/platform.c **** #if defined(MBEDTLS_PLATFORM_EXIT_ALT)
 192:/home/xingli/share/1205tiny/network/dtls/mbedtls/mbedtls-2.16.2/library/platform.c **** #if !defined(MBEDTLS_PLATFORM_STD_EXIT)
 193:/home/xingli/share/1205tiny/network/dtls/mbedtls/mbedtls-2.16.2/library/platform.c **** /*
 194:/home/xingli/share/1205tiny/network/dtls/mbedtls/mbedtls-2.16.2/library/platform.c ****  * Make dummy function to prevent NULL pointer dereferences
 195:/home/xingli/share/1205tiny/network/dtls/mbedtls/mbedtls-2.16.2/library/platform.c ****  */
 196:/home/xingli/share/1205tiny/network/dtls/mbedtls/mbedtls-2.16.2/library/platform.c **** static void platform_exit_uninit( int status )
 197:/home/xingli/share/1205tiny/network/dtls/mbedtls/mbedtls-2.16.2/library/platform.c **** {
GAS LISTING /tmp/ccXi9PaW.s 			page 9


 198:/home/xingli/share/1205tiny/network/dtls/mbedtls/mbedtls-2.16.2/library/platform.c ****     ((void) status);
 199:/home/xingli/share/1205tiny/network/dtls/mbedtls/mbedtls-2.16.2/library/platform.c **** }
 200:/home/xingli/share/1205tiny/network/dtls/mbedtls/mbedtls-2.16.2/library/platform.c **** 
 201:/home/xingli/share/1205tiny/network/dtls/mbedtls/mbedtls-2.16.2/library/platform.c **** #define MBEDTLS_PLATFORM_STD_EXIT   platform_exit_uninit
 202:/home/xingli/share/1205tiny/network/dtls/mbedtls/mbedtls-2.16.2/library/platform.c **** #endif /* !MBEDTLS_PLATFORM_STD_EXIT */
 203:/home/xingli/share/1205tiny/network/dtls/mbedtls/mbedtls-2.16.2/library/platform.c **** 
 204:/home/xingli/share/1205tiny/network/dtls/mbedtls/mbedtls-2.16.2/library/platform.c **** void (*mbedtls_exit)( int status ) = MBEDTLS_PLATFORM_STD_EXIT;
 205:/home/xingli/share/1205tiny/network/dtls/mbedtls/mbedtls-2.16.2/library/platform.c **** 
 206:/home/xingli/share/1205tiny/network/dtls/mbedtls/mbedtls-2.16.2/library/platform.c **** int mbedtls_platform_set_exit( void (*exit_func)( int status ) )
 207:/home/xingli/share/1205tiny/network/dtls/mbedtls/mbedtls-2.16.2/library/platform.c **** {
 208:/home/xingli/share/1205tiny/network/dtls/mbedtls/mbedtls-2.16.2/library/platform.c ****     mbedtls_exit = exit_func;
 209:/home/xingli/share/1205tiny/network/dtls/mbedtls/mbedtls-2.16.2/library/platform.c ****     return( 0 );
 210:/home/xingli/share/1205tiny/network/dtls/mbedtls/mbedtls-2.16.2/library/platform.c **** }
 211:/home/xingli/share/1205tiny/network/dtls/mbedtls/mbedtls-2.16.2/library/platform.c **** #endif /* MBEDTLS_PLATFORM_EXIT_ALT */
 212:/home/xingli/share/1205tiny/network/dtls/mbedtls/mbedtls-2.16.2/library/platform.c **** 
 213:/home/xingli/share/1205tiny/network/dtls/mbedtls/mbedtls-2.16.2/library/platform.c **** #if defined(MBEDTLS_HAVE_TIME)
 214:/home/xingli/share/1205tiny/network/dtls/mbedtls/mbedtls-2.16.2/library/platform.c **** 
 215:/home/xingli/share/1205tiny/network/dtls/mbedtls/mbedtls-2.16.2/library/platform.c **** #if defined(MBEDTLS_PLATFORM_TIME_ALT)
 216:/home/xingli/share/1205tiny/network/dtls/mbedtls/mbedtls-2.16.2/library/platform.c **** #if !defined(MBEDTLS_PLATFORM_STD_TIME)
 217:/home/xingli/share/1205tiny/network/dtls/mbedtls/mbedtls-2.16.2/library/platform.c **** /*
 218:/home/xingli/share/1205tiny/network/dtls/mbedtls/mbedtls-2.16.2/library/platform.c ****  * Make dummy function to prevent NULL pointer dereferences
 219:/home/xingli/share/1205tiny/network/dtls/mbedtls/mbedtls-2.16.2/library/platform.c ****  */
 220:/home/xingli/share/1205tiny/network/dtls/mbedtls/mbedtls-2.16.2/library/platform.c **** static mbedtls_time_t platform_time_uninit( mbedtls_time_t* timer )
 221:/home/xingli/share/1205tiny/network/dtls/mbedtls/mbedtls-2.16.2/library/platform.c **** {
 222:/home/xingli/share/1205tiny/network/dtls/mbedtls/mbedtls-2.16.2/library/platform.c ****     ((void) timer);
 223:/home/xingli/share/1205tiny/network/dtls/mbedtls/mbedtls-2.16.2/library/platform.c ****     return( 0 );
 224:/home/xingli/share/1205tiny/network/dtls/mbedtls/mbedtls-2.16.2/library/platform.c **** }
 225:/home/xingli/share/1205tiny/network/dtls/mbedtls/mbedtls-2.16.2/library/platform.c **** 
 226:/home/xingli/share/1205tiny/network/dtls/mbedtls/mbedtls-2.16.2/library/platform.c **** #define MBEDTLS_PLATFORM_STD_TIME   platform_time_uninit
 227:/home/xingli/share/1205tiny/network/dtls/mbedtls/mbedtls-2.16.2/library/platform.c **** #endif /* !MBEDTLS_PLATFORM_STD_TIME */
 228:/home/xingli/share/1205tiny/network/dtls/mbedtls/mbedtls-2.16.2/library/platform.c **** 
 229:/home/xingli/share/1205tiny/network/dtls/mbedtls/mbedtls-2.16.2/library/platform.c **** mbedtls_time_t (*mbedtls_time)( mbedtls_time_t* timer ) = MBEDTLS_PLATFORM_STD_TIME;
 230:/home/xingli/share/1205tiny/network/dtls/mbedtls/mbedtls-2.16.2/library/platform.c **** 
 231:/home/xingli/share/1205tiny/network/dtls/mbedtls/mbedtls-2.16.2/library/platform.c **** int mbedtls_platform_set_time( mbedtls_time_t (*time_func)( mbedtls_time_t* timer ) )
 232:/home/xingli/share/1205tiny/network/dtls/mbedtls/mbedtls-2.16.2/library/platform.c **** {
 233:/home/xingli/share/1205tiny/network/dtls/mbedtls/mbedtls-2.16.2/library/platform.c ****     mbedtls_time = time_func;
 234:/home/xingli/share/1205tiny/network/dtls/mbedtls/mbedtls-2.16.2/library/platform.c ****     return( 0 );
 235:/home/xingli/share/1205tiny/network/dtls/mbedtls/mbedtls-2.16.2/library/platform.c **** }
 236:/home/xingli/share/1205tiny/network/dtls/mbedtls/mbedtls-2.16.2/library/platform.c **** #endif /* MBEDTLS_PLATFORM_TIME_ALT */
 237:/home/xingli/share/1205tiny/network/dtls/mbedtls/mbedtls-2.16.2/library/platform.c **** 
 238:/home/xingli/share/1205tiny/network/dtls/mbedtls/mbedtls-2.16.2/library/platform.c **** #endif /* MBEDTLS_HAVE_TIME */
 239:/home/xingli/share/1205tiny/network/dtls/mbedtls/mbedtls-2.16.2/library/platform.c **** 
 240:/home/xingli/share/1205tiny/network/dtls/mbedtls/mbedtls-2.16.2/library/platform.c **** #if defined(MBEDTLS_ENTROPY_NV_SEED)
 241:/home/xingli/share/1205tiny/network/dtls/mbedtls/mbedtls-2.16.2/library/platform.c **** #if !defined(MBEDTLS_PLATFORM_NO_STD_FUNCTIONS) && defined(MBEDTLS_FS_IO)
 242:/home/xingli/share/1205tiny/network/dtls/mbedtls/mbedtls-2.16.2/library/platform.c **** /* Default implementations for the platform independent seed functions use
 243:/home/xingli/share/1205tiny/network/dtls/mbedtls/mbedtls-2.16.2/library/platform.c ****  * standard libc file functions to read from and write to a pre-defined filename
 244:/home/xingli/share/1205tiny/network/dtls/mbedtls/mbedtls-2.16.2/library/platform.c ****  */
 245:/home/xingli/share/1205tiny/network/dtls/mbedtls/mbedtls-2.16.2/library/platform.c **** int mbedtls_platform_std_nv_seed_read( unsigned char *buf, size_t buf_len )
 246:/home/xingli/share/1205tiny/network/dtls/mbedtls/mbedtls-2.16.2/library/platform.c **** {
 247:/home/xingli/share/1205tiny/network/dtls/mbedtls/mbedtls-2.16.2/library/platform.c ****     FILE *file;
 248:/home/xingli/share/1205tiny/network/dtls/mbedtls/mbedtls-2.16.2/library/platform.c ****     size_t n;
 249:/home/xingli/share/1205tiny/network/dtls/mbedtls/mbedtls-2.16.2/library/platform.c **** 
 250:/home/xingli/share/1205tiny/network/dtls/mbedtls/mbedtls-2.16.2/library/platform.c ****     if( ( file = fopen( MBEDTLS_PLATFORM_STD_NV_SEED_FILE, "rb" ) ) == NULL )
 251:/home/xingli/share/1205tiny/network/dtls/mbedtls/mbedtls-2.16.2/library/platform.c ****         return( -1 );
 252:/home/xingli/share/1205tiny/network/dtls/mbedtls/mbedtls-2.16.2/library/platform.c **** 
 253:/home/xingli/share/1205tiny/network/dtls/mbedtls/mbedtls-2.16.2/library/platform.c ****     if( ( n = fread( buf, 1, buf_len, file ) ) != buf_len )
 254:/home/xingli/share/1205tiny/network/dtls/mbedtls/mbedtls-2.16.2/library/platform.c ****     {
GAS LISTING /tmp/ccXi9PaW.s 			page 10


 255:/home/xingli/share/1205tiny/network/dtls/mbedtls/mbedtls-2.16.2/library/platform.c ****         fclose( file );
 256:/home/xingli/share/1205tiny/network/dtls/mbedtls/mbedtls-2.16.2/library/platform.c ****         mbedtls_platform_zeroize( buf, buf_len );
 257:/home/xingli/share/1205tiny/network/dtls/mbedtls/mbedtls-2.16.2/library/platform.c ****         return( -1 );
 258:/home/xingli/share/1205tiny/network/dtls/mbedtls/mbedtls-2.16.2/library/platform.c ****     }
 259:/home/xingli/share/1205tiny/network/dtls/mbedtls/mbedtls-2.16.2/library/platform.c **** 
 260:/home/xingli/share/1205tiny/network/dtls/mbedtls/mbedtls-2.16.2/library/platform.c ****     fclose( file );
 261:/home/xingli/share/1205tiny/network/dtls/mbedtls/mbedtls-2.16.2/library/platform.c ****     return( (int)n );
 262:/home/xingli/share/1205tiny/network/dtls/mbedtls/mbedtls-2.16.2/library/platform.c **** }
 263:/home/xingli/share/1205tiny/network/dtls/mbedtls/mbedtls-2.16.2/library/platform.c **** 
 264:/home/xingli/share/1205tiny/network/dtls/mbedtls/mbedtls-2.16.2/library/platform.c **** int mbedtls_platform_std_nv_seed_write( unsigned char *buf, size_t buf_len )
 265:/home/xingli/share/1205tiny/network/dtls/mbedtls/mbedtls-2.16.2/library/platform.c **** {
 266:/home/xingli/share/1205tiny/network/dtls/mbedtls/mbedtls-2.16.2/library/platform.c ****     FILE *file;
 267:/home/xingli/share/1205tiny/network/dtls/mbedtls/mbedtls-2.16.2/library/platform.c ****     size_t n;
 268:/home/xingli/share/1205tiny/network/dtls/mbedtls/mbedtls-2.16.2/library/platform.c **** 
 269:/home/xingli/share/1205tiny/network/dtls/mbedtls/mbedtls-2.16.2/library/platform.c ****     if( ( file = fopen( MBEDTLS_PLATFORM_STD_NV_SEED_FILE, "w" ) ) == NULL )
 270:/home/xingli/share/1205tiny/network/dtls/mbedtls/mbedtls-2.16.2/library/platform.c ****         return -1;
 271:/home/xingli/share/1205tiny/network/dtls/mbedtls/mbedtls-2.16.2/library/platform.c **** 
 272:/home/xingli/share/1205tiny/network/dtls/mbedtls/mbedtls-2.16.2/library/platform.c ****     if( ( n = fwrite( buf, 1, buf_len, file ) ) != buf_len )
 273:/home/xingli/share/1205tiny/network/dtls/mbedtls/mbedtls-2.16.2/library/platform.c ****     {
 274:/home/xingli/share/1205tiny/network/dtls/mbedtls/mbedtls-2.16.2/library/platform.c ****         fclose( file );
 275:/home/xingli/share/1205tiny/network/dtls/mbedtls/mbedtls-2.16.2/library/platform.c ****         return -1;
 276:/home/xingli/share/1205tiny/network/dtls/mbedtls/mbedtls-2.16.2/library/platform.c ****     }
 277:/home/xingli/share/1205tiny/network/dtls/mbedtls/mbedtls-2.16.2/library/platform.c **** 
 278:/home/xingli/share/1205tiny/network/dtls/mbedtls/mbedtls-2.16.2/library/platform.c ****     fclose( file );
 279:/home/xingli/share/1205tiny/network/dtls/mbedtls/mbedtls-2.16.2/library/platform.c ****     return( (int)n );
 280:/home/xingli/share/1205tiny/network/dtls/mbedtls/mbedtls-2.16.2/library/platform.c **** }
 281:/home/xingli/share/1205tiny/network/dtls/mbedtls/mbedtls-2.16.2/library/platform.c **** #endif /* MBEDTLS_PLATFORM_NO_STD_FUNCTIONS */
 282:/home/xingli/share/1205tiny/network/dtls/mbedtls/mbedtls-2.16.2/library/platform.c **** 
 283:/home/xingli/share/1205tiny/network/dtls/mbedtls/mbedtls-2.16.2/library/platform.c **** #if defined(MBEDTLS_PLATFORM_NV_SEED_ALT)
 284:/home/xingli/share/1205tiny/network/dtls/mbedtls/mbedtls-2.16.2/library/platform.c **** #if !defined(MBEDTLS_PLATFORM_STD_NV_SEED_READ)
 285:/home/xingli/share/1205tiny/network/dtls/mbedtls/mbedtls-2.16.2/library/platform.c **** /*
 286:/home/xingli/share/1205tiny/network/dtls/mbedtls/mbedtls-2.16.2/library/platform.c ****  * Make dummy function to prevent NULL pointer dereferences
 287:/home/xingli/share/1205tiny/network/dtls/mbedtls/mbedtls-2.16.2/library/platform.c ****  */
 288:/home/xingli/share/1205tiny/network/dtls/mbedtls/mbedtls-2.16.2/library/platform.c **** static int platform_nv_seed_read_uninit( unsigned char *buf, size_t buf_len )
 289:/home/xingli/share/1205tiny/network/dtls/mbedtls/mbedtls-2.16.2/library/platform.c **** {
 290:/home/xingli/share/1205tiny/network/dtls/mbedtls/mbedtls-2.16.2/library/platform.c ****     ((void) buf);
 291:/home/xingli/share/1205tiny/network/dtls/mbedtls/mbedtls-2.16.2/library/platform.c ****     ((void) buf_len);
 292:/home/xingli/share/1205tiny/network/dtls/mbedtls/mbedtls-2.16.2/library/platform.c ****     return( -1 );
 293:/home/xingli/share/1205tiny/network/dtls/mbedtls/mbedtls-2.16.2/library/platform.c **** }
 294:/home/xingli/share/1205tiny/network/dtls/mbedtls/mbedtls-2.16.2/library/platform.c **** 
 295:/home/xingli/share/1205tiny/network/dtls/mbedtls/mbedtls-2.16.2/library/platform.c **** #define MBEDTLS_PLATFORM_STD_NV_SEED_READ   platform_nv_seed_read_uninit
 296:/home/xingli/share/1205tiny/network/dtls/mbedtls/mbedtls-2.16.2/library/platform.c **** #endif /* !MBEDTLS_PLATFORM_STD_NV_SEED_READ */
 297:/home/xingli/share/1205tiny/network/dtls/mbedtls/mbedtls-2.16.2/library/platform.c **** 
 298:/home/xingli/share/1205tiny/network/dtls/mbedtls/mbedtls-2.16.2/library/platform.c **** #if !defined(MBEDTLS_PLATFORM_STD_NV_SEED_WRITE)
 299:/home/xingli/share/1205tiny/network/dtls/mbedtls/mbedtls-2.16.2/library/platform.c **** /*
 300:/home/xingli/share/1205tiny/network/dtls/mbedtls/mbedtls-2.16.2/library/platform.c ****  * Make dummy function to prevent NULL pointer dereferences
 301:/home/xingli/share/1205tiny/network/dtls/mbedtls/mbedtls-2.16.2/library/platform.c ****  */
 302:/home/xingli/share/1205tiny/network/dtls/mbedtls/mbedtls-2.16.2/library/platform.c **** static int platform_nv_seed_write_uninit( unsigned char *buf, size_t buf_len )
 303:/home/xingli/share/1205tiny/network/dtls/mbedtls/mbedtls-2.16.2/library/platform.c **** {
 304:/home/xingli/share/1205tiny/network/dtls/mbedtls/mbedtls-2.16.2/library/platform.c ****     ((void) buf);
 305:/home/xingli/share/1205tiny/network/dtls/mbedtls/mbedtls-2.16.2/library/platform.c ****     ((void) buf_len);
 306:/home/xingli/share/1205tiny/network/dtls/mbedtls/mbedtls-2.16.2/library/platform.c ****     return( -1 );
 307:/home/xingli/share/1205tiny/network/dtls/mbedtls/mbedtls-2.16.2/library/platform.c **** }
 308:/home/xingli/share/1205tiny/network/dtls/mbedtls/mbedtls-2.16.2/library/platform.c **** 
 309:/home/xingli/share/1205tiny/network/dtls/mbedtls/mbedtls-2.16.2/library/platform.c **** #define MBEDTLS_PLATFORM_STD_NV_SEED_WRITE   platform_nv_seed_write_uninit
 310:/home/xingli/share/1205tiny/network/dtls/mbedtls/mbedtls-2.16.2/library/platform.c **** #endif /* !MBEDTLS_PLATFORM_STD_NV_SEED_WRITE */
 311:/home/xingli/share/1205tiny/network/dtls/mbedtls/mbedtls-2.16.2/library/platform.c **** 
GAS LISTING /tmp/ccXi9PaW.s 			page 11


 312:/home/xingli/share/1205tiny/network/dtls/mbedtls/mbedtls-2.16.2/library/platform.c **** int (*mbedtls_nv_seed_read)( unsigned char *buf, size_t buf_len ) =
 313:/home/xingli/share/1205tiny/network/dtls/mbedtls/mbedtls-2.16.2/library/platform.c ****             MBEDTLS_PLATFORM_STD_NV_SEED_READ;
 314:/home/xingli/share/1205tiny/network/dtls/mbedtls/mbedtls-2.16.2/library/platform.c **** int (*mbedtls_nv_seed_write)( unsigned char *buf, size_t buf_len ) =
 315:/home/xingli/share/1205tiny/network/dtls/mbedtls/mbedtls-2.16.2/library/platform.c ****             MBEDTLS_PLATFORM_STD_NV_SEED_WRITE;
 316:/home/xingli/share/1205tiny/network/dtls/mbedtls/mbedtls-2.16.2/library/platform.c **** 
 317:/home/xingli/share/1205tiny/network/dtls/mbedtls/mbedtls-2.16.2/library/platform.c **** int mbedtls_platform_set_nv_seed(
 318:/home/xingli/share/1205tiny/network/dtls/mbedtls/mbedtls-2.16.2/library/platform.c ****         int (*nv_seed_read_func)( unsigned char *buf, size_t buf_len ),
 319:/home/xingli/share/1205tiny/network/dtls/mbedtls/mbedtls-2.16.2/library/platform.c ****         int (*nv_seed_write_func)( unsigned char *buf, size_t buf_len ) )
 320:/home/xingli/share/1205tiny/network/dtls/mbedtls/mbedtls-2.16.2/library/platform.c **** {
 321:/home/xingli/share/1205tiny/network/dtls/mbedtls/mbedtls-2.16.2/library/platform.c ****     mbedtls_nv_seed_read = nv_seed_read_func;
 322:/home/xingli/share/1205tiny/network/dtls/mbedtls/mbedtls-2.16.2/library/platform.c ****     mbedtls_nv_seed_write = nv_seed_write_func;
 323:/home/xingli/share/1205tiny/network/dtls/mbedtls/mbedtls-2.16.2/library/platform.c ****     return( 0 );
 324:/home/xingli/share/1205tiny/network/dtls/mbedtls/mbedtls-2.16.2/library/platform.c **** }
 325:/home/xingli/share/1205tiny/network/dtls/mbedtls/mbedtls-2.16.2/library/platform.c **** #endif /* MBEDTLS_PLATFORM_NV_SEED_ALT */
 326:/home/xingli/share/1205tiny/network/dtls/mbedtls/mbedtls-2.16.2/library/platform.c **** #endif /* MBEDTLS_ENTROPY_NV_SEED */
 327:/home/xingli/share/1205tiny/network/dtls/mbedtls/mbedtls-2.16.2/library/platform.c **** 
 328:/home/xingli/share/1205tiny/network/dtls/mbedtls/mbedtls-2.16.2/library/platform.c **** #if !defined(MBEDTLS_PLATFORM_SETUP_TEARDOWN_ALT)
 329:/home/xingli/share/1205tiny/network/dtls/mbedtls/mbedtls-2.16.2/library/platform.c **** /*
 330:/home/xingli/share/1205tiny/network/dtls/mbedtls/mbedtls-2.16.2/library/platform.c ****  * Placeholder platform setup that does nothing by default
 331:/home/xingli/share/1205tiny/network/dtls/mbedtls/mbedtls-2.16.2/library/platform.c ****  */
 332:/home/xingli/share/1205tiny/network/dtls/mbedtls/mbedtls-2.16.2/library/platform.c **** int mbedtls_platform_setup( mbedtls_platform_context *ctx )
 333:/home/xingli/share/1205tiny/network/dtls/mbedtls/mbedtls-2.16.2/library/platform.c **** {
 241              		.loc 1 333 1
 242              		.cfi_startproc
 243 0000 F30F1EFA 		endbr64
 244 0004 55       		pushq	%rbp
 245              	.LCFI15:
 246              		.cfi_def_cfa_offset 16
 247              		.cfi_offset 6, -16
 248 0005 4889E5   		movq	%rsp, %rbp
 249              	.LCFI16:
 250              		.cfi_def_cfa_register 6
 251 0008 4883EC20 		subq	$32, %rsp
 252 000c 48897DE8 		movq	%rdi, -24(%rbp)
 253              		.loc 1 333 1
 254 0010 64488B04 		movq	%fs:40, %rax
 254      25280000 
 254      00
 255 0019 488945F8 		movq	%rax, -8(%rbp)
 256 001d 31C0     		xorl	%eax, %eax
 334:/home/xingli/share/1205tiny/network/dtls/mbedtls/mbedtls-2.16.2/library/platform.c ****     (void)ctx;
 335:/home/xingli/share/1205tiny/network/dtls/mbedtls/mbedtls-2.16.2/library/platform.c **** 
 336:/home/xingli/share/1205tiny/network/dtls/mbedtls/mbedtls-2.16.2/library/platform.c ****     return( 0 );
 257              		.loc 1 336 11
 258 001f B8000000 		movl	$0, %eax
 258      00
 337:/home/xingli/share/1205tiny/network/dtls/mbedtls/mbedtls-2.16.2/library/platform.c **** }
 259              		.loc 1 337 1
 260 0024 488B55F8 		movq	-8(%rbp), %rdx
 261 0028 64483314 		xorq	%fs:40, %rdx
 261      25280000 
 261      00
 262 0031 7405     		je	.L17
 263 0033 E8000000 		call	__stack_chk_fail@PLT
 263      00
 264              	.L17:
 265 0038 C9       		leave
GAS LISTING /tmp/ccXi9PaW.s 			page 12


 266              	.LCFI17:
 267              		.cfi_def_cfa 7, 8
 268 0039 C3       		ret
 269              		.cfi_endproc
 270              	.LFE11:
 272              		.section	.text.mbedtls_platform_teardown,"ax",@progbits
 273              		.globl	mbedtls_platform_teardown
 275              	mbedtls_platform_teardown:
 276              	.LFB12:
 338:/home/xingli/share/1205tiny/network/dtls/mbedtls/mbedtls-2.16.2/library/platform.c **** 
 339:/home/xingli/share/1205tiny/network/dtls/mbedtls/mbedtls-2.16.2/library/platform.c **** /*
 340:/home/xingli/share/1205tiny/network/dtls/mbedtls/mbedtls-2.16.2/library/platform.c ****  * Placeholder platform teardown that does nothing by default
 341:/home/xingli/share/1205tiny/network/dtls/mbedtls/mbedtls-2.16.2/library/platform.c ****  */
 342:/home/xingli/share/1205tiny/network/dtls/mbedtls/mbedtls-2.16.2/library/platform.c **** void mbedtls_platform_teardown( mbedtls_platform_context *ctx )
 343:/home/xingli/share/1205tiny/network/dtls/mbedtls/mbedtls-2.16.2/library/platform.c **** {
 277              		.loc 1 343 1
 278              		.cfi_startproc
 279 0000 F30F1EFA 		endbr64
 280 0004 55       		pushq	%rbp
 281              	.LCFI18:
 282              		.cfi_def_cfa_offset 16
 283              		.cfi_offset 6, -16
 284 0005 4889E5   		movq	%rsp, %rbp
 285              	.LCFI19:
 286              		.cfi_def_cfa_register 6
 287 0008 4883EC20 		subq	$32, %rsp
 288 000c 48897DE8 		movq	%rdi, -24(%rbp)
 289              		.loc 1 343 1
 290 0010 64488B04 		movq	%fs:40, %rax
 290      25280000 
 290      00
 291 0019 488945F8 		movq	%rax, -8(%rbp)
 292 001d 31C0     		xorl	%eax, %eax
 344:/home/xingli/share/1205tiny/network/dtls/mbedtls/mbedtls-2.16.2/library/platform.c ****     (void)ctx;
 345:/home/xingli/share/1205tiny/network/dtls/mbedtls/mbedtls-2.16.2/library/platform.c **** }
 293              		.loc 1 345 1
 294 001f 90       		nop
 295 0020 488B45F8 		movq	-8(%rbp), %rax
 296 0024 64483304 		xorq	%fs:40, %rax
 296      25280000 
 296      00
 297 002d 7405     		je	.L19
 298 002f E8000000 		call	__stack_chk_fail@PLT
 298      00
 299              	.L19:
 300 0034 C9       		leave
 301              	.LCFI20:
 302              		.cfi_def_cfa 7, 8
 303 0035 C3       		ret
 304              		.cfi_endproc
 305              	.LFE12:
 307              		.text
 308              	.Letext0:
 309              		.file 2 "/usr/lib/gcc/x86_64-linux-gnu/9/include/stddef.h"
 310              		.file 3 "/usr/include/x86_64-linux-gnu/bits/types.h"
 311              		.file 4 "/usr/include/x86_64-linux-gnu/bits/types/struct_FILE.h"
 312              		.file 5 "/usr/include/x86_64-linux-gnu/bits/types/FILE.h"
GAS LISTING /tmp/ccXi9PaW.s 			page 13


 313              		.file 6 "/usr/include/stdio.h"
 314              		.file 7 "/usr/include/x86_64-linux-gnu/bits/sys_errlist.h"
 315              		.file 8 "/usr/include/time.h"
 316              		.file 9 "/home/xingli/share/1205tiny/network/dtls/mbedtls/mbedtls-2.16.2/include/mbedtls/platform.
 1992              		.section	.note.gnu.property,"a"
 1993              		.align 8
 1994 0000 04000000 		.long	 1f - 0f
 1995 0004 10000000 		.long	 4f - 1f
 1996 0008 05000000 		.long	 5
 1997              	0:
 1998 000c 474E5500 		.string	 "GNU"
 1999              	1:
 2000              		.align 8
 2001 0010 020000C0 		.long	 0xc0000002
 2002 0014 04000000 		.long	 3f - 2f
 2003              	2:
 2004 0018 03000000 		.long	 0x3
 2005              	3:
 2006 001c 00000000 		.align 8
 2007              	4:
GAS LISTING /tmp/ccXi9PaW.s 			page 14

