GAS LISTING /tmp/cc6OITWc.s 			page 1


   1              		.file	"rsa.c"
   2              		.text
   3              	.Ltext0:
   4              		.section	.text.mbedtls_safer_memcmp,"ax",@progbits
   6              	mbedtls_safer_memcmp:
   7              	.LFB16:
   8              		.file 1 "/home/xingli/share/LiteOS_Lab/network/dtls/mbedtls/mbedtls-2.16.2/library/rsa.c"
   1:/home/xingli/share/LiteOS_Lab/network/dtls/mbedtls/mbedtls-2.16.2/library/rsa.c **** /*
   2:/home/xingli/share/LiteOS_Lab/network/dtls/mbedtls/mbedtls-2.16.2/library/rsa.c ****  *  The RSA public-key cryptosystem
   3:/home/xingli/share/LiteOS_Lab/network/dtls/mbedtls/mbedtls-2.16.2/library/rsa.c ****  *
   4:/home/xingli/share/LiteOS_Lab/network/dtls/mbedtls/mbedtls-2.16.2/library/rsa.c ****  *  Copyright (C) 2006-2015, ARM Limited, All Rights Reserved
   5:/home/xingli/share/LiteOS_Lab/network/dtls/mbedtls/mbedtls-2.16.2/library/rsa.c ****  *  SPDX-License-Identifier: Apache-2.0
   6:/home/xingli/share/LiteOS_Lab/network/dtls/mbedtls/mbedtls-2.16.2/library/rsa.c ****  *
   7:/home/xingli/share/LiteOS_Lab/network/dtls/mbedtls/mbedtls-2.16.2/library/rsa.c ****  *  Licensed under the Apache License, Version 2.0 (the "License"); you may
   8:/home/xingli/share/LiteOS_Lab/network/dtls/mbedtls/mbedtls-2.16.2/library/rsa.c ****  *  not use this file except in compliance with the License.
   9:/home/xingli/share/LiteOS_Lab/network/dtls/mbedtls/mbedtls-2.16.2/library/rsa.c ****  *  You may obtain a copy of the License at
  10:/home/xingli/share/LiteOS_Lab/network/dtls/mbedtls/mbedtls-2.16.2/library/rsa.c ****  *
  11:/home/xingli/share/LiteOS_Lab/network/dtls/mbedtls/mbedtls-2.16.2/library/rsa.c ****  *  http://www.apache.org/licenses/LICENSE-2.0
  12:/home/xingli/share/LiteOS_Lab/network/dtls/mbedtls/mbedtls-2.16.2/library/rsa.c ****  *
  13:/home/xingli/share/LiteOS_Lab/network/dtls/mbedtls/mbedtls-2.16.2/library/rsa.c ****  *  Unless required by applicable law or agreed to in writing, software
  14:/home/xingli/share/LiteOS_Lab/network/dtls/mbedtls/mbedtls-2.16.2/library/rsa.c ****  *  distributed under the License is distributed on an "AS IS" BASIS, WITHOUT
  15:/home/xingli/share/LiteOS_Lab/network/dtls/mbedtls/mbedtls-2.16.2/library/rsa.c ****  *  WARRANTIES OR CONDITIONS OF ANY KIND, either express or implied.
  16:/home/xingli/share/LiteOS_Lab/network/dtls/mbedtls/mbedtls-2.16.2/library/rsa.c ****  *  See the License for the specific language governing permissions and
  17:/home/xingli/share/LiteOS_Lab/network/dtls/mbedtls/mbedtls-2.16.2/library/rsa.c ****  *  limitations under the License.
  18:/home/xingli/share/LiteOS_Lab/network/dtls/mbedtls/mbedtls-2.16.2/library/rsa.c ****  *
  19:/home/xingli/share/LiteOS_Lab/network/dtls/mbedtls/mbedtls-2.16.2/library/rsa.c ****  *  This file is part of mbed TLS (https://tls.mbed.org)
  20:/home/xingli/share/LiteOS_Lab/network/dtls/mbedtls/mbedtls-2.16.2/library/rsa.c ****  */
  21:/home/xingli/share/LiteOS_Lab/network/dtls/mbedtls/mbedtls-2.16.2/library/rsa.c **** 
  22:/home/xingli/share/LiteOS_Lab/network/dtls/mbedtls/mbedtls-2.16.2/library/rsa.c **** /*
  23:/home/xingli/share/LiteOS_Lab/network/dtls/mbedtls/mbedtls-2.16.2/library/rsa.c ****  *  The following sources were referenced in the design of this implementation
  24:/home/xingli/share/LiteOS_Lab/network/dtls/mbedtls/mbedtls-2.16.2/library/rsa.c ****  *  of the RSA algorithm:
  25:/home/xingli/share/LiteOS_Lab/network/dtls/mbedtls/mbedtls-2.16.2/library/rsa.c ****  *
  26:/home/xingli/share/LiteOS_Lab/network/dtls/mbedtls/mbedtls-2.16.2/library/rsa.c ****  *  [1] A method for obtaining digital signatures and public-key cryptosystems
  27:/home/xingli/share/LiteOS_Lab/network/dtls/mbedtls/mbedtls-2.16.2/library/rsa.c ****  *      R Rivest, A Shamir, and L Adleman
  28:/home/xingli/share/LiteOS_Lab/network/dtls/mbedtls/mbedtls-2.16.2/library/rsa.c ****  *      http://people.csail.mit.edu/rivest/pubs.html#RSA78
  29:/home/xingli/share/LiteOS_Lab/network/dtls/mbedtls/mbedtls-2.16.2/library/rsa.c ****  *
  30:/home/xingli/share/LiteOS_Lab/network/dtls/mbedtls/mbedtls-2.16.2/library/rsa.c ****  *  [2] Handbook of Applied Cryptography - 1997, Chapter 8
  31:/home/xingli/share/LiteOS_Lab/network/dtls/mbedtls/mbedtls-2.16.2/library/rsa.c ****  *      Menezes, van Oorschot and Vanstone
  32:/home/xingli/share/LiteOS_Lab/network/dtls/mbedtls/mbedtls-2.16.2/library/rsa.c ****  *
  33:/home/xingli/share/LiteOS_Lab/network/dtls/mbedtls/mbedtls-2.16.2/library/rsa.c ****  *  [3] Malware Guard Extension: Using SGX to Conceal Cache Attacks
  34:/home/xingli/share/LiteOS_Lab/network/dtls/mbedtls/mbedtls-2.16.2/library/rsa.c ****  *      Michael Schwarz, Samuel Weiser, Daniel Gruss, Clémentine Maurice and
  35:/home/xingli/share/LiteOS_Lab/network/dtls/mbedtls/mbedtls-2.16.2/library/rsa.c ****  *      Stefan Mangard
  36:/home/xingli/share/LiteOS_Lab/network/dtls/mbedtls/mbedtls-2.16.2/library/rsa.c ****  *      https://arxiv.org/abs/1702.08719v2
  37:/home/xingli/share/LiteOS_Lab/network/dtls/mbedtls/mbedtls-2.16.2/library/rsa.c ****  *
  38:/home/xingli/share/LiteOS_Lab/network/dtls/mbedtls/mbedtls-2.16.2/library/rsa.c ****  */
  39:/home/xingli/share/LiteOS_Lab/network/dtls/mbedtls/mbedtls-2.16.2/library/rsa.c **** 
  40:/home/xingli/share/LiteOS_Lab/network/dtls/mbedtls/mbedtls-2.16.2/library/rsa.c **** #if !defined(MBEDTLS_CONFIG_FILE)
  41:/home/xingli/share/LiteOS_Lab/network/dtls/mbedtls/mbedtls-2.16.2/library/rsa.c **** #include "mbedtls/config.h"
  42:/home/xingli/share/LiteOS_Lab/network/dtls/mbedtls/mbedtls-2.16.2/library/rsa.c **** #else
  43:/home/xingli/share/LiteOS_Lab/network/dtls/mbedtls/mbedtls-2.16.2/library/rsa.c **** #include MBEDTLS_CONFIG_FILE
  44:/home/xingli/share/LiteOS_Lab/network/dtls/mbedtls/mbedtls-2.16.2/library/rsa.c **** #endif
  45:/home/xingli/share/LiteOS_Lab/network/dtls/mbedtls/mbedtls-2.16.2/library/rsa.c **** 
  46:/home/xingli/share/LiteOS_Lab/network/dtls/mbedtls/mbedtls-2.16.2/library/rsa.c **** #if defined(MBEDTLS_RSA_C)
  47:/home/xingli/share/LiteOS_Lab/network/dtls/mbedtls/mbedtls-2.16.2/library/rsa.c **** 
  48:/home/xingli/share/LiteOS_Lab/network/dtls/mbedtls/mbedtls-2.16.2/library/rsa.c **** #include "mbedtls/rsa.h"
  49:/home/xingli/share/LiteOS_Lab/network/dtls/mbedtls/mbedtls-2.16.2/library/rsa.c **** #include "mbedtls/rsa_internal.h"
  50:/home/xingli/share/LiteOS_Lab/network/dtls/mbedtls/mbedtls-2.16.2/library/rsa.c **** #include "mbedtls/oid.h"
GAS LISTING /tmp/cc6OITWc.s 			page 2


  51:/home/xingli/share/LiteOS_Lab/network/dtls/mbedtls/mbedtls-2.16.2/library/rsa.c **** #include "mbedtls/platform_util.h"
  52:/home/xingli/share/LiteOS_Lab/network/dtls/mbedtls/mbedtls-2.16.2/library/rsa.c **** 
  53:/home/xingli/share/LiteOS_Lab/network/dtls/mbedtls/mbedtls-2.16.2/library/rsa.c **** #include <string.h>
  54:/home/xingli/share/LiteOS_Lab/network/dtls/mbedtls/mbedtls-2.16.2/library/rsa.c **** 
  55:/home/xingli/share/LiteOS_Lab/network/dtls/mbedtls/mbedtls-2.16.2/library/rsa.c **** #if defined(MBEDTLS_PKCS1_V21)
  56:/home/xingli/share/LiteOS_Lab/network/dtls/mbedtls/mbedtls-2.16.2/library/rsa.c **** #include "mbedtls/md.h"
  57:/home/xingli/share/LiteOS_Lab/network/dtls/mbedtls/mbedtls-2.16.2/library/rsa.c **** #endif
  58:/home/xingli/share/LiteOS_Lab/network/dtls/mbedtls/mbedtls-2.16.2/library/rsa.c **** 
  59:/home/xingli/share/LiteOS_Lab/network/dtls/mbedtls/mbedtls-2.16.2/library/rsa.c **** #if defined(MBEDTLS_PKCS1_V15) && !defined(__OpenBSD__)
  60:/home/xingli/share/LiteOS_Lab/network/dtls/mbedtls/mbedtls-2.16.2/library/rsa.c **** #include <stdlib.h>
  61:/home/xingli/share/LiteOS_Lab/network/dtls/mbedtls/mbedtls-2.16.2/library/rsa.c **** #endif
  62:/home/xingli/share/LiteOS_Lab/network/dtls/mbedtls/mbedtls-2.16.2/library/rsa.c **** 
  63:/home/xingli/share/LiteOS_Lab/network/dtls/mbedtls/mbedtls-2.16.2/library/rsa.c **** #if defined(MBEDTLS_PLATFORM_C)
  64:/home/xingli/share/LiteOS_Lab/network/dtls/mbedtls/mbedtls-2.16.2/library/rsa.c **** #include "mbedtls/platform.h"
  65:/home/xingli/share/LiteOS_Lab/network/dtls/mbedtls/mbedtls-2.16.2/library/rsa.c **** #else
  66:/home/xingli/share/LiteOS_Lab/network/dtls/mbedtls/mbedtls-2.16.2/library/rsa.c **** #include <stdio.h>
  67:/home/xingli/share/LiteOS_Lab/network/dtls/mbedtls/mbedtls-2.16.2/library/rsa.c **** #define mbedtls_printf printf
  68:/home/xingli/share/LiteOS_Lab/network/dtls/mbedtls/mbedtls-2.16.2/library/rsa.c **** #define mbedtls_calloc calloc
  69:/home/xingli/share/LiteOS_Lab/network/dtls/mbedtls/mbedtls-2.16.2/library/rsa.c **** #define mbedtls_free   free
  70:/home/xingli/share/LiteOS_Lab/network/dtls/mbedtls/mbedtls-2.16.2/library/rsa.c **** #endif
  71:/home/xingli/share/LiteOS_Lab/network/dtls/mbedtls/mbedtls-2.16.2/library/rsa.c **** 
  72:/home/xingli/share/LiteOS_Lab/network/dtls/mbedtls/mbedtls-2.16.2/library/rsa.c **** #if !defined(MBEDTLS_RSA_ALT)
  73:/home/xingli/share/LiteOS_Lab/network/dtls/mbedtls/mbedtls-2.16.2/library/rsa.c **** 
  74:/home/xingli/share/LiteOS_Lab/network/dtls/mbedtls/mbedtls-2.16.2/library/rsa.c **** /* Parameter validation macros */
  75:/home/xingli/share/LiteOS_Lab/network/dtls/mbedtls/mbedtls-2.16.2/library/rsa.c **** #define RSA_VALIDATE_RET( cond )                                       \
  76:/home/xingli/share/LiteOS_Lab/network/dtls/mbedtls/mbedtls-2.16.2/library/rsa.c ****     MBEDTLS_INTERNAL_VALIDATE_RET( cond, MBEDTLS_ERR_RSA_BAD_INPUT_DATA )
  77:/home/xingli/share/LiteOS_Lab/network/dtls/mbedtls/mbedtls-2.16.2/library/rsa.c **** #define RSA_VALIDATE( cond )                                           \
  78:/home/xingli/share/LiteOS_Lab/network/dtls/mbedtls/mbedtls-2.16.2/library/rsa.c ****     MBEDTLS_INTERNAL_VALIDATE( cond )
  79:/home/xingli/share/LiteOS_Lab/network/dtls/mbedtls/mbedtls-2.16.2/library/rsa.c **** 
  80:/home/xingli/share/LiteOS_Lab/network/dtls/mbedtls/mbedtls-2.16.2/library/rsa.c **** #if defined(MBEDTLS_PKCS1_V15)
  81:/home/xingli/share/LiteOS_Lab/network/dtls/mbedtls/mbedtls-2.16.2/library/rsa.c **** /* constant-time buffer comparison */
  82:/home/xingli/share/LiteOS_Lab/network/dtls/mbedtls/mbedtls-2.16.2/library/rsa.c **** static inline int mbedtls_safer_memcmp( const void *a, const void *b, size_t n )
  83:/home/xingli/share/LiteOS_Lab/network/dtls/mbedtls/mbedtls-2.16.2/library/rsa.c **** {
   9              		.loc 1 83 1
  10              		.cfi_startproc
  11 0000 55       		pushq	%rbp
  12              	.LCFI0:
  13              		.cfi_def_cfa_offset 16
  14              		.cfi_offset 6, -16
  15 0001 4889E5   		movq	%rsp, %rbp
  16              	.LCFI1:
  17              		.cfi_def_cfa_register 6
  18 0004 4883EC50 		subq	$80, %rsp
  19 0008 48897DC8 		movq	%rdi, -56(%rbp)
  20 000c 488975C0 		movq	%rsi, -64(%rbp)
  21 0010 488955B8 		movq	%rdx, -72(%rbp)
  22              		.loc 1 83 1
  23 0014 64488B04 		movq	%fs:40, %rax
  23      25280000 
  23      00
  24 001d 488945F8 		movq	%rax, -8(%rbp)
  25 0021 31C0     		xorl	%eax, %eax
  84:/home/xingli/share/LiteOS_Lab/network/dtls/mbedtls/mbedtls-2.16.2/library/rsa.c ****     size_t i;
  85:/home/xingli/share/LiteOS_Lab/network/dtls/mbedtls/mbedtls-2.16.2/library/rsa.c ****     const unsigned char *A = (const unsigned char *) a;
  26              		.loc 1 85 26
  27 0023 488B45C8 		movq	-56(%rbp), %rax
  28 0027 488945E8 		movq	%rax, -24(%rbp)
GAS LISTING /tmp/cc6OITWc.s 			page 3


  86:/home/xingli/share/LiteOS_Lab/network/dtls/mbedtls/mbedtls-2.16.2/library/rsa.c ****     const unsigned char *B = (const unsigned char *) b;
  29              		.loc 1 86 26
  30 002b 488B45C0 		movq	-64(%rbp), %rax
  31 002f 488945F0 		movq	%rax, -16(%rbp)
  87:/home/xingli/share/LiteOS_Lab/network/dtls/mbedtls/mbedtls-2.16.2/library/rsa.c ****     unsigned char diff = 0;
  32              		.loc 1 87 19
  33 0033 C645DF00 		movb	$0, -33(%rbp)
  88:/home/xingli/share/LiteOS_Lab/network/dtls/mbedtls/mbedtls-2.16.2/library/rsa.c **** 
  89:/home/xingli/share/LiteOS_Lab/network/dtls/mbedtls/mbedtls-2.16.2/library/rsa.c ****     for( i = 0; i < n; i++ )
  34              		.loc 1 89 12
  35 0037 48C745E0 		movq	$0, -32(%rbp)
  35      00000000 
  36              		.loc 1 89 5
  37 003f EB26     		jmp	.L2
  38              	.L3:
  90:/home/xingli/share/LiteOS_Lab/network/dtls/mbedtls/mbedtls-2.16.2/library/rsa.c ****         diff |= A[i] ^ B[i];
  39              		.loc 1 90 18 discriminator 3
  40 0041 488B55E8 		movq	-24(%rbp), %rdx
  41 0045 488B45E0 		movq	-32(%rbp), %rax
  42 0049 4801D0   		addq	%rdx, %rax
  43 004c 0FB608   		movzbl	(%rax), %ecx
  44              		.loc 1 90 25 discriminator 3
  45 004f 488B55F0 		movq	-16(%rbp), %rdx
  46 0053 488B45E0 		movq	-32(%rbp), %rax
  47 0057 4801D0   		addq	%rdx, %rax
  48 005a 0FB600   		movzbl	(%rax), %eax
  49              		.loc 1 90 14 discriminator 3
  50 005d 31C8     		xorl	%ecx, %eax
  51 005f 0845DF   		orb	%al, -33(%rbp)
  89:/home/xingli/share/LiteOS_Lab/network/dtls/mbedtls/mbedtls-2.16.2/library/rsa.c ****         diff |= A[i] ^ B[i];
  52              		.loc 1 89 25 discriminator 3
  53 0062 488345E0 		addq	$1, -32(%rbp)
  53      01
  54              	.L2:
  89:/home/xingli/share/LiteOS_Lab/network/dtls/mbedtls/mbedtls-2.16.2/library/rsa.c ****         diff |= A[i] ^ B[i];
  55              		.loc 1 89 5 discriminator 1
  56 0067 488B45E0 		movq	-32(%rbp), %rax
  57 006b 483B45B8 		cmpq	-72(%rbp), %rax
  58 006f 72D0     		jb	.L3
  91:/home/xingli/share/LiteOS_Lab/network/dtls/mbedtls/mbedtls-2.16.2/library/rsa.c **** 
  92:/home/xingli/share/LiteOS_Lab/network/dtls/mbedtls/mbedtls-2.16.2/library/rsa.c ****     return( diff );
  59              		.loc 1 92 11
  60 0071 0FB645DF 		movzbl	-33(%rbp), %eax
  93:/home/xingli/share/LiteOS_Lab/network/dtls/mbedtls/mbedtls-2.16.2/library/rsa.c **** }
  61              		.loc 1 93 1
  62 0075 488B75F8 		movq	-8(%rbp), %rsi
  63 0079 64483334 		xorq	%fs:40, %rsi
  63      25280000 
  63      00
  64 0082 7405     		je	.L5
  65 0084 E8000000 		call	__stack_chk_fail@PLT
  65      00
  66              	.L5:
  67 0089 C9       		leave
  68              	.LCFI2:
  69              		.cfi_def_cfa 7, 8
  70 008a C3       		ret
GAS LISTING /tmp/cc6OITWc.s 			page 4


  71              		.cfi_endproc
  72              	.LFE16:
  74              		.section	.text.mbedtls_rsa_import,"ax",@progbits
  75              		.globl	mbedtls_rsa_import
  77              	mbedtls_rsa_import:
  78              	.LFB17:
  94:/home/xingli/share/LiteOS_Lab/network/dtls/mbedtls/mbedtls-2.16.2/library/rsa.c **** #endif /* MBEDTLS_PKCS1_V15 */
  95:/home/xingli/share/LiteOS_Lab/network/dtls/mbedtls/mbedtls-2.16.2/library/rsa.c **** 
  96:/home/xingli/share/LiteOS_Lab/network/dtls/mbedtls/mbedtls-2.16.2/library/rsa.c **** int mbedtls_rsa_import( mbedtls_rsa_context *ctx,
  97:/home/xingli/share/LiteOS_Lab/network/dtls/mbedtls/mbedtls-2.16.2/library/rsa.c ****                         const mbedtls_mpi *N,
  98:/home/xingli/share/LiteOS_Lab/network/dtls/mbedtls/mbedtls-2.16.2/library/rsa.c ****                         const mbedtls_mpi *P, const mbedtls_mpi *Q,
  99:/home/xingli/share/LiteOS_Lab/network/dtls/mbedtls/mbedtls-2.16.2/library/rsa.c ****                         const mbedtls_mpi *D, const mbedtls_mpi *E )
 100:/home/xingli/share/LiteOS_Lab/network/dtls/mbedtls/mbedtls-2.16.2/library/rsa.c **** {
  79              		.loc 1 100 1
  80              		.cfi_startproc
  81 0000 F30F1EFA 		endbr64
  82 0004 55       		pushq	%rbp
  83              	.LCFI3:
  84              		.cfi_def_cfa_offset 16
  85              		.cfi_offset 6, -16
  86 0005 4889E5   		movq	%rsp, %rbp
  87              	.LCFI4:
  88              		.cfi_def_cfa_register 6
  89 0008 4883EC40 		subq	$64, %rsp
  90 000c 48897DE8 		movq	%rdi, -24(%rbp)
  91 0010 488975E0 		movq	%rsi, -32(%rbp)
  92 0014 488955D8 		movq	%rdx, -40(%rbp)
  93 0018 48894DD0 		movq	%rcx, -48(%rbp)
  94 001c 4C8945C8 		movq	%r8, -56(%rbp)
  95 0020 4C894DC0 		movq	%r9, -64(%rbp)
  96              		.loc 1 100 1
  97 0024 64488B04 		movq	%fs:40, %rax
  97      25280000 
  97      00
  98 002d 488945F8 		movq	%rax, -8(%rbp)
  99 0031 31C0     		xorl	%eax, %eax
 101:/home/xingli/share/LiteOS_Lab/network/dtls/mbedtls/mbedtls-2.16.2/library/rsa.c ****     int ret;
 102:/home/xingli/share/LiteOS_Lab/network/dtls/mbedtls/mbedtls-2.16.2/library/rsa.c ****     RSA_VALIDATE_RET( ctx != NULL );
 103:/home/xingli/share/LiteOS_Lab/network/dtls/mbedtls/mbedtls-2.16.2/library/rsa.c **** 
 104:/home/xingli/share/LiteOS_Lab/network/dtls/mbedtls/mbedtls-2.16.2/library/rsa.c ****     if( ( N != NULL && ( ret = mbedtls_mpi_copy( &ctx->N, N ) ) != 0 ) ||
 100              		.loc 1 104 7
 101 0033 48837DE0 		cmpq	$0, -32(%rbp)
 101      00
 102 0038 7424     		je	.L7
 103              		.loc 1 104 32 discriminator 1
 104 003a 488B45E8 		movq	-24(%rbp), %rax
 105 003e 488D5010 		leaq	16(%rax), %rdx
 106 0042 488B45E0 		movq	-32(%rbp), %rax
 107 0046 4889C6   		movq	%rax, %rsi
 108 0049 4889D7   		movq	%rdx, %rdi
 109 004c E8000000 		call	mbedtls_mpi_copy@PLT
 109      00
 110 0051 8945F4   		movl	%eax, -12(%rbp)
 111              		.loc 1 104 21 discriminator 1
 112 0054 837DF400 		cmpl	$0, -12(%rbp)
 113 0058 0F859C00 		jne	.L8
 113      0000
GAS LISTING /tmp/cc6OITWc.s 			page 5


 114              	.L7:
 115              		.loc 1 104 72 discriminator 3
 116 005e 48837DD8 		cmpq	$0, -40(%rbp)
 116      00
 117 0063 7420     		je	.L9
 105:/home/xingli/share/LiteOS_Lab/network/dtls/mbedtls/mbedtls-2.16.2/library/rsa.c ****         ( P != NULL && ( ret = mbedtls_mpi_copy( &ctx->P, P ) ) != 0 ) ||
 118              		.loc 1 105 32
 119 0065 488B45E8 		movq	-24(%rbp), %rax
 120 0069 488D5058 		leaq	88(%rax), %rdx
 121 006d 488B45D8 		movq	-40(%rbp), %rax
 122 0071 4889C6   		movq	%rax, %rsi
 123 0074 4889D7   		movq	%rdx, %rdi
 124 0077 E8000000 		call	mbedtls_mpi_copy@PLT
 124      00
 125 007c 8945F4   		movl	%eax, -12(%rbp)
 126              		.loc 1 105 21
 127 007f 837DF400 		cmpl	$0, -12(%rbp)
 128 0083 7575     		jne	.L8
 129              	.L9:
 130              		.loc 1 105 72 discriminator 1
 131 0085 48837DD0 		cmpq	$0, -48(%rbp)
 131      00
 132 008a 7420     		je	.L10
 106:/home/xingli/share/LiteOS_Lab/network/dtls/mbedtls/mbedtls-2.16.2/library/rsa.c ****         ( Q != NULL && ( ret = mbedtls_mpi_copy( &ctx->Q, Q ) ) != 0 ) ||
 133              		.loc 1 106 32
 134 008c 488B45E8 		movq	-24(%rbp), %rax
 135 0090 488D5070 		leaq	112(%rax), %rdx
 136 0094 488B45D0 		movq	-48(%rbp), %rax
 137 0098 4889C6   		movq	%rax, %rsi
 138 009b 4889D7   		movq	%rdx, %rdi
 139 009e E8000000 		call	mbedtls_mpi_copy@PLT
 139      00
 140 00a3 8945F4   		movl	%eax, -12(%rbp)
 141              		.loc 1 106 21
 142 00a6 837DF400 		cmpl	$0, -12(%rbp)
 143 00aa 754E     		jne	.L8
 144              	.L10:
 145              		.loc 1 106 72 discriminator 1
 146 00ac 48837DC8 		cmpq	$0, -56(%rbp)
 146      00
 147 00b1 7420     		je	.L11
 107:/home/xingli/share/LiteOS_Lab/network/dtls/mbedtls/mbedtls-2.16.2/library/rsa.c ****         ( D != NULL && ( ret = mbedtls_mpi_copy( &ctx->D, D ) ) != 0 ) ||
 148              		.loc 1 107 32
 149 00b3 488B45E8 		movq	-24(%rbp), %rax
 150 00b7 488D5040 		leaq	64(%rax), %rdx
 151 00bb 488B45C8 		movq	-56(%rbp), %rax
 152 00bf 4889C6   		movq	%rax, %rsi
 153 00c2 4889D7   		movq	%rdx, %rdi
 154 00c5 E8000000 		call	mbedtls_mpi_copy@PLT
 154      00
 155 00ca 8945F4   		movl	%eax, -12(%rbp)
 156              		.loc 1 107 21
 157 00cd 837DF400 		cmpl	$0, -12(%rbp)
 158 00d1 7527     		jne	.L8
 159              	.L11:
 160              		.loc 1 107 72 discriminator 1
 161 00d3 48837DC0 		cmpq	$0, -64(%rbp)
GAS LISTING /tmp/cc6OITWc.s 			page 6


 161      00
 162 00d8 742A     		je	.L12
 108:/home/xingli/share/LiteOS_Lab/network/dtls/mbedtls/mbedtls-2.16.2/library/rsa.c ****         ( E != NULL && ( ret = mbedtls_mpi_copy( &ctx->E, E ) ) != 0 ) )
 163              		.loc 1 108 32
 164 00da 488B45E8 		movq	-24(%rbp), %rax
 165 00de 488D5028 		leaq	40(%rax), %rdx
 166 00e2 488B45C0 		movq	-64(%rbp), %rax
 167 00e6 4889C6   		movq	%rax, %rsi
 168 00e9 4889D7   		movq	%rdx, %rdi
 169 00ec E8000000 		call	mbedtls_mpi_copy@PLT
 169      00
 170 00f1 8945F4   		movl	%eax, -12(%rbp)
 171              		.loc 1 108 21
 172 00f4 837DF400 		cmpl	$0, -12(%rbp)
 173 00f8 740A     		je	.L12
 174              	.L8:
 109:/home/xingli/share/LiteOS_Lab/network/dtls/mbedtls/mbedtls-2.16.2/library/rsa.c ****     {
 110:/home/xingli/share/LiteOS_Lab/network/dtls/mbedtls/mbedtls-2.16.2/library/rsa.c ****         return( MBEDTLS_ERR_RSA_BAD_INPUT_DATA + ret );
 175              		.loc 1 110 48
 176 00fa 8B45F4   		movl	-12(%rbp), %eax
 177 00fd 2D804000 		subl	$16512, %eax
 177      00
 178 0102 EB24     		jmp	.L13
 179              	.L12:
 111:/home/xingli/share/LiteOS_Lab/network/dtls/mbedtls/mbedtls-2.16.2/library/rsa.c ****     }
 112:/home/xingli/share/LiteOS_Lab/network/dtls/mbedtls/mbedtls-2.16.2/library/rsa.c **** 
 113:/home/xingli/share/LiteOS_Lab/network/dtls/mbedtls/mbedtls-2.16.2/library/rsa.c ****     if( N != NULL )
 180              		.loc 1 113 7
 181 0104 48837DE0 		cmpq	$0, -32(%rbp)
 181      00
 182 0109 7418     		je	.L14
 114:/home/xingli/share/LiteOS_Lab/network/dtls/mbedtls/mbedtls-2.16.2/library/rsa.c ****         ctx->len = mbedtls_mpi_size( &ctx->N );
 183              		.loc 1 114 38
 184 010b 488B45E8 		movq	-24(%rbp), %rax
 185 010f 4883C010 		addq	$16, %rax
 186              		.loc 1 114 20
 187 0113 4889C7   		movq	%rax, %rdi
 188 0116 E8000000 		call	mbedtls_mpi_size@PLT
 188      00
 189              		.loc 1 114 18
 190 011b 488B55E8 		movq	-24(%rbp), %rdx
 191 011f 48894208 		movq	%rax, 8(%rdx)
 192              	.L14:
 115:/home/xingli/share/LiteOS_Lab/network/dtls/mbedtls/mbedtls-2.16.2/library/rsa.c **** 
 116:/home/xingli/share/LiteOS_Lab/network/dtls/mbedtls/mbedtls-2.16.2/library/rsa.c ****     return( 0 );
 193              		.loc 1 116 11
 194 0123 B8000000 		movl	$0, %eax
 194      00
 195              	.L13:
 117:/home/xingli/share/LiteOS_Lab/network/dtls/mbedtls/mbedtls-2.16.2/library/rsa.c **** }
 196              		.loc 1 117 1
 197 0128 488B4DF8 		movq	-8(%rbp), %rcx
 198 012c 6448330C 		xorq	%fs:40, %rcx
 198      25280000 
 198      00
 199 0135 7405     		je	.L15
 200 0137 E8000000 		call	__stack_chk_fail@PLT
GAS LISTING /tmp/cc6OITWc.s 			page 7


 200      00
 201              	.L15:
 202 013c C9       		leave
 203              	.LCFI5:
 204              		.cfi_def_cfa 7, 8
 205 013d C3       		ret
 206              		.cfi_endproc
 207              	.LFE17:
 209              		.section	.text.mbedtls_rsa_import_raw,"ax",@progbits
 210              		.globl	mbedtls_rsa_import_raw
 212              	mbedtls_rsa_import_raw:
 213              	.LFB18:
 118:/home/xingli/share/LiteOS_Lab/network/dtls/mbedtls/mbedtls-2.16.2/library/rsa.c **** 
 119:/home/xingli/share/LiteOS_Lab/network/dtls/mbedtls/mbedtls-2.16.2/library/rsa.c **** int mbedtls_rsa_import_raw( mbedtls_rsa_context *ctx,
 120:/home/xingli/share/LiteOS_Lab/network/dtls/mbedtls/mbedtls-2.16.2/library/rsa.c ****                             unsigned char const *N, size_t N_len,
 121:/home/xingli/share/LiteOS_Lab/network/dtls/mbedtls/mbedtls-2.16.2/library/rsa.c ****                             unsigned char const *P, size_t P_len,
 122:/home/xingli/share/LiteOS_Lab/network/dtls/mbedtls/mbedtls-2.16.2/library/rsa.c ****                             unsigned char const *Q, size_t Q_len,
 123:/home/xingli/share/LiteOS_Lab/network/dtls/mbedtls/mbedtls-2.16.2/library/rsa.c ****                             unsigned char const *D, size_t D_len,
 124:/home/xingli/share/LiteOS_Lab/network/dtls/mbedtls/mbedtls-2.16.2/library/rsa.c ****                             unsigned char const *E, size_t E_len )
 125:/home/xingli/share/LiteOS_Lab/network/dtls/mbedtls/mbedtls-2.16.2/library/rsa.c **** {
 214              		.loc 1 125 1
 215              		.cfi_startproc
 216 0000 F30F1EFA 		endbr64
 217 0004 55       		pushq	%rbp
 218              	.LCFI6:
 219              		.cfi_def_cfa_offset 16
 220              		.cfi_offset 6, -16
 221 0005 4889E5   		movq	%rsp, %rbp
 222              	.LCFI7:
 223              		.cfi_def_cfa_register 6
 224 0008 4883EC70 		subq	$112, %rsp
 225 000c 48897DE8 		movq	%rdi, -24(%rbp)
 226 0010 488975E0 		movq	%rsi, -32(%rbp)
 227 0014 488955D8 		movq	%rdx, -40(%rbp)
 228 0018 48894DD0 		movq	%rcx, -48(%rbp)
 229 001c 4C8945C8 		movq	%r8, -56(%rbp)
 230 0020 4C894DC0 		movq	%r9, -64(%rbp)
 231 0024 488B4510 		movq	16(%rbp), %rax
 232 0028 488945B8 		movq	%rax, -72(%rbp)
 233 002c 488B4518 		movq	24(%rbp), %rax
 234 0030 488945B0 		movq	%rax, -80(%rbp)
 235 0034 488B4520 		movq	32(%rbp), %rax
 236 0038 488945A8 		movq	%rax, -88(%rbp)
 237 003c 488B4528 		movq	40(%rbp), %rax
 238 0040 488945A0 		movq	%rax, -96(%rbp)
 239 0044 488B4530 		movq	48(%rbp), %rax
 240 0048 48894598 		movq	%rax, -104(%rbp)
 241              		.loc 1 125 1
 242 004c 64488B04 		movq	%fs:40, %rax
 242      25280000 
 242      00
 243 0055 488945F8 		movq	%rax, -8(%rbp)
 244 0059 31C0     		xorl	%eax, %eax
 126:/home/xingli/share/LiteOS_Lab/network/dtls/mbedtls/mbedtls-2.16.2/library/rsa.c ****     int ret = 0;
 245              		.loc 1 126 9
 246 005b C745F400 		movl	$0, -12(%rbp)
 246      000000
GAS LISTING /tmp/cc6OITWc.s 			page 8


 127:/home/xingli/share/LiteOS_Lab/network/dtls/mbedtls/mbedtls-2.16.2/library/rsa.c ****     RSA_VALIDATE_RET( ctx != NULL );
 128:/home/xingli/share/LiteOS_Lab/network/dtls/mbedtls/mbedtls-2.16.2/library/rsa.c **** 
 129:/home/xingli/share/LiteOS_Lab/network/dtls/mbedtls/mbedtls-2.16.2/library/rsa.c ****     if( N != NULL )
 247              		.loc 1 129 7
 248 0062 48837DE0 		cmpq	$0, -32(%rbp)
 248      00
 249 0067 7440     		je	.L17
 130:/home/xingli/share/LiteOS_Lab/network/dtls/mbedtls/mbedtls-2.16.2/library/rsa.c ****     {
 131:/home/xingli/share/LiteOS_Lab/network/dtls/mbedtls/mbedtls-2.16.2/library/rsa.c ****         MBEDTLS_MPI_CHK( mbedtls_mpi_read_binary( &ctx->N, N, N_len ) );
 250              		.loc 1 131 9
 251 0069 488B45E8 		movq	-24(%rbp), %rax
 252 006d 488D4810 		leaq	16(%rax), %rcx
 253 0071 488B55D8 		movq	-40(%rbp), %rdx
 254 0075 488B45E0 		movq	-32(%rbp), %rax
 255 0079 4889C6   		movq	%rax, %rsi
 256 007c 4889CF   		movq	%rcx, %rdi
 257 007f E8000000 		call	mbedtls_mpi_read_binary@PLT
 257      00
 258 0084 8945F4   		movl	%eax, -12(%rbp)
 259 0087 837DF400 		cmpl	$0, -12(%rbp)
 260 008b 0F85C800 		jne	.L26
 260      0000
 132:/home/xingli/share/LiteOS_Lab/network/dtls/mbedtls/mbedtls-2.16.2/library/rsa.c ****         ctx->len = mbedtls_mpi_size( &ctx->N );
 261              		.loc 1 132 38
 262 0091 488B45E8 		movq	-24(%rbp), %rax
 263 0095 4883C010 		addq	$16, %rax
 264              		.loc 1 132 20
 265 0099 4889C7   		movq	%rax, %rdi
 266 009c E8000000 		call	mbedtls_mpi_size@PLT
 266      00
 267              		.loc 1 132 18
 268 00a1 488B55E8 		movq	-24(%rbp), %rdx
 269 00a5 48894208 		movq	%rax, 8(%rdx)
 270              	.L17:
 133:/home/xingli/share/LiteOS_Lab/network/dtls/mbedtls/mbedtls-2.16.2/library/rsa.c ****     }
 134:/home/xingli/share/LiteOS_Lab/network/dtls/mbedtls/mbedtls-2.16.2/library/rsa.c **** 
 135:/home/xingli/share/LiteOS_Lab/network/dtls/mbedtls/mbedtls-2.16.2/library/rsa.c ****     if( P != NULL )
 271              		.loc 1 135 7
 272 00a9 48837DD0 		cmpq	$0, -48(%rbp)
 272      00
 273 00ae 7428     		je	.L20
 136:/home/xingli/share/LiteOS_Lab/network/dtls/mbedtls/mbedtls-2.16.2/library/rsa.c ****         MBEDTLS_MPI_CHK( mbedtls_mpi_read_binary( &ctx->P, P, P_len ) );
 274              		.loc 1 136 9
 275 00b0 488B45E8 		movq	-24(%rbp), %rax
 276 00b4 488D4858 		leaq	88(%rax), %rcx
 277 00b8 488B55C8 		movq	-56(%rbp), %rdx
 278 00bc 488B45D0 		movq	-48(%rbp), %rax
 279 00c0 4889C6   		movq	%rax, %rsi
 280 00c3 4889CF   		movq	%rcx, %rdi
 281 00c6 E8000000 		call	mbedtls_mpi_read_binary@PLT
 281      00
 282 00cb 8945F4   		movl	%eax, -12(%rbp)
 283 00ce 837DF400 		cmpl	$0, -12(%rbp)
 284 00d2 0F858400 		jne	.L27
 284      0000
 285              	.L20:
 137:/home/xingli/share/LiteOS_Lab/network/dtls/mbedtls/mbedtls-2.16.2/library/rsa.c **** 
GAS LISTING /tmp/cc6OITWc.s 			page 9


 138:/home/xingli/share/LiteOS_Lab/network/dtls/mbedtls/mbedtls-2.16.2/library/rsa.c ****     if( Q != NULL )
 286              		.loc 1 138 7
 287 00d8 48837DC0 		cmpq	$0, -64(%rbp)
 287      00
 288 00dd 7424     		je	.L21
 139:/home/xingli/share/LiteOS_Lab/network/dtls/mbedtls/mbedtls-2.16.2/library/rsa.c ****         MBEDTLS_MPI_CHK( mbedtls_mpi_read_binary( &ctx->Q, Q, Q_len ) );
 289              		.loc 1 139 9
 290 00df 488B45E8 		movq	-24(%rbp), %rax
 291 00e3 488D4870 		leaq	112(%rax), %rcx
 292 00e7 488B55B8 		movq	-72(%rbp), %rdx
 293 00eb 488B45C0 		movq	-64(%rbp), %rax
 294 00ef 4889C6   		movq	%rax, %rsi
 295 00f2 4889CF   		movq	%rcx, %rdi
 296 00f5 E8000000 		call	mbedtls_mpi_read_binary@PLT
 296      00
 297 00fa 8945F4   		movl	%eax, -12(%rbp)
 298 00fd 837DF400 		cmpl	$0, -12(%rbp)
 299 0101 755C     		jne	.L28
 300              	.L21:
 140:/home/xingli/share/LiteOS_Lab/network/dtls/mbedtls/mbedtls-2.16.2/library/rsa.c **** 
 141:/home/xingli/share/LiteOS_Lab/network/dtls/mbedtls/mbedtls-2.16.2/library/rsa.c ****     if( D != NULL )
 301              		.loc 1 141 7
 302 0103 48837DB0 		cmpq	$0, -80(%rbp)
 302      00
 303 0108 7424     		je	.L22
 142:/home/xingli/share/LiteOS_Lab/network/dtls/mbedtls/mbedtls-2.16.2/library/rsa.c ****         MBEDTLS_MPI_CHK( mbedtls_mpi_read_binary( &ctx->D, D, D_len ) );
 304              		.loc 1 142 9
 305 010a 488B45E8 		movq	-24(%rbp), %rax
 306 010e 488D4840 		leaq	64(%rax), %rcx
 307 0112 488B55A8 		movq	-88(%rbp), %rdx
 308 0116 488B45B0 		movq	-80(%rbp), %rax
 309 011a 4889C6   		movq	%rax, %rsi
 310 011d 4889CF   		movq	%rcx, %rdi
 311 0120 E8000000 		call	mbedtls_mpi_read_binary@PLT
 311      00
 312 0125 8945F4   		movl	%eax, -12(%rbp)
 313 0128 837DF400 		cmpl	$0, -12(%rbp)
 314 012c 7534     		jne	.L29
 315              	.L22:
 143:/home/xingli/share/LiteOS_Lab/network/dtls/mbedtls/mbedtls-2.16.2/library/rsa.c **** 
 144:/home/xingli/share/LiteOS_Lab/network/dtls/mbedtls/mbedtls-2.16.2/library/rsa.c ****     if( E != NULL )
 316              		.loc 1 144 7
 317 012e 48837DA0 		cmpq	$0, -96(%rbp)
 317      00
 318 0133 7430     		je	.L30
 145:/home/xingli/share/LiteOS_Lab/network/dtls/mbedtls/mbedtls-2.16.2/library/rsa.c ****         MBEDTLS_MPI_CHK( mbedtls_mpi_read_binary( &ctx->E, E, E_len ) );
 319              		.loc 1 145 9
 320 0135 488B45E8 		movq	-24(%rbp), %rax
 321 0139 488D4828 		leaq	40(%rax), %rcx
 322 013d 488B5598 		movq	-104(%rbp), %rdx
 323 0141 488B45A0 		movq	-96(%rbp), %rax
 324 0145 4889C6   		movq	%rax, %rsi
 325 0148 4889CF   		movq	%rcx, %rdi
 326 014b E8000000 		call	mbedtls_mpi_read_binary@PLT
 326      00
 327 0150 8945F4   		movl	%eax, -12(%rbp)
 328 0153 837DF400 		cmpl	$0, -12(%rbp)
GAS LISTING /tmp/cc6OITWc.s 			page 10


 146:/home/xingli/share/LiteOS_Lab/network/dtls/mbedtls/mbedtls-2.16.2/library/rsa.c **** 
 147:/home/xingli/share/LiteOS_Lab/network/dtls/mbedtls/mbedtls-2.16.2/library/rsa.c **** cleanup:
 329              		.loc 1 147 1
 330 0157 EB0C     		jmp	.L30
 331              	.L26:
 131:/home/xingli/share/LiteOS_Lab/network/dtls/mbedtls/mbedtls-2.16.2/library/rsa.c ****         ctx->len = mbedtls_mpi_size( &ctx->N );
 332              		.loc 1 131 9
 333 0159 90       		nop
 334 015a EB0A     		jmp	.L19
 335              	.L27:
 136:/home/xingli/share/LiteOS_Lab/network/dtls/mbedtls/mbedtls-2.16.2/library/rsa.c **** 
 336              		.loc 1 136 9
 337 015c 90       		nop
 338 015d EB07     		jmp	.L19
 339              	.L28:
 139:/home/xingli/share/LiteOS_Lab/network/dtls/mbedtls/mbedtls-2.16.2/library/rsa.c **** 
 340              		.loc 1 139 9
 341 015f 90       		nop
 342 0160 EB04     		jmp	.L19
 343              	.L29:
 142:/home/xingli/share/LiteOS_Lab/network/dtls/mbedtls/mbedtls-2.16.2/library/rsa.c **** 
 344              		.loc 1 142 9
 345 0162 90       		nop
 346 0163 EB01     		jmp	.L19
 347              	.L30:
 348              		.loc 1 147 1
 349 0165 90       		nop
 350              	.L19:
 148:/home/xingli/share/LiteOS_Lab/network/dtls/mbedtls/mbedtls-2.16.2/library/rsa.c **** 
 149:/home/xingli/share/LiteOS_Lab/network/dtls/mbedtls/mbedtls-2.16.2/library/rsa.c ****     if( ret != 0 )
 351              		.loc 1 149 7
 352 0166 837DF400 		cmpl	$0, -12(%rbp)
 353 016a 740A     		je	.L23
 150:/home/xingli/share/LiteOS_Lab/network/dtls/mbedtls/mbedtls-2.16.2/library/rsa.c ****         return( MBEDTLS_ERR_RSA_BAD_INPUT_DATA + ret );
 354              		.loc 1 150 48
 355 016c 8B45F4   		movl	-12(%rbp), %eax
 356 016f 2D804000 		subl	$16512, %eax
 356      00
 357 0174 EB05     		jmp	.L24
 358              	.L23:
 151:/home/xingli/share/LiteOS_Lab/network/dtls/mbedtls/mbedtls-2.16.2/library/rsa.c **** 
 152:/home/xingli/share/LiteOS_Lab/network/dtls/mbedtls/mbedtls-2.16.2/library/rsa.c ****     return( 0 );
 359              		.loc 1 152 11
 360 0176 B8000000 		movl	$0, %eax
 360      00
 361              	.L24:
 153:/home/xingli/share/LiteOS_Lab/network/dtls/mbedtls/mbedtls-2.16.2/library/rsa.c **** }
 362              		.loc 1 153 1
 363 017b 488B75F8 		movq	-8(%rbp), %rsi
 364 017f 64483334 		xorq	%fs:40, %rsi
 364      25280000 
 364      00
 365 0188 7405     		je	.L25
 366 018a E8000000 		call	__stack_chk_fail@PLT
 366      00
 367              	.L25:
 368 018f C9       		leave
GAS LISTING /tmp/cc6OITWc.s 			page 11


 369              	.LCFI8:
 370              		.cfi_def_cfa 7, 8
 371 0190 C3       		ret
 372              		.cfi_endproc
 373              	.LFE18:
 375              		.section	.text.rsa_check_context,"ax",@progbits
 377              	rsa_check_context:
 378              	.LFB19:
 154:/home/xingli/share/LiteOS_Lab/network/dtls/mbedtls/mbedtls-2.16.2/library/rsa.c **** 
 155:/home/xingli/share/LiteOS_Lab/network/dtls/mbedtls/mbedtls-2.16.2/library/rsa.c **** /*
 156:/home/xingli/share/LiteOS_Lab/network/dtls/mbedtls/mbedtls-2.16.2/library/rsa.c ****  * Checks whether the context fields are set in such a way
 157:/home/xingli/share/LiteOS_Lab/network/dtls/mbedtls/mbedtls-2.16.2/library/rsa.c ****  * that the RSA primitives will be able to execute without error.
 158:/home/xingli/share/LiteOS_Lab/network/dtls/mbedtls/mbedtls-2.16.2/library/rsa.c ****  * It does *not* make guarantees for consistency of the parameters.
 159:/home/xingli/share/LiteOS_Lab/network/dtls/mbedtls/mbedtls-2.16.2/library/rsa.c ****  */
 160:/home/xingli/share/LiteOS_Lab/network/dtls/mbedtls/mbedtls-2.16.2/library/rsa.c **** static int rsa_check_context( mbedtls_rsa_context const *ctx, int is_priv,
 161:/home/xingli/share/LiteOS_Lab/network/dtls/mbedtls/mbedtls-2.16.2/library/rsa.c ****                               int blinding_needed )
 162:/home/xingli/share/LiteOS_Lab/network/dtls/mbedtls/mbedtls-2.16.2/library/rsa.c **** {
 379              		.loc 1 162 1
 380              		.cfi_startproc
 381 0000 F30F1EFA 		endbr64
 382 0004 55       		pushq	%rbp
 383              	.LCFI9:
 384              		.cfi_def_cfa_offset 16
 385              		.cfi_offset 6, -16
 386 0005 4889E5   		movq	%rsp, %rbp
 387              	.LCFI10:
 388              		.cfi_def_cfa_register 6
 389 0008 53       		pushq	%rbx
 390 0009 4883EC28 		subq	$40, %rsp
 391              		.cfi_offset 3, -24
 392 000d 48897DD8 		movq	%rdi, -40(%rbp)
 393 0011 8975D4   		movl	%esi, -44(%rbp)
 394 0014 8955D0   		movl	%edx, -48(%rbp)
 395              		.loc 1 162 1
 396 0017 64488B04 		movq	%fs:40, %rax
 396      25280000 
 396      00
 397 0020 488945E8 		movq	%rax, -24(%rbp)
 398 0024 31C0     		xorl	%eax, %eax
 163:/home/xingli/share/LiteOS_Lab/network/dtls/mbedtls/mbedtls-2.16.2/library/rsa.c **** #if !defined(MBEDTLS_RSA_NO_CRT)
 164:/home/xingli/share/LiteOS_Lab/network/dtls/mbedtls/mbedtls-2.16.2/library/rsa.c ****     /* blinding_needed is only used for NO_CRT to decide whether
 165:/home/xingli/share/LiteOS_Lab/network/dtls/mbedtls/mbedtls-2.16.2/library/rsa.c ****      * P,Q need to be present or not. */
 166:/home/xingli/share/LiteOS_Lab/network/dtls/mbedtls/mbedtls-2.16.2/library/rsa.c ****     ((void) blinding_needed);
 167:/home/xingli/share/LiteOS_Lab/network/dtls/mbedtls/mbedtls-2.16.2/library/rsa.c **** #endif
 168:/home/xingli/share/LiteOS_Lab/network/dtls/mbedtls/mbedtls-2.16.2/library/rsa.c **** 
 169:/home/xingli/share/LiteOS_Lab/network/dtls/mbedtls/mbedtls-2.16.2/library/rsa.c ****     if( ctx->len != mbedtls_mpi_size( &ctx->N ) ||
 399              		.loc 1 169 12
 400 0026 488B45D8 		movq	-40(%rbp), %rax
 401 002a 488B5808 		movq	8(%rax), %rbx
 402              		.loc 1 169 21
 403 002e 488B45D8 		movq	-40(%rbp), %rax
 404 0032 4883C010 		addq	$16, %rax
 405 0036 4889C7   		movq	%rax, %rdi
 406 0039 E8000000 		call	mbedtls_mpi_size@PLT
 406      00
 407              		.loc 1 169 7
 408 003e 4839C3   		cmpq	%rax, %rbx
GAS LISTING /tmp/cc6OITWc.s 			page 12


 409 0041 7510     		jne	.L32
 170:/home/xingli/share/LiteOS_Lab/network/dtls/mbedtls/mbedtls-2.16.2/library/rsa.c ****         ctx->len > MBEDTLS_MPI_MAX_SIZE )
 410              		.loc 1 170 12 discriminator 1
 411 0043 488B45D8 		movq	-40(%rbp), %rax
 412 0047 488B4008 		movq	8(%rax), %rax
 169:/home/xingli/share/LiteOS_Lab/network/dtls/mbedtls/mbedtls-2.16.2/library/rsa.c ****         ctx->len > MBEDTLS_MPI_MAX_SIZE )
 413              		.loc 1 169 49 discriminator 1
 414 004b 483D0004 		cmpq	$1024, %rax
 414      0000
 415 0051 760A     		jbe	.L33
 416              	.L32:
 171:/home/xingli/share/LiteOS_Lab/network/dtls/mbedtls/mbedtls-2.16.2/library/rsa.c ****     {
 172:/home/xingli/share/LiteOS_Lab/network/dtls/mbedtls/mbedtls-2.16.2/library/rsa.c ****         return( MBEDTLS_ERR_RSA_BAD_INPUT_DATA );
 417              		.loc 1 172 15
 418 0053 B880BFFF 		movl	$-16512, %eax
 418      FF
 419 0058 E9400100 		jmp	.L34
 419      00
 420              	.L33:
 173:/home/xingli/share/LiteOS_Lab/network/dtls/mbedtls/mbedtls-2.16.2/library/rsa.c ****     }
 174:/home/xingli/share/LiteOS_Lab/network/dtls/mbedtls/mbedtls-2.16.2/library/rsa.c **** 
 175:/home/xingli/share/LiteOS_Lab/network/dtls/mbedtls/mbedtls-2.16.2/library/rsa.c ****     /*
 176:/home/xingli/share/LiteOS_Lab/network/dtls/mbedtls/mbedtls-2.16.2/library/rsa.c ****      * 1. Modular exponentiation needs positive, odd moduli.
 177:/home/xingli/share/LiteOS_Lab/network/dtls/mbedtls/mbedtls-2.16.2/library/rsa.c ****      */
 178:/home/xingli/share/LiteOS_Lab/network/dtls/mbedtls/mbedtls-2.16.2/library/rsa.c **** 
 179:/home/xingli/share/LiteOS_Lab/network/dtls/mbedtls/mbedtls-2.16.2/library/rsa.c ****     /* Modular exponentiation wrt. N is always used for
 180:/home/xingli/share/LiteOS_Lab/network/dtls/mbedtls/mbedtls-2.16.2/library/rsa.c ****      * RSA public key operations. */
 181:/home/xingli/share/LiteOS_Lab/network/dtls/mbedtls/mbedtls-2.16.2/library/rsa.c ****     if( mbedtls_mpi_cmp_int( &ctx->N, 0 ) <= 0 ||
 421              		.loc 1 181 9
 422 005d 488B45D8 		movq	-40(%rbp), %rax
 423 0061 4883C010 		addq	$16, %rax
 424 0065 BE000000 		movl	$0, %esi
 424      00
 425 006a 4889C7   		movq	%rax, %rdi
 426 006d E8000000 		call	mbedtls_mpi_cmp_int@PLT
 426      00
 427              		.loc 1 181 7
 428 0072 85C0     		testl	%eax, %eax
 429 0074 7E19     		jle	.L35
 182:/home/xingli/share/LiteOS_Lab/network/dtls/mbedtls/mbedtls-2.16.2/library/rsa.c ****         mbedtls_mpi_get_bit( &ctx->N, 0 ) == 0  )
 430              		.loc 1 182 9 discriminator 1
 431 0076 488B45D8 		movq	-40(%rbp), %rax
 432 007a 4883C010 		addq	$16, %rax
 433 007e BE000000 		movl	$0, %esi
 433      00
 434 0083 4889C7   		movq	%rax, %rdi
 435 0086 E8000000 		call	mbedtls_mpi_get_bit@PLT
 435      00
 181:/home/xingli/share/LiteOS_Lab/network/dtls/mbedtls/mbedtls-2.16.2/library/rsa.c ****         mbedtls_mpi_get_bit( &ctx->N, 0 ) == 0  )
 436              		.loc 1 181 48 discriminator 1
 437 008b 85C0     		testl	%eax, %eax
 438 008d 750A     		jne	.L36
 439              	.L35:
 183:/home/xingli/share/LiteOS_Lab/network/dtls/mbedtls/mbedtls-2.16.2/library/rsa.c ****     {
 184:/home/xingli/share/LiteOS_Lab/network/dtls/mbedtls/mbedtls-2.16.2/library/rsa.c ****         return( MBEDTLS_ERR_RSA_BAD_INPUT_DATA );
 440              		.loc 1 184 15
 441 008f B880BFFF 		movl	$-16512, %eax
GAS LISTING /tmp/cc6OITWc.s 			page 13


 441      FF
 442 0094 E9040100 		jmp	.L34
 442      00
 443              	.L36:
 185:/home/xingli/share/LiteOS_Lab/network/dtls/mbedtls/mbedtls-2.16.2/library/rsa.c ****     }
 186:/home/xingli/share/LiteOS_Lab/network/dtls/mbedtls/mbedtls-2.16.2/library/rsa.c **** 
 187:/home/xingli/share/LiteOS_Lab/network/dtls/mbedtls/mbedtls-2.16.2/library/rsa.c **** #if !defined(MBEDTLS_RSA_NO_CRT)
 188:/home/xingli/share/LiteOS_Lab/network/dtls/mbedtls/mbedtls-2.16.2/library/rsa.c ****     /* Modular exponentiation for P and Q is only
 189:/home/xingli/share/LiteOS_Lab/network/dtls/mbedtls/mbedtls-2.16.2/library/rsa.c ****      * used for private key operations and if CRT
 190:/home/xingli/share/LiteOS_Lab/network/dtls/mbedtls/mbedtls-2.16.2/library/rsa.c ****      * is used. */
 191:/home/xingli/share/LiteOS_Lab/network/dtls/mbedtls/mbedtls-2.16.2/library/rsa.c ****     if( is_priv &&
 444              		.loc 1 191 7
 445 0099 837DD400 		cmpl	$0, -44(%rbp)
 446 009d 746E     		je	.L37
 192:/home/xingli/share/LiteOS_Lab/network/dtls/mbedtls/mbedtls-2.16.2/library/rsa.c ****         ( mbedtls_mpi_cmp_int( &ctx->P, 0 ) <= 0 ||
 447              		.loc 1 192 11 discriminator 1
 448 009f 488B45D8 		movq	-40(%rbp), %rax
 449 00a3 4883C058 		addq	$88, %rax
 450 00a7 BE000000 		movl	$0, %esi
 450      00
 451 00ac 4889C7   		movq	%rax, %rdi
 452 00af E8000000 		call	mbedtls_mpi_cmp_int@PLT
 452      00
 191:/home/xingli/share/LiteOS_Lab/network/dtls/mbedtls/mbedtls-2.16.2/library/rsa.c ****         ( mbedtls_mpi_cmp_int( &ctx->P, 0 ) <= 0 ||
 453              		.loc 1 191 17 discriminator 1
 454 00b4 85C0     		testl	%eax, %eax
 455 00b6 7E4B     		jle	.L38
 193:/home/xingli/share/LiteOS_Lab/network/dtls/mbedtls/mbedtls-2.16.2/library/rsa.c ****           mbedtls_mpi_get_bit( &ctx->P, 0 ) == 0 ||
 456              		.loc 1 193 11
 457 00b8 488B45D8 		movq	-40(%rbp), %rax
 458 00bc 4883C058 		addq	$88, %rax
 459 00c0 BE000000 		movl	$0, %esi
 459      00
 460 00c5 4889C7   		movq	%rax, %rdi
 461 00c8 E8000000 		call	mbedtls_mpi_get_bit@PLT
 461      00
 192:/home/xingli/share/LiteOS_Lab/network/dtls/mbedtls/mbedtls-2.16.2/library/rsa.c ****         ( mbedtls_mpi_cmp_int( &ctx->P, 0 ) <= 0 ||
 462              		.loc 1 192 50
 463 00cd 85C0     		testl	%eax, %eax
 464 00cf 7432     		je	.L38
 194:/home/xingli/share/LiteOS_Lab/network/dtls/mbedtls/mbedtls-2.16.2/library/rsa.c ****           mbedtls_mpi_cmp_int( &ctx->Q, 0 ) <= 0 ||
 465              		.loc 1 194 11
 466 00d1 488B45D8 		movq	-40(%rbp), %rax
 467 00d5 4883C070 		addq	$112, %rax
 468 00d9 BE000000 		movl	$0, %esi
 468      00
 469 00de 4889C7   		movq	%rax, %rdi
 470 00e1 E8000000 		call	mbedtls_mpi_cmp_int@PLT
 470      00
 193:/home/xingli/share/LiteOS_Lab/network/dtls/mbedtls/mbedtls-2.16.2/library/rsa.c ****           mbedtls_mpi_get_bit( &ctx->P, 0 ) == 0 ||
 471              		.loc 1 193 50
 472 00e6 85C0     		testl	%eax, %eax
 473 00e8 7E19     		jle	.L38
 195:/home/xingli/share/LiteOS_Lab/network/dtls/mbedtls/mbedtls-2.16.2/library/rsa.c ****           mbedtls_mpi_get_bit( &ctx->Q, 0 ) == 0  ) )
 474              		.loc 1 195 11
 475 00ea 488B45D8 		movq	-40(%rbp), %rax
 476 00ee 4883C070 		addq	$112, %rax
GAS LISTING /tmp/cc6OITWc.s 			page 14


 477 00f2 BE000000 		movl	$0, %esi
 477      00
 478 00f7 4889C7   		movq	%rax, %rdi
 479 00fa E8000000 		call	mbedtls_mpi_get_bit@PLT
 479      00
 194:/home/xingli/share/LiteOS_Lab/network/dtls/mbedtls/mbedtls-2.16.2/library/rsa.c ****           mbedtls_mpi_cmp_int( &ctx->Q, 0 ) <= 0 ||
 480              		.loc 1 194 50
 481 00ff 85C0     		testl	%eax, %eax
 482 0101 750A     		jne	.L37
 483              	.L38:
 196:/home/xingli/share/LiteOS_Lab/network/dtls/mbedtls/mbedtls-2.16.2/library/rsa.c ****     {
 197:/home/xingli/share/LiteOS_Lab/network/dtls/mbedtls/mbedtls-2.16.2/library/rsa.c ****         return( MBEDTLS_ERR_RSA_BAD_INPUT_DATA );
 484              		.loc 1 197 15
 485 0103 B880BFFF 		movl	$-16512, %eax
 485      FF
 486 0108 E9900000 		jmp	.L34
 486      00
 487              	.L37:
 198:/home/xingli/share/LiteOS_Lab/network/dtls/mbedtls/mbedtls-2.16.2/library/rsa.c ****     }
 199:/home/xingli/share/LiteOS_Lab/network/dtls/mbedtls/mbedtls-2.16.2/library/rsa.c **** #endif /* !MBEDTLS_RSA_NO_CRT */
 200:/home/xingli/share/LiteOS_Lab/network/dtls/mbedtls/mbedtls-2.16.2/library/rsa.c **** 
 201:/home/xingli/share/LiteOS_Lab/network/dtls/mbedtls/mbedtls-2.16.2/library/rsa.c ****     /*
 202:/home/xingli/share/LiteOS_Lab/network/dtls/mbedtls/mbedtls-2.16.2/library/rsa.c ****      * 2. Exponents must be positive
 203:/home/xingli/share/LiteOS_Lab/network/dtls/mbedtls/mbedtls-2.16.2/library/rsa.c ****      */
 204:/home/xingli/share/LiteOS_Lab/network/dtls/mbedtls/mbedtls-2.16.2/library/rsa.c **** 
 205:/home/xingli/share/LiteOS_Lab/network/dtls/mbedtls/mbedtls-2.16.2/library/rsa.c ****     /* Always need E for public key operations */
 206:/home/xingli/share/LiteOS_Lab/network/dtls/mbedtls/mbedtls-2.16.2/library/rsa.c ****     if( mbedtls_mpi_cmp_int( &ctx->E, 0 ) <= 0 )
 488              		.loc 1 206 9
 489 010d 488B45D8 		movq	-40(%rbp), %rax
 490 0111 4883C028 		addq	$40, %rax
 491 0115 BE000000 		movl	$0, %esi
 491      00
 492 011a 4889C7   		movq	%rax, %rdi
 493 011d E8000000 		call	mbedtls_mpi_cmp_int@PLT
 493      00
 494              		.loc 1 206 7
 495 0122 85C0     		testl	%eax, %eax
 496 0124 7F07     		jg	.L39
 207:/home/xingli/share/LiteOS_Lab/network/dtls/mbedtls/mbedtls-2.16.2/library/rsa.c ****         return( MBEDTLS_ERR_RSA_BAD_INPUT_DATA );
 497              		.loc 1 207 15
 498 0126 B880BFFF 		movl	$-16512, %eax
 498      FF
 499 012b EB70     		jmp	.L34
 500              	.L39:
 208:/home/xingli/share/LiteOS_Lab/network/dtls/mbedtls/mbedtls-2.16.2/library/rsa.c **** 
 209:/home/xingli/share/LiteOS_Lab/network/dtls/mbedtls/mbedtls-2.16.2/library/rsa.c **** #if defined(MBEDTLS_RSA_NO_CRT)
 210:/home/xingli/share/LiteOS_Lab/network/dtls/mbedtls/mbedtls-2.16.2/library/rsa.c ****     /* For private key operations, use D or DP & DQ
 211:/home/xingli/share/LiteOS_Lab/network/dtls/mbedtls/mbedtls-2.16.2/library/rsa.c ****      * as (unblinded) exponents. */
 212:/home/xingli/share/LiteOS_Lab/network/dtls/mbedtls/mbedtls-2.16.2/library/rsa.c ****     if( is_priv && mbedtls_mpi_cmp_int( &ctx->D, 0 ) <= 0 )
 213:/home/xingli/share/LiteOS_Lab/network/dtls/mbedtls/mbedtls-2.16.2/library/rsa.c ****         return( MBEDTLS_ERR_RSA_BAD_INPUT_DATA );
 214:/home/xingli/share/LiteOS_Lab/network/dtls/mbedtls/mbedtls-2.16.2/library/rsa.c **** #else
 215:/home/xingli/share/LiteOS_Lab/network/dtls/mbedtls/mbedtls-2.16.2/library/rsa.c ****     if( is_priv &&
 501              		.loc 1 215 7
 502 012d 837DD400 		cmpl	$0, -44(%rbp)
 503 0131 743D     		je	.L40
 216:/home/xingli/share/LiteOS_Lab/network/dtls/mbedtls/mbedtls-2.16.2/library/rsa.c ****         ( mbedtls_mpi_cmp_int( &ctx->DP, 0 ) <= 0 ||
 504              		.loc 1 216 11 discriminator 1
GAS LISTING /tmp/cc6OITWc.s 			page 15


 505 0133 488B45D8 		movq	-40(%rbp), %rax
 506 0137 48058800 		addq	$136, %rax
 506      0000
 507 013d BE000000 		movl	$0, %esi
 507      00
 508 0142 4889C7   		movq	%rax, %rdi
 509 0145 E8000000 		call	mbedtls_mpi_cmp_int@PLT
 509      00
 215:/home/xingli/share/LiteOS_Lab/network/dtls/mbedtls/mbedtls-2.16.2/library/rsa.c ****         ( mbedtls_mpi_cmp_int( &ctx->DP, 0 ) <= 0 ||
 510              		.loc 1 215 17 discriminator 1
 511 014a 85C0     		testl	%eax, %eax
 512 014c 7E1B     		jle	.L41
 217:/home/xingli/share/LiteOS_Lab/network/dtls/mbedtls/mbedtls-2.16.2/library/rsa.c ****           mbedtls_mpi_cmp_int( &ctx->DQ, 0 ) <= 0  ) )
 513              		.loc 1 217 11
 514 014e 488B45D8 		movq	-40(%rbp), %rax
 515 0152 4805A000 		addq	$160, %rax
 515      0000
 516 0158 BE000000 		movl	$0, %esi
 516      00
 517 015d 4889C7   		movq	%rax, %rdi
 518 0160 E8000000 		call	mbedtls_mpi_cmp_int@PLT
 518      00
 216:/home/xingli/share/LiteOS_Lab/network/dtls/mbedtls/mbedtls-2.16.2/library/rsa.c ****         ( mbedtls_mpi_cmp_int( &ctx->DP, 0 ) <= 0 ||
 519              		.loc 1 216 51
 520 0165 85C0     		testl	%eax, %eax
 521 0167 7F07     		jg	.L40
 522              	.L41:
 218:/home/xingli/share/LiteOS_Lab/network/dtls/mbedtls/mbedtls-2.16.2/library/rsa.c ****     {
 219:/home/xingli/share/LiteOS_Lab/network/dtls/mbedtls/mbedtls-2.16.2/library/rsa.c ****         return( MBEDTLS_ERR_RSA_BAD_INPUT_DATA );
 523              		.loc 1 219 15
 524 0169 B880BFFF 		movl	$-16512, %eax
 524      FF
 525 016e EB2D     		jmp	.L34
 526              	.L40:
 220:/home/xingli/share/LiteOS_Lab/network/dtls/mbedtls/mbedtls-2.16.2/library/rsa.c ****     }
 221:/home/xingli/share/LiteOS_Lab/network/dtls/mbedtls/mbedtls-2.16.2/library/rsa.c **** #endif /* MBEDTLS_RSA_NO_CRT */
 222:/home/xingli/share/LiteOS_Lab/network/dtls/mbedtls/mbedtls-2.16.2/library/rsa.c **** 
 223:/home/xingli/share/LiteOS_Lab/network/dtls/mbedtls/mbedtls-2.16.2/library/rsa.c ****     /* Blinding shouldn't make exponents negative either,
 224:/home/xingli/share/LiteOS_Lab/network/dtls/mbedtls/mbedtls-2.16.2/library/rsa.c ****      * so check that P, Q >= 1 if that hasn't yet been
 225:/home/xingli/share/LiteOS_Lab/network/dtls/mbedtls/mbedtls-2.16.2/library/rsa.c ****      * done as part of 1. */
 226:/home/xingli/share/LiteOS_Lab/network/dtls/mbedtls/mbedtls-2.16.2/library/rsa.c **** #if defined(MBEDTLS_RSA_NO_CRT)
 227:/home/xingli/share/LiteOS_Lab/network/dtls/mbedtls/mbedtls-2.16.2/library/rsa.c ****     if( is_priv && blinding_needed &&
 228:/home/xingli/share/LiteOS_Lab/network/dtls/mbedtls/mbedtls-2.16.2/library/rsa.c ****         ( mbedtls_mpi_cmp_int( &ctx->P, 0 ) <= 0 ||
 229:/home/xingli/share/LiteOS_Lab/network/dtls/mbedtls/mbedtls-2.16.2/library/rsa.c ****           mbedtls_mpi_cmp_int( &ctx->Q, 0 ) <= 0 ) )
 230:/home/xingli/share/LiteOS_Lab/network/dtls/mbedtls/mbedtls-2.16.2/library/rsa.c ****     {
 231:/home/xingli/share/LiteOS_Lab/network/dtls/mbedtls/mbedtls-2.16.2/library/rsa.c ****         return( MBEDTLS_ERR_RSA_BAD_INPUT_DATA );
 232:/home/xingli/share/LiteOS_Lab/network/dtls/mbedtls/mbedtls-2.16.2/library/rsa.c ****     }
 233:/home/xingli/share/LiteOS_Lab/network/dtls/mbedtls/mbedtls-2.16.2/library/rsa.c **** #endif
 234:/home/xingli/share/LiteOS_Lab/network/dtls/mbedtls/mbedtls-2.16.2/library/rsa.c **** 
 235:/home/xingli/share/LiteOS_Lab/network/dtls/mbedtls/mbedtls-2.16.2/library/rsa.c ****     /* It wouldn't lead to an error if it wasn't satisfied,
 236:/home/xingli/share/LiteOS_Lab/network/dtls/mbedtls/mbedtls-2.16.2/library/rsa.c ****      * but check for QP >= 1 nonetheless. */
 237:/home/xingli/share/LiteOS_Lab/network/dtls/mbedtls/mbedtls-2.16.2/library/rsa.c **** #if !defined(MBEDTLS_RSA_NO_CRT)
 238:/home/xingli/share/LiteOS_Lab/network/dtls/mbedtls/mbedtls-2.16.2/library/rsa.c ****     if( is_priv &&
 527              		.loc 1 238 7
 528 0170 837DD400 		cmpl	$0, -44(%rbp)
 529 0174 7422     		je	.L42
 239:/home/xingli/share/LiteOS_Lab/network/dtls/mbedtls/mbedtls-2.16.2/library/rsa.c ****         mbedtls_mpi_cmp_int( &ctx->QP, 0 ) <= 0 )
GAS LISTING /tmp/cc6OITWc.s 			page 16


 530              		.loc 1 239 9 discriminator 1
 531 0176 488B45D8 		movq	-40(%rbp), %rax
 532 017a 4805B800 		addq	$184, %rax
 532      0000
 533 0180 BE000000 		movl	$0, %esi
 533      00
 534 0185 4889C7   		movq	%rax, %rdi
 535 0188 E8000000 		call	mbedtls_mpi_cmp_int@PLT
 535      00
 238:/home/xingli/share/LiteOS_Lab/network/dtls/mbedtls/mbedtls-2.16.2/library/rsa.c ****         mbedtls_mpi_cmp_int( &ctx->QP, 0 ) <= 0 )
 536              		.loc 1 238 17 discriminator 1
 537 018d 85C0     		testl	%eax, %eax
 538 018f 7F07     		jg	.L42
 240:/home/xingli/share/LiteOS_Lab/network/dtls/mbedtls/mbedtls-2.16.2/library/rsa.c ****     {
 241:/home/xingli/share/LiteOS_Lab/network/dtls/mbedtls/mbedtls-2.16.2/library/rsa.c ****         return( MBEDTLS_ERR_RSA_BAD_INPUT_DATA );
 539              		.loc 1 241 15
 540 0191 B880BFFF 		movl	$-16512, %eax
 540      FF
 541 0196 EB05     		jmp	.L34
 542              	.L42:
 242:/home/xingli/share/LiteOS_Lab/network/dtls/mbedtls/mbedtls-2.16.2/library/rsa.c ****     }
 243:/home/xingli/share/LiteOS_Lab/network/dtls/mbedtls/mbedtls-2.16.2/library/rsa.c **** #endif
 244:/home/xingli/share/LiteOS_Lab/network/dtls/mbedtls/mbedtls-2.16.2/library/rsa.c **** 
 245:/home/xingli/share/LiteOS_Lab/network/dtls/mbedtls/mbedtls-2.16.2/library/rsa.c ****     return( 0 );
 543              		.loc 1 245 11
 544 0198 B8000000 		movl	$0, %eax
 544      00
 545              	.L34:
 246:/home/xingli/share/LiteOS_Lab/network/dtls/mbedtls/mbedtls-2.16.2/library/rsa.c **** }
 546              		.loc 1 246 1
 547 019d 488B4DE8 		movq	-24(%rbp), %rcx
 548 01a1 6448330C 		xorq	%fs:40, %rcx
 548      25280000 
 548      00
 549 01aa 7405     		je	.L43
 550 01ac E8000000 		call	__stack_chk_fail@PLT
 550      00
 551              	.L43:
 552 01b1 4883C428 		addq	$40, %rsp
 553 01b5 5B       		popq	%rbx
 554 01b6 5D       		popq	%rbp
 555              	.LCFI11:
 556              		.cfi_def_cfa 7, 8
 557 01b7 C3       		ret
 558              		.cfi_endproc
 559              	.LFE19:
 561              		.section	.text.mbedtls_rsa_complete,"ax",@progbits
 562              		.globl	mbedtls_rsa_complete
 564              	mbedtls_rsa_complete:
 565              	.LFB20:
 247:/home/xingli/share/LiteOS_Lab/network/dtls/mbedtls/mbedtls-2.16.2/library/rsa.c **** 
 248:/home/xingli/share/LiteOS_Lab/network/dtls/mbedtls/mbedtls-2.16.2/library/rsa.c **** int mbedtls_rsa_complete( mbedtls_rsa_context *ctx )
 249:/home/xingli/share/LiteOS_Lab/network/dtls/mbedtls/mbedtls-2.16.2/library/rsa.c **** {
 566              		.loc 1 249 1
 567              		.cfi_startproc
 568 0000 F30F1EFA 		endbr64
 569 0004 55       		pushq	%rbp
GAS LISTING /tmp/cc6OITWc.s 			page 17


 570              	.LCFI12:
 571              		.cfi_def_cfa_offset 16
 572              		.cfi_offset 6, -16
 573 0005 4889E5   		movq	%rsp, %rbp
 574              	.LCFI13:
 575              		.cfi_def_cfa_register 6
 576 0008 4883EC50 		subq	$80, %rsp
 577 000c 48897DB8 		movq	%rdi, -72(%rbp)
 578              		.loc 1 249 1
 579 0010 64488B04 		movq	%fs:40, %rax
 579      25280000 
 579      00
 580 0019 488945F8 		movq	%rax, -8(%rbp)
 581 001d 31C0     		xorl	%eax, %eax
 250:/home/xingli/share/LiteOS_Lab/network/dtls/mbedtls/mbedtls-2.16.2/library/rsa.c ****     int ret = 0;
 582              		.loc 1 250 9
 583 001f C745CC00 		movl	$0, -52(%rbp)
 583      000000
 251:/home/xingli/share/LiteOS_Lab/network/dtls/mbedtls/mbedtls-2.16.2/library/rsa.c ****     int have_N, have_P, have_Q, have_D, have_E;
 252:/home/xingli/share/LiteOS_Lab/network/dtls/mbedtls/mbedtls-2.16.2/library/rsa.c ****     int n_missing, pq_missing, d_missing, is_pub, is_priv;
 253:/home/xingli/share/LiteOS_Lab/network/dtls/mbedtls/mbedtls-2.16.2/library/rsa.c **** 
 254:/home/xingli/share/LiteOS_Lab/network/dtls/mbedtls/mbedtls-2.16.2/library/rsa.c ****     RSA_VALIDATE_RET( ctx != NULL );
 255:/home/xingli/share/LiteOS_Lab/network/dtls/mbedtls/mbedtls-2.16.2/library/rsa.c **** 
 256:/home/xingli/share/LiteOS_Lab/network/dtls/mbedtls/mbedtls-2.16.2/library/rsa.c ****     have_N = ( mbedtls_mpi_cmp_int( &ctx->N, 0 ) != 0 );
 584              		.loc 1 256 37
 585 0026 488B45B8 		movq	-72(%rbp), %rax
 586 002a 4883C010 		addq	$16, %rax
 587              		.loc 1 256 16
 588 002e BE000000 		movl	$0, %esi
 588      00
 589 0033 4889C7   		movq	%rax, %rdi
 590 0036 E8000000 		call	mbedtls_mpi_cmp_int@PLT
 590      00
 591              		.loc 1 256 50
 592 003b 85C0     		testl	%eax, %eax
 593 003d 0F95C0   		setne	%al
 594              		.loc 1 256 12
 595 0040 0FB6C0   		movzbl	%al, %eax
 596 0043 8945D0   		movl	%eax, -48(%rbp)
 257:/home/xingli/share/LiteOS_Lab/network/dtls/mbedtls/mbedtls-2.16.2/library/rsa.c ****     have_P = ( mbedtls_mpi_cmp_int( &ctx->P, 0 ) != 0 );
 597              		.loc 1 257 37
 598 0046 488B45B8 		movq	-72(%rbp), %rax
 599 004a 4883C058 		addq	$88, %rax
 600              		.loc 1 257 16
 601 004e BE000000 		movl	$0, %esi
 601      00
 602 0053 4889C7   		movq	%rax, %rdi
 603 0056 E8000000 		call	mbedtls_mpi_cmp_int@PLT
 603      00
 604              		.loc 1 257 50
 605 005b 85C0     		testl	%eax, %eax
 606 005d 0F95C0   		setne	%al
 607              		.loc 1 257 12
 608 0060 0FB6C0   		movzbl	%al, %eax
 609 0063 8945D4   		movl	%eax, -44(%rbp)
 258:/home/xingli/share/LiteOS_Lab/network/dtls/mbedtls/mbedtls-2.16.2/library/rsa.c ****     have_Q = ( mbedtls_mpi_cmp_int( &ctx->Q, 0 ) != 0 );
 610              		.loc 1 258 37
GAS LISTING /tmp/cc6OITWc.s 			page 18


 611 0066 488B45B8 		movq	-72(%rbp), %rax
 612 006a 4883C070 		addq	$112, %rax
 613              		.loc 1 258 16
 614 006e BE000000 		movl	$0, %esi
 614      00
 615 0073 4889C7   		movq	%rax, %rdi
 616 0076 E8000000 		call	mbedtls_mpi_cmp_int@PLT
 616      00
 617              		.loc 1 258 50
 618 007b 85C0     		testl	%eax, %eax
 619 007d 0F95C0   		setne	%al
 620              		.loc 1 258 12
 621 0080 0FB6C0   		movzbl	%al, %eax
 622 0083 8945D8   		movl	%eax, -40(%rbp)
 259:/home/xingli/share/LiteOS_Lab/network/dtls/mbedtls/mbedtls-2.16.2/library/rsa.c ****     have_D = ( mbedtls_mpi_cmp_int( &ctx->D, 0 ) != 0 );
 623              		.loc 1 259 37
 624 0086 488B45B8 		movq	-72(%rbp), %rax
 625 008a 4883C040 		addq	$64, %rax
 626              		.loc 1 259 16
 627 008e BE000000 		movl	$0, %esi
 627      00
 628 0093 4889C7   		movq	%rax, %rdi
 629 0096 E8000000 		call	mbedtls_mpi_cmp_int@PLT
 629      00
 630              		.loc 1 259 50
 631 009b 85C0     		testl	%eax, %eax
 632 009d 0F95C0   		setne	%al
 633              		.loc 1 259 12
 634 00a0 0FB6C0   		movzbl	%al, %eax
 635 00a3 8945DC   		movl	%eax, -36(%rbp)
 260:/home/xingli/share/LiteOS_Lab/network/dtls/mbedtls/mbedtls-2.16.2/library/rsa.c ****     have_E = ( mbedtls_mpi_cmp_int( &ctx->E, 0 ) != 0 );
 636              		.loc 1 260 37
 637 00a6 488B45B8 		movq	-72(%rbp), %rax
 638 00aa 4883C028 		addq	$40, %rax
 639              		.loc 1 260 16
 640 00ae BE000000 		movl	$0, %esi
 640      00
 641 00b3 4889C7   		movq	%rax, %rdi
 642 00b6 E8000000 		call	mbedtls_mpi_cmp_int@PLT
 642      00
 643              		.loc 1 260 50
 644 00bb 85C0     		testl	%eax, %eax
 645 00bd 0F95C0   		setne	%al
 646              		.loc 1 260 12
 647 00c0 0FB6C0   		movzbl	%al, %eax
 648 00c3 8945E0   		movl	%eax, -32(%rbp)
 261:/home/xingli/share/LiteOS_Lab/network/dtls/mbedtls/mbedtls-2.16.2/library/rsa.c **** 
 262:/home/xingli/share/LiteOS_Lab/network/dtls/mbedtls/mbedtls-2.16.2/library/rsa.c ****     /*
 263:/home/xingli/share/LiteOS_Lab/network/dtls/mbedtls/mbedtls-2.16.2/library/rsa.c ****      * Check whether provided parameters are enough
 264:/home/xingli/share/LiteOS_Lab/network/dtls/mbedtls/mbedtls-2.16.2/library/rsa.c ****      * to deduce all others. The following incomplete
 265:/home/xingli/share/LiteOS_Lab/network/dtls/mbedtls/mbedtls-2.16.2/library/rsa.c ****      * parameter sets for private keys are supported:
 266:/home/xingli/share/LiteOS_Lab/network/dtls/mbedtls/mbedtls-2.16.2/library/rsa.c ****      *
 267:/home/xingli/share/LiteOS_Lab/network/dtls/mbedtls/mbedtls-2.16.2/library/rsa.c ****      * (1) P, Q missing.
 268:/home/xingli/share/LiteOS_Lab/network/dtls/mbedtls/mbedtls-2.16.2/library/rsa.c ****      * (2) D and potentially N missing.
 269:/home/xingli/share/LiteOS_Lab/network/dtls/mbedtls/mbedtls-2.16.2/library/rsa.c ****      *
 270:/home/xingli/share/LiteOS_Lab/network/dtls/mbedtls/mbedtls-2.16.2/library/rsa.c ****      */
 271:/home/xingli/share/LiteOS_Lab/network/dtls/mbedtls/mbedtls-2.16.2/library/rsa.c **** 
GAS LISTING /tmp/cc6OITWc.s 			page 19


 272:/home/xingli/share/LiteOS_Lab/network/dtls/mbedtls/mbedtls-2.16.2/library/rsa.c ****     n_missing  =              have_P &&  have_Q &&  have_D && have_E;
 649              		.loc 1 272 60
 650 00c6 837DD400 		cmpl	$0, -44(%rbp)
 651 00ca 7419     		je	.L45
 652              		.loc 1 272 38 discriminator 1
 653 00cc 837DD800 		cmpl	$0, -40(%rbp)
 654 00d0 7413     		je	.L45
 655              		.loc 1 272 49 discriminator 3
 656 00d2 837DDC00 		cmpl	$0, -36(%rbp)
 657 00d6 740D     		je	.L45
 658              		.loc 1 272 60 discriminator 5
 659 00d8 837DE000 		cmpl	$0, -32(%rbp)
 660 00dc 7407     		je	.L45
 661              		.loc 1 272 60 is_stmt 0 discriminator 7
 662 00de B8010000 		movl	$1, %eax
 662      00
 663 00e3 EB05     		jmp	.L46
 664              	.L45:
 665              		.loc 1 272 60 discriminator 8
 666 00e5 B8000000 		movl	$0, %eax
 666      00
 667              	.L46:
 668              		.loc 1 272 16 is_stmt 1 discriminator 10
 669 00ea 8945E4   		movl	%eax, -28(%rbp)
 273:/home/xingli/share/LiteOS_Lab/network/dtls/mbedtls/mbedtls-2.16.2/library/rsa.c ****     pq_missing =   have_N && !have_P && !have_Q &&  have_D && have_E;
 670              		.loc 1 273 60 discriminator 10
 671 00ed 837DD000 		cmpl	$0, -48(%rbp)
 672 00f1 741F     		je	.L47
 673              		.loc 1 273 27 discriminator 1
 674 00f3 837DD400 		cmpl	$0, -44(%rbp)
 675 00f7 7519     		jne	.L47
 676              		.loc 1 273 38 discriminator 3
 677 00f9 837DD800 		cmpl	$0, -40(%rbp)
 678 00fd 7513     		jne	.L47
 679              		.loc 1 273 49 discriminator 5
 680 00ff 837DDC00 		cmpl	$0, -36(%rbp)
 681 0103 740D     		je	.L47
 682              		.loc 1 273 60 discriminator 7
 683 0105 837DE000 		cmpl	$0, -32(%rbp)
 684 0109 7407     		je	.L47
 685              		.loc 1 273 60 is_stmt 0 discriminator 9
 686 010b B8010000 		movl	$1, %eax
 686      00
 687 0110 EB05     		jmp	.L48
 688              	.L47:
 689              		.loc 1 273 60 discriminator 10
 690 0112 B8000000 		movl	$0, %eax
 690      00
 691              	.L48:
 692              		.loc 1 273 16 is_stmt 1 discriminator 12
 693 0117 8945E8   		movl	%eax, -24(%rbp)
 274:/home/xingli/share/LiteOS_Lab/network/dtls/mbedtls/mbedtls-2.16.2/library/rsa.c ****     d_missing  =              have_P &&  have_Q && !have_D && have_E;
 694              		.loc 1 274 60 discriminator 12
 695 011a 837DD400 		cmpl	$0, -44(%rbp)
 696 011e 7419     		je	.L49
 697              		.loc 1 274 38 discriminator 1
 698 0120 837DD800 		cmpl	$0, -40(%rbp)
GAS LISTING /tmp/cc6OITWc.s 			page 20


 699 0124 7413     		je	.L49
 700              		.loc 1 274 49 discriminator 3
 701 0126 837DDC00 		cmpl	$0, -36(%rbp)
 702 012a 750D     		jne	.L49
 703              		.loc 1 274 60 discriminator 5
 704 012c 837DE000 		cmpl	$0, -32(%rbp)
 705 0130 7407     		je	.L49
 706              		.loc 1 274 60 is_stmt 0 discriminator 7
 707 0132 B8010000 		movl	$1, %eax
 707      00
 708 0137 EB05     		jmp	.L50
 709              	.L49:
 710              		.loc 1 274 60 discriminator 8
 711 0139 B8000000 		movl	$0, %eax
 711      00
 712              	.L50:
 713              		.loc 1 274 16 is_stmt 1 discriminator 10
 714 013e 8945EC   		movl	%eax, -20(%rbp)
 275:/home/xingli/share/LiteOS_Lab/network/dtls/mbedtls/mbedtls-2.16.2/library/rsa.c ****     is_pub     =   have_N && !have_P && !have_Q && !have_D && have_E;
 715              		.loc 1 275 60 discriminator 10
 716 0141 837DD000 		cmpl	$0, -48(%rbp)
 717 0145 741F     		je	.L51
 718              		.loc 1 275 27 discriminator 1
 719 0147 837DD400 		cmpl	$0, -44(%rbp)
 720 014b 7519     		jne	.L51
 721              		.loc 1 275 38 discriminator 3
 722 014d 837DD800 		cmpl	$0, -40(%rbp)
 723 0151 7513     		jne	.L51
 724              		.loc 1 275 49 discriminator 5
 725 0153 837DDC00 		cmpl	$0, -36(%rbp)
 726 0157 750D     		jne	.L51
 727              		.loc 1 275 60 discriminator 7
 728 0159 837DE000 		cmpl	$0, -32(%rbp)
 729 015d 7407     		je	.L51
 730              		.loc 1 275 60 is_stmt 0 discriminator 9
 731 015f B8010000 		movl	$1, %eax
 731      00
 732 0164 EB05     		jmp	.L52
 733              	.L51:
 734              		.loc 1 275 60 discriminator 10
 735 0166 B8000000 		movl	$0, %eax
 735      00
 736              	.L52:
 737              		.loc 1 275 16 is_stmt 1 discriminator 12
 738 016b 8945F0   		movl	%eax, -16(%rbp)
 276:/home/xingli/share/LiteOS_Lab/network/dtls/mbedtls/mbedtls-2.16.2/library/rsa.c **** 
 277:/home/xingli/share/LiteOS_Lab/network/dtls/mbedtls/mbedtls-2.16.2/library/rsa.c ****     /* These three alternatives are mutually exclusive */
 278:/home/xingli/share/LiteOS_Lab/network/dtls/mbedtls/mbedtls-2.16.2/library/rsa.c ****     is_priv = n_missing || pq_missing || d_missing;
 739              		.loc 1 278 39 discriminator 12
 740 016e 837DE400 		cmpl	$0, -28(%rbp)
 741 0172 750C     		jne	.L53
 742              		.loc 1 278 25 discriminator 2
 743 0174 837DE800 		cmpl	$0, -24(%rbp)
 744 0178 7506     		jne	.L53
 745              		.loc 1 278 39 discriminator 4
 746 017a 837DEC00 		cmpl	$0, -20(%rbp)
 747 017e 7407     		je	.L54
GAS LISTING /tmp/cc6OITWc.s 			page 21


 748              	.L53:
 749              		.loc 1 278 39 is_stmt 0 discriminator 5
 750 0180 B8010000 		movl	$1, %eax
 750      00
 751 0185 EB05     		jmp	.L55
 752              	.L54:
 753              		.loc 1 278 39 discriminator 6
 754 0187 B8000000 		movl	$0, %eax
 754      00
 755              	.L55:
 756              		.loc 1 278 13 is_stmt 1 discriminator 8
 757 018c 8945F4   		movl	%eax, -12(%rbp)
 279:/home/xingli/share/LiteOS_Lab/network/dtls/mbedtls/mbedtls-2.16.2/library/rsa.c **** 
 280:/home/xingli/share/LiteOS_Lab/network/dtls/mbedtls/mbedtls-2.16.2/library/rsa.c ****     if( !is_priv && !is_pub )
 758              		.loc 1 280 7 discriminator 8
 759 018f 837DF400 		cmpl	$0, -12(%rbp)
 760 0193 7510     		jne	.L56
 761              		.loc 1 280 18 discriminator 1
 762 0195 837DF000 		cmpl	$0, -16(%rbp)
 763 0199 750A     		jne	.L56
 281:/home/xingli/share/LiteOS_Lab/network/dtls/mbedtls/mbedtls-2.16.2/library/rsa.c ****         return( MBEDTLS_ERR_RSA_BAD_INPUT_DATA );
 764              		.loc 1 281 15
 765 019b B880BFFF 		movl	$-16512, %eax
 765      FF
 766 01a0 E9690100 		jmp	.L57
 766      00
 767              	.L56:
 282:/home/xingli/share/LiteOS_Lab/network/dtls/mbedtls/mbedtls-2.16.2/library/rsa.c **** 
 283:/home/xingli/share/LiteOS_Lab/network/dtls/mbedtls/mbedtls-2.16.2/library/rsa.c ****     /*
 284:/home/xingli/share/LiteOS_Lab/network/dtls/mbedtls/mbedtls-2.16.2/library/rsa.c ****      * Step 1: Deduce N if P, Q are provided.
 285:/home/xingli/share/LiteOS_Lab/network/dtls/mbedtls/mbedtls-2.16.2/library/rsa.c ****      */
 286:/home/xingli/share/LiteOS_Lab/network/dtls/mbedtls/mbedtls-2.16.2/library/rsa.c **** 
 287:/home/xingli/share/LiteOS_Lab/network/dtls/mbedtls/mbedtls-2.16.2/library/rsa.c ****     if( !have_N && have_P && have_Q )
 768              		.loc 1 287 7
 769 01a5 837DD000 		cmpl	$0, -48(%rbp)
 770 01a9 755D     		jne	.L58
 771              		.loc 1 287 17 discriminator 1
 772 01ab 837DD400 		cmpl	$0, -44(%rbp)
 773 01af 7457     		je	.L58
 774              		.loc 1 287 27 discriminator 2
 775 01b1 837DD800 		cmpl	$0, -40(%rbp)
 776 01b5 7451     		je	.L58
 288:/home/xingli/share/LiteOS_Lab/network/dtls/mbedtls/mbedtls-2.16.2/library/rsa.c ****     {
 289:/home/xingli/share/LiteOS_Lab/network/dtls/mbedtls/mbedtls-2.16.2/library/rsa.c ****         if( ( ret = mbedtls_mpi_mul_mpi( &ctx->N, &ctx->P,
 290:/home/xingli/share/LiteOS_Lab/network/dtls/mbedtls/mbedtls-2.16.2/library/rsa.c ****                                          &ctx->Q ) ) != 0 )
 777              		.loc 1 290 42
 778 01b7 488B45B8 		movq	-72(%rbp), %rax
 779 01bb 488D5070 		leaq	112(%rax), %rdx
 289:/home/xingli/share/LiteOS_Lab/network/dtls/mbedtls/mbedtls-2.16.2/library/rsa.c ****                                          &ctx->Q ) ) != 0 )
 780              		.loc 1 289 51
 781 01bf 488B45B8 		movq	-72(%rbp), %rax
 782 01c3 488D4858 		leaq	88(%rax), %rcx
 289:/home/xingli/share/LiteOS_Lab/network/dtls/mbedtls/mbedtls-2.16.2/library/rsa.c ****                                          &ctx->Q ) ) != 0 )
 783              		.loc 1 289 21
 784 01c7 488B45B8 		movq	-72(%rbp), %rax
 785 01cb 4883C010 		addq	$16, %rax
 786 01cf 4889CE   		movq	%rcx, %rsi
GAS LISTING /tmp/cc6OITWc.s 			page 22


 787 01d2 4889C7   		movq	%rax, %rdi
 788 01d5 E8000000 		call	mbedtls_mpi_mul_mpi@PLT
 788      00
 789 01da 8945CC   		movl	%eax, -52(%rbp)
 289:/home/xingli/share/LiteOS_Lab/network/dtls/mbedtls/mbedtls-2.16.2/library/rsa.c ****                                          &ctx->Q ) ) != 0 )
 790              		.loc 1 289 11
 791 01dd 837DCC00 		cmpl	$0, -52(%rbp)
 792 01e1 740D     		je	.L59
 291:/home/xingli/share/LiteOS_Lab/network/dtls/mbedtls/mbedtls-2.16.2/library/rsa.c ****         {
 292:/home/xingli/share/LiteOS_Lab/network/dtls/mbedtls/mbedtls-2.16.2/library/rsa.c ****             return( MBEDTLS_ERR_RSA_BAD_INPUT_DATA + ret );
 793              		.loc 1 292 52
 794 01e3 8B45CC   		movl	-52(%rbp), %eax
 795 01e6 2D804000 		subl	$16512, %eax
 795      00
 796 01eb E91E0100 		jmp	.L57
 796      00
 797              	.L59:
 293:/home/xingli/share/LiteOS_Lab/network/dtls/mbedtls/mbedtls-2.16.2/library/rsa.c ****         }
 294:/home/xingli/share/LiteOS_Lab/network/dtls/mbedtls/mbedtls-2.16.2/library/rsa.c **** 
 295:/home/xingli/share/LiteOS_Lab/network/dtls/mbedtls/mbedtls-2.16.2/library/rsa.c ****         ctx->len = mbedtls_mpi_size( &ctx->N );
 798              		.loc 1 295 38
 799 01f0 488B45B8 		movq	-72(%rbp), %rax
 800 01f4 4883C010 		addq	$16, %rax
 801              		.loc 1 295 20
 802 01f8 4889C7   		movq	%rax, %rdi
 803 01fb E8000000 		call	mbedtls_mpi_size@PLT
 803      00
 804              		.loc 1 295 18
 805 0200 488B55B8 		movq	-72(%rbp), %rdx
 806 0204 48894208 		movq	%rax, 8(%rdx)
 807              	.L58:
 296:/home/xingli/share/LiteOS_Lab/network/dtls/mbedtls/mbedtls-2.16.2/library/rsa.c ****     }
 297:/home/xingli/share/LiteOS_Lab/network/dtls/mbedtls/mbedtls-2.16.2/library/rsa.c **** 
 298:/home/xingli/share/LiteOS_Lab/network/dtls/mbedtls/mbedtls-2.16.2/library/rsa.c ****     /*
 299:/home/xingli/share/LiteOS_Lab/network/dtls/mbedtls/mbedtls-2.16.2/library/rsa.c ****      * Step 2: Deduce and verify all remaining core parameters.
 300:/home/xingli/share/LiteOS_Lab/network/dtls/mbedtls/mbedtls-2.16.2/library/rsa.c ****      */
 301:/home/xingli/share/LiteOS_Lab/network/dtls/mbedtls/mbedtls-2.16.2/library/rsa.c **** 
 302:/home/xingli/share/LiteOS_Lab/network/dtls/mbedtls/mbedtls-2.16.2/library/rsa.c ****     if( pq_missing )
 808              		.loc 1 302 7
 809 0208 837DE800 		cmpl	$0, -24(%rbp)
 810 020c 7449     		je	.L60
 303:/home/xingli/share/LiteOS_Lab/network/dtls/mbedtls/mbedtls-2.16.2/library/rsa.c ****     {
 304:/home/xingli/share/LiteOS_Lab/network/dtls/mbedtls/mbedtls-2.16.2/library/rsa.c ****         ret = mbedtls_rsa_deduce_primes( &ctx->N, &ctx->E, &ctx->D,
 811              		.loc 1 304 15
 812 020e 488B45B8 		movq	-72(%rbp), %rax
 813 0212 488D7870 		leaq	112(%rax), %rdi
 814 0216 488B45B8 		movq	-72(%rbp), %rax
 815 021a 488D4858 		leaq	88(%rax), %rcx
 816              		.loc 1 304 60
 817 021e 488B45B8 		movq	-72(%rbp), %rax
 818 0222 488D5040 		leaq	64(%rax), %rdx
 819              		.loc 1 304 51
 820 0226 488B45B8 		movq	-72(%rbp), %rax
 821 022a 488D7028 		leaq	40(%rax), %rsi
 822              		.loc 1 304 42
 823 022e 488B45B8 		movq	-72(%rbp), %rax
 824 0232 4883C010 		addq	$16, %rax
GAS LISTING /tmp/cc6OITWc.s 			page 23


 825              		.loc 1 304 15
 826 0236 4989F8   		movq	%rdi, %r8
 827 0239 4889C7   		movq	%rax, %rdi
 828 023c E8000000 		call	mbedtls_rsa_deduce_primes@PLT
 828      00
 829 0241 8945CC   		movl	%eax, -52(%rbp)
 305:/home/xingli/share/LiteOS_Lab/network/dtls/mbedtls/mbedtls-2.16.2/library/rsa.c ****                                          &ctx->P, &ctx->Q );
 306:/home/xingli/share/LiteOS_Lab/network/dtls/mbedtls/mbedtls-2.16.2/library/rsa.c ****         if( ret != 0 )
 830              		.loc 1 306 11
 831 0244 837DCC00 		cmpl	$0, -52(%rbp)
 832 0248 744E     		je	.L61
 307:/home/xingli/share/LiteOS_Lab/network/dtls/mbedtls/mbedtls-2.16.2/library/rsa.c ****             return( MBEDTLS_ERR_RSA_BAD_INPUT_DATA + ret );
 833              		.loc 1 307 52
 834 024a 8B45CC   		movl	-52(%rbp), %eax
 835 024d 2D804000 		subl	$16512, %eax
 835      00
 836 0252 E9B70000 		jmp	.L57
 836      00
 837              	.L60:
 308:/home/xingli/share/LiteOS_Lab/network/dtls/mbedtls/mbedtls-2.16.2/library/rsa.c **** 
 309:/home/xingli/share/LiteOS_Lab/network/dtls/mbedtls/mbedtls-2.16.2/library/rsa.c ****     }
 310:/home/xingli/share/LiteOS_Lab/network/dtls/mbedtls/mbedtls-2.16.2/library/rsa.c ****     else if( d_missing )
 838              		.loc 1 310 12
 839 0257 837DEC00 		cmpl	$0, -20(%rbp)
 840 025b 743B     		je	.L61
 311:/home/xingli/share/LiteOS_Lab/network/dtls/mbedtls/mbedtls-2.16.2/library/rsa.c ****     {
 312:/home/xingli/share/LiteOS_Lab/network/dtls/mbedtls/mbedtls-2.16.2/library/rsa.c ****         if( ( ret = mbedtls_rsa_deduce_private_exponent( &ctx->P,
 841              		.loc 1 312 21
 842 025d 488B45B8 		movq	-72(%rbp), %rax
 843 0261 488D4840 		leaq	64(%rax), %rcx
 313:/home/xingli/share/LiteOS_Lab/network/dtls/mbedtls/mbedtls-2.16.2/library/rsa.c ****                                                          &ctx->Q,
 314:/home/xingli/share/LiteOS_Lab/network/dtls/mbedtls/mbedtls-2.16.2/library/rsa.c ****                                                          &ctx->E,
 844              		.loc 1 314 58
 845 0265 488B45B8 		movq	-72(%rbp), %rax
 846 0269 488D5028 		leaq	40(%rax), %rdx
 313:/home/xingli/share/LiteOS_Lab/network/dtls/mbedtls/mbedtls-2.16.2/library/rsa.c ****                                                          &ctx->Q,
 847              		.loc 1 313 58
 848 026d 488B45B8 		movq	-72(%rbp), %rax
 849 0271 488D7070 		leaq	112(%rax), %rsi
 312:/home/xingli/share/LiteOS_Lab/network/dtls/mbedtls/mbedtls-2.16.2/library/rsa.c ****                                                          &ctx->Q,
 850              		.loc 1 312 58
 851 0275 488B45B8 		movq	-72(%rbp), %rax
 852 0279 4883C058 		addq	$88, %rax
 312:/home/xingli/share/LiteOS_Lab/network/dtls/mbedtls/mbedtls-2.16.2/library/rsa.c ****                                                          &ctx->Q,
 853              		.loc 1 312 21
 854 027d 4889C7   		movq	%rax, %rdi
 855 0280 E8000000 		call	mbedtls_rsa_deduce_private_exponent@PLT
 855      00
 856 0285 8945CC   		movl	%eax, -52(%rbp)
 312:/home/xingli/share/LiteOS_Lab/network/dtls/mbedtls/mbedtls-2.16.2/library/rsa.c ****                                                          &ctx->Q,
 857              		.loc 1 312 11
 858 0288 837DCC00 		cmpl	$0, -52(%rbp)
 859 028c 740A     		je	.L61
 315:/home/xingli/share/LiteOS_Lab/network/dtls/mbedtls/mbedtls-2.16.2/library/rsa.c ****                                                          &ctx->D ) ) != 0 )
 316:/home/xingli/share/LiteOS_Lab/network/dtls/mbedtls/mbedtls-2.16.2/library/rsa.c ****         {
 317:/home/xingli/share/LiteOS_Lab/network/dtls/mbedtls/mbedtls-2.16.2/library/rsa.c ****             return( MBEDTLS_ERR_RSA_BAD_INPUT_DATA + ret );
 860              		.loc 1 317 52
GAS LISTING /tmp/cc6OITWc.s 			page 24


 861 028e 8B45CC   		movl	-52(%rbp), %eax
 862 0291 2D804000 		subl	$16512, %eax
 862      00
 863 0296 EB76     		jmp	.L57
 864              	.L61:
 318:/home/xingli/share/LiteOS_Lab/network/dtls/mbedtls/mbedtls-2.16.2/library/rsa.c ****         }
 319:/home/xingli/share/LiteOS_Lab/network/dtls/mbedtls/mbedtls-2.16.2/library/rsa.c ****     }
 320:/home/xingli/share/LiteOS_Lab/network/dtls/mbedtls/mbedtls-2.16.2/library/rsa.c **** 
 321:/home/xingli/share/LiteOS_Lab/network/dtls/mbedtls/mbedtls-2.16.2/library/rsa.c ****     /*
 322:/home/xingli/share/LiteOS_Lab/network/dtls/mbedtls/mbedtls-2.16.2/library/rsa.c ****      * Step 3: Deduce all additional parameters specific
 323:/home/xingli/share/LiteOS_Lab/network/dtls/mbedtls/mbedtls-2.16.2/library/rsa.c ****      *         to our current RSA implementation.
 324:/home/xingli/share/LiteOS_Lab/network/dtls/mbedtls/mbedtls-2.16.2/library/rsa.c ****      */
 325:/home/xingli/share/LiteOS_Lab/network/dtls/mbedtls/mbedtls-2.16.2/library/rsa.c **** 
 326:/home/xingli/share/LiteOS_Lab/network/dtls/mbedtls/mbedtls-2.16.2/library/rsa.c **** #if !defined(MBEDTLS_RSA_NO_CRT)
 327:/home/xingli/share/LiteOS_Lab/network/dtls/mbedtls/mbedtls-2.16.2/library/rsa.c ****     if( is_priv )
 865              		.loc 1 327 7
 866 0298 837DF400 		cmpl	$0, -12(%rbp)
 867 029c 745A     		je	.L62
 328:/home/xingli/share/LiteOS_Lab/network/dtls/mbedtls/mbedtls-2.16.2/library/rsa.c ****     {
 329:/home/xingli/share/LiteOS_Lab/network/dtls/mbedtls/mbedtls-2.16.2/library/rsa.c ****         ret = mbedtls_rsa_deduce_crt( &ctx->P,  &ctx->Q,  &ctx->D,
 868              		.loc 1 329 15
 869 029e 488B45B8 		movq	-72(%rbp), %rax
 870 02a2 4C8D80B8 		leaq	184(%rax), %r8
 870      000000
 871 02a9 488B45B8 		movq	-72(%rbp), %rax
 872 02ad 488DB8A0 		leaq	160(%rax), %rdi
 872      000000
 873 02b4 488B45B8 		movq	-72(%rbp), %rax
 874 02b8 488D8888 		leaq	136(%rax), %rcx
 874      000000
 875              		.loc 1 329 59
 876 02bf 488B45B8 		movq	-72(%rbp), %rax
 877 02c3 488D5040 		leaq	64(%rax), %rdx
 878              		.loc 1 329 49
 879 02c7 488B45B8 		movq	-72(%rbp), %rax
 880 02cb 488D7070 		leaq	112(%rax), %rsi
 881              		.loc 1 329 39
 882 02cf 488B45B8 		movq	-72(%rbp), %rax
 883 02d3 4883C058 		addq	$88, %rax
 884              		.loc 1 329 15
 885 02d7 4D89C1   		movq	%r8, %r9
 886 02da 4989F8   		movq	%rdi, %r8
 887 02dd 4889C7   		movq	%rax, %rdi
 888 02e0 E8000000 		call	mbedtls_rsa_deduce_crt@PLT
 888      00
 889 02e5 8945CC   		movl	%eax, -52(%rbp)
 330:/home/xingli/share/LiteOS_Lab/network/dtls/mbedtls/mbedtls-2.16.2/library/rsa.c ****                                       &ctx->DP, &ctx->DQ, &ctx->QP );
 331:/home/xingli/share/LiteOS_Lab/network/dtls/mbedtls/mbedtls-2.16.2/library/rsa.c ****         if( ret != 0 )
 890              		.loc 1 331 11
 891 02e8 837DCC00 		cmpl	$0, -52(%rbp)
 892 02ec 740A     		je	.L62
 332:/home/xingli/share/LiteOS_Lab/network/dtls/mbedtls/mbedtls-2.16.2/library/rsa.c ****             return( MBEDTLS_ERR_RSA_BAD_INPUT_DATA + ret );
 893              		.loc 1 332 52
 894 02ee 8B45CC   		movl	-52(%rbp), %eax
 895 02f1 2D804000 		subl	$16512, %eax
 895      00
 896 02f6 EB16     		jmp	.L57
GAS LISTING /tmp/cc6OITWc.s 			page 25


 897              	.L62:
 333:/home/xingli/share/LiteOS_Lab/network/dtls/mbedtls/mbedtls-2.16.2/library/rsa.c ****     }
 334:/home/xingli/share/LiteOS_Lab/network/dtls/mbedtls/mbedtls-2.16.2/library/rsa.c **** #endif /* MBEDTLS_RSA_NO_CRT */
 335:/home/xingli/share/LiteOS_Lab/network/dtls/mbedtls/mbedtls-2.16.2/library/rsa.c **** 
 336:/home/xingli/share/LiteOS_Lab/network/dtls/mbedtls/mbedtls-2.16.2/library/rsa.c ****     /*
 337:/home/xingli/share/LiteOS_Lab/network/dtls/mbedtls/mbedtls-2.16.2/library/rsa.c ****      * Step 3: Basic sanity checks
 338:/home/xingli/share/LiteOS_Lab/network/dtls/mbedtls/mbedtls-2.16.2/library/rsa.c ****      */
 339:/home/xingli/share/LiteOS_Lab/network/dtls/mbedtls/mbedtls-2.16.2/library/rsa.c **** 
 340:/home/xingli/share/LiteOS_Lab/network/dtls/mbedtls/mbedtls-2.16.2/library/rsa.c ****     return( rsa_check_context( ctx, is_priv, 1 ) );
 898              		.loc 1 340 13
 899 02f8 8B4DF4   		movl	-12(%rbp), %ecx
 900 02fb 488B45B8 		movq	-72(%rbp), %rax
 901 02ff BA010000 		movl	$1, %edx
 901      00
 902 0304 89CE     		movl	%ecx, %esi
 903 0306 4889C7   		movq	%rax, %rdi
 904 0309 E8000000 		call	rsa_check_context
 904      00
 905              	.L57:
 341:/home/xingli/share/LiteOS_Lab/network/dtls/mbedtls/mbedtls-2.16.2/library/rsa.c **** }
 906              		.loc 1 341 1
 907 030e 488B4DF8 		movq	-8(%rbp), %rcx
 908 0312 6448330C 		xorq	%fs:40, %rcx
 908      25280000 
 908      00
 909 031b 7405     		je	.L63
 910 031d E8000000 		call	__stack_chk_fail@PLT
 910      00
 911              	.L63:
 912 0322 C9       		leave
 913              	.LCFI14:
 914              		.cfi_def_cfa 7, 8
 915 0323 C3       		ret
 916              		.cfi_endproc
 917              	.LFE20:
 919              		.section	.text.mbedtls_rsa_export_raw,"ax",@progbits
 920              		.globl	mbedtls_rsa_export_raw
 922              	mbedtls_rsa_export_raw:
 923              	.LFB21:
 342:/home/xingli/share/LiteOS_Lab/network/dtls/mbedtls/mbedtls-2.16.2/library/rsa.c **** 
 343:/home/xingli/share/LiteOS_Lab/network/dtls/mbedtls/mbedtls-2.16.2/library/rsa.c **** int mbedtls_rsa_export_raw( const mbedtls_rsa_context *ctx,
 344:/home/xingli/share/LiteOS_Lab/network/dtls/mbedtls/mbedtls-2.16.2/library/rsa.c ****                             unsigned char *N, size_t N_len,
 345:/home/xingli/share/LiteOS_Lab/network/dtls/mbedtls/mbedtls-2.16.2/library/rsa.c ****                             unsigned char *P, size_t P_len,
 346:/home/xingli/share/LiteOS_Lab/network/dtls/mbedtls/mbedtls-2.16.2/library/rsa.c ****                             unsigned char *Q, size_t Q_len,
 347:/home/xingli/share/LiteOS_Lab/network/dtls/mbedtls/mbedtls-2.16.2/library/rsa.c ****                             unsigned char *D, size_t D_len,
 348:/home/xingli/share/LiteOS_Lab/network/dtls/mbedtls/mbedtls-2.16.2/library/rsa.c ****                             unsigned char *E, size_t E_len )
 349:/home/xingli/share/LiteOS_Lab/network/dtls/mbedtls/mbedtls-2.16.2/library/rsa.c **** {
 924              		.loc 1 349 1
 925              		.cfi_startproc
 926 0000 F30F1EFA 		endbr64
 927 0004 55       		pushq	%rbp
 928              	.LCFI15:
 929              		.cfi_def_cfa_offset 16
 930              		.cfi_offset 6, -16
 931 0005 4889E5   		movq	%rsp, %rbp
 932              	.LCFI16:
 933              		.cfi_def_cfa_register 6
GAS LISTING /tmp/cc6OITWc.s 			page 26


 934 0008 4883EC70 		subq	$112, %rsp
 935 000c 48897DE8 		movq	%rdi, -24(%rbp)
 936 0010 488975E0 		movq	%rsi, -32(%rbp)
 937 0014 488955D8 		movq	%rdx, -40(%rbp)
 938 0018 48894DD0 		movq	%rcx, -48(%rbp)
 939 001c 4C8945C8 		movq	%r8, -56(%rbp)
 940 0020 4C894DC0 		movq	%r9, -64(%rbp)
 941 0024 488B4510 		movq	16(%rbp), %rax
 942 0028 488945B8 		movq	%rax, -72(%rbp)
 943 002c 488B4518 		movq	24(%rbp), %rax
 944 0030 488945B0 		movq	%rax, -80(%rbp)
 945 0034 488B4520 		movq	32(%rbp), %rax
 946 0038 488945A8 		movq	%rax, -88(%rbp)
 947 003c 488B4528 		movq	40(%rbp), %rax
 948 0040 488945A0 		movq	%rax, -96(%rbp)
 949 0044 488B4530 		movq	48(%rbp), %rax
 950 0048 48894598 		movq	%rax, -104(%rbp)
 951              		.loc 1 349 1
 952 004c 64488B04 		movq	%fs:40, %rax
 952      25280000 
 952      00
 953 0055 488945F8 		movq	%rax, -8(%rbp)
 954 0059 31C0     		xorl	%eax, %eax
 350:/home/xingli/share/LiteOS_Lab/network/dtls/mbedtls/mbedtls-2.16.2/library/rsa.c ****     int ret = 0;
 955              		.loc 1 350 9
 956 005b C745F000 		movl	$0, -16(%rbp)
 956      000000
 351:/home/xingli/share/LiteOS_Lab/network/dtls/mbedtls/mbedtls-2.16.2/library/rsa.c ****     int is_priv;
 352:/home/xingli/share/LiteOS_Lab/network/dtls/mbedtls/mbedtls-2.16.2/library/rsa.c ****     RSA_VALIDATE_RET( ctx != NULL );
 353:/home/xingli/share/LiteOS_Lab/network/dtls/mbedtls/mbedtls-2.16.2/library/rsa.c **** 
 354:/home/xingli/share/LiteOS_Lab/network/dtls/mbedtls/mbedtls-2.16.2/library/rsa.c ****     /* Check if key is private or public */
 355:/home/xingli/share/LiteOS_Lab/network/dtls/mbedtls/mbedtls-2.16.2/library/rsa.c ****     is_priv =
 356:/home/xingli/share/LiteOS_Lab/network/dtls/mbedtls/mbedtls-2.16.2/library/rsa.c ****         mbedtls_mpi_cmp_int( &ctx->N, 0 ) != 0 &&
 957              		.loc 1 356 9
 958 0062 488B45E8 		movq	-24(%rbp), %rax
 959 0066 4883C010 		addq	$16, %rax
 960 006a BE000000 		movl	$0, %esi
 960      00
 961 006f 4889C7   		movq	%rax, %rdi
 962 0072 E8000000 		call	mbedtls_mpi_cmp_int@PLT
 962      00
 357:/home/xingli/share/LiteOS_Lab/network/dtls/mbedtls/mbedtls-2.16.2/library/rsa.c ****         mbedtls_mpi_cmp_int( &ctx->P, 0 ) != 0 &&
 358:/home/xingli/share/LiteOS_Lab/network/dtls/mbedtls/mbedtls-2.16.2/library/rsa.c ****         mbedtls_mpi_cmp_int( &ctx->Q, 0 ) != 0 &&
 359:/home/xingli/share/LiteOS_Lab/network/dtls/mbedtls/mbedtls-2.16.2/library/rsa.c ****         mbedtls_mpi_cmp_int( &ctx->D, 0 ) != 0 &&
 963              		.loc 1 359 48
 964 0077 85C0     		testl	%eax, %eax
 965 0079 746B     		je	.L65
 357:/home/xingli/share/LiteOS_Lab/network/dtls/mbedtls/mbedtls-2.16.2/library/rsa.c ****         mbedtls_mpi_cmp_int( &ctx->P, 0 ) != 0 &&
 966              		.loc 1 357 9
 967 007b 488B45E8 		movq	-24(%rbp), %rax
 968 007f 4883C058 		addq	$88, %rax
 969 0083 BE000000 		movl	$0, %esi
 969      00
 970 0088 4889C7   		movq	%rax, %rdi
 971 008b E8000000 		call	mbedtls_mpi_cmp_int@PLT
 971      00
 356:/home/xingli/share/LiteOS_Lab/network/dtls/mbedtls/mbedtls-2.16.2/library/rsa.c ****         mbedtls_mpi_cmp_int( &ctx->P, 0 ) != 0 &&
GAS LISTING /tmp/cc6OITWc.s 			page 27


 972              		.loc 1 356 48
 973 0090 85C0     		testl	%eax, %eax
 974 0092 7452     		je	.L65
 358:/home/xingli/share/LiteOS_Lab/network/dtls/mbedtls/mbedtls-2.16.2/library/rsa.c ****         mbedtls_mpi_cmp_int( &ctx->D, 0 ) != 0 &&
 975              		.loc 1 358 9
 976 0094 488B45E8 		movq	-24(%rbp), %rax
 977 0098 4883C070 		addq	$112, %rax
 978 009c BE000000 		movl	$0, %esi
 978      00
 979 00a1 4889C7   		movq	%rax, %rdi
 980 00a4 E8000000 		call	mbedtls_mpi_cmp_int@PLT
 980      00
 357:/home/xingli/share/LiteOS_Lab/network/dtls/mbedtls/mbedtls-2.16.2/library/rsa.c ****         mbedtls_mpi_cmp_int( &ctx->P, 0 ) != 0 &&
 981              		.loc 1 357 48
 982 00a9 85C0     		testl	%eax, %eax
 983 00ab 7439     		je	.L65
 984              		.loc 1 359 9
 985 00ad 488B45E8 		movq	-24(%rbp), %rax
 986 00b1 4883C040 		addq	$64, %rax
 987 00b5 BE000000 		movl	$0, %esi
 987      00
 988 00ba 4889C7   		movq	%rax, %rdi
 989 00bd E8000000 		call	mbedtls_mpi_cmp_int@PLT
 989      00
 358:/home/xingli/share/LiteOS_Lab/network/dtls/mbedtls/mbedtls-2.16.2/library/rsa.c ****         mbedtls_mpi_cmp_int( &ctx->D, 0 ) != 0 &&
 990              		.loc 1 358 48
 991 00c2 85C0     		testl	%eax, %eax
 992 00c4 7420     		je	.L65
 360:/home/xingli/share/LiteOS_Lab/network/dtls/mbedtls/mbedtls-2.16.2/library/rsa.c ****         mbedtls_mpi_cmp_int( &ctx->E, 0 ) != 0;
 993              		.loc 1 360 9 discriminator 3
 994 00c6 488B45E8 		movq	-24(%rbp), %rax
 995 00ca 4883C028 		addq	$40, %rax
 996 00ce BE000000 		movl	$0, %esi
 996      00
 997 00d3 4889C7   		movq	%rax, %rdi
 998 00d6 E8000000 		call	mbedtls_mpi_cmp_int@PLT
 998      00
 359:/home/xingli/share/LiteOS_Lab/network/dtls/mbedtls/mbedtls-2.16.2/library/rsa.c ****         mbedtls_mpi_cmp_int( &ctx->E, 0 ) != 0;
 999              		.loc 1 359 48 discriminator 3
 1000 00db 85C0     		testl	%eax, %eax
 1001 00dd 7407     		je	.L65
 359:/home/xingli/share/LiteOS_Lab/network/dtls/mbedtls/mbedtls-2.16.2/library/rsa.c ****         mbedtls_mpi_cmp_int( &ctx->E, 0 ) != 0;
 1002              		.loc 1 359 48 is_stmt 0 discriminator 2
 1003 00df B8010000 		movl	$1, %eax
 1003      00
 1004 00e4 EB05     		jmp	.L66
 1005              	.L65:
 359:/home/xingli/share/LiteOS_Lab/network/dtls/mbedtls/mbedtls-2.16.2/library/rsa.c ****         mbedtls_mpi_cmp_int( &ctx->E, 0 ) != 0;
 1006              		.loc 1 359 48 discriminator 1
 1007 00e6 B8000000 		movl	$0, %eax
 1007      00
 1008              	.L66:
 355:/home/xingli/share/LiteOS_Lab/network/dtls/mbedtls/mbedtls-2.16.2/library/rsa.c ****         mbedtls_mpi_cmp_int( &ctx->N, 0 ) != 0 &&
 1009              		.loc 1 355 13 is_stmt 1
 1010 00eb 8945F4   		movl	%eax, -12(%rbp)
 361:/home/xingli/share/LiteOS_Lab/network/dtls/mbedtls/mbedtls-2.16.2/library/rsa.c **** 
 362:/home/xingli/share/LiteOS_Lab/network/dtls/mbedtls/mbedtls-2.16.2/library/rsa.c ****     if( !is_priv )
GAS LISTING /tmp/cc6OITWc.s 			page 28


 1011              		.loc 1 362 7
 1012 00ee 837DF400 		cmpl	$0, -12(%rbp)
 1013 00f2 751F     		jne	.L67
 363:/home/xingli/share/LiteOS_Lab/network/dtls/mbedtls/mbedtls-2.16.2/library/rsa.c ****     {
 364:/home/xingli/share/LiteOS_Lab/network/dtls/mbedtls/mbedtls-2.16.2/library/rsa.c ****         /* If we're trying to export private parameters for a public key,
 365:/home/xingli/share/LiteOS_Lab/network/dtls/mbedtls/mbedtls-2.16.2/library/rsa.c ****          * something must be wrong. */
 366:/home/xingli/share/LiteOS_Lab/network/dtls/mbedtls/mbedtls-2.16.2/library/rsa.c ****         if( P != NULL || Q != NULL || D != NULL )
 1014              		.loc 1 366 11
 1015 00f4 48837DD0 		cmpq	$0, -48(%rbp)
 1015      00
 1016 00f9 750E     		jne	.L68
 1017              		.loc 1 366 23 discriminator 1
 1018 00fb 48837DC0 		cmpq	$0, -64(%rbp)
 1018      00
 1019 0100 7507     		jne	.L68
 1020              		.loc 1 366 36 discriminator 2
 1021 0102 48837DB0 		cmpq	$0, -80(%rbp)
 1021      00
 1022 0107 740A     		je	.L67
 1023              	.L68:
 367:/home/xingli/share/LiteOS_Lab/network/dtls/mbedtls/mbedtls-2.16.2/library/rsa.c ****             return( MBEDTLS_ERR_RSA_BAD_INPUT_DATA );
 1024              		.loc 1 367 19
 1025 0109 B880BFFF 		movl	$-16512, %eax
 1025      FF
 1026 010e E9EF0000 		jmp	.L69
 1026      00
 1027              	.L67:
 368:/home/xingli/share/LiteOS_Lab/network/dtls/mbedtls/mbedtls-2.16.2/library/rsa.c **** 
 369:/home/xingli/share/LiteOS_Lab/network/dtls/mbedtls/mbedtls-2.16.2/library/rsa.c ****     }
 370:/home/xingli/share/LiteOS_Lab/network/dtls/mbedtls/mbedtls-2.16.2/library/rsa.c **** 
 371:/home/xingli/share/LiteOS_Lab/network/dtls/mbedtls/mbedtls-2.16.2/library/rsa.c ****     if( N != NULL )
 1028              		.loc 1 371 7
 1029 0113 48837DE0 		cmpq	$0, -32(%rbp)
 1029      00
 1030 0118 7428     		je	.L70
 372:/home/xingli/share/LiteOS_Lab/network/dtls/mbedtls/mbedtls-2.16.2/library/rsa.c ****         MBEDTLS_MPI_CHK( mbedtls_mpi_write_binary( &ctx->N, N, N_len ) );
 1031              		.loc 1 372 9
 1032 011a 488B45E8 		movq	-24(%rbp), %rax
 1033 011e 488D4810 		leaq	16(%rax), %rcx
 1034 0122 488B55D8 		movq	-40(%rbp), %rdx
 1035 0126 488B45E0 		movq	-32(%rbp), %rax
 1036 012a 4889C6   		movq	%rax, %rsi
 1037 012d 4889CF   		movq	%rcx, %rdi
 1038 0130 E8000000 		call	mbedtls_mpi_write_binary@PLT
 1038      00
 1039 0135 8945F0   		movl	%eax, -16(%rbp)
 1040 0138 837DF000 		cmpl	$0, -16(%rbp)
 1041 013c 0F85B000 		jne	.L76
 1041      0000
 1042              	.L70:
 373:/home/xingli/share/LiteOS_Lab/network/dtls/mbedtls/mbedtls-2.16.2/library/rsa.c **** 
 374:/home/xingli/share/LiteOS_Lab/network/dtls/mbedtls/mbedtls-2.16.2/library/rsa.c ****     if( P != NULL )
 1043              		.loc 1 374 7
 1044 0142 48837DD0 		cmpq	$0, -48(%rbp)
 1044      00
 1045 0147 7428     		je	.L72
 375:/home/xingli/share/LiteOS_Lab/network/dtls/mbedtls/mbedtls-2.16.2/library/rsa.c ****         MBEDTLS_MPI_CHK( mbedtls_mpi_write_binary( &ctx->P, P, P_len ) );
GAS LISTING /tmp/cc6OITWc.s 			page 29


 1046              		.loc 1 375 9
 1047 0149 488B45E8 		movq	-24(%rbp), %rax
 1048 014d 488D4858 		leaq	88(%rax), %rcx
 1049 0151 488B55C8 		movq	-56(%rbp), %rdx
 1050 0155 488B45D0 		movq	-48(%rbp), %rax
 1051 0159 4889C6   		movq	%rax, %rsi
 1052 015c 4889CF   		movq	%rcx, %rdi
 1053 015f E8000000 		call	mbedtls_mpi_write_binary@PLT
 1053      00
 1054 0164 8945F0   		movl	%eax, -16(%rbp)
 1055 0167 837DF000 		cmpl	$0, -16(%rbp)
 1056 016b 0F858400 		jne	.L77
 1056      0000
 1057              	.L72:
 376:/home/xingli/share/LiteOS_Lab/network/dtls/mbedtls/mbedtls-2.16.2/library/rsa.c **** 
 377:/home/xingli/share/LiteOS_Lab/network/dtls/mbedtls/mbedtls-2.16.2/library/rsa.c ****     if( Q != NULL )
 1058              		.loc 1 377 7
 1059 0171 48837DC0 		cmpq	$0, -64(%rbp)
 1059      00
 1060 0176 7424     		je	.L73
 378:/home/xingli/share/LiteOS_Lab/network/dtls/mbedtls/mbedtls-2.16.2/library/rsa.c ****         MBEDTLS_MPI_CHK( mbedtls_mpi_write_binary( &ctx->Q, Q, Q_len ) );
 1061              		.loc 1 378 9
 1062 0178 488B45E8 		movq	-24(%rbp), %rax
 1063 017c 488D4870 		leaq	112(%rax), %rcx
 1064 0180 488B55B8 		movq	-72(%rbp), %rdx
 1065 0184 488B45C0 		movq	-64(%rbp), %rax
 1066 0188 4889C6   		movq	%rax, %rsi
 1067 018b 4889CF   		movq	%rcx, %rdi
 1068 018e E8000000 		call	mbedtls_mpi_write_binary@PLT
 1068      00
 1069 0193 8945F0   		movl	%eax, -16(%rbp)
 1070 0196 837DF000 		cmpl	$0, -16(%rbp)
 1071 019a 755C     		jne	.L78
 1072              	.L73:
 379:/home/xingli/share/LiteOS_Lab/network/dtls/mbedtls/mbedtls-2.16.2/library/rsa.c **** 
 380:/home/xingli/share/LiteOS_Lab/network/dtls/mbedtls/mbedtls-2.16.2/library/rsa.c ****     if( D != NULL )
 1073              		.loc 1 380 7
 1074 019c 48837DB0 		cmpq	$0, -80(%rbp)
 1074      00
 1075 01a1 7424     		je	.L74
 381:/home/xingli/share/LiteOS_Lab/network/dtls/mbedtls/mbedtls-2.16.2/library/rsa.c ****         MBEDTLS_MPI_CHK( mbedtls_mpi_write_binary( &ctx->D, D, D_len ) );
 1076              		.loc 1 381 9
 1077 01a3 488B45E8 		movq	-24(%rbp), %rax
 1078 01a7 488D4840 		leaq	64(%rax), %rcx
 1079 01ab 488B55A8 		movq	-88(%rbp), %rdx
 1080 01af 488B45B0 		movq	-80(%rbp), %rax
 1081 01b3 4889C6   		movq	%rax, %rsi
 1082 01b6 4889CF   		movq	%rcx, %rdi
 1083 01b9 E8000000 		call	mbedtls_mpi_write_binary@PLT
 1083      00
 1084 01be 8945F0   		movl	%eax, -16(%rbp)
 1085 01c1 837DF000 		cmpl	$0, -16(%rbp)
 1086 01c5 7534     		jne	.L79
 1087              	.L74:
 382:/home/xingli/share/LiteOS_Lab/network/dtls/mbedtls/mbedtls-2.16.2/library/rsa.c **** 
 383:/home/xingli/share/LiteOS_Lab/network/dtls/mbedtls/mbedtls-2.16.2/library/rsa.c ****     if( E != NULL )
 1088              		.loc 1 383 7
GAS LISTING /tmp/cc6OITWc.s 			page 30


 1089 01c7 48837DA0 		cmpq	$0, -96(%rbp)
 1089      00
 1090 01cc 7430     		je	.L80
 384:/home/xingli/share/LiteOS_Lab/network/dtls/mbedtls/mbedtls-2.16.2/library/rsa.c ****         MBEDTLS_MPI_CHK( mbedtls_mpi_write_binary( &ctx->E, E, E_len ) );
 1091              		.loc 1 384 9
 1092 01ce 488B45E8 		movq	-24(%rbp), %rax
 1093 01d2 488D4828 		leaq	40(%rax), %rcx
 1094 01d6 488B5598 		movq	-104(%rbp), %rdx
 1095 01da 488B45A0 		movq	-96(%rbp), %rax
 1096 01de 4889C6   		movq	%rax, %rsi
 1097 01e1 4889CF   		movq	%rcx, %rdi
 1098 01e4 E8000000 		call	mbedtls_mpi_write_binary@PLT
 1098      00
 1099 01e9 8945F0   		movl	%eax, -16(%rbp)
 1100 01ec 837DF000 		cmpl	$0, -16(%rbp)
 385:/home/xingli/share/LiteOS_Lab/network/dtls/mbedtls/mbedtls-2.16.2/library/rsa.c **** 
 386:/home/xingli/share/LiteOS_Lab/network/dtls/mbedtls/mbedtls-2.16.2/library/rsa.c **** cleanup:
 1101              		.loc 1 386 1
 1102 01f0 EB0C     		jmp	.L80
 1103              	.L76:
 372:/home/xingli/share/LiteOS_Lab/network/dtls/mbedtls/mbedtls-2.16.2/library/rsa.c **** 
 1104              		.loc 1 372 9
 1105 01f2 90       		nop
 1106 01f3 EB0A     		jmp	.L71
 1107              	.L77:
 375:/home/xingli/share/LiteOS_Lab/network/dtls/mbedtls/mbedtls-2.16.2/library/rsa.c **** 
 1108              		.loc 1 375 9
 1109 01f5 90       		nop
 1110 01f6 EB07     		jmp	.L71
 1111              	.L78:
 378:/home/xingli/share/LiteOS_Lab/network/dtls/mbedtls/mbedtls-2.16.2/library/rsa.c **** 
 1112              		.loc 1 378 9
 1113 01f8 90       		nop
 1114 01f9 EB04     		jmp	.L71
 1115              	.L79:
 381:/home/xingli/share/LiteOS_Lab/network/dtls/mbedtls/mbedtls-2.16.2/library/rsa.c **** 
 1116              		.loc 1 381 9
 1117 01fb 90       		nop
 1118 01fc EB01     		jmp	.L71
 1119              	.L80:
 1120              		.loc 1 386 1
 1121 01fe 90       		nop
 1122              	.L71:
 387:/home/xingli/share/LiteOS_Lab/network/dtls/mbedtls/mbedtls-2.16.2/library/rsa.c **** 
 388:/home/xingli/share/LiteOS_Lab/network/dtls/mbedtls/mbedtls-2.16.2/library/rsa.c ****     return( ret );
 1123              		.loc 1 388 11
 1124 01ff 8B45F0   		movl	-16(%rbp), %eax
 1125              	.L69:
 389:/home/xingli/share/LiteOS_Lab/network/dtls/mbedtls/mbedtls-2.16.2/library/rsa.c **** }
 1126              		.loc 1 389 1
 1127 0202 488B4DF8 		movq	-8(%rbp), %rcx
 1128 0206 6448330C 		xorq	%fs:40, %rcx
 1128      25280000 
 1128      00
 1129 020f 7405     		je	.L75
 1130 0211 E8000000 		call	__stack_chk_fail@PLT
 1130      00
GAS LISTING /tmp/cc6OITWc.s 			page 31


 1131              	.L75:
 1132 0216 C9       		leave
 1133              	.LCFI17:
 1134              		.cfi_def_cfa 7, 8
 1135 0217 C3       		ret
 1136              		.cfi_endproc
 1137              	.LFE21:
 1139              		.section	.text.mbedtls_rsa_export,"ax",@progbits
 1140              		.globl	mbedtls_rsa_export
 1142              	mbedtls_rsa_export:
 1143              	.LFB22:
 390:/home/xingli/share/LiteOS_Lab/network/dtls/mbedtls/mbedtls-2.16.2/library/rsa.c **** 
 391:/home/xingli/share/LiteOS_Lab/network/dtls/mbedtls/mbedtls-2.16.2/library/rsa.c **** int mbedtls_rsa_export( const mbedtls_rsa_context *ctx,
 392:/home/xingli/share/LiteOS_Lab/network/dtls/mbedtls/mbedtls-2.16.2/library/rsa.c ****                         mbedtls_mpi *N, mbedtls_mpi *P, mbedtls_mpi *Q,
 393:/home/xingli/share/LiteOS_Lab/network/dtls/mbedtls/mbedtls-2.16.2/library/rsa.c ****                         mbedtls_mpi *D, mbedtls_mpi *E )
 394:/home/xingli/share/LiteOS_Lab/network/dtls/mbedtls/mbedtls-2.16.2/library/rsa.c **** {
 1144              		.loc 1 394 1
 1145              		.cfi_startproc
 1146 0000 F30F1EFA 		endbr64
 1147 0004 55       		pushq	%rbp
 1148              	.LCFI18:
 1149              		.cfi_def_cfa_offset 16
 1150              		.cfi_offset 6, -16
 1151 0005 4889E5   		movq	%rsp, %rbp
 1152              	.LCFI19:
 1153              		.cfi_def_cfa_register 6
 1154 0008 4883EC40 		subq	$64, %rsp
 1155 000c 48897DE8 		movq	%rdi, -24(%rbp)
 1156 0010 488975E0 		movq	%rsi, -32(%rbp)
 1157 0014 488955D8 		movq	%rdx, -40(%rbp)
 1158 0018 48894DD0 		movq	%rcx, -48(%rbp)
 1159 001c 4C8945C8 		movq	%r8, -56(%rbp)
 1160 0020 4C894DC0 		movq	%r9, -64(%rbp)
 1161              		.loc 1 394 1
 1162 0024 64488B04 		movq	%fs:40, %rax
 1162      25280000 
 1162      00
 1163 002d 488945F8 		movq	%rax, -8(%rbp)
 1164 0031 31C0     		xorl	%eax, %eax
 395:/home/xingli/share/LiteOS_Lab/network/dtls/mbedtls/mbedtls-2.16.2/library/rsa.c ****     int ret;
 396:/home/xingli/share/LiteOS_Lab/network/dtls/mbedtls/mbedtls-2.16.2/library/rsa.c ****     int is_priv;
 397:/home/xingli/share/LiteOS_Lab/network/dtls/mbedtls/mbedtls-2.16.2/library/rsa.c ****     RSA_VALIDATE_RET( ctx != NULL );
 398:/home/xingli/share/LiteOS_Lab/network/dtls/mbedtls/mbedtls-2.16.2/library/rsa.c **** 
 399:/home/xingli/share/LiteOS_Lab/network/dtls/mbedtls/mbedtls-2.16.2/library/rsa.c ****     /* Check if key is private or public */
 400:/home/xingli/share/LiteOS_Lab/network/dtls/mbedtls/mbedtls-2.16.2/library/rsa.c ****     is_priv =
 401:/home/xingli/share/LiteOS_Lab/network/dtls/mbedtls/mbedtls-2.16.2/library/rsa.c ****         mbedtls_mpi_cmp_int( &ctx->N, 0 ) != 0 &&
 1165              		.loc 1 401 9
 1166 0033 488B45E8 		movq	-24(%rbp), %rax
 1167 0037 4883C010 		addq	$16, %rax
 1168 003b BE000000 		movl	$0, %esi
 1168      00
 1169 0040 4889C7   		movq	%rax, %rdi
 1170 0043 E8000000 		call	mbedtls_mpi_cmp_int@PLT
 1170      00
 402:/home/xingli/share/LiteOS_Lab/network/dtls/mbedtls/mbedtls-2.16.2/library/rsa.c ****         mbedtls_mpi_cmp_int( &ctx->P, 0 ) != 0 &&
 403:/home/xingli/share/LiteOS_Lab/network/dtls/mbedtls/mbedtls-2.16.2/library/rsa.c ****         mbedtls_mpi_cmp_int( &ctx->Q, 0 ) != 0 &&
 404:/home/xingli/share/LiteOS_Lab/network/dtls/mbedtls/mbedtls-2.16.2/library/rsa.c ****         mbedtls_mpi_cmp_int( &ctx->D, 0 ) != 0 &&
GAS LISTING /tmp/cc6OITWc.s 			page 32


 1171              		.loc 1 404 48
 1172 0048 85C0     		testl	%eax, %eax
 1173 004a 746B     		je	.L82
 402:/home/xingli/share/LiteOS_Lab/network/dtls/mbedtls/mbedtls-2.16.2/library/rsa.c ****         mbedtls_mpi_cmp_int( &ctx->P, 0 ) != 0 &&
 1174              		.loc 1 402 9
 1175 004c 488B45E8 		movq	-24(%rbp), %rax
 1176 0050 4883C058 		addq	$88, %rax
 1177 0054 BE000000 		movl	$0, %esi
 1177      00
 1178 0059 4889C7   		movq	%rax, %rdi
 1179 005c E8000000 		call	mbedtls_mpi_cmp_int@PLT
 1179      00
 401:/home/xingli/share/LiteOS_Lab/network/dtls/mbedtls/mbedtls-2.16.2/library/rsa.c ****         mbedtls_mpi_cmp_int( &ctx->P, 0 ) != 0 &&
 1180              		.loc 1 401 48
 1181 0061 85C0     		testl	%eax, %eax
 1182 0063 7452     		je	.L82
 403:/home/xingli/share/LiteOS_Lab/network/dtls/mbedtls/mbedtls-2.16.2/library/rsa.c ****         mbedtls_mpi_cmp_int( &ctx->D, 0 ) != 0 &&
 1183              		.loc 1 403 9
 1184 0065 488B45E8 		movq	-24(%rbp), %rax
 1185 0069 4883C070 		addq	$112, %rax
 1186 006d BE000000 		movl	$0, %esi
 1186      00
 1187 0072 4889C7   		movq	%rax, %rdi
 1188 0075 E8000000 		call	mbedtls_mpi_cmp_int@PLT
 1188      00
 402:/home/xingli/share/LiteOS_Lab/network/dtls/mbedtls/mbedtls-2.16.2/library/rsa.c ****         mbedtls_mpi_cmp_int( &ctx->P, 0 ) != 0 &&
 1189              		.loc 1 402 48
 1190 007a 85C0     		testl	%eax, %eax
 1191 007c 7439     		je	.L82
 1192              		.loc 1 404 9
 1193 007e 488B45E8 		movq	-24(%rbp), %rax
 1194 0082 4883C040 		addq	$64, %rax
 1195 0086 BE000000 		movl	$0, %esi
 1195      00
 1196 008b 4889C7   		movq	%rax, %rdi
 1197 008e E8000000 		call	mbedtls_mpi_cmp_int@PLT
 1197      00
 403:/home/xingli/share/LiteOS_Lab/network/dtls/mbedtls/mbedtls-2.16.2/library/rsa.c ****         mbedtls_mpi_cmp_int( &ctx->D, 0 ) != 0 &&
 1198              		.loc 1 403 48
 1199 0093 85C0     		testl	%eax, %eax
 1200 0095 7420     		je	.L82
 405:/home/xingli/share/LiteOS_Lab/network/dtls/mbedtls/mbedtls-2.16.2/library/rsa.c ****         mbedtls_mpi_cmp_int( &ctx->E, 0 ) != 0;
 1201              		.loc 1 405 9 discriminator 3
 1202 0097 488B45E8 		movq	-24(%rbp), %rax
 1203 009b 4883C028 		addq	$40, %rax
 1204 009f BE000000 		movl	$0, %esi
 1204      00
 1205 00a4 4889C7   		movq	%rax, %rdi
 1206 00a7 E8000000 		call	mbedtls_mpi_cmp_int@PLT
 1206      00
 404:/home/xingli/share/LiteOS_Lab/network/dtls/mbedtls/mbedtls-2.16.2/library/rsa.c ****         mbedtls_mpi_cmp_int( &ctx->E, 0 ) != 0;
 1207              		.loc 1 404 48 discriminator 3
 1208 00ac 85C0     		testl	%eax, %eax
 1209 00ae 7407     		je	.L82
 404:/home/xingli/share/LiteOS_Lab/network/dtls/mbedtls/mbedtls-2.16.2/library/rsa.c ****         mbedtls_mpi_cmp_int( &ctx->E, 0 ) != 0;
 1210              		.loc 1 404 48 is_stmt 0 discriminator 2
 1211 00b0 B8010000 		movl	$1, %eax
GAS LISTING /tmp/cc6OITWc.s 			page 33


 1211      00
 1212 00b5 EB05     		jmp	.L83
 1213              	.L82:
 404:/home/xingli/share/LiteOS_Lab/network/dtls/mbedtls/mbedtls-2.16.2/library/rsa.c ****         mbedtls_mpi_cmp_int( &ctx->E, 0 ) != 0;
 1214              		.loc 1 404 48 discriminator 1
 1215 00b7 B8000000 		movl	$0, %eax
 1215      00
 1216              	.L83:
 400:/home/xingli/share/LiteOS_Lab/network/dtls/mbedtls/mbedtls-2.16.2/library/rsa.c ****         mbedtls_mpi_cmp_int( &ctx->N, 0 ) != 0 &&
 1217              		.loc 1 400 13 is_stmt 1
 1218 00bc 8945F4   		movl	%eax, -12(%rbp)
 406:/home/xingli/share/LiteOS_Lab/network/dtls/mbedtls/mbedtls-2.16.2/library/rsa.c **** 
 407:/home/xingli/share/LiteOS_Lab/network/dtls/mbedtls/mbedtls-2.16.2/library/rsa.c ****     if( !is_priv )
 1219              		.loc 1 407 7
 1220 00bf 837DF400 		cmpl	$0, -12(%rbp)
 1221 00c3 751F     		jne	.L84
 408:/home/xingli/share/LiteOS_Lab/network/dtls/mbedtls/mbedtls-2.16.2/library/rsa.c ****     {
 409:/home/xingli/share/LiteOS_Lab/network/dtls/mbedtls/mbedtls-2.16.2/library/rsa.c ****         /* If we're trying to export private parameters for a public key,
 410:/home/xingli/share/LiteOS_Lab/network/dtls/mbedtls/mbedtls-2.16.2/library/rsa.c ****          * something must be wrong. */
 411:/home/xingli/share/LiteOS_Lab/network/dtls/mbedtls/mbedtls-2.16.2/library/rsa.c ****         if( P != NULL || Q != NULL || D != NULL )
 1222              		.loc 1 411 11
 1223 00c5 48837DD8 		cmpq	$0, -40(%rbp)
 1223      00
 1224 00ca 750E     		jne	.L85
 1225              		.loc 1 411 23 discriminator 1
 1226 00cc 48837DD0 		cmpq	$0, -48(%rbp)
 1226      00
 1227 00d1 7507     		jne	.L85
 1228              		.loc 1 411 36 discriminator 2
 1229 00d3 48837DC8 		cmpq	$0, -56(%rbp)
 1229      00
 1230 00d8 740A     		je	.L84
 1231              	.L85:
 412:/home/xingli/share/LiteOS_Lab/network/dtls/mbedtls/mbedtls-2.16.2/library/rsa.c ****             return( MBEDTLS_ERR_RSA_BAD_INPUT_DATA );
 1232              		.loc 1 412 19
 1233 00da B880BFFF 		movl	$-16512, %eax
 1233      FF
 1234 00df E9D10000 		jmp	.L86
 1234      00
 1235              	.L84:
 413:/home/xingli/share/LiteOS_Lab/network/dtls/mbedtls/mbedtls-2.16.2/library/rsa.c **** 
 414:/home/xingli/share/LiteOS_Lab/network/dtls/mbedtls/mbedtls-2.16.2/library/rsa.c ****     }
 415:/home/xingli/share/LiteOS_Lab/network/dtls/mbedtls/mbedtls-2.16.2/library/rsa.c **** 
 416:/home/xingli/share/LiteOS_Lab/network/dtls/mbedtls/mbedtls-2.16.2/library/rsa.c ****     /* Export all requested core parameters. */
 417:/home/xingli/share/LiteOS_Lab/network/dtls/mbedtls/mbedtls-2.16.2/library/rsa.c **** 
 418:/home/xingli/share/LiteOS_Lab/network/dtls/mbedtls/mbedtls-2.16.2/library/rsa.c ****     if( ( N != NULL && ( ret = mbedtls_mpi_copy( N, &ctx->N ) ) != 0 ) ||
 1236              		.loc 1 418 7
 1237 00e4 48837DE0 		cmpq	$0, -32(%rbp)
 1237      00
 1238 00e9 7424     		je	.L87
 1239              		.loc 1 418 32 discriminator 1
 1240 00eb 488B45E8 		movq	-24(%rbp), %rax
 1241 00ef 488D5010 		leaq	16(%rax), %rdx
 1242 00f3 488B45E0 		movq	-32(%rbp), %rax
 1243 00f7 4889D6   		movq	%rdx, %rsi
 1244 00fa 4889C7   		movq	%rax, %rdi
 1245 00fd E8000000 		call	mbedtls_mpi_copy@PLT
GAS LISTING /tmp/cc6OITWc.s 			page 34


 1245      00
 1246 0102 8945F0   		movl	%eax, -16(%rbp)
 1247              		.loc 1 418 21 discriminator 1
 1248 0105 837DF000 		cmpl	$0, -16(%rbp)
 1249 0109 0F859C00 		jne	.L88
 1249      0000
 1250              	.L87:
 1251              		.loc 1 418 72 discriminator 3
 1252 010f 48837DD8 		cmpq	$0, -40(%rbp)
 1252      00
 1253 0114 7420     		je	.L89
 419:/home/xingli/share/LiteOS_Lab/network/dtls/mbedtls/mbedtls-2.16.2/library/rsa.c ****         ( P != NULL && ( ret = mbedtls_mpi_copy( P, &ctx->P ) ) != 0 ) ||
 1254              		.loc 1 419 32
 1255 0116 488B45E8 		movq	-24(%rbp), %rax
 1256 011a 488D5058 		leaq	88(%rax), %rdx
 1257 011e 488B45D8 		movq	-40(%rbp), %rax
 1258 0122 4889D6   		movq	%rdx, %rsi
 1259 0125 4889C7   		movq	%rax, %rdi
 1260 0128 E8000000 		call	mbedtls_mpi_copy@PLT
 1260      00
 1261 012d 8945F0   		movl	%eax, -16(%rbp)
 1262              		.loc 1 419 21
 1263 0130 837DF000 		cmpl	$0, -16(%rbp)
 1264 0134 7575     		jne	.L88
 1265              	.L89:
 1266              		.loc 1 419 72 discriminator 1
 1267 0136 48837DD0 		cmpq	$0, -48(%rbp)
 1267      00
 1268 013b 7420     		je	.L90
 420:/home/xingli/share/LiteOS_Lab/network/dtls/mbedtls/mbedtls-2.16.2/library/rsa.c ****         ( Q != NULL && ( ret = mbedtls_mpi_copy( Q, &ctx->Q ) ) != 0 ) ||
 1269              		.loc 1 420 32
 1270 013d 488B45E8 		movq	-24(%rbp), %rax
 1271 0141 488D5070 		leaq	112(%rax), %rdx
 1272 0145 488B45D0 		movq	-48(%rbp), %rax
 1273 0149 4889D6   		movq	%rdx, %rsi
 1274 014c 4889C7   		movq	%rax, %rdi
 1275 014f E8000000 		call	mbedtls_mpi_copy@PLT
 1275      00
 1276 0154 8945F0   		movl	%eax, -16(%rbp)
 1277              		.loc 1 420 21
 1278 0157 837DF000 		cmpl	$0, -16(%rbp)
 1279 015b 754E     		jne	.L88
 1280              	.L90:
 1281              		.loc 1 420 72 discriminator 1
 1282 015d 48837DC8 		cmpq	$0, -56(%rbp)
 1282      00
 1283 0162 7420     		je	.L91
 421:/home/xingli/share/LiteOS_Lab/network/dtls/mbedtls/mbedtls-2.16.2/library/rsa.c ****         ( D != NULL && ( ret = mbedtls_mpi_copy( D, &ctx->D ) ) != 0 ) ||
 1284              		.loc 1 421 32
 1285 0164 488B45E8 		movq	-24(%rbp), %rax
 1286 0168 488D5040 		leaq	64(%rax), %rdx
 1287 016c 488B45C8 		movq	-56(%rbp), %rax
 1288 0170 4889D6   		movq	%rdx, %rsi
 1289 0173 4889C7   		movq	%rax, %rdi
 1290 0176 E8000000 		call	mbedtls_mpi_copy@PLT
 1290      00
 1291 017b 8945F0   		movl	%eax, -16(%rbp)
GAS LISTING /tmp/cc6OITWc.s 			page 35


 1292              		.loc 1 421 21
 1293 017e 837DF000 		cmpl	$0, -16(%rbp)
 1294 0182 7527     		jne	.L88
 1295              	.L91:
 1296              		.loc 1 421 72 discriminator 1
 1297 0184 48837DC0 		cmpq	$0, -64(%rbp)
 1297      00
 1298 0189 7425     		je	.L92
 422:/home/xingli/share/LiteOS_Lab/network/dtls/mbedtls/mbedtls-2.16.2/library/rsa.c ****         ( E != NULL && ( ret = mbedtls_mpi_copy( E, &ctx->E ) ) != 0 ) )
 1299              		.loc 1 422 32
 1300 018b 488B45E8 		movq	-24(%rbp), %rax
 1301 018f 488D5028 		leaq	40(%rax), %rdx
 1302 0193 488B45C0 		movq	-64(%rbp), %rax
 1303 0197 4889D6   		movq	%rdx, %rsi
 1304 019a 4889C7   		movq	%rax, %rdi
 1305 019d E8000000 		call	mbedtls_mpi_copy@PLT
 1305      00
 1306 01a2 8945F0   		movl	%eax, -16(%rbp)
 1307              		.loc 1 422 21
 1308 01a5 837DF000 		cmpl	$0, -16(%rbp)
 1309 01a9 7405     		je	.L92
 1310              	.L88:
 423:/home/xingli/share/LiteOS_Lab/network/dtls/mbedtls/mbedtls-2.16.2/library/rsa.c ****     {
 424:/home/xingli/share/LiteOS_Lab/network/dtls/mbedtls/mbedtls-2.16.2/library/rsa.c ****         return( ret );
 1311              		.loc 1 424 15
 1312 01ab 8B45F0   		movl	-16(%rbp), %eax
 1313 01ae EB05     		jmp	.L86
 1314              	.L92:
 425:/home/xingli/share/LiteOS_Lab/network/dtls/mbedtls/mbedtls-2.16.2/library/rsa.c ****     }
 426:/home/xingli/share/LiteOS_Lab/network/dtls/mbedtls/mbedtls-2.16.2/library/rsa.c **** 
 427:/home/xingli/share/LiteOS_Lab/network/dtls/mbedtls/mbedtls-2.16.2/library/rsa.c ****     return( 0 );
 1315              		.loc 1 427 11
 1316 01b0 B8000000 		movl	$0, %eax
 1316      00
 1317              	.L86:
 428:/home/xingli/share/LiteOS_Lab/network/dtls/mbedtls/mbedtls-2.16.2/library/rsa.c **** }
 1318              		.loc 1 428 1
 1319 01b5 488B4DF8 		movq	-8(%rbp), %rcx
 1320 01b9 6448330C 		xorq	%fs:40, %rcx
 1320      25280000 
 1320      00
 1321 01c2 7405     		je	.L93
 1322 01c4 E8000000 		call	__stack_chk_fail@PLT
 1322      00
 1323              	.L93:
 1324 01c9 C9       		leave
 1325              	.LCFI20:
 1326              		.cfi_def_cfa 7, 8
 1327 01ca C3       		ret
 1328              		.cfi_endproc
 1329              	.LFE22:
 1331              		.section	.text.mbedtls_rsa_export_crt,"ax",@progbits
 1332              		.globl	mbedtls_rsa_export_crt
 1334              	mbedtls_rsa_export_crt:
 1335              	.LFB23:
 429:/home/xingli/share/LiteOS_Lab/network/dtls/mbedtls/mbedtls-2.16.2/library/rsa.c **** 
 430:/home/xingli/share/LiteOS_Lab/network/dtls/mbedtls/mbedtls-2.16.2/library/rsa.c **** /*
GAS LISTING /tmp/cc6OITWc.s 			page 36


 431:/home/xingli/share/LiteOS_Lab/network/dtls/mbedtls/mbedtls-2.16.2/library/rsa.c ****  * Export CRT parameters
 432:/home/xingli/share/LiteOS_Lab/network/dtls/mbedtls/mbedtls-2.16.2/library/rsa.c ****  * This must also be implemented if CRT is not used, for being able to
 433:/home/xingli/share/LiteOS_Lab/network/dtls/mbedtls/mbedtls-2.16.2/library/rsa.c ****  * write DER encoded RSA keys. The helper function mbedtls_rsa_deduce_crt
 434:/home/xingli/share/LiteOS_Lab/network/dtls/mbedtls/mbedtls-2.16.2/library/rsa.c ****  * can be used in this case.
 435:/home/xingli/share/LiteOS_Lab/network/dtls/mbedtls/mbedtls-2.16.2/library/rsa.c ****  */
 436:/home/xingli/share/LiteOS_Lab/network/dtls/mbedtls/mbedtls-2.16.2/library/rsa.c **** int mbedtls_rsa_export_crt( const mbedtls_rsa_context *ctx,
 437:/home/xingli/share/LiteOS_Lab/network/dtls/mbedtls/mbedtls-2.16.2/library/rsa.c ****                             mbedtls_mpi *DP, mbedtls_mpi *DQ, mbedtls_mpi *QP )
 438:/home/xingli/share/LiteOS_Lab/network/dtls/mbedtls/mbedtls-2.16.2/library/rsa.c **** {
 1336              		.loc 1 438 1
 1337              		.cfi_startproc
 1338 0000 F30F1EFA 		endbr64
 1339 0004 55       		pushq	%rbp
 1340              	.LCFI21:
 1341              		.cfi_def_cfa_offset 16
 1342              		.cfi_offset 6, -16
 1343 0005 4889E5   		movq	%rsp, %rbp
 1344              	.LCFI22:
 1345              		.cfi_def_cfa_register 6
 1346 0008 4883EC30 		subq	$48, %rsp
 1347 000c 48897DE8 		movq	%rdi, -24(%rbp)
 1348 0010 488975E0 		movq	%rsi, -32(%rbp)
 1349 0014 488955D8 		movq	%rdx, -40(%rbp)
 1350 0018 48894DD0 		movq	%rcx, -48(%rbp)
 1351              		.loc 1 438 1
 1352 001c 64488B04 		movq	%fs:40, %rax
 1352      25280000 
 1352      00
 1353 0025 488945F8 		movq	%rax, -8(%rbp)
 1354 0029 31C0     		xorl	%eax, %eax
 439:/home/xingli/share/LiteOS_Lab/network/dtls/mbedtls/mbedtls-2.16.2/library/rsa.c ****     int ret;
 440:/home/xingli/share/LiteOS_Lab/network/dtls/mbedtls/mbedtls-2.16.2/library/rsa.c ****     int is_priv;
 441:/home/xingli/share/LiteOS_Lab/network/dtls/mbedtls/mbedtls-2.16.2/library/rsa.c ****     RSA_VALIDATE_RET( ctx != NULL );
 442:/home/xingli/share/LiteOS_Lab/network/dtls/mbedtls/mbedtls-2.16.2/library/rsa.c **** 
 443:/home/xingli/share/LiteOS_Lab/network/dtls/mbedtls/mbedtls-2.16.2/library/rsa.c ****     /* Check if key is private or public */
 444:/home/xingli/share/LiteOS_Lab/network/dtls/mbedtls/mbedtls-2.16.2/library/rsa.c ****     is_priv =
 445:/home/xingli/share/LiteOS_Lab/network/dtls/mbedtls/mbedtls-2.16.2/library/rsa.c ****         mbedtls_mpi_cmp_int( &ctx->N, 0 ) != 0 &&
 1355              		.loc 1 445 9
 1356 002b 488B45E8 		movq	-24(%rbp), %rax
 1357 002f 4883C010 		addq	$16, %rax
 1358 0033 BE000000 		movl	$0, %esi
 1358      00
 1359 0038 4889C7   		movq	%rax, %rdi
 1360 003b E8000000 		call	mbedtls_mpi_cmp_int@PLT
 1360      00
 446:/home/xingli/share/LiteOS_Lab/network/dtls/mbedtls/mbedtls-2.16.2/library/rsa.c ****         mbedtls_mpi_cmp_int( &ctx->P, 0 ) != 0 &&
 447:/home/xingli/share/LiteOS_Lab/network/dtls/mbedtls/mbedtls-2.16.2/library/rsa.c ****         mbedtls_mpi_cmp_int( &ctx->Q, 0 ) != 0 &&
 448:/home/xingli/share/LiteOS_Lab/network/dtls/mbedtls/mbedtls-2.16.2/library/rsa.c ****         mbedtls_mpi_cmp_int( &ctx->D, 0 ) != 0 &&
 1361              		.loc 1 448 48
 1362 0040 85C0     		testl	%eax, %eax
 1363 0042 746B     		je	.L95
 446:/home/xingli/share/LiteOS_Lab/network/dtls/mbedtls/mbedtls-2.16.2/library/rsa.c ****         mbedtls_mpi_cmp_int( &ctx->P, 0 ) != 0 &&
 1364              		.loc 1 446 9
 1365 0044 488B45E8 		movq	-24(%rbp), %rax
 1366 0048 4883C058 		addq	$88, %rax
 1367 004c BE000000 		movl	$0, %esi
 1367      00
 1368 0051 4889C7   		movq	%rax, %rdi
GAS LISTING /tmp/cc6OITWc.s 			page 37


 1369 0054 E8000000 		call	mbedtls_mpi_cmp_int@PLT
 1369      00
 445:/home/xingli/share/LiteOS_Lab/network/dtls/mbedtls/mbedtls-2.16.2/library/rsa.c ****         mbedtls_mpi_cmp_int( &ctx->P, 0 ) != 0 &&
 1370              		.loc 1 445 48
 1371 0059 85C0     		testl	%eax, %eax
 1372 005b 7452     		je	.L95
 447:/home/xingli/share/LiteOS_Lab/network/dtls/mbedtls/mbedtls-2.16.2/library/rsa.c ****         mbedtls_mpi_cmp_int( &ctx->D, 0 ) != 0 &&
 1373              		.loc 1 447 9
 1374 005d 488B45E8 		movq	-24(%rbp), %rax
 1375 0061 4883C070 		addq	$112, %rax
 1376 0065 BE000000 		movl	$0, %esi
 1376      00
 1377 006a 4889C7   		movq	%rax, %rdi
 1378 006d E8000000 		call	mbedtls_mpi_cmp_int@PLT
 1378      00
 446:/home/xingli/share/LiteOS_Lab/network/dtls/mbedtls/mbedtls-2.16.2/library/rsa.c ****         mbedtls_mpi_cmp_int( &ctx->P, 0 ) != 0 &&
 1379              		.loc 1 446 48
 1380 0072 85C0     		testl	%eax, %eax
 1381 0074 7439     		je	.L95
 1382              		.loc 1 448 9
 1383 0076 488B45E8 		movq	-24(%rbp), %rax
 1384 007a 4883C040 		addq	$64, %rax
 1385 007e BE000000 		movl	$0, %esi
 1385      00
 1386 0083 4889C7   		movq	%rax, %rdi
 1387 0086 E8000000 		call	mbedtls_mpi_cmp_int@PLT
 1387      00
 447:/home/xingli/share/LiteOS_Lab/network/dtls/mbedtls/mbedtls-2.16.2/library/rsa.c ****         mbedtls_mpi_cmp_int( &ctx->D, 0 ) != 0 &&
 1388              		.loc 1 447 48
 1389 008b 85C0     		testl	%eax, %eax
 1390 008d 7420     		je	.L95
 449:/home/xingli/share/LiteOS_Lab/network/dtls/mbedtls/mbedtls-2.16.2/library/rsa.c ****         mbedtls_mpi_cmp_int( &ctx->E, 0 ) != 0;
 1391              		.loc 1 449 9 discriminator 3
 1392 008f 488B45E8 		movq	-24(%rbp), %rax
 1393 0093 4883C028 		addq	$40, %rax
 1394 0097 BE000000 		movl	$0, %esi
 1394      00
 1395 009c 4889C7   		movq	%rax, %rdi
 1396 009f E8000000 		call	mbedtls_mpi_cmp_int@PLT
 1396      00
 448:/home/xingli/share/LiteOS_Lab/network/dtls/mbedtls/mbedtls-2.16.2/library/rsa.c ****         mbedtls_mpi_cmp_int( &ctx->E, 0 ) != 0;
 1397              		.loc 1 448 48 discriminator 3
 1398 00a4 85C0     		testl	%eax, %eax
 1399 00a6 7407     		je	.L95
 448:/home/xingli/share/LiteOS_Lab/network/dtls/mbedtls/mbedtls-2.16.2/library/rsa.c ****         mbedtls_mpi_cmp_int( &ctx->E, 0 ) != 0;
 1400              		.loc 1 448 48 is_stmt 0 discriminator 2
 1401 00a8 B8010000 		movl	$1, %eax
 1401      00
 1402 00ad EB05     		jmp	.L96
 1403              	.L95:
 448:/home/xingli/share/LiteOS_Lab/network/dtls/mbedtls/mbedtls-2.16.2/library/rsa.c ****         mbedtls_mpi_cmp_int( &ctx->E, 0 ) != 0;
 1404              		.loc 1 448 48 discriminator 1
 1405 00af B8000000 		movl	$0, %eax
 1405      00
 1406              	.L96:
 444:/home/xingli/share/LiteOS_Lab/network/dtls/mbedtls/mbedtls-2.16.2/library/rsa.c ****         mbedtls_mpi_cmp_int( &ctx->N, 0 ) != 0 &&
 1407              		.loc 1 444 13 is_stmt 1
GAS LISTING /tmp/cc6OITWc.s 			page 38


 1408 00b4 8945F4   		movl	%eax, -12(%rbp)
 450:/home/xingli/share/LiteOS_Lab/network/dtls/mbedtls/mbedtls-2.16.2/library/rsa.c **** 
 451:/home/xingli/share/LiteOS_Lab/network/dtls/mbedtls/mbedtls-2.16.2/library/rsa.c ****     if( !is_priv )
 1409              		.loc 1 451 7
 1410 00b7 837DF400 		cmpl	$0, -12(%rbp)
 1411 00bb 750A     		jne	.L97
 452:/home/xingli/share/LiteOS_Lab/network/dtls/mbedtls/mbedtls-2.16.2/library/rsa.c ****         return( MBEDTLS_ERR_RSA_BAD_INPUT_DATA );
 1412              		.loc 1 452 15
 1413 00bd B880BFFF 		movl	$-16512, %eax
 1413      FF
 1414 00c2 E98D0000 		jmp	.L98
 1414      00
 1415              	.L97:
 453:/home/xingli/share/LiteOS_Lab/network/dtls/mbedtls/mbedtls-2.16.2/library/rsa.c **** 
 454:/home/xingli/share/LiteOS_Lab/network/dtls/mbedtls/mbedtls-2.16.2/library/rsa.c **** #if !defined(MBEDTLS_RSA_NO_CRT)
 455:/home/xingli/share/LiteOS_Lab/network/dtls/mbedtls/mbedtls-2.16.2/library/rsa.c ****     /* Export all requested blinding parameters. */
 456:/home/xingli/share/LiteOS_Lab/network/dtls/mbedtls/mbedtls-2.16.2/library/rsa.c ****     if( ( DP != NULL && ( ret = mbedtls_mpi_copy( DP, &ctx->DP ) ) != 0 ) ||
 1416              		.loc 1 456 7
 1417 00c7 48837DE0 		cmpq	$0, -32(%rbp)
 1417      00
 1418 00cc 7423     		je	.L99
 1419              		.loc 1 456 33 discriminator 1
 1420 00ce 488B45E8 		movq	-24(%rbp), %rax
 1421 00d2 488D9088 		leaq	136(%rax), %rdx
 1421      000000
 1422 00d9 488B45E0 		movq	-32(%rbp), %rax
 1423 00dd 4889D6   		movq	%rdx, %rsi
 1424 00e0 4889C7   		movq	%rax, %rdi
 1425 00e3 E8000000 		call	mbedtls_mpi_copy@PLT
 1425      00
 1426 00e8 8945F0   		movl	%eax, -16(%rbp)
 1427              		.loc 1 456 22 discriminator 1
 1428 00eb 837DF000 		cmpl	$0, -16(%rbp)
 1429 00ef 7554     		jne	.L100
 1430              	.L99:
 1431              		.loc 1 456 75 discriminator 3
 1432 00f1 48837DD8 		cmpq	$0, -40(%rbp)
 1432      00
 1433 00f6 7423     		je	.L101
 457:/home/xingli/share/LiteOS_Lab/network/dtls/mbedtls/mbedtls-2.16.2/library/rsa.c ****         ( DQ != NULL && ( ret = mbedtls_mpi_copy( DQ, &ctx->DQ ) ) != 0 ) ||
 1434              		.loc 1 457 33
 1435 00f8 488B45E8 		movq	-24(%rbp), %rax
 1436 00fc 488D90A0 		leaq	160(%rax), %rdx
 1436      000000
 1437 0103 488B45D8 		movq	-40(%rbp), %rax
 1438 0107 4889D6   		movq	%rdx, %rsi
 1439 010a 4889C7   		movq	%rax, %rdi
 1440 010d E8000000 		call	mbedtls_mpi_copy@PLT
 1440      00
 1441 0112 8945F0   		movl	%eax, -16(%rbp)
 1442              		.loc 1 457 22
 1443 0115 837DF000 		cmpl	$0, -16(%rbp)
 1444 0119 752A     		jne	.L100
 1445              	.L101:
 1446              		.loc 1 457 75 discriminator 1
 1447 011b 48837DD0 		cmpq	$0, -48(%rbp)
 1447      00
GAS LISTING /tmp/cc6OITWc.s 			page 39


 1448 0120 742D     		je	.L102
 458:/home/xingli/share/LiteOS_Lab/network/dtls/mbedtls/mbedtls-2.16.2/library/rsa.c ****         ( QP != NULL && ( ret = mbedtls_mpi_copy( QP, &ctx->QP ) ) != 0 ) )
 1449              		.loc 1 458 33
 1450 0122 488B45E8 		movq	-24(%rbp), %rax
 1451 0126 488D90B8 		leaq	184(%rax), %rdx
 1451      000000
 1452 012d 488B45D0 		movq	-48(%rbp), %rax
 1453 0131 4889D6   		movq	%rdx, %rsi
 1454 0134 4889C7   		movq	%rax, %rdi
 1455 0137 E8000000 		call	mbedtls_mpi_copy@PLT
 1455      00
 1456 013c 8945F0   		movl	%eax, -16(%rbp)
 1457              		.loc 1 458 22
 1458 013f 837DF000 		cmpl	$0, -16(%rbp)
 1459 0143 740A     		je	.L102
 1460              	.L100:
 459:/home/xingli/share/LiteOS_Lab/network/dtls/mbedtls/mbedtls-2.16.2/library/rsa.c ****     {
 460:/home/xingli/share/LiteOS_Lab/network/dtls/mbedtls/mbedtls-2.16.2/library/rsa.c ****         return( MBEDTLS_ERR_RSA_BAD_INPUT_DATA + ret );
 1461              		.loc 1 460 48
 1462 0145 8B45F0   		movl	-16(%rbp), %eax
 1463 0148 2D804000 		subl	$16512, %eax
 1463      00
 1464 014d EB05     		jmp	.L98
 1465              	.L102:
 461:/home/xingli/share/LiteOS_Lab/network/dtls/mbedtls/mbedtls-2.16.2/library/rsa.c ****     }
 462:/home/xingli/share/LiteOS_Lab/network/dtls/mbedtls/mbedtls-2.16.2/library/rsa.c **** #else
 463:/home/xingli/share/LiteOS_Lab/network/dtls/mbedtls/mbedtls-2.16.2/library/rsa.c ****     if( ( ret = mbedtls_rsa_deduce_crt( &ctx->P, &ctx->Q, &ctx->D,
 464:/home/xingli/share/LiteOS_Lab/network/dtls/mbedtls/mbedtls-2.16.2/library/rsa.c ****                                         DP, DQ, QP ) ) != 0 )
 465:/home/xingli/share/LiteOS_Lab/network/dtls/mbedtls/mbedtls-2.16.2/library/rsa.c ****     {
 466:/home/xingli/share/LiteOS_Lab/network/dtls/mbedtls/mbedtls-2.16.2/library/rsa.c ****         return( MBEDTLS_ERR_RSA_BAD_INPUT_DATA + ret );
 467:/home/xingli/share/LiteOS_Lab/network/dtls/mbedtls/mbedtls-2.16.2/library/rsa.c ****     }
 468:/home/xingli/share/LiteOS_Lab/network/dtls/mbedtls/mbedtls-2.16.2/library/rsa.c **** #endif
 469:/home/xingli/share/LiteOS_Lab/network/dtls/mbedtls/mbedtls-2.16.2/library/rsa.c **** 
 470:/home/xingli/share/LiteOS_Lab/network/dtls/mbedtls/mbedtls-2.16.2/library/rsa.c ****     return( 0 );
 1466              		.loc 1 470 11
 1467 014f B8000000 		movl	$0, %eax
 1467      00
 1468              	.L98:
 471:/home/xingli/share/LiteOS_Lab/network/dtls/mbedtls/mbedtls-2.16.2/library/rsa.c **** }
 1469              		.loc 1 471 1
 1470 0154 488B4DF8 		movq	-8(%rbp), %rcx
 1471 0158 6448330C 		xorq	%fs:40, %rcx
 1471      25280000 
 1471      00
 1472 0161 7405     		je	.L103
 1473 0163 E8000000 		call	__stack_chk_fail@PLT
 1473      00
 1474              	.L103:
 1475 0168 C9       		leave
 1476              	.LCFI23:
 1477              		.cfi_def_cfa 7, 8
 1478 0169 C3       		ret
 1479              		.cfi_endproc
 1480              	.LFE23:
 1482              		.section	.text.mbedtls_rsa_init,"ax",@progbits
 1483              		.globl	mbedtls_rsa_init
 1485              	mbedtls_rsa_init:
GAS LISTING /tmp/cc6OITWc.s 			page 40


 1486              	.LFB24:
 472:/home/xingli/share/LiteOS_Lab/network/dtls/mbedtls/mbedtls-2.16.2/library/rsa.c **** 
 473:/home/xingli/share/LiteOS_Lab/network/dtls/mbedtls/mbedtls-2.16.2/library/rsa.c **** /*
 474:/home/xingli/share/LiteOS_Lab/network/dtls/mbedtls/mbedtls-2.16.2/library/rsa.c ****  * Initialize an RSA context
 475:/home/xingli/share/LiteOS_Lab/network/dtls/mbedtls/mbedtls-2.16.2/library/rsa.c ****  */
 476:/home/xingli/share/LiteOS_Lab/network/dtls/mbedtls/mbedtls-2.16.2/library/rsa.c **** void mbedtls_rsa_init( mbedtls_rsa_context *ctx,
 477:/home/xingli/share/LiteOS_Lab/network/dtls/mbedtls/mbedtls-2.16.2/library/rsa.c ****                int padding,
 478:/home/xingli/share/LiteOS_Lab/network/dtls/mbedtls/mbedtls-2.16.2/library/rsa.c ****                int hash_id )
 479:/home/xingli/share/LiteOS_Lab/network/dtls/mbedtls/mbedtls-2.16.2/library/rsa.c **** {
 1487              		.loc 1 479 1
 1488              		.cfi_startproc
 1489 0000 F30F1EFA 		endbr64
 1490 0004 55       		pushq	%rbp
 1491              	.LCFI24:
 1492              		.cfi_def_cfa_offset 16
 1493              		.cfi_offset 6, -16
 1494 0005 4889E5   		movq	%rsp, %rbp
 1495              	.LCFI25:
 1496              		.cfi_def_cfa_register 6
 1497 0008 4883EC20 		subq	$32, %rsp
 1498 000c 48897DE8 		movq	%rdi, -24(%rbp)
 1499 0010 8975E4   		movl	%esi, -28(%rbp)
 1500 0013 8955E0   		movl	%edx, -32(%rbp)
 1501              		.loc 1 479 1
 1502 0016 64488B04 		movq	%fs:40, %rax
 1502      25280000 
 1502      00
 1503 001f 488945F8 		movq	%rax, -8(%rbp)
 1504 0023 31C0     		xorl	%eax, %eax
 480:/home/xingli/share/LiteOS_Lab/network/dtls/mbedtls/mbedtls-2.16.2/library/rsa.c ****     RSA_VALIDATE( ctx != NULL );
 481:/home/xingli/share/LiteOS_Lab/network/dtls/mbedtls/mbedtls-2.16.2/library/rsa.c ****     RSA_VALIDATE( padding == MBEDTLS_RSA_PKCS_V15 ||
 482:/home/xingli/share/LiteOS_Lab/network/dtls/mbedtls/mbedtls-2.16.2/library/rsa.c ****                   padding == MBEDTLS_RSA_PKCS_V21 );
 483:/home/xingli/share/LiteOS_Lab/network/dtls/mbedtls/mbedtls-2.16.2/library/rsa.c **** 
 484:/home/xingli/share/LiteOS_Lab/network/dtls/mbedtls/mbedtls-2.16.2/library/rsa.c ****     memset( ctx, 0, sizeof( mbedtls_rsa_context ) );
 1505              		.loc 1 484 5
 1506 0025 488B45E8 		movq	-24(%rbp), %rax
 1507 0029 BA500100 		movl	$336, %edx
 1507      00
 1508 002e BE000000 		movl	$0, %esi
 1508      00
 1509 0033 4889C7   		movq	%rax, %rdi
 1510 0036 E8000000 		call	memset@PLT
 1510      00
 485:/home/xingli/share/LiteOS_Lab/network/dtls/mbedtls/mbedtls-2.16.2/library/rsa.c **** 
 486:/home/xingli/share/LiteOS_Lab/network/dtls/mbedtls/mbedtls-2.16.2/library/rsa.c ****     mbedtls_rsa_set_padding( ctx, padding, hash_id );
 1511              		.loc 1 486 5
 1512 003b 8B55E0   		movl	-32(%rbp), %edx
 1513 003e 8B4DE4   		movl	-28(%rbp), %ecx
 1514 0041 488B45E8 		movq	-24(%rbp), %rax
 1515 0045 89CE     		movl	%ecx, %esi
 1516 0047 4889C7   		movq	%rax, %rdi
 1517 004a E8000000 		call	mbedtls_rsa_set_padding
 1517      00
 487:/home/xingli/share/LiteOS_Lab/network/dtls/mbedtls/mbedtls-2.16.2/library/rsa.c **** 
 488:/home/xingli/share/LiteOS_Lab/network/dtls/mbedtls/mbedtls-2.16.2/library/rsa.c **** #if defined(MBEDTLS_THREADING_C)
 489:/home/xingli/share/LiteOS_Lab/network/dtls/mbedtls/mbedtls-2.16.2/library/rsa.c ****     mbedtls_mutex_init( &ctx->mutex );
 490:/home/xingli/share/LiteOS_Lab/network/dtls/mbedtls/mbedtls-2.16.2/library/rsa.c **** #endif
GAS LISTING /tmp/cc6OITWc.s 			page 41


 491:/home/xingli/share/LiteOS_Lab/network/dtls/mbedtls/mbedtls-2.16.2/library/rsa.c **** }
 1518              		.loc 1 491 1
 1519 004f 90       		nop
 1520 0050 488B45F8 		movq	-8(%rbp), %rax
 1521 0054 64483304 		xorq	%fs:40, %rax
 1521      25280000 
 1521      00
 1522 005d 7405     		je	.L105
 1523 005f E8000000 		call	__stack_chk_fail@PLT
 1523      00
 1524              	.L105:
 1525 0064 C9       		leave
 1526              	.LCFI26:
 1527              		.cfi_def_cfa 7, 8
 1528 0065 C3       		ret
 1529              		.cfi_endproc
 1530              	.LFE24:
 1532              		.section	.text.mbedtls_rsa_set_padding,"ax",@progbits
 1533              		.globl	mbedtls_rsa_set_padding
 1535              	mbedtls_rsa_set_padding:
 1536              	.LFB25:
 492:/home/xingli/share/LiteOS_Lab/network/dtls/mbedtls/mbedtls-2.16.2/library/rsa.c **** 
 493:/home/xingli/share/LiteOS_Lab/network/dtls/mbedtls/mbedtls-2.16.2/library/rsa.c **** /*
 494:/home/xingli/share/LiteOS_Lab/network/dtls/mbedtls/mbedtls-2.16.2/library/rsa.c ****  * Set padding for an existing RSA context
 495:/home/xingli/share/LiteOS_Lab/network/dtls/mbedtls/mbedtls-2.16.2/library/rsa.c ****  */
 496:/home/xingli/share/LiteOS_Lab/network/dtls/mbedtls/mbedtls-2.16.2/library/rsa.c **** void mbedtls_rsa_set_padding( mbedtls_rsa_context *ctx, int padding,
 497:/home/xingli/share/LiteOS_Lab/network/dtls/mbedtls/mbedtls-2.16.2/library/rsa.c ****                               int hash_id )
 498:/home/xingli/share/LiteOS_Lab/network/dtls/mbedtls/mbedtls-2.16.2/library/rsa.c **** {
 1537              		.loc 1 498 1
 1538              		.cfi_startproc
 1539 0000 F30F1EFA 		endbr64
 1540 0004 55       		pushq	%rbp
 1541              	.LCFI27:
 1542              		.cfi_def_cfa_offset 16
 1543              		.cfi_offset 6, -16
 1544 0005 4889E5   		movq	%rsp, %rbp
 1545              	.LCFI28:
 1546              		.cfi_def_cfa_register 6
 1547 0008 4883EC20 		subq	$32, %rsp
 1548 000c 48897DE8 		movq	%rdi, -24(%rbp)
 1549 0010 8975E4   		movl	%esi, -28(%rbp)
 1550 0013 8955E0   		movl	%edx, -32(%rbp)
 1551              		.loc 1 498 1
 1552 0016 64488B04 		movq	%fs:40, %rax
 1552      25280000 
 1552      00
 1553 001f 488945F8 		movq	%rax, -8(%rbp)
 1554 0023 31C0     		xorl	%eax, %eax
 499:/home/xingli/share/LiteOS_Lab/network/dtls/mbedtls/mbedtls-2.16.2/library/rsa.c ****     RSA_VALIDATE( ctx != NULL );
 500:/home/xingli/share/LiteOS_Lab/network/dtls/mbedtls/mbedtls-2.16.2/library/rsa.c ****     RSA_VALIDATE( padding == MBEDTLS_RSA_PKCS_V15 ||
 501:/home/xingli/share/LiteOS_Lab/network/dtls/mbedtls/mbedtls-2.16.2/library/rsa.c ****                   padding == MBEDTLS_RSA_PKCS_V21 );
 502:/home/xingli/share/LiteOS_Lab/network/dtls/mbedtls/mbedtls-2.16.2/library/rsa.c **** 
 503:/home/xingli/share/LiteOS_Lab/network/dtls/mbedtls/mbedtls-2.16.2/library/rsa.c ****     ctx->padding = padding;
 1555              		.loc 1 503 18
 1556 0025 488B45E8 		movq	-24(%rbp), %rax
 1557 0029 8B55E4   		movl	-28(%rbp), %edx
 1558 002c 89904801 		movl	%edx, 328(%rax)
GAS LISTING /tmp/cc6OITWc.s 			page 42


 1558      0000
 504:/home/xingli/share/LiteOS_Lab/network/dtls/mbedtls/mbedtls-2.16.2/library/rsa.c ****     ctx->hash_id = hash_id;
 1559              		.loc 1 504 18
 1560 0032 488B45E8 		movq	-24(%rbp), %rax
 1561 0036 8B55E0   		movl	-32(%rbp), %edx
 1562 0039 89904C01 		movl	%edx, 332(%rax)
 1562      0000
 505:/home/xingli/share/LiteOS_Lab/network/dtls/mbedtls/mbedtls-2.16.2/library/rsa.c **** }
 1563              		.loc 1 505 1
 1564 003f 90       		nop
 1565 0040 488B45F8 		movq	-8(%rbp), %rax
 1566 0044 64483304 		xorq	%fs:40, %rax
 1566      25280000 
 1566      00
 1567 004d 7405     		je	.L107
 1568 004f E8000000 		call	__stack_chk_fail@PLT
 1568      00
 1569              	.L107:
 1570 0054 C9       		leave
 1571              	.LCFI29:
 1572              		.cfi_def_cfa 7, 8
 1573 0055 C3       		ret
 1574              		.cfi_endproc
 1575              	.LFE25:
 1577              		.section	.text.mbedtls_rsa_get_len,"ax",@progbits
 1578              		.globl	mbedtls_rsa_get_len
 1580              	mbedtls_rsa_get_len:
 1581              	.LFB26:
 506:/home/xingli/share/LiteOS_Lab/network/dtls/mbedtls/mbedtls-2.16.2/library/rsa.c **** 
 507:/home/xingli/share/LiteOS_Lab/network/dtls/mbedtls/mbedtls-2.16.2/library/rsa.c **** /*
 508:/home/xingli/share/LiteOS_Lab/network/dtls/mbedtls/mbedtls-2.16.2/library/rsa.c ****  * Get length in bytes of RSA modulus
 509:/home/xingli/share/LiteOS_Lab/network/dtls/mbedtls/mbedtls-2.16.2/library/rsa.c ****  */
 510:/home/xingli/share/LiteOS_Lab/network/dtls/mbedtls/mbedtls-2.16.2/library/rsa.c **** 
 511:/home/xingli/share/LiteOS_Lab/network/dtls/mbedtls/mbedtls-2.16.2/library/rsa.c **** size_t mbedtls_rsa_get_len( const mbedtls_rsa_context *ctx )
 512:/home/xingli/share/LiteOS_Lab/network/dtls/mbedtls/mbedtls-2.16.2/library/rsa.c **** {
 1582              		.loc 1 512 1
 1583              		.cfi_startproc
 1584 0000 F30F1EFA 		endbr64
 1585 0004 55       		pushq	%rbp
 1586              	.LCFI30:
 1587              		.cfi_def_cfa_offset 16
 1588              		.cfi_offset 6, -16
 1589 0005 4889E5   		movq	%rsp, %rbp
 1590              	.LCFI31:
 1591              		.cfi_def_cfa_register 6
 1592 0008 4883EC20 		subq	$32, %rsp
 1593 000c 48897DE8 		movq	%rdi, -24(%rbp)
 1594              		.loc 1 512 1
 1595 0010 64488B04 		movq	%fs:40, %rax
 1595      25280000 
 1595      00
 1596 0019 488945F8 		movq	%rax, -8(%rbp)
 1597 001d 31C0     		xorl	%eax, %eax
 513:/home/xingli/share/LiteOS_Lab/network/dtls/mbedtls/mbedtls-2.16.2/library/rsa.c ****     return( ctx->len );
 1598              		.loc 1 513 16
 1599 001f 488B45E8 		movq	-24(%rbp), %rax
 1600 0023 488B4008 		movq	8(%rax), %rax
GAS LISTING /tmp/cc6OITWc.s 			page 43


 514:/home/xingli/share/LiteOS_Lab/network/dtls/mbedtls/mbedtls-2.16.2/library/rsa.c **** }
 1601              		.loc 1 514 1
 1602 0027 488B55F8 		movq	-8(%rbp), %rdx
 1603 002b 64483314 		xorq	%fs:40, %rdx
 1603      25280000 
 1603      00
 1604 0034 7405     		je	.L110
 1605 0036 E8000000 		call	__stack_chk_fail@PLT
 1605      00
 1606              	.L110:
 1607 003b C9       		leave
 1608              	.LCFI32:
 1609              		.cfi_def_cfa 7, 8
 1610 003c C3       		ret
 1611              		.cfi_endproc
 1612              	.LFE26:
 1614              		.section	.text.mbedtls_rsa_check_pubkey,"ax",@progbits
 1615              		.globl	mbedtls_rsa_check_pubkey
 1617              	mbedtls_rsa_check_pubkey:
 1618              	.LFB27:
 515:/home/xingli/share/LiteOS_Lab/network/dtls/mbedtls/mbedtls-2.16.2/library/rsa.c **** 
 516:/home/xingli/share/LiteOS_Lab/network/dtls/mbedtls/mbedtls-2.16.2/library/rsa.c **** 
 517:/home/xingli/share/LiteOS_Lab/network/dtls/mbedtls/mbedtls-2.16.2/library/rsa.c **** #if defined(MBEDTLS_GENPRIME)
 518:/home/xingli/share/LiteOS_Lab/network/dtls/mbedtls/mbedtls-2.16.2/library/rsa.c **** 
 519:/home/xingli/share/LiteOS_Lab/network/dtls/mbedtls/mbedtls-2.16.2/library/rsa.c **** /*
 520:/home/xingli/share/LiteOS_Lab/network/dtls/mbedtls/mbedtls-2.16.2/library/rsa.c ****  * Generate an RSA keypair
 521:/home/xingli/share/LiteOS_Lab/network/dtls/mbedtls/mbedtls-2.16.2/library/rsa.c ****  *
 522:/home/xingli/share/LiteOS_Lab/network/dtls/mbedtls/mbedtls-2.16.2/library/rsa.c ****  * This generation method follows the RSA key pair generation procedure of
 523:/home/xingli/share/LiteOS_Lab/network/dtls/mbedtls/mbedtls-2.16.2/library/rsa.c ****  * FIPS 186-4 if 2^16 < exponent < 2^256 and nbits = 2048 or nbits = 3072.
 524:/home/xingli/share/LiteOS_Lab/network/dtls/mbedtls/mbedtls-2.16.2/library/rsa.c ****  */
 525:/home/xingli/share/LiteOS_Lab/network/dtls/mbedtls/mbedtls-2.16.2/library/rsa.c **** int mbedtls_rsa_gen_key( mbedtls_rsa_context *ctx,
 526:/home/xingli/share/LiteOS_Lab/network/dtls/mbedtls/mbedtls-2.16.2/library/rsa.c ****                  int (*f_rng)(void *, unsigned char *, size_t),
 527:/home/xingli/share/LiteOS_Lab/network/dtls/mbedtls/mbedtls-2.16.2/library/rsa.c ****                  void *p_rng,
 528:/home/xingli/share/LiteOS_Lab/network/dtls/mbedtls/mbedtls-2.16.2/library/rsa.c ****                  unsigned int nbits, int exponent )
 529:/home/xingli/share/LiteOS_Lab/network/dtls/mbedtls/mbedtls-2.16.2/library/rsa.c **** {
 530:/home/xingli/share/LiteOS_Lab/network/dtls/mbedtls/mbedtls-2.16.2/library/rsa.c ****     int ret;
 531:/home/xingli/share/LiteOS_Lab/network/dtls/mbedtls/mbedtls-2.16.2/library/rsa.c ****     mbedtls_mpi H, G, L;
 532:/home/xingli/share/LiteOS_Lab/network/dtls/mbedtls/mbedtls-2.16.2/library/rsa.c ****     int prime_quality = 0;
 533:/home/xingli/share/LiteOS_Lab/network/dtls/mbedtls/mbedtls-2.16.2/library/rsa.c ****     RSA_VALIDATE_RET( ctx != NULL );
 534:/home/xingli/share/LiteOS_Lab/network/dtls/mbedtls/mbedtls-2.16.2/library/rsa.c ****     RSA_VALIDATE_RET( f_rng != NULL );
 535:/home/xingli/share/LiteOS_Lab/network/dtls/mbedtls/mbedtls-2.16.2/library/rsa.c **** 
 536:/home/xingli/share/LiteOS_Lab/network/dtls/mbedtls/mbedtls-2.16.2/library/rsa.c ****     if( nbits < 128 || exponent < 3 || nbits % 2 != 0 )
 537:/home/xingli/share/LiteOS_Lab/network/dtls/mbedtls/mbedtls-2.16.2/library/rsa.c ****         return( MBEDTLS_ERR_RSA_BAD_INPUT_DATA );
 538:/home/xingli/share/LiteOS_Lab/network/dtls/mbedtls/mbedtls-2.16.2/library/rsa.c **** 
 539:/home/xingli/share/LiteOS_Lab/network/dtls/mbedtls/mbedtls-2.16.2/library/rsa.c ****     /*
 540:/home/xingli/share/LiteOS_Lab/network/dtls/mbedtls/mbedtls-2.16.2/library/rsa.c ****      * If the modulus is 1024 bit long or shorter, then the security strength of
 541:/home/xingli/share/LiteOS_Lab/network/dtls/mbedtls/mbedtls-2.16.2/library/rsa.c ****      * the RSA algorithm is less than or equal to 80 bits and therefore an error
 542:/home/xingli/share/LiteOS_Lab/network/dtls/mbedtls/mbedtls-2.16.2/library/rsa.c ****      * rate of 2^-80 is sufficient.
 543:/home/xingli/share/LiteOS_Lab/network/dtls/mbedtls/mbedtls-2.16.2/library/rsa.c ****      */
 544:/home/xingli/share/LiteOS_Lab/network/dtls/mbedtls/mbedtls-2.16.2/library/rsa.c ****     if( nbits > 1024 )
 545:/home/xingli/share/LiteOS_Lab/network/dtls/mbedtls/mbedtls-2.16.2/library/rsa.c ****         prime_quality = MBEDTLS_MPI_GEN_PRIME_FLAG_LOW_ERR;
 546:/home/xingli/share/LiteOS_Lab/network/dtls/mbedtls/mbedtls-2.16.2/library/rsa.c **** 
 547:/home/xingli/share/LiteOS_Lab/network/dtls/mbedtls/mbedtls-2.16.2/library/rsa.c ****     mbedtls_mpi_init( &H );
 548:/home/xingli/share/LiteOS_Lab/network/dtls/mbedtls/mbedtls-2.16.2/library/rsa.c ****     mbedtls_mpi_init( &G );
 549:/home/xingli/share/LiteOS_Lab/network/dtls/mbedtls/mbedtls-2.16.2/library/rsa.c ****     mbedtls_mpi_init( &L );
 550:/home/xingli/share/LiteOS_Lab/network/dtls/mbedtls/mbedtls-2.16.2/library/rsa.c **** 
 551:/home/xingli/share/LiteOS_Lab/network/dtls/mbedtls/mbedtls-2.16.2/library/rsa.c ****     /*
GAS LISTING /tmp/cc6OITWc.s 			page 44


 552:/home/xingli/share/LiteOS_Lab/network/dtls/mbedtls/mbedtls-2.16.2/library/rsa.c ****      * find primes P and Q with Q < P so that:
 553:/home/xingli/share/LiteOS_Lab/network/dtls/mbedtls/mbedtls-2.16.2/library/rsa.c ****      * 1.  |P-Q| > 2^( nbits / 2 - 100 )
 554:/home/xingli/share/LiteOS_Lab/network/dtls/mbedtls/mbedtls-2.16.2/library/rsa.c ****      * 2.  GCD( E, (P-1)*(Q-1) ) == 1
 555:/home/xingli/share/LiteOS_Lab/network/dtls/mbedtls/mbedtls-2.16.2/library/rsa.c ****      * 3.  E^-1 mod LCM(P-1, Q-1) > 2^( nbits / 2 )
 556:/home/xingli/share/LiteOS_Lab/network/dtls/mbedtls/mbedtls-2.16.2/library/rsa.c ****      */
 557:/home/xingli/share/LiteOS_Lab/network/dtls/mbedtls/mbedtls-2.16.2/library/rsa.c ****     MBEDTLS_MPI_CHK( mbedtls_mpi_lset( &ctx->E, exponent ) );
 558:/home/xingli/share/LiteOS_Lab/network/dtls/mbedtls/mbedtls-2.16.2/library/rsa.c **** 
 559:/home/xingli/share/LiteOS_Lab/network/dtls/mbedtls/mbedtls-2.16.2/library/rsa.c ****     do
 560:/home/xingli/share/LiteOS_Lab/network/dtls/mbedtls/mbedtls-2.16.2/library/rsa.c ****     {
 561:/home/xingli/share/LiteOS_Lab/network/dtls/mbedtls/mbedtls-2.16.2/library/rsa.c ****         MBEDTLS_MPI_CHK( mbedtls_mpi_gen_prime( &ctx->P, nbits >> 1,
 562:/home/xingli/share/LiteOS_Lab/network/dtls/mbedtls/mbedtls-2.16.2/library/rsa.c ****                                                 prime_quality, f_rng, p_rng ) );
 563:/home/xingli/share/LiteOS_Lab/network/dtls/mbedtls/mbedtls-2.16.2/library/rsa.c **** 
 564:/home/xingli/share/LiteOS_Lab/network/dtls/mbedtls/mbedtls-2.16.2/library/rsa.c ****         MBEDTLS_MPI_CHK( mbedtls_mpi_gen_prime( &ctx->Q, nbits >> 1,
 565:/home/xingli/share/LiteOS_Lab/network/dtls/mbedtls/mbedtls-2.16.2/library/rsa.c ****                                                 prime_quality, f_rng, p_rng ) );
 566:/home/xingli/share/LiteOS_Lab/network/dtls/mbedtls/mbedtls-2.16.2/library/rsa.c **** 
 567:/home/xingli/share/LiteOS_Lab/network/dtls/mbedtls/mbedtls-2.16.2/library/rsa.c ****         /* make sure the difference between p and q is not too small (FIPS 186-4 §B.3.3 step 5.4) 
 568:/home/xingli/share/LiteOS_Lab/network/dtls/mbedtls/mbedtls-2.16.2/library/rsa.c ****         MBEDTLS_MPI_CHK( mbedtls_mpi_sub_mpi( &H, &ctx->P, &ctx->Q ) );
 569:/home/xingli/share/LiteOS_Lab/network/dtls/mbedtls/mbedtls-2.16.2/library/rsa.c ****         if( mbedtls_mpi_bitlen( &H ) <= ( ( nbits >= 200 ) ? ( ( nbits >> 1 ) - 99 ) : 0 ) )
 570:/home/xingli/share/LiteOS_Lab/network/dtls/mbedtls/mbedtls-2.16.2/library/rsa.c ****             continue;
 571:/home/xingli/share/LiteOS_Lab/network/dtls/mbedtls/mbedtls-2.16.2/library/rsa.c **** 
 572:/home/xingli/share/LiteOS_Lab/network/dtls/mbedtls/mbedtls-2.16.2/library/rsa.c ****         /* not required by any standards, but some users rely on the fact that P > Q */
 573:/home/xingli/share/LiteOS_Lab/network/dtls/mbedtls/mbedtls-2.16.2/library/rsa.c ****         if( H.s < 0 )
 574:/home/xingli/share/LiteOS_Lab/network/dtls/mbedtls/mbedtls-2.16.2/library/rsa.c ****             mbedtls_mpi_swap( &ctx->P, &ctx->Q );
 575:/home/xingli/share/LiteOS_Lab/network/dtls/mbedtls/mbedtls-2.16.2/library/rsa.c **** 
 576:/home/xingli/share/LiteOS_Lab/network/dtls/mbedtls/mbedtls-2.16.2/library/rsa.c ****         /* Temporarily replace P,Q by P-1, Q-1 */
 577:/home/xingli/share/LiteOS_Lab/network/dtls/mbedtls/mbedtls-2.16.2/library/rsa.c ****         MBEDTLS_MPI_CHK( mbedtls_mpi_sub_int( &ctx->P, &ctx->P, 1 ) );
 578:/home/xingli/share/LiteOS_Lab/network/dtls/mbedtls/mbedtls-2.16.2/library/rsa.c ****         MBEDTLS_MPI_CHK( mbedtls_mpi_sub_int( &ctx->Q, &ctx->Q, 1 ) );
 579:/home/xingli/share/LiteOS_Lab/network/dtls/mbedtls/mbedtls-2.16.2/library/rsa.c ****         MBEDTLS_MPI_CHK( mbedtls_mpi_mul_mpi( &H, &ctx->P, &ctx->Q ) );
 580:/home/xingli/share/LiteOS_Lab/network/dtls/mbedtls/mbedtls-2.16.2/library/rsa.c **** 
 581:/home/xingli/share/LiteOS_Lab/network/dtls/mbedtls/mbedtls-2.16.2/library/rsa.c ****         /* check GCD( E, (P-1)*(Q-1) ) == 1 (FIPS 186-4 §B.3.1 criterion 2(a)) */
 582:/home/xingli/share/LiteOS_Lab/network/dtls/mbedtls/mbedtls-2.16.2/library/rsa.c ****         MBEDTLS_MPI_CHK( mbedtls_mpi_gcd( &G, &ctx->E, &H  ) );
 583:/home/xingli/share/LiteOS_Lab/network/dtls/mbedtls/mbedtls-2.16.2/library/rsa.c ****         if( mbedtls_mpi_cmp_int( &G, 1 ) != 0 )
 584:/home/xingli/share/LiteOS_Lab/network/dtls/mbedtls/mbedtls-2.16.2/library/rsa.c ****             continue;
 585:/home/xingli/share/LiteOS_Lab/network/dtls/mbedtls/mbedtls-2.16.2/library/rsa.c **** 
 586:/home/xingli/share/LiteOS_Lab/network/dtls/mbedtls/mbedtls-2.16.2/library/rsa.c ****         /* compute smallest possible D = E^-1 mod LCM(P-1, Q-1) (FIPS 186-4 §B.3.1 criterion 3(b))
 587:/home/xingli/share/LiteOS_Lab/network/dtls/mbedtls/mbedtls-2.16.2/library/rsa.c ****         MBEDTLS_MPI_CHK( mbedtls_mpi_gcd( &G, &ctx->P, &ctx->Q ) );
 588:/home/xingli/share/LiteOS_Lab/network/dtls/mbedtls/mbedtls-2.16.2/library/rsa.c ****         MBEDTLS_MPI_CHK( mbedtls_mpi_div_mpi( &L, NULL, &H, &G ) );
 589:/home/xingli/share/LiteOS_Lab/network/dtls/mbedtls/mbedtls-2.16.2/library/rsa.c ****         MBEDTLS_MPI_CHK( mbedtls_mpi_inv_mod( &ctx->D, &ctx->E, &L ) );
 590:/home/xingli/share/LiteOS_Lab/network/dtls/mbedtls/mbedtls-2.16.2/library/rsa.c **** 
 591:/home/xingli/share/LiteOS_Lab/network/dtls/mbedtls/mbedtls-2.16.2/library/rsa.c ****         if( mbedtls_mpi_bitlen( &ctx->D ) <= ( ( nbits + 1 ) / 2 ) ) // (FIPS 186-4 §B.3.1 criteri
 592:/home/xingli/share/LiteOS_Lab/network/dtls/mbedtls/mbedtls-2.16.2/library/rsa.c ****             continue;
 593:/home/xingli/share/LiteOS_Lab/network/dtls/mbedtls/mbedtls-2.16.2/library/rsa.c **** 
 594:/home/xingli/share/LiteOS_Lab/network/dtls/mbedtls/mbedtls-2.16.2/library/rsa.c ****         break;
 595:/home/xingli/share/LiteOS_Lab/network/dtls/mbedtls/mbedtls-2.16.2/library/rsa.c ****     }
 596:/home/xingli/share/LiteOS_Lab/network/dtls/mbedtls/mbedtls-2.16.2/library/rsa.c ****     while( 1 );
 597:/home/xingli/share/LiteOS_Lab/network/dtls/mbedtls/mbedtls-2.16.2/library/rsa.c **** 
 598:/home/xingli/share/LiteOS_Lab/network/dtls/mbedtls/mbedtls-2.16.2/library/rsa.c ****     /* Restore P,Q */
 599:/home/xingli/share/LiteOS_Lab/network/dtls/mbedtls/mbedtls-2.16.2/library/rsa.c ****     MBEDTLS_MPI_CHK( mbedtls_mpi_add_int( &ctx->P,  &ctx->P, 1 ) );
 600:/home/xingli/share/LiteOS_Lab/network/dtls/mbedtls/mbedtls-2.16.2/library/rsa.c ****     MBEDTLS_MPI_CHK( mbedtls_mpi_add_int( &ctx->Q,  &ctx->Q, 1 ) );
 601:/home/xingli/share/LiteOS_Lab/network/dtls/mbedtls/mbedtls-2.16.2/library/rsa.c **** 
 602:/home/xingli/share/LiteOS_Lab/network/dtls/mbedtls/mbedtls-2.16.2/library/rsa.c ****     MBEDTLS_MPI_CHK( mbedtls_mpi_mul_mpi( &ctx->N, &ctx->P, &ctx->Q ) );
 603:/home/xingli/share/LiteOS_Lab/network/dtls/mbedtls/mbedtls-2.16.2/library/rsa.c **** 
 604:/home/xingli/share/LiteOS_Lab/network/dtls/mbedtls/mbedtls-2.16.2/library/rsa.c ****     ctx->len = mbedtls_mpi_size( &ctx->N );
 605:/home/xingli/share/LiteOS_Lab/network/dtls/mbedtls/mbedtls-2.16.2/library/rsa.c **** 
 606:/home/xingli/share/LiteOS_Lab/network/dtls/mbedtls/mbedtls-2.16.2/library/rsa.c **** #if !defined(MBEDTLS_RSA_NO_CRT)
 607:/home/xingli/share/LiteOS_Lab/network/dtls/mbedtls/mbedtls-2.16.2/library/rsa.c ****     /*
 608:/home/xingli/share/LiteOS_Lab/network/dtls/mbedtls/mbedtls-2.16.2/library/rsa.c ****      * DP = D mod (P - 1)
GAS LISTING /tmp/cc6OITWc.s 			page 45


 609:/home/xingli/share/LiteOS_Lab/network/dtls/mbedtls/mbedtls-2.16.2/library/rsa.c ****      * DQ = D mod (Q - 1)
 610:/home/xingli/share/LiteOS_Lab/network/dtls/mbedtls/mbedtls-2.16.2/library/rsa.c ****      * QP = Q^-1 mod P
 611:/home/xingli/share/LiteOS_Lab/network/dtls/mbedtls/mbedtls-2.16.2/library/rsa.c ****      */
 612:/home/xingli/share/LiteOS_Lab/network/dtls/mbedtls/mbedtls-2.16.2/library/rsa.c ****     MBEDTLS_MPI_CHK( mbedtls_rsa_deduce_crt( &ctx->P, &ctx->Q, &ctx->D,
 613:/home/xingli/share/LiteOS_Lab/network/dtls/mbedtls/mbedtls-2.16.2/library/rsa.c ****                                              &ctx->DP, &ctx->DQ, &ctx->QP ) );
 614:/home/xingli/share/LiteOS_Lab/network/dtls/mbedtls/mbedtls-2.16.2/library/rsa.c **** #endif /* MBEDTLS_RSA_NO_CRT */
 615:/home/xingli/share/LiteOS_Lab/network/dtls/mbedtls/mbedtls-2.16.2/library/rsa.c **** 
 616:/home/xingli/share/LiteOS_Lab/network/dtls/mbedtls/mbedtls-2.16.2/library/rsa.c ****     /* Double-check */
 617:/home/xingli/share/LiteOS_Lab/network/dtls/mbedtls/mbedtls-2.16.2/library/rsa.c ****     MBEDTLS_MPI_CHK( mbedtls_rsa_check_privkey( ctx ) );
 618:/home/xingli/share/LiteOS_Lab/network/dtls/mbedtls/mbedtls-2.16.2/library/rsa.c **** 
 619:/home/xingli/share/LiteOS_Lab/network/dtls/mbedtls/mbedtls-2.16.2/library/rsa.c **** cleanup:
 620:/home/xingli/share/LiteOS_Lab/network/dtls/mbedtls/mbedtls-2.16.2/library/rsa.c **** 
 621:/home/xingli/share/LiteOS_Lab/network/dtls/mbedtls/mbedtls-2.16.2/library/rsa.c ****     mbedtls_mpi_free( &H );
 622:/home/xingli/share/LiteOS_Lab/network/dtls/mbedtls/mbedtls-2.16.2/library/rsa.c ****     mbedtls_mpi_free( &G );
 623:/home/xingli/share/LiteOS_Lab/network/dtls/mbedtls/mbedtls-2.16.2/library/rsa.c ****     mbedtls_mpi_free( &L );
 624:/home/xingli/share/LiteOS_Lab/network/dtls/mbedtls/mbedtls-2.16.2/library/rsa.c **** 
 625:/home/xingli/share/LiteOS_Lab/network/dtls/mbedtls/mbedtls-2.16.2/library/rsa.c ****     if( ret != 0 )
 626:/home/xingli/share/LiteOS_Lab/network/dtls/mbedtls/mbedtls-2.16.2/library/rsa.c ****     {
 627:/home/xingli/share/LiteOS_Lab/network/dtls/mbedtls/mbedtls-2.16.2/library/rsa.c ****         mbedtls_rsa_free( ctx );
 628:/home/xingli/share/LiteOS_Lab/network/dtls/mbedtls/mbedtls-2.16.2/library/rsa.c ****         return( MBEDTLS_ERR_RSA_KEY_GEN_FAILED + ret );
 629:/home/xingli/share/LiteOS_Lab/network/dtls/mbedtls/mbedtls-2.16.2/library/rsa.c ****     }
 630:/home/xingli/share/LiteOS_Lab/network/dtls/mbedtls/mbedtls-2.16.2/library/rsa.c **** 
 631:/home/xingli/share/LiteOS_Lab/network/dtls/mbedtls/mbedtls-2.16.2/library/rsa.c ****     return( 0 );
 632:/home/xingli/share/LiteOS_Lab/network/dtls/mbedtls/mbedtls-2.16.2/library/rsa.c **** }
 633:/home/xingli/share/LiteOS_Lab/network/dtls/mbedtls/mbedtls-2.16.2/library/rsa.c **** 
 634:/home/xingli/share/LiteOS_Lab/network/dtls/mbedtls/mbedtls-2.16.2/library/rsa.c **** #endif /* MBEDTLS_GENPRIME */
 635:/home/xingli/share/LiteOS_Lab/network/dtls/mbedtls/mbedtls-2.16.2/library/rsa.c **** 
 636:/home/xingli/share/LiteOS_Lab/network/dtls/mbedtls/mbedtls-2.16.2/library/rsa.c **** /*
 637:/home/xingli/share/LiteOS_Lab/network/dtls/mbedtls/mbedtls-2.16.2/library/rsa.c ****  * Check a public RSA key
 638:/home/xingli/share/LiteOS_Lab/network/dtls/mbedtls/mbedtls-2.16.2/library/rsa.c ****  */
 639:/home/xingli/share/LiteOS_Lab/network/dtls/mbedtls/mbedtls-2.16.2/library/rsa.c **** int mbedtls_rsa_check_pubkey( const mbedtls_rsa_context *ctx )
 640:/home/xingli/share/LiteOS_Lab/network/dtls/mbedtls/mbedtls-2.16.2/library/rsa.c **** {
 1619              		.loc 1 640 1
 1620              		.cfi_startproc
 1621 0000 F30F1EFA 		endbr64
 1622 0004 55       		pushq	%rbp
 1623              	.LCFI33:
 1624              		.cfi_def_cfa_offset 16
 1625              		.cfi_offset 6, -16
 1626 0005 4889E5   		movq	%rsp, %rbp
 1627              	.LCFI34:
 1628              		.cfi_def_cfa_register 6
 1629 0008 4883EC20 		subq	$32, %rsp
 1630 000c 48897DE8 		movq	%rdi, -24(%rbp)
 1631              		.loc 1 640 1
 1632 0010 64488B04 		movq	%fs:40, %rax
 1632      25280000 
 1632      00
 1633 0019 488945F8 		movq	%rax, -8(%rbp)
 1634 001d 31C0     		xorl	%eax, %eax
 641:/home/xingli/share/LiteOS_Lab/network/dtls/mbedtls/mbedtls-2.16.2/library/rsa.c ****     RSA_VALIDATE_RET( ctx != NULL );
 642:/home/xingli/share/LiteOS_Lab/network/dtls/mbedtls/mbedtls-2.16.2/library/rsa.c **** 
 643:/home/xingli/share/LiteOS_Lab/network/dtls/mbedtls/mbedtls-2.16.2/library/rsa.c ****     if( rsa_check_context( ctx, 0 /* public */, 0 /* no blinding */ ) != 0 )
 1635              		.loc 1 643 9
 1636 001f 488B45E8 		movq	-24(%rbp), %rax
 1637 0023 BA000000 		movl	$0, %edx
 1637      00
GAS LISTING /tmp/cc6OITWc.s 			page 46


 1638 0028 BE000000 		movl	$0, %esi
 1638      00
 1639 002d 4889C7   		movq	%rax, %rdi
 1640 0030 E8000000 		call	rsa_check_context
 1640      00
 1641              		.loc 1 643 7
 1642 0035 85C0     		testl	%eax, %eax
 1643 0037 7407     		je	.L112
 644:/home/xingli/share/LiteOS_Lab/network/dtls/mbedtls/mbedtls-2.16.2/library/rsa.c ****         return( MBEDTLS_ERR_RSA_KEY_CHECK_FAILED );
 1644              		.loc 1 644 15
 1645 0039 B800BEFF 		movl	$-16896, %eax
 1645      FF
 1646 003e EB77     		jmp	.L113
 1647              	.L112:
 645:/home/xingli/share/LiteOS_Lab/network/dtls/mbedtls/mbedtls-2.16.2/library/rsa.c **** 
 646:/home/xingli/share/LiteOS_Lab/network/dtls/mbedtls/mbedtls-2.16.2/library/rsa.c ****     if( mbedtls_mpi_bitlen( &ctx->N ) < 128 )
 1648              		.loc 1 646 9
 1649 0040 488B45E8 		movq	-24(%rbp), %rax
 1650 0044 4883C010 		addq	$16, %rax
 1651 0048 4889C7   		movq	%rax, %rdi
 1652 004b E8000000 		call	mbedtls_mpi_bitlen@PLT
 1652      00
 1653              		.loc 1 646 7
 1654 0050 4883F87F 		cmpq	$127, %rax
 1655 0054 7707     		ja	.L114
 647:/home/xingli/share/LiteOS_Lab/network/dtls/mbedtls/mbedtls-2.16.2/library/rsa.c ****     {
 648:/home/xingli/share/LiteOS_Lab/network/dtls/mbedtls/mbedtls-2.16.2/library/rsa.c ****         return( MBEDTLS_ERR_RSA_KEY_CHECK_FAILED );
 1656              		.loc 1 648 15
 1657 0056 B800BEFF 		movl	$-16896, %eax
 1657      FF
 1658 005b EB5A     		jmp	.L113
 1659              	.L114:
 649:/home/xingli/share/LiteOS_Lab/network/dtls/mbedtls/mbedtls-2.16.2/library/rsa.c ****     }
 650:/home/xingli/share/LiteOS_Lab/network/dtls/mbedtls/mbedtls-2.16.2/library/rsa.c **** 
 651:/home/xingli/share/LiteOS_Lab/network/dtls/mbedtls/mbedtls-2.16.2/library/rsa.c ****     if( mbedtls_mpi_get_bit( &ctx->E, 0 ) == 0 ||
 1660              		.loc 1 651 9
 1661 005d 488B45E8 		movq	-24(%rbp), %rax
 1662 0061 4883C028 		addq	$40, %rax
 1663 0065 BE000000 		movl	$0, %esi
 1663      00
 1664 006a 4889C7   		movq	%rax, %rdi
 1665 006d E8000000 		call	mbedtls_mpi_get_bit@PLT
 1665      00
 1666              		.loc 1 651 7
 1667 0072 85C0     		testl	%eax, %eax
 1668 0074 7435     		je	.L115
 652:/home/xingli/share/LiteOS_Lab/network/dtls/mbedtls/mbedtls-2.16.2/library/rsa.c ****         mbedtls_mpi_bitlen( &ctx->E )     < 2  ||
 1669              		.loc 1 652 9 discriminator 1
 1670 0076 488B45E8 		movq	-24(%rbp), %rax
 1671 007a 4883C028 		addq	$40, %rax
 1672 007e 4889C7   		movq	%rax, %rdi
 1673 0081 E8000000 		call	mbedtls_mpi_bitlen@PLT
 1673      00
 651:/home/xingli/share/LiteOS_Lab/network/dtls/mbedtls/mbedtls-2.16.2/library/rsa.c ****         mbedtls_mpi_bitlen( &ctx->E )     < 2  ||
 1674              		.loc 1 651 48 discriminator 1
 1675 0086 4883F801 		cmpq	$1, %rax
 1676 008a 761F     		jbe	.L115
GAS LISTING /tmp/cc6OITWc.s 			page 47


 653:/home/xingli/share/LiteOS_Lab/network/dtls/mbedtls/mbedtls-2.16.2/library/rsa.c ****         mbedtls_mpi_cmp_mpi( &ctx->E, &ctx->N ) >= 0 )
 1677              		.loc 1 653 9
 1678 008c 488B45E8 		movq	-24(%rbp), %rax
 1679 0090 488D5010 		leaq	16(%rax), %rdx
 1680 0094 488B45E8 		movq	-24(%rbp), %rax
 1681 0098 4883C028 		addq	$40, %rax
 1682 009c 4889D6   		movq	%rdx, %rsi
 1683 009f 4889C7   		movq	%rax, %rdi
 1684 00a2 E8000000 		call	mbedtls_mpi_cmp_mpi@PLT
 1684      00
 652:/home/xingli/share/LiteOS_Lab/network/dtls/mbedtls/mbedtls-2.16.2/library/rsa.c ****         mbedtls_mpi_bitlen( &ctx->E )     < 2  ||
 1685              		.loc 1 652 48
 1686 00a7 85C0     		testl	%eax, %eax
 1687 00a9 7807     		js	.L116
 1688              	.L115:
 654:/home/xingli/share/LiteOS_Lab/network/dtls/mbedtls/mbedtls-2.16.2/library/rsa.c ****     {
 655:/home/xingli/share/LiteOS_Lab/network/dtls/mbedtls/mbedtls-2.16.2/library/rsa.c ****         return( MBEDTLS_ERR_RSA_KEY_CHECK_FAILED );
 1689              		.loc 1 655 15
 1690 00ab B800BEFF 		movl	$-16896, %eax
 1690      FF
 1691 00b0 EB05     		jmp	.L113
 1692              	.L116:
 656:/home/xingli/share/LiteOS_Lab/network/dtls/mbedtls/mbedtls-2.16.2/library/rsa.c ****     }
 657:/home/xingli/share/LiteOS_Lab/network/dtls/mbedtls/mbedtls-2.16.2/library/rsa.c **** 
 658:/home/xingli/share/LiteOS_Lab/network/dtls/mbedtls/mbedtls-2.16.2/library/rsa.c ****     return( 0 );
 1693              		.loc 1 658 11
 1694 00b2 B8000000 		movl	$0, %eax
 1694      00
 1695              	.L113:
 659:/home/xingli/share/LiteOS_Lab/network/dtls/mbedtls/mbedtls-2.16.2/library/rsa.c **** }
 1696              		.loc 1 659 1
 1697 00b7 488B4DF8 		movq	-8(%rbp), %rcx
 1698 00bb 6448330C 		xorq	%fs:40, %rcx
 1698      25280000 
 1698      00
 1699 00c4 7405     		je	.L117
 1700 00c6 E8000000 		call	__stack_chk_fail@PLT
 1700      00
 1701              	.L117:
 1702 00cb C9       		leave
 1703              	.LCFI35:
 1704              		.cfi_def_cfa 7, 8
 1705 00cc C3       		ret
 1706              		.cfi_endproc
 1707              	.LFE27:
 1709              		.section	.text.mbedtls_rsa_check_privkey,"ax",@progbits
 1710              		.globl	mbedtls_rsa_check_privkey
 1712              	mbedtls_rsa_check_privkey:
 1713              	.LFB28:
 660:/home/xingli/share/LiteOS_Lab/network/dtls/mbedtls/mbedtls-2.16.2/library/rsa.c **** 
 661:/home/xingli/share/LiteOS_Lab/network/dtls/mbedtls/mbedtls-2.16.2/library/rsa.c **** /*
 662:/home/xingli/share/LiteOS_Lab/network/dtls/mbedtls/mbedtls-2.16.2/library/rsa.c ****  * Check for the consistency of all fields in an RSA private key context
 663:/home/xingli/share/LiteOS_Lab/network/dtls/mbedtls/mbedtls-2.16.2/library/rsa.c ****  */
 664:/home/xingli/share/LiteOS_Lab/network/dtls/mbedtls/mbedtls-2.16.2/library/rsa.c **** int mbedtls_rsa_check_privkey( const mbedtls_rsa_context *ctx )
 665:/home/xingli/share/LiteOS_Lab/network/dtls/mbedtls/mbedtls-2.16.2/library/rsa.c **** {
 1714              		.loc 1 665 1
 1715              		.cfi_startproc
GAS LISTING /tmp/cc6OITWc.s 			page 48


 1716 0000 F30F1EFA 		endbr64
 1717 0004 55       		pushq	%rbp
 1718              	.LCFI36:
 1719              		.cfi_def_cfa_offset 16
 1720              		.cfi_offset 6, -16
 1721 0005 4889E5   		movq	%rsp, %rbp
 1722              	.LCFI37:
 1723              		.cfi_def_cfa_register 6
 1724 0008 4883EC20 		subq	$32, %rsp
 1725 000c 48897DE8 		movq	%rdi, -24(%rbp)
 1726              		.loc 1 665 1
 1727 0010 64488B04 		movq	%fs:40, %rax
 1727      25280000 
 1727      00
 1728 0019 488945F8 		movq	%rax, -8(%rbp)
 1729 001d 31C0     		xorl	%eax, %eax
 666:/home/xingli/share/LiteOS_Lab/network/dtls/mbedtls/mbedtls-2.16.2/library/rsa.c ****     RSA_VALIDATE_RET( ctx != NULL );
 667:/home/xingli/share/LiteOS_Lab/network/dtls/mbedtls/mbedtls-2.16.2/library/rsa.c **** 
 668:/home/xingli/share/LiteOS_Lab/network/dtls/mbedtls/mbedtls-2.16.2/library/rsa.c ****     if( mbedtls_rsa_check_pubkey( ctx ) != 0 ||
 1730              		.loc 1 668 9
 1731 001f 488B45E8 		movq	-24(%rbp), %rax
 1732 0023 4889C7   		movq	%rax, %rdi
 1733 0026 E8000000 		call	mbedtls_rsa_check_pubkey
 1733      00
 1734              		.loc 1 668 7
 1735 002b 85C0     		testl	%eax, %eax
 1736 002d 751A     		jne	.L119
 669:/home/xingli/share/LiteOS_Lab/network/dtls/mbedtls/mbedtls-2.16.2/library/rsa.c ****         rsa_check_context( ctx, 1 /* private */, 1 /* blinding */ ) != 0 )
 1737              		.loc 1 669 9 discriminator 1
 1738 002f 488B45E8 		movq	-24(%rbp), %rax
 1739 0033 BA010000 		movl	$1, %edx
 1739      00
 1740 0038 BE010000 		movl	$1, %esi
 1740      00
 1741 003d 4889C7   		movq	%rax, %rdi
 1742 0040 E8000000 		call	rsa_check_context
 1742      00
 668:/home/xingli/share/LiteOS_Lab/network/dtls/mbedtls/mbedtls-2.16.2/library/rsa.c ****         rsa_check_context( ctx, 1 /* private */, 1 /* blinding */ ) != 0 )
 1743              		.loc 1 668 46 discriminator 1
 1744 0045 85C0     		testl	%eax, %eax
 1745 0047 740A     		je	.L120
 1746              	.L119:
 670:/home/xingli/share/LiteOS_Lab/network/dtls/mbedtls/mbedtls-2.16.2/library/rsa.c ****     {
 671:/home/xingli/share/LiteOS_Lab/network/dtls/mbedtls/mbedtls-2.16.2/library/rsa.c ****         return( MBEDTLS_ERR_RSA_KEY_CHECK_FAILED );
 1747              		.loc 1 671 15
 1748 0049 B800BEFF 		movl	$-16896, %eax
 1748      FF
 1749 004e E9A50000 		jmp	.L121
 1749      00
 1750              	.L120:
 672:/home/xingli/share/LiteOS_Lab/network/dtls/mbedtls/mbedtls-2.16.2/library/rsa.c ****     }
 673:/home/xingli/share/LiteOS_Lab/network/dtls/mbedtls/mbedtls-2.16.2/library/rsa.c **** 
 674:/home/xingli/share/LiteOS_Lab/network/dtls/mbedtls/mbedtls-2.16.2/library/rsa.c ****     if( mbedtls_rsa_validate_params( &ctx->N, &ctx->P, &ctx->Q,
 1751              		.loc 1 674 9
 1752 0053 488B45E8 		movq	-24(%rbp), %rax
 1753 0057 488D7828 		leaq	40(%rax), %rdi
 1754 005b 488B45E8 		movq	-24(%rbp), %rax
GAS LISTING /tmp/cc6OITWc.s 			page 49


 1755 005f 488D4840 		leaq	64(%rax), %rcx
 1756 0063 488B45E8 		movq	-24(%rbp), %rax
 1757 0067 488D5070 		leaq	112(%rax), %rdx
 1758 006b 488B45E8 		movq	-24(%rbp), %rax
 1759 006f 488D7058 		leaq	88(%rax), %rsi
 1760 0073 488B45E8 		movq	-24(%rbp), %rax
 1761 0077 4883C010 		addq	$16, %rax
 1762 007b 4883EC08 		subq	$8, %rsp
 1763 007f 6A00     		pushq	$0
 1764 0081 41B90000 		movl	$0, %r9d
 1764      0000
 1765 0087 4989F8   		movq	%rdi, %r8
 1766 008a 4889C7   		movq	%rax, %rdi
 1767 008d E8000000 		call	mbedtls_rsa_validate_params@PLT
 1767      00
 1768 0092 4883C410 		addq	$16, %rsp
 1769              		.loc 1 674 7
 1770 0096 85C0     		testl	%eax, %eax
 1771 0098 7407     		je	.L122
 675:/home/xingli/share/LiteOS_Lab/network/dtls/mbedtls/mbedtls-2.16.2/library/rsa.c ****                                      &ctx->D, &ctx->E, NULL, NULL ) != 0 )
 676:/home/xingli/share/LiteOS_Lab/network/dtls/mbedtls/mbedtls-2.16.2/library/rsa.c ****     {
 677:/home/xingli/share/LiteOS_Lab/network/dtls/mbedtls/mbedtls-2.16.2/library/rsa.c ****         return( MBEDTLS_ERR_RSA_KEY_CHECK_FAILED );
 1772              		.loc 1 677 15
 1773 009a B800BEFF 		movl	$-16896, %eax
 1773      FF
 1774 009f EB57     		jmp	.L121
 1775              	.L122:
 678:/home/xingli/share/LiteOS_Lab/network/dtls/mbedtls/mbedtls-2.16.2/library/rsa.c ****     }
 679:/home/xingli/share/LiteOS_Lab/network/dtls/mbedtls/mbedtls-2.16.2/library/rsa.c **** 
 680:/home/xingli/share/LiteOS_Lab/network/dtls/mbedtls/mbedtls-2.16.2/library/rsa.c **** #if !defined(MBEDTLS_RSA_NO_CRT)
 681:/home/xingli/share/LiteOS_Lab/network/dtls/mbedtls/mbedtls-2.16.2/library/rsa.c ****     else if( mbedtls_rsa_validate_crt( &ctx->P, &ctx->Q, &ctx->D,
 1776              		.loc 1 681 14
 1777 00a1 488B45E8 		movq	-24(%rbp), %rax
 1778 00a5 4C8D80B8 		leaq	184(%rax), %r8
 1778      000000
 1779 00ac 488B45E8 		movq	-24(%rbp), %rax
 1780 00b0 488DB8A0 		leaq	160(%rax), %rdi
 1780      000000
 1781 00b7 488B45E8 		movq	-24(%rbp), %rax
 1782 00bb 488D8888 		leaq	136(%rax), %rcx
 1782      000000
 1783 00c2 488B45E8 		movq	-24(%rbp), %rax
 1784 00c6 488D5040 		leaq	64(%rax), %rdx
 1785 00ca 488B45E8 		movq	-24(%rbp), %rax
 1786 00ce 488D7070 		leaq	112(%rax), %rsi
 1787 00d2 488B45E8 		movq	-24(%rbp), %rax
 1788 00d6 4883C058 		addq	$88, %rax
 1789 00da 4D89C1   		movq	%r8, %r9
 1790 00dd 4989F8   		movq	%rdi, %r8
 1791 00e0 4889C7   		movq	%rax, %rdi
 1792 00e3 E8000000 		call	mbedtls_rsa_validate_crt@PLT
 1792      00
 1793              		.loc 1 681 12
 1794 00e8 85C0     		testl	%eax, %eax
 1795 00ea 7407     		je	.L123
 682:/home/xingli/share/LiteOS_Lab/network/dtls/mbedtls/mbedtls-2.16.2/library/rsa.c ****                                        &ctx->DP, &ctx->DQ, &ctx->QP ) != 0 )
 683:/home/xingli/share/LiteOS_Lab/network/dtls/mbedtls/mbedtls-2.16.2/library/rsa.c ****     {
GAS LISTING /tmp/cc6OITWc.s 			page 50


 684:/home/xingli/share/LiteOS_Lab/network/dtls/mbedtls/mbedtls-2.16.2/library/rsa.c ****         return( MBEDTLS_ERR_RSA_KEY_CHECK_FAILED );
 1796              		.loc 1 684 15
 1797 00ec B800BEFF 		movl	$-16896, %eax
 1797      FF
 1798 00f1 EB05     		jmp	.L121
 1799              	.L123:
 685:/home/xingli/share/LiteOS_Lab/network/dtls/mbedtls/mbedtls-2.16.2/library/rsa.c ****     }
 686:/home/xingli/share/LiteOS_Lab/network/dtls/mbedtls/mbedtls-2.16.2/library/rsa.c **** #endif
 687:/home/xingli/share/LiteOS_Lab/network/dtls/mbedtls/mbedtls-2.16.2/library/rsa.c **** 
 688:/home/xingli/share/LiteOS_Lab/network/dtls/mbedtls/mbedtls-2.16.2/library/rsa.c ****     return( 0 );
 1800              		.loc 1 688 11
 1801 00f3 B8000000 		movl	$0, %eax
 1801      00
 1802              	.L121:
 689:/home/xingli/share/LiteOS_Lab/network/dtls/mbedtls/mbedtls-2.16.2/library/rsa.c **** }
 1803              		.loc 1 689 1
 1804 00f8 488B4DF8 		movq	-8(%rbp), %rcx
 1805 00fc 6448330C 		xorq	%fs:40, %rcx
 1805      25280000 
 1805      00
 1806 0105 7405     		je	.L124
 1807 0107 E8000000 		call	__stack_chk_fail@PLT
 1807      00
 1808              	.L124:
 1809 010c C9       		leave
 1810              	.LCFI38:
 1811              		.cfi_def_cfa 7, 8
 1812 010d C3       		ret
 1813              		.cfi_endproc
 1814              	.LFE28:
 1816              		.section	.text.mbedtls_rsa_check_pub_priv,"ax",@progbits
 1817              		.globl	mbedtls_rsa_check_pub_priv
 1819              	mbedtls_rsa_check_pub_priv:
 1820              	.LFB29:
 690:/home/xingli/share/LiteOS_Lab/network/dtls/mbedtls/mbedtls-2.16.2/library/rsa.c **** 
 691:/home/xingli/share/LiteOS_Lab/network/dtls/mbedtls/mbedtls-2.16.2/library/rsa.c **** /*
 692:/home/xingli/share/LiteOS_Lab/network/dtls/mbedtls/mbedtls-2.16.2/library/rsa.c ****  * Check if contexts holding a public and private key match
 693:/home/xingli/share/LiteOS_Lab/network/dtls/mbedtls/mbedtls-2.16.2/library/rsa.c ****  */
 694:/home/xingli/share/LiteOS_Lab/network/dtls/mbedtls/mbedtls-2.16.2/library/rsa.c **** int mbedtls_rsa_check_pub_priv( const mbedtls_rsa_context *pub,
 695:/home/xingli/share/LiteOS_Lab/network/dtls/mbedtls/mbedtls-2.16.2/library/rsa.c ****                                 const mbedtls_rsa_context *prv )
 696:/home/xingli/share/LiteOS_Lab/network/dtls/mbedtls/mbedtls-2.16.2/library/rsa.c **** {
 1821              		.loc 1 696 1
 1822              		.cfi_startproc
 1823 0000 F30F1EFA 		endbr64
 1824 0004 55       		pushq	%rbp
 1825              	.LCFI39:
 1826              		.cfi_def_cfa_offset 16
 1827              		.cfi_offset 6, -16
 1828 0005 4889E5   		movq	%rsp, %rbp
 1829              	.LCFI40:
 1830              		.cfi_def_cfa_register 6
 1831 0008 4883EC20 		subq	$32, %rsp
 1832 000c 48897DE8 		movq	%rdi, -24(%rbp)
 1833 0010 488975E0 		movq	%rsi, -32(%rbp)
 1834              		.loc 1 696 1
 1835 0014 64488B04 		movq	%fs:40, %rax
 1835      25280000 
GAS LISTING /tmp/cc6OITWc.s 			page 51


 1835      00
 1836 001d 488945F8 		movq	%rax, -8(%rbp)
 1837 0021 31C0     		xorl	%eax, %eax
 697:/home/xingli/share/LiteOS_Lab/network/dtls/mbedtls/mbedtls-2.16.2/library/rsa.c ****     RSA_VALIDATE_RET( pub != NULL );
 698:/home/xingli/share/LiteOS_Lab/network/dtls/mbedtls/mbedtls-2.16.2/library/rsa.c ****     RSA_VALIDATE_RET( prv != NULL );
 699:/home/xingli/share/LiteOS_Lab/network/dtls/mbedtls/mbedtls-2.16.2/library/rsa.c **** 
 700:/home/xingli/share/LiteOS_Lab/network/dtls/mbedtls/mbedtls-2.16.2/library/rsa.c ****     if( mbedtls_rsa_check_pubkey( pub )  != 0 ||
 1838              		.loc 1 700 9
 1839 0023 488B45E8 		movq	-24(%rbp), %rax
 1840 0027 4889C7   		movq	%rax, %rdi
 1841 002a E8000000 		call	mbedtls_rsa_check_pubkey
 1841      00
 1842              		.loc 1 700 7
 1843 002f 85C0     		testl	%eax, %eax
 1844 0031 7510     		jne	.L126
 701:/home/xingli/share/LiteOS_Lab/network/dtls/mbedtls/mbedtls-2.16.2/library/rsa.c ****         mbedtls_rsa_check_privkey( prv ) != 0 )
 1845              		.loc 1 701 9 discriminator 1
 1846 0033 488B45E0 		movq	-32(%rbp), %rax
 1847 0037 4889C7   		movq	%rax, %rdi
 1848 003a E8000000 		call	mbedtls_rsa_check_privkey
 1848      00
 700:/home/xingli/share/LiteOS_Lab/network/dtls/mbedtls/mbedtls-2.16.2/library/rsa.c ****         mbedtls_rsa_check_privkey( prv ) != 0 )
 1849              		.loc 1 700 47 discriminator 1
 1850 003f 85C0     		testl	%eax, %eax
 1851 0041 7407     		je	.L127
 1852              	.L126:
 702:/home/xingli/share/LiteOS_Lab/network/dtls/mbedtls/mbedtls-2.16.2/library/rsa.c ****     {
 703:/home/xingli/share/LiteOS_Lab/network/dtls/mbedtls/mbedtls-2.16.2/library/rsa.c ****         return( MBEDTLS_ERR_RSA_KEY_CHECK_FAILED );
 1853              		.loc 1 703 15
 1854 0043 B800BEFF 		movl	$-16896, %eax
 1854      FF
 1855 0048 EB4A     		jmp	.L128
 1856              	.L127:
 704:/home/xingli/share/LiteOS_Lab/network/dtls/mbedtls/mbedtls-2.16.2/library/rsa.c ****     }
 705:/home/xingli/share/LiteOS_Lab/network/dtls/mbedtls/mbedtls-2.16.2/library/rsa.c **** 
 706:/home/xingli/share/LiteOS_Lab/network/dtls/mbedtls/mbedtls-2.16.2/library/rsa.c ****     if( mbedtls_mpi_cmp_mpi( &pub->N, &prv->N ) != 0 ||
 1857              		.loc 1 706 9
 1858 004a 488B45E0 		movq	-32(%rbp), %rax
 1859 004e 488D5010 		leaq	16(%rax), %rdx
 1860 0052 488B45E8 		movq	-24(%rbp), %rax
 1861 0056 4883C010 		addq	$16, %rax
 1862 005a 4889D6   		movq	%rdx, %rsi
 1863 005d 4889C7   		movq	%rax, %rdi
 1864 0060 E8000000 		call	mbedtls_mpi_cmp_mpi@PLT
 1864      00
 1865              		.loc 1 706 7
 1866 0065 85C0     		testl	%eax, %eax
 1867 0067 751F     		jne	.L129
 707:/home/xingli/share/LiteOS_Lab/network/dtls/mbedtls/mbedtls-2.16.2/library/rsa.c ****         mbedtls_mpi_cmp_mpi( &pub->E, &prv->E ) != 0 )
 1868              		.loc 1 707 9 discriminator 1
 1869 0069 488B45E0 		movq	-32(%rbp), %rax
 1870 006d 488D5028 		leaq	40(%rax), %rdx
 1871 0071 488B45E8 		movq	-24(%rbp), %rax
 1872 0075 4883C028 		addq	$40, %rax
 1873 0079 4889D6   		movq	%rdx, %rsi
 1874 007c 4889C7   		movq	%rax, %rdi
 1875 007f E8000000 		call	mbedtls_mpi_cmp_mpi@PLT
GAS LISTING /tmp/cc6OITWc.s 			page 52


 1875      00
 706:/home/xingli/share/LiteOS_Lab/network/dtls/mbedtls/mbedtls-2.16.2/library/rsa.c ****         mbedtls_mpi_cmp_mpi( &pub->E, &prv->E ) != 0 )
 1876              		.loc 1 706 54 discriminator 1
 1877 0084 85C0     		testl	%eax, %eax
 1878 0086 7407     		je	.L130
 1879              	.L129:
 708:/home/xingli/share/LiteOS_Lab/network/dtls/mbedtls/mbedtls-2.16.2/library/rsa.c ****     {
 709:/home/xingli/share/LiteOS_Lab/network/dtls/mbedtls/mbedtls-2.16.2/library/rsa.c ****         return( MBEDTLS_ERR_RSA_KEY_CHECK_FAILED );
 1880              		.loc 1 709 15
 1881 0088 B800BEFF 		movl	$-16896, %eax
 1881      FF
 1882 008d EB05     		jmp	.L128
 1883              	.L130:
 710:/home/xingli/share/LiteOS_Lab/network/dtls/mbedtls/mbedtls-2.16.2/library/rsa.c ****     }
 711:/home/xingli/share/LiteOS_Lab/network/dtls/mbedtls/mbedtls-2.16.2/library/rsa.c **** 
 712:/home/xingli/share/LiteOS_Lab/network/dtls/mbedtls/mbedtls-2.16.2/library/rsa.c ****     return( 0 );
 1884              		.loc 1 712 11
 1885 008f B8000000 		movl	$0, %eax
 1885      00
 1886              	.L128:
 713:/home/xingli/share/LiteOS_Lab/network/dtls/mbedtls/mbedtls-2.16.2/library/rsa.c **** }
 1887              		.loc 1 713 1
 1888 0094 488B4DF8 		movq	-8(%rbp), %rcx
 1889 0098 6448330C 		xorq	%fs:40, %rcx
 1889      25280000 
 1889      00
 1890 00a1 7405     		je	.L131
 1891 00a3 E8000000 		call	__stack_chk_fail@PLT
 1891      00
 1892              	.L131:
 1893 00a8 C9       		leave
 1894              	.LCFI41:
 1895              		.cfi_def_cfa 7, 8
 1896 00a9 C3       		ret
 1897              		.cfi_endproc
 1898              	.LFE29:
 1900              		.section	.text.mbedtls_rsa_public,"ax",@progbits
 1901              		.globl	mbedtls_rsa_public
 1903              	mbedtls_rsa_public:
 1904              	.LFB30:
 714:/home/xingli/share/LiteOS_Lab/network/dtls/mbedtls/mbedtls-2.16.2/library/rsa.c **** 
 715:/home/xingli/share/LiteOS_Lab/network/dtls/mbedtls/mbedtls-2.16.2/library/rsa.c **** /*
 716:/home/xingli/share/LiteOS_Lab/network/dtls/mbedtls/mbedtls-2.16.2/library/rsa.c ****  * Do an RSA public key operation
 717:/home/xingli/share/LiteOS_Lab/network/dtls/mbedtls/mbedtls-2.16.2/library/rsa.c ****  */
 718:/home/xingli/share/LiteOS_Lab/network/dtls/mbedtls/mbedtls-2.16.2/library/rsa.c **** int mbedtls_rsa_public( mbedtls_rsa_context *ctx,
 719:/home/xingli/share/LiteOS_Lab/network/dtls/mbedtls/mbedtls-2.16.2/library/rsa.c ****                 const unsigned char *input,
 720:/home/xingli/share/LiteOS_Lab/network/dtls/mbedtls/mbedtls-2.16.2/library/rsa.c ****                 unsigned char *output )
 721:/home/xingli/share/LiteOS_Lab/network/dtls/mbedtls/mbedtls-2.16.2/library/rsa.c **** {
 1905              		.loc 1 721 1
 1906              		.cfi_startproc
 1907 0000 F30F1EFA 		endbr64
 1908 0004 55       		pushq	%rbp
 1909              	.LCFI42:
 1910              		.cfi_def_cfa_offset 16
 1911              		.cfi_offset 6, -16
 1912 0005 4889E5   		movq	%rsp, %rbp
 1913              	.LCFI43:
GAS LISTING /tmp/cc6OITWc.s 			page 53


 1914              		.cfi_def_cfa_register 6
 1915 0008 4883EC50 		subq	$80, %rsp
 1916 000c 48897DC8 		movq	%rdi, -56(%rbp)
 1917 0010 488975C0 		movq	%rsi, -64(%rbp)
 1918 0014 488955B8 		movq	%rdx, -72(%rbp)
 1919              		.loc 1 721 1
 1920 0018 64488B04 		movq	%fs:40, %rax
 1920      25280000 
 1920      00
 1921 0021 488945F8 		movq	%rax, -8(%rbp)
 1922 0025 31C0     		xorl	%eax, %eax
 722:/home/xingli/share/LiteOS_Lab/network/dtls/mbedtls/mbedtls-2.16.2/library/rsa.c ****     int ret;
 723:/home/xingli/share/LiteOS_Lab/network/dtls/mbedtls/mbedtls-2.16.2/library/rsa.c ****     size_t olen;
 724:/home/xingli/share/LiteOS_Lab/network/dtls/mbedtls/mbedtls-2.16.2/library/rsa.c ****     mbedtls_mpi T;
 725:/home/xingli/share/LiteOS_Lab/network/dtls/mbedtls/mbedtls-2.16.2/library/rsa.c ****     RSA_VALIDATE_RET( ctx != NULL );
 726:/home/xingli/share/LiteOS_Lab/network/dtls/mbedtls/mbedtls-2.16.2/library/rsa.c ****     RSA_VALIDATE_RET( input != NULL );
 727:/home/xingli/share/LiteOS_Lab/network/dtls/mbedtls/mbedtls-2.16.2/library/rsa.c ****     RSA_VALIDATE_RET( output != NULL );
 728:/home/xingli/share/LiteOS_Lab/network/dtls/mbedtls/mbedtls-2.16.2/library/rsa.c **** 
 729:/home/xingli/share/LiteOS_Lab/network/dtls/mbedtls/mbedtls-2.16.2/library/rsa.c ****     if( rsa_check_context( ctx, 0 /* public */, 0 /* no blinding */ ) )
 1923              		.loc 1 729 9
 1924 0027 488B45C8 		movq	-56(%rbp), %rax
 1925 002b BA000000 		movl	$0, %edx
 1925      00
 1926 0030 BE000000 		movl	$0, %esi
 1926      00
 1927 0035 4889C7   		movq	%rax, %rdi
 1928 0038 E8000000 		call	rsa_check_context
 1928      00
 1929              		.loc 1 729 7
 1930 003d 85C0     		testl	%eax, %eax
 1931 003f 740A     		je	.L133
 730:/home/xingli/share/LiteOS_Lab/network/dtls/mbedtls/mbedtls-2.16.2/library/rsa.c ****         return( MBEDTLS_ERR_RSA_BAD_INPUT_DATA );
 1932              		.loc 1 730 15
 1933 0041 B880BFFF 		movl	$-16512, %eax
 1933      FF
 1934 0046 E9E00000 		jmp	.L140
 1934      00
 1935              	.L133:
 731:/home/xingli/share/LiteOS_Lab/network/dtls/mbedtls/mbedtls-2.16.2/library/rsa.c **** 
 732:/home/xingli/share/LiteOS_Lab/network/dtls/mbedtls/mbedtls-2.16.2/library/rsa.c ****     mbedtls_mpi_init( &T );
 1936              		.loc 1 732 5
 1937 004b 488D45E0 		leaq	-32(%rbp), %rax
 1938 004f 4889C7   		movq	%rax, %rdi
 1939 0052 E8000000 		call	mbedtls_mpi_init@PLT
 1939      00
 733:/home/xingli/share/LiteOS_Lab/network/dtls/mbedtls/mbedtls-2.16.2/library/rsa.c **** 
 734:/home/xingli/share/LiteOS_Lab/network/dtls/mbedtls/mbedtls-2.16.2/library/rsa.c **** #if defined(MBEDTLS_THREADING_C)
 735:/home/xingli/share/LiteOS_Lab/network/dtls/mbedtls/mbedtls-2.16.2/library/rsa.c ****     if( ( ret = mbedtls_mutex_lock( &ctx->mutex ) ) != 0 )
 736:/home/xingli/share/LiteOS_Lab/network/dtls/mbedtls/mbedtls-2.16.2/library/rsa.c ****         return( ret );
 737:/home/xingli/share/LiteOS_Lab/network/dtls/mbedtls/mbedtls-2.16.2/library/rsa.c **** #endif
 738:/home/xingli/share/LiteOS_Lab/network/dtls/mbedtls/mbedtls-2.16.2/library/rsa.c **** 
 739:/home/xingli/share/LiteOS_Lab/network/dtls/mbedtls/mbedtls-2.16.2/library/rsa.c ****     MBEDTLS_MPI_CHK( mbedtls_mpi_read_binary( &T, input, ctx->len ) );
 1940              		.loc 1 739 5
 1941 0057 488B45C8 		movq	-56(%rbp), %rax
 1942 005b 488B5008 		movq	8(%rax), %rdx
 1943 005f 488B4DC0 		movq	-64(%rbp), %rcx
 1944 0063 488D45E0 		leaq	-32(%rbp), %rax
GAS LISTING /tmp/cc6OITWc.s 			page 54


 1945 0067 4889CE   		movq	%rcx, %rsi
 1946 006a 4889C7   		movq	%rax, %rdi
 1947 006d E8000000 		call	mbedtls_mpi_read_binary@PLT
 1947      00
 1948 0072 8945D4   		movl	%eax, -44(%rbp)
 1949 0075 837DD400 		cmpl	$0, -44(%rbp)
 1950 0079 0F858700 		jne	.L142
 1950      0000
 740:/home/xingli/share/LiteOS_Lab/network/dtls/mbedtls/mbedtls-2.16.2/library/rsa.c **** 
 741:/home/xingli/share/LiteOS_Lab/network/dtls/mbedtls/mbedtls-2.16.2/library/rsa.c ****     if( mbedtls_mpi_cmp_mpi( &T, &ctx->N ) >= 0 )
 1951              		.loc 1 741 34
 1952 007f 488B45C8 		movq	-56(%rbp), %rax
 1953 0083 488D5010 		leaq	16(%rax), %rdx
 1954              		.loc 1 741 9
 1955 0087 488D45E0 		leaq	-32(%rbp), %rax
 1956 008b 4889D6   		movq	%rdx, %rsi
 1957 008e 4889C7   		movq	%rax, %rdi
 1958 0091 E8000000 		call	mbedtls_mpi_cmp_mpi@PLT
 1958      00
 1959              		.loc 1 741 7
 1960 0096 85C0     		testl	%eax, %eax
 1961 0098 7809     		js	.L137
 742:/home/xingli/share/LiteOS_Lab/network/dtls/mbedtls/mbedtls-2.16.2/library/rsa.c ****     {
 743:/home/xingli/share/LiteOS_Lab/network/dtls/mbedtls/mbedtls-2.16.2/library/rsa.c ****         ret = MBEDTLS_ERR_MPI_BAD_INPUT_DATA;
 1962              		.loc 1 743 13
 1963 009a C745D4FC 		movl	$-4, -44(%rbp)
 1963      FFFFFF
 744:/home/xingli/share/LiteOS_Lab/network/dtls/mbedtls/mbedtls-2.16.2/library/rsa.c ****         goto cleanup;
 1964              		.loc 1 744 9
 1965 00a1 EB67     		jmp	.L136
 1966              	.L137:
 745:/home/xingli/share/LiteOS_Lab/network/dtls/mbedtls/mbedtls-2.16.2/library/rsa.c ****     }
 746:/home/xingli/share/LiteOS_Lab/network/dtls/mbedtls/mbedtls-2.16.2/library/rsa.c **** 
 747:/home/xingli/share/LiteOS_Lab/network/dtls/mbedtls/mbedtls-2.16.2/library/rsa.c ****     olen = ctx->len;
 1967              		.loc 1 747 10
 1968 00a3 488B45C8 		movq	-56(%rbp), %rax
 1969 00a7 488B4008 		movq	8(%rax), %rax
 1970 00ab 488945D8 		movq	%rax, -40(%rbp)
 748:/home/xingli/share/LiteOS_Lab/network/dtls/mbedtls/mbedtls-2.16.2/library/rsa.c ****     MBEDTLS_MPI_CHK( mbedtls_mpi_exp_mod( &T, &T, &ctx->E, &ctx->N, &ctx->RN ) );
 1971              		.loc 1 748 5
 1972 00af 488B45C8 		movq	-56(%rbp), %rax
 1973 00b3 488DB8D0 		leaq	208(%rax), %rdi
 1973      000000
 1974 00ba 488B45C8 		movq	-56(%rbp), %rax
 1975 00be 488D4810 		leaq	16(%rax), %rcx
 1976 00c2 488B45C8 		movq	-56(%rbp), %rax
 1977 00c6 488D5028 		leaq	40(%rax), %rdx
 1978 00ca 488D75E0 		leaq	-32(%rbp), %rsi
 1979 00ce 488D45E0 		leaq	-32(%rbp), %rax
 1980 00d2 4989F8   		movq	%rdi, %r8
 1981 00d5 4889C7   		movq	%rax, %rdi
 1982 00d8 E8000000 		call	mbedtls_mpi_exp_mod@PLT
 1982      00
 1983 00dd 8945D4   		movl	%eax, -44(%rbp)
 1984 00e0 837DD400 		cmpl	$0, -44(%rbp)
 1985 00e4 7523     		jne	.L143
 749:/home/xingli/share/LiteOS_Lab/network/dtls/mbedtls/mbedtls-2.16.2/library/rsa.c ****     MBEDTLS_MPI_CHK( mbedtls_mpi_write_binary( &T, output, olen ) );
GAS LISTING /tmp/cc6OITWc.s 			page 55


 1986              		.loc 1 749 5
 1987 00e6 488B55D8 		movq	-40(%rbp), %rdx
 1988 00ea 488B4DB8 		movq	-72(%rbp), %rcx
 1989 00ee 488D45E0 		leaq	-32(%rbp), %rax
 1990 00f2 4889CE   		movq	%rcx, %rsi
 1991 00f5 4889C7   		movq	%rax, %rdi
 1992 00f8 E8000000 		call	mbedtls_mpi_write_binary@PLT
 1992      00
 1993 00fd 8945D4   		movl	%eax, -44(%rbp)
 1994 0100 837DD400 		cmpl	$0, -44(%rbp)
 750:/home/xingli/share/LiteOS_Lab/network/dtls/mbedtls/mbedtls-2.16.2/library/rsa.c **** 
 751:/home/xingli/share/LiteOS_Lab/network/dtls/mbedtls/mbedtls-2.16.2/library/rsa.c **** cleanup:
 1995              		.loc 1 751 1
 1996 0104 EB04     		jmp	.L136
 1997              	.L142:
 739:/home/xingli/share/LiteOS_Lab/network/dtls/mbedtls/mbedtls-2.16.2/library/rsa.c **** 
 1998              		.loc 1 739 5
 1999 0106 90       		nop
 2000 0107 EB01     		jmp	.L136
 2001              	.L143:
 748:/home/xingli/share/LiteOS_Lab/network/dtls/mbedtls/mbedtls-2.16.2/library/rsa.c ****     MBEDTLS_MPI_CHK( mbedtls_mpi_write_binary( &T, output, olen ) );
 2002              		.loc 1 748 5
 2003 0109 90       		nop
 2004              	.L136:
 752:/home/xingli/share/LiteOS_Lab/network/dtls/mbedtls/mbedtls-2.16.2/library/rsa.c **** #if defined(MBEDTLS_THREADING_C)
 753:/home/xingli/share/LiteOS_Lab/network/dtls/mbedtls/mbedtls-2.16.2/library/rsa.c ****     if( mbedtls_mutex_unlock( &ctx->mutex ) != 0 )
 754:/home/xingli/share/LiteOS_Lab/network/dtls/mbedtls/mbedtls-2.16.2/library/rsa.c ****         return( MBEDTLS_ERR_THREADING_MUTEX_ERROR );
 755:/home/xingli/share/LiteOS_Lab/network/dtls/mbedtls/mbedtls-2.16.2/library/rsa.c **** #endif
 756:/home/xingli/share/LiteOS_Lab/network/dtls/mbedtls/mbedtls-2.16.2/library/rsa.c **** 
 757:/home/xingli/share/LiteOS_Lab/network/dtls/mbedtls/mbedtls-2.16.2/library/rsa.c ****     mbedtls_mpi_free( &T );
 2005              		.loc 1 757 5
 2006 010a 488D45E0 		leaq	-32(%rbp), %rax
 2007 010e 4889C7   		movq	%rax, %rdi
 2008 0111 E8000000 		call	mbedtls_mpi_free@PLT
 2008      00
 758:/home/xingli/share/LiteOS_Lab/network/dtls/mbedtls/mbedtls-2.16.2/library/rsa.c **** 
 759:/home/xingli/share/LiteOS_Lab/network/dtls/mbedtls/mbedtls-2.16.2/library/rsa.c ****     if( ret != 0 )
 2009              		.loc 1 759 7
 2010 0116 837DD400 		cmpl	$0, -44(%rbp)
 2011 011a 740A     		je	.L139
 760:/home/xingli/share/LiteOS_Lab/network/dtls/mbedtls/mbedtls-2.16.2/library/rsa.c ****         return( MBEDTLS_ERR_RSA_PUBLIC_FAILED + ret );
 2012              		.loc 1 760 47
 2013 011c 8B45D4   		movl	-44(%rbp), %eax
 2014 011f 2D804200 		subl	$17024, %eax
 2014      00
 2015 0124 EB05     		jmp	.L140
 2016              	.L139:
 761:/home/xingli/share/LiteOS_Lab/network/dtls/mbedtls/mbedtls-2.16.2/library/rsa.c **** 
 762:/home/xingli/share/LiteOS_Lab/network/dtls/mbedtls/mbedtls-2.16.2/library/rsa.c ****     return( 0 );
 2017              		.loc 1 762 11
 2018 0126 B8000000 		movl	$0, %eax
 2018      00
 2019              	.L140:
 763:/home/xingli/share/LiteOS_Lab/network/dtls/mbedtls/mbedtls-2.16.2/library/rsa.c **** }
 2020              		.loc 1 763 1 discriminator 1
 2021 012b 488B4DF8 		movq	-8(%rbp), %rcx
 2022 012f 6448330C 		xorq	%fs:40, %rcx
GAS LISTING /tmp/cc6OITWc.s 			page 56


 2022      25280000 
 2022      00
 2023 0138 7405     		je	.L141
 2024              		.loc 1 763 1 is_stmt 0
 2025 013a E8000000 		call	__stack_chk_fail@PLT
 2025      00
 2026              	.L141:
 2027 013f C9       		leave
 2028              	.LCFI44:
 2029              		.cfi_def_cfa 7, 8
 2030 0140 C3       		ret
 2031              		.cfi_endproc
 2032              	.LFE30:
 2034              		.section	.text.rsa_prepare_blinding,"ax",@progbits
 2036              	rsa_prepare_blinding:
 2037              	.LFB31:
 764:/home/xingli/share/LiteOS_Lab/network/dtls/mbedtls/mbedtls-2.16.2/library/rsa.c **** 
 765:/home/xingli/share/LiteOS_Lab/network/dtls/mbedtls/mbedtls-2.16.2/library/rsa.c **** /*
 766:/home/xingli/share/LiteOS_Lab/network/dtls/mbedtls/mbedtls-2.16.2/library/rsa.c ****  * Generate or update blinding values, see section 10 of:
 767:/home/xingli/share/LiteOS_Lab/network/dtls/mbedtls/mbedtls-2.16.2/library/rsa.c ****  *  KOCHER, Paul C. Timing attacks on implementations of Diffie-Hellman, RSA,
 768:/home/xingli/share/LiteOS_Lab/network/dtls/mbedtls/mbedtls-2.16.2/library/rsa.c ****  *  DSS, and other systems. In : Advances in Cryptology-CRYPTO'96. Springer
 769:/home/xingli/share/LiteOS_Lab/network/dtls/mbedtls/mbedtls-2.16.2/library/rsa.c ****  *  Berlin Heidelberg, 1996. p. 104-113.
 770:/home/xingli/share/LiteOS_Lab/network/dtls/mbedtls/mbedtls-2.16.2/library/rsa.c ****  */
 771:/home/xingli/share/LiteOS_Lab/network/dtls/mbedtls/mbedtls-2.16.2/library/rsa.c **** static int rsa_prepare_blinding( mbedtls_rsa_context *ctx,
 772:/home/xingli/share/LiteOS_Lab/network/dtls/mbedtls/mbedtls-2.16.2/library/rsa.c ****                  int (*f_rng)(void *, unsigned char *, size_t), void *p_rng )
 773:/home/xingli/share/LiteOS_Lab/network/dtls/mbedtls/mbedtls-2.16.2/library/rsa.c **** {
 2038              		.loc 1 773 1 is_stmt 1
 2039              		.cfi_startproc
 2040 0000 F30F1EFA 		endbr64
 2041 0004 55       		pushq	%rbp
 2042              	.LCFI45:
 2043              		.cfi_def_cfa_offset 16
 2044              		.cfi_offset 6, -16
 2045 0005 4889E5   		movq	%rsp, %rbp
 2046              	.LCFI46:
 2047              		.cfi_def_cfa_register 6
 2048 0008 4883EC30 		subq	$48, %rsp
 2049 000c 48897DE8 		movq	%rdi, -24(%rbp)
 2050 0010 488975E0 		movq	%rsi, -32(%rbp)
 2051 0014 488955D8 		movq	%rdx, -40(%rbp)
 2052              		.loc 1 773 1
 2053 0018 64488B04 		movq	%fs:40, %rax
 2053      25280000 
 2053      00
 2054 0021 488945F8 		movq	%rax, -8(%rbp)
 2055 0025 31C0     		xorl	%eax, %eax
 774:/home/xingli/share/LiteOS_Lab/network/dtls/mbedtls/mbedtls-2.16.2/library/rsa.c ****     int ret, count = 0;
 2056              		.loc 1 774 14
 2057 0027 C745F400 		movl	$0, -12(%rbp)
 2057      000000
 775:/home/xingli/share/LiteOS_Lab/network/dtls/mbedtls/mbedtls-2.16.2/library/rsa.c **** 
 776:/home/xingli/share/LiteOS_Lab/network/dtls/mbedtls/mbedtls-2.16.2/library/rsa.c ****     if( ctx->Vf.p != NULL )
 2058              		.loc 1 776 16
 2059 002e 488B45E8 		movq	-24(%rbp), %rax
 2060 0032 488B8040 		movq	320(%rax), %rax
 2060      010000
 2061              		.loc 1 776 7
GAS LISTING /tmp/cc6OITWc.s 			page 57


 2062 0039 4885C0   		testq	%rax, %rax
 2063 003c 0F84D900 		je	.L145
 2063      0000
 777:/home/xingli/share/LiteOS_Lab/network/dtls/mbedtls/mbedtls-2.16.2/library/rsa.c ****     {
 778:/home/xingli/share/LiteOS_Lab/network/dtls/mbedtls/mbedtls-2.16.2/library/rsa.c ****         /* We already have blinding values, just update them by squaring */
 779:/home/xingli/share/LiteOS_Lab/network/dtls/mbedtls/mbedtls-2.16.2/library/rsa.c ****         MBEDTLS_MPI_CHK( mbedtls_mpi_mul_mpi( &ctx->Vi, &ctx->Vi, &ctx->Vi ) );
 2064              		.loc 1 779 9
 2065 0042 488B45E8 		movq	-24(%rbp), %rax
 2066 0046 488D9018 		leaq	280(%rax), %rdx
 2066      010000
 2067 004d 488B45E8 		movq	-24(%rbp), %rax
 2068 0051 488D8818 		leaq	280(%rax), %rcx
 2068      010000
 2069 0058 488B45E8 		movq	-24(%rbp), %rax
 2070 005c 48051801 		addq	$280, %rax
 2070      0000
 2071 0062 4889CE   		movq	%rcx, %rsi
 2072 0065 4889C7   		movq	%rax, %rdi
 2073 0068 E8000000 		call	mbedtls_mpi_mul_mpi@PLT
 2073      00
 2074 006d 8945F0   		movl	%eax, -16(%rbp)
 2075 0070 837DF000 		cmpl	$0, -16(%rbp)
 2076 0074 0F85B901 		jne	.L157
 2076      0000
 780:/home/xingli/share/LiteOS_Lab/network/dtls/mbedtls/mbedtls-2.16.2/library/rsa.c ****         MBEDTLS_MPI_CHK( mbedtls_mpi_mod_mpi( &ctx->Vi, &ctx->Vi, &ctx->N ) );
 2077              		.loc 1 780 9
 2078 007a 488B45E8 		movq	-24(%rbp), %rax
 2079 007e 488D5010 		leaq	16(%rax), %rdx
 2080 0082 488B45E8 		movq	-24(%rbp), %rax
 2081 0086 488D8818 		leaq	280(%rax), %rcx
 2081      010000
 2082 008d 488B45E8 		movq	-24(%rbp), %rax
 2083 0091 48051801 		addq	$280, %rax
 2083      0000
 2084 0097 4889CE   		movq	%rcx, %rsi
 2085 009a 4889C7   		movq	%rax, %rdi
 2086 009d E8000000 		call	mbedtls_mpi_mod_mpi@PLT
 2086      00
 2087 00a2 8945F0   		movl	%eax, -16(%rbp)
 2088 00a5 837DF000 		cmpl	$0, -16(%rbp)
 2089 00a9 0F858701 		jne	.L158
 2089      0000
 781:/home/xingli/share/LiteOS_Lab/network/dtls/mbedtls/mbedtls-2.16.2/library/rsa.c ****         MBEDTLS_MPI_CHK( mbedtls_mpi_mul_mpi( &ctx->Vf, &ctx->Vf, &ctx->Vf ) );
 2090              		.loc 1 781 9
 2091 00af 488B45E8 		movq	-24(%rbp), %rax
 2092 00b3 488D9030 		leaq	304(%rax), %rdx
 2092      010000
 2093 00ba 488B45E8 		movq	-24(%rbp), %rax
 2094 00be 488D8830 		leaq	304(%rax), %rcx
 2094      010000
 2095 00c5 488B45E8 		movq	-24(%rbp), %rax
 2096 00c9 48053001 		addq	$304, %rax
 2096      0000
 2097 00cf 4889CE   		movq	%rcx, %rsi
 2098 00d2 4889C7   		movq	%rax, %rdi
 2099 00d5 E8000000 		call	mbedtls_mpi_mul_mpi@PLT
 2099      00
GAS LISTING /tmp/cc6OITWc.s 			page 58


 2100 00da 8945F0   		movl	%eax, -16(%rbp)
 2101 00dd 837DF000 		cmpl	$0, -16(%rbp)
 2102 00e1 0F855201 		jne	.L159
 2102      0000
 782:/home/xingli/share/LiteOS_Lab/network/dtls/mbedtls/mbedtls-2.16.2/library/rsa.c ****         MBEDTLS_MPI_CHK( mbedtls_mpi_mod_mpi( &ctx->Vf, &ctx->Vf, &ctx->N ) );
 2103              		.loc 1 782 9
 2104 00e7 488B45E8 		movq	-24(%rbp), %rax
 2105 00eb 488D5010 		leaq	16(%rax), %rdx
 2106 00ef 488B45E8 		movq	-24(%rbp), %rax
 2107 00f3 488D8830 		leaq	304(%rax), %rcx
 2107      010000
 2108 00fa 488B45E8 		movq	-24(%rbp), %rax
 2109 00fe 48053001 		addq	$304, %rax
 2109      0000
 2110 0104 4889CE   		movq	%rcx, %rsi
 2111 0107 4889C7   		movq	%rax, %rdi
 2112 010a E8000000 		call	mbedtls_mpi_mod_mpi@PLT
 2112      00
 2113 010f 8945F0   		movl	%eax, -16(%rbp)
 2114 0112 837DF000 		cmpl	$0, -16(%rbp)
 783:/home/xingli/share/LiteOS_Lab/network/dtls/mbedtls/mbedtls-2.16.2/library/rsa.c **** 
 784:/home/xingli/share/LiteOS_Lab/network/dtls/mbedtls/mbedtls-2.16.2/library/rsa.c ****         goto cleanup;
 2115              		.loc 1 784 9
 2116 0116 E9280100 		jmp	.L147
 2116      00
 2117              	.L145:
 785:/home/xingli/share/LiteOS_Lab/network/dtls/mbedtls/mbedtls-2.16.2/library/rsa.c ****     }
 786:/home/xingli/share/LiteOS_Lab/network/dtls/mbedtls/mbedtls-2.16.2/library/rsa.c **** 
 787:/home/xingli/share/LiteOS_Lab/network/dtls/mbedtls/mbedtls-2.16.2/library/rsa.c ****     /* Unblinding value: Vf = random number, invertible mod N */
 788:/home/xingli/share/LiteOS_Lab/network/dtls/mbedtls/mbedtls-2.16.2/library/rsa.c ****     do {
 789:/home/xingli/share/LiteOS_Lab/network/dtls/mbedtls/mbedtls-2.16.2/library/rsa.c ****         if( count++ > 10 )
 2118              		.loc 1 789 18
 2119 011b 8B45F4   		movl	-12(%rbp), %eax
 2120 011e 8D5001   		leal	1(%rax), %edx
 2121 0121 8955F4   		movl	%edx, -12(%rbp)
 2122              		.loc 1 789 11
 2123 0124 83F80A   		cmpl	$10, %eax
 2124 0127 7E0A     		jle	.L151
 790:/home/xingli/share/LiteOS_Lab/network/dtls/mbedtls/mbedtls-2.16.2/library/rsa.c ****             return( MBEDTLS_ERR_RSA_RNG_FAILED );
 2125              		.loc 1 790 19
 2126 0129 B880BBFF 		movl	$-17536, %eax
 2126      FF
 2127 012e E9130100 		jmp	.L152
 2127      00
 2128              	.L151:
 791:/home/xingli/share/LiteOS_Lab/network/dtls/mbedtls/mbedtls-2.16.2/library/rsa.c **** 
 792:/home/xingli/share/LiteOS_Lab/network/dtls/mbedtls/mbedtls-2.16.2/library/rsa.c ****         MBEDTLS_MPI_CHK( mbedtls_mpi_fill_random( &ctx->Vf, ctx->len - 1, f_rng, p_rng ) );
 2129              		.loc 1 792 9
 2130 0133 488B45E8 		movq	-24(%rbp), %rax
 2131 0137 488B4008 		movq	8(%rax), %rax
 2132 013b 488D70FF 		leaq	-1(%rax), %rsi
 2133 013f 488B45E8 		movq	-24(%rbp), %rax
 2134 0143 488DB830 		leaq	304(%rax), %rdi
 2134      010000
 2135 014a 488B55D8 		movq	-40(%rbp), %rdx
 2136 014e 488B45E0 		movq	-32(%rbp), %rax
 2137 0152 4889D1   		movq	%rdx, %rcx
GAS LISTING /tmp/cc6OITWc.s 			page 59


 2138 0155 4889C2   		movq	%rax, %rdx
 2139 0158 E8000000 		call	mbedtls_mpi_fill_random@PLT
 2139      00
 2140 015d 8945F0   		movl	%eax, -16(%rbp)
 2141 0160 837DF000 		cmpl	$0, -16(%rbp)
 2142 0164 0F85D200 		jne	.L160
 2142      0000
 793:/home/xingli/share/LiteOS_Lab/network/dtls/mbedtls/mbedtls-2.16.2/library/rsa.c ****         MBEDTLS_MPI_CHK( mbedtls_mpi_gcd( &ctx->Vi, &ctx->Vf, &ctx->N ) );
 2143              		.loc 1 793 9
 2144 016a 488B45E8 		movq	-24(%rbp), %rax
 2145 016e 488D5010 		leaq	16(%rax), %rdx
 2146 0172 488B45E8 		movq	-24(%rbp), %rax
 2147 0176 488D8830 		leaq	304(%rax), %rcx
 2147      010000
 2148 017d 488B45E8 		movq	-24(%rbp), %rax
 2149 0181 48051801 		addq	$280, %rax
 2149      0000
 2150 0187 4889CE   		movq	%rcx, %rsi
 2151 018a 4889C7   		movq	%rax, %rdi
 2152 018d E8000000 		call	mbedtls_mpi_gcd@PLT
 2152      00
 2153 0192 8945F0   		movl	%eax, -16(%rbp)
 2154 0195 837DF000 		cmpl	$0, -16(%rbp)
 2155 0199 0F85A000 		jne	.L161
 2155      0000
 794:/home/xingli/share/LiteOS_Lab/network/dtls/mbedtls/mbedtls-2.16.2/library/rsa.c ****     } while( mbedtls_mpi_cmp_int( &ctx->Vi, 1 ) != 0 );
 2156              		.loc 1 794 35
 2157 019f 488B45E8 		movq	-24(%rbp), %rax
 2158 01a3 48051801 		addq	$280, %rax
 2158      0000
 2159              		.loc 1 794 14
 2160 01a9 BE010000 		movl	$1, %esi
 2160      00
 2161 01ae 4889C7   		movq	%rax, %rdi
 2162 01b1 E8000000 		call	mbedtls_mpi_cmp_int@PLT
 2162      00
 2163              		.loc 1 794 5
 2164 01b6 85C0     		testl	%eax, %eax
 2165 01b8 0F855DFF 		jne	.L145
 2165      FFFF
 795:/home/xingli/share/LiteOS_Lab/network/dtls/mbedtls/mbedtls-2.16.2/library/rsa.c **** 
 796:/home/xingli/share/LiteOS_Lab/network/dtls/mbedtls/mbedtls-2.16.2/library/rsa.c ****     /* Blinding value: Vi =  Vf^(-e) mod N */
 797:/home/xingli/share/LiteOS_Lab/network/dtls/mbedtls/mbedtls-2.16.2/library/rsa.c ****     MBEDTLS_MPI_CHK( mbedtls_mpi_inv_mod( &ctx->Vi, &ctx->Vf, &ctx->N ) );
 2166              		.loc 1 797 5
 2167 01be 488B45E8 		movq	-24(%rbp), %rax
 2168 01c2 488D5010 		leaq	16(%rax), %rdx
 2169 01c6 488B45E8 		movq	-24(%rbp), %rax
 2170 01ca 488D8830 		leaq	304(%rax), %rcx
 2170      010000
 2171 01d1 488B45E8 		movq	-24(%rbp), %rax
 2172 01d5 48051801 		addq	$280, %rax
 2172      0000
 2173 01db 4889CE   		movq	%rcx, %rsi
 2174 01de 4889C7   		movq	%rax, %rdi
 2175 01e1 E8000000 		call	mbedtls_mpi_inv_mod@PLT
 2175      00
 2176 01e6 8945F0   		movl	%eax, -16(%rbp)
GAS LISTING /tmp/cc6OITWc.s 			page 60


 2177 01e9 837DF000 		cmpl	$0, -16(%rbp)
 2178 01ed 7553     		jne	.L162
 798:/home/xingli/share/LiteOS_Lab/network/dtls/mbedtls/mbedtls-2.16.2/library/rsa.c ****     MBEDTLS_MPI_CHK( mbedtls_mpi_exp_mod( &ctx->Vi, &ctx->Vi, &ctx->E, &ctx->N, &ctx->RN ) );
 2179              		.loc 1 798 5
 2180 01ef 488B45E8 		movq	-24(%rbp), %rax
 2181 01f3 488DB8D0 		leaq	208(%rax), %rdi
 2181      000000
 2182 01fa 488B45E8 		movq	-24(%rbp), %rax
 2183 01fe 488D4810 		leaq	16(%rax), %rcx
 2184 0202 488B45E8 		movq	-24(%rbp), %rax
 2185 0206 488D5028 		leaq	40(%rax), %rdx
 2186 020a 488B45E8 		movq	-24(%rbp), %rax
 2187 020e 488DB018 		leaq	280(%rax), %rsi
 2187      010000
 2188 0215 488B45E8 		movq	-24(%rbp), %rax
 2189 0219 48051801 		addq	$280, %rax
 2189      0000
 2190 021f 4989F8   		movq	%rdi, %r8
 2191 0222 4889C7   		movq	%rax, %rdi
 2192 0225 E8000000 		call	mbedtls_mpi_exp_mod@PLT
 2192      00
 2193 022a 8945F0   		movl	%eax, -16(%rbp)
 2194 022d 837DF000 		cmpl	$0, -16(%rbp)
 799:/home/xingli/share/LiteOS_Lab/network/dtls/mbedtls/mbedtls-2.16.2/library/rsa.c **** 
 800:/home/xingli/share/LiteOS_Lab/network/dtls/mbedtls/mbedtls-2.16.2/library/rsa.c **** 
 801:/home/xingli/share/LiteOS_Lab/network/dtls/mbedtls/mbedtls-2.16.2/library/rsa.c **** cleanup:
 2195              		.loc 1 801 1
 2196 0231 EB10     		jmp	.L147
 2197              	.L157:
 779:/home/xingli/share/LiteOS_Lab/network/dtls/mbedtls/mbedtls-2.16.2/library/rsa.c ****         MBEDTLS_MPI_CHK( mbedtls_mpi_mod_mpi( &ctx->Vi, &ctx->Vi, &ctx->N ) );
 2198              		.loc 1 779 9
 2199 0233 90       		nop
 2200 0234 EB0D     		jmp	.L147
 2201              	.L158:
 780:/home/xingli/share/LiteOS_Lab/network/dtls/mbedtls/mbedtls-2.16.2/library/rsa.c ****         MBEDTLS_MPI_CHK( mbedtls_mpi_mul_mpi( &ctx->Vf, &ctx->Vf, &ctx->Vf ) );
 2202              		.loc 1 780 9
 2203 0236 90       		nop
 2204 0237 EB0A     		jmp	.L147
 2205              	.L159:
 781:/home/xingli/share/LiteOS_Lab/network/dtls/mbedtls/mbedtls-2.16.2/library/rsa.c ****         MBEDTLS_MPI_CHK( mbedtls_mpi_mod_mpi( &ctx->Vf, &ctx->Vf, &ctx->N ) );
 2206              		.loc 1 781 9
 2207 0239 90       		nop
 2208 023a EB07     		jmp	.L147
 2209              	.L160:
 792:/home/xingli/share/LiteOS_Lab/network/dtls/mbedtls/mbedtls-2.16.2/library/rsa.c ****         MBEDTLS_MPI_CHK( mbedtls_mpi_gcd( &ctx->Vi, &ctx->Vf, &ctx->N ) );
 2210              		.loc 1 792 9
 2211 023c 90       		nop
 2212 023d EB04     		jmp	.L147
 2213              	.L161:
 793:/home/xingli/share/LiteOS_Lab/network/dtls/mbedtls/mbedtls-2.16.2/library/rsa.c ****     } while( mbedtls_mpi_cmp_int( &ctx->Vi, 1 ) != 0 );
 2214              		.loc 1 793 9
 2215 023f 90       		nop
 2216 0240 EB01     		jmp	.L147
 2217              	.L162:
 797:/home/xingli/share/LiteOS_Lab/network/dtls/mbedtls/mbedtls-2.16.2/library/rsa.c ****     MBEDTLS_MPI_CHK( mbedtls_mpi_exp_mod( &ctx->Vi, &ctx->Vi, &ctx->E, &ctx->N, &ctx->RN ) );
 2218              		.loc 1 797 5
 2219 0242 90       		nop
GAS LISTING /tmp/cc6OITWc.s 			page 61


 2220              	.L147:
 802:/home/xingli/share/LiteOS_Lab/network/dtls/mbedtls/mbedtls-2.16.2/library/rsa.c ****     return( ret );
 2221              		.loc 1 802 11
 2222 0243 8B45F0   		movl	-16(%rbp), %eax
 2223              	.L152:
 803:/home/xingli/share/LiteOS_Lab/network/dtls/mbedtls/mbedtls-2.16.2/library/rsa.c **** }
 2224              		.loc 1 803 1
 2225 0246 488B75F8 		movq	-8(%rbp), %rsi
 2226 024a 64483334 		xorq	%fs:40, %rsi
 2226      25280000 
 2226      00
 2227 0253 7405     		je	.L156
 2228 0255 E8000000 		call	__stack_chk_fail@PLT
 2228      00
 2229              	.L156:
 2230 025a C9       		leave
 2231              	.LCFI47:
 2232              		.cfi_def_cfa 7, 8
 2233 025b C3       		ret
 2234              		.cfi_endproc
 2235              	.LFE31:
 2237              		.section	.text.mbedtls_rsa_private,"ax",@progbits
 2238              		.globl	mbedtls_rsa_private
 2240              	mbedtls_rsa_private:
 2241              	.LFB32:
 804:/home/xingli/share/LiteOS_Lab/network/dtls/mbedtls/mbedtls-2.16.2/library/rsa.c **** 
 805:/home/xingli/share/LiteOS_Lab/network/dtls/mbedtls/mbedtls-2.16.2/library/rsa.c **** /*
 806:/home/xingli/share/LiteOS_Lab/network/dtls/mbedtls/mbedtls-2.16.2/library/rsa.c ****  * Exponent blinding supposed to prevent side-channel attacks using multiple
 807:/home/xingli/share/LiteOS_Lab/network/dtls/mbedtls/mbedtls-2.16.2/library/rsa.c ****  * traces of measurements to recover the RSA key. The more collisions are there,
 808:/home/xingli/share/LiteOS_Lab/network/dtls/mbedtls/mbedtls-2.16.2/library/rsa.c ****  * the more bits of the key can be recovered. See [3].
 809:/home/xingli/share/LiteOS_Lab/network/dtls/mbedtls/mbedtls-2.16.2/library/rsa.c ****  *
 810:/home/xingli/share/LiteOS_Lab/network/dtls/mbedtls/mbedtls-2.16.2/library/rsa.c ****  * Collecting n collisions with m bit long blinding value requires 2^(m-m/n)
 811:/home/xingli/share/LiteOS_Lab/network/dtls/mbedtls/mbedtls-2.16.2/library/rsa.c ****  * observations on avarage.
 812:/home/xingli/share/LiteOS_Lab/network/dtls/mbedtls/mbedtls-2.16.2/library/rsa.c ****  *
 813:/home/xingli/share/LiteOS_Lab/network/dtls/mbedtls/mbedtls-2.16.2/library/rsa.c ****  * For example with 28 byte blinding to achieve 2 collisions the adversary has
 814:/home/xingli/share/LiteOS_Lab/network/dtls/mbedtls/mbedtls-2.16.2/library/rsa.c ****  * to make 2^112 observations on avarage.
 815:/home/xingli/share/LiteOS_Lab/network/dtls/mbedtls/mbedtls-2.16.2/library/rsa.c ****  *
 816:/home/xingli/share/LiteOS_Lab/network/dtls/mbedtls/mbedtls-2.16.2/library/rsa.c ****  * (With the currently (as of 2017 April) known best algorithms breaking 2048
 817:/home/xingli/share/LiteOS_Lab/network/dtls/mbedtls/mbedtls-2.16.2/library/rsa.c ****  * bit RSA requires approximately as much time as trying out 2^112 random keys.
 818:/home/xingli/share/LiteOS_Lab/network/dtls/mbedtls/mbedtls-2.16.2/library/rsa.c ****  * Thus in this sense with 28 byte blinding the security is not reduced by
 819:/home/xingli/share/LiteOS_Lab/network/dtls/mbedtls/mbedtls-2.16.2/library/rsa.c ****  * side-channel attacks like the one in [3])
 820:/home/xingli/share/LiteOS_Lab/network/dtls/mbedtls/mbedtls-2.16.2/library/rsa.c ****  *
 821:/home/xingli/share/LiteOS_Lab/network/dtls/mbedtls/mbedtls-2.16.2/library/rsa.c ****  * This countermeasure does not help if the key recovery is possible with a
 822:/home/xingli/share/LiteOS_Lab/network/dtls/mbedtls/mbedtls-2.16.2/library/rsa.c ****  * single trace.
 823:/home/xingli/share/LiteOS_Lab/network/dtls/mbedtls/mbedtls-2.16.2/library/rsa.c ****  */
 824:/home/xingli/share/LiteOS_Lab/network/dtls/mbedtls/mbedtls-2.16.2/library/rsa.c **** #define RSA_EXPONENT_BLINDING 28
 825:/home/xingli/share/LiteOS_Lab/network/dtls/mbedtls/mbedtls-2.16.2/library/rsa.c **** 
 826:/home/xingli/share/LiteOS_Lab/network/dtls/mbedtls/mbedtls-2.16.2/library/rsa.c **** /*
 827:/home/xingli/share/LiteOS_Lab/network/dtls/mbedtls/mbedtls-2.16.2/library/rsa.c ****  * Do an RSA private key operation
 828:/home/xingli/share/LiteOS_Lab/network/dtls/mbedtls/mbedtls-2.16.2/library/rsa.c ****  */
 829:/home/xingli/share/LiteOS_Lab/network/dtls/mbedtls/mbedtls-2.16.2/library/rsa.c **** int mbedtls_rsa_private( mbedtls_rsa_context *ctx,
 830:/home/xingli/share/LiteOS_Lab/network/dtls/mbedtls/mbedtls-2.16.2/library/rsa.c ****                  int (*f_rng)(void *, unsigned char *, size_t),
 831:/home/xingli/share/LiteOS_Lab/network/dtls/mbedtls/mbedtls-2.16.2/library/rsa.c ****                  void *p_rng,
 832:/home/xingli/share/LiteOS_Lab/network/dtls/mbedtls/mbedtls-2.16.2/library/rsa.c ****                  const unsigned char *input,
 833:/home/xingli/share/LiteOS_Lab/network/dtls/mbedtls/mbedtls-2.16.2/library/rsa.c ****                  unsigned char *output )
 834:/home/xingli/share/LiteOS_Lab/network/dtls/mbedtls/mbedtls-2.16.2/library/rsa.c **** {
 2242              		.loc 1 834 1
GAS LISTING /tmp/cc6OITWc.s 			page 62


 2243              		.cfi_startproc
 2244 0000 F30F1EFA 		endbr64
 2245 0004 55       		pushq	%rbp
 2246              	.LCFI48:
 2247              		.cfi_def_cfa_offset 16
 2248              		.cfi_offset 6, -16
 2249 0005 4889E5   		movq	%rsp, %rbp
 2250              	.LCFI49:
 2251              		.cfi_def_cfa_register 6
 2252 0008 4881EC90 		subq	$400, %rsp
 2252      010000
 2253 000f 4889BD98 		movq	%rdi, -360(%rbp)
 2253      FEFFFF
 2254 0016 4889B590 		movq	%rsi, -368(%rbp)
 2254      FEFFFF
 2255 001d 48899588 		movq	%rdx, -376(%rbp)
 2255      FEFFFF
 2256 0024 48898D80 		movq	%rcx, -384(%rbp)
 2256      FEFFFF
 2257 002b 4C898578 		movq	%r8, -392(%rbp)
 2257      FEFFFF
 2258              		.loc 1 834 1
 2259 0032 64488B04 		movq	%fs:40, %rax
 2259      25280000 
 2259      00
 2260 003b 488945F8 		movq	%rax, -8(%rbp)
 2261 003f 31C0     		xorl	%eax, %eax
 835:/home/xingli/share/LiteOS_Lab/network/dtls/mbedtls/mbedtls-2.16.2/library/rsa.c ****     int ret;
 836:/home/xingli/share/LiteOS_Lab/network/dtls/mbedtls/mbedtls-2.16.2/library/rsa.c ****     size_t olen;
 837:/home/xingli/share/LiteOS_Lab/network/dtls/mbedtls/mbedtls-2.16.2/library/rsa.c **** 
 838:/home/xingli/share/LiteOS_Lab/network/dtls/mbedtls/mbedtls-2.16.2/library/rsa.c ****     /* Temporary holding the result */
 839:/home/xingli/share/LiteOS_Lab/network/dtls/mbedtls/mbedtls-2.16.2/library/rsa.c ****     mbedtls_mpi T;
 840:/home/xingli/share/LiteOS_Lab/network/dtls/mbedtls/mbedtls-2.16.2/library/rsa.c **** 
 841:/home/xingli/share/LiteOS_Lab/network/dtls/mbedtls/mbedtls-2.16.2/library/rsa.c ****     /* Temporaries holding P-1, Q-1 and the
 842:/home/xingli/share/LiteOS_Lab/network/dtls/mbedtls/mbedtls-2.16.2/library/rsa.c ****      * exponent blinding factor, respectively. */
 843:/home/xingli/share/LiteOS_Lab/network/dtls/mbedtls/mbedtls-2.16.2/library/rsa.c ****     mbedtls_mpi P1, Q1, R;
 844:/home/xingli/share/LiteOS_Lab/network/dtls/mbedtls/mbedtls-2.16.2/library/rsa.c **** 
 845:/home/xingli/share/LiteOS_Lab/network/dtls/mbedtls/mbedtls-2.16.2/library/rsa.c **** #if !defined(MBEDTLS_RSA_NO_CRT)
 846:/home/xingli/share/LiteOS_Lab/network/dtls/mbedtls/mbedtls-2.16.2/library/rsa.c ****     /* Temporaries holding the results mod p resp. mod q. */
 847:/home/xingli/share/LiteOS_Lab/network/dtls/mbedtls/mbedtls-2.16.2/library/rsa.c ****     mbedtls_mpi TP, TQ;
 848:/home/xingli/share/LiteOS_Lab/network/dtls/mbedtls/mbedtls-2.16.2/library/rsa.c **** 
 849:/home/xingli/share/LiteOS_Lab/network/dtls/mbedtls/mbedtls-2.16.2/library/rsa.c ****     /* Temporaries holding the blinded exponents for
 850:/home/xingli/share/LiteOS_Lab/network/dtls/mbedtls/mbedtls-2.16.2/library/rsa.c ****      * the mod p resp. mod q computation (if used). */
 851:/home/xingli/share/LiteOS_Lab/network/dtls/mbedtls/mbedtls-2.16.2/library/rsa.c ****     mbedtls_mpi DP_blind, DQ_blind;
 852:/home/xingli/share/LiteOS_Lab/network/dtls/mbedtls/mbedtls-2.16.2/library/rsa.c **** 
 853:/home/xingli/share/LiteOS_Lab/network/dtls/mbedtls/mbedtls-2.16.2/library/rsa.c ****     /* Pointers to actual exponents to be used - either the unblinded
 854:/home/xingli/share/LiteOS_Lab/network/dtls/mbedtls/mbedtls-2.16.2/library/rsa.c ****      * or the blinded ones, depending on the presence of a PRNG. */
 855:/home/xingli/share/LiteOS_Lab/network/dtls/mbedtls/mbedtls-2.16.2/library/rsa.c ****     mbedtls_mpi *DP = &ctx->DP;
 2262              		.loc 1 855 18
 2263 0041 488B8598 		movq	-360(%rbp), %rax
 2263      FEFFFF
 2264 0048 48058800 		addq	$136, %rax
 2264      0000
 2265 004e 488985A8 		movq	%rax, -344(%rbp)
 2265      FEFFFF
 856:/home/xingli/share/LiteOS_Lab/network/dtls/mbedtls/mbedtls-2.16.2/library/rsa.c ****     mbedtls_mpi *DQ = &ctx->DQ;
 2266              		.loc 1 856 18
GAS LISTING /tmp/cc6OITWc.s 			page 63


 2267 0055 488B8598 		movq	-360(%rbp), %rax
 2267      FEFFFF
 2268 005c 4805A000 		addq	$160, %rax
 2268      0000
 2269 0062 488985B0 		movq	%rax, -336(%rbp)
 2269      FEFFFF
 857:/home/xingli/share/LiteOS_Lab/network/dtls/mbedtls/mbedtls-2.16.2/library/rsa.c **** #else
 858:/home/xingli/share/LiteOS_Lab/network/dtls/mbedtls/mbedtls-2.16.2/library/rsa.c ****     /* Temporary holding the blinded exponent (if used). */
 859:/home/xingli/share/LiteOS_Lab/network/dtls/mbedtls/mbedtls-2.16.2/library/rsa.c ****     mbedtls_mpi D_blind;
 860:/home/xingli/share/LiteOS_Lab/network/dtls/mbedtls/mbedtls-2.16.2/library/rsa.c **** 
 861:/home/xingli/share/LiteOS_Lab/network/dtls/mbedtls/mbedtls-2.16.2/library/rsa.c ****     /* Pointer to actual exponent to be used - either the unblinded
 862:/home/xingli/share/LiteOS_Lab/network/dtls/mbedtls/mbedtls-2.16.2/library/rsa.c ****      * or the blinded one, depending on the presence of a PRNG. */
 863:/home/xingli/share/LiteOS_Lab/network/dtls/mbedtls/mbedtls-2.16.2/library/rsa.c ****     mbedtls_mpi *D = &ctx->D;
 864:/home/xingli/share/LiteOS_Lab/network/dtls/mbedtls/mbedtls-2.16.2/library/rsa.c **** #endif /* MBEDTLS_RSA_NO_CRT */
 865:/home/xingli/share/LiteOS_Lab/network/dtls/mbedtls/mbedtls-2.16.2/library/rsa.c **** 
 866:/home/xingli/share/LiteOS_Lab/network/dtls/mbedtls/mbedtls-2.16.2/library/rsa.c ****     /* Temporaries holding the initial input and the double
 867:/home/xingli/share/LiteOS_Lab/network/dtls/mbedtls/mbedtls-2.16.2/library/rsa.c ****      * checked result; should be the same in the end. */
 868:/home/xingli/share/LiteOS_Lab/network/dtls/mbedtls/mbedtls-2.16.2/library/rsa.c ****     mbedtls_mpi I, C;
 869:/home/xingli/share/LiteOS_Lab/network/dtls/mbedtls/mbedtls-2.16.2/library/rsa.c **** 
 870:/home/xingli/share/LiteOS_Lab/network/dtls/mbedtls/mbedtls-2.16.2/library/rsa.c ****     RSA_VALIDATE_RET( ctx != NULL );
 871:/home/xingli/share/LiteOS_Lab/network/dtls/mbedtls/mbedtls-2.16.2/library/rsa.c ****     RSA_VALIDATE_RET( input  != NULL );
 872:/home/xingli/share/LiteOS_Lab/network/dtls/mbedtls/mbedtls-2.16.2/library/rsa.c ****     RSA_VALIDATE_RET( output != NULL );
 873:/home/xingli/share/LiteOS_Lab/network/dtls/mbedtls/mbedtls-2.16.2/library/rsa.c **** 
 874:/home/xingli/share/LiteOS_Lab/network/dtls/mbedtls/mbedtls-2.16.2/library/rsa.c ****     if( rsa_check_context( ctx, 1             /* private key checks */,
 2270              		.loc 1 874 9
 2271 0069 4883BD90 		cmpq	$0, -368(%rbp)
 2271      FEFFFF00 
 2272 0071 0F95C0   		setne	%al
 2273 0074 0FB6D0   		movzbl	%al, %edx
 2274 0077 488B8598 		movq	-360(%rbp), %rax
 2274      FEFFFF
 2275 007e BE010000 		movl	$1, %esi
 2275      00
 2276 0083 4889C7   		movq	%rax, %rdi
 2277 0086 E8000000 		call	rsa_check_context
 2277      00
 2278              		.loc 1 874 7
 2279 008b 85C0     		testl	%eax, %eax
 2280 008d 740A     		je	.L164
 875:/home/xingli/share/LiteOS_Lab/network/dtls/mbedtls/mbedtls-2.16.2/library/rsa.c ****                                 f_rng != NULL /* blinding y/n       */ ) != 0 )
 876:/home/xingli/share/LiteOS_Lab/network/dtls/mbedtls/mbedtls-2.16.2/library/rsa.c ****     {
 877:/home/xingli/share/LiteOS_Lab/network/dtls/mbedtls/mbedtls-2.16.2/library/rsa.c ****         return( MBEDTLS_ERR_RSA_BAD_INPUT_DATA );
 2281              		.loc 1 877 15
 2282 008f B880BFFF 		movl	$-16512, %eax
 2282      FF
 2283 0094 E94F0700 		jmp	.L196
 2283      00
 2284              	.L164:
 878:/home/xingli/share/LiteOS_Lab/network/dtls/mbedtls/mbedtls-2.16.2/library/rsa.c ****     }
 879:/home/xingli/share/LiteOS_Lab/network/dtls/mbedtls/mbedtls-2.16.2/library/rsa.c **** 
 880:/home/xingli/share/LiteOS_Lab/network/dtls/mbedtls/mbedtls-2.16.2/library/rsa.c **** #if defined(MBEDTLS_THREADING_C)
 881:/home/xingli/share/LiteOS_Lab/network/dtls/mbedtls/mbedtls-2.16.2/library/rsa.c ****     if( ( ret = mbedtls_mutex_lock( &ctx->mutex ) ) != 0 )
 882:/home/xingli/share/LiteOS_Lab/network/dtls/mbedtls/mbedtls-2.16.2/library/rsa.c ****         return( ret );
 883:/home/xingli/share/LiteOS_Lab/network/dtls/mbedtls/mbedtls-2.16.2/library/rsa.c **** #endif
 884:/home/xingli/share/LiteOS_Lab/network/dtls/mbedtls/mbedtls-2.16.2/library/rsa.c **** 
 885:/home/xingli/share/LiteOS_Lab/network/dtls/mbedtls/mbedtls-2.16.2/library/rsa.c ****     /* MPI Initialization */
 886:/home/xingli/share/LiteOS_Lab/network/dtls/mbedtls/mbedtls-2.16.2/library/rsa.c ****     mbedtls_mpi_init( &T );
GAS LISTING /tmp/cc6OITWc.s 			page 64


 2285              		.loc 1 886 5
 2286 0099 488D85C0 		leaq	-320(%rbp), %rax
 2286      FEFFFF
 2287 00a0 4889C7   		movq	%rax, %rdi
 2288 00a3 E8000000 		call	mbedtls_mpi_init@PLT
 2288      00
 887:/home/xingli/share/LiteOS_Lab/network/dtls/mbedtls/mbedtls-2.16.2/library/rsa.c **** 
 888:/home/xingli/share/LiteOS_Lab/network/dtls/mbedtls/mbedtls-2.16.2/library/rsa.c ****     mbedtls_mpi_init( &P1 );
 2289              		.loc 1 888 5
 2290 00a8 488D85E0 		leaq	-288(%rbp), %rax
 2290      FEFFFF
 2291 00af 4889C7   		movq	%rax, %rdi
 2292 00b2 E8000000 		call	mbedtls_mpi_init@PLT
 2292      00
 889:/home/xingli/share/LiteOS_Lab/network/dtls/mbedtls/mbedtls-2.16.2/library/rsa.c ****     mbedtls_mpi_init( &Q1 );
 2293              		.loc 1 889 5
 2294 00b7 488D8500 		leaq	-256(%rbp), %rax
 2294      FFFFFF
 2295 00be 4889C7   		movq	%rax, %rdi
 2296 00c1 E8000000 		call	mbedtls_mpi_init@PLT
 2296      00
 890:/home/xingli/share/LiteOS_Lab/network/dtls/mbedtls/mbedtls-2.16.2/library/rsa.c ****     mbedtls_mpi_init( &R );
 2297              		.loc 1 890 5
 2298 00c6 488D8520 		leaq	-224(%rbp), %rax
 2298      FFFFFF
 2299 00cd 4889C7   		movq	%rax, %rdi
 2300 00d0 E8000000 		call	mbedtls_mpi_init@PLT
 2300      00
 891:/home/xingli/share/LiteOS_Lab/network/dtls/mbedtls/mbedtls-2.16.2/library/rsa.c **** 
 892:/home/xingli/share/LiteOS_Lab/network/dtls/mbedtls/mbedtls-2.16.2/library/rsa.c ****     if( f_rng != NULL )
 2301              		.loc 1 892 7
 2302 00d5 4883BD90 		cmpq	$0, -368(%rbp)
 2302      FEFFFF00 
 2303 00dd 7418     		je	.L166
 893:/home/xingli/share/LiteOS_Lab/network/dtls/mbedtls/mbedtls-2.16.2/library/rsa.c ****     {
 894:/home/xingli/share/LiteOS_Lab/network/dtls/mbedtls/mbedtls-2.16.2/library/rsa.c **** #if defined(MBEDTLS_RSA_NO_CRT)
 895:/home/xingli/share/LiteOS_Lab/network/dtls/mbedtls/mbedtls-2.16.2/library/rsa.c ****         mbedtls_mpi_init( &D_blind );
 896:/home/xingli/share/LiteOS_Lab/network/dtls/mbedtls/mbedtls-2.16.2/library/rsa.c **** #else
 897:/home/xingli/share/LiteOS_Lab/network/dtls/mbedtls/mbedtls-2.16.2/library/rsa.c ****         mbedtls_mpi_init( &DP_blind );
 2304              		.loc 1 897 9
 2305 00df 488D4580 		leaq	-128(%rbp), %rax
 2306 00e3 4889C7   		movq	%rax, %rdi
 2307 00e6 E8000000 		call	mbedtls_mpi_init@PLT
 2307      00
 898:/home/xingli/share/LiteOS_Lab/network/dtls/mbedtls/mbedtls-2.16.2/library/rsa.c ****         mbedtls_mpi_init( &DQ_blind );
 2308              		.loc 1 898 9
 2309 00eb 488D45A0 		leaq	-96(%rbp), %rax
 2310 00ef 4889C7   		movq	%rax, %rdi
 2311 00f2 E8000000 		call	mbedtls_mpi_init@PLT
 2311      00
 2312              	.L166:
 899:/home/xingli/share/LiteOS_Lab/network/dtls/mbedtls/mbedtls-2.16.2/library/rsa.c **** #endif
 900:/home/xingli/share/LiteOS_Lab/network/dtls/mbedtls/mbedtls-2.16.2/library/rsa.c ****     }
 901:/home/xingli/share/LiteOS_Lab/network/dtls/mbedtls/mbedtls-2.16.2/library/rsa.c **** 
 902:/home/xingli/share/LiteOS_Lab/network/dtls/mbedtls/mbedtls-2.16.2/library/rsa.c **** #if !defined(MBEDTLS_RSA_NO_CRT)
 903:/home/xingli/share/LiteOS_Lab/network/dtls/mbedtls/mbedtls-2.16.2/library/rsa.c ****     mbedtls_mpi_init( &TP ); mbedtls_mpi_init( &TQ );
 2313              		.loc 1 903 5
GAS LISTING /tmp/cc6OITWc.s 			page 65


 2314 00f7 488D8540 		leaq	-192(%rbp), %rax
 2314      FFFFFF
 2315 00fe 4889C7   		movq	%rax, %rdi
 2316 0101 E8000000 		call	mbedtls_mpi_init@PLT
 2316      00
 2317              		.loc 1 903 30
 2318 0106 488D8560 		leaq	-160(%rbp), %rax
 2318      FFFFFF
 2319 010d 4889C7   		movq	%rax, %rdi
 2320 0110 E8000000 		call	mbedtls_mpi_init@PLT
 2320      00
 904:/home/xingli/share/LiteOS_Lab/network/dtls/mbedtls/mbedtls-2.16.2/library/rsa.c **** #endif
 905:/home/xingli/share/LiteOS_Lab/network/dtls/mbedtls/mbedtls-2.16.2/library/rsa.c **** 
 906:/home/xingli/share/LiteOS_Lab/network/dtls/mbedtls/mbedtls-2.16.2/library/rsa.c ****     mbedtls_mpi_init( &I );
 2321              		.loc 1 906 5
 2322 0115 488D45C0 		leaq	-64(%rbp), %rax
 2323 0119 4889C7   		movq	%rax, %rdi
 2324 011c E8000000 		call	mbedtls_mpi_init@PLT
 2324      00
 907:/home/xingli/share/LiteOS_Lab/network/dtls/mbedtls/mbedtls-2.16.2/library/rsa.c ****     mbedtls_mpi_init( &C );
 2325              		.loc 1 907 5
 2326 0121 488D45E0 		leaq	-32(%rbp), %rax
 2327 0125 4889C7   		movq	%rax, %rdi
 2328 0128 E8000000 		call	mbedtls_mpi_init@PLT
 2328      00
 908:/home/xingli/share/LiteOS_Lab/network/dtls/mbedtls/mbedtls-2.16.2/library/rsa.c **** 
 909:/home/xingli/share/LiteOS_Lab/network/dtls/mbedtls/mbedtls-2.16.2/library/rsa.c ****     /* End of MPI initialization */
 910:/home/xingli/share/LiteOS_Lab/network/dtls/mbedtls/mbedtls-2.16.2/library/rsa.c **** 
 911:/home/xingli/share/LiteOS_Lab/network/dtls/mbedtls/mbedtls-2.16.2/library/rsa.c ****     MBEDTLS_MPI_CHK( mbedtls_mpi_read_binary( &T, input, ctx->len ) );
 2329              		.loc 1 911 5
 2330 012d 488B8598 		movq	-360(%rbp), %rax
 2330      FEFFFF
 2331 0134 488B5008 		movq	8(%rax), %rdx
 2332 0138 488B8D80 		movq	-384(%rbp), %rcx
 2332      FEFFFF
 2333 013f 488D85C0 		leaq	-320(%rbp), %rax
 2333      FEFFFF
 2334 0146 4889CE   		movq	%rcx, %rsi
 2335 0149 4889C7   		movq	%rax, %rdi
 2336 014c E8000000 		call	mbedtls_mpi_read_binary@PLT
 2336      00
 2337 0151 8985A4FE 		movl	%eax, -348(%rbp)
 2337      FFFF
 2338 0157 83BDA4FE 		cmpl	$0, -348(%rbp)
 2338      FFFF00
 2339 015e 0F859205 		jne	.L198
 2339      0000
 912:/home/xingli/share/LiteOS_Lab/network/dtls/mbedtls/mbedtls-2.16.2/library/rsa.c ****     if( mbedtls_mpi_cmp_mpi( &T, &ctx->N ) >= 0 )
 2340              		.loc 1 912 34
 2341 0164 488B8598 		movq	-360(%rbp), %rax
 2341      FEFFFF
 2342 016b 488D5010 		leaq	16(%rax), %rdx
 2343              		.loc 1 912 9
 2344 016f 488D85C0 		leaq	-320(%rbp), %rax
 2344      FEFFFF
 2345 0176 4889D6   		movq	%rdx, %rsi
 2346 0179 4889C7   		movq	%rax, %rdi
GAS LISTING /tmp/cc6OITWc.s 			page 66


 2347 017c E8000000 		call	mbedtls_mpi_cmp_mpi@PLT
 2347      00
 2348              		.loc 1 912 7
 2349 0181 85C0     		testl	%eax, %eax
 2350 0183 780F     		js	.L169
 913:/home/xingli/share/LiteOS_Lab/network/dtls/mbedtls/mbedtls-2.16.2/library/rsa.c ****     {
 914:/home/xingli/share/LiteOS_Lab/network/dtls/mbedtls/mbedtls-2.16.2/library/rsa.c ****         ret = MBEDTLS_ERR_MPI_BAD_INPUT_DATA;
 2351              		.loc 1 914 13
 2352 0185 C785A4FE 		movl	$-4, -348(%rbp)
 2352      FFFFFCFF 
 2352      FFFF
 915:/home/xingli/share/LiteOS_Lab/network/dtls/mbedtls/mbedtls-2.16.2/library/rsa.c ****         goto cleanup;
 2353              		.loc 1 915 9
 2354 018f E9A50500 		jmp	.L168
 2354      00
 2355              	.L169:
 916:/home/xingli/share/LiteOS_Lab/network/dtls/mbedtls/mbedtls-2.16.2/library/rsa.c ****     }
 917:/home/xingli/share/LiteOS_Lab/network/dtls/mbedtls/mbedtls-2.16.2/library/rsa.c **** 
 918:/home/xingli/share/LiteOS_Lab/network/dtls/mbedtls/mbedtls-2.16.2/library/rsa.c ****     MBEDTLS_MPI_CHK( mbedtls_mpi_copy( &I, &T ) );
 2356              		.loc 1 918 5
 2357 0194 488D95C0 		leaq	-320(%rbp), %rdx
 2357      FEFFFF
 2358 019b 488D45C0 		leaq	-64(%rbp), %rax
 2359 019f 4889D6   		movq	%rdx, %rsi
 2360 01a2 4889C7   		movq	%rax, %rdi
 2361 01a5 E8000000 		call	mbedtls_mpi_copy@PLT
 2361      00
 2362 01aa 8985A4FE 		movl	%eax, -348(%rbp)
 2362      FFFF
 2363 01b0 83BDA4FE 		cmpl	$0, -348(%rbp)
 2363      FFFF00
 2364 01b7 0F853C05 		jne	.L199
 2364      0000
 919:/home/xingli/share/LiteOS_Lab/network/dtls/mbedtls/mbedtls-2.16.2/library/rsa.c **** 
 920:/home/xingli/share/LiteOS_Lab/network/dtls/mbedtls/mbedtls-2.16.2/library/rsa.c ****     if( f_rng != NULL )
 2365              		.loc 1 920 7
 2366 01bd 4883BD90 		cmpq	$0, -368(%rbp)
 2366      FEFFFF00 
 2367 01c5 0F845602 		je	.L171
 2367      0000
 921:/home/xingli/share/LiteOS_Lab/network/dtls/mbedtls/mbedtls-2.16.2/library/rsa.c ****     {
 922:/home/xingli/share/LiteOS_Lab/network/dtls/mbedtls/mbedtls-2.16.2/library/rsa.c ****         /*
 923:/home/xingli/share/LiteOS_Lab/network/dtls/mbedtls/mbedtls-2.16.2/library/rsa.c ****          * Blinding
 924:/home/xingli/share/LiteOS_Lab/network/dtls/mbedtls/mbedtls-2.16.2/library/rsa.c ****          * T = T * Vi mod N
 925:/home/xingli/share/LiteOS_Lab/network/dtls/mbedtls/mbedtls-2.16.2/library/rsa.c ****          */
 926:/home/xingli/share/LiteOS_Lab/network/dtls/mbedtls/mbedtls-2.16.2/library/rsa.c ****         MBEDTLS_MPI_CHK( rsa_prepare_blinding( ctx, f_rng, p_rng ) );
 2368              		.loc 1 926 9
 2369 01cb 488B9588 		movq	-376(%rbp), %rdx
 2369      FEFFFF
 2370 01d2 488B8D90 		movq	-368(%rbp), %rcx
 2370      FEFFFF
 2371 01d9 488B8598 		movq	-360(%rbp), %rax
 2371      FEFFFF
 2372 01e0 4889CE   		movq	%rcx, %rsi
 2373 01e3 4889C7   		movq	%rax, %rdi
 2374 01e6 E8000000 		call	rsa_prepare_blinding
 2374      00
GAS LISTING /tmp/cc6OITWc.s 			page 67


 2375 01eb 8985A4FE 		movl	%eax, -348(%rbp)
 2375      FFFF
 2376 01f1 83BDA4FE 		cmpl	$0, -348(%rbp)
 2376      FFFF00
 2377 01f8 0F85FE04 		jne	.L200
 2377      0000
 927:/home/xingli/share/LiteOS_Lab/network/dtls/mbedtls/mbedtls-2.16.2/library/rsa.c ****         MBEDTLS_MPI_CHK( mbedtls_mpi_mul_mpi( &T, &T, &ctx->Vi ) );
 2378              		.loc 1 927 9
 2379 01fe 488B8598 		movq	-360(%rbp), %rax
 2379      FEFFFF
 2380 0205 488D9018 		leaq	280(%rax), %rdx
 2380      010000
 2381 020c 488D8DC0 		leaq	-320(%rbp), %rcx
 2381      FEFFFF
 2382 0213 488D85C0 		leaq	-320(%rbp), %rax
 2382      FEFFFF
 2383 021a 4889CE   		movq	%rcx, %rsi
 2384 021d 4889C7   		movq	%rax, %rdi
 2385 0220 E8000000 		call	mbedtls_mpi_mul_mpi@PLT
 2385      00
 2386 0225 8985A4FE 		movl	%eax, -348(%rbp)
 2386      FFFF
 2387 022b 83BDA4FE 		cmpl	$0, -348(%rbp)
 2387      FFFF00
 2388 0232 0F85C704 		jne	.L201
 2388      0000
 928:/home/xingli/share/LiteOS_Lab/network/dtls/mbedtls/mbedtls-2.16.2/library/rsa.c ****         MBEDTLS_MPI_CHK( mbedtls_mpi_mod_mpi( &T, &T, &ctx->N ) );
 2389              		.loc 1 928 9
 2390 0238 488B8598 		movq	-360(%rbp), %rax
 2390      FEFFFF
 2391 023f 488D5010 		leaq	16(%rax), %rdx
 2392 0243 488D8DC0 		leaq	-320(%rbp), %rcx
 2392      FEFFFF
 2393 024a 488D85C0 		leaq	-320(%rbp), %rax
 2393      FEFFFF
 2394 0251 4889CE   		movq	%rcx, %rsi
 2395 0254 4889C7   		movq	%rax, %rdi
 2396 0257 E8000000 		call	mbedtls_mpi_mod_mpi@PLT
 2396      00
 2397 025c 8985A4FE 		movl	%eax, -348(%rbp)
 2397      FFFF
 2398 0262 83BDA4FE 		cmpl	$0, -348(%rbp)
 2398      FFFF00
 2399 0269 0F859304 		jne	.L202
 2399      0000
 929:/home/xingli/share/LiteOS_Lab/network/dtls/mbedtls/mbedtls-2.16.2/library/rsa.c **** 
 930:/home/xingli/share/LiteOS_Lab/network/dtls/mbedtls/mbedtls-2.16.2/library/rsa.c ****         /*
 931:/home/xingli/share/LiteOS_Lab/network/dtls/mbedtls/mbedtls-2.16.2/library/rsa.c ****          * Exponent blinding
 932:/home/xingli/share/LiteOS_Lab/network/dtls/mbedtls/mbedtls-2.16.2/library/rsa.c ****          */
 933:/home/xingli/share/LiteOS_Lab/network/dtls/mbedtls/mbedtls-2.16.2/library/rsa.c ****         MBEDTLS_MPI_CHK( mbedtls_mpi_sub_int( &P1, &ctx->P, 1 ) );
 2400              		.loc 1 933 9
 2401 026f 488B8598 		movq	-360(%rbp), %rax
 2401      FEFFFF
 2402 0276 488D4858 		leaq	88(%rax), %rcx
 2403 027a 488D85E0 		leaq	-288(%rbp), %rax
 2403      FEFFFF
 2404 0281 BA010000 		movl	$1, %edx
GAS LISTING /tmp/cc6OITWc.s 			page 68


 2404      00
 2405 0286 4889CE   		movq	%rcx, %rsi
 2406 0289 4889C7   		movq	%rax, %rdi
 2407 028c E8000000 		call	mbedtls_mpi_sub_int@PLT
 2407      00
 2408 0291 8985A4FE 		movl	%eax, -348(%rbp)
 2408      FFFF
 2409 0297 83BDA4FE 		cmpl	$0, -348(%rbp)
 2409      FFFF00
 2410 029e 0F856104 		jne	.L203
 2410      0000
 934:/home/xingli/share/LiteOS_Lab/network/dtls/mbedtls/mbedtls-2.16.2/library/rsa.c ****         MBEDTLS_MPI_CHK( mbedtls_mpi_sub_int( &Q1, &ctx->Q, 1 ) );
 2411              		.loc 1 934 9
 2412 02a4 488B8598 		movq	-360(%rbp), %rax
 2412      FEFFFF
 2413 02ab 488D4870 		leaq	112(%rax), %rcx
 2414 02af 488D8500 		leaq	-256(%rbp), %rax
 2414      FFFFFF
 2415 02b6 BA010000 		movl	$1, %edx
 2415      00
 2416 02bb 4889CE   		movq	%rcx, %rsi
 2417 02be 4889C7   		movq	%rax, %rdi
 2418 02c1 E8000000 		call	mbedtls_mpi_sub_int@PLT
 2418      00
 2419 02c6 8985A4FE 		movl	%eax, -348(%rbp)
 2419      FFFF
 2420 02cc 83BDA4FE 		cmpl	$0, -348(%rbp)
 2420      FFFF00
 2421 02d3 0F852F04 		jne	.L204
 2421      0000
 935:/home/xingli/share/LiteOS_Lab/network/dtls/mbedtls/mbedtls-2.16.2/library/rsa.c **** 
 936:/home/xingli/share/LiteOS_Lab/network/dtls/mbedtls/mbedtls-2.16.2/library/rsa.c **** #if defined(MBEDTLS_RSA_NO_CRT)
 937:/home/xingli/share/LiteOS_Lab/network/dtls/mbedtls/mbedtls-2.16.2/library/rsa.c ****         /*
 938:/home/xingli/share/LiteOS_Lab/network/dtls/mbedtls/mbedtls-2.16.2/library/rsa.c ****          * D_blind = ( P - 1 ) * ( Q - 1 ) * R + D
 939:/home/xingli/share/LiteOS_Lab/network/dtls/mbedtls/mbedtls-2.16.2/library/rsa.c ****          */
 940:/home/xingli/share/LiteOS_Lab/network/dtls/mbedtls/mbedtls-2.16.2/library/rsa.c ****         MBEDTLS_MPI_CHK( mbedtls_mpi_fill_random( &R, RSA_EXPONENT_BLINDING,
 941:/home/xingli/share/LiteOS_Lab/network/dtls/mbedtls/mbedtls-2.16.2/library/rsa.c ****                          f_rng, p_rng ) );
 942:/home/xingli/share/LiteOS_Lab/network/dtls/mbedtls/mbedtls-2.16.2/library/rsa.c ****         MBEDTLS_MPI_CHK( mbedtls_mpi_mul_mpi( &D_blind, &P1, &Q1 ) );
 943:/home/xingli/share/LiteOS_Lab/network/dtls/mbedtls/mbedtls-2.16.2/library/rsa.c ****         MBEDTLS_MPI_CHK( mbedtls_mpi_mul_mpi( &D_blind, &D_blind, &R ) );
 944:/home/xingli/share/LiteOS_Lab/network/dtls/mbedtls/mbedtls-2.16.2/library/rsa.c ****         MBEDTLS_MPI_CHK( mbedtls_mpi_add_mpi( &D_blind, &D_blind, &ctx->D ) );
 945:/home/xingli/share/LiteOS_Lab/network/dtls/mbedtls/mbedtls-2.16.2/library/rsa.c **** 
 946:/home/xingli/share/LiteOS_Lab/network/dtls/mbedtls/mbedtls-2.16.2/library/rsa.c ****         D = &D_blind;
 947:/home/xingli/share/LiteOS_Lab/network/dtls/mbedtls/mbedtls-2.16.2/library/rsa.c **** #else
 948:/home/xingli/share/LiteOS_Lab/network/dtls/mbedtls/mbedtls-2.16.2/library/rsa.c ****         /*
 949:/home/xingli/share/LiteOS_Lab/network/dtls/mbedtls/mbedtls-2.16.2/library/rsa.c ****          * DP_blind = ( P - 1 ) * R + DP
 950:/home/xingli/share/LiteOS_Lab/network/dtls/mbedtls/mbedtls-2.16.2/library/rsa.c ****          */
 951:/home/xingli/share/LiteOS_Lab/network/dtls/mbedtls/mbedtls-2.16.2/library/rsa.c ****         MBEDTLS_MPI_CHK( mbedtls_mpi_fill_random( &R, RSA_EXPONENT_BLINDING,
 2422              		.loc 1 951 9
 2423 02d9 488B8D88 		movq	-376(%rbp), %rcx
 2423      FEFFFF
 2424 02e0 488B9590 		movq	-368(%rbp), %rdx
 2424      FEFFFF
 2425 02e7 488D8520 		leaq	-224(%rbp), %rax
 2425      FFFFFF
 2426 02ee BE1C0000 		movl	$28, %esi
 2426      00
 2427 02f3 4889C7   		movq	%rax, %rdi
GAS LISTING /tmp/cc6OITWc.s 			page 69


 2428 02f6 E8000000 		call	mbedtls_mpi_fill_random@PLT
 2428      00
 2429 02fb 8985A4FE 		movl	%eax, -348(%rbp)
 2429      FFFF
 2430 0301 83BDA4FE 		cmpl	$0, -348(%rbp)
 2430      FFFF00
 2431 0308 0F85FD03 		jne	.L205
 2431      0000
 952:/home/xingli/share/LiteOS_Lab/network/dtls/mbedtls/mbedtls-2.16.2/library/rsa.c ****                          f_rng, p_rng ) );
 953:/home/xingli/share/LiteOS_Lab/network/dtls/mbedtls/mbedtls-2.16.2/library/rsa.c ****         MBEDTLS_MPI_CHK( mbedtls_mpi_mul_mpi( &DP_blind, &P1, &R ) );
 2432              		.loc 1 953 9
 2433 030e 488D9520 		leaq	-224(%rbp), %rdx
 2433      FFFFFF
 2434 0315 488D8DE0 		leaq	-288(%rbp), %rcx
 2434      FEFFFF
 2435 031c 488D4580 		leaq	-128(%rbp), %rax
 2436 0320 4889CE   		movq	%rcx, %rsi
 2437 0323 4889C7   		movq	%rax, %rdi
 2438 0326 E8000000 		call	mbedtls_mpi_mul_mpi@PLT
 2438      00
 2439 032b 8985A4FE 		movl	%eax, -348(%rbp)
 2439      FFFF
 2440 0331 83BDA4FE 		cmpl	$0, -348(%rbp)
 2440      FFFF00
 2441 0338 0F85D003 		jne	.L206
 2441      0000
 954:/home/xingli/share/LiteOS_Lab/network/dtls/mbedtls/mbedtls-2.16.2/library/rsa.c ****         MBEDTLS_MPI_CHK( mbedtls_mpi_add_mpi( &DP_blind, &DP_blind,
 2442              		.loc 1 954 9
 2443 033e 488B8598 		movq	-360(%rbp), %rax
 2443      FEFFFF
 2444 0345 488D9088 		leaq	136(%rax), %rdx
 2444      000000
 2445 034c 488D4D80 		leaq	-128(%rbp), %rcx
 2446 0350 488D4580 		leaq	-128(%rbp), %rax
 2447 0354 4889CE   		movq	%rcx, %rsi
 2448 0357 4889C7   		movq	%rax, %rdi
 2449 035a E8000000 		call	mbedtls_mpi_add_mpi@PLT
 2449      00
 2450 035f 8985A4FE 		movl	%eax, -348(%rbp)
 2450      FFFF
 2451 0365 83BDA4FE 		cmpl	$0, -348(%rbp)
 2451      FFFF00
 2452 036c 0F859F03 		jne	.L207
 2452      0000
 955:/home/xingli/share/LiteOS_Lab/network/dtls/mbedtls/mbedtls-2.16.2/library/rsa.c ****                     &ctx->DP ) );
 956:/home/xingli/share/LiteOS_Lab/network/dtls/mbedtls/mbedtls-2.16.2/library/rsa.c **** 
 957:/home/xingli/share/LiteOS_Lab/network/dtls/mbedtls/mbedtls-2.16.2/library/rsa.c ****         DP = &DP_blind;
 2453              		.loc 1 957 12
 2454 0372 488D4580 		leaq	-128(%rbp), %rax
 2455 0376 488985A8 		movq	%rax, -344(%rbp)
 2455      FEFFFF
 958:/home/xingli/share/LiteOS_Lab/network/dtls/mbedtls/mbedtls-2.16.2/library/rsa.c **** 
 959:/home/xingli/share/LiteOS_Lab/network/dtls/mbedtls/mbedtls-2.16.2/library/rsa.c ****         /*
 960:/home/xingli/share/LiteOS_Lab/network/dtls/mbedtls/mbedtls-2.16.2/library/rsa.c ****          * DQ_blind = ( Q - 1 ) * R + DQ
 961:/home/xingli/share/LiteOS_Lab/network/dtls/mbedtls/mbedtls-2.16.2/library/rsa.c ****          */
 962:/home/xingli/share/LiteOS_Lab/network/dtls/mbedtls/mbedtls-2.16.2/library/rsa.c ****         MBEDTLS_MPI_CHK( mbedtls_mpi_fill_random( &R, RSA_EXPONENT_BLINDING,
 2456              		.loc 1 962 9
GAS LISTING /tmp/cc6OITWc.s 			page 70


 2457 037d 488B8D88 		movq	-376(%rbp), %rcx
 2457      FEFFFF
 2458 0384 488B9590 		movq	-368(%rbp), %rdx
 2458      FEFFFF
 2459 038b 488D8520 		leaq	-224(%rbp), %rax
 2459      FFFFFF
 2460 0392 BE1C0000 		movl	$28, %esi
 2460      00
 2461 0397 4889C7   		movq	%rax, %rdi
 2462 039a E8000000 		call	mbedtls_mpi_fill_random@PLT
 2462      00
 2463 039f 8985A4FE 		movl	%eax, -348(%rbp)
 2463      FFFF
 2464 03a5 83BDA4FE 		cmpl	$0, -348(%rbp)
 2464      FFFF00
 2465 03ac 0F856203 		jne	.L208
 2465      0000
 963:/home/xingli/share/LiteOS_Lab/network/dtls/mbedtls/mbedtls-2.16.2/library/rsa.c ****                          f_rng, p_rng ) );
 964:/home/xingli/share/LiteOS_Lab/network/dtls/mbedtls/mbedtls-2.16.2/library/rsa.c ****         MBEDTLS_MPI_CHK( mbedtls_mpi_mul_mpi( &DQ_blind, &Q1, &R ) );
 2466              		.loc 1 964 9
 2467 03b2 488D9520 		leaq	-224(%rbp), %rdx
 2467      FFFFFF
 2468 03b9 488D8D00 		leaq	-256(%rbp), %rcx
 2468      FFFFFF
 2469 03c0 488D45A0 		leaq	-96(%rbp), %rax
 2470 03c4 4889CE   		movq	%rcx, %rsi
 2471 03c7 4889C7   		movq	%rax, %rdi
 2472 03ca E8000000 		call	mbedtls_mpi_mul_mpi@PLT
 2472      00
 2473 03cf 8985A4FE 		movl	%eax, -348(%rbp)
 2473      FFFF
 2474 03d5 83BDA4FE 		cmpl	$0, -348(%rbp)
 2474      FFFF00
 2475 03dc 0F853503 		jne	.L209
 2475      0000
 965:/home/xingli/share/LiteOS_Lab/network/dtls/mbedtls/mbedtls-2.16.2/library/rsa.c ****         MBEDTLS_MPI_CHK( mbedtls_mpi_add_mpi( &DQ_blind, &DQ_blind,
 2476              		.loc 1 965 9
 2477 03e2 488B8598 		movq	-360(%rbp), %rax
 2477      FEFFFF
 2478 03e9 488D90A0 		leaq	160(%rax), %rdx
 2478      000000
 2479 03f0 488D4DA0 		leaq	-96(%rbp), %rcx
 2480 03f4 488D45A0 		leaq	-96(%rbp), %rax
 2481 03f8 4889CE   		movq	%rcx, %rsi
 2482 03fb 4889C7   		movq	%rax, %rdi
 2483 03fe E8000000 		call	mbedtls_mpi_add_mpi@PLT
 2483      00
 2484 0403 8985A4FE 		movl	%eax, -348(%rbp)
 2484      FFFF
 2485 0409 83BDA4FE 		cmpl	$0, -348(%rbp)
 2485      FFFF00
 2486 0410 0F850403 		jne	.L210
 2486      0000
 966:/home/xingli/share/LiteOS_Lab/network/dtls/mbedtls/mbedtls-2.16.2/library/rsa.c ****                     &ctx->DQ ) );
 967:/home/xingli/share/LiteOS_Lab/network/dtls/mbedtls/mbedtls-2.16.2/library/rsa.c **** 
 968:/home/xingli/share/LiteOS_Lab/network/dtls/mbedtls/mbedtls-2.16.2/library/rsa.c ****         DQ = &DQ_blind;
 2487              		.loc 1 968 12
GAS LISTING /tmp/cc6OITWc.s 			page 71


 2488 0416 488D45A0 		leaq	-96(%rbp), %rax
 2489 041a 488985B0 		movq	%rax, -336(%rbp)
 2489      FEFFFF
 2490              	.L171:
 969:/home/xingli/share/LiteOS_Lab/network/dtls/mbedtls/mbedtls-2.16.2/library/rsa.c **** #endif /* MBEDTLS_RSA_NO_CRT */
 970:/home/xingli/share/LiteOS_Lab/network/dtls/mbedtls/mbedtls-2.16.2/library/rsa.c ****     }
 971:/home/xingli/share/LiteOS_Lab/network/dtls/mbedtls/mbedtls-2.16.2/library/rsa.c **** 
 972:/home/xingli/share/LiteOS_Lab/network/dtls/mbedtls/mbedtls-2.16.2/library/rsa.c **** #if defined(MBEDTLS_RSA_NO_CRT)
 973:/home/xingli/share/LiteOS_Lab/network/dtls/mbedtls/mbedtls-2.16.2/library/rsa.c ****     MBEDTLS_MPI_CHK( mbedtls_mpi_exp_mod( &T, &T, D, &ctx->N, &ctx->RN ) );
 974:/home/xingli/share/LiteOS_Lab/network/dtls/mbedtls/mbedtls-2.16.2/library/rsa.c **** #else
 975:/home/xingli/share/LiteOS_Lab/network/dtls/mbedtls/mbedtls-2.16.2/library/rsa.c ****     /*
 976:/home/xingli/share/LiteOS_Lab/network/dtls/mbedtls/mbedtls-2.16.2/library/rsa.c ****      * Faster decryption using the CRT
 977:/home/xingli/share/LiteOS_Lab/network/dtls/mbedtls/mbedtls-2.16.2/library/rsa.c ****      *
 978:/home/xingli/share/LiteOS_Lab/network/dtls/mbedtls/mbedtls-2.16.2/library/rsa.c ****      * TP = input ^ dP mod P
 979:/home/xingli/share/LiteOS_Lab/network/dtls/mbedtls/mbedtls-2.16.2/library/rsa.c ****      * TQ = input ^ dQ mod Q
 980:/home/xingli/share/LiteOS_Lab/network/dtls/mbedtls/mbedtls-2.16.2/library/rsa.c ****      */
 981:/home/xingli/share/LiteOS_Lab/network/dtls/mbedtls/mbedtls-2.16.2/library/rsa.c **** 
 982:/home/xingli/share/LiteOS_Lab/network/dtls/mbedtls/mbedtls-2.16.2/library/rsa.c ****     MBEDTLS_MPI_CHK( mbedtls_mpi_exp_mod( &TP, &T, DP, &ctx->P, &ctx->RP ) );
 2491              		.loc 1 982 5
 2492 0421 488B8598 		movq	-360(%rbp), %rax
 2492      FEFFFF
 2493 0428 488DB8E8 		leaq	232(%rax), %rdi
 2493      000000
 2494 042f 488B8598 		movq	-360(%rbp), %rax
 2494      FEFFFF
 2495 0436 488D4858 		leaq	88(%rax), %rcx
 2496 043a 488B95A8 		movq	-344(%rbp), %rdx
 2496      FEFFFF
 2497 0441 488DB5C0 		leaq	-320(%rbp), %rsi
 2497      FEFFFF
 2498 0448 488D8540 		leaq	-192(%rbp), %rax
 2498      FFFFFF
 2499 044f 4989F8   		movq	%rdi, %r8
 2500 0452 4889C7   		movq	%rax, %rdi
 2501 0455 E8000000 		call	mbedtls_mpi_exp_mod@PLT
 2501      00
 2502 045a 8985A4FE 		movl	%eax, -348(%rbp)
 2502      FFFF
 2503 0460 83BDA4FE 		cmpl	$0, -348(%rbp)
 2503      FFFF00
 2504 0467 0F85B002 		jne	.L211
 2504      0000
 983:/home/xingli/share/LiteOS_Lab/network/dtls/mbedtls/mbedtls-2.16.2/library/rsa.c ****     MBEDTLS_MPI_CHK( mbedtls_mpi_exp_mod( &TQ, &T, DQ, &ctx->Q, &ctx->RQ ) );
 2505              		.loc 1 983 5
 2506 046d 488B8598 		movq	-360(%rbp), %rax
 2506      FEFFFF
 2507 0474 488DB800 		leaq	256(%rax), %rdi
 2507      010000
 2508 047b 488B8598 		movq	-360(%rbp), %rax
 2508      FEFFFF
 2509 0482 488D4870 		leaq	112(%rax), %rcx
 2510 0486 488B95B0 		movq	-336(%rbp), %rdx
 2510      FEFFFF
 2511 048d 488DB5C0 		leaq	-320(%rbp), %rsi
 2511      FEFFFF
 2512 0494 488D8560 		leaq	-160(%rbp), %rax
 2512      FFFFFF
GAS LISTING /tmp/cc6OITWc.s 			page 72


 2513 049b 4989F8   		movq	%rdi, %r8
 2514 049e 4889C7   		movq	%rax, %rdi
 2515 04a1 E8000000 		call	mbedtls_mpi_exp_mod@PLT
 2515      00
 2516 04a6 8985A4FE 		movl	%eax, -348(%rbp)
 2516      FFFF
 2517 04ac 83BDA4FE 		cmpl	$0, -348(%rbp)
 2517      FFFF00
 2518 04b3 0F856702 		jne	.L212
 2518      0000
 984:/home/xingli/share/LiteOS_Lab/network/dtls/mbedtls/mbedtls-2.16.2/library/rsa.c **** 
 985:/home/xingli/share/LiteOS_Lab/network/dtls/mbedtls/mbedtls-2.16.2/library/rsa.c ****     /*
 986:/home/xingli/share/LiteOS_Lab/network/dtls/mbedtls/mbedtls-2.16.2/library/rsa.c ****      * T = (TP - TQ) * (Q^-1 mod P) mod P
 987:/home/xingli/share/LiteOS_Lab/network/dtls/mbedtls/mbedtls-2.16.2/library/rsa.c ****      */
 988:/home/xingli/share/LiteOS_Lab/network/dtls/mbedtls/mbedtls-2.16.2/library/rsa.c ****     MBEDTLS_MPI_CHK( mbedtls_mpi_sub_mpi( &T, &TP, &TQ ) );
 2519              		.loc 1 988 5
 2520 04b9 488D9560 		leaq	-160(%rbp), %rdx
 2520      FFFFFF
 2521 04c0 488D8D40 		leaq	-192(%rbp), %rcx
 2521      FFFFFF
 2522 04c7 488D85C0 		leaq	-320(%rbp), %rax
 2522      FEFFFF
 2523 04ce 4889CE   		movq	%rcx, %rsi
 2524 04d1 4889C7   		movq	%rax, %rdi
 2525 04d4 E8000000 		call	mbedtls_mpi_sub_mpi@PLT
 2525      00
 2526 04d9 8985A4FE 		movl	%eax, -348(%rbp)
 2526      FFFF
 2527 04df 83BDA4FE 		cmpl	$0, -348(%rbp)
 2527      FFFF00
 2528 04e6 0F853702 		jne	.L213
 2528      0000
 989:/home/xingli/share/LiteOS_Lab/network/dtls/mbedtls/mbedtls-2.16.2/library/rsa.c ****     MBEDTLS_MPI_CHK( mbedtls_mpi_mul_mpi( &TP, &T, &ctx->QP ) );
 2529              		.loc 1 989 5
 2530 04ec 488B8598 		movq	-360(%rbp), %rax
 2530      FEFFFF
 2531 04f3 488D90B8 		leaq	184(%rax), %rdx
 2531      000000
 2532 04fa 488D8DC0 		leaq	-320(%rbp), %rcx
 2532      FEFFFF
 2533 0501 488D8540 		leaq	-192(%rbp), %rax
 2533      FFFFFF
 2534 0508 4889CE   		movq	%rcx, %rsi
 2535 050b 4889C7   		movq	%rax, %rdi
 2536 050e E8000000 		call	mbedtls_mpi_mul_mpi@PLT
 2536      00
 2537 0513 8985A4FE 		movl	%eax, -348(%rbp)
 2537      FFFF
 2538 0519 83BDA4FE 		cmpl	$0, -348(%rbp)
 2538      FFFF00
 2539 0520 0F850002 		jne	.L214
 2539      0000
 990:/home/xingli/share/LiteOS_Lab/network/dtls/mbedtls/mbedtls-2.16.2/library/rsa.c ****     MBEDTLS_MPI_CHK( mbedtls_mpi_mod_mpi( &T, &TP, &ctx->P ) );
 2540              		.loc 1 990 5
 2541 0526 488B8598 		movq	-360(%rbp), %rax
 2541      FEFFFF
 2542 052d 488D5058 		leaq	88(%rax), %rdx
GAS LISTING /tmp/cc6OITWc.s 			page 73


 2543 0531 488D8D40 		leaq	-192(%rbp), %rcx
 2543      FFFFFF
 2544 0538 488D85C0 		leaq	-320(%rbp), %rax
 2544      FEFFFF
 2545 053f 4889CE   		movq	%rcx, %rsi
 2546 0542 4889C7   		movq	%rax, %rdi
 2547 0545 E8000000 		call	mbedtls_mpi_mod_mpi@PLT
 2547      00
 2548 054a 8985A4FE 		movl	%eax, -348(%rbp)
 2548      FFFF
 2549 0550 83BDA4FE 		cmpl	$0, -348(%rbp)
 2549      FFFF00
 2550 0557 0F85CC01 		jne	.L215
 2550      0000
 991:/home/xingli/share/LiteOS_Lab/network/dtls/mbedtls/mbedtls-2.16.2/library/rsa.c **** 
 992:/home/xingli/share/LiteOS_Lab/network/dtls/mbedtls/mbedtls-2.16.2/library/rsa.c ****     /*
 993:/home/xingli/share/LiteOS_Lab/network/dtls/mbedtls/mbedtls-2.16.2/library/rsa.c ****      * T = TQ + T * Q
 994:/home/xingli/share/LiteOS_Lab/network/dtls/mbedtls/mbedtls-2.16.2/library/rsa.c ****      */
 995:/home/xingli/share/LiteOS_Lab/network/dtls/mbedtls/mbedtls-2.16.2/library/rsa.c ****     MBEDTLS_MPI_CHK( mbedtls_mpi_mul_mpi( &TP, &T, &ctx->Q ) );
 2551              		.loc 1 995 5
 2552 055d 488B8598 		movq	-360(%rbp), %rax
 2552      FEFFFF
 2553 0564 488D5070 		leaq	112(%rax), %rdx
 2554 0568 488D8DC0 		leaq	-320(%rbp), %rcx
 2554      FEFFFF
 2555 056f 488D8540 		leaq	-192(%rbp), %rax
 2555      FFFFFF
 2556 0576 4889CE   		movq	%rcx, %rsi
 2557 0579 4889C7   		movq	%rax, %rdi
 2558 057c E8000000 		call	mbedtls_mpi_mul_mpi@PLT
 2558      00
 2559 0581 8985A4FE 		movl	%eax, -348(%rbp)
 2559      FFFF
 2560 0587 83BDA4FE 		cmpl	$0, -348(%rbp)
 2560      FFFF00
 2561 058e 0F859801 		jne	.L216
 2561      0000
 996:/home/xingli/share/LiteOS_Lab/network/dtls/mbedtls/mbedtls-2.16.2/library/rsa.c ****     MBEDTLS_MPI_CHK( mbedtls_mpi_add_mpi( &T, &TQ, &TP ) );
 2562              		.loc 1 996 5
 2563 0594 488D9540 		leaq	-192(%rbp), %rdx
 2563      FFFFFF
 2564 059b 488D8D60 		leaq	-160(%rbp), %rcx
 2564      FFFFFF
 2565 05a2 488D85C0 		leaq	-320(%rbp), %rax
 2565      FEFFFF
 2566 05a9 4889CE   		movq	%rcx, %rsi
 2567 05ac 4889C7   		movq	%rax, %rdi
 2568 05af E8000000 		call	mbedtls_mpi_add_mpi@PLT
 2568      00
 2569 05b4 8985A4FE 		movl	%eax, -348(%rbp)
 2569      FFFF
 2570 05ba 83BDA4FE 		cmpl	$0, -348(%rbp)
 2570      FFFF00
 2571 05c1 0F856801 		jne	.L217
 2571      0000
 997:/home/xingli/share/LiteOS_Lab/network/dtls/mbedtls/mbedtls-2.16.2/library/rsa.c **** #endif /* MBEDTLS_RSA_NO_CRT */
 998:/home/xingli/share/LiteOS_Lab/network/dtls/mbedtls/mbedtls-2.16.2/library/rsa.c **** 
GAS LISTING /tmp/cc6OITWc.s 			page 74


 999:/home/xingli/share/LiteOS_Lab/network/dtls/mbedtls/mbedtls-2.16.2/library/rsa.c ****     if( f_rng != NULL )
 2572              		.loc 1 999 7
 2573 05c7 4883BD90 		cmpq	$0, -368(%rbp)
 2573      FEFFFF00 
 2574 05cf 7471     		je	.L190
1000:/home/xingli/share/LiteOS_Lab/network/dtls/mbedtls/mbedtls-2.16.2/library/rsa.c ****     {
1001:/home/xingli/share/LiteOS_Lab/network/dtls/mbedtls/mbedtls-2.16.2/library/rsa.c ****         /*
1002:/home/xingli/share/LiteOS_Lab/network/dtls/mbedtls/mbedtls-2.16.2/library/rsa.c ****          * Unblind
1003:/home/xingli/share/LiteOS_Lab/network/dtls/mbedtls/mbedtls-2.16.2/library/rsa.c ****          * T = T * Vf mod N
1004:/home/xingli/share/LiteOS_Lab/network/dtls/mbedtls/mbedtls-2.16.2/library/rsa.c ****          */
1005:/home/xingli/share/LiteOS_Lab/network/dtls/mbedtls/mbedtls-2.16.2/library/rsa.c ****         MBEDTLS_MPI_CHK( mbedtls_mpi_mul_mpi( &T, &T, &ctx->Vf ) );
 2575              		.loc 1 1005 9
 2576 05d1 488B8598 		movq	-360(%rbp), %rax
 2576      FEFFFF
 2577 05d8 488D9030 		leaq	304(%rax), %rdx
 2577      010000
 2578 05df 488D8DC0 		leaq	-320(%rbp), %rcx
 2578      FEFFFF
 2579 05e6 488D85C0 		leaq	-320(%rbp), %rax
 2579      FEFFFF
 2580 05ed 4889CE   		movq	%rcx, %rsi
 2581 05f0 4889C7   		movq	%rax, %rdi
 2582 05f3 E8000000 		call	mbedtls_mpi_mul_mpi@PLT
 2582      00
 2583 05f8 8985A4FE 		movl	%eax, -348(%rbp)
 2583      FFFF
 2584 05fe 83BDA4FE 		cmpl	$0, -348(%rbp)
 2584      FFFF00
 2585 0605 0F852701 		jne	.L218
 2585      0000
1006:/home/xingli/share/LiteOS_Lab/network/dtls/mbedtls/mbedtls-2.16.2/library/rsa.c ****         MBEDTLS_MPI_CHK( mbedtls_mpi_mod_mpi( &T, &T, &ctx->N ) );
 2586              		.loc 1 1006 9
 2587 060b 488B8598 		movq	-360(%rbp), %rax
 2587      FEFFFF
 2588 0612 488D5010 		leaq	16(%rax), %rdx
 2589 0616 488D8DC0 		leaq	-320(%rbp), %rcx
 2589      FEFFFF
 2590 061d 488D85C0 		leaq	-320(%rbp), %rax
 2590      FEFFFF
 2591 0624 4889CE   		movq	%rcx, %rsi
 2592 0627 4889C7   		movq	%rax, %rdi
 2593 062a E8000000 		call	mbedtls_mpi_mod_mpi@PLT
 2593      00
 2594 062f 8985A4FE 		movl	%eax, -348(%rbp)
 2594      FFFF
 2595 0635 83BDA4FE 		cmpl	$0, -348(%rbp)
 2595      FFFF00
 2596 063c 0F85F300 		jne	.L219
 2596      0000
 2597              	.L190:
1007:/home/xingli/share/LiteOS_Lab/network/dtls/mbedtls/mbedtls-2.16.2/library/rsa.c ****     }
1008:/home/xingli/share/LiteOS_Lab/network/dtls/mbedtls/mbedtls-2.16.2/library/rsa.c **** 
1009:/home/xingli/share/LiteOS_Lab/network/dtls/mbedtls/mbedtls-2.16.2/library/rsa.c ****     /* Verify the result to prevent glitching attacks. */
1010:/home/xingli/share/LiteOS_Lab/network/dtls/mbedtls/mbedtls-2.16.2/library/rsa.c ****     MBEDTLS_MPI_CHK( mbedtls_mpi_exp_mod( &C, &T, &ctx->E,
 2598              		.loc 1 1010 5
 2599 0642 488B8598 		movq	-360(%rbp), %rax
 2599      FEFFFF
GAS LISTING /tmp/cc6OITWc.s 			page 75


 2600 0649 488DB8D0 		leaq	208(%rax), %rdi
 2600      000000
 2601 0650 488B8598 		movq	-360(%rbp), %rax
 2601      FEFFFF
 2602 0657 488D4810 		leaq	16(%rax), %rcx
 2603 065b 488B8598 		movq	-360(%rbp), %rax
 2603      FEFFFF
 2604 0662 488D5028 		leaq	40(%rax), %rdx
 2605 0666 488DB5C0 		leaq	-320(%rbp), %rsi
 2605      FEFFFF
 2606 066d 488D45E0 		leaq	-32(%rbp), %rax
 2607 0671 4989F8   		movq	%rdi, %r8
 2608 0674 4889C7   		movq	%rax, %rdi
 2609 0677 E8000000 		call	mbedtls_mpi_exp_mod@PLT
 2609      00
 2610 067c 8985A4FE 		movl	%eax, -348(%rbp)
 2610      FFFF
 2611 0682 83BDA4FE 		cmpl	$0, -348(%rbp)
 2611      FFFF00
 2612 0689 0F85A900 		jne	.L220
 2612      0000
1011:/home/xingli/share/LiteOS_Lab/network/dtls/mbedtls/mbedtls-2.16.2/library/rsa.c ****                                           &ctx->N, &ctx->RN ) );
1012:/home/xingli/share/LiteOS_Lab/network/dtls/mbedtls/mbedtls-2.16.2/library/rsa.c ****     if( mbedtls_mpi_cmp_mpi( &C, &I ) != 0 )
 2613              		.loc 1 1012 9
 2614 068f 488D55C0 		leaq	-64(%rbp), %rdx
 2615 0693 488D45E0 		leaq	-32(%rbp), %rax
 2616 0697 4889D6   		movq	%rdx, %rsi
 2617 069a 4889C7   		movq	%rax, %rdi
 2618 069d E8000000 		call	mbedtls_mpi_cmp_mpi@PLT
 2618      00
 2619              		.loc 1 1012 7
 2620 06a2 85C0     		testl	%eax, %eax
 2621 06a4 740F     		je	.L193
1013:/home/xingli/share/LiteOS_Lab/network/dtls/mbedtls/mbedtls-2.16.2/library/rsa.c ****     {
1014:/home/xingli/share/LiteOS_Lab/network/dtls/mbedtls/mbedtls-2.16.2/library/rsa.c ****         ret = MBEDTLS_ERR_RSA_VERIFY_FAILED;
 2622              		.loc 1 1014 13
 2623 06a6 C785A4FE 		movl	$-17280, -348(%rbp)
 2623      FFFF80BC 
 2623      FFFF
1015:/home/xingli/share/LiteOS_Lab/network/dtls/mbedtls/mbedtls-2.16.2/library/rsa.c ****         goto cleanup;
 2624              		.loc 1 1015 9
 2625 06b0 E9840000 		jmp	.L168
 2625      00
 2626              	.L193:
1016:/home/xingli/share/LiteOS_Lab/network/dtls/mbedtls/mbedtls-2.16.2/library/rsa.c ****     }
1017:/home/xingli/share/LiteOS_Lab/network/dtls/mbedtls/mbedtls-2.16.2/library/rsa.c **** 
1018:/home/xingli/share/LiteOS_Lab/network/dtls/mbedtls/mbedtls-2.16.2/library/rsa.c ****     olen = ctx->len;
 2627              		.loc 1 1018 10
 2628 06b5 488B8598 		movq	-360(%rbp), %rax
 2628      FEFFFF
 2629 06bc 488B4008 		movq	8(%rax), %rax
 2630 06c0 488985B8 		movq	%rax, -328(%rbp)
 2630      FEFFFF
1019:/home/xingli/share/LiteOS_Lab/network/dtls/mbedtls/mbedtls-2.16.2/library/rsa.c ****     MBEDTLS_MPI_CHK( mbedtls_mpi_write_binary( &T, output, olen ) );
 2631              		.loc 1 1019 5
 2632 06c7 488B95B8 		movq	-328(%rbp), %rdx
 2632      FEFFFF
GAS LISTING /tmp/cc6OITWc.s 			page 76


 2633 06ce 488B8D78 		movq	-392(%rbp), %rcx
 2633      FEFFFF
 2634 06d5 488D85C0 		leaq	-320(%rbp), %rax
 2634      FEFFFF
 2635 06dc 4889CE   		movq	%rcx, %rsi
 2636 06df 4889C7   		movq	%rax, %rdi
 2637 06e2 E8000000 		call	mbedtls_mpi_write_binary@PLT
 2637      00
 2638 06e7 8985A4FE 		movl	%eax, -348(%rbp)
 2638      FFFF
 2639 06ed 83BDA4FE 		cmpl	$0, -348(%rbp)
 2639      FFFF00
1020:/home/xingli/share/LiteOS_Lab/network/dtls/mbedtls/mbedtls-2.16.2/library/rsa.c **** 
1021:/home/xingli/share/LiteOS_Lab/network/dtls/mbedtls/mbedtls-2.16.2/library/rsa.c **** cleanup:
 2640              		.loc 1 1021 1
 2641 06f4 EB43     		jmp	.L168
 2642              	.L198:
 911:/home/xingli/share/LiteOS_Lab/network/dtls/mbedtls/mbedtls-2.16.2/library/rsa.c ****     if( mbedtls_mpi_cmp_mpi( &T, &ctx->N ) >= 0 )
 2643              		.loc 1 911 5
 2644 06f6 90       		nop
 2645 06f7 EB40     		jmp	.L168
 2646              	.L199:
 918:/home/xingli/share/LiteOS_Lab/network/dtls/mbedtls/mbedtls-2.16.2/library/rsa.c **** 
 2647              		.loc 1 918 5
 2648 06f9 90       		nop
 2649 06fa EB3D     		jmp	.L168
 2650              	.L200:
 926:/home/xingli/share/LiteOS_Lab/network/dtls/mbedtls/mbedtls-2.16.2/library/rsa.c ****         MBEDTLS_MPI_CHK( mbedtls_mpi_mul_mpi( &T, &T, &ctx->Vi ) );
 2651              		.loc 1 926 9
 2652 06fc 90       		nop
 2653 06fd EB3A     		jmp	.L168
 2654              	.L201:
 927:/home/xingli/share/LiteOS_Lab/network/dtls/mbedtls/mbedtls-2.16.2/library/rsa.c ****         MBEDTLS_MPI_CHK( mbedtls_mpi_mod_mpi( &T, &T, &ctx->N ) );
 2655              		.loc 1 927 9
 2656 06ff 90       		nop
 2657 0700 EB37     		jmp	.L168
 2658              	.L202:
 928:/home/xingli/share/LiteOS_Lab/network/dtls/mbedtls/mbedtls-2.16.2/library/rsa.c **** 
 2659              		.loc 1 928 9
 2660 0702 90       		nop
 2661 0703 EB34     		jmp	.L168
 2662              	.L203:
 933:/home/xingli/share/LiteOS_Lab/network/dtls/mbedtls/mbedtls-2.16.2/library/rsa.c ****         MBEDTLS_MPI_CHK( mbedtls_mpi_sub_int( &Q1, &ctx->Q, 1 ) );
 2663              		.loc 1 933 9
 2664 0705 90       		nop
 2665 0706 EB31     		jmp	.L168
 2666              	.L204:
 934:/home/xingli/share/LiteOS_Lab/network/dtls/mbedtls/mbedtls-2.16.2/library/rsa.c **** 
 2667              		.loc 1 934 9
 2668 0708 90       		nop
 2669 0709 EB2E     		jmp	.L168
 2670              	.L205:
 951:/home/xingli/share/LiteOS_Lab/network/dtls/mbedtls/mbedtls-2.16.2/library/rsa.c ****                          f_rng, p_rng ) );
 2671              		.loc 1 951 9
 2672 070b 90       		nop
 2673 070c EB2B     		jmp	.L168
 2674              	.L206:
GAS LISTING /tmp/cc6OITWc.s 			page 77


 953:/home/xingli/share/LiteOS_Lab/network/dtls/mbedtls/mbedtls-2.16.2/library/rsa.c ****         MBEDTLS_MPI_CHK( mbedtls_mpi_add_mpi( &DP_blind, &DP_blind,
 2675              		.loc 1 953 9
 2676 070e 90       		nop
 2677 070f EB28     		jmp	.L168
 2678              	.L207:
 954:/home/xingli/share/LiteOS_Lab/network/dtls/mbedtls/mbedtls-2.16.2/library/rsa.c ****                     &ctx->DP ) );
 2679              		.loc 1 954 9
 2680 0711 90       		nop
 2681 0712 EB25     		jmp	.L168
 2682              	.L208:
 962:/home/xingli/share/LiteOS_Lab/network/dtls/mbedtls/mbedtls-2.16.2/library/rsa.c ****                          f_rng, p_rng ) );
 2683              		.loc 1 962 9
 2684 0714 90       		nop
 2685 0715 EB22     		jmp	.L168
 2686              	.L209:
 964:/home/xingli/share/LiteOS_Lab/network/dtls/mbedtls/mbedtls-2.16.2/library/rsa.c ****         MBEDTLS_MPI_CHK( mbedtls_mpi_add_mpi( &DQ_blind, &DQ_blind,
 2687              		.loc 1 964 9
 2688 0717 90       		nop
 2689 0718 EB1F     		jmp	.L168
 2690              	.L210:
 965:/home/xingli/share/LiteOS_Lab/network/dtls/mbedtls/mbedtls-2.16.2/library/rsa.c ****                     &ctx->DQ ) );
 2691              		.loc 1 965 9
 2692 071a 90       		nop
 2693 071b EB1C     		jmp	.L168
 2694              	.L211:
 982:/home/xingli/share/LiteOS_Lab/network/dtls/mbedtls/mbedtls-2.16.2/library/rsa.c ****     MBEDTLS_MPI_CHK( mbedtls_mpi_exp_mod( &TQ, &T, DQ, &ctx->Q, &ctx->RQ ) );
 2695              		.loc 1 982 5
 2696 071d 90       		nop
 2697 071e EB19     		jmp	.L168
 2698              	.L212:
 983:/home/xingli/share/LiteOS_Lab/network/dtls/mbedtls/mbedtls-2.16.2/library/rsa.c **** 
 2699              		.loc 1 983 5
 2700 0720 90       		nop
 2701 0721 EB16     		jmp	.L168
 2702              	.L213:
 988:/home/xingli/share/LiteOS_Lab/network/dtls/mbedtls/mbedtls-2.16.2/library/rsa.c ****     MBEDTLS_MPI_CHK( mbedtls_mpi_mul_mpi( &TP, &T, &ctx->QP ) );
 2703              		.loc 1 988 5
 2704 0723 90       		nop
 2705 0724 EB13     		jmp	.L168
 2706              	.L214:
 989:/home/xingli/share/LiteOS_Lab/network/dtls/mbedtls/mbedtls-2.16.2/library/rsa.c ****     MBEDTLS_MPI_CHK( mbedtls_mpi_mod_mpi( &T, &TP, &ctx->P ) );
 2707              		.loc 1 989 5
 2708 0726 90       		nop
 2709 0727 EB10     		jmp	.L168
 2710              	.L215:
 990:/home/xingli/share/LiteOS_Lab/network/dtls/mbedtls/mbedtls-2.16.2/library/rsa.c **** 
 2711              		.loc 1 990 5
 2712 0729 90       		nop
 2713 072a EB0D     		jmp	.L168
 2714              	.L216:
 995:/home/xingli/share/LiteOS_Lab/network/dtls/mbedtls/mbedtls-2.16.2/library/rsa.c ****     MBEDTLS_MPI_CHK( mbedtls_mpi_add_mpi( &T, &TQ, &TP ) );
 2715              		.loc 1 995 5
 2716 072c 90       		nop
 2717 072d EB0A     		jmp	.L168
 2718              	.L217:
 996:/home/xingli/share/LiteOS_Lab/network/dtls/mbedtls/mbedtls-2.16.2/library/rsa.c **** #endif /* MBEDTLS_RSA_NO_CRT */
 2719              		.loc 1 996 5
GAS LISTING /tmp/cc6OITWc.s 			page 78


 2720 072f 90       		nop
 2721 0730 EB07     		jmp	.L168
 2722              	.L218:
1005:/home/xingli/share/LiteOS_Lab/network/dtls/mbedtls/mbedtls-2.16.2/library/rsa.c ****         MBEDTLS_MPI_CHK( mbedtls_mpi_mod_mpi( &T, &T, &ctx->N ) );
 2723              		.loc 1 1005 9
 2724 0732 90       		nop
 2725 0733 EB04     		jmp	.L168
 2726              	.L219:
1006:/home/xingli/share/LiteOS_Lab/network/dtls/mbedtls/mbedtls-2.16.2/library/rsa.c ****     }
 2727              		.loc 1 1006 9
 2728 0735 90       		nop
 2729 0736 EB01     		jmp	.L168
 2730              	.L220:
1010:/home/xingli/share/LiteOS_Lab/network/dtls/mbedtls/mbedtls-2.16.2/library/rsa.c ****                                           &ctx->N, &ctx->RN ) );
 2731              		.loc 1 1010 5
 2732 0738 90       		nop
 2733              	.L168:
1022:/home/xingli/share/LiteOS_Lab/network/dtls/mbedtls/mbedtls-2.16.2/library/rsa.c **** #if defined(MBEDTLS_THREADING_C)
