GAS LISTING /tmp/ccSYGV05.s 			page 1


   1              		.file	"ssl_cookie.c"
   2              		.text
   3              	.Ltext0:
   4              		.section	.text.mbedtls_ssl_safer_memcmp,"ax",@progbits
   6              	mbedtls_ssl_safer_memcmp:
   7              	.LFB26:
   8              		.file 1 "/home/xingli/share/1205tiny/network/dtls/mbedtls/mbedtls-2.16.2/include/mbedtls/ssl_inter
   1:/home/xingli/share/1205tiny/network/dtls/mbedtls/mbedtls-2.16.2/include/mbedtls/ssl_internal.h **** /**
   2:/home/xingli/share/1205tiny/network/dtls/mbedtls/mbedtls-2.16.2/include/mbedtls/ssl_internal.h ****  * \file ssl_internal.h
   3:/home/xingli/share/1205tiny/network/dtls/mbedtls/mbedtls-2.16.2/include/mbedtls/ssl_internal.h ****  *
   4:/home/xingli/share/1205tiny/network/dtls/mbedtls/mbedtls-2.16.2/include/mbedtls/ssl_internal.h ****  * \brief Internal functions shared by the SSL modules
   5:/home/xingli/share/1205tiny/network/dtls/mbedtls/mbedtls-2.16.2/include/mbedtls/ssl_internal.h ****  */
   6:/home/xingli/share/1205tiny/network/dtls/mbedtls/mbedtls-2.16.2/include/mbedtls/ssl_internal.h **** /*
   7:/home/xingli/share/1205tiny/network/dtls/mbedtls/mbedtls-2.16.2/include/mbedtls/ssl_internal.h ****  *  Copyright (C) 2006-2015, ARM Limited, All Rights Reserved
   8:/home/xingli/share/1205tiny/network/dtls/mbedtls/mbedtls-2.16.2/include/mbedtls/ssl_internal.h ****  *  SPDX-License-Identifier: Apache-2.0
   9:/home/xingli/share/1205tiny/network/dtls/mbedtls/mbedtls-2.16.2/include/mbedtls/ssl_internal.h ****  *
  10:/home/xingli/share/1205tiny/network/dtls/mbedtls/mbedtls-2.16.2/include/mbedtls/ssl_internal.h ****  *  Licensed under the Apache License, Version 2.0 (the "License"); you may
  11:/home/xingli/share/1205tiny/network/dtls/mbedtls/mbedtls-2.16.2/include/mbedtls/ssl_internal.h ****  *  not use this file except in compliance with the License.
  12:/home/xingli/share/1205tiny/network/dtls/mbedtls/mbedtls-2.16.2/include/mbedtls/ssl_internal.h ****  *  You may obtain a copy of the License at
  13:/home/xingli/share/1205tiny/network/dtls/mbedtls/mbedtls-2.16.2/include/mbedtls/ssl_internal.h ****  *
  14:/home/xingli/share/1205tiny/network/dtls/mbedtls/mbedtls-2.16.2/include/mbedtls/ssl_internal.h ****  *  http://www.apache.org/licenses/LICENSE-2.0
  15:/home/xingli/share/1205tiny/network/dtls/mbedtls/mbedtls-2.16.2/include/mbedtls/ssl_internal.h ****  *
  16:/home/xingli/share/1205tiny/network/dtls/mbedtls/mbedtls-2.16.2/include/mbedtls/ssl_internal.h ****  *  Unless required by applicable law or agreed to in writing, software
  17:/home/xingli/share/1205tiny/network/dtls/mbedtls/mbedtls-2.16.2/include/mbedtls/ssl_internal.h ****  *  distributed under the License is distributed on an "AS IS" BASIS, WITHOUT
  18:/home/xingli/share/1205tiny/network/dtls/mbedtls/mbedtls-2.16.2/include/mbedtls/ssl_internal.h ****  *  WARRANTIES OR CONDITIONS OF ANY KIND, either express or implied.
  19:/home/xingli/share/1205tiny/network/dtls/mbedtls/mbedtls-2.16.2/include/mbedtls/ssl_internal.h ****  *  See the License for the specific language governing permissions and
  20:/home/xingli/share/1205tiny/network/dtls/mbedtls/mbedtls-2.16.2/include/mbedtls/ssl_internal.h ****  *  limitations under the License.
  21:/home/xingli/share/1205tiny/network/dtls/mbedtls/mbedtls-2.16.2/include/mbedtls/ssl_internal.h ****  *
  22:/home/xingli/share/1205tiny/network/dtls/mbedtls/mbedtls-2.16.2/include/mbedtls/ssl_internal.h ****  *  This file is part of mbed TLS (https://tls.mbed.org)
  23:/home/xingli/share/1205tiny/network/dtls/mbedtls/mbedtls-2.16.2/include/mbedtls/ssl_internal.h ****  */
  24:/home/xingli/share/1205tiny/network/dtls/mbedtls/mbedtls-2.16.2/include/mbedtls/ssl_internal.h **** #ifndef MBEDTLS_SSL_INTERNAL_H
  25:/home/xingli/share/1205tiny/network/dtls/mbedtls/mbedtls-2.16.2/include/mbedtls/ssl_internal.h **** #define MBEDTLS_SSL_INTERNAL_H
  26:/home/xingli/share/1205tiny/network/dtls/mbedtls/mbedtls-2.16.2/include/mbedtls/ssl_internal.h **** 
  27:/home/xingli/share/1205tiny/network/dtls/mbedtls/mbedtls-2.16.2/include/mbedtls/ssl_internal.h **** #if !defined(MBEDTLS_CONFIG_FILE)
  28:/home/xingli/share/1205tiny/network/dtls/mbedtls/mbedtls-2.16.2/include/mbedtls/ssl_internal.h **** #include "config.h"
  29:/home/xingli/share/1205tiny/network/dtls/mbedtls/mbedtls-2.16.2/include/mbedtls/ssl_internal.h **** #else
  30:/home/xingli/share/1205tiny/network/dtls/mbedtls/mbedtls-2.16.2/include/mbedtls/ssl_internal.h **** #include MBEDTLS_CONFIG_FILE
  31:/home/xingli/share/1205tiny/network/dtls/mbedtls/mbedtls-2.16.2/include/mbedtls/ssl_internal.h **** #endif
  32:/home/xingli/share/1205tiny/network/dtls/mbedtls/mbedtls-2.16.2/include/mbedtls/ssl_internal.h **** 
  33:/home/xingli/share/1205tiny/network/dtls/mbedtls/mbedtls-2.16.2/include/mbedtls/ssl_internal.h **** #include "ssl.h"
  34:/home/xingli/share/1205tiny/network/dtls/mbedtls/mbedtls-2.16.2/include/mbedtls/ssl_internal.h **** #include "cipher.h"
  35:/home/xingli/share/1205tiny/network/dtls/mbedtls/mbedtls-2.16.2/include/mbedtls/ssl_internal.h **** 
  36:/home/xingli/share/1205tiny/network/dtls/mbedtls/mbedtls-2.16.2/include/mbedtls/ssl_internal.h **** #if defined(MBEDTLS_MD5_C)
  37:/home/xingli/share/1205tiny/network/dtls/mbedtls/mbedtls-2.16.2/include/mbedtls/ssl_internal.h **** #include "md5.h"
  38:/home/xingli/share/1205tiny/network/dtls/mbedtls/mbedtls-2.16.2/include/mbedtls/ssl_internal.h **** #endif
  39:/home/xingli/share/1205tiny/network/dtls/mbedtls/mbedtls-2.16.2/include/mbedtls/ssl_internal.h **** 
  40:/home/xingli/share/1205tiny/network/dtls/mbedtls/mbedtls-2.16.2/include/mbedtls/ssl_internal.h **** #if defined(MBEDTLS_SHA1_C)
  41:/home/xingli/share/1205tiny/network/dtls/mbedtls/mbedtls-2.16.2/include/mbedtls/ssl_internal.h **** #include "sha1.h"
  42:/home/xingli/share/1205tiny/network/dtls/mbedtls/mbedtls-2.16.2/include/mbedtls/ssl_internal.h **** #endif
  43:/home/xingli/share/1205tiny/network/dtls/mbedtls/mbedtls-2.16.2/include/mbedtls/ssl_internal.h **** 
  44:/home/xingli/share/1205tiny/network/dtls/mbedtls/mbedtls-2.16.2/include/mbedtls/ssl_internal.h **** #if defined(MBEDTLS_SHA256_C)
  45:/home/xingli/share/1205tiny/network/dtls/mbedtls/mbedtls-2.16.2/include/mbedtls/ssl_internal.h **** #include "sha256.h"
  46:/home/xingli/share/1205tiny/network/dtls/mbedtls/mbedtls-2.16.2/include/mbedtls/ssl_internal.h **** #endif
  47:/home/xingli/share/1205tiny/network/dtls/mbedtls/mbedtls-2.16.2/include/mbedtls/ssl_internal.h **** 
  48:/home/xingli/share/1205tiny/network/dtls/mbedtls/mbedtls-2.16.2/include/mbedtls/ssl_internal.h **** #if defined(MBEDTLS_SHA512_C)
  49:/home/xingli/share/1205tiny/network/dtls/mbedtls/mbedtls-2.16.2/include/mbedtls/ssl_internal.h **** #include "sha512.h"
  50:/home/xingli/share/1205tiny/network/dtls/mbedtls/mbedtls-2.16.2/include/mbedtls/ssl_internal.h **** #endif
GAS LISTING /tmp/ccSYGV05.s 			page 2


  51:/home/xingli/share/1205tiny/network/dtls/mbedtls/mbedtls-2.16.2/include/mbedtls/ssl_internal.h **** 
  52:/home/xingli/share/1205tiny/network/dtls/mbedtls/mbedtls-2.16.2/include/mbedtls/ssl_internal.h **** #if defined(MBEDTLS_KEY_EXCHANGE_ECJPAKE_ENABLED)
  53:/home/xingli/share/1205tiny/network/dtls/mbedtls/mbedtls-2.16.2/include/mbedtls/ssl_internal.h **** #include "ecjpake.h"
  54:/home/xingli/share/1205tiny/network/dtls/mbedtls/mbedtls-2.16.2/include/mbedtls/ssl_internal.h **** #endif
  55:/home/xingli/share/1205tiny/network/dtls/mbedtls/mbedtls-2.16.2/include/mbedtls/ssl_internal.h **** 
  56:/home/xingli/share/1205tiny/network/dtls/mbedtls/mbedtls-2.16.2/include/mbedtls/ssl_internal.h **** #if ( defined(__ARMCC_VERSION) || defined(_MSC_VER) ) && \
  57:/home/xingli/share/1205tiny/network/dtls/mbedtls/mbedtls-2.16.2/include/mbedtls/ssl_internal.h ****     !defined(inline) && !defined(__cplusplus)
  58:/home/xingli/share/1205tiny/network/dtls/mbedtls/mbedtls-2.16.2/include/mbedtls/ssl_internal.h **** #define inline __inline
  59:/home/xingli/share/1205tiny/network/dtls/mbedtls/mbedtls-2.16.2/include/mbedtls/ssl_internal.h **** #endif
  60:/home/xingli/share/1205tiny/network/dtls/mbedtls/mbedtls-2.16.2/include/mbedtls/ssl_internal.h **** 
  61:/home/xingli/share/1205tiny/network/dtls/mbedtls/mbedtls-2.16.2/include/mbedtls/ssl_internal.h **** /* Determine minimum supported version */
  62:/home/xingli/share/1205tiny/network/dtls/mbedtls/mbedtls-2.16.2/include/mbedtls/ssl_internal.h **** #define MBEDTLS_SSL_MIN_MAJOR_VERSION           MBEDTLS_SSL_MAJOR_VERSION_3
  63:/home/xingli/share/1205tiny/network/dtls/mbedtls/mbedtls-2.16.2/include/mbedtls/ssl_internal.h **** 
  64:/home/xingli/share/1205tiny/network/dtls/mbedtls/mbedtls-2.16.2/include/mbedtls/ssl_internal.h **** #if defined(MBEDTLS_SSL_PROTO_SSL3)
  65:/home/xingli/share/1205tiny/network/dtls/mbedtls/mbedtls-2.16.2/include/mbedtls/ssl_internal.h **** #define MBEDTLS_SSL_MIN_MINOR_VERSION           MBEDTLS_SSL_MINOR_VERSION_0
  66:/home/xingli/share/1205tiny/network/dtls/mbedtls/mbedtls-2.16.2/include/mbedtls/ssl_internal.h **** #else
  67:/home/xingli/share/1205tiny/network/dtls/mbedtls/mbedtls-2.16.2/include/mbedtls/ssl_internal.h **** #if defined(MBEDTLS_SSL_PROTO_TLS1)
  68:/home/xingli/share/1205tiny/network/dtls/mbedtls/mbedtls-2.16.2/include/mbedtls/ssl_internal.h **** #define MBEDTLS_SSL_MIN_MINOR_VERSION           MBEDTLS_SSL_MINOR_VERSION_1
  69:/home/xingli/share/1205tiny/network/dtls/mbedtls/mbedtls-2.16.2/include/mbedtls/ssl_internal.h **** #else
  70:/home/xingli/share/1205tiny/network/dtls/mbedtls/mbedtls-2.16.2/include/mbedtls/ssl_internal.h **** #if defined(MBEDTLS_SSL_PROTO_TLS1_1)
  71:/home/xingli/share/1205tiny/network/dtls/mbedtls/mbedtls-2.16.2/include/mbedtls/ssl_internal.h **** #define MBEDTLS_SSL_MIN_MINOR_VERSION           MBEDTLS_SSL_MINOR_VERSION_2
  72:/home/xingli/share/1205tiny/network/dtls/mbedtls/mbedtls-2.16.2/include/mbedtls/ssl_internal.h **** #else
  73:/home/xingli/share/1205tiny/network/dtls/mbedtls/mbedtls-2.16.2/include/mbedtls/ssl_internal.h **** #if defined(MBEDTLS_SSL_PROTO_TLS1_2)
  74:/home/xingli/share/1205tiny/network/dtls/mbedtls/mbedtls-2.16.2/include/mbedtls/ssl_internal.h **** #define MBEDTLS_SSL_MIN_MINOR_VERSION           MBEDTLS_SSL_MINOR_VERSION_3
  75:/home/xingli/share/1205tiny/network/dtls/mbedtls/mbedtls-2.16.2/include/mbedtls/ssl_internal.h **** #endif /* MBEDTLS_SSL_PROTO_TLS1_2 */
  76:/home/xingli/share/1205tiny/network/dtls/mbedtls/mbedtls-2.16.2/include/mbedtls/ssl_internal.h **** #endif /* MBEDTLS_SSL_PROTO_TLS1_1 */
  77:/home/xingli/share/1205tiny/network/dtls/mbedtls/mbedtls-2.16.2/include/mbedtls/ssl_internal.h **** #endif /* MBEDTLS_SSL_PROTO_TLS1   */
  78:/home/xingli/share/1205tiny/network/dtls/mbedtls/mbedtls-2.16.2/include/mbedtls/ssl_internal.h **** #endif /* MBEDTLS_SSL_PROTO_SSL3   */
  79:/home/xingli/share/1205tiny/network/dtls/mbedtls/mbedtls-2.16.2/include/mbedtls/ssl_internal.h **** 
  80:/home/xingli/share/1205tiny/network/dtls/mbedtls/mbedtls-2.16.2/include/mbedtls/ssl_internal.h **** #define MBEDTLS_SSL_MIN_VALID_MINOR_VERSION MBEDTLS_SSL_MINOR_VERSION_1
  81:/home/xingli/share/1205tiny/network/dtls/mbedtls/mbedtls-2.16.2/include/mbedtls/ssl_internal.h **** #define MBEDTLS_SSL_MIN_VALID_MAJOR_VERSION MBEDTLS_SSL_MAJOR_VERSION_3
  82:/home/xingli/share/1205tiny/network/dtls/mbedtls/mbedtls-2.16.2/include/mbedtls/ssl_internal.h **** 
  83:/home/xingli/share/1205tiny/network/dtls/mbedtls/mbedtls-2.16.2/include/mbedtls/ssl_internal.h **** /* Determine maximum supported version */
  84:/home/xingli/share/1205tiny/network/dtls/mbedtls/mbedtls-2.16.2/include/mbedtls/ssl_internal.h **** #define MBEDTLS_SSL_MAX_MAJOR_VERSION           MBEDTLS_SSL_MAJOR_VERSION_3
  85:/home/xingli/share/1205tiny/network/dtls/mbedtls/mbedtls-2.16.2/include/mbedtls/ssl_internal.h **** 
  86:/home/xingli/share/1205tiny/network/dtls/mbedtls/mbedtls-2.16.2/include/mbedtls/ssl_internal.h **** #if defined(MBEDTLS_SSL_PROTO_TLS1_2)
  87:/home/xingli/share/1205tiny/network/dtls/mbedtls/mbedtls-2.16.2/include/mbedtls/ssl_internal.h **** #define MBEDTLS_SSL_MAX_MINOR_VERSION           MBEDTLS_SSL_MINOR_VERSION_3
  88:/home/xingli/share/1205tiny/network/dtls/mbedtls/mbedtls-2.16.2/include/mbedtls/ssl_internal.h **** #else
  89:/home/xingli/share/1205tiny/network/dtls/mbedtls/mbedtls-2.16.2/include/mbedtls/ssl_internal.h **** #if defined(MBEDTLS_SSL_PROTO_TLS1_1)
  90:/home/xingli/share/1205tiny/network/dtls/mbedtls/mbedtls-2.16.2/include/mbedtls/ssl_internal.h **** #define MBEDTLS_SSL_MAX_MINOR_VERSION           MBEDTLS_SSL_MINOR_VERSION_2
  91:/home/xingli/share/1205tiny/network/dtls/mbedtls/mbedtls-2.16.2/include/mbedtls/ssl_internal.h **** #else
  92:/home/xingli/share/1205tiny/network/dtls/mbedtls/mbedtls-2.16.2/include/mbedtls/ssl_internal.h **** #if defined(MBEDTLS_SSL_PROTO_TLS1)
  93:/home/xingli/share/1205tiny/network/dtls/mbedtls/mbedtls-2.16.2/include/mbedtls/ssl_internal.h **** #define MBEDTLS_SSL_MAX_MINOR_VERSION           MBEDTLS_SSL_MINOR_VERSION_1
  94:/home/xingli/share/1205tiny/network/dtls/mbedtls/mbedtls-2.16.2/include/mbedtls/ssl_internal.h **** #else
  95:/home/xingli/share/1205tiny/network/dtls/mbedtls/mbedtls-2.16.2/include/mbedtls/ssl_internal.h **** #if defined(MBEDTLS_SSL_PROTO_SSL3)
  96:/home/xingli/share/1205tiny/network/dtls/mbedtls/mbedtls-2.16.2/include/mbedtls/ssl_internal.h **** #define MBEDTLS_SSL_MAX_MINOR_VERSION           MBEDTLS_SSL_MINOR_VERSION_0
  97:/home/xingli/share/1205tiny/network/dtls/mbedtls/mbedtls-2.16.2/include/mbedtls/ssl_internal.h **** #endif /* MBEDTLS_SSL_PROTO_SSL3   */
  98:/home/xingli/share/1205tiny/network/dtls/mbedtls/mbedtls-2.16.2/include/mbedtls/ssl_internal.h **** #endif /* MBEDTLS_SSL_PROTO_TLS1   */
  99:/home/xingli/share/1205tiny/network/dtls/mbedtls/mbedtls-2.16.2/include/mbedtls/ssl_internal.h **** #endif /* MBEDTLS_SSL_PROTO_TLS1_1 */
 100:/home/xingli/share/1205tiny/network/dtls/mbedtls/mbedtls-2.16.2/include/mbedtls/ssl_internal.h **** #endif /* MBEDTLS_SSL_PROTO_TLS1_2 */
 101:/home/xingli/share/1205tiny/network/dtls/mbedtls/mbedtls-2.16.2/include/mbedtls/ssl_internal.h **** 
 102:/home/xingli/share/1205tiny/network/dtls/mbedtls/mbedtls-2.16.2/include/mbedtls/ssl_internal.h **** /* Shorthand for restartable ECC */
 103:/home/xingli/share/1205tiny/network/dtls/mbedtls/mbedtls-2.16.2/include/mbedtls/ssl_internal.h **** #if defined(MBEDTLS_ECP_RESTARTABLE) && \
 104:/home/xingli/share/1205tiny/network/dtls/mbedtls/mbedtls-2.16.2/include/mbedtls/ssl_internal.h ****     defined(MBEDTLS_SSL_CLI_C) && \
 105:/home/xingli/share/1205tiny/network/dtls/mbedtls/mbedtls-2.16.2/include/mbedtls/ssl_internal.h ****     defined(MBEDTLS_SSL_PROTO_TLS1_2) && \
 106:/home/xingli/share/1205tiny/network/dtls/mbedtls/mbedtls-2.16.2/include/mbedtls/ssl_internal.h ****     defined(MBEDTLS_KEY_EXCHANGE_ECDHE_ECDSA_ENABLED)
 107:/home/xingli/share/1205tiny/network/dtls/mbedtls/mbedtls-2.16.2/include/mbedtls/ssl_internal.h **** #define MBEDTLS_SSL__ECP_RESTARTABLE
GAS LISTING /tmp/ccSYGV05.s 			page 3


 108:/home/xingli/share/1205tiny/network/dtls/mbedtls/mbedtls-2.16.2/include/mbedtls/ssl_internal.h **** #endif
 109:/home/xingli/share/1205tiny/network/dtls/mbedtls/mbedtls-2.16.2/include/mbedtls/ssl_internal.h **** 
 110:/home/xingli/share/1205tiny/network/dtls/mbedtls/mbedtls-2.16.2/include/mbedtls/ssl_internal.h **** #define MBEDTLS_SSL_INITIAL_HANDSHAKE           0
 111:/home/xingli/share/1205tiny/network/dtls/mbedtls/mbedtls-2.16.2/include/mbedtls/ssl_internal.h **** #define MBEDTLS_SSL_RENEGOTIATION_IN_PROGRESS   1   /* In progress */
 112:/home/xingli/share/1205tiny/network/dtls/mbedtls/mbedtls-2.16.2/include/mbedtls/ssl_internal.h **** #define MBEDTLS_SSL_RENEGOTIATION_DONE          2   /* Done or aborted */
 113:/home/xingli/share/1205tiny/network/dtls/mbedtls/mbedtls-2.16.2/include/mbedtls/ssl_internal.h **** #define MBEDTLS_SSL_RENEGOTIATION_PENDING       3   /* Requested (server only) */
 114:/home/xingli/share/1205tiny/network/dtls/mbedtls/mbedtls-2.16.2/include/mbedtls/ssl_internal.h **** 
 115:/home/xingli/share/1205tiny/network/dtls/mbedtls/mbedtls-2.16.2/include/mbedtls/ssl_internal.h **** /*
 116:/home/xingli/share/1205tiny/network/dtls/mbedtls/mbedtls-2.16.2/include/mbedtls/ssl_internal.h ****  * DTLS retransmission states, see RFC 6347 4.2.4
 117:/home/xingli/share/1205tiny/network/dtls/mbedtls/mbedtls-2.16.2/include/mbedtls/ssl_internal.h ****  *
 118:/home/xingli/share/1205tiny/network/dtls/mbedtls/mbedtls-2.16.2/include/mbedtls/ssl_internal.h ****  * The SENDING state is merged in PREPARING for initial sends,
 119:/home/xingli/share/1205tiny/network/dtls/mbedtls/mbedtls-2.16.2/include/mbedtls/ssl_internal.h ****  * but is distinct for resends.
 120:/home/xingli/share/1205tiny/network/dtls/mbedtls/mbedtls-2.16.2/include/mbedtls/ssl_internal.h ****  *
 121:/home/xingli/share/1205tiny/network/dtls/mbedtls/mbedtls-2.16.2/include/mbedtls/ssl_internal.h ****  * Note: initial state is wrong for server, but is not used anyway.
 122:/home/xingli/share/1205tiny/network/dtls/mbedtls/mbedtls-2.16.2/include/mbedtls/ssl_internal.h ****  */
 123:/home/xingli/share/1205tiny/network/dtls/mbedtls/mbedtls-2.16.2/include/mbedtls/ssl_internal.h **** #define MBEDTLS_SSL_RETRANS_PREPARING       0
 124:/home/xingli/share/1205tiny/network/dtls/mbedtls/mbedtls-2.16.2/include/mbedtls/ssl_internal.h **** #define MBEDTLS_SSL_RETRANS_SENDING         1
 125:/home/xingli/share/1205tiny/network/dtls/mbedtls/mbedtls-2.16.2/include/mbedtls/ssl_internal.h **** #define MBEDTLS_SSL_RETRANS_WAITING         2
 126:/home/xingli/share/1205tiny/network/dtls/mbedtls/mbedtls-2.16.2/include/mbedtls/ssl_internal.h **** #define MBEDTLS_SSL_RETRANS_FINISHED        3
 127:/home/xingli/share/1205tiny/network/dtls/mbedtls/mbedtls-2.16.2/include/mbedtls/ssl_internal.h **** 
 128:/home/xingli/share/1205tiny/network/dtls/mbedtls/mbedtls-2.16.2/include/mbedtls/ssl_internal.h **** /*
 129:/home/xingli/share/1205tiny/network/dtls/mbedtls/mbedtls-2.16.2/include/mbedtls/ssl_internal.h ****  * Allow extra bytes for record, authentication and encryption overhead:
 130:/home/xingli/share/1205tiny/network/dtls/mbedtls/mbedtls-2.16.2/include/mbedtls/ssl_internal.h ****  * counter (8) + header (5) + IV(16) + MAC (16-48) + padding (0-256)
 131:/home/xingli/share/1205tiny/network/dtls/mbedtls/mbedtls-2.16.2/include/mbedtls/ssl_internal.h ****  * and allow for a maximum of 1024 of compression expansion if
 132:/home/xingli/share/1205tiny/network/dtls/mbedtls/mbedtls-2.16.2/include/mbedtls/ssl_internal.h ****  * enabled.
 133:/home/xingli/share/1205tiny/network/dtls/mbedtls/mbedtls-2.16.2/include/mbedtls/ssl_internal.h ****  */
 134:/home/xingli/share/1205tiny/network/dtls/mbedtls/mbedtls-2.16.2/include/mbedtls/ssl_internal.h **** #if defined(MBEDTLS_ZLIB_SUPPORT)
 135:/home/xingli/share/1205tiny/network/dtls/mbedtls/mbedtls-2.16.2/include/mbedtls/ssl_internal.h **** #define MBEDTLS_SSL_COMPRESSION_ADD          1024
 136:/home/xingli/share/1205tiny/network/dtls/mbedtls/mbedtls-2.16.2/include/mbedtls/ssl_internal.h **** #else
 137:/home/xingli/share/1205tiny/network/dtls/mbedtls/mbedtls-2.16.2/include/mbedtls/ssl_internal.h **** #define MBEDTLS_SSL_COMPRESSION_ADD             0
 138:/home/xingli/share/1205tiny/network/dtls/mbedtls/mbedtls-2.16.2/include/mbedtls/ssl_internal.h **** #endif
 139:/home/xingli/share/1205tiny/network/dtls/mbedtls/mbedtls-2.16.2/include/mbedtls/ssl_internal.h **** 
 140:/home/xingli/share/1205tiny/network/dtls/mbedtls/mbedtls-2.16.2/include/mbedtls/ssl_internal.h **** #if defined(MBEDTLS_ARC4_C) || defined(MBEDTLS_CIPHER_MODE_CBC)
 141:/home/xingli/share/1205tiny/network/dtls/mbedtls/mbedtls-2.16.2/include/mbedtls/ssl_internal.h **** /* Ciphersuites using HMAC */
 142:/home/xingli/share/1205tiny/network/dtls/mbedtls/mbedtls-2.16.2/include/mbedtls/ssl_internal.h **** #if defined(MBEDTLS_SHA512_C)
 143:/home/xingli/share/1205tiny/network/dtls/mbedtls/mbedtls-2.16.2/include/mbedtls/ssl_internal.h **** #define MBEDTLS_SSL_MAC_ADD                 48  /* SHA-384 used for HMAC */
 144:/home/xingli/share/1205tiny/network/dtls/mbedtls/mbedtls-2.16.2/include/mbedtls/ssl_internal.h **** #elif defined(MBEDTLS_SHA256_C)
 145:/home/xingli/share/1205tiny/network/dtls/mbedtls/mbedtls-2.16.2/include/mbedtls/ssl_internal.h **** #define MBEDTLS_SSL_MAC_ADD                 32  /* SHA-256 used for HMAC */
 146:/home/xingli/share/1205tiny/network/dtls/mbedtls/mbedtls-2.16.2/include/mbedtls/ssl_internal.h **** #else
 147:/home/xingli/share/1205tiny/network/dtls/mbedtls/mbedtls-2.16.2/include/mbedtls/ssl_internal.h **** #define MBEDTLS_SSL_MAC_ADD                 20  /* SHA-1   used for HMAC */
 148:/home/xingli/share/1205tiny/network/dtls/mbedtls/mbedtls-2.16.2/include/mbedtls/ssl_internal.h **** #endif
 149:/home/xingli/share/1205tiny/network/dtls/mbedtls/mbedtls-2.16.2/include/mbedtls/ssl_internal.h **** #else
 150:/home/xingli/share/1205tiny/network/dtls/mbedtls/mbedtls-2.16.2/include/mbedtls/ssl_internal.h **** /* AEAD ciphersuites: GCM and CCM use a 128 bits tag */
 151:/home/xingli/share/1205tiny/network/dtls/mbedtls/mbedtls-2.16.2/include/mbedtls/ssl_internal.h **** #define MBEDTLS_SSL_MAC_ADD                 16
 152:/home/xingli/share/1205tiny/network/dtls/mbedtls/mbedtls-2.16.2/include/mbedtls/ssl_internal.h **** #endif
 153:/home/xingli/share/1205tiny/network/dtls/mbedtls/mbedtls-2.16.2/include/mbedtls/ssl_internal.h **** 
 154:/home/xingli/share/1205tiny/network/dtls/mbedtls/mbedtls-2.16.2/include/mbedtls/ssl_internal.h **** #if defined(MBEDTLS_CIPHER_MODE_CBC)
 155:/home/xingli/share/1205tiny/network/dtls/mbedtls/mbedtls-2.16.2/include/mbedtls/ssl_internal.h **** #define MBEDTLS_SSL_PADDING_ADD            256
 156:/home/xingli/share/1205tiny/network/dtls/mbedtls/mbedtls-2.16.2/include/mbedtls/ssl_internal.h **** #else
 157:/home/xingli/share/1205tiny/network/dtls/mbedtls/mbedtls-2.16.2/include/mbedtls/ssl_internal.h **** #define MBEDTLS_SSL_PADDING_ADD              0
 158:/home/xingli/share/1205tiny/network/dtls/mbedtls/mbedtls-2.16.2/include/mbedtls/ssl_internal.h **** #endif
 159:/home/xingli/share/1205tiny/network/dtls/mbedtls/mbedtls-2.16.2/include/mbedtls/ssl_internal.h **** 
 160:/home/xingli/share/1205tiny/network/dtls/mbedtls/mbedtls-2.16.2/include/mbedtls/ssl_internal.h **** #define MBEDTLS_SSL_PAYLOAD_OVERHEAD ( MBEDTLS_SSL_COMPRESSION_ADD +    \
 161:/home/xingli/share/1205tiny/network/dtls/mbedtls/mbedtls-2.16.2/include/mbedtls/ssl_internal.h ****                                        MBEDTLS_MAX_IV_LENGTH +          \
 162:/home/xingli/share/1205tiny/network/dtls/mbedtls/mbedtls-2.16.2/include/mbedtls/ssl_internal.h ****                                        MBEDTLS_SSL_MAC_ADD +            \
 163:/home/xingli/share/1205tiny/network/dtls/mbedtls/mbedtls-2.16.2/include/mbedtls/ssl_internal.h ****                                        MBEDTLS_SSL_PADDING_ADD          \
 164:/home/xingli/share/1205tiny/network/dtls/mbedtls/mbedtls-2.16.2/include/mbedtls/ssl_internal.h ****                                        )
GAS LISTING /tmp/ccSYGV05.s 			page 4


 165:/home/xingli/share/1205tiny/network/dtls/mbedtls/mbedtls-2.16.2/include/mbedtls/ssl_internal.h **** 
 166:/home/xingli/share/1205tiny/network/dtls/mbedtls/mbedtls-2.16.2/include/mbedtls/ssl_internal.h **** #define MBEDTLS_SSL_IN_PAYLOAD_LEN ( MBEDTLS_SSL_PAYLOAD_OVERHEAD + \
 167:/home/xingli/share/1205tiny/network/dtls/mbedtls/mbedtls-2.16.2/include/mbedtls/ssl_internal.h ****                                      ( MBEDTLS_SSL_IN_CONTENT_LEN ) )
 168:/home/xingli/share/1205tiny/network/dtls/mbedtls/mbedtls-2.16.2/include/mbedtls/ssl_internal.h **** 
 169:/home/xingli/share/1205tiny/network/dtls/mbedtls/mbedtls-2.16.2/include/mbedtls/ssl_internal.h **** #define MBEDTLS_SSL_OUT_PAYLOAD_LEN ( MBEDTLS_SSL_PAYLOAD_OVERHEAD + \
 170:/home/xingli/share/1205tiny/network/dtls/mbedtls/mbedtls-2.16.2/include/mbedtls/ssl_internal.h ****                                       ( MBEDTLS_SSL_OUT_CONTENT_LEN ) )
 171:/home/xingli/share/1205tiny/network/dtls/mbedtls/mbedtls-2.16.2/include/mbedtls/ssl_internal.h **** 
 172:/home/xingli/share/1205tiny/network/dtls/mbedtls/mbedtls-2.16.2/include/mbedtls/ssl_internal.h **** /* The maximum number of buffered handshake messages. */
 173:/home/xingli/share/1205tiny/network/dtls/mbedtls/mbedtls-2.16.2/include/mbedtls/ssl_internal.h **** #define MBEDTLS_SSL_MAX_BUFFERED_HS 4
 174:/home/xingli/share/1205tiny/network/dtls/mbedtls/mbedtls-2.16.2/include/mbedtls/ssl_internal.h **** 
 175:/home/xingli/share/1205tiny/network/dtls/mbedtls/mbedtls-2.16.2/include/mbedtls/ssl_internal.h **** /* Maximum length we can advertise as our max content length for
 176:/home/xingli/share/1205tiny/network/dtls/mbedtls/mbedtls-2.16.2/include/mbedtls/ssl_internal.h ****    RFC 6066 max_fragment_length extension negotiation purposes
 177:/home/xingli/share/1205tiny/network/dtls/mbedtls/mbedtls-2.16.2/include/mbedtls/ssl_internal.h ****    (the lesser of both sizes, if they are unequal.)
 178:/home/xingli/share/1205tiny/network/dtls/mbedtls/mbedtls-2.16.2/include/mbedtls/ssl_internal.h ****  */
 179:/home/xingli/share/1205tiny/network/dtls/mbedtls/mbedtls-2.16.2/include/mbedtls/ssl_internal.h **** #define MBEDTLS_TLS_EXT_ADV_CONTENT_LEN (                            \
 180:/home/xingli/share/1205tiny/network/dtls/mbedtls/mbedtls-2.16.2/include/mbedtls/ssl_internal.h ****         (MBEDTLS_SSL_IN_CONTENT_LEN > MBEDTLS_SSL_OUT_CONTENT_LEN)   \
 181:/home/xingli/share/1205tiny/network/dtls/mbedtls/mbedtls-2.16.2/include/mbedtls/ssl_internal.h ****         ? ( MBEDTLS_SSL_OUT_CONTENT_LEN )                            \
 182:/home/xingli/share/1205tiny/network/dtls/mbedtls/mbedtls-2.16.2/include/mbedtls/ssl_internal.h ****         : ( MBEDTLS_SSL_IN_CONTENT_LEN )                             \
 183:/home/xingli/share/1205tiny/network/dtls/mbedtls/mbedtls-2.16.2/include/mbedtls/ssl_internal.h ****         )
 184:/home/xingli/share/1205tiny/network/dtls/mbedtls/mbedtls-2.16.2/include/mbedtls/ssl_internal.h **** 
 185:/home/xingli/share/1205tiny/network/dtls/mbedtls/mbedtls-2.16.2/include/mbedtls/ssl_internal.h **** /*
 186:/home/xingli/share/1205tiny/network/dtls/mbedtls/mbedtls-2.16.2/include/mbedtls/ssl_internal.h ****  * Check that we obey the standard's message size bounds
 187:/home/xingli/share/1205tiny/network/dtls/mbedtls/mbedtls-2.16.2/include/mbedtls/ssl_internal.h ****  */
 188:/home/xingli/share/1205tiny/network/dtls/mbedtls/mbedtls-2.16.2/include/mbedtls/ssl_internal.h **** 
 189:/home/xingli/share/1205tiny/network/dtls/mbedtls/mbedtls-2.16.2/include/mbedtls/ssl_internal.h **** #if MBEDTLS_SSL_MAX_CONTENT_LEN > 16384
 190:/home/xingli/share/1205tiny/network/dtls/mbedtls/mbedtls-2.16.2/include/mbedtls/ssl_internal.h **** #error "Bad configuration - record content too large."
 191:/home/xingli/share/1205tiny/network/dtls/mbedtls/mbedtls-2.16.2/include/mbedtls/ssl_internal.h **** #endif
 192:/home/xingli/share/1205tiny/network/dtls/mbedtls/mbedtls-2.16.2/include/mbedtls/ssl_internal.h **** 
 193:/home/xingli/share/1205tiny/network/dtls/mbedtls/mbedtls-2.16.2/include/mbedtls/ssl_internal.h **** #if MBEDTLS_SSL_IN_CONTENT_LEN > MBEDTLS_SSL_MAX_CONTENT_LEN
 194:/home/xingli/share/1205tiny/network/dtls/mbedtls/mbedtls-2.16.2/include/mbedtls/ssl_internal.h **** #error "Bad configuration - incoming record content should not be larger than MBEDTLS_SSL_MAX_CONTE
 195:/home/xingli/share/1205tiny/network/dtls/mbedtls/mbedtls-2.16.2/include/mbedtls/ssl_internal.h **** #endif
 196:/home/xingli/share/1205tiny/network/dtls/mbedtls/mbedtls-2.16.2/include/mbedtls/ssl_internal.h **** 
 197:/home/xingli/share/1205tiny/network/dtls/mbedtls/mbedtls-2.16.2/include/mbedtls/ssl_internal.h **** #if MBEDTLS_SSL_OUT_CONTENT_LEN > MBEDTLS_SSL_MAX_CONTENT_LEN
 198:/home/xingli/share/1205tiny/network/dtls/mbedtls/mbedtls-2.16.2/include/mbedtls/ssl_internal.h **** #error "Bad configuration - outgoing record content should not be larger than MBEDTLS_SSL_MAX_CONTE
 199:/home/xingli/share/1205tiny/network/dtls/mbedtls/mbedtls-2.16.2/include/mbedtls/ssl_internal.h **** #endif
 200:/home/xingli/share/1205tiny/network/dtls/mbedtls/mbedtls-2.16.2/include/mbedtls/ssl_internal.h **** 
 201:/home/xingli/share/1205tiny/network/dtls/mbedtls/mbedtls-2.16.2/include/mbedtls/ssl_internal.h **** #if MBEDTLS_SSL_IN_PAYLOAD_LEN > MBEDTLS_SSL_MAX_CONTENT_LEN + 2048
 202:/home/xingli/share/1205tiny/network/dtls/mbedtls/mbedtls-2.16.2/include/mbedtls/ssl_internal.h **** #error "Bad configuration - incoming protected record payload too large."
 203:/home/xingli/share/1205tiny/network/dtls/mbedtls/mbedtls-2.16.2/include/mbedtls/ssl_internal.h **** #endif
 204:/home/xingli/share/1205tiny/network/dtls/mbedtls/mbedtls-2.16.2/include/mbedtls/ssl_internal.h **** 
 205:/home/xingli/share/1205tiny/network/dtls/mbedtls/mbedtls-2.16.2/include/mbedtls/ssl_internal.h **** #if MBEDTLS_SSL_OUT_PAYLOAD_LEN > MBEDTLS_SSL_MAX_CONTENT_LEN + 2048
 206:/home/xingli/share/1205tiny/network/dtls/mbedtls/mbedtls-2.16.2/include/mbedtls/ssl_internal.h **** #error "Bad configuration - outgoing protected record payload too large."
 207:/home/xingli/share/1205tiny/network/dtls/mbedtls/mbedtls-2.16.2/include/mbedtls/ssl_internal.h **** #endif
 208:/home/xingli/share/1205tiny/network/dtls/mbedtls/mbedtls-2.16.2/include/mbedtls/ssl_internal.h **** 
 209:/home/xingli/share/1205tiny/network/dtls/mbedtls/mbedtls-2.16.2/include/mbedtls/ssl_internal.h **** /* Calculate buffer sizes */
 210:/home/xingli/share/1205tiny/network/dtls/mbedtls/mbedtls-2.16.2/include/mbedtls/ssl_internal.h **** 
 211:/home/xingli/share/1205tiny/network/dtls/mbedtls/mbedtls-2.16.2/include/mbedtls/ssl_internal.h **** /* Note: Even though the TLS record header is only 5 bytes
 212:/home/xingli/share/1205tiny/network/dtls/mbedtls/mbedtls-2.16.2/include/mbedtls/ssl_internal.h ****    long, we're internally using 8 bytes to store the
 213:/home/xingli/share/1205tiny/network/dtls/mbedtls/mbedtls-2.16.2/include/mbedtls/ssl_internal.h ****    implicit sequence number. */
 214:/home/xingli/share/1205tiny/network/dtls/mbedtls/mbedtls-2.16.2/include/mbedtls/ssl_internal.h **** #define MBEDTLS_SSL_HEADER_LEN 13
 215:/home/xingli/share/1205tiny/network/dtls/mbedtls/mbedtls-2.16.2/include/mbedtls/ssl_internal.h **** 
 216:/home/xingli/share/1205tiny/network/dtls/mbedtls/mbedtls-2.16.2/include/mbedtls/ssl_internal.h **** #define MBEDTLS_SSL_IN_BUFFER_LEN  \
 217:/home/xingli/share/1205tiny/network/dtls/mbedtls/mbedtls-2.16.2/include/mbedtls/ssl_internal.h ****     ( ( MBEDTLS_SSL_HEADER_LEN ) + ( MBEDTLS_SSL_IN_PAYLOAD_LEN ) )
 218:/home/xingli/share/1205tiny/network/dtls/mbedtls/mbedtls-2.16.2/include/mbedtls/ssl_internal.h **** 
 219:/home/xingli/share/1205tiny/network/dtls/mbedtls/mbedtls-2.16.2/include/mbedtls/ssl_internal.h **** #define MBEDTLS_SSL_OUT_BUFFER_LEN  \
 220:/home/xingli/share/1205tiny/network/dtls/mbedtls/mbedtls-2.16.2/include/mbedtls/ssl_internal.h ****     ( ( MBEDTLS_SSL_HEADER_LEN ) + ( MBEDTLS_SSL_OUT_PAYLOAD_LEN ) )
 221:/home/xingli/share/1205tiny/network/dtls/mbedtls/mbedtls-2.16.2/include/mbedtls/ssl_internal.h **** 
GAS LISTING /tmp/ccSYGV05.s 			page 5


 222:/home/xingli/share/1205tiny/network/dtls/mbedtls/mbedtls-2.16.2/include/mbedtls/ssl_internal.h **** #ifdef MBEDTLS_ZLIB_SUPPORT
 223:/home/xingli/share/1205tiny/network/dtls/mbedtls/mbedtls-2.16.2/include/mbedtls/ssl_internal.h **** /* Compression buffer holds both IN and OUT buffers, so should be size of the larger */
 224:/home/xingli/share/1205tiny/network/dtls/mbedtls/mbedtls-2.16.2/include/mbedtls/ssl_internal.h **** #define MBEDTLS_SSL_COMPRESS_BUFFER_LEN (                               \
 225:/home/xingli/share/1205tiny/network/dtls/mbedtls/mbedtls-2.16.2/include/mbedtls/ssl_internal.h ****         ( MBEDTLS_SSL_IN_BUFFER_LEN > MBEDTLS_SSL_OUT_BUFFER_LEN )      \
 226:/home/xingli/share/1205tiny/network/dtls/mbedtls/mbedtls-2.16.2/include/mbedtls/ssl_internal.h ****         ? MBEDTLS_SSL_IN_BUFFER_LEN                                     \
 227:/home/xingli/share/1205tiny/network/dtls/mbedtls/mbedtls-2.16.2/include/mbedtls/ssl_internal.h ****         : MBEDTLS_SSL_OUT_BUFFER_LEN                                    \
 228:/home/xingli/share/1205tiny/network/dtls/mbedtls/mbedtls-2.16.2/include/mbedtls/ssl_internal.h ****         )
 229:/home/xingli/share/1205tiny/network/dtls/mbedtls/mbedtls-2.16.2/include/mbedtls/ssl_internal.h **** #endif
 230:/home/xingli/share/1205tiny/network/dtls/mbedtls/mbedtls-2.16.2/include/mbedtls/ssl_internal.h **** 
 231:/home/xingli/share/1205tiny/network/dtls/mbedtls/mbedtls-2.16.2/include/mbedtls/ssl_internal.h **** /*
 232:/home/xingli/share/1205tiny/network/dtls/mbedtls/mbedtls-2.16.2/include/mbedtls/ssl_internal.h ****  * TLS extension flags (for extensions with outgoing ServerHello content
 233:/home/xingli/share/1205tiny/network/dtls/mbedtls/mbedtls-2.16.2/include/mbedtls/ssl_internal.h ****  * that need it (e.g. for RENEGOTIATION_INFO the server already knows because
 234:/home/xingli/share/1205tiny/network/dtls/mbedtls/mbedtls-2.16.2/include/mbedtls/ssl_internal.h ****  * of state of the renegotiation flag, so no indicator is required)
 235:/home/xingli/share/1205tiny/network/dtls/mbedtls/mbedtls-2.16.2/include/mbedtls/ssl_internal.h ****  */
 236:/home/xingli/share/1205tiny/network/dtls/mbedtls/mbedtls-2.16.2/include/mbedtls/ssl_internal.h **** #define MBEDTLS_TLS_EXT_SUPPORTED_POINT_FORMATS_PRESENT (1 << 0)
 237:/home/xingli/share/1205tiny/network/dtls/mbedtls/mbedtls-2.16.2/include/mbedtls/ssl_internal.h **** #define MBEDTLS_TLS_EXT_ECJPAKE_KKPP_OK                 (1 << 1)
 238:/home/xingli/share/1205tiny/network/dtls/mbedtls/mbedtls-2.16.2/include/mbedtls/ssl_internal.h **** 
 239:/home/xingli/share/1205tiny/network/dtls/mbedtls/mbedtls-2.16.2/include/mbedtls/ssl_internal.h **** #ifdef __cplusplus
 240:/home/xingli/share/1205tiny/network/dtls/mbedtls/mbedtls-2.16.2/include/mbedtls/ssl_internal.h **** extern "C" {
 241:/home/xingli/share/1205tiny/network/dtls/mbedtls/mbedtls-2.16.2/include/mbedtls/ssl_internal.h **** #endif
 242:/home/xingli/share/1205tiny/network/dtls/mbedtls/mbedtls-2.16.2/include/mbedtls/ssl_internal.h **** 
 243:/home/xingli/share/1205tiny/network/dtls/mbedtls/mbedtls-2.16.2/include/mbedtls/ssl_internal.h **** #if defined(MBEDTLS_SSL_PROTO_TLS1_2) && \
 244:/home/xingli/share/1205tiny/network/dtls/mbedtls/mbedtls-2.16.2/include/mbedtls/ssl_internal.h ****     defined(MBEDTLS_KEY_EXCHANGE__WITH_CERT__ENABLED)
 245:/home/xingli/share/1205tiny/network/dtls/mbedtls/mbedtls-2.16.2/include/mbedtls/ssl_internal.h **** /*
 246:/home/xingli/share/1205tiny/network/dtls/mbedtls/mbedtls-2.16.2/include/mbedtls/ssl_internal.h ****  * Abstraction for a grid of allowed signature-hash-algorithm pairs.
 247:/home/xingli/share/1205tiny/network/dtls/mbedtls/mbedtls-2.16.2/include/mbedtls/ssl_internal.h ****  */
 248:/home/xingli/share/1205tiny/network/dtls/mbedtls/mbedtls-2.16.2/include/mbedtls/ssl_internal.h **** struct mbedtls_ssl_sig_hash_set_t
 249:/home/xingli/share/1205tiny/network/dtls/mbedtls/mbedtls-2.16.2/include/mbedtls/ssl_internal.h **** {
 250:/home/xingli/share/1205tiny/network/dtls/mbedtls/mbedtls-2.16.2/include/mbedtls/ssl_internal.h ****     /* At the moment, we only need to remember a single suitable
 251:/home/xingli/share/1205tiny/network/dtls/mbedtls/mbedtls-2.16.2/include/mbedtls/ssl_internal.h ****      * hash algorithm per signature algorithm. As long as that's
 252:/home/xingli/share/1205tiny/network/dtls/mbedtls/mbedtls-2.16.2/include/mbedtls/ssl_internal.h ****      * the case - and we don't need a general lookup function -
 253:/home/xingli/share/1205tiny/network/dtls/mbedtls/mbedtls-2.16.2/include/mbedtls/ssl_internal.h ****      * we can implement the sig-hash-set as a map from signatures
 254:/home/xingli/share/1205tiny/network/dtls/mbedtls/mbedtls-2.16.2/include/mbedtls/ssl_internal.h ****      * to hash algorithms. */
 255:/home/xingli/share/1205tiny/network/dtls/mbedtls/mbedtls-2.16.2/include/mbedtls/ssl_internal.h ****     mbedtls_md_type_t rsa;
 256:/home/xingli/share/1205tiny/network/dtls/mbedtls/mbedtls-2.16.2/include/mbedtls/ssl_internal.h ****     mbedtls_md_type_t ecdsa;
 257:/home/xingli/share/1205tiny/network/dtls/mbedtls/mbedtls-2.16.2/include/mbedtls/ssl_internal.h **** };
 258:/home/xingli/share/1205tiny/network/dtls/mbedtls/mbedtls-2.16.2/include/mbedtls/ssl_internal.h **** #endif /* MBEDTLS_SSL_PROTO_TLS1_2 &&
 259:/home/xingli/share/1205tiny/network/dtls/mbedtls/mbedtls-2.16.2/include/mbedtls/ssl_internal.h ****           MBEDTLS_KEY_EXCHANGE__WITH_CERT__ENABLED */
 260:/home/xingli/share/1205tiny/network/dtls/mbedtls/mbedtls-2.16.2/include/mbedtls/ssl_internal.h **** 
 261:/home/xingli/share/1205tiny/network/dtls/mbedtls/mbedtls-2.16.2/include/mbedtls/ssl_internal.h **** /*
 262:/home/xingli/share/1205tiny/network/dtls/mbedtls/mbedtls-2.16.2/include/mbedtls/ssl_internal.h ****  * This structure contains the parameters only needed during handshake.
 263:/home/xingli/share/1205tiny/network/dtls/mbedtls/mbedtls-2.16.2/include/mbedtls/ssl_internal.h ****  */
 264:/home/xingli/share/1205tiny/network/dtls/mbedtls/mbedtls-2.16.2/include/mbedtls/ssl_internal.h **** struct mbedtls_ssl_handshake_params
 265:/home/xingli/share/1205tiny/network/dtls/mbedtls/mbedtls-2.16.2/include/mbedtls/ssl_internal.h **** {
 266:/home/xingli/share/1205tiny/network/dtls/mbedtls/mbedtls-2.16.2/include/mbedtls/ssl_internal.h ****     /*
 267:/home/xingli/share/1205tiny/network/dtls/mbedtls/mbedtls-2.16.2/include/mbedtls/ssl_internal.h ****      * Handshake specific crypto variables
 268:/home/xingli/share/1205tiny/network/dtls/mbedtls/mbedtls-2.16.2/include/mbedtls/ssl_internal.h ****      */
 269:/home/xingli/share/1205tiny/network/dtls/mbedtls/mbedtls-2.16.2/include/mbedtls/ssl_internal.h **** 
 270:/home/xingli/share/1205tiny/network/dtls/mbedtls/mbedtls-2.16.2/include/mbedtls/ssl_internal.h **** #if defined(MBEDTLS_SSL_PROTO_TLS1_2) && \
 271:/home/xingli/share/1205tiny/network/dtls/mbedtls/mbedtls-2.16.2/include/mbedtls/ssl_internal.h ****     defined(MBEDTLS_KEY_EXCHANGE__WITH_CERT__ENABLED)
 272:/home/xingli/share/1205tiny/network/dtls/mbedtls/mbedtls-2.16.2/include/mbedtls/ssl_internal.h ****     mbedtls_ssl_sig_hash_set_t hash_algs;             /*!<  Set of suitable sig-hash pairs */
 273:/home/xingli/share/1205tiny/network/dtls/mbedtls/mbedtls-2.16.2/include/mbedtls/ssl_internal.h **** #endif
 274:/home/xingli/share/1205tiny/network/dtls/mbedtls/mbedtls-2.16.2/include/mbedtls/ssl_internal.h **** #if defined(MBEDTLS_DHM_C)
 275:/home/xingli/share/1205tiny/network/dtls/mbedtls/mbedtls-2.16.2/include/mbedtls/ssl_internal.h ****     mbedtls_dhm_context dhm_ctx;                /*!<  DHM key exchange        */
 276:/home/xingli/share/1205tiny/network/dtls/mbedtls/mbedtls-2.16.2/include/mbedtls/ssl_internal.h **** #endif
 277:/home/xingli/share/1205tiny/network/dtls/mbedtls/mbedtls-2.16.2/include/mbedtls/ssl_internal.h **** #if defined(MBEDTLS_ECDH_C)
 278:/home/xingli/share/1205tiny/network/dtls/mbedtls/mbedtls-2.16.2/include/mbedtls/ssl_internal.h ****     mbedtls_ecdh_context ecdh_ctx;              /*!<  ECDH key exchange       */
GAS LISTING /tmp/ccSYGV05.s 			page 6


 279:/home/xingli/share/1205tiny/network/dtls/mbedtls/mbedtls-2.16.2/include/mbedtls/ssl_internal.h **** #endif
 280:/home/xingli/share/1205tiny/network/dtls/mbedtls/mbedtls-2.16.2/include/mbedtls/ssl_internal.h **** #if defined(MBEDTLS_KEY_EXCHANGE_ECJPAKE_ENABLED)
 281:/home/xingli/share/1205tiny/network/dtls/mbedtls/mbedtls-2.16.2/include/mbedtls/ssl_internal.h ****     mbedtls_ecjpake_context ecjpake_ctx;        /*!< EC J-PAKE key exchange */
 282:/home/xingli/share/1205tiny/network/dtls/mbedtls/mbedtls-2.16.2/include/mbedtls/ssl_internal.h **** #if defined(MBEDTLS_SSL_CLI_C)
 283:/home/xingli/share/1205tiny/network/dtls/mbedtls/mbedtls-2.16.2/include/mbedtls/ssl_internal.h ****     unsigned char *ecjpake_cache;               /*!< Cache for ClientHello ext */
 284:/home/xingli/share/1205tiny/network/dtls/mbedtls/mbedtls-2.16.2/include/mbedtls/ssl_internal.h ****     size_t ecjpake_cache_len;                   /*!< Length of cached data */
 285:/home/xingli/share/1205tiny/network/dtls/mbedtls/mbedtls-2.16.2/include/mbedtls/ssl_internal.h **** #endif
 286:/home/xingli/share/1205tiny/network/dtls/mbedtls/mbedtls-2.16.2/include/mbedtls/ssl_internal.h **** #endif /* MBEDTLS_KEY_EXCHANGE_ECJPAKE_ENABLED */
 287:/home/xingli/share/1205tiny/network/dtls/mbedtls/mbedtls-2.16.2/include/mbedtls/ssl_internal.h **** #if defined(MBEDTLS_ECDH_C) || defined(MBEDTLS_ECDSA_C) || \
 288:/home/xingli/share/1205tiny/network/dtls/mbedtls/mbedtls-2.16.2/include/mbedtls/ssl_internal.h ****     defined(MBEDTLS_KEY_EXCHANGE_ECJPAKE_ENABLED)
 289:/home/xingli/share/1205tiny/network/dtls/mbedtls/mbedtls-2.16.2/include/mbedtls/ssl_internal.h ****     const mbedtls_ecp_curve_info **curves;      /*!<  Supported elliptic curves */
 290:/home/xingli/share/1205tiny/network/dtls/mbedtls/mbedtls-2.16.2/include/mbedtls/ssl_internal.h **** #endif
 291:/home/xingli/share/1205tiny/network/dtls/mbedtls/mbedtls-2.16.2/include/mbedtls/ssl_internal.h **** #if defined(MBEDTLS_KEY_EXCHANGE__SOME__PSK_ENABLED)
 292:/home/xingli/share/1205tiny/network/dtls/mbedtls/mbedtls-2.16.2/include/mbedtls/ssl_internal.h ****     unsigned char *psk;                 /*!<  PSK from the callback         */
 293:/home/xingli/share/1205tiny/network/dtls/mbedtls/mbedtls-2.16.2/include/mbedtls/ssl_internal.h ****     size_t psk_len;                     /*!<  Length of PSK from callback   */
 294:/home/xingli/share/1205tiny/network/dtls/mbedtls/mbedtls-2.16.2/include/mbedtls/ssl_internal.h **** #endif
 295:/home/xingli/share/1205tiny/network/dtls/mbedtls/mbedtls-2.16.2/include/mbedtls/ssl_internal.h **** #if defined(MBEDTLS_X509_CRT_PARSE_C)
 296:/home/xingli/share/1205tiny/network/dtls/mbedtls/mbedtls-2.16.2/include/mbedtls/ssl_internal.h ****     mbedtls_ssl_key_cert *key_cert;     /*!< chosen key/cert pair (server)  */
 297:/home/xingli/share/1205tiny/network/dtls/mbedtls/mbedtls-2.16.2/include/mbedtls/ssl_internal.h **** #if defined(MBEDTLS_SSL_SERVER_NAME_INDICATION)
 298:/home/xingli/share/1205tiny/network/dtls/mbedtls/mbedtls-2.16.2/include/mbedtls/ssl_internal.h ****     int sni_authmode;                   /*!< authmode from SNI callback     */
 299:/home/xingli/share/1205tiny/network/dtls/mbedtls/mbedtls-2.16.2/include/mbedtls/ssl_internal.h ****     mbedtls_ssl_key_cert *sni_key_cert; /*!< key/cert list from SNI         */
 300:/home/xingli/share/1205tiny/network/dtls/mbedtls/mbedtls-2.16.2/include/mbedtls/ssl_internal.h ****     mbedtls_x509_crt *sni_ca_chain;     /*!< trusted CAs from SNI callback  */
 301:/home/xingli/share/1205tiny/network/dtls/mbedtls/mbedtls-2.16.2/include/mbedtls/ssl_internal.h ****     mbedtls_x509_crl *sni_ca_crl;       /*!< trusted CAs CRLs from SNI      */
 302:/home/xingli/share/1205tiny/network/dtls/mbedtls/mbedtls-2.16.2/include/mbedtls/ssl_internal.h **** #endif /* MBEDTLS_SSL_SERVER_NAME_INDICATION */
 303:/home/xingli/share/1205tiny/network/dtls/mbedtls/mbedtls-2.16.2/include/mbedtls/ssl_internal.h **** #endif /* MBEDTLS_X509_CRT_PARSE_C */
 304:/home/xingli/share/1205tiny/network/dtls/mbedtls/mbedtls-2.16.2/include/mbedtls/ssl_internal.h **** #if defined(MBEDTLS_SSL__ECP_RESTARTABLE)
 305:/home/xingli/share/1205tiny/network/dtls/mbedtls/mbedtls-2.16.2/include/mbedtls/ssl_internal.h ****     int ecrs_enabled;                   /*!< Handshake supports EC restart? */
 306:/home/xingli/share/1205tiny/network/dtls/mbedtls/mbedtls-2.16.2/include/mbedtls/ssl_internal.h ****     mbedtls_x509_crt_restart_ctx ecrs_ctx;  /*!< restart context            */
 307:/home/xingli/share/1205tiny/network/dtls/mbedtls/mbedtls-2.16.2/include/mbedtls/ssl_internal.h ****     enum { /* this complements ssl->state with info on intra-state operations */
 308:/home/xingli/share/1205tiny/network/dtls/mbedtls/mbedtls-2.16.2/include/mbedtls/ssl_internal.h ****         ssl_ecrs_none = 0,              /*!< nothing going on (yet)         */
 309:/home/xingli/share/1205tiny/network/dtls/mbedtls/mbedtls-2.16.2/include/mbedtls/ssl_internal.h ****         ssl_ecrs_crt_verify,            /*!< Certificate: crt_verify()      */
 310:/home/xingli/share/1205tiny/network/dtls/mbedtls/mbedtls-2.16.2/include/mbedtls/ssl_internal.h ****         ssl_ecrs_ske_start_processing,  /*!< ServerKeyExchange: pk_verify() */
 311:/home/xingli/share/1205tiny/network/dtls/mbedtls/mbedtls-2.16.2/include/mbedtls/ssl_internal.h ****         ssl_ecrs_cke_ecdh_calc_secret,  /*!< ClientKeyExchange: ECDH step 2 */
 312:/home/xingli/share/1205tiny/network/dtls/mbedtls/mbedtls-2.16.2/include/mbedtls/ssl_internal.h ****         ssl_ecrs_crt_vrfy_sign,         /*!< CertificateVerify: pk_sign()   */
 313:/home/xingli/share/1205tiny/network/dtls/mbedtls/mbedtls-2.16.2/include/mbedtls/ssl_internal.h ****     } ecrs_state;                       /*!< current (or last) operation    */
 314:/home/xingli/share/1205tiny/network/dtls/mbedtls/mbedtls-2.16.2/include/mbedtls/ssl_internal.h ****     size_t ecrs_n;                      /*!< place for saving a length      */
 315:/home/xingli/share/1205tiny/network/dtls/mbedtls/mbedtls-2.16.2/include/mbedtls/ssl_internal.h **** #endif
 316:/home/xingli/share/1205tiny/network/dtls/mbedtls/mbedtls-2.16.2/include/mbedtls/ssl_internal.h **** #if defined(MBEDTLS_SSL_PROTO_DTLS)
 317:/home/xingli/share/1205tiny/network/dtls/mbedtls/mbedtls-2.16.2/include/mbedtls/ssl_internal.h ****     unsigned int out_msg_seq;           /*!<  Outgoing handshake sequence number */
 318:/home/xingli/share/1205tiny/network/dtls/mbedtls/mbedtls-2.16.2/include/mbedtls/ssl_internal.h ****     unsigned int in_msg_seq;            /*!<  Incoming handshake sequence number */
 319:/home/xingli/share/1205tiny/network/dtls/mbedtls/mbedtls-2.16.2/include/mbedtls/ssl_internal.h **** 
 320:/home/xingli/share/1205tiny/network/dtls/mbedtls/mbedtls-2.16.2/include/mbedtls/ssl_internal.h ****     unsigned char *verify_cookie;       /*!<  Cli: HelloVerifyRequest cookie
 321:/home/xingli/share/1205tiny/network/dtls/mbedtls/mbedtls-2.16.2/include/mbedtls/ssl_internal.h ****                                               Srv: unused                    */
 322:/home/xingli/share/1205tiny/network/dtls/mbedtls/mbedtls-2.16.2/include/mbedtls/ssl_internal.h ****     unsigned char verify_cookie_len;    /*!<  Cli: cookie length
 323:/home/xingli/share/1205tiny/network/dtls/mbedtls/mbedtls-2.16.2/include/mbedtls/ssl_internal.h ****                                               Srv: flag for sending a cookie */
 324:/home/xingli/share/1205tiny/network/dtls/mbedtls/mbedtls-2.16.2/include/mbedtls/ssl_internal.h **** 
 325:/home/xingli/share/1205tiny/network/dtls/mbedtls/mbedtls-2.16.2/include/mbedtls/ssl_internal.h ****     uint32_t retransmit_timeout;        /*!<  Current value of timeout       */
 326:/home/xingli/share/1205tiny/network/dtls/mbedtls/mbedtls-2.16.2/include/mbedtls/ssl_internal.h ****     unsigned char retransmit_state;     /*!<  Retransmission state           */
 327:/home/xingli/share/1205tiny/network/dtls/mbedtls/mbedtls-2.16.2/include/mbedtls/ssl_internal.h ****     mbedtls_ssl_flight_item *flight;    /*!<  Current outgoing flight        */
 328:/home/xingli/share/1205tiny/network/dtls/mbedtls/mbedtls-2.16.2/include/mbedtls/ssl_internal.h ****     mbedtls_ssl_flight_item *cur_msg;   /*!<  Current message in flight      */
 329:/home/xingli/share/1205tiny/network/dtls/mbedtls/mbedtls-2.16.2/include/mbedtls/ssl_internal.h ****     unsigned char *cur_msg_p;           /*!<  Position in current message    */
 330:/home/xingli/share/1205tiny/network/dtls/mbedtls/mbedtls-2.16.2/include/mbedtls/ssl_internal.h ****     unsigned int in_flight_start_seq;   /*!<  Minimum message sequence in the
 331:/home/xingli/share/1205tiny/network/dtls/mbedtls/mbedtls-2.16.2/include/mbedtls/ssl_internal.h ****                                               flight being received          */
 332:/home/xingli/share/1205tiny/network/dtls/mbedtls/mbedtls-2.16.2/include/mbedtls/ssl_internal.h ****     mbedtls_ssl_transform *alt_transform_out;   /*!<  Alternative transform for
 333:/home/xingli/share/1205tiny/network/dtls/mbedtls/mbedtls-2.16.2/include/mbedtls/ssl_internal.h ****                                               resending messages             */
 334:/home/xingli/share/1205tiny/network/dtls/mbedtls/mbedtls-2.16.2/include/mbedtls/ssl_internal.h ****     unsigned char alt_out_ctr[8];       /*!<  Alternative record epoch/counter
 335:/home/xingli/share/1205tiny/network/dtls/mbedtls/mbedtls-2.16.2/include/mbedtls/ssl_internal.h ****                                               for resending messages         */
GAS LISTING /tmp/ccSYGV05.s 			page 7


 336:/home/xingli/share/1205tiny/network/dtls/mbedtls/mbedtls-2.16.2/include/mbedtls/ssl_internal.h **** 
 337:/home/xingli/share/1205tiny/network/dtls/mbedtls/mbedtls-2.16.2/include/mbedtls/ssl_internal.h ****     struct
 338:/home/xingli/share/1205tiny/network/dtls/mbedtls/mbedtls-2.16.2/include/mbedtls/ssl_internal.h ****     {
 339:/home/xingli/share/1205tiny/network/dtls/mbedtls/mbedtls-2.16.2/include/mbedtls/ssl_internal.h ****         size_t total_bytes_buffered; /*!< Cumulative size of heap allocated
 340:/home/xingli/share/1205tiny/network/dtls/mbedtls/mbedtls-2.16.2/include/mbedtls/ssl_internal.h ****                                       *   buffers used for message buffering. */
 341:/home/xingli/share/1205tiny/network/dtls/mbedtls/mbedtls-2.16.2/include/mbedtls/ssl_internal.h **** 
 342:/home/xingli/share/1205tiny/network/dtls/mbedtls/mbedtls-2.16.2/include/mbedtls/ssl_internal.h ****         uint8_t seen_ccs;               /*!< Indicates if a CCS message has
 343:/home/xingli/share/1205tiny/network/dtls/mbedtls/mbedtls-2.16.2/include/mbedtls/ssl_internal.h ****                                          *   been seen in the current flight. */
 344:/home/xingli/share/1205tiny/network/dtls/mbedtls/mbedtls-2.16.2/include/mbedtls/ssl_internal.h **** 
 345:/home/xingli/share/1205tiny/network/dtls/mbedtls/mbedtls-2.16.2/include/mbedtls/ssl_internal.h ****         struct mbedtls_ssl_hs_buffer
 346:/home/xingli/share/1205tiny/network/dtls/mbedtls/mbedtls-2.16.2/include/mbedtls/ssl_internal.h ****         {
 347:/home/xingli/share/1205tiny/network/dtls/mbedtls/mbedtls-2.16.2/include/mbedtls/ssl_internal.h ****             unsigned is_valid      : 1;
 348:/home/xingli/share/1205tiny/network/dtls/mbedtls/mbedtls-2.16.2/include/mbedtls/ssl_internal.h ****             unsigned is_fragmented : 1;
 349:/home/xingli/share/1205tiny/network/dtls/mbedtls/mbedtls-2.16.2/include/mbedtls/ssl_internal.h ****             unsigned is_complete   : 1;
 350:/home/xingli/share/1205tiny/network/dtls/mbedtls/mbedtls-2.16.2/include/mbedtls/ssl_internal.h ****             unsigned char *data;
 351:/home/xingli/share/1205tiny/network/dtls/mbedtls/mbedtls-2.16.2/include/mbedtls/ssl_internal.h ****             size_t data_len;
 352:/home/xingli/share/1205tiny/network/dtls/mbedtls/mbedtls-2.16.2/include/mbedtls/ssl_internal.h ****         } hs[MBEDTLS_SSL_MAX_BUFFERED_HS];
 353:/home/xingli/share/1205tiny/network/dtls/mbedtls/mbedtls-2.16.2/include/mbedtls/ssl_internal.h **** 
 354:/home/xingli/share/1205tiny/network/dtls/mbedtls/mbedtls-2.16.2/include/mbedtls/ssl_internal.h ****         struct
 355:/home/xingli/share/1205tiny/network/dtls/mbedtls/mbedtls-2.16.2/include/mbedtls/ssl_internal.h ****         {
 356:/home/xingli/share/1205tiny/network/dtls/mbedtls/mbedtls-2.16.2/include/mbedtls/ssl_internal.h ****             unsigned char *data;
 357:/home/xingli/share/1205tiny/network/dtls/mbedtls/mbedtls-2.16.2/include/mbedtls/ssl_internal.h ****             size_t len;
 358:/home/xingli/share/1205tiny/network/dtls/mbedtls/mbedtls-2.16.2/include/mbedtls/ssl_internal.h ****             unsigned epoch;
 359:/home/xingli/share/1205tiny/network/dtls/mbedtls/mbedtls-2.16.2/include/mbedtls/ssl_internal.h ****         } future_record;
 360:/home/xingli/share/1205tiny/network/dtls/mbedtls/mbedtls-2.16.2/include/mbedtls/ssl_internal.h **** 
 361:/home/xingli/share/1205tiny/network/dtls/mbedtls/mbedtls-2.16.2/include/mbedtls/ssl_internal.h ****     } buffering;
 362:/home/xingli/share/1205tiny/network/dtls/mbedtls/mbedtls-2.16.2/include/mbedtls/ssl_internal.h **** 
 363:/home/xingli/share/1205tiny/network/dtls/mbedtls/mbedtls-2.16.2/include/mbedtls/ssl_internal.h ****     uint16_t mtu;                       /*!<  Handshake mtu, used to fragment outgoing messages */
 364:/home/xingli/share/1205tiny/network/dtls/mbedtls/mbedtls-2.16.2/include/mbedtls/ssl_internal.h **** #endif /* MBEDTLS_SSL_PROTO_DTLS */
 365:/home/xingli/share/1205tiny/network/dtls/mbedtls/mbedtls-2.16.2/include/mbedtls/ssl_internal.h **** 
 366:/home/xingli/share/1205tiny/network/dtls/mbedtls/mbedtls-2.16.2/include/mbedtls/ssl_internal.h ****     /*
 367:/home/xingli/share/1205tiny/network/dtls/mbedtls/mbedtls-2.16.2/include/mbedtls/ssl_internal.h ****      * Checksum contexts
 368:/home/xingli/share/1205tiny/network/dtls/mbedtls/mbedtls-2.16.2/include/mbedtls/ssl_internal.h ****      */
 369:/home/xingli/share/1205tiny/network/dtls/mbedtls/mbedtls-2.16.2/include/mbedtls/ssl_internal.h **** #if defined(MBEDTLS_SSL_PROTO_SSL3) || defined(MBEDTLS_SSL_PROTO_TLS1) || \
 370:/home/xingli/share/1205tiny/network/dtls/mbedtls/mbedtls-2.16.2/include/mbedtls/ssl_internal.h ****     defined(MBEDTLS_SSL_PROTO_TLS1_1)
 371:/home/xingli/share/1205tiny/network/dtls/mbedtls/mbedtls-2.16.2/include/mbedtls/ssl_internal.h ****        mbedtls_md5_context fin_md5;
 372:/home/xingli/share/1205tiny/network/dtls/mbedtls/mbedtls-2.16.2/include/mbedtls/ssl_internal.h ****       mbedtls_sha1_context fin_sha1;
 373:/home/xingli/share/1205tiny/network/dtls/mbedtls/mbedtls-2.16.2/include/mbedtls/ssl_internal.h **** #endif
 374:/home/xingli/share/1205tiny/network/dtls/mbedtls/mbedtls-2.16.2/include/mbedtls/ssl_internal.h **** #if defined(MBEDTLS_SSL_PROTO_TLS1_2)
 375:/home/xingli/share/1205tiny/network/dtls/mbedtls/mbedtls-2.16.2/include/mbedtls/ssl_internal.h **** #if defined(MBEDTLS_SHA256_C)
 376:/home/xingli/share/1205tiny/network/dtls/mbedtls/mbedtls-2.16.2/include/mbedtls/ssl_internal.h ****     mbedtls_sha256_context fin_sha256;
 377:/home/xingli/share/1205tiny/network/dtls/mbedtls/mbedtls-2.16.2/include/mbedtls/ssl_internal.h **** #endif
 378:/home/xingli/share/1205tiny/network/dtls/mbedtls/mbedtls-2.16.2/include/mbedtls/ssl_internal.h **** #if defined(MBEDTLS_SHA512_C)
 379:/home/xingli/share/1205tiny/network/dtls/mbedtls/mbedtls-2.16.2/include/mbedtls/ssl_internal.h ****     mbedtls_sha512_context fin_sha512;
 380:/home/xingli/share/1205tiny/network/dtls/mbedtls/mbedtls-2.16.2/include/mbedtls/ssl_internal.h **** #endif
 381:/home/xingli/share/1205tiny/network/dtls/mbedtls/mbedtls-2.16.2/include/mbedtls/ssl_internal.h **** #endif /* MBEDTLS_SSL_PROTO_TLS1_2 */
 382:/home/xingli/share/1205tiny/network/dtls/mbedtls/mbedtls-2.16.2/include/mbedtls/ssl_internal.h **** 
 383:/home/xingli/share/1205tiny/network/dtls/mbedtls/mbedtls-2.16.2/include/mbedtls/ssl_internal.h ****     void (*update_checksum)(mbedtls_ssl_context *, const unsigned char *, size_t);
 384:/home/xingli/share/1205tiny/network/dtls/mbedtls/mbedtls-2.16.2/include/mbedtls/ssl_internal.h ****     void (*calc_verify)(mbedtls_ssl_context *, unsigned char *);
 385:/home/xingli/share/1205tiny/network/dtls/mbedtls/mbedtls-2.16.2/include/mbedtls/ssl_internal.h ****     void (*calc_finished)(mbedtls_ssl_context *, unsigned char *, int);
 386:/home/xingli/share/1205tiny/network/dtls/mbedtls/mbedtls-2.16.2/include/mbedtls/ssl_internal.h ****     int  (*tls_prf)(const unsigned char *, size_t, const char *,
 387:/home/xingli/share/1205tiny/network/dtls/mbedtls/mbedtls-2.16.2/include/mbedtls/ssl_internal.h ****                     const unsigned char *, size_t,
 388:/home/xingli/share/1205tiny/network/dtls/mbedtls/mbedtls-2.16.2/include/mbedtls/ssl_internal.h ****                     unsigned char *, size_t);
 389:/home/xingli/share/1205tiny/network/dtls/mbedtls/mbedtls-2.16.2/include/mbedtls/ssl_internal.h **** 
 390:/home/xingli/share/1205tiny/network/dtls/mbedtls/mbedtls-2.16.2/include/mbedtls/ssl_internal.h ****     size_t pmslen;                      /*!<  premaster length        */
 391:/home/xingli/share/1205tiny/network/dtls/mbedtls/mbedtls-2.16.2/include/mbedtls/ssl_internal.h **** 
 392:/home/xingli/share/1205tiny/network/dtls/mbedtls/mbedtls-2.16.2/include/mbedtls/ssl_internal.h ****     unsigned char randbytes[64];        /*!<  random bytes            */
GAS LISTING /tmp/ccSYGV05.s 			page 8


 393:/home/xingli/share/1205tiny/network/dtls/mbedtls/mbedtls-2.16.2/include/mbedtls/ssl_internal.h ****     unsigned char premaster[MBEDTLS_PREMASTER_SIZE];
 394:/home/xingli/share/1205tiny/network/dtls/mbedtls/mbedtls-2.16.2/include/mbedtls/ssl_internal.h ****                                         /*!<  premaster secret        */
 395:/home/xingli/share/1205tiny/network/dtls/mbedtls/mbedtls-2.16.2/include/mbedtls/ssl_internal.h **** 
 396:/home/xingli/share/1205tiny/network/dtls/mbedtls/mbedtls-2.16.2/include/mbedtls/ssl_internal.h ****     int resume;                         /*!<  session resume indicator*/
 397:/home/xingli/share/1205tiny/network/dtls/mbedtls/mbedtls-2.16.2/include/mbedtls/ssl_internal.h ****     int max_major_ver;                  /*!< max. major version client*/
 398:/home/xingli/share/1205tiny/network/dtls/mbedtls/mbedtls-2.16.2/include/mbedtls/ssl_internal.h ****     int max_minor_ver;                  /*!< max. minor version client*/
 399:/home/xingli/share/1205tiny/network/dtls/mbedtls/mbedtls-2.16.2/include/mbedtls/ssl_internal.h ****     int cli_exts;                       /*!< client extension presence*/
 400:/home/xingli/share/1205tiny/network/dtls/mbedtls/mbedtls-2.16.2/include/mbedtls/ssl_internal.h **** 
 401:/home/xingli/share/1205tiny/network/dtls/mbedtls/mbedtls-2.16.2/include/mbedtls/ssl_internal.h **** #if defined(MBEDTLS_SSL_SESSION_TICKETS)
 402:/home/xingli/share/1205tiny/network/dtls/mbedtls/mbedtls-2.16.2/include/mbedtls/ssl_internal.h ****     int new_session_ticket;             /*!< use NewSessionTicket?    */
 403:/home/xingli/share/1205tiny/network/dtls/mbedtls/mbedtls-2.16.2/include/mbedtls/ssl_internal.h **** #endif /* MBEDTLS_SSL_SESSION_TICKETS */
 404:/home/xingli/share/1205tiny/network/dtls/mbedtls/mbedtls-2.16.2/include/mbedtls/ssl_internal.h **** #if defined(MBEDTLS_SSL_EXTENDED_MASTER_SECRET)
 405:/home/xingli/share/1205tiny/network/dtls/mbedtls/mbedtls-2.16.2/include/mbedtls/ssl_internal.h ****     int extended_ms;                    /*!< use Extended Master Secret? */
 406:/home/xingli/share/1205tiny/network/dtls/mbedtls/mbedtls-2.16.2/include/mbedtls/ssl_internal.h **** #endif
 407:/home/xingli/share/1205tiny/network/dtls/mbedtls/mbedtls-2.16.2/include/mbedtls/ssl_internal.h **** 
 408:/home/xingli/share/1205tiny/network/dtls/mbedtls/mbedtls-2.16.2/include/mbedtls/ssl_internal.h **** #if defined(MBEDTLS_SSL_ASYNC_PRIVATE)
 409:/home/xingli/share/1205tiny/network/dtls/mbedtls/mbedtls-2.16.2/include/mbedtls/ssl_internal.h ****     unsigned int async_in_progress : 1; /*!< an asynchronous operation is in progress */
 410:/home/xingli/share/1205tiny/network/dtls/mbedtls/mbedtls-2.16.2/include/mbedtls/ssl_internal.h **** #endif /* MBEDTLS_SSL_ASYNC_PRIVATE */
 411:/home/xingli/share/1205tiny/network/dtls/mbedtls/mbedtls-2.16.2/include/mbedtls/ssl_internal.h **** 
 412:/home/xingli/share/1205tiny/network/dtls/mbedtls/mbedtls-2.16.2/include/mbedtls/ssl_internal.h **** #if defined(MBEDTLS_SSL_ASYNC_PRIVATE)
 413:/home/xingli/share/1205tiny/network/dtls/mbedtls/mbedtls-2.16.2/include/mbedtls/ssl_internal.h ****     /** Asynchronous operation context. This field is meant for use by the
 414:/home/xingli/share/1205tiny/network/dtls/mbedtls/mbedtls-2.16.2/include/mbedtls/ssl_internal.h ****      * asynchronous operation callbacks (mbedtls_ssl_config::f_async_sign_start,
 415:/home/xingli/share/1205tiny/network/dtls/mbedtls/mbedtls-2.16.2/include/mbedtls/ssl_internal.h ****      * mbedtls_ssl_config::f_async_decrypt_start,
 416:/home/xingli/share/1205tiny/network/dtls/mbedtls/mbedtls-2.16.2/include/mbedtls/ssl_internal.h ****      * mbedtls_ssl_config::f_async_resume, mbedtls_ssl_config::f_async_cancel).
 417:/home/xingli/share/1205tiny/network/dtls/mbedtls/mbedtls-2.16.2/include/mbedtls/ssl_internal.h ****      * The library does not use it internally. */
 418:/home/xingli/share/1205tiny/network/dtls/mbedtls/mbedtls-2.16.2/include/mbedtls/ssl_internal.h ****     void *user_async_ctx;
 419:/home/xingli/share/1205tiny/network/dtls/mbedtls/mbedtls-2.16.2/include/mbedtls/ssl_internal.h **** #endif /* MBEDTLS_SSL_ASYNC_PRIVATE */
 420:/home/xingli/share/1205tiny/network/dtls/mbedtls/mbedtls-2.16.2/include/mbedtls/ssl_internal.h **** };
 421:/home/xingli/share/1205tiny/network/dtls/mbedtls/mbedtls-2.16.2/include/mbedtls/ssl_internal.h **** 
 422:/home/xingli/share/1205tiny/network/dtls/mbedtls/mbedtls-2.16.2/include/mbedtls/ssl_internal.h **** typedef struct mbedtls_ssl_hs_buffer mbedtls_ssl_hs_buffer;
 423:/home/xingli/share/1205tiny/network/dtls/mbedtls/mbedtls-2.16.2/include/mbedtls/ssl_internal.h **** 
 424:/home/xingli/share/1205tiny/network/dtls/mbedtls/mbedtls-2.16.2/include/mbedtls/ssl_internal.h **** /*
 425:/home/xingli/share/1205tiny/network/dtls/mbedtls/mbedtls-2.16.2/include/mbedtls/ssl_internal.h ****  * This structure contains a full set of runtime transform parameters
 426:/home/xingli/share/1205tiny/network/dtls/mbedtls/mbedtls-2.16.2/include/mbedtls/ssl_internal.h ****  * either in negotiation or active.
 427:/home/xingli/share/1205tiny/network/dtls/mbedtls/mbedtls-2.16.2/include/mbedtls/ssl_internal.h ****  */
 428:/home/xingli/share/1205tiny/network/dtls/mbedtls/mbedtls-2.16.2/include/mbedtls/ssl_internal.h **** struct mbedtls_ssl_transform
 429:/home/xingli/share/1205tiny/network/dtls/mbedtls/mbedtls-2.16.2/include/mbedtls/ssl_internal.h **** {
 430:/home/xingli/share/1205tiny/network/dtls/mbedtls/mbedtls-2.16.2/include/mbedtls/ssl_internal.h ****     /*
 431:/home/xingli/share/1205tiny/network/dtls/mbedtls/mbedtls-2.16.2/include/mbedtls/ssl_internal.h ****      * Session specific crypto layer
 432:/home/xingli/share/1205tiny/network/dtls/mbedtls/mbedtls-2.16.2/include/mbedtls/ssl_internal.h ****      */
 433:/home/xingli/share/1205tiny/network/dtls/mbedtls/mbedtls-2.16.2/include/mbedtls/ssl_internal.h ****     const mbedtls_ssl_ciphersuite_t *ciphersuite_info;
 434:/home/xingli/share/1205tiny/network/dtls/mbedtls/mbedtls-2.16.2/include/mbedtls/ssl_internal.h ****                                         /*!<  Chosen cipersuite_info  */
 435:/home/xingli/share/1205tiny/network/dtls/mbedtls/mbedtls-2.16.2/include/mbedtls/ssl_internal.h ****     unsigned int keylen;                /*!<  symmetric key length (bytes)  */
 436:/home/xingli/share/1205tiny/network/dtls/mbedtls/mbedtls-2.16.2/include/mbedtls/ssl_internal.h ****     size_t minlen;                      /*!<  min. ciphertext length  */
 437:/home/xingli/share/1205tiny/network/dtls/mbedtls/mbedtls-2.16.2/include/mbedtls/ssl_internal.h ****     size_t ivlen;                       /*!<  IV length               */
 438:/home/xingli/share/1205tiny/network/dtls/mbedtls/mbedtls-2.16.2/include/mbedtls/ssl_internal.h ****     size_t fixed_ivlen;                 /*!<  Fixed part of IV (AEAD) */
 439:/home/xingli/share/1205tiny/network/dtls/mbedtls/mbedtls-2.16.2/include/mbedtls/ssl_internal.h ****     size_t maclen;                      /*!<  MAC length              */
 440:/home/xingli/share/1205tiny/network/dtls/mbedtls/mbedtls-2.16.2/include/mbedtls/ssl_internal.h **** 
 441:/home/xingli/share/1205tiny/network/dtls/mbedtls/mbedtls-2.16.2/include/mbedtls/ssl_internal.h ****     unsigned char iv_enc[16];           /*!<  IV (encryption)         */
 442:/home/xingli/share/1205tiny/network/dtls/mbedtls/mbedtls-2.16.2/include/mbedtls/ssl_internal.h ****     unsigned char iv_dec[16];           /*!<  IV (decryption)         */
 443:/home/xingli/share/1205tiny/network/dtls/mbedtls/mbedtls-2.16.2/include/mbedtls/ssl_internal.h **** 
 444:/home/xingli/share/1205tiny/network/dtls/mbedtls/mbedtls-2.16.2/include/mbedtls/ssl_internal.h **** #if defined(MBEDTLS_SSL_PROTO_SSL3)
 445:/home/xingli/share/1205tiny/network/dtls/mbedtls/mbedtls-2.16.2/include/mbedtls/ssl_internal.h ****     /* Needed only for SSL v3.0 secret */
 446:/home/xingli/share/1205tiny/network/dtls/mbedtls/mbedtls-2.16.2/include/mbedtls/ssl_internal.h ****     unsigned char mac_enc[20];          /*!<  SSL v3.0 secret (enc)   */
 447:/home/xingli/share/1205tiny/network/dtls/mbedtls/mbedtls-2.16.2/include/mbedtls/ssl_internal.h ****     unsigned char mac_dec[20];          /*!<  SSL v3.0 secret (dec)   */
 448:/home/xingli/share/1205tiny/network/dtls/mbedtls/mbedtls-2.16.2/include/mbedtls/ssl_internal.h **** #endif /* MBEDTLS_SSL_PROTO_SSL3 */
 449:/home/xingli/share/1205tiny/network/dtls/mbedtls/mbedtls-2.16.2/include/mbedtls/ssl_internal.h **** 
GAS LISTING /tmp/ccSYGV05.s 			page 9


 450:/home/xingli/share/1205tiny/network/dtls/mbedtls/mbedtls-2.16.2/include/mbedtls/ssl_internal.h ****     mbedtls_md_context_t md_ctx_enc;            /*!<  MAC (encryption)        */
 451:/home/xingli/share/1205tiny/network/dtls/mbedtls/mbedtls-2.16.2/include/mbedtls/ssl_internal.h ****     mbedtls_md_context_t md_ctx_dec;            /*!<  MAC (decryption)        */
 452:/home/xingli/share/1205tiny/network/dtls/mbedtls/mbedtls-2.16.2/include/mbedtls/ssl_internal.h **** 
 453:/home/xingli/share/1205tiny/network/dtls/mbedtls/mbedtls-2.16.2/include/mbedtls/ssl_internal.h ****     mbedtls_cipher_context_t cipher_ctx_enc;    /*!<  encryption context      */
 454:/home/xingli/share/1205tiny/network/dtls/mbedtls/mbedtls-2.16.2/include/mbedtls/ssl_internal.h ****     mbedtls_cipher_context_t cipher_ctx_dec;    /*!<  decryption context      */
 455:/home/xingli/share/1205tiny/network/dtls/mbedtls/mbedtls-2.16.2/include/mbedtls/ssl_internal.h **** 
 456:/home/xingli/share/1205tiny/network/dtls/mbedtls/mbedtls-2.16.2/include/mbedtls/ssl_internal.h ****     /*
 457:/home/xingli/share/1205tiny/network/dtls/mbedtls/mbedtls-2.16.2/include/mbedtls/ssl_internal.h ****      * Session specific compression layer
 458:/home/xingli/share/1205tiny/network/dtls/mbedtls/mbedtls-2.16.2/include/mbedtls/ssl_internal.h ****      */
 459:/home/xingli/share/1205tiny/network/dtls/mbedtls/mbedtls-2.16.2/include/mbedtls/ssl_internal.h **** #if defined(MBEDTLS_ZLIB_SUPPORT)
 460:/home/xingli/share/1205tiny/network/dtls/mbedtls/mbedtls-2.16.2/include/mbedtls/ssl_internal.h ****     z_stream ctx_deflate;               /*!<  compression context     */
 461:/home/xingli/share/1205tiny/network/dtls/mbedtls/mbedtls-2.16.2/include/mbedtls/ssl_internal.h ****     z_stream ctx_inflate;               /*!<  decompression context   */
 462:/home/xingli/share/1205tiny/network/dtls/mbedtls/mbedtls-2.16.2/include/mbedtls/ssl_internal.h **** #endif
 463:/home/xingli/share/1205tiny/network/dtls/mbedtls/mbedtls-2.16.2/include/mbedtls/ssl_internal.h **** };
 464:/home/xingli/share/1205tiny/network/dtls/mbedtls/mbedtls-2.16.2/include/mbedtls/ssl_internal.h **** 
 465:/home/xingli/share/1205tiny/network/dtls/mbedtls/mbedtls-2.16.2/include/mbedtls/ssl_internal.h **** #if defined(MBEDTLS_X509_CRT_PARSE_C)
 466:/home/xingli/share/1205tiny/network/dtls/mbedtls/mbedtls-2.16.2/include/mbedtls/ssl_internal.h **** /*
 467:/home/xingli/share/1205tiny/network/dtls/mbedtls/mbedtls-2.16.2/include/mbedtls/ssl_internal.h ****  * List of certificate + private key pairs
 468:/home/xingli/share/1205tiny/network/dtls/mbedtls/mbedtls-2.16.2/include/mbedtls/ssl_internal.h ****  */
 469:/home/xingli/share/1205tiny/network/dtls/mbedtls/mbedtls-2.16.2/include/mbedtls/ssl_internal.h **** struct mbedtls_ssl_key_cert
 470:/home/xingli/share/1205tiny/network/dtls/mbedtls/mbedtls-2.16.2/include/mbedtls/ssl_internal.h **** {
 471:/home/xingli/share/1205tiny/network/dtls/mbedtls/mbedtls-2.16.2/include/mbedtls/ssl_internal.h ****     mbedtls_x509_crt *cert;                 /*!< cert                       */
 472:/home/xingli/share/1205tiny/network/dtls/mbedtls/mbedtls-2.16.2/include/mbedtls/ssl_internal.h ****     mbedtls_pk_context *key;                /*!< private key                */
 473:/home/xingli/share/1205tiny/network/dtls/mbedtls/mbedtls-2.16.2/include/mbedtls/ssl_internal.h ****     mbedtls_ssl_key_cert *next;             /*!< next key/cert pair         */
 474:/home/xingli/share/1205tiny/network/dtls/mbedtls/mbedtls-2.16.2/include/mbedtls/ssl_internal.h **** };
 475:/home/xingli/share/1205tiny/network/dtls/mbedtls/mbedtls-2.16.2/include/mbedtls/ssl_internal.h **** #endif /* MBEDTLS_X509_CRT_PARSE_C */
 476:/home/xingli/share/1205tiny/network/dtls/mbedtls/mbedtls-2.16.2/include/mbedtls/ssl_internal.h **** 
 477:/home/xingli/share/1205tiny/network/dtls/mbedtls/mbedtls-2.16.2/include/mbedtls/ssl_internal.h **** #if defined(MBEDTLS_SSL_PROTO_DTLS)
 478:/home/xingli/share/1205tiny/network/dtls/mbedtls/mbedtls-2.16.2/include/mbedtls/ssl_internal.h **** /*
 479:/home/xingli/share/1205tiny/network/dtls/mbedtls/mbedtls-2.16.2/include/mbedtls/ssl_internal.h ****  * List of handshake messages kept around for resending
 480:/home/xingli/share/1205tiny/network/dtls/mbedtls/mbedtls-2.16.2/include/mbedtls/ssl_internal.h ****  */
 481:/home/xingli/share/1205tiny/network/dtls/mbedtls/mbedtls-2.16.2/include/mbedtls/ssl_internal.h **** struct mbedtls_ssl_flight_item
 482:/home/xingli/share/1205tiny/network/dtls/mbedtls/mbedtls-2.16.2/include/mbedtls/ssl_internal.h **** {
 483:/home/xingli/share/1205tiny/network/dtls/mbedtls/mbedtls-2.16.2/include/mbedtls/ssl_internal.h ****     unsigned char *p;       /*!< message, including handshake headers   */
 484:/home/xingli/share/1205tiny/network/dtls/mbedtls/mbedtls-2.16.2/include/mbedtls/ssl_internal.h ****     size_t len;             /*!< length of p                            */
 485:/home/xingli/share/1205tiny/network/dtls/mbedtls/mbedtls-2.16.2/include/mbedtls/ssl_internal.h ****     unsigned char type;     /*!< type of the message: handshake or CCS  */
 486:/home/xingli/share/1205tiny/network/dtls/mbedtls/mbedtls-2.16.2/include/mbedtls/ssl_internal.h ****     mbedtls_ssl_flight_item *next;  /*!< next handshake message(s)              */
 487:/home/xingli/share/1205tiny/network/dtls/mbedtls/mbedtls-2.16.2/include/mbedtls/ssl_internal.h **** };
 488:/home/xingli/share/1205tiny/network/dtls/mbedtls/mbedtls-2.16.2/include/mbedtls/ssl_internal.h **** #endif /* MBEDTLS_SSL_PROTO_DTLS */
 489:/home/xingli/share/1205tiny/network/dtls/mbedtls/mbedtls-2.16.2/include/mbedtls/ssl_internal.h **** 
 490:/home/xingli/share/1205tiny/network/dtls/mbedtls/mbedtls-2.16.2/include/mbedtls/ssl_internal.h **** #if defined(MBEDTLS_SSL_PROTO_TLS1_2) && \
 491:/home/xingli/share/1205tiny/network/dtls/mbedtls/mbedtls-2.16.2/include/mbedtls/ssl_internal.h ****     defined(MBEDTLS_KEY_EXCHANGE__WITH_CERT__ENABLED)
 492:/home/xingli/share/1205tiny/network/dtls/mbedtls/mbedtls-2.16.2/include/mbedtls/ssl_internal.h **** 
 493:/home/xingli/share/1205tiny/network/dtls/mbedtls/mbedtls-2.16.2/include/mbedtls/ssl_internal.h **** /* Find an entry in a signature-hash set matching a given hash algorithm. */
 494:/home/xingli/share/1205tiny/network/dtls/mbedtls/mbedtls-2.16.2/include/mbedtls/ssl_internal.h **** mbedtls_md_type_t mbedtls_ssl_sig_hash_set_find( mbedtls_ssl_sig_hash_set_t *set,
 495:/home/xingli/share/1205tiny/network/dtls/mbedtls/mbedtls-2.16.2/include/mbedtls/ssl_internal.h ****                                                  mbedtls_pk_type_t sig_alg );
 496:/home/xingli/share/1205tiny/network/dtls/mbedtls/mbedtls-2.16.2/include/mbedtls/ssl_internal.h **** /* Add a signature-hash-pair to a signature-hash set */
 497:/home/xingli/share/1205tiny/network/dtls/mbedtls/mbedtls-2.16.2/include/mbedtls/ssl_internal.h **** void mbedtls_ssl_sig_hash_set_add( mbedtls_ssl_sig_hash_set_t *set,
 498:/home/xingli/share/1205tiny/network/dtls/mbedtls/mbedtls-2.16.2/include/mbedtls/ssl_internal.h ****                                    mbedtls_pk_type_t sig_alg,
 499:/home/xingli/share/1205tiny/network/dtls/mbedtls/mbedtls-2.16.2/include/mbedtls/ssl_internal.h ****                                    mbedtls_md_type_t md_alg );
 500:/home/xingli/share/1205tiny/network/dtls/mbedtls/mbedtls-2.16.2/include/mbedtls/ssl_internal.h **** /* Allow exactly one hash algorithm for each signature. */
 501:/home/xingli/share/1205tiny/network/dtls/mbedtls/mbedtls-2.16.2/include/mbedtls/ssl_internal.h **** void mbedtls_ssl_sig_hash_set_const_hash( mbedtls_ssl_sig_hash_set_t *set,
 502:/home/xingli/share/1205tiny/network/dtls/mbedtls/mbedtls-2.16.2/include/mbedtls/ssl_internal.h ****                                           mbedtls_md_type_t md_alg );
 503:/home/xingli/share/1205tiny/network/dtls/mbedtls/mbedtls-2.16.2/include/mbedtls/ssl_internal.h **** 
 504:/home/xingli/share/1205tiny/network/dtls/mbedtls/mbedtls-2.16.2/include/mbedtls/ssl_internal.h **** /* Setup an empty signature-hash set */
 505:/home/xingli/share/1205tiny/network/dtls/mbedtls/mbedtls-2.16.2/include/mbedtls/ssl_internal.h **** static inline void mbedtls_ssl_sig_hash_set_init( mbedtls_ssl_sig_hash_set_t *set )
 506:/home/xingli/share/1205tiny/network/dtls/mbedtls/mbedtls-2.16.2/include/mbedtls/ssl_internal.h **** {
GAS LISTING /tmp/ccSYGV05.s 			page 10


 507:/home/xingli/share/1205tiny/network/dtls/mbedtls/mbedtls-2.16.2/include/mbedtls/ssl_internal.h ****     mbedtls_ssl_sig_hash_set_const_hash( set, MBEDTLS_MD_NONE );
 508:/home/xingli/share/1205tiny/network/dtls/mbedtls/mbedtls-2.16.2/include/mbedtls/ssl_internal.h **** }
 509:/home/xingli/share/1205tiny/network/dtls/mbedtls/mbedtls-2.16.2/include/mbedtls/ssl_internal.h **** 
 510:/home/xingli/share/1205tiny/network/dtls/mbedtls/mbedtls-2.16.2/include/mbedtls/ssl_internal.h **** #endif /* MBEDTLS_SSL_PROTO_TLS1_2) &&
 511:/home/xingli/share/1205tiny/network/dtls/mbedtls/mbedtls-2.16.2/include/mbedtls/ssl_internal.h ****           MBEDTLS_KEY_EXCHANGE__WITH_CERT__ENABLED */
 512:/home/xingli/share/1205tiny/network/dtls/mbedtls/mbedtls-2.16.2/include/mbedtls/ssl_internal.h **** 
 513:/home/xingli/share/1205tiny/network/dtls/mbedtls/mbedtls-2.16.2/include/mbedtls/ssl_internal.h **** /**
 514:/home/xingli/share/1205tiny/network/dtls/mbedtls/mbedtls-2.16.2/include/mbedtls/ssl_internal.h ****  * \brief           Free referenced items in an SSL transform context and clear
 515:/home/xingli/share/1205tiny/network/dtls/mbedtls/mbedtls-2.16.2/include/mbedtls/ssl_internal.h ****  *                  memory
 516:/home/xingli/share/1205tiny/network/dtls/mbedtls/mbedtls-2.16.2/include/mbedtls/ssl_internal.h ****  *
 517:/home/xingli/share/1205tiny/network/dtls/mbedtls/mbedtls-2.16.2/include/mbedtls/ssl_internal.h ****  * \param transform SSL transform context
 518:/home/xingli/share/1205tiny/network/dtls/mbedtls/mbedtls-2.16.2/include/mbedtls/ssl_internal.h ****  */
 519:/home/xingli/share/1205tiny/network/dtls/mbedtls/mbedtls-2.16.2/include/mbedtls/ssl_internal.h **** void mbedtls_ssl_transform_free( mbedtls_ssl_transform *transform );
 520:/home/xingli/share/1205tiny/network/dtls/mbedtls/mbedtls-2.16.2/include/mbedtls/ssl_internal.h **** 
 521:/home/xingli/share/1205tiny/network/dtls/mbedtls/mbedtls-2.16.2/include/mbedtls/ssl_internal.h **** /**
 522:/home/xingli/share/1205tiny/network/dtls/mbedtls/mbedtls-2.16.2/include/mbedtls/ssl_internal.h ****  * \brief           Free referenced items in an SSL handshake context and clear
 523:/home/xingli/share/1205tiny/network/dtls/mbedtls/mbedtls-2.16.2/include/mbedtls/ssl_internal.h ****  *                  memory
 524:/home/xingli/share/1205tiny/network/dtls/mbedtls/mbedtls-2.16.2/include/mbedtls/ssl_internal.h ****  *
 525:/home/xingli/share/1205tiny/network/dtls/mbedtls/mbedtls-2.16.2/include/mbedtls/ssl_internal.h ****  * \param ssl       SSL context
 526:/home/xingli/share/1205tiny/network/dtls/mbedtls/mbedtls-2.16.2/include/mbedtls/ssl_internal.h ****  */
 527:/home/xingli/share/1205tiny/network/dtls/mbedtls/mbedtls-2.16.2/include/mbedtls/ssl_internal.h **** void mbedtls_ssl_handshake_free( mbedtls_ssl_context *ssl );
 528:/home/xingli/share/1205tiny/network/dtls/mbedtls/mbedtls-2.16.2/include/mbedtls/ssl_internal.h **** 
 529:/home/xingli/share/1205tiny/network/dtls/mbedtls/mbedtls-2.16.2/include/mbedtls/ssl_internal.h **** int mbedtls_ssl_handshake_client_step( mbedtls_ssl_context *ssl );
 530:/home/xingli/share/1205tiny/network/dtls/mbedtls/mbedtls-2.16.2/include/mbedtls/ssl_internal.h **** int mbedtls_ssl_handshake_server_step( mbedtls_ssl_context *ssl );
 531:/home/xingli/share/1205tiny/network/dtls/mbedtls/mbedtls-2.16.2/include/mbedtls/ssl_internal.h **** void mbedtls_ssl_handshake_wrapup( mbedtls_ssl_context *ssl );
 532:/home/xingli/share/1205tiny/network/dtls/mbedtls/mbedtls-2.16.2/include/mbedtls/ssl_internal.h **** 
 533:/home/xingli/share/1205tiny/network/dtls/mbedtls/mbedtls-2.16.2/include/mbedtls/ssl_internal.h **** int mbedtls_ssl_send_fatal_handshake_failure( mbedtls_ssl_context *ssl );
 534:/home/xingli/share/1205tiny/network/dtls/mbedtls/mbedtls-2.16.2/include/mbedtls/ssl_internal.h **** 
 535:/home/xingli/share/1205tiny/network/dtls/mbedtls/mbedtls-2.16.2/include/mbedtls/ssl_internal.h **** void mbedtls_ssl_reset_checksum( mbedtls_ssl_context *ssl );
 536:/home/xingli/share/1205tiny/network/dtls/mbedtls/mbedtls-2.16.2/include/mbedtls/ssl_internal.h **** int mbedtls_ssl_derive_keys( mbedtls_ssl_context *ssl );
 537:/home/xingli/share/1205tiny/network/dtls/mbedtls/mbedtls-2.16.2/include/mbedtls/ssl_internal.h **** 
 538:/home/xingli/share/1205tiny/network/dtls/mbedtls/mbedtls-2.16.2/include/mbedtls/ssl_internal.h **** int mbedtls_ssl_handle_message_type( mbedtls_ssl_context *ssl );
 539:/home/xingli/share/1205tiny/network/dtls/mbedtls/mbedtls-2.16.2/include/mbedtls/ssl_internal.h **** int mbedtls_ssl_prepare_handshake_record( mbedtls_ssl_context *ssl );
 540:/home/xingli/share/1205tiny/network/dtls/mbedtls/mbedtls-2.16.2/include/mbedtls/ssl_internal.h **** void mbedtls_ssl_update_handshake_status( mbedtls_ssl_context *ssl );
 541:/home/xingli/share/1205tiny/network/dtls/mbedtls/mbedtls-2.16.2/include/mbedtls/ssl_internal.h **** 
 542:/home/xingli/share/1205tiny/network/dtls/mbedtls/mbedtls-2.16.2/include/mbedtls/ssl_internal.h **** /**
 543:/home/xingli/share/1205tiny/network/dtls/mbedtls/mbedtls-2.16.2/include/mbedtls/ssl_internal.h ****  * \brief       Update record layer
 544:/home/xingli/share/1205tiny/network/dtls/mbedtls/mbedtls-2.16.2/include/mbedtls/ssl_internal.h ****  *
 545:/home/xingli/share/1205tiny/network/dtls/mbedtls/mbedtls-2.16.2/include/mbedtls/ssl_internal.h ****  *              This function roughly separates the implementation
 546:/home/xingli/share/1205tiny/network/dtls/mbedtls/mbedtls-2.16.2/include/mbedtls/ssl_internal.h ****  *              of the logic of (D)TLS from the implementation
 547:/home/xingli/share/1205tiny/network/dtls/mbedtls/mbedtls-2.16.2/include/mbedtls/ssl_internal.h ****  *              of the secure transport.
 548:/home/xingli/share/1205tiny/network/dtls/mbedtls/mbedtls-2.16.2/include/mbedtls/ssl_internal.h ****  *
 549:/home/xingli/share/1205tiny/network/dtls/mbedtls/mbedtls-2.16.2/include/mbedtls/ssl_internal.h ****  * \param  ssl              The SSL context to use.
 550:/home/xingli/share/1205tiny/network/dtls/mbedtls/mbedtls-2.16.2/include/mbedtls/ssl_internal.h ****  * \param  update_hs_digest This indicates if the handshake digest
 551:/home/xingli/share/1205tiny/network/dtls/mbedtls/mbedtls-2.16.2/include/mbedtls/ssl_internal.h ****  *                          should be automatically updated in case
 552:/home/xingli/share/1205tiny/network/dtls/mbedtls/mbedtls-2.16.2/include/mbedtls/ssl_internal.h ****  *                          a handshake message is found.
 553:/home/xingli/share/1205tiny/network/dtls/mbedtls/mbedtls-2.16.2/include/mbedtls/ssl_internal.h ****  *
 554:/home/xingli/share/1205tiny/network/dtls/mbedtls/mbedtls-2.16.2/include/mbedtls/ssl_internal.h ****  * \return      0 or non-zero error code.
 555:/home/xingli/share/1205tiny/network/dtls/mbedtls/mbedtls-2.16.2/include/mbedtls/ssl_internal.h ****  *
 556:/home/xingli/share/1205tiny/network/dtls/mbedtls/mbedtls-2.16.2/include/mbedtls/ssl_internal.h ****  * \note        A clarification on what is called 'record layer' here
 557:/home/xingli/share/1205tiny/network/dtls/mbedtls/mbedtls-2.16.2/include/mbedtls/ssl_internal.h ****  *              is in order, as many sensible definitions are possible:
 558:/home/xingli/share/1205tiny/network/dtls/mbedtls/mbedtls-2.16.2/include/mbedtls/ssl_internal.h ****  *
 559:/home/xingli/share/1205tiny/network/dtls/mbedtls/mbedtls-2.16.2/include/mbedtls/ssl_internal.h ****  *              The record layer takes as input an untrusted underlying
 560:/home/xingli/share/1205tiny/network/dtls/mbedtls/mbedtls-2.16.2/include/mbedtls/ssl_internal.h ****  *              transport (stream or datagram) and transforms it into
 561:/home/xingli/share/1205tiny/network/dtls/mbedtls/mbedtls-2.16.2/include/mbedtls/ssl_internal.h ****  *              a serially multiplexed, secure transport, which
 562:/home/xingli/share/1205tiny/network/dtls/mbedtls/mbedtls-2.16.2/include/mbedtls/ssl_internal.h ****  *              conceptually provides the following:
 563:/home/xingli/share/1205tiny/network/dtls/mbedtls/mbedtls-2.16.2/include/mbedtls/ssl_internal.h ****  *
GAS LISTING /tmp/ccSYGV05.s 			page 11


 564:/home/xingli/share/1205tiny/network/dtls/mbedtls/mbedtls-2.16.2/include/mbedtls/ssl_internal.h ****  *              (1) Three datagram based, content-agnostic transports
 565:/home/xingli/share/1205tiny/network/dtls/mbedtls/mbedtls-2.16.2/include/mbedtls/ssl_internal.h ****  *                  for handshake, alert and CCS messages.
 566:/home/xingli/share/1205tiny/network/dtls/mbedtls/mbedtls-2.16.2/include/mbedtls/ssl_internal.h ****  *              (2) One stream- or datagram-based transport
 567:/home/xingli/share/1205tiny/network/dtls/mbedtls/mbedtls-2.16.2/include/mbedtls/ssl_internal.h ****  *                  for application data.
 568:/home/xingli/share/1205tiny/network/dtls/mbedtls/mbedtls-2.16.2/include/mbedtls/ssl_internal.h ****  *              (3) Functionality for changing the underlying transform
 569:/home/xingli/share/1205tiny/network/dtls/mbedtls/mbedtls-2.16.2/include/mbedtls/ssl_internal.h ****  *                  securing the contents.
 570:/home/xingli/share/1205tiny/network/dtls/mbedtls/mbedtls-2.16.2/include/mbedtls/ssl_internal.h ****  *
 571:/home/xingli/share/1205tiny/network/dtls/mbedtls/mbedtls-2.16.2/include/mbedtls/ssl_internal.h ****  *              The interface to this functionality is given as follows:
 572:/home/xingli/share/1205tiny/network/dtls/mbedtls/mbedtls-2.16.2/include/mbedtls/ssl_internal.h ****  *
 573:/home/xingli/share/1205tiny/network/dtls/mbedtls/mbedtls-2.16.2/include/mbedtls/ssl_internal.h ****  *              a Updating
 574:/home/xingli/share/1205tiny/network/dtls/mbedtls/mbedtls-2.16.2/include/mbedtls/ssl_internal.h ****  *                [Currently implemented by mbedtls_ssl_read_record]
 575:/home/xingli/share/1205tiny/network/dtls/mbedtls/mbedtls-2.16.2/include/mbedtls/ssl_internal.h ****  *
 576:/home/xingli/share/1205tiny/network/dtls/mbedtls/mbedtls-2.16.2/include/mbedtls/ssl_internal.h ****  *                Check if and on which of the four 'ports' data is pending:
 577:/home/xingli/share/1205tiny/network/dtls/mbedtls/mbedtls-2.16.2/include/mbedtls/ssl_internal.h ****  *                Nothing, a controlling datagram of type (1), or application
 578:/home/xingli/share/1205tiny/network/dtls/mbedtls/mbedtls-2.16.2/include/mbedtls/ssl_internal.h ****  *                data (2). In any case data is present, internal buffers
 579:/home/xingli/share/1205tiny/network/dtls/mbedtls/mbedtls-2.16.2/include/mbedtls/ssl_internal.h ****  *                provide access to the data for the user to process it.
 580:/home/xingli/share/1205tiny/network/dtls/mbedtls/mbedtls-2.16.2/include/mbedtls/ssl_internal.h ****  *                Consumption of type (1) datagrams is done automatically
 581:/home/xingli/share/1205tiny/network/dtls/mbedtls/mbedtls-2.16.2/include/mbedtls/ssl_internal.h ****  *                on the next update, invalidating that the internal buffers
 582:/home/xingli/share/1205tiny/network/dtls/mbedtls/mbedtls-2.16.2/include/mbedtls/ssl_internal.h ****  *                for previous datagrams, while consumption of application
 583:/home/xingli/share/1205tiny/network/dtls/mbedtls/mbedtls-2.16.2/include/mbedtls/ssl_internal.h ****  *                data (2) is user-controlled.
 584:/home/xingli/share/1205tiny/network/dtls/mbedtls/mbedtls-2.16.2/include/mbedtls/ssl_internal.h ****  *
 585:/home/xingli/share/1205tiny/network/dtls/mbedtls/mbedtls-2.16.2/include/mbedtls/ssl_internal.h ****  *              b Reading of application data
 586:/home/xingli/share/1205tiny/network/dtls/mbedtls/mbedtls-2.16.2/include/mbedtls/ssl_internal.h ****  *                [Currently manual adaption of ssl->in_offt pointer]
 587:/home/xingli/share/1205tiny/network/dtls/mbedtls/mbedtls-2.16.2/include/mbedtls/ssl_internal.h ****  *
 588:/home/xingli/share/1205tiny/network/dtls/mbedtls/mbedtls-2.16.2/include/mbedtls/ssl_internal.h ****  *                As mentioned in the last paragraph, consumption of data
 589:/home/xingli/share/1205tiny/network/dtls/mbedtls/mbedtls-2.16.2/include/mbedtls/ssl_internal.h ****  *                is different from the automatic consumption of control
 590:/home/xingli/share/1205tiny/network/dtls/mbedtls/mbedtls-2.16.2/include/mbedtls/ssl_internal.h ****  *                datagrams (1) because application data is treated as a stream.
 591:/home/xingli/share/1205tiny/network/dtls/mbedtls/mbedtls-2.16.2/include/mbedtls/ssl_internal.h ****  *
 592:/home/xingli/share/1205tiny/network/dtls/mbedtls/mbedtls-2.16.2/include/mbedtls/ssl_internal.h ****  *              c Tracking availability of application data
 593:/home/xingli/share/1205tiny/network/dtls/mbedtls/mbedtls-2.16.2/include/mbedtls/ssl_internal.h ****  *                [Currently manually through decreasing ssl->in_msglen]
 594:/home/xingli/share/1205tiny/network/dtls/mbedtls/mbedtls-2.16.2/include/mbedtls/ssl_internal.h ****  *
 595:/home/xingli/share/1205tiny/network/dtls/mbedtls/mbedtls-2.16.2/include/mbedtls/ssl_internal.h ****  *                For efficiency and to retain datagram semantics for
 596:/home/xingli/share/1205tiny/network/dtls/mbedtls/mbedtls-2.16.2/include/mbedtls/ssl_internal.h ****  *                application data in case of DTLS, the record layer
 597:/home/xingli/share/1205tiny/network/dtls/mbedtls/mbedtls-2.16.2/include/mbedtls/ssl_internal.h ****  *                provides functionality for checking how much application
 598:/home/xingli/share/1205tiny/network/dtls/mbedtls/mbedtls-2.16.2/include/mbedtls/ssl_internal.h ****  *                data is still available in the internal buffer.
 599:/home/xingli/share/1205tiny/network/dtls/mbedtls/mbedtls-2.16.2/include/mbedtls/ssl_internal.h ****  *
 600:/home/xingli/share/1205tiny/network/dtls/mbedtls/mbedtls-2.16.2/include/mbedtls/ssl_internal.h ****  *              d Changing the transformation securing the communication.
 601:/home/xingli/share/1205tiny/network/dtls/mbedtls/mbedtls-2.16.2/include/mbedtls/ssl_internal.h ****  *
 602:/home/xingli/share/1205tiny/network/dtls/mbedtls/mbedtls-2.16.2/include/mbedtls/ssl_internal.h ****  *              Given an opaque implementation of the record layer in the
 603:/home/xingli/share/1205tiny/network/dtls/mbedtls/mbedtls-2.16.2/include/mbedtls/ssl_internal.h ****  *              above sense, it should be possible to implement the logic
 604:/home/xingli/share/1205tiny/network/dtls/mbedtls/mbedtls-2.16.2/include/mbedtls/ssl_internal.h ****  *              of (D)TLS on top of it without the need to know anything
 605:/home/xingli/share/1205tiny/network/dtls/mbedtls/mbedtls-2.16.2/include/mbedtls/ssl_internal.h ****  *              about the record layer's internals. This is done e.g.
 606:/home/xingli/share/1205tiny/network/dtls/mbedtls/mbedtls-2.16.2/include/mbedtls/ssl_internal.h ****  *              in all the handshake handling functions, and in the
 607:/home/xingli/share/1205tiny/network/dtls/mbedtls/mbedtls-2.16.2/include/mbedtls/ssl_internal.h ****  *              application data reading function mbedtls_ssl_read.
 608:/home/xingli/share/1205tiny/network/dtls/mbedtls/mbedtls-2.16.2/include/mbedtls/ssl_internal.h ****  *
 609:/home/xingli/share/1205tiny/network/dtls/mbedtls/mbedtls-2.16.2/include/mbedtls/ssl_internal.h ****  * \note        The above tries to give a conceptual picture of the
 610:/home/xingli/share/1205tiny/network/dtls/mbedtls/mbedtls-2.16.2/include/mbedtls/ssl_internal.h ****  *              record layer, but the current implementation deviates
 611:/home/xingli/share/1205tiny/network/dtls/mbedtls/mbedtls-2.16.2/include/mbedtls/ssl_internal.h ****  *              from it in some places. For example, our implementation of
 612:/home/xingli/share/1205tiny/network/dtls/mbedtls/mbedtls-2.16.2/include/mbedtls/ssl_internal.h ****  *              the update functionality through mbedtls_ssl_read_record
 613:/home/xingli/share/1205tiny/network/dtls/mbedtls/mbedtls-2.16.2/include/mbedtls/ssl_internal.h ****  *              discards datagrams depending on the current state, which
 614:/home/xingli/share/1205tiny/network/dtls/mbedtls/mbedtls-2.16.2/include/mbedtls/ssl_internal.h ****  *              wouldn't fall under the record layer's responsibility
 615:/home/xingli/share/1205tiny/network/dtls/mbedtls/mbedtls-2.16.2/include/mbedtls/ssl_internal.h ****  *              following the above definition.
 616:/home/xingli/share/1205tiny/network/dtls/mbedtls/mbedtls-2.16.2/include/mbedtls/ssl_internal.h ****  *
 617:/home/xingli/share/1205tiny/network/dtls/mbedtls/mbedtls-2.16.2/include/mbedtls/ssl_internal.h ****  */
 618:/home/xingli/share/1205tiny/network/dtls/mbedtls/mbedtls-2.16.2/include/mbedtls/ssl_internal.h **** int mbedtls_ssl_read_record( mbedtls_ssl_context *ssl,
 619:/home/xingli/share/1205tiny/network/dtls/mbedtls/mbedtls-2.16.2/include/mbedtls/ssl_internal.h ****                              unsigned update_hs_digest );
 620:/home/xingli/share/1205tiny/network/dtls/mbedtls/mbedtls-2.16.2/include/mbedtls/ssl_internal.h **** int mbedtls_ssl_fetch_input( mbedtls_ssl_context *ssl, size_t nb_want );
GAS LISTING /tmp/ccSYGV05.s 			page 12


 621:/home/xingli/share/1205tiny/network/dtls/mbedtls/mbedtls-2.16.2/include/mbedtls/ssl_internal.h **** 
 622:/home/xingli/share/1205tiny/network/dtls/mbedtls/mbedtls-2.16.2/include/mbedtls/ssl_internal.h **** int mbedtls_ssl_write_handshake_msg( mbedtls_ssl_context *ssl );
 623:/home/xingli/share/1205tiny/network/dtls/mbedtls/mbedtls-2.16.2/include/mbedtls/ssl_internal.h **** int mbedtls_ssl_write_record( mbedtls_ssl_context *ssl, uint8_t force_flush );
 624:/home/xingli/share/1205tiny/network/dtls/mbedtls/mbedtls-2.16.2/include/mbedtls/ssl_internal.h **** int mbedtls_ssl_flush_output( mbedtls_ssl_context *ssl );
 625:/home/xingli/share/1205tiny/network/dtls/mbedtls/mbedtls-2.16.2/include/mbedtls/ssl_internal.h **** 
 626:/home/xingli/share/1205tiny/network/dtls/mbedtls/mbedtls-2.16.2/include/mbedtls/ssl_internal.h **** int mbedtls_ssl_parse_certificate( mbedtls_ssl_context *ssl );
 627:/home/xingli/share/1205tiny/network/dtls/mbedtls/mbedtls-2.16.2/include/mbedtls/ssl_internal.h **** int mbedtls_ssl_write_certificate( mbedtls_ssl_context *ssl );
 628:/home/xingli/share/1205tiny/network/dtls/mbedtls/mbedtls-2.16.2/include/mbedtls/ssl_internal.h **** 
 629:/home/xingli/share/1205tiny/network/dtls/mbedtls/mbedtls-2.16.2/include/mbedtls/ssl_internal.h **** int mbedtls_ssl_parse_change_cipher_spec( mbedtls_ssl_context *ssl );
 630:/home/xingli/share/1205tiny/network/dtls/mbedtls/mbedtls-2.16.2/include/mbedtls/ssl_internal.h **** int mbedtls_ssl_write_change_cipher_spec( mbedtls_ssl_context *ssl );
 631:/home/xingli/share/1205tiny/network/dtls/mbedtls/mbedtls-2.16.2/include/mbedtls/ssl_internal.h **** 
 632:/home/xingli/share/1205tiny/network/dtls/mbedtls/mbedtls-2.16.2/include/mbedtls/ssl_internal.h **** int mbedtls_ssl_parse_finished( mbedtls_ssl_context *ssl );
 633:/home/xingli/share/1205tiny/network/dtls/mbedtls/mbedtls-2.16.2/include/mbedtls/ssl_internal.h **** int mbedtls_ssl_write_finished( mbedtls_ssl_context *ssl );
 634:/home/xingli/share/1205tiny/network/dtls/mbedtls/mbedtls-2.16.2/include/mbedtls/ssl_internal.h **** 
 635:/home/xingli/share/1205tiny/network/dtls/mbedtls/mbedtls-2.16.2/include/mbedtls/ssl_internal.h **** void mbedtls_ssl_optimize_checksum( mbedtls_ssl_context *ssl,
 636:/home/xingli/share/1205tiny/network/dtls/mbedtls/mbedtls-2.16.2/include/mbedtls/ssl_internal.h ****                             const mbedtls_ssl_ciphersuite_t *ciphersuite_info );
 637:/home/xingli/share/1205tiny/network/dtls/mbedtls/mbedtls-2.16.2/include/mbedtls/ssl_internal.h **** 
 638:/home/xingli/share/1205tiny/network/dtls/mbedtls/mbedtls-2.16.2/include/mbedtls/ssl_internal.h **** #if defined(MBEDTLS_KEY_EXCHANGE__SOME__PSK_ENABLED)
 639:/home/xingli/share/1205tiny/network/dtls/mbedtls/mbedtls-2.16.2/include/mbedtls/ssl_internal.h **** int mbedtls_ssl_psk_derive_premaster( mbedtls_ssl_context *ssl, mbedtls_key_exchange_type_t key_ex 
 640:/home/xingli/share/1205tiny/network/dtls/mbedtls/mbedtls-2.16.2/include/mbedtls/ssl_internal.h **** #endif
 641:/home/xingli/share/1205tiny/network/dtls/mbedtls/mbedtls-2.16.2/include/mbedtls/ssl_internal.h **** 
 642:/home/xingli/share/1205tiny/network/dtls/mbedtls/mbedtls-2.16.2/include/mbedtls/ssl_internal.h **** #if defined(MBEDTLS_PK_C)
 643:/home/xingli/share/1205tiny/network/dtls/mbedtls/mbedtls-2.16.2/include/mbedtls/ssl_internal.h **** unsigned char mbedtls_ssl_sig_from_pk( mbedtls_pk_context *pk );
 644:/home/xingli/share/1205tiny/network/dtls/mbedtls/mbedtls-2.16.2/include/mbedtls/ssl_internal.h **** unsigned char mbedtls_ssl_sig_from_pk_alg( mbedtls_pk_type_t type );
 645:/home/xingli/share/1205tiny/network/dtls/mbedtls/mbedtls-2.16.2/include/mbedtls/ssl_internal.h **** mbedtls_pk_type_t mbedtls_ssl_pk_alg_from_sig( unsigned char sig );
 646:/home/xingli/share/1205tiny/network/dtls/mbedtls/mbedtls-2.16.2/include/mbedtls/ssl_internal.h **** #endif
 647:/home/xingli/share/1205tiny/network/dtls/mbedtls/mbedtls-2.16.2/include/mbedtls/ssl_internal.h **** 
 648:/home/xingli/share/1205tiny/network/dtls/mbedtls/mbedtls-2.16.2/include/mbedtls/ssl_internal.h **** mbedtls_md_type_t mbedtls_ssl_md_alg_from_hash( unsigned char hash );
 649:/home/xingli/share/1205tiny/network/dtls/mbedtls/mbedtls-2.16.2/include/mbedtls/ssl_internal.h **** unsigned char mbedtls_ssl_hash_from_md_alg( int md );
 650:/home/xingli/share/1205tiny/network/dtls/mbedtls/mbedtls-2.16.2/include/mbedtls/ssl_internal.h **** int mbedtls_ssl_set_calc_verify_md( mbedtls_ssl_context *ssl, int md );
 651:/home/xingli/share/1205tiny/network/dtls/mbedtls/mbedtls-2.16.2/include/mbedtls/ssl_internal.h **** 
 652:/home/xingli/share/1205tiny/network/dtls/mbedtls/mbedtls-2.16.2/include/mbedtls/ssl_internal.h **** #if defined(MBEDTLS_ECP_C)
 653:/home/xingli/share/1205tiny/network/dtls/mbedtls/mbedtls-2.16.2/include/mbedtls/ssl_internal.h **** int mbedtls_ssl_check_curve( const mbedtls_ssl_context *ssl, mbedtls_ecp_group_id grp_id );
 654:/home/xingli/share/1205tiny/network/dtls/mbedtls/mbedtls-2.16.2/include/mbedtls/ssl_internal.h **** #endif
 655:/home/xingli/share/1205tiny/network/dtls/mbedtls/mbedtls-2.16.2/include/mbedtls/ssl_internal.h **** 
 656:/home/xingli/share/1205tiny/network/dtls/mbedtls/mbedtls-2.16.2/include/mbedtls/ssl_internal.h **** #if defined(MBEDTLS_KEY_EXCHANGE__WITH_CERT__ENABLED)
 657:/home/xingli/share/1205tiny/network/dtls/mbedtls/mbedtls-2.16.2/include/mbedtls/ssl_internal.h **** int mbedtls_ssl_check_sig_hash( const mbedtls_ssl_context *ssl,
 658:/home/xingli/share/1205tiny/network/dtls/mbedtls/mbedtls-2.16.2/include/mbedtls/ssl_internal.h ****                                 mbedtls_md_type_t md );
 659:/home/xingli/share/1205tiny/network/dtls/mbedtls/mbedtls-2.16.2/include/mbedtls/ssl_internal.h **** #endif
 660:/home/xingli/share/1205tiny/network/dtls/mbedtls/mbedtls-2.16.2/include/mbedtls/ssl_internal.h **** 
 661:/home/xingli/share/1205tiny/network/dtls/mbedtls/mbedtls-2.16.2/include/mbedtls/ssl_internal.h **** #if defined(MBEDTLS_X509_CRT_PARSE_C)
 662:/home/xingli/share/1205tiny/network/dtls/mbedtls/mbedtls-2.16.2/include/mbedtls/ssl_internal.h **** static inline mbedtls_pk_context *mbedtls_ssl_own_key( mbedtls_ssl_context *ssl )
 663:/home/xingli/share/1205tiny/network/dtls/mbedtls/mbedtls-2.16.2/include/mbedtls/ssl_internal.h **** {
 664:/home/xingli/share/1205tiny/network/dtls/mbedtls/mbedtls-2.16.2/include/mbedtls/ssl_internal.h ****     mbedtls_ssl_key_cert *key_cert;
 665:/home/xingli/share/1205tiny/network/dtls/mbedtls/mbedtls-2.16.2/include/mbedtls/ssl_internal.h **** 
 666:/home/xingli/share/1205tiny/network/dtls/mbedtls/mbedtls-2.16.2/include/mbedtls/ssl_internal.h ****     if( ssl->handshake != NULL && ssl->handshake->key_cert != NULL )
 667:/home/xingli/share/1205tiny/network/dtls/mbedtls/mbedtls-2.16.2/include/mbedtls/ssl_internal.h ****         key_cert = ssl->handshake->key_cert;
 668:/home/xingli/share/1205tiny/network/dtls/mbedtls/mbedtls-2.16.2/include/mbedtls/ssl_internal.h ****     else
 669:/home/xingli/share/1205tiny/network/dtls/mbedtls/mbedtls-2.16.2/include/mbedtls/ssl_internal.h ****         key_cert = ssl->conf->key_cert;
 670:/home/xingli/share/1205tiny/network/dtls/mbedtls/mbedtls-2.16.2/include/mbedtls/ssl_internal.h **** 
 671:/home/xingli/share/1205tiny/network/dtls/mbedtls/mbedtls-2.16.2/include/mbedtls/ssl_internal.h ****     return( key_cert == NULL ? NULL : key_cert->key );
 672:/home/xingli/share/1205tiny/network/dtls/mbedtls/mbedtls-2.16.2/include/mbedtls/ssl_internal.h **** }
 673:/home/xingli/share/1205tiny/network/dtls/mbedtls/mbedtls-2.16.2/include/mbedtls/ssl_internal.h **** 
 674:/home/xingli/share/1205tiny/network/dtls/mbedtls/mbedtls-2.16.2/include/mbedtls/ssl_internal.h **** static inline mbedtls_x509_crt *mbedtls_ssl_own_cert( mbedtls_ssl_context *ssl )
 675:/home/xingli/share/1205tiny/network/dtls/mbedtls/mbedtls-2.16.2/include/mbedtls/ssl_internal.h **** {
 676:/home/xingli/share/1205tiny/network/dtls/mbedtls/mbedtls-2.16.2/include/mbedtls/ssl_internal.h ****     mbedtls_ssl_key_cert *key_cert;
 677:/home/xingli/share/1205tiny/network/dtls/mbedtls/mbedtls-2.16.2/include/mbedtls/ssl_internal.h **** 
GAS LISTING /tmp/ccSYGV05.s 			page 13


 678:/home/xingli/share/1205tiny/network/dtls/mbedtls/mbedtls-2.16.2/include/mbedtls/ssl_internal.h ****     if( ssl->handshake != NULL && ssl->handshake->key_cert != NULL )
 679:/home/xingli/share/1205tiny/network/dtls/mbedtls/mbedtls-2.16.2/include/mbedtls/ssl_internal.h ****         key_cert = ssl->handshake->key_cert;
 680:/home/xingli/share/1205tiny/network/dtls/mbedtls/mbedtls-2.16.2/include/mbedtls/ssl_internal.h ****     else
 681:/home/xingli/share/1205tiny/network/dtls/mbedtls/mbedtls-2.16.2/include/mbedtls/ssl_internal.h ****         key_cert = ssl->conf->key_cert;
 682:/home/xingli/share/1205tiny/network/dtls/mbedtls/mbedtls-2.16.2/include/mbedtls/ssl_internal.h **** 
 683:/home/xingli/share/1205tiny/network/dtls/mbedtls/mbedtls-2.16.2/include/mbedtls/ssl_internal.h ****     return( key_cert == NULL ? NULL : key_cert->cert );
 684:/home/xingli/share/1205tiny/network/dtls/mbedtls/mbedtls-2.16.2/include/mbedtls/ssl_internal.h **** }
 685:/home/xingli/share/1205tiny/network/dtls/mbedtls/mbedtls-2.16.2/include/mbedtls/ssl_internal.h **** 
 686:/home/xingli/share/1205tiny/network/dtls/mbedtls/mbedtls-2.16.2/include/mbedtls/ssl_internal.h **** /*
 687:/home/xingli/share/1205tiny/network/dtls/mbedtls/mbedtls-2.16.2/include/mbedtls/ssl_internal.h ****  * Check usage of a certificate wrt extensions:
 688:/home/xingli/share/1205tiny/network/dtls/mbedtls/mbedtls-2.16.2/include/mbedtls/ssl_internal.h ****  * keyUsage, extendedKeyUsage (later), and nSCertType (later).
 689:/home/xingli/share/1205tiny/network/dtls/mbedtls/mbedtls-2.16.2/include/mbedtls/ssl_internal.h ****  *
 690:/home/xingli/share/1205tiny/network/dtls/mbedtls/mbedtls-2.16.2/include/mbedtls/ssl_internal.h ****  * Warning: cert_endpoint is the endpoint of the cert (ie, of our peer when we
 691:/home/xingli/share/1205tiny/network/dtls/mbedtls/mbedtls-2.16.2/include/mbedtls/ssl_internal.h ****  * check a cert we received from them)!
 692:/home/xingli/share/1205tiny/network/dtls/mbedtls/mbedtls-2.16.2/include/mbedtls/ssl_internal.h ****  *
 693:/home/xingli/share/1205tiny/network/dtls/mbedtls/mbedtls-2.16.2/include/mbedtls/ssl_internal.h ****  * Return 0 if everything is OK, -1 if not.
 694:/home/xingli/share/1205tiny/network/dtls/mbedtls/mbedtls-2.16.2/include/mbedtls/ssl_internal.h ****  */
 695:/home/xingli/share/1205tiny/network/dtls/mbedtls/mbedtls-2.16.2/include/mbedtls/ssl_internal.h **** int mbedtls_ssl_check_cert_usage( const mbedtls_x509_crt *cert,
 696:/home/xingli/share/1205tiny/network/dtls/mbedtls/mbedtls-2.16.2/include/mbedtls/ssl_internal.h ****                           const mbedtls_ssl_ciphersuite_t *ciphersuite,
 697:/home/xingli/share/1205tiny/network/dtls/mbedtls/mbedtls-2.16.2/include/mbedtls/ssl_internal.h ****                           int cert_endpoint,
 698:/home/xingli/share/1205tiny/network/dtls/mbedtls/mbedtls-2.16.2/include/mbedtls/ssl_internal.h ****                           uint32_t *flags );
 699:/home/xingli/share/1205tiny/network/dtls/mbedtls/mbedtls-2.16.2/include/mbedtls/ssl_internal.h **** #endif /* MBEDTLS_X509_CRT_PARSE_C */
 700:/home/xingli/share/1205tiny/network/dtls/mbedtls/mbedtls-2.16.2/include/mbedtls/ssl_internal.h **** 
 701:/home/xingli/share/1205tiny/network/dtls/mbedtls/mbedtls-2.16.2/include/mbedtls/ssl_internal.h **** void mbedtls_ssl_write_version( int major, int minor, int transport,
 702:/home/xingli/share/1205tiny/network/dtls/mbedtls/mbedtls-2.16.2/include/mbedtls/ssl_internal.h ****                         unsigned char ver[2] );
 703:/home/xingli/share/1205tiny/network/dtls/mbedtls/mbedtls-2.16.2/include/mbedtls/ssl_internal.h **** void mbedtls_ssl_read_version( int *major, int *minor, int transport,
 704:/home/xingli/share/1205tiny/network/dtls/mbedtls/mbedtls-2.16.2/include/mbedtls/ssl_internal.h ****                        const unsigned char ver[2] );
 705:/home/xingli/share/1205tiny/network/dtls/mbedtls/mbedtls-2.16.2/include/mbedtls/ssl_internal.h **** 
 706:/home/xingli/share/1205tiny/network/dtls/mbedtls/mbedtls-2.16.2/include/mbedtls/ssl_internal.h **** static inline size_t mbedtls_ssl_hdr_len( const mbedtls_ssl_context *ssl )
 707:/home/xingli/share/1205tiny/network/dtls/mbedtls/mbedtls-2.16.2/include/mbedtls/ssl_internal.h **** {
 708:/home/xingli/share/1205tiny/network/dtls/mbedtls/mbedtls-2.16.2/include/mbedtls/ssl_internal.h **** #if defined(MBEDTLS_SSL_PROTO_DTLS)
 709:/home/xingli/share/1205tiny/network/dtls/mbedtls/mbedtls-2.16.2/include/mbedtls/ssl_internal.h ****     if( ssl->conf->transport == MBEDTLS_SSL_TRANSPORT_DATAGRAM )
 710:/home/xingli/share/1205tiny/network/dtls/mbedtls/mbedtls-2.16.2/include/mbedtls/ssl_internal.h ****         return( 13 );
 711:/home/xingli/share/1205tiny/network/dtls/mbedtls/mbedtls-2.16.2/include/mbedtls/ssl_internal.h **** #else
 712:/home/xingli/share/1205tiny/network/dtls/mbedtls/mbedtls-2.16.2/include/mbedtls/ssl_internal.h ****     ((void) ssl);
 713:/home/xingli/share/1205tiny/network/dtls/mbedtls/mbedtls-2.16.2/include/mbedtls/ssl_internal.h **** #endif
 714:/home/xingli/share/1205tiny/network/dtls/mbedtls/mbedtls-2.16.2/include/mbedtls/ssl_internal.h ****     return( 5 );
 715:/home/xingli/share/1205tiny/network/dtls/mbedtls/mbedtls-2.16.2/include/mbedtls/ssl_internal.h **** }
 716:/home/xingli/share/1205tiny/network/dtls/mbedtls/mbedtls-2.16.2/include/mbedtls/ssl_internal.h **** 
 717:/home/xingli/share/1205tiny/network/dtls/mbedtls/mbedtls-2.16.2/include/mbedtls/ssl_internal.h **** static inline size_t mbedtls_ssl_hs_hdr_len( const mbedtls_ssl_context *ssl )
 718:/home/xingli/share/1205tiny/network/dtls/mbedtls/mbedtls-2.16.2/include/mbedtls/ssl_internal.h **** {
 719:/home/xingli/share/1205tiny/network/dtls/mbedtls/mbedtls-2.16.2/include/mbedtls/ssl_internal.h **** #if defined(MBEDTLS_SSL_PROTO_DTLS)
 720:/home/xingli/share/1205tiny/network/dtls/mbedtls/mbedtls-2.16.2/include/mbedtls/ssl_internal.h ****     if( ssl->conf->transport == MBEDTLS_SSL_TRANSPORT_DATAGRAM )
 721:/home/xingli/share/1205tiny/network/dtls/mbedtls/mbedtls-2.16.2/include/mbedtls/ssl_internal.h ****         return( 12 );
 722:/home/xingli/share/1205tiny/network/dtls/mbedtls/mbedtls-2.16.2/include/mbedtls/ssl_internal.h **** #else
 723:/home/xingli/share/1205tiny/network/dtls/mbedtls/mbedtls-2.16.2/include/mbedtls/ssl_internal.h ****     ((void) ssl);
 724:/home/xingli/share/1205tiny/network/dtls/mbedtls/mbedtls-2.16.2/include/mbedtls/ssl_internal.h **** #endif
 725:/home/xingli/share/1205tiny/network/dtls/mbedtls/mbedtls-2.16.2/include/mbedtls/ssl_internal.h ****     return( 4 );
 726:/home/xingli/share/1205tiny/network/dtls/mbedtls/mbedtls-2.16.2/include/mbedtls/ssl_internal.h **** }
 727:/home/xingli/share/1205tiny/network/dtls/mbedtls/mbedtls-2.16.2/include/mbedtls/ssl_internal.h **** 
 728:/home/xingli/share/1205tiny/network/dtls/mbedtls/mbedtls-2.16.2/include/mbedtls/ssl_internal.h **** #if defined(MBEDTLS_SSL_PROTO_DTLS)
 729:/home/xingli/share/1205tiny/network/dtls/mbedtls/mbedtls-2.16.2/include/mbedtls/ssl_internal.h **** void mbedtls_ssl_send_flight_completed( mbedtls_ssl_context *ssl );
 730:/home/xingli/share/1205tiny/network/dtls/mbedtls/mbedtls-2.16.2/include/mbedtls/ssl_internal.h **** void mbedtls_ssl_recv_flight_completed( mbedtls_ssl_context *ssl );
 731:/home/xingli/share/1205tiny/network/dtls/mbedtls/mbedtls-2.16.2/include/mbedtls/ssl_internal.h **** int mbedtls_ssl_resend( mbedtls_ssl_context *ssl );
 732:/home/xingli/share/1205tiny/network/dtls/mbedtls/mbedtls-2.16.2/include/mbedtls/ssl_internal.h **** int mbedtls_ssl_flight_transmit( mbedtls_ssl_context *ssl );
 733:/home/xingli/share/1205tiny/network/dtls/mbedtls/mbedtls-2.16.2/include/mbedtls/ssl_internal.h **** #endif
 734:/home/xingli/share/1205tiny/network/dtls/mbedtls/mbedtls-2.16.2/include/mbedtls/ssl_internal.h **** 
GAS LISTING /tmp/ccSYGV05.s 			page 14


 735:/home/xingli/share/1205tiny/network/dtls/mbedtls/mbedtls-2.16.2/include/mbedtls/ssl_internal.h **** /* Visible for testing purposes only */
 736:/home/xingli/share/1205tiny/network/dtls/mbedtls/mbedtls-2.16.2/include/mbedtls/ssl_internal.h **** #if defined(MBEDTLS_SSL_DTLS_ANTI_REPLAY)
 737:/home/xingli/share/1205tiny/network/dtls/mbedtls/mbedtls-2.16.2/include/mbedtls/ssl_internal.h **** int mbedtls_ssl_dtls_replay_check( mbedtls_ssl_context *ssl );
 738:/home/xingli/share/1205tiny/network/dtls/mbedtls/mbedtls-2.16.2/include/mbedtls/ssl_internal.h **** void mbedtls_ssl_dtls_replay_update( mbedtls_ssl_context *ssl );
 739:/home/xingli/share/1205tiny/network/dtls/mbedtls/mbedtls-2.16.2/include/mbedtls/ssl_internal.h **** #endif
 740:/home/xingli/share/1205tiny/network/dtls/mbedtls/mbedtls-2.16.2/include/mbedtls/ssl_internal.h **** 
 741:/home/xingli/share/1205tiny/network/dtls/mbedtls/mbedtls-2.16.2/include/mbedtls/ssl_internal.h **** /* constant-time buffer comparison */
 742:/home/xingli/share/1205tiny/network/dtls/mbedtls/mbedtls-2.16.2/include/mbedtls/ssl_internal.h **** static inline int mbedtls_ssl_safer_memcmp( const void *a, const void *b, size_t n )
 743:/home/xingli/share/1205tiny/network/dtls/mbedtls/mbedtls-2.16.2/include/mbedtls/ssl_internal.h **** {
   9              		.loc 1 743 1
  10              		.cfi_startproc
  11 0000 55       		pushq	%rbp
  12              	.LCFI0:
  13              		.cfi_def_cfa_offset 16
  14              		.cfi_offset 6, -16
  15 0001 4889E5   		movq	%rsp, %rbp
  16              	.LCFI1:
  17              		.cfi_def_cfa_register 6
  18 0004 4883EC50 		subq	$80, %rsp
  19 0008 48897DC8 		movq	%rdi, -56(%rbp)
  20 000c 488975C0 		movq	%rsi, -64(%rbp)
  21 0010 488955B8 		movq	%rdx, -72(%rbp)
  22              		.loc 1 743 1
  23 0014 64488B04 		movq	%fs:40, %rax
  23      25280000 
  23      00
  24 001d 488945F8 		movq	%rax, -8(%rbp)
  25 0021 31C0     		xorl	%eax, %eax
 744:/home/xingli/share/1205tiny/network/dtls/mbedtls/mbedtls-2.16.2/include/mbedtls/ssl_internal.h ****     size_t i;
 745:/home/xingli/share/1205tiny/network/dtls/mbedtls/mbedtls-2.16.2/include/mbedtls/ssl_internal.h ****     volatile const unsigned char *A = (volatile const unsigned char *) a;
  26              		.loc 1 745 35
  27 0023 488B45C8 		movq	-56(%rbp), %rax
  28 0027 488945E8 		movq	%rax, -24(%rbp)
 746:/home/xingli/share/1205tiny/network/dtls/mbedtls/mbedtls-2.16.2/include/mbedtls/ssl_internal.h ****     volatile const unsigned char *B = (volatile const unsigned char *) b;
  29              		.loc 1 746 35
  30 002b 488B45C0 		movq	-64(%rbp), %rax
  31 002f 488945F0 		movq	%rax, -16(%rbp)
 747:/home/xingli/share/1205tiny/network/dtls/mbedtls/mbedtls-2.16.2/include/mbedtls/ssl_internal.h ****     volatile unsigned char diff = 0;
  32              		.loc 1 747 28
  33 0033 C645DD00 		movb	$0, -35(%rbp)
 748:/home/xingli/share/1205tiny/network/dtls/mbedtls/mbedtls-2.16.2/include/mbedtls/ssl_internal.h **** 
 749:/home/xingli/share/1205tiny/network/dtls/mbedtls/mbedtls-2.16.2/include/mbedtls/ssl_internal.h ****     for( i = 0; i < n; i++ )
  34              		.loc 1 749 12
  35 0037 48C745E0 		movq	$0, -32(%rbp)
  35      00000000 
  36              		.loc 1 749 5
  37 003f EB39     		jmp	.L2
  38              	.L3:
  39              	.LBB2:
 750:/home/xingli/share/1205tiny/network/dtls/mbedtls/mbedtls-2.16.2/include/mbedtls/ssl_internal.h ****     {
 751:/home/xingli/share/1205tiny/network/dtls/mbedtls/mbedtls-2.16.2/include/mbedtls/ssl_internal.h ****         /* Read volatile data in order before computing diff.
 752:/home/xingli/share/1205tiny/network/dtls/mbedtls/mbedtls-2.16.2/include/mbedtls/ssl_internal.h ****          * This avoids IAR compiler warning:
 753:/home/xingli/share/1205tiny/network/dtls/mbedtls/mbedtls-2.16.2/include/mbedtls/ssl_internal.h ****          * 'the order of volatile accesses is undefined ..' */
 754:/home/xingli/share/1205tiny/network/dtls/mbedtls/mbedtls-2.16.2/include/mbedtls/ssl_internal.h ****         unsigned char x = A[i], y = B[i];
  40              		.loc 1 754 28 discriminator 3
  41 0041 488B55E8 		movq	-24(%rbp), %rdx
  42 0045 488B45E0 		movq	-32(%rbp), %rax
GAS LISTING /tmp/ccSYGV05.s 			page 15


  43 0049 4801D0   		addq	%rdx, %rax
  44              		.loc 1 754 23 discriminator 3
  45 004c 0FB600   		movzbl	(%rax), %eax
  46 004f 8845DE   		movb	%al, -34(%rbp)
  47              		.loc 1 754 38 discriminator 3
  48 0052 488B55F0 		movq	-16(%rbp), %rdx
  49 0056 488B45E0 		movq	-32(%rbp), %rax
  50 005a 4801D0   		addq	%rdx, %rax
  51              		.loc 1 754 33 discriminator 3
  52 005d 0FB600   		movzbl	(%rax), %eax
  53 0060 8845DF   		movb	%al, -33(%rbp)
 755:/home/xingli/share/1205tiny/network/dtls/mbedtls/mbedtls-2.16.2/include/mbedtls/ssl_internal.h ****         diff |= x ^ y;
  54              		.loc 1 755 14 discriminator 3
  55 0063 0FB645DE 		movzbl	-34(%rbp), %eax
  56 0067 3245DF   		xorb	-33(%rbp), %al
  57 006a 89C2     		movl	%eax, %edx
  58 006c 0FB645DD 		movzbl	-35(%rbp), %eax
  59 0070 09D0     		orl	%edx, %eax
  60 0072 8845DD   		movb	%al, -35(%rbp)
  61              	.LBE2:
 749:/home/xingli/share/1205tiny/network/dtls/mbedtls/mbedtls-2.16.2/include/mbedtls/ssl_internal.h ****     {
  62              		.loc 1 749 25 discriminator 3
  63 0075 488345E0 		addq	$1, -32(%rbp)
  63      01
  64              	.L2:
 749:/home/xingli/share/1205tiny/network/dtls/mbedtls/mbedtls-2.16.2/include/mbedtls/ssl_internal.h ****     {
  65              		.loc 1 749 5 discriminator 1
  66 007a 488B45E0 		movq	-32(%rbp), %rax
  67 007e 483B45B8 		cmpq	-72(%rbp), %rax
  68 0082 72BD     		jb	.L3
 756:/home/xingli/share/1205tiny/network/dtls/mbedtls/mbedtls-2.16.2/include/mbedtls/ssl_internal.h ****     }
 757:/home/xingli/share/1205tiny/network/dtls/mbedtls/mbedtls-2.16.2/include/mbedtls/ssl_internal.h **** 
 758:/home/xingli/share/1205tiny/network/dtls/mbedtls/mbedtls-2.16.2/include/mbedtls/ssl_internal.h ****     return( diff );
  69              		.loc 1 758 11
  70 0084 0FB645DD 		movzbl	-35(%rbp), %eax
  71 0088 0FB6C0   		movzbl	%al, %eax
 759:/home/xingli/share/1205tiny/network/dtls/mbedtls/mbedtls-2.16.2/include/mbedtls/ssl_internal.h **** }
  72              		.loc 1 759 1
  73 008b 488B4DF8 		movq	-8(%rbp), %rcx
  74 008f 6448330C 		xorq	%fs:40, %rcx
  74      25280000 
  74      00
  75 0098 7405     		je	.L5
  76 009a E8000000 		call	__stack_chk_fail@PLT
  76      00
  77              	.L5:
  78 009f C9       		leave
  79              	.LCFI2:
  80              		.cfi_def_cfa 7, 8
  81 00a0 C3       		ret
  82              		.cfi_endproc
  83              	.LFE26:
  85              		.section	.text.mbedtls_ssl_cookie_init,"ax",@progbits
  86              		.globl	mbedtls_ssl_cookie_init
  88              	mbedtls_ssl_cookie_init:
  89              	.LFB27:
  90              		.file 2 "/home/xingli/share/1205tiny/network/dtls/mbedtls/mbedtls-2.16.2/library/ssl_cookie.c"
GAS LISTING /tmp/ccSYGV05.s 			page 16


   1:/home/xingli/share/1205tiny/network/dtls/mbedtls/mbedtls-2.16.2/library/ssl_cookie.c **** /*
   2:/home/xingli/share/1205tiny/network/dtls/mbedtls/mbedtls-2.16.2/library/ssl_cookie.c ****  *  DTLS cookie callbacks implementation
   3:/home/xingli/share/1205tiny/network/dtls/mbedtls/mbedtls-2.16.2/library/ssl_cookie.c ****  *
   4:/home/xingli/share/1205tiny/network/dtls/mbedtls/mbedtls-2.16.2/library/ssl_cookie.c ****  *  Copyright (C) 2006-2015, ARM Limited, All Rights Reserved
   5:/home/xingli/share/1205tiny/network/dtls/mbedtls/mbedtls-2.16.2/library/ssl_cookie.c ****  *  SPDX-License-Identifier: Apache-2.0
   6:/home/xingli/share/1205tiny/network/dtls/mbedtls/mbedtls-2.16.2/library/ssl_cookie.c ****  *
   7:/home/xingli/share/1205tiny/network/dtls/mbedtls/mbedtls-2.16.2/library/ssl_cookie.c ****  *  Licensed under the Apache License, Version 2.0 (the "License"); you may
   8:/home/xingli/share/1205tiny/network/dtls/mbedtls/mbedtls-2.16.2/library/ssl_cookie.c ****  *  not use this file except in compliance with the License.
   9:/home/xingli/share/1205tiny/network/dtls/mbedtls/mbedtls-2.16.2/library/ssl_cookie.c ****  *  You may obtain a copy of the License at
  10:/home/xingli/share/1205tiny/network/dtls/mbedtls/mbedtls-2.16.2/library/ssl_cookie.c ****  *
  11:/home/xingli/share/1205tiny/network/dtls/mbedtls/mbedtls-2.16.2/library/ssl_cookie.c ****  *  http://www.apache.org/licenses/LICENSE-2.0
  12:/home/xingli/share/1205tiny/network/dtls/mbedtls/mbedtls-2.16.2/library/ssl_cookie.c ****  *
  13:/home/xingli/share/1205tiny/network/dtls/mbedtls/mbedtls-2.16.2/library/ssl_cookie.c ****  *  Unless required by applicable law or agreed to in writing, software
  14:/home/xingli/share/1205tiny/network/dtls/mbedtls/mbedtls-2.16.2/library/ssl_cookie.c ****  *  distributed under the License is distributed on an "AS IS" BASIS, WITHOUT
  15:/home/xingli/share/1205tiny/network/dtls/mbedtls/mbedtls-2.16.2/library/ssl_cookie.c ****  *  WARRANTIES OR CONDITIONS OF ANY KIND, either express or implied.
  16:/home/xingli/share/1205tiny/network/dtls/mbedtls/mbedtls-2.16.2/library/ssl_cookie.c ****  *  See the License for the specific language governing permissions and
  17:/home/xingli/share/1205tiny/network/dtls/mbedtls/mbedtls-2.16.2/library/ssl_cookie.c ****  *  limitations under the License.
  18:/home/xingli/share/1205tiny/network/dtls/mbedtls/mbedtls-2.16.2/library/ssl_cookie.c ****  *
  19:/home/xingli/share/1205tiny/network/dtls/mbedtls/mbedtls-2.16.2/library/ssl_cookie.c ****  *  This file is part of mbed TLS (https://tls.mbed.org)
  20:/home/xingli/share/1205tiny/network/dtls/mbedtls/mbedtls-2.16.2/library/ssl_cookie.c ****  */
  21:/home/xingli/share/1205tiny/network/dtls/mbedtls/mbedtls-2.16.2/library/ssl_cookie.c **** /*
  22:/home/xingli/share/1205tiny/network/dtls/mbedtls/mbedtls-2.16.2/library/ssl_cookie.c ****  * These session callbacks use a simple chained list
  23:/home/xingli/share/1205tiny/network/dtls/mbedtls/mbedtls-2.16.2/library/ssl_cookie.c ****  * to store and retrieve the session information.
  24:/home/xingli/share/1205tiny/network/dtls/mbedtls/mbedtls-2.16.2/library/ssl_cookie.c ****  */
  25:/home/xingli/share/1205tiny/network/dtls/mbedtls/mbedtls-2.16.2/library/ssl_cookie.c **** 
  26:/home/xingli/share/1205tiny/network/dtls/mbedtls/mbedtls-2.16.2/library/ssl_cookie.c **** #if !defined(MBEDTLS_CONFIG_FILE)
  27:/home/xingli/share/1205tiny/network/dtls/mbedtls/mbedtls-2.16.2/library/ssl_cookie.c **** #include "mbedtls/config.h"
  28:/home/xingli/share/1205tiny/network/dtls/mbedtls/mbedtls-2.16.2/library/ssl_cookie.c **** #else
  29:/home/xingli/share/1205tiny/network/dtls/mbedtls/mbedtls-2.16.2/library/ssl_cookie.c **** #include MBEDTLS_CONFIG_FILE
  30:/home/xingli/share/1205tiny/network/dtls/mbedtls/mbedtls-2.16.2/library/ssl_cookie.c **** #endif
  31:/home/xingli/share/1205tiny/network/dtls/mbedtls/mbedtls-2.16.2/library/ssl_cookie.c **** 
  32:/home/xingli/share/1205tiny/network/dtls/mbedtls/mbedtls-2.16.2/library/ssl_cookie.c **** #if defined(MBEDTLS_SSL_COOKIE_C)
  33:/home/xingli/share/1205tiny/network/dtls/mbedtls/mbedtls-2.16.2/library/ssl_cookie.c **** 
  34:/home/xingli/share/1205tiny/network/dtls/mbedtls/mbedtls-2.16.2/library/ssl_cookie.c **** #if defined(MBEDTLS_PLATFORM_C)
  35:/home/xingli/share/1205tiny/network/dtls/mbedtls/mbedtls-2.16.2/library/ssl_cookie.c **** #include "mbedtls/platform.h"
  36:/home/xingli/share/1205tiny/network/dtls/mbedtls/mbedtls-2.16.2/library/ssl_cookie.c **** #else
  37:/home/xingli/share/1205tiny/network/dtls/mbedtls/mbedtls-2.16.2/library/ssl_cookie.c **** #define mbedtls_calloc    calloc
  38:/home/xingli/share/1205tiny/network/dtls/mbedtls/mbedtls-2.16.2/library/ssl_cookie.c **** #define mbedtls_free      free
  39:/home/xingli/share/1205tiny/network/dtls/mbedtls/mbedtls-2.16.2/library/ssl_cookie.c **** #endif
  40:/home/xingli/share/1205tiny/network/dtls/mbedtls/mbedtls-2.16.2/library/ssl_cookie.c **** 
  41:/home/xingli/share/1205tiny/network/dtls/mbedtls/mbedtls-2.16.2/library/ssl_cookie.c **** #include "mbedtls/ssl_cookie.h"
  42:/home/xingli/share/1205tiny/network/dtls/mbedtls/mbedtls-2.16.2/library/ssl_cookie.c **** #include "mbedtls/ssl_internal.h"
  43:/home/xingli/share/1205tiny/network/dtls/mbedtls/mbedtls-2.16.2/library/ssl_cookie.c **** #include "mbedtls/platform_util.h"
  44:/home/xingli/share/1205tiny/network/dtls/mbedtls/mbedtls-2.16.2/library/ssl_cookie.c **** 
  45:/home/xingli/share/1205tiny/network/dtls/mbedtls/mbedtls-2.16.2/library/ssl_cookie.c **** #include <string.h>
  46:/home/xingli/share/1205tiny/network/dtls/mbedtls/mbedtls-2.16.2/library/ssl_cookie.c **** 
  47:/home/xingli/share/1205tiny/network/dtls/mbedtls/mbedtls-2.16.2/library/ssl_cookie.c **** /*
  48:/home/xingli/share/1205tiny/network/dtls/mbedtls/mbedtls-2.16.2/library/ssl_cookie.c ****  * If DTLS is in use, then at least one of SHA-1, SHA-256, SHA-512 is
  49:/home/xingli/share/1205tiny/network/dtls/mbedtls/mbedtls-2.16.2/library/ssl_cookie.c ****  * available. Try SHA-256 first, 512 wastes resources since we need to stay
  50:/home/xingli/share/1205tiny/network/dtls/mbedtls/mbedtls-2.16.2/library/ssl_cookie.c ****  * with max 32 bytes of cookie for DTLS 1.0
  51:/home/xingli/share/1205tiny/network/dtls/mbedtls/mbedtls-2.16.2/library/ssl_cookie.c ****  */
  52:/home/xingli/share/1205tiny/network/dtls/mbedtls/mbedtls-2.16.2/library/ssl_cookie.c **** #if defined(MBEDTLS_SHA256_C)
  53:/home/xingli/share/1205tiny/network/dtls/mbedtls/mbedtls-2.16.2/library/ssl_cookie.c **** #define COOKIE_MD           MBEDTLS_MD_SHA224
  54:/home/xingli/share/1205tiny/network/dtls/mbedtls/mbedtls-2.16.2/library/ssl_cookie.c **** #define COOKIE_MD_OUTLEN    32
  55:/home/xingli/share/1205tiny/network/dtls/mbedtls/mbedtls-2.16.2/library/ssl_cookie.c **** #define COOKIE_HMAC_LEN     28
  56:/home/xingli/share/1205tiny/network/dtls/mbedtls/mbedtls-2.16.2/library/ssl_cookie.c **** #elif defined(MBEDTLS_SHA512_C)
  57:/home/xingli/share/1205tiny/network/dtls/mbedtls/mbedtls-2.16.2/library/ssl_cookie.c **** #define COOKIE_MD           MBEDTLS_MD_SHA384
GAS LISTING /tmp/ccSYGV05.s 			page 17


  58:/home/xingli/share/1205tiny/network/dtls/mbedtls/mbedtls-2.16.2/library/ssl_cookie.c **** #define COOKIE_MD_OUTLEN    48
  59:/home/xingli/share/1205tiny/network/dtls/mbedtls/mbedtls-2.16.2/library/ssl_cookie.c **** #define COOKIE_HMAC_LEN     28
  60:/home/xingli/share/1205tiny/network/dtls/mbedtls/mbedtls-2.16.2/library/ssl_cookie.c **** #elif defined(MBEDTLS_SHA1_C)
  61:/home/xingli/share/1205tiny/network/dtls/mbedtls/mbedtls-2.16.2/library/ssl_cookie.c **** #define COOKIE_MD           MBEDTLS_MD_SHA1
  62:/home/xingli/share/1205tiny/network/dtls/mbedtls/mbedtls-2.16.2/library/ssl_cookie.c **** #define COOKIE_MD_OUTLEN    20
  63:/home/xingli/share/1205tiny/network/dtls/mbedtls/mbedtls-2.16.2/library/ssl_cookie.c **** #define COOKIE_HMAC_LEN     20
  64:/home/xingli/share/1205tiny/network/dtls/mbedtls/mbedtls-2.16.2/library/ssl_cookie.c **** #else
  65:/home/xingli/share/1205tiny/network/dtls/mbedtls/mbedtls-2.16.2/library/ssl_cookie.c **** #error "DTLS hello verify needs SHA-1 or SHA-2"
  66:/home/xingli/share/1205tiny/network/dtls/mbedtls/mbedtls-2.16.2/library/ssl_cookie.c **** #endif
  67:/home/xingli/share/1205tiny/network/dtls/mbedtls/mbedtls-2.16.2/library/ssl_cookie.c **** 
  68:/home/xingli/share/1205tiny/network/dtls/mbedtls/mbedtls-2.16.2/library/ssl_cookie.c **** /*
  69:/home/xingli/share/1205tiny/network/dtls/mbedtls/mbedtls-2.16.2/library/ssl_cookie.c ****  * Cookies are formed of a 4-bytes timestamp (or serial number) and
  70:/home/xingli/share/1205tiny/network/dtls/mbedtls/mbedtls-2.16.2/library/ssl_cookie.c ****  * an HMAC of timestemp and client ID.
  71:/home/xingli/share/1205tiny/network/dtls/mbedtls/mbedtls-2.16.2/library/ssl_cookie.c ****  */
  72:/home/xingli/share/1205tiny/network/dtls/mbedtls/mbedtls-2.16.2/library/ssl_cookie.c **** #define COOKIE_LEN      ( 4 + COOKIE_HMAC_LEN )
  73:/home/xingli/share/1205tiny/network/dtls/mbedtls/mbedtls-2.16.2/library/ssl_cookie.c **** 
  74:/home/xingli/share/1205tiny/network/dtls/mbedtls/mbedtls-2.16.2/library/ssl_cookie.c **** void mbedtls_ssl_cookie_init( mbedtls_ssl_cookie_ctx *ctx )
  75:/home/xingli/share/1205tiny/network/dtls/mbedtls/mbedtls-2.16.2/library/ssl_cookie.c **** {
  91              		.loc 2 75 1
  92              		.cfi_startproc
  93 0000 F30F1EFA 		endbr64
  94 0004 55       		pushq	%rbp
  95              	.LCFI3:
  96              		.cfi_def_cfa_offset 16
  97              		.cfi_offset 6, -16
  98 0005 4889E5   		movq	%rsp, %rbp
  99              	.LCFI4:
 100              		.cfi_def_cfa_register 6
 101 0008 4883EC20 		subq	$32, %rsp
 102 000c 48897DE8 		movq	%rdi, -24(%rbp)
 103              		.loc 2 75 1
 104 0010 64488B04 		movq	%fs:40, %rax
 104      25280000 
 104      00
 105 0019 488945F8 		movq	%rax, -8(%rbp)
 106 001d 31C0     		xorl	%eax, %eax
  76:/home/xingli/share/1205tiny/network/dtls/mbedtls/mbedtls-2.16.2/library/ssl_cookie.c ****     mbedtls_md_init( &ctx->hmac_ctx );
 107              		.loc 2 76 5
 108 001f 488B45E8 		movq	-24(%rbp), %rax
 109 0023 4889C7   		movq	%rax, %rdi
 110 0026 E8000000 		call	mbedtls_md_init@PLT
 110      00
  77:/home/xingli/share/1205tiny/network/dtls/mbedtls/mbedtls-2.16.2/library/ssl_cookie.c **** #if !defined(MBEDTLS_HAVE_TIME)
  78:/home/xingli/share/1205tiny/network/dtls/mbedtls/mbedtls-2.16.2/library/ssl_cookie.c ****     ctx->serial = 0;
 111              		.loc 2 78 17
 112 002b 488B45E8 		movq	-24(%rbp), %rax
 113 002f 48C74018 		movq	$0, 24(%rax)
 113      00000000 
  79:/home/xingli/share/1205tiny/network/dtls/mbedtls/mbedtls-2.16.2/library/ssl_cookie.c **** #endif
  80:/home/xingli/share/1205tiny/network/dtls/mbedtls/mbedtls-2.16.2/library/ssl_cookie.c ****     ctx->timeout = MBEDTLS_SSL_COOKIE_TIMEOUT;
 114              		.loc 2 80 18
 115 0037 488B45E8 		movq	-24(%rbp), %rax
 116 003b 48C74020 		movq	$60, 32(%rax)
 116      3C000000 
  81:/home/xingli/share/1205tiny/network/dtls/mbedtls/mbedtls-2.16.2/library/ssl_cookie.c **** 
  82:/home/xingli/share/1205tiny/network/dtls/mbedtls/mbedtls-2.16.2/library/ssl_cookie.c **** #if defined(MBEDTLS_THREADING_C)
  83:/home/xingli/share/1205tiny/network/dtls/mbedtls/mbedtls-2.16.2/library/ssl_cookie.c ****     mbedtls_mutex_init( &ctx->mutex );
GAS LISTING /tmp/ccSYGV05.s 			page 18


  84:/home/xingli/share/1205tiny/network/dtls/mbedtls/mbedtls-2.16.2/library/ssl_cookie.c **** #endif
  85:/home/xingli/share/1205tiny/network/dtls/mbedtls/mbedtls-2.16.2/library/ssl_cookie.c **** }
 117              		.loc 2 85 1
 118 0043 90       		nop
 119 0044 488B45F8 		movq	-8(%rbp), %rax
 120 0048 64483304 		xorq	%fs:40, %rax
 120      25280000 
 120      00
 121 0051 7405     		je	.L7
 122 0053 E8000000 		call	__stack_chk_fail@PLT
 122      00
 123              	.L7:
 124 0058 C9       		leave
 125              	.LCFI5:
 126              		.cfi_def_cfa 7, 8
 127 0059 C3       		ret
 128              		.cfi_endproc
 129              	.LFE27:
 131              		.section	.text.mbedtls_ssl_cookie_set_timeout,"ax",@progbits
 132              		.globl	mbedtls_ssl_cookie_set_timeout
 134              	mbedtls_ssl_cookie_set_timeout:
 135              	.LFB28:
  86:/home/xingli/share/1205tiny/network/dtls/mbedtls/mbedtls-2.16.2/library/ssl_cookie.c **** 
  87:/home/xingli/share/1205tiny/network/dtls/mbedtls/mbedtls-2.16.2/library/ssl_cookie.c **** void mbedtls_ssl_cookie_set_timeout( mbedtls_ssl_cookie_ctx *ctx, unsigned long delay )
  88:/home/xingli/share/1205tiny/network/dtls/mbedtls/mbedtls-2.16.2/library/ssl_cookie.c **** {
 136              		.loc 2 88 1
 137              		.cfi_startproc
 138 0000 F30F1EFA 		endbr64
 139 0004 55       		pushq	%rbp
 140              	.LCFI6:
 141              		.cfi_def_cfa_offset 16
 142              		.cfi_offset 6, -16
 143 0005 4889E5   		movq	%rsp, %rbp
 144              	.LCFI7:
 145              		.cfi_def_cfa_register 6
 146 0008 4883EC20 		subq	$32, %rsp
 147 000c 48897DE8 		movq	%rdi, -24(%rbp)
 148 0010 488975E0 		movq	%rsi, -32(%rbp)
 149              		.loc 2 88 1
 150 0014 64488B04 		movq	%fs:40, %rax
 150      25280000 
 150      00
 151 001d 488945F8 		movq	%rax, -8(%rbp)
 152 0021 31C0     		xorl	%eax, %eax
  89:/home/xingli/share/1205tiny/network/dtls/mbedtls/mbedtls-2.16.2/library/ssl_cookie.c ****     ctx->timeout = delay;
 153              		.loc 2 89 18
 154 0023 488B45E8 		movq	-24(%rbp), %rax
 155 0027 488B55E0 		movq	-32(%rbp), %rdx
 156 002b 48895020 		movq	%rdx, 32(%rax)
  90:/home/xingli/share/1205tiny/network/dtls/mbedtls/mbedtls-2.16.2/library/ssl_cookie.c **** }
 157              		.loc 2 90 1
 158 002f 90       		nop
 159 0030 488B45F8 		movq	-8(%rbp), %rax
 160 0034 64483304 		xorq	%fs:40, %rax
 160      25280000 
 160      00
 161 003d 7405     		je	.L9
GAS LISTING /tmp/ccSYGV05.s 			page 19


 162 003f E8000000 		call	__stack_chk_fail@PLT
 162      00
 163              	.L9:
 164 0044 C9       		leave
 165              	.LCFI8:
 166              		.cfi_def_cfa 7, 8
 167 0045 C3       		ret
 168              		.cfi_endproc
 169              	.LFE28:
 171              		.section	.text.mbedtls_ssl_cookie_free,"ax",@progbits
 172              		.globl	mbedtls_ssl_cookie_free
 174              	mbedtls_ssl_cookie_free:
 175              	.LFB29:
  91:/home/xingli/share/1205tiny/network/dtls/mbedtls/mbedtls-2.16.2/library/ssl_cookie.c **** 
  92:/home/xingli/share/1205tiny/network/dtls/mbedtls/mbedtls-2.16.2/library/ssl_cookie.c **** void mbedtls_ssl_cookie_free( mbedtls_ssl_cookie_ctx *ctx )
  93:/home/xingli/share/1205tiny/network/dtls/mbedtls/mbedtls-2.16.2/library/ssl_cookie.c **** {
 176              		.loc 2 93 1
 177              		.cfi_startproc
 178 0000 F30F1EFA 		endbr64
 179 0004 55       		pushq	%rbp
 180              	.LCFI9:
 181              		.cfi_def_cfa_offset 16
 182              		.cfi_offset 6, -16
 183 0005 4889E5   		movq	%rsp, %rbp
 184              	.LCFI10:
 185              		.cfi_def_cfa_register 6
 186 0008 4883EC20 		subq	$32, %rsp
 187 000c 48897DE8 		movq	%rdi, -24(%rbp)
 188              		.loc 2 93 1
 189 0010 64488B04 		movq	%fs:40, %rax
 189      25280000 
 189      00
 190 0019 488945F8 		movq	%rax, -8(%rbp)
 191 001d 31C0     		xorl	%eax, %eax
  94:/home/xingli/share/1205tiny/network/dtls/mbedtls/mbedtls-2.16.2/library/ssl_cookie.c ****     mbedtls_md_free( &ctx->hmac_ctx );
 192              		.loc 2 94 5
 193 001f 488B45E8 		movq	-24(%rbp), %rax
 194 0023 4889C7   		movq	%rax, %rdi
 195 0026 E8000000 		call	mbedtls_md_free@PLT
 195      00
  95:/home/xingli/share/1205tiny/network/dtls/mbedtls/mbedtls-2.16.2/library/ssl_cookie.c **** 
  96:/home/xingli/share/1205tiny/network/dtls/mbedtls/mbedtls-2.16.2/library/ssl_cookie.c **** #if defined(MBEDTLS_THREADING_C)
  97:/home/xingli/share/1205tiny/network/dtls/mbedtls/mbedtls-2.16.2/library/ssl_cookie.c ****     mbedtls_mutex_free( &ctx->mutex );
  98:/home/xingli/share/1205tiny/network/dtls/mbedtls/mbedtls-2.16.2/library/ssl_cookie.c **** #endif
  99:/home/xingli/share/1205tiny/network/dtls/mbedtls/mbedtls-2.16.2/library/ssl_cookie.c **** 
 100:/home/xingli/share/1205tiny/network/dtls/mbedtls/mbedtls-2.16.2/library/ssl_cookie.c ****     mbedtls_platform_zeroize( ctx, sizeof( mbedtls_ssl_cookie_ctx ) );
 196              		.loc 2 100 5
 197 002b 488B45E8 		movq	-24(%rbp), %rax
 198 002f BE280000 		movl	$40, %esi
 198      00
 199 0034 4889C7   		movq	%rax, %rdi
 200 0037 E8000000 		call	mbedtls_platform_zeroize@PLT
 200      00
 101:/home/xingli/share/1205tiny/network/dtls/mbedtls/mbedtls-2.16.2/library/ssl_cookie.c **** }
 201              		.loc 2 101 1
 202 003c 90       		nop
 203 003d 488B45F8 		movq	-8(%rbp), %rax
GAS LISTING /tmp/ccSYGV05.s 			page 20


 204 0041 64483304 		xorq	%fs:40, %rax
 204      25280000 
 204      00
 205 004a 7405     		je	.L11
 206 004c E8000000 		call	__stack_chk_fail@PLT
 206      00
 207              	.L11:
 208 0051 C9       		leave
 209              	.LCFI11:
 210              		.cfi_def_cfa 7, 8
 211 0052 C3       		ret
 212              		.cfi_endproc
 213              	.LFE29:
 215              		.section	.text.mbedtls_ssl_cookie_setup,"ax",@progbits
 216              		.globl	mbedtls_ssl_cookie_setup
 218              	mbedtls_ssl_cookie_setup:
 219              	.LFB30:
 102:/home/xingli/share/1205tiny/network/dtls/mbedtls/mbedtls-2.16.2/library/ssl_cookie.c **** 
 103:/home/xingli/share/1205tiny/network/dtls/mbedtls/mbedtls-2.16.2/library/ssl_cookie.c **** int mbedtls_ssl_cookie_setup( mbedtls_ssl_cookie_ctx *ctx,
 104:/home/xingli/share/1205tiny/network/dtls/mbedtls/mbedtls-2.16.2/library/ssl_cookie.c ****                       int (*f_rng)(void *, unsigned char *, size_t),
 105:/home/xingli/share/1205tiny/network/dtls/mbedtls/mbedtls-2.16.2/library/ssl_cookie.c ****                       void *p_rng )
 106:/home/xingli/share/1205tiny/network/dtls/mbedtls/mbedtls-2.16.2/library/ssl_cookie.c **** {
 220              		.loc 2 106 1
 221              		.cfi_startproc
 222 0000 F30F1EFA 		endbr64
 223 0004 55       		pushq	%rbp
 224              	.LCFI12:
 225              		.cfi_def_cfa_offset 16
 226              		.cfi_offset 6, -16
 227 0005 4889E5   		movq	%rsp, %rbp
 228              	.LCFI13:
 229              		.cfi_def_cfa_register 6
 230 0008 4883EC60 		subq	$96, %rsp
 231 000c 48897DB8 		movq	%rdi, -72(%rbp)
 232 0010 488975B0 		movq	%rsi, -80(%rbp)
 233 0014 488955A8 		movq	%rdx, -88(%rbp)
 234              		.loc 2 106 1
 235 0018 64488B04 		movq	%fs:40, %rax
 235      25280000 
 235      00
 236 0021 488945F8 		movq	%rax, -8(%rbp)
 237 0025 31C0     		xorl	%eax, %eax
 107:/home/xingli/share/1205tiny/network/dtls/mbedtls/mbedtls-2.16.2/library/ssl_cookie.c ****     int ret;
 108:/home/xingli/share/1205tiny/network/dtls/mbedtls/mbedtls-2.16.2/library/ssl_cookie.c ****     unsigned char key[COOKIE_MD_OUTLEN];
 109:/home/xingli/share/1205tiny/network/dtls/mbedtls/mbedtls-2.16.2/library/ssl_cookie.c **** 
 110:/home/xingli/share/1205tiny/network/dtls/mbedtls/mbedtls-2.16.2/library/ssl_cookie.c ****     if( ( ret = f_rng( p_rng, key, sizeof( key ) ) ) != 0 )
 238              		.loc 2 110 17
 239 0027 488D4DD0 		leaq	-48(%rbp), %rcx
 240 002b 488B45A8 		movq	-88(%rbp), %rax
 241 002f 4C8B45B0 		movq	-80(%rbp), %r8
 242 0033 BA200000 		movl	$32, %edx
 242      00
 243 0038 4889CE   		movq	%rcx, %rsi
 244 003b 4889C7   		movq	%rax, %rdi
 245 003e 41FFD0   		call	*%r8
 246              	.LVL0:
 247 0041 8945CC   		movl	%eax, -52(%rbp)
GAS LISTING /tmp/ccSYGV05.s 			page 21


 248              		.loc 2 110 7
 249 0044 837DCC00 		cmpl	$0, -52(%rbp)
 250 0048 7405     		je	.L13
 111:/home/xingli/share/1205tiny/network/dtls/mbedtls/mbedtls-2.16.2/library/ssl_cookie.c ****         return( ret );
 251              		.loc 2 111 15
 252 004a 8B45CC   		movl	-52(%rbp), %eax
 253 004d EB6B     		jmp	.L17
 254              	.L13:
 112:/home/xingli/share/1205tiny/network/dtls/mbedtls/mbedtls-2.16.2/library/ssl_cookie.c **** 
 113:/home/xingli/share/1205tiny/network/dtls/mbedtls/mbedtls-2.16.2/library/ssl_cookie.c ****     ret = mbedtls_md_setup( &ctx->hmac_ctx, mbedtls_md_info_from_type( COOKIE_MD ), 1 );
 255              		.loc 2 113 11
 256 004f BF050000 		movl	$5, %edi
 256      00
 257 0054 E8000000 		call	mbedtls_md_info_from_type@PLT
 257      00
 258 0059 4889C1   		movq	%rax, %rcx
 259 005c 488B45B8 		movq	-72(%rbp), %rax
 260 0060 BA010000 		movl	$1, %edx
 260      00
 261 0065 4889CE   		movq	%rcx, %rsi
 262 0068 4889C7   		movq	%rax, %rdi
 263 006b E8000000 		call	mbedtls_md_setup@PLT
 263      00
 264 0070 8945CC   		movl	%eax, -52(%rbp)
 114:/home/xingli/share/1205tiny/network/dtls/mbedtls/mbedtls-2.16.2/library/ssl_cookie.c ****     if( ret != 0 )
 265              		.loc 2 114 7
 266 0073 837DCC00 		cmpl	$0, -52(%rbp)
 267 0077 7405     		je	.L15
 115:/home/xingli/share/1205tiny/network/dtls/mbedtls/mbedtls-2.16.2/library/ssl_cookie.c ****         return( ret );
 268              		.loc 2 115 15
 269 0079 8B45CC   		movl	-52(%rbp), %eax
 270 007c EB3C     		jmp	.L17
 271              	.L15:
 116:/home/xingli/share/1205tiny/network/dtls/mbedtls/mbedtls-2.16.2/library/ssl_cookie.c **** 
 117:/home/xingli/share/1205tiny/network/dtls/mbedtls/mbedtls-2.16.2/library/ssl_cookie.c ****     ret = mbedtls_md_hmac_starts( &ctx->hmac_ctx, key, sizeof( key ) );
 272              		.loc 2 117 11
 273 007e 488B45B8 		movq	-72(%rbp), %rax
 274 0082 488D4DD0 		leaq	-48(%rbp), %rcx
 275 0086 BA200000 		movl	$32, %edx
 275      00
 276 008b 4889CE   		movq	%rcx, %rsi
 277 008e 4889C7   		movq	%rax, %rdi
 278 0091 E8000000 		call	mbedtls_md_hmac_starts@PLT
 278      00
 279 0096 8945CC   		movl	%eax, -52(%rbp)
 118:/home/xingli/share/1205tiny/network/dtls/mbedtls/mbedtls-2.16.2/library/ssl_cookie.c ****     if( ret != 0 )
 280              		.loc 2 118 7
 281 0099 837DCC00 		cmpl	$0, -52(%rbp)
 282 009d 7405     		je	.L16
 119:/home/xingli/share/1205tiny/network/dtls/mbedtls/mbedtls-2.16.2/library/ssl_cookie.c ****         return( ret );
 283              		.loc 2 119 15
 284 009f 8B45CC   		movl	-52(%rbp), %eax
 285 00a2 EB16     		jmp	.L17
 286              	.L16:
 120:/home/xingli/share/1205tiny/network/dtls/mbedtls/mbedtls-2.16.2/library/ssl_cookie.c **** 
 121:/home/xingli/share/1205tiny/network/dtls/mbedtls/mbedtls-2.16.2/library/ssl_cookie.c ****     mbedtls_platform_zeroize( key, sizeof( key ) );
 287              		.loc 2 121 5
GAS LISTING /tmp/ccSYGV05.s 			page 22


 288 00a4 488D45D0 		leaq	-48(%rbp), %rax
 289 00a8 BE200000 		movl	$32, %esi
 289      00
 290 00ad 4889C7   		movq	%rax, %rdi
 291 00b0 E8000000 		call	mbedtls_platform_zeroize@PLT
 291      00
 122:/home/xingli/share/1205tiny/network/dtls/mbedtls/mbedtls-2.16.2/library/ssl_cookie.c **** 
 123:/home/xingli/share/1205tiny/network/dtls/mbedtls/mbedtls-2.16.2/library/ssl_cookie.c ****     return( 0 );
 292              		.loc 2 123 11
 293 00b5 B8000000 		movl	$0, %eax
 293      00
 294              	.L17:
 124:/home/xingli/share/1205tiny/network/dtls/mbedtls/mbedtls-2.16.2/library/ssl_cookie.c **** }
 295              		.loc 2 124 1 discriminator 1
 296 00ba 488B55F8 		movq	-8(%rbp), %rdx
 297 00be 64483314 		xorq	%fs:40, %rdx
 297      25280000 
 297      00
 298 00c7 7405     		je	.L18
 299              		.loc 2 124 1 is_stmt 0
 300 00c9 E8000000 		call	__stack_chk_fail@PLT
 300      00
 301              	.L18:
 302 00ce C9       		leave
 303              	.LCFI14:
 304              		.cfi_def_cfa 7, 8
 305 00cf C3       		ret
 306              		.cfi_endproc
 307              	.LFE30:
 309              		.section	.text.ssl_cookie_hmac,"ax",@progbits
 311              	ssl_cookie_hmac:
 312              	.LFB31:
 125:/home/xingli/share/1205tiny/network/dtls/mbedtls/mbedtls-2.16.2/library/ssl_cookie.c **** 
 126:/home/xingli/share/1205tiny/network/dtls/mbedtls/mbedtls-2.16.2/library/ssl_cookie.c **** /*
 127:/home/xingli/share/1205tiny/network/dtls/mbedtls/mbedtls-2.16.2/library/ssl_cookie.c ****  * Generate the HMAC part of a cookie
 128:/home/xingli/share/1205tiny/network/dtls/mbedtls/mbedtls-2.16.2/library/ssl_cookie.c ****  */
 129:/home/xingli/share/1205tiny/network/dtls/mbedtls/mbedtls-2.16.2/library/ssl_cookie.c **** static int ssl_cookie_hmac( mbedtls_md_context_t *hmac_ctx,
 130:/home/xingli/share/1205tiny/network/dtls/mbedtls/mbedtls-2.16.2/library/ssl_cookie.c ****                             const unsigned char time[4],
 131:/home/xingli/share/1205tiny/network/dtls/mbedtls/mbedtls-2.16.2/library/ssl_cookie.c ****                             unsigned char **p, unsigned char *end,
 132:/home/xingli/share/1205tiny/network/dtls/mbedtls/mbedtls-2.16.2/library/ssl_cookie.c ****                             const unsigned char *cli_id, size_t cli_id_len )
 133:/home/xingli/share/1205tiny/network/dtls/mbedtls/mbedtls-2.16.2/library/ssl_cookie.c **** {
 313              		.loc 2 133 1 is_stmt 1
 314              		.cfi_startproc
 315 0000 F30F1EFA 		endbr64
 316 0004 55       		pushq	%rbp
 317              	.LCFI15:
 318              		.cfi_def_cfa_offset 16
 319              		.cfi_offset 6, -16
 320 0005 4889E5   		movq	%rsp, %rbp
 321              	.LCFI16:
 322              		.cfi_def_cfa_register 6
 323 0008 4883EC60 		subq	$96, %rsp
 324 000c 48897DC8 		movq	%rdi, -56(%rbp)
 325 0010 488975C0 		movq	%rsi, -64(%rbp)
 326 0014 488955B8 		movq	%rdx, -72(%rbp)
 327 0018 48894DB0 		movq	%rcx, -80(%rbp)
 328 001c 4C8945A8 		movq	%r8, -88(%rbp)
GAS LISTING /tmp/ccSYGV05.s 			page 23


 329 0020 4C894DA0 		movq	%r9, -96(%rbp)
 330              		.loc 2 133 1
 331 0024 64488B04 		movq	%fs:40, %rax
 331      25280000 
 331      00
 332 002d 488945F8 		movq	%rax, -8(%rbp)
 333 0031 31C0     		xorl	%eax, %eax
 134:/home/xingli/share/1205tiny/network/dtls/mbedtls/mbedtls-2.16.2/library/ssl_cookie.c ****     unsigned char hmac_out[COOKIE_MD_OUTLEN];
 135:/home/xingli/share/1205tiny/network/dtls/mbedtls/mbedtls-2.16.2/library/ssl_cookie.c **** 
 136:/home/xingli/share/1205tiny/network/dtls/mbedtls/mbedtls-2.16.2/library/ssl_cookie.c ****     if( (size_t)( end - *p ) < COOKIE_HMAC_LEN )
 334              		.loc 2 136 25
 335 0033 488B45B8 		movq	-72(%rbp), %rax
 336 0037 488B00   		movq	(%rax), %rax
 337              		.loc 2 136 23
 338 003a 488B55B0 		movq	-80(%rbp), %rdx
 339 003e 4829C2   		subq	%rax, %rdx
 340 0041 4889D0   		movq	%rdx, %rax
 341              		.loc 2 136 7
 342 0044 4883F81B 		cmpq	$27, %rax
 343 0048 770A     		ja	.L20
 137:/home/xingli/share/1205tiny/network/dtls/mbedtls/mbedtls-2.16.2/library/ssl_cookie.c ****         return( MBEDTLS_ERR_SSL_BUFFER_TOO_SMALL );
 344              		.loc 2 137 15
 345 004a B80096FF 		movl	$-27136, %eax
 345      FF
 346 004f E9970000 		jmp	.L24
 346      00
 347              	.L20:
 138:/home/xingli/share/1205tiny/network/dtls/mbedtls/mbedtls-2.16.2/library/ssl_cookie.c **** 
 139:/home/xingli/share/1205tiny/network/dtls/mbedtls/mbedtls-2.16.2/library/ssl_cookie.c ****     if( mbedtls_md_hmac_reset(  hmac_ctx ) != 0 ||
 348              		.loc 2 139 9
 349 0054 488B45C8 		movq	-56(%rbp), %rax
 350 0058 4889C7   		movq	%rax, %rdi
 351 005b E8000000 		call	mbedtls_md_hmac_reset@PLT
 351      00
 352              		.loc 2 139 7
 353 0060 85C0     		testl	%eax, %eax
 354 0062 754E     		jne	.L22
 140:/home/xingli/share/1205tiny/network/dtls/mbedtls/mbedtls-2.16.2/library/ssl_cookie.c ****         mbedtls_md_hmac_update( hmac_ctx, time, 4 ) != 0 ||
 355              		.loc 2 140 9 discriminator 1
 356 0064 488B4DC0 		movq	-64(%rbp), %rcx
 357 0068 488B45C8 		movq	-56(%rbp), %rax
 358 006c BA040000 		movl	$4, %edx
 358      00
 359 0071 4889CE   		movq	%rcx, %rsi
 360 0074 4889C7   		movq	%rax, %rdi
 361 0077 E8000000 		call	mbedtls_md_hmac_update@PLT
 361      00
 139:/home/xingli/share/1205tiny/network/dtls/mbedtls/mbedtls-2.16.2/library/ssl_cookie.c ****         mbedtls_md_hmac_update( hmac_ctx, time, 4 ) != 0 ||
 362              		.loc 2 139 49 discriminator 1
 363 007c 85C0     		testl	%eax, %eax
 364 007e 7532     		jne	.L22
 141:/home/xingli/share/1205tiny/network/dtls/mbedtls/mbedtls-2.16.2/library/ssl_cookie.c ****         mbedtls_md_hmac_update( hmac_ctx, cli_id, cli_id_len ) != 0 ||
 365              		.loc 2 141 9
 366 0080 488B55A0 		movq	-96(%rbp), %rdx
 367 0084 488B4DA8 		movq	-88(%rbp), %rcx
 368 0088 488B45C8 		movq	-56(%rbp), %rax
 369 008c 4889CE   		movq	%rcx, %rsi
GAS LISTING /tmp/ccSYGV05.s 			page 24


 370 008f 4889C7   		movq	%rax, %rdi
 371 0092 E8000000 		call	mbedtls_md_hmac_update@PLT
 371      00
 140:/home/xingli/share/1205tiny/network/dtls/mbedtls/mbedtls-2.16.2/library/ssl_cookie.c ****         mbedtls_md_hmac_update( hmac_ctx, time, 4 ) != 0 ||
 372              		.loc 2 140 58
 373 0097 85C0     		testl	%eax, %eax
 374 0099 7517     		jne	.L22
 142:/home/xingli/share/1205tiny/network/dtls/mbedtls/mbedtls-2.16.2/library/ssl_cookie.c ****         mbedtls_md_hmac_finish( hmac_ctx, hmac_out ) != 0 )
 375              		.loc 2 142 9
 376 009b 488D55D0 		leaq	-48(%rbp), %rdx
 377 009f 488B45C8 		movq	-56(%rbp), %rax
 378 00a3 4889D6   		movq	%rdx, %rsi
 379 00a6 4889C7   		movq	%rax, %rdi
 380 00a9 E8000000 		call	mbedtls_md_hmac_finish@PLT
 380      00
 141:/home/xingli/share/1205tiny/network/dtls/mbedtls/mbedtls-2.16.2/library/ssl_cookie.c ****         mbedtls_md_hmac_update( hmac_ctx, cli_id, cli_id_len ) != 0 ||
 381              		.loc 2 141 69
 382 00ae 85C0     		testl	%eax, %eax
 383 00b0 7407     		je	.L23
 384              	.L22:
 143:/home/xingli/share/1205tiny/network/dtls/mbedtls/mbedtls-2.16.2/library/ssl_cookie.c ****     {
 144:/home/xingli/share/1205tiny/network/dtls/mbedtls/mbedtls-2.16.2/library/ssl_cookie.c ****         return( MBEDTLS_ERR_SSL_INTERNAL_ERROR );
 385              		.loc 2 144 15
 386 00b2 B80094FF 		movl	$-27648, %eax
 386      FF
 387 00b7 EB32     		jmp	.L24
 388              	.L23:
 145:/home/xingli/share/1205tiny/network/dtls/mbedtls/mbedtls-2.16.2/library/ssl_cookie.c ****     }
 146:/home/xingli/share/1205tiny/network/dtls/mbedtls/mbedtls-2.16.2/library/ssl_cookie.c **** 
 147:/home/xingli/share/1205tiny/network/dtls/mbedtls/mbedtls-2.16.2/library/ssl_cookie.c ****     memcpy( *p, hmac_out, COOKIE_HMAC_LEN );
 389              		.loc 2 147 5
 390 00b9 488B45B8 		movq	-72(%rbp), %rax
 391 00bd 488B00   		movq	(%rax), %rax
 392 00c0 488D4DD0 		leaq	-48(%rbp), %rcx
 393 00c4 BA1C0000 		movl	$28, %edx
 393      00
 394 00c9 4889CE   		movq	%rcx, %rsi
 395 00cc 4889C7   		movq	%rax, %rdi
 396 00cf E8000000 		call	memcpy@PLT
 396      00
 148:/home/xingli/share/1205tiny/network/dtls/mbedtls/mbedtls-2.16.2/library/ssl_cookie.c ****     *p += COOKIE_HMAC_LEN;
 397              		.loc 2 148 8
 398 00d4 488B45B8 		movq	-72(%rbp), %rax
 399 00d8 488B00   		movq	(%rax), %rax
 400 00db 488D501C 		leaq	28(%rax), %rdx
 401 00df 488B45B8 		movq	-72(%rbp), %rax
 402 00e3 488910   		movq	%rdx, (%rax)
 149:/home/xingli/share/1205tiny/network/dtls/mbedtls/mbedtls-2.16.2/library/ssl_cookie.c **** 
 150:/home/xingli/share/1205tiny/network/dtls/mbedtls/mbedtls-2.16.2/library/ssl_cookie.c ****     return( 0 );
 403              		.loc 2 150 11
 404 00e6 B8000000 		movl	$0, %eax
 404      00
 405              	.L24:
 151:/home/xingli/share/1205tiny/network/dtls/mbedtls/mbedtls-2.16.2/library/ssl_cookie.c **** }
 406              		.loc 2 151 1 discriminator 1
 407 00eb 488B75F8 		movq	-8(%rbp), %rsi
 408 00ef 64483334 		xorq	%fs:40, %rsi
GAS LISTING /tmp/ccSYGV05.s 			page 25


 408      25280000 
 408      00
 409 00f8 7405     		je	.L25
 410              		.loc 2 151 1 is_stmt 0
 411 00fa E8000000 		call	__stack_chk_fail@PLT
 411      00
 412              	.L25:
 413 00ff C9       		leave
 414              	.LCFI17:
 415              		.cfi_def_cfa 7, 8
 416 0100 C3       		ret
 417              		.cfi_endproc
 418              	.LFE31:
 420              		.section	.text.mbedtls_ssl_cookie_write,"ax",@progbits
 421              		.globl	mbedtls_ssl_cookie_write
 423              	mbedtls_ssl_cookie_write:
 424              	.LFB32:
 152:/home/xingli/share/1205tiny/network/dtls/mbedtls/mbedtls-2.16.2/library/ssl_cookie.c **** 
 153:/home/xingli/share/1205tiny/network/dtls/mbedtls/mbedtls-2.16.2/library/ssl_cookie.c **** /*
 154:/home/xingli/share/1205tiny/network/dtls/mbedtls/mbedtls-2.16.2/library/ssl_cookie.c ****  * Generate cookie for DTLS ClientHello verification
 155:/home/xingli/share/1205tiny/network/dtls/mbedtls/mbedtls-2.16.2/library/ssl_cookie.c ****  */
 156:/home/xingli/share/1205tiny/network/dtls/mbedtls/mbedtls-2.16.2/library/ssl_cookie.c **** int mbedtls_ssl_cookie_write( void *p_ctx,
 157:/home/xingli/share/1205tiny/network/dtls/mbedtls/mbedtls-2.16.2/library/ssl_cookie.c ****                       unsigned char **p, unsigned char *end,
 158:/home/xingli/share/1205tiny/network/dtls/mbedtls/mbedtls-2.16.2/library/ssl_cookie.c ****                       const unsigned char *cli_id, size_t cli_id_len )
 159:/home/xingli/share/1205tiny/network/dtls/mbedtls/mbedtls-2.16.2/library/ssl_cookie.c **** {
 425              		.loc 2 159 1 is_stmt 1
 426              		.cfi_startproc
 427 0000 F30F1EFA 		endbr64
 428 0004 55       		pushq	%rbp
 429              	.LCFI18:
 430              		.cfi_def_cfa_offset 16
 431              		.cfi_offset 6, -16
 432 0005 4889E5   		movq	%rsp, %rbp
 433              	.LCFI19:
 434              		.cfi_def_cfa_register 6
 435 0008 4883EC50 		subq	$80, %rsp
 436 000c 48897DD8 		movq	%rdi, -40(%rbp)
 437 0010 488975D0 		movq	%rsi, -48(%rbp)
 438 0014 488955C8 		movq	%rdx, -56(%rbp)
 439 0018 48894DC0 		movq	%rcx, -64(%rbp)
 440 001c 4C8945B8 		movq	%r8, -72(%rbp)
 441              		.loc 2 159 1
 442 0020 64488B04 		movq	%fs:40, %rax
 442      25280000 
 442      00
 443 0029 488945F8 		movq	%rax, -8(%rbp)
 444 002d 31C0     		xorl	%eax, %eax
 160:/home/xingli/share/1205tiny/network/dtls/mbedtls/mbedtls-2.16.2/library/ssl_cookie.c ****     int ret;
 161:/home/xingli/share/1205tiny/network/dtls/mbedtls/mbedtls-2.16.2/library/ssl_cookie.c ****     mbedtls_ssl_cookie_ctx *ctx = (mbedtls_ssl_cookie_ctx *) p_ctx;
 445              		.loc 2 161 29
 446 002f 488B45D8 		movq	-40(%rbp), %rax
 447 0033 488945E8 		movq	%rax, -24(%rbp)
 162:/home/xingli/share/1205tiny/network/dtls/mbedtls/mbedtls-2.16.2/library/ssl_cookie.c ****     unsigned long t;
 163:/home/xingli/share/1205tiny/network/dtls/mbedtls/mbedtls-2.16.2/library/ssl_cookie.c **** 
 164:/home/xingli/share/1205tiny/network/dtls/mbedtls/mbedtls-2.16.2/library/ssl_cookie.c ****     if( ctx == NULL || cli_id == NULL )
 448              		.loc 2 164 7
 449 0037 48837DE8 		cmpq	$0, -24(%rbp)
GAS LISTING /tmp/ccSYGV05.s 			page 26


 449      00
 450 003c 7407     		je	.L27
 451              		.loc 2 164 21 discriminator 1
 452 003e 48837DC0 		cmpq	$0, -64(%rbp)
 452      00
 453 0043 750A     		jne	.L28
 454              	.L27:
 165:/home/xingli/share/1205tiny/network/dtls/mbedtls/mbedtls-2.16.2/library/ssl_cookie.c ****         return( MBEDTLS_ERR_SSL_BAD_INPUT_DATA );
 455              		.loc 2 165 15
 456 0045 B8008FFF 		movl	$-28928, %eax
 456      FF
 457 004a E9D30000 		jmp	.L29
 457      00
 458              	.L28:
 166:/home/xingli/share/1205tiny/network/dtls/mbedtls/mbedtls-2.16.2/library/ssl_cookie.c **** 
 167:/home/xingli/share/1205tiny/network/dtls/mbedtls/mbedtls-2.16.2/library/ssl_cookie.c ****     if( (size_t)( end - *p ) < COOKIE_LEN )
 459              		.loc 2 167 25
 460 004f 488B45D0 		movq	-48(%rbp), %rax
 461 0053 488B00   		movq	(%rax), %rax
 462              		.loc 2 167 23
 463 0056 488B55C8 		movq	-56(%rbp), %rdx
 464 005a 4829C2   		subq	%rax, %rdx
 465 005d 4889D0   		movq	%rdx, %rax
 466              		.loc 2 167 7
 467 0060 4883F81F 		cmpq	$31, %rax
 468 0064 770A     		ja	.L30
 168:/home/xingli/share/1205tiny/network/dtls/mbedtls/mbedtls-2.16.2/library/ssl_cookie.c ****         return( MBEDTLS_ERR_SSL_BUFFER_TOO_SMALL );
 469              		.loc 2 168 15
 470 0066 B80096FF 		movl	$-27136, %eax
 470      FF
 471 006b E9B20000 		jmp	.L29
 471      00
 472              	.L30:
 169:/home/xingli/share/1205tiny/network/dtls/mbedtls/mbedtls-2.16.2/library/ssl_cookie.c **** 
 170:/home/xingli/share/1205tiny/network/dtls/mbedtls/mbedtls-2.16.2/library/ssl_cookie.c **** #if defined(MBEDTLS_HAVE_TIME)
 171:/home/xingli/share/1205tiny/network/dtls/mbedtls/mbedtls-2.16.2/library/ssl_cookie.c ****     t = (unsigned long) mbedtls_time( NULL );
 172:/home/xingli/share/1205tiny/network/dtls/mbedtls/mbedtls-2.16.2/library/ssl_cookie.c **** #else
 173:/home/xingli/share/1205tiny/network/dtls/mbedtls/mbedtls-2.16.2/library/ssl_cookie.c ****     t = ctx->serial++;
 473              		.loc 2 173 12
 474 0070 488B45E8 		movq	-24(%rbp), %rax
 475 0074 488B4018 		movq	24(%rax), %rax
 476              		.loc 2 173 20
 477 0078 488D4801 		leaq	1(%rax), %rcx
 478 007c 488B55E8 		movq	-24(%rbp), %rdx
 479 0080 48894A18 		movq	%rcx, 24(%rdx)
 480              		.loc 2 173 7
 481 0084 488945F0 		movq	%rax, -16(%rbp)
 174:/home/xingli/share/1205tiny/network/dtls/mbedtls/mbedtls-2.16.2/library/ssl_cookie.c **** #endif
 175:/home/xingli/share/1205tiny/network/dtls/mbedtls/mbedtls-2.16.2/library/ssl_cookie.c **** 
 176:/home/xingli/share/1205tiny/network/dtls/mbedtls/mbedtls-2.16.2/library/ssl_cookie.c ****     (*p)[0] = (unsigned char)( t >> 24 );
 482              		.loc 2 176 34
 483 0088 488B45F0 		movq	-16(%rbp), %rax
 484 008c 48C1E818 		shrq	$24, %rax
 485 0090 4889C2   		movq	%rax, %rdx
 486              		.loc 2 176 6
 487 0093 488B45D0 		movq	-48(%rbp), %rax
 488 0097 488B00   		movq	(%rax), %rax
GAS LISTING /tmp/ccSYGV05.s 			page 27


 489              		.loc 2 176 13
 490 009a 8810     		movb	%dl, (%rax)
 177:/home/xingli/share/1205tiny/network/dtls/mbedtls/mbedtls-2.16.2/library/ssl_cookie.c ****     (*p)[1] = (unsigned char)( t >> 16 );
 491              		.loc 2 177 34
 492 009c 488B45F0 		movq	-16(%rbp), %rax
 493 00a0 48C1E810 		shrq	$16, %rax
 494 00a4 4889C2   		movq	%rax, %rdx
 495              		.loc 2 177 6
 496 00a7 488B45D0 		movq	-48(%rbp), %rax
 497 00ab 488B00   		movq	(%rax), %rax
 498              		.loc 2 177 9
 499 00ae 4883C001 		addq	$1, %rax
 500              		.loc 2 177 13
 501 00b2 8810     		movb	%dl, (%rax)
 178:/home/xingli/share/1205tiny/network/dtls/mbedtls/mbedtls-2.16.2/library/ssl_cookie.c ****     (*p)[2] = (unsigned char)( t >>  8 );
 502              		.loc 2 178 34
 503 00b4 488B45F0 		movq	-16(%rbp), %rax
 504 00b8 48C1E808 		shrq	$8, %rax
 505 00bc 4889C2   		movq	%rax, %rdx
 506              		.loc 2 178 6
 507 00bf 488B45D0 		movq	-48(%rbp), %rax
 508 00c3 488B00   		movq	(%rax), %rax
 509              		.loc 2 178 9
 510 00c6 4883C002 		addq	$2, %rax
 511              		.loc 2 178 13
 512 00ca 8810     		movb	%dl, (%rax)
 179:/home/xingli/share/1205tiny/network/dtls/mbedtls/mbedtls-2.16.2/library/ssl_cookie.c ****     (*p)[3] = (unsigned char)( t       );
 513              		.loc 2 179 6
 514 00cc 488B45D0 		movq	-48(%rbp), %rax
 515 00d0 488B00   		movq	(%rax), %rax
 516              		.loc 2 179 9
 517 00d3 4883C003 		addq	$3, %rax
 518              		.loc 2 179 15
 519 00d7 488B55F0 		movq	-16(%rbp), %rdx
 520              		.loc 2 179 13
 521 00db 8810     		movb	%dl, (%rax)
 180:/home/xingli/share/1205tiny/network/dtls/mbedtls/mbedtls-2.16.2/library/ssl_cookie.c ****     *p += 4;
 522              		.loc 2 180 8
 523 00dd 488B45D0 		movq	-48(%rbp), %rax
 524 00e1 488B00   		movq	(%rax), %rax
 525 00e4 488D5004 		leaq	4(%rax), %rdx
 526 00e8 488B45D0 		movq	-48(%rbp), %rax
 527 00ec 488910   		movq	%rdx, (%rax)
 181:/home/xingli/share/1205tiny/network/dtls/mbedtls/mbedtls-2.16.2/library/ssl_cookie.c **** 
 182:/home/xingli/share/1205tiny/network/dtls/mbedtls/mbedtls-2.16.2/library/ssl_cookie.c **** #if defined(MBEDTLS_THREADING_C)
 183:/home/xingli/share/1205tiny/network/dtls/mbedtls/mbedtls-2.16.2/library/ssl_cookie.c ****     if( ( ret = mbedtls_mutex_lock( &ctx->mutex ) ) != 0 )
 184:/home/xingli/share/1205tiny/network/dtls/mbedtls/mbedtls-2.16.2/library/ssl_cookie.c ****         return( MBEDTLS_ERR_SSL_INTERNAL_ERROR + ret );
 185:/home/xingli/share/1205tiny/network/dtls/mbedtls/mbedtls-2.16.2/library/ssl_cookie.c **** #endif
 186:/home/xingli/share/1205tiny/network/dtls/mbedtls/mbedtls-2.16.2/library/ssl_cookie.c **** 
 187:/home/xingli/share/1205tiny/network/dtls/mbedtls/mbedtls-2.16.2/library/ssl_cookie.c ****     ret = ssl_cookie_hmac( &ctx->hmac_ctx, *p - 4,
 528              		.loc 2 187 44
 529 00ef 488B45D0 		movq	-48(%rbp), %rax
 530 00f3 488B00   		movq	(%rax), %rax
 531              		.loc 2 187 47
 532 00f6 488D70FC 		leaq	-4(%rax), %rsi
 533              		.loc 2 187 11
 534 00fa 488B45E8 		movq	-24(%rbp), %rax
GAS LISTING /tmp/ccSYGV05.s 			page 28


 535 00fe 4C8B45B8 		movq	-72(%rbp), %r8
 536 0102 488B7DC0 		movq	-64(%rbp), %rdi
 537 0106 488B4DC8 		movq	-56(%rbp), %rcx
 538 010a 488B55D0 		movq	-48(%rbp), %rdx
 539 010e 4D89C1   		movq	%r8, %r9
 540 0111 4989F8   		movq	%rdi, %r8
 541 0114 4889C7   		movq	%rax, %rdi
 542 0117 E8000000 		call	ssl_cookie_hmac
 542      00
 543 011c 8945E4   		movl	%eax, -28(%rbp)
 188:/home/xingli/share/1205tiny/network/dtls/mbedtls/mbedtls-2.16.2/library/ssl_cookie.c ****                            p, end, cli_id, cli_id_len );
 189:/home/xingli/share/1205tiny/network/dtls/mbedtls/mbedtls-2.16.2/library/ssl_cookie.c **** 
 190:/home/xingli/share/1205tiny/network/dtls/mbedtls/mbedtls-2.16.2/library/ssl_cookie.c **** #if defined(MBEDTLS_THREADING_C)
 191:/home/xingli/share/1205tiny/network/dtls/mbedtls/mbedtls-2.16.2/library/ssl_cookie.c ****     if( mbedtls_mutex_unlock( &ctx->mutex ) != 0 )
 192:/home/xingli/share/1205tiny/network/dtls/mbedtls/mbedtls-2.16.2/library/ssl_cookie.c ****         return( MBEDTLS_ERR_SSL_INTERNAL_ERROR +
 193:/home/xingli/share/1205tiny/network/dtls/mbedtls/mbedtls-2.16.2/library/ssl_cookie.c ****                 MBEDTLS_ERR_THREADING_MUTEX_ERROR );
 194:/home/xingli/share/1205tiny/network/dtls/mbedtls/mbedtls-2.16.2/library/ssl_cookie.c **** #endif
 195:/home/xingli/share/1205tiny/network/dtls/mbedtls/mbedtls-2.16.2/library/ssl_cookie.c **** 
 196:/home/xingli/share/1205tiny/network/dtls/mbedtls/mbedtls-2.16.2/library/ssl_cookie.c ****     return( ret );
 544              		.loc 2 196 11
 545 011f 8B45E4   		movl	-28(%rbp), %eax
 546              	.L29:
 197:/home/xingli/share/1205tiny/network/dtls/mbedtls/mbedtls-2.16.2/library/ssl_cookie.c **** }
 547              		.loc 2 197 1
 548 0122 488B75F8 		movq	-8(%rbp), %rsi
 549 0126 64483334 		xorq	%fs:40, %rsi
 549      25280000 
 549      00
 550 012f 7405     		je	.L31
 551 0131 E8000000 		call	__stack_chk_fail@PLT
 551      00
 552              	.L31:
 553 0136 C9       		leave
 554              	.LCFI20:
 555              		.cfi_def_cfa 7, 8
 556 0137 C3       		ret
 557              		.cfi_endproc
 558              	.LFE32:
 560              		.section	.text.mbedtls_ssl_cookie_check,"ax",@progbits
 561              		.globl	mbedtls_ssl_cookie_check
 563              	mbedtls_ssl_cookie_check:
 564              	.LFB33:
 198:/home/xingli/share/1205tiny/network/dtls/mbedtls/mbedtls-2.16.2/library/ssl_cookie.c **** 
 199:/home/xingli/share/1205tiny/network/dtls/mbedtls/mbedtls-2.16.2/library/ssl_cookie.c **** /*
 200:/home/xingli/share/1205tiny/network/dtls/mbedtls/mbedtls-2.16.2/library/ssl_cookie.c ****  * Check a cookie
 201:/home/xingli/share/1205tiny/network/dtls/mbedtls/mbedtls-2.16.2/library/ssl_cookie.c ****  */
 202:/home/xingli/share/1205tiny/network/dtls/mbedtls/mbedtls-2.16.2/library/ssl_cookie.c **** int mbedtls_ssl_cookie_check( void *p_ctx,
 203:/home/xingli/share/1205tiny/network/dtls/mbedtls/mbedtls-2.16.2/library/ssl_cookie.c ****                       const unsigned char *cookie, size_t cookie_len,
 204:/home/xingli/share/1205tiny/network/dtls/mbedtls/mbedtls-2.16.2/library/ssl_cookie.c ****                       const unsigned char *cli_id, size_t cli_id_len )
 205:/home/xingli/share/1205tiny/network/dtls/mbedtls/mbedtls-2.16.2/library/ssl_cookie.c **** {
 565              		.loc 2 205 1
 566              		.cfi_startproc
 567 0000 F30F1EFA 		endbr64
 568 0004 55       		pushq	%rbp
 569              	.LCFI21:
 570              		.cfi_def_cfa_offset 16
 571              		.cfi_offset 6, -16
GAS LISTING /tmp/ccSYGV05.s 			page 29


 572 0005 4889E5   		movq	%rsp, %rbp
 573              	.LCFI22:
 574              		.cfi_def_cfa_register 6
 575 0008 4881EC90 		subq	$144, %rsp
 575      000000
 576 000f 48897D98 		movq	%rdi, -104(%rbp)
 577 0013 48897590 		movq	%rsi, -112(%rbp)
 578 0017 48895588 		movq	%rdx, -120(%rbp)
 579 001b 48894D80 		movq	%rcx, -128(%rbp)
 580 001f 4C898578 		movq	%r8, -136(%rbp)
 580      FFFFFF
 581              		.loc 2 205 1
 582 0026 64488B04 		movq	%fs:40, %rax
 582      25280000 
 582      00
 583 002f 488945F8 		movq	%rax, -8(%rbp)
 584 0033 31C0     		xorl	%eax, %eax
 206:/home/xingli/share/1205tiny/network/dtls/mbedtls/mbedtls-2.16.2/library/ssl_cookie.c ****     unsigned char ref_hmac[COOKIE_HMAC_LEN];
 207:/home/xingli/share/1205tiny/network/dtls/mbedtls/mbedtls-2.16.2/library/ssl_cookie.c ****     int ret = 0;
 585              		.loc 2 207 9
 586 0035 C745AC00 		movl	$0, -84(%rbp)
 586      000000
 208:/home/xingli/share/1205tiny/network/dtls/mbedtls/mbedtls-2.16.2/library/ssl_cookie.c ****     unsigned char *p = ref_hmac;
 587              		.loc 2 208 20
 588 003c 488D45D0 		leaq	-48(%rbp), %rax
 589 0040 488945B0 		movq	%rax, -80(%rbp)
 209:/home/xingli/share/1205tiny/network/dtls/mbedtls/mbedtls-2.16.2/library/ssl_cookie.c ****     mbedtls_ssl_cookie_ctx *ctx = (mbedtls_ssl_cookie_ctx *) p_ctx;
 590              		.loc 2 209 29
 591 0044 488B4598 		movq	-104(%rbp), %rax
 592 0048 488945B8 		movq	%rax, -72(%rbp)
 210:/home/xingli/share/1205tiny/network/dtls/mbedtls/mbedtls-2.16.2/library/ssl_cookie.c ****     unsigned long cur_time, cookie_time;
 211:/home/xingli/share/1205tiny/network/dtls/mbedtls/mbedtls-2.16.2/library/ssl_cookie.c **** 
 212:/home/xingli/share/1205tiny/network/dtls/mbedtls/mbedtls-2.16.2/library/ssl_cookie.c ****     if( ctx == NULL || cli_id == NULL )
 593              		.loc 2 212 7
 594 004c 48837DB8 		cmpq	$0, -72(%rbp)
 594      00
 595 0051 7407     		je	.L33
 596              		.loc 2 212 21 discriminator 1
 597 0053 48837D80 		cmpq	$0, -128(%rbp)
 597      00
 598 0058 750A     		jne	.L34
 599              	.L33:
 213:/home/xingli/share/1205tiny/network/dtls/mbedtls/mbedtls-2.16.2/library/ssl_cookie.c ****         return( MBEDTLS_ERR_SSL_BAD_INPUT_DATA );
 600              		.loc 2 213 15
 601 005a B8008FFF 		movl	$-28928, %eax
 601      FF
 602 005f E90E0100 		jmp	.L41
 602      00
 603              	.L34:
 214:/home/xingli/share/1205tiny/network/dtls/mbedtls/mbedtls-2.16.2/library/ssl_cookie.c **** 
 215:/home/xingli/share/1205tiny/network/dtls/mbedtls/mbedtls-2.16.2/library/ssl_cookie.c ****     if( cookie_len != COOKIE_LEN )
 604              		.loc 2 215 7
 605 0064 48837D88 		cmpq	$32, -120(%rbp)
 605      20
 606 0069 740A     		je	.L36
 216:/home/xingli/share/1205tiny/network/dtls/mbedtls/mbedtls-2.16.2/library/ssl_cookie.c ****         return( -1 );
 607              		.loc 2 216 15
GAS LISTING /tmp/ccSYGV05.s 			page 30


 608 006b B8FFFFFF 		movl	$-1, %eax
 608      FF
 609 0070 E9FD0000 		jmp	.L41
 609      00
 610              	.L36:
 217:/home/xingli/share/1205tiny/network/dtls/mbedtls/mbedtls-2.16.2/library/ssl_cookie.c **** 
 218:/home/xingli/share/1205tiny/network/dtls/mbedtls/mbedtls-2.16.2/library/ssl_cookie.c **** #if defined(MBEDTLS_THREADING_C)
 219:/home/xingli/share/1205tiny/network/dtls/mbedtls/mbedtls-2.16.2/library/ssl_cookie.c ****     if( ( ret = mbedtls_mutex_lock( &ctx->mutex ) ) != 0 )
 220:/home/xingli/share/1205tiny/network/dtls/mbedtls/mbedtls-2.16.2/library/ssl_cookie.c ****         return( MBEDTLS_ERR_SSL_INTERNAL_ERROR + ret );
 221:/home/xingli/share/1205tiny/network/dtls/mbedtls/mbedtls-2.16.2/library/ssl_cookie.c **** #endif
 222:/home/xingli/share/1205tiny/network/dtls/mbedtls/mbedtls-2.16.2/library/ssl_cookie.c **** 
 223:/home/xingli/share/1205tiny/network/dtls/mbedtls/mbedtls-2.16.2/library/ssl_cookie.c ****     if( ssl_cookie_hmac( &ctx->hmac_ctx, cookie,
 611              		.loc 2 223 9
 612 0075 488B45B0 		movq	-80(%rbp), %rax
 613 0079 488D481C 		leaq	28(%rax), %rcx
 614 007d 488B45B8 		movq	-72(%rbp), %rax
 615 0081 4C8B8578 		movq	-136(%rbp), %r8
 615      FFFFFF
 616 0088 488B7D80 		movq	-128(%rbp), %rdi
 617 008c 488D55B0 		leaq	-80(%rbp), %rdx
 618 0090 488B7590 		movq	-112(%rbp), %rsi
 619 0094 4D89C1   		movq	%r8, %r9
 620 0097 4989F8   		movq	%rdi, %r8
 621 009a 4889C7   		movq	%rax, %rdi
 622 009d E8000000 		call	ssl_cookie_hmac
 622      00
 623              		.loc 2 223 7
 624 00a2 85C0     		testl	%eax, %eax
 625 00a4 7407     		je	.L37
 224:/home/xingli/share/1205tiny/network/dtls/mbedtls/mbedtls-2.16.2/library/ssl_cookie.c ****                          &p, p + sizeof( ref_hmac ),
 225:/home/xingli/share/1205tiny/network/dtls/mbedtls/mbedtls-2.16.2/library/ssl_cookie.c ****                          cli_id, cli_id_len ) != 0 )
 226:/home/xingli/share/1205tiny/network/dtls/mbedtls/mbedtls-2.16.2/library/ssl_cookie.c ****         ret = -1;
 626              		.loc 2 226 13
 627 00a6 C745ACFF 		movl	$-1, -84(%rbp)
 627      FFFFFF
 628              	.L37:
 227:/home/xingli/share/1205tiny/network/dtls/mbedtls/mbedtls-2.16.2/library/ssl_cookie.c **** 
 228:/home/xingli/share/1205tiny/network/dtls/mbedtls/mbedtls-2.16.2/library/ssl_cookie.c **** #if defined(MBEDTLS_THREADING_C)
 229:/home/xingli/share/1205tiny/network/dtls/mbedtls/mbedtls-2.16.2/library/ssl_cookie.c ****     if( mbedtls_mutex_unlock( &ctx->mutex ) != 0 )
 230:/home/xingli/share/1205tiny/network/dtls/mbedtls/mbedtls-2.16.2/library/ssl_cookie.c ****         return( MBEDTLS_ERR_SSL_INTERNAL_ERROR +
 231:/home/xingli/share/1205tiny/network/dtls/mbedtls/mbedtls-2.16.2/library/ssl_cookie.c ****                 MBEDTLS_ERR_THREADING_MUTEX_ERROR );
 232:/home/xingli/share/1205tiny/network/dtls/mbedtls/mbedtls-2.16.2/library/ssl_cookie.c **** #endif
 233:/home/xingli/share/1205tiny/network/dtls/mbedtls/mbedtls-2.16.2/library/ssl_cookie.c **** 
 234:/home/xingli/share/1205tiny/network/dtls/mbedtls/mbedtls-2.16.2/library/ssl_cookie.c ****     if( ret != 0 )
 629              		.loc 2 234 7
 630 00ad 837DAC00 		cmpl	$0, -84(%rbp)
 631 00b1 7408     		je	.L38
 235:/home/xingli/share/1205tiny/network/dtls/mbedtls/mbedtls-2.16.2/library/ssl_cookie.c ****         return( ret );
 632              		.loc 2 235 15
 633 00b3 8B45AC   		movl	-84(%rbp), %eax
 634 00b6 E9B70000 		jmp	.L41
 634      00
 635              	.L38:
 236:/home/xingli/share/1205tiny/network/dtls/mbedtls/mbedtls-2.16.2/library/ssl_cookie.c **** 
 237:/home/xingli/share/1205tiny/network/dtls/mbedtls/mbedtls-2.16.2/library/ssl_cookie.c ****     if( mbedtls_ssl_safer_memcmp( cookie + 4, ref_hmac, sizeof( ref_hmac ) ) != 0 )
 636              		.loc 2 237 42
 637 00bb 488B4590 		movq	-112(%rbp), %rax
GAS LISTING /tmp/ccSYGV05.s 			page 31


 638 00bf 488D4804 		leaq	4(%rax), %rcx
 639              		.loc 2 237 9
 640 00c3 488D45D0 		leaq	-48(%rbp), %rax
 641 00c7 BA1C0000 		movl	$28, %edx
 641      00
 642 00cc 4889C6   		movq	%rax, %rsi
 643 00cf 4889CF   		movq	%rcx, %rdi
 644 00d2 E8000000 		call	mbedtls_ssl_safer_memcmp
 644      00
 645              		.loc 2 237 7
 646 00d7 85C0     		testl	%eax, %eax
 647 00d9 740A     		je	.L39
 238:/home/xingli/share/1205tiny/network/dtls/mbedtls/mbedtls-2.16.2/library/ssl_cookie.c ****         return( -1 );
 648              		.loc 2 238 15
 649 00db B8FFFFFF 		movl	$-1, %eax
 649      FF
 650 00e0 E98D0000 		jmp	.L41
 650      00
 651              	.L39:
 239:/home/xingli/share/1205tiny/network/dtls/mbedtls/mbedtls-2.16.2/library/ssl_cookie.c **** 
 240:/home/xingli/share/1205tiny/network/dtls/mbedtls/mbedtls-2.16.2/library/ssl_cookie.c **** #if defined(MBEDTLS_HAVE_TIME)
 241:/home/xingli/share/1205tiny/network/dtls/mbedtls/mbedtls-2.16.2/library/ssl_cookie.c ****     cur_time = (unsigned long) mbedtls_time( NULL );
 242:/home/xingli/share/1205tiny/network/dtls/mbedtls/mbedtls-2.16.2/library/ssl_cookie.c **** #else
 243:/home/xingli/share/1205tiny/network/dtls/mbedtls/mbedtls-2.16.2/library/ssl_cookie.c ****     cur_time = ctx->serial;
 652              		.loc 2 243 14
 653 00e5 488B45B8 		movq	-72(%rbp), %rax
 654 00e9 488B4018 		movq	24(%rax), %rax
 655 00ed 488945C0 		movq	%rax, -64(%rbp)
 244:/home/xingli/share/1205tiny/network/dtls/mbedtls/mbedtls-2.16.2/library/ssl_cookie.c **** #endif
 245:/home/xingli/share/1205tiny/network/dtls/mbedtls/mbedtls-2.16.2/library/ssl_cookie.c **** 
 246:/home/xingli/share/1205tiny/network/dtls/mbedtls/mbedtls-2.16.2/library/ssl_cookie.c ****     cookie_time = ( (unsigned long) cookie[0] << 24 ) |
 656              		.loc 2 246 43
 657 00f1 488B4590 		movq	-112(%rbp), %rax
 658 00f5 0FB600   		movzbl	(%rax), %eax
 659              		.loc 2 246 21
 660 00f8 0FB6C0   		movzbl	%al, %eax
 661              		.loc 2 246 47
 662 00fb 48C1E018 		salq	$24, %rax
 663 00ff 4889C2   		movq	%rax, %rdx
 247:/home/xingli/share/1205tiny/network/dtls/mbedtls/mbedtls-2.16.2/library/ssl_cookie.c ****                   ( (unsigned long) cookie[1] << 16 ) |
 664              		.loc 2 247 43
 665 0102 488B4590 		movq	-112(%rbp), %rax
 666 0106 4883C001 		addq	$1, %rax
 667 010a 0FB600   		movzbl	(%rax), %eax
 668              		.loc 2 247 21
 669 010d 0FB6C0   		movzbl	%al, %eax
 670              		.loc 2 247 47
 671 0110 48C1E010 		salq	$16, %rax
 246:/home/xingli/share/1205tiny/network/dtls/mbedtls/mbedtls-2.16.2/library/ssl_cookie.c ****                   ( (unsigned long) cookie[1] << 16 ) |
 672              		.loc 2 246 55
 673 0114 4809C2   		orq	%rax, %rdx
 248:/home/xingli/share/1205tiny/network/dtls/mbedtls/mbedtls-2.16.2/library/ssl_cookie.c ****                   ( (unsigned long) cookie[2] <<  8 ) |
 674              		.loc 2 248 43
 675 0117 488B4590 		movq	-112(%rbp), %rax
 676 011b 4883C002 		addq	$2, %rax
 677 011f 0FB600   		movzbl	(%rax), %eax
 678              		.loc 2 248 21
GAS LISTING /tmp/ccSYGV05.s 			page 32


 679 0122 0FB6C0   		movzbl	%al, %eax
 680              		.loc 2 248 47
 681 0125 48C1E008 		salq	$8, %rax
 247:/home/xingli/share/1205tiny/network/dtls/mbedtls/mbedtls-2.16.2/library/ssl_cookie.c ****                   ( (unsigned long) cookie[1] << 16 ) |
 682              		.loc 2 247 55
 683 0129 4809C2   		orq	%rax, %rdx
 249:/home/xingli/share/1205tiny/network/dtls/mbedtls/mbedtls-2.16.2/library/ssl_cookie.c ****                   ( (unsigned long) cookie[3]       );
 684              		.loc 2 249 43
 685 012c 488B4590 		movq	-112(%rbp), %rax
 686 0130 4883C003 		addq	$3, %rax
 687 0134 0FB600   		movzbl	(%rax), %eax
 688              		.loc 2 249 21
 689 0137 0FB6C0   		movzbl	%al, %eax
 246:/home/xingli/share/1205tiny/network/dtls/mbedtls/mbedtls-2.16.2/library/ssl_cookie.c ****                   ( (unsigned long) cookie[1] << 16 ) |
 690              		.loc 2 246 17
 691 013a 4809D0   		orq	%rdx, %rax
 692 013d 488945C8 		movq	%rax, -56(%rbp)
 250:/home/xingli/share/1205tiny/network/dtls/mbedtls/mbedtls-2.16.2/library/ssl_cookie.c **** 
 251:/home/xingli/share/1205tiny/network/dtls/mbedtls/mbedtls-2.16.2/library/ssl_cookie.c ****     if( ctx->timeout != 0 && cur_time - cookie_time > ctx->timeout )
 693              		.loc 2 251 12
 694 0141 488B45B8 		movq	-72(%rbp), %rax
 695 0145 488B4020 		movq	32(%rax), %rax
 696              		.loc 2 251 7
 697 0149 4885C0   		testq	%rax, %rax
 698 014c 741F     		je	.L40
 699              		.loc 2 251 39 discriminator 1
 700 014e 488B45C0 		movq	-64(%rbp), %rax
 701 0152 482B45C8 		subq	-56(%rbp), %rax
 702 0156 4889C2   		movq	%rax, %rdx
 703              		.loc 2 251 58 discriminator 1
 704 0159 488B45B8 		movq	-72(%rbp), %rax
 705 015d 488B4020 		movq	32(%rax), %rax
 706              		.loc 2 251 27 discriminator 1
 707 0161 4839C2   		cmpq	%rax, %rdx
 708 0164 7607     		jbe	.L40
 252:/home/xingli/share/1205tiny/network/dtls/mbedtls/mbedtls-2.16.2/library/ssl_cookie.c ****         return( -1 );
 709              		.loc 2 252 15
 710 0166 B8FFFFFF 		movl	$-1, %eax
 710      FF
 711 016b EB05     		jmp	.L41
 712              	.L40:
 253:/home/xingli/share/1205tiny/network/dtls/mbedtls/mbedtls-2.16.2/library/ssl_cookie.c **** 
 254:/home/xingli/share/1205tiny/network/dtls/mbedtls/mbedtls-2.16.2/library/ssl_cookie.c ****     return( 0 );
 713              		.loc 2 254 11
 714 016d B8000000 		movl	$0, %eax
 714      00
 715              	.L41:
 255:/home/xingli/share/1205tiny/network/dtls/mbedtls/mbedtls-2.16.2/library/ssl_cookie.c **** }
 716              		.loc 2 255 1 discriminator 1
 717 0172 488B75F8 		movq	-8(%rbp), %rsi
 718 0176 64483334 		xorq	%fs:40, %rsi
 718      25280000 
 718      00
 719 017f 7405     		je	.L42
 720              		.loc 2 255 1 is_stmt 0
 721 0181 E8000000 		call	__stack_chk_fail@PLT
 721      00
GAS LISTING /tmp/ccSYGV05.s 			page 33


 722              	.L42:
 723 0186 C9       		leave
 724              	.LCFI23:
 725              		.cfi_def_cfa 7, 8
 726 0187 C3       		ret
 727              		.cfi_endproc
 728              	.LFE33:
 730              		.text
 731              	.Letext0:
 732              		.file 3 "/usr/lib/gcc/x86_64-linux-gnu/9/include/stddef.h"
 733              		.file 4 "/usr/include/x86_64-linux-gnu/bits/types.h"
 734              		.file 5 "/usr/include/x86_64-linux-gnu/bits/types/struct_FILE.h"
 735              		.file 6 "/usr/include/x86_64-linux-gnu/bits/types/FILE.h"
 736              		.file 7 "/usr/include/stdio.h"
 737              		.file 8 "/usr/include/x86_64-linux-gnu/bits/sys_errlist.h"
 738              		.file 9 "/usr/include/time.h"
 739              		.file 10 "/home/xingli/share/1205tiny/network/dtls/mbedtls/mbedtls-2.16.2/include/mbedtls/platform
 740              		.file 11 "/usr/include/x86_64-linux-gnu/bits/stdint-uintn.h"
 741              		.file 12 "/home/xingli/share/1205tiny/network/dtls/mbedtls/mbedtls-2.16.2/include/mbedtls/md.h"
 742              		.file 13 "/home/xingli/share/1205tiny/network/dtls/mbedtls/mbedtls-2.16.2/include/mbedtls/x509_crt
 743              		.file 14 "/home/xingli/share/1205tiny/network/dtls/mbedtls/mbedtls-2.16.2/include/mbedtls/ssl_cook
 3045              		.section	.note.gnu.property,"a"
 3046              		.align 8
 3047 0000 04000000 		.long	 1f - 0f
 3048 0004 10000000 		.long	 4f - 1f
 3049 0008 05000000 		.long	 5
 3050              	0:
 3051 000c 474E5500 		.string	 "GNU"
 3052              	1:
 3053              		.align 8
 3054 0010 020000C0 		.long	 0xc0000002
 3055 0014 04000000 		.long	 3f - 2f
 3056              	2:
 3057 0018 03000000 		.long	 0x3
 3058              	3:
 3059 001c 00000000 		.align 8
 3060              	4:
GAS LISTING /tmp/ccSYGV05.s 			page 34


DEFINED SYMBOLS
                            *ABS*:0000000000000000 ssl_cookie.c
     /tmp/ccSYGV05.s:6      .text.mbedtls_ssl_safer_memcmp:0000000000000000 mbedtls_ssl_safer_memcmp
     /tmp/ccSYGV05.s:88     .text.mbedtls_ssl_cookie_init:0000000000000000 mbedtls_ssl_cookie_init
     /tmp/ccSYGV05.s:134    .text.mbedtls_ssl_cookie_set_timeout:0000000000000000 mbedtls_ssl_cookie_set_timeout
     /tmp/ccSYGV05.s:174    .text.mbedtls_ssl_cookie_free:0000000000000000 mbedtls_ssl_cookie_free
     /tmp/ccSYGV05.s:218    .text.mbedtls_ssl_cookie_setup:0000000000000000 mbedtls_ssl_cookie_setup
     /tmp/ccSYGV05.s:311    .text.ssl_cookie_hmac:0000000000000000 ssl_cookie_hmac
     /tmp/ccSYGV05.s:423    .text.mbedtls_ssl_cookie_write:0000000000000000 mbedtls_ssl_cookie_write
     /tmp/ccSYGV05.s:563    .text.mbedtls_ssl_cookie_check:0000000000000000 mbedtls_ssl_cookie_check

UNDEFINED SYMBOLS
_GLOBAL_OFFSET_TABLE_
__stack_chk_fail
mbedtls_md_init
mbedtls_md_free
mbedtls_platform_zeroize
mbedtls_md_info_from_type
mbedtls_md_setup
mbedtls_md_hmac_starts
mbedtls_md_hmac_reset
mbedtls_md_hmac_update
mbedtls_md_hmac_finish
memcpy
