GAS LISTING /tmp/ccEn8xFO.s 			page 1


   1              		.file	"ssl_tls.c"
   2              		.text
   3              	.Ltext0:
   4              		.section	.text.mbedtls_pk_ec,"ax",@progbits
   6              	mbedtls_pk_ec:
   7              	.LFB7:
   8              		.file 1 "/home/xingli/share/1205tiny/network/dtls/mbedtls/mbedtls-2.16.2/include/mbedtls/pk.h"
   1:/home/xingli/share/1205tiny/network/dtls/mbedtls/mbedtls-2.16.2/include/mbedtls/pk.h **** /**
   2:/home/xingli/share/1205tiny/network/dtls/mbedtls/mbedtls-2.16.2/include/mbedtls/pk.h ****  * \file pk.h
   3:/home/xingli/share/1205tiny/network/dtls/mbedtls/mbedtls-2.16.2/include/mbedtls/pk.h ****  *
   4:/home/xingli/share/1205tiny/network/dtls/mbedtls/mbedtls-2.16.2/include/mbedtls/pk.h ****  * \brief Public Key abstraction layer
   5:/home/xingli/share/1205tiny/network/dtls/mbedtls/mbedtls-2.16.2/include/mbedtls/pk.h ****  */
   6:/home/xingli/share/1205tiny/network/dtls/mbedtls/mbedtls-2.16.2/include/mbedtls/pk.h **** /*
   7:/home/xingli/share/1205tiny/network/dtls/mbedtls/mbedtls-2.16.2/include/mbedtls/pk.h ****  *  Copyright (C) 2006-2015, ARM Limited, All Rights Reserved
   8:/home/xingli/share/1205tiny/network/dtls/mbedtls/mbedtls-2.16.2/include/mbedtls/pk.h ****  *  SPDX-License-Identifier: Apache-2.0
   9:/home/xingli/share/1205tiny/network/dtls/mbedtls/mbedtls-2.16.2/include/mbedtls/pk.h ****  *
  10:/home/xingli/share/1205tiny/network/dtls/mbedtls/mbedtls-2.16.2/include/mbedtls/pk.h ****  *  Licensed under the Apache License, Version 2.0 (the "License"); you may
  11:/home/xingli/share/1205tiny/network/dtls/mbedtls/mbedtls-2.16.2/include/mbedtls/pk.h ****  *  not use this file except in compliance with the License.
  12:/home/xingli/share/1205tiny/network/dtls/mbedtls/mbedtls-2.16.2/include/mbedtls/pk.h ****  *  You may obtain a copy of the License at
  13:/home/xingli/share/1205tiny/network/dtls/mbedtls/mbedtls-2.16.2/include/mbedtls/pk.h ****  *
  14:/home/xingli/share/1205tiny/network/dtls/mbedtls/mbedtls-2.16.2/include/mbedtls/pk.h ****  *  http://www.apache.org/licenses/LICENSE-2.0
  15:/home/xingli/share/1205tiny/network/dtls/mbedtls/mbedtls-2.16.2/include/mbedtls/pk.h ****  *
  16:/home/xingli/share/1205tiny/network/dtls/mbedtls/mbedtls-2.16.2/include/mbedtls/pk.h ****  *  Unless required by applicable law or agreed to in writing, software
  17:/home/xingli/share/1205tiny/network/dtls/mbedtls/mbedtls-2.16.2/include/mbedtls/pk.h ****  *  distributed under the License is distributed on an "AS IS" BASIS, WITHOUT
  18:/home/xingli/share/1205tiny/network/dtls/mbedtls/mbedtls-2.16.2/include/mbedtls/pk.h ****  *  WARRANTIES OR CONDITIONS OF ANY KIND, either express or implied.
  19:/home/xingli/share/1205tiny/network/dtls/mbedtls/mbedtls-2.16.2/include/mbedtls/pk.h ****  *  See the License for the specific language governing permissions and
  20:/home/xingli/share/1205tiny/network/dtls/mbedtls/mbedtls-2.16.2/include/mbedtls/pk.h ****  *  limitations under the License.
  21:/home/xingli/share/1205tiny/network/dtls/mbedtls/mbedtls-2.16.2/include/mbedtls/pk.h ****  *
  22:/home/xingli/share/1205tiny/network/dtls/mbedtls/mbedtls-2.16.2/include/mbedtls/pk.h ****  *  This file is part of mbed TLS (https://tls.mbed.org)
  23:/home/xingli/share/1205tiny/network/dtls/mbedtls/mbedtls-2.16.2/include/mbedtls/pk.h ****  */
  24:/home/xingli/share/1205tiny/network/dtls/mbedtls/mbedtls-2.16.2/include/mbedtls/pk.h **** 
  25:/home/xingli/share/1205tiny/network/dtls/mbedtls/mbedtls-2.16.2/include/mbedtls/pk.h **** #ifndef MBEDTLS_PK_H
  26:/home/xingli/share/1205tiny/network/dtls/mbedtls/mbedtls-2.16.2/include/mbedtls/pk.h **** #define MBEDTLS_PK_H
  27:/home/xingli/share/1205tiny/network/dtls/mbedtls/mbedtls-2.16.2/include/mbedtls/pk.h **** 
  28:/home/xingli/share/1205tiny/network/dtls/mbedtls/mbedtls-2.16.2/include/mbedtls/pk.h **** #if !defined(MBEDTLS_CONFIG_FILE)
  29:/home/xingli/share/1205tiny/network/dtls/mbedtls/mbedtls-2.16.2/include/mbedtls/pk.h **** #include "config.h"
  30:/home/xingli/share/1205tiny/network/dtls/mbedtls/mbedtls-2.16.2/include/mbedtls/pk.h **** #else
  31:/home/xingli/share/1205tiny/network/dtls/mbedtls/mbedtls-2.16.2/include/mbedtls/pk.h **** #include MBEDTLS_CONFIG_FILE
  32:/home/xingli/share/1205tiny/network/dtls/mbedtls/mbedtls-2.16.2/include/mbedtls/pk.h **** #endif
  33:/home/xingli/share/1205tiny/network/dtls/mbedtls/mbedtls-2.16.2/include/mbedtls/pk.h **** 
  34:/home/xingli/share/1205tiny/network/dtls/mbedtls/mbedtls-2.16.2/include/mbedtls/pk.h **** #include "md.h"
  35:/home/xingli/share/1205tiny/network/dtls/mbedtls/mbedtls-2.16.2/include/mbedtls/pk.h **** 
  36:/home/xingli/share/1205tiny/network/dtls/mbedtls/mbedtls-2.16.2/include/mbedtls/pk.h **** #if defined(MBEDTLS_RSA_C)
  37:/home/xingli/share/1205tiny/network/dtls/mbedtls/mbedtls-2.16.2/include/mbedtls/pk.h **** #include "rsa.h"
  38:/home/xingli/share/1205tiny/network/dtls/mbedtls/mbedtls-2.16.2/include/mbedtls/pk.h **** #endif
  39:/home/xingli/share/1205tiny/network/dtls/mbedtls/mbedtls-2.16.2/include/mbedtls/pk.h **** 
  40:/home/xingli/share/1205tiny/network/dtls/mbedtls/mbedtls-2.16.2/include/mbedtls/pk.h **** #if defined(MBEDTLS_ECP_C)
  41:/home/xingli/share/1205tiny/network/dtls/mbedtls/mbedtls-2.16.2/include/mbedtls/pk.h **** #include "ecp.h"
  42:/home/xingli/share/1205tiny/network/dtls/mbedtls/mbedtls-2.16.2/include/mbedtls/pk.h **** #endif
  43:/home/xingli/share/1205tiny/network/dtls/mbedtls/mbedtls-2.16.2/include/mbedtls/pk.h **** 
  44:/home/xingli/share/1205tiny/network/dtls/mbedtls/mbedtls-2.16.2/include/mbedtls/pk.h **** #if defined(MBEDTLS_ECDSA_C)
  45:/home/xingli/share/1205tiny/network/dtls/mbedtls/mbedtls-2.16.2/include/mbedtls/pk.h **** #include "ecdsa.h"
  46:/home/xingli/share/1205tiny/network/dtls/mbedtls/mbedtls-2.16.2/include/mbedtls/pk.h **** #endif
  47:/home/xingli/share/1205tiny/network/dtls/mbedtls/mbedtls-2.16.2/include/mbedtls/pk.h **** 
  48:/home/xingli/share/1205tiny/network/dtls/mbedtls/mbedtls-2.16.2/include/mbedtls/pk.h **** #if ( defined(__ARMCC_VERSION) || defined(_MSC_VER) ) && \
  49:/home/xingli/share/1205tiny/network/dtls/mbedtls/mbedtls-2.16.2/include/mbedtls/pk.h ****     !defined(inline) && !defined(__cplusplus)
  50:/home/xingli/share/1205tiny/network/dtls/mbedtls/mbedtls-2.16.2/include/mbedtls/pk.h **** #define inline __inline
GAS LISTING /tmp/ccEn8xFO.s 			page 2


  51:/home/xingli/share/1205tiny/network/dtls/mbedtls/mbedtls-2.16.2/include/mbedtls/pk.h **** #endif
  52:/home/xingli/share/1205tiny/network/dtls/mbedtls/mbedtls-2.16.2/include/mbedtls/pk.h **** 
  53:/home/xingli/share/1205tiny/network/dtls/mbedtls/mbedtls-2.16.2/include/mbedtls/pk.h **** #define MBEDTLS_ERR_PK_ALLOC_FAILED        -0x3F80  /**< Memory allocation failed. */
  54:/home/xingli/share/1205tiny/network/dtls/mbedtls/mbedtls-2.16.2/include/mbedtls/pk.h **** #define MBEDTLS_ERR_PK_TYPE_MISMATCH       -0x3F00  /**< Type mismatch, eg attempt to encrypt with 
  55:/home/xingli/share/1205tiny/network/dtls/mbedtls/mbedtls-2.16.2/include/mbedtls/pk.h **** #define MBEDTLS_ERR_PK_BAD_INPUT_DATA      -0x3E80  /**< Bad input parameters to function. */
  56:/home/xingli/share/1205tiny/network/dtls/mbedtls/mbedtls-2.16.2/include/mbedtls/pk.h **** #define MBEDTLS_ERR_PK_FILE_IO_ERROR       -0x3E00  /**< Read/write of file failed. */
  57:/home/xingli/share/1205tiny/network/dtls/mbedtls/mbedtls-2.16.2/include/mbedtls/pk.h **** #define MBEDTLS_ERR_PK_KEY_INVALID_VERSION -0x3D80  /**< Unsupported key version */
  58:/home/xingli/share/1205tiny/network/dtls/mbedtls/mbedtls-2.16.2/include/mbedtls/pk.h **** #define MBEDTLS_ERR_PK_KEY_INVALID_FORMAT  -0x3D00  /**< Invalid key tag or value. */
  59:/home/xingli/share/1205tiny/network/dtls/mbedtls/mbedtls-2.16.2/include/mbedtls/pk.h **** #define MBEDTLS_ERR_PK_UNKNOWN_PK_ALG      -0x3C80  /**< Key algorithm is unsupported (only RSA and
  60:/home/xingli/share/1205tiny/network/dtls/mbedtls/mbedtls-2.16.2/include/mbedtls/pk.h **** #define MBEDTLS_ERR_PK_PASSWORD_REQUIRED   -0x3C00  /**< Private key password can't be empty. */
  61:/home/xingli/share/1205tiny/network/dtls/mbedtls/mbedtls-2.16.2/include/mbedtls/pk.h **** #define MBEDTLS_ERR_PK_PASSWORD_MISMATCH   -0x3B80  /**< Given private key password does not allow 
  62:/home/xingli/share/1205tiny/network/dtls/mbedtls/mbedtls-2.16.2/include/mbedtls/pk.h **** #define MBEDTLS_ERR_PK_INVALID_PUBKEY      -0x3B00  /**< The pubkey tag or value is invalid (only R
  63:/home/xingli/share/1205tiny/network/dtls/mbedtls/mbedtls-2.16.2/include/mbedtls/pk.h **** #define MBEDTLS_ERR_PK_INVALID_ALG         -0x3A80  /**< The algorithm tag or value is invalid. */
  64:/home/xingli/share/1205tiny/network/dtls/mbedtls/mbedtls-2.16.2/include/mbedtls/pk.h **** #define MBEDTLS_ERR_PK_UNKNOWN_NAMED_CURVE -0x3A00  /**< Elliptic curve is unsupported (only NIST c
  65:/home/xingli/share/1205tiny/network/dtls/mbedtls/mbedtls-2.16.2/include/mbedtls/pk.h **** #define MBEDTLS_ERR_PK_FEATURE_UNAVAILABLE -0x3980  /**< Unavailable feature, e.g. RSA disabled for
  66:/home/xingli/share/1205tiny/network/dtls/mbedtls/mbedtls-2.16.2/include/mbedtls/pk.h **** #define MBEDTLS_ERR_PK_SIG_LEN_MISMATCH    -0x3900  /**< The buffer contains a valid signature foll
  67:/home/xingli/share/1205tiny/network/dtls/mbedtls/mbedtls-2.16.2/include/mbedtls/pk.h **** 
  68:/home/xingli/share/1205tiny/network/dtls/mbedtls/mbedtls-2.16.2/include/mbedtls/pk.h **** /* MBEDTLS_ERR_PK_HW_ACCEL_FAILED is deprecated and should not be used. */
  69:/home/xingli/share/1205tiny/network/dtls/mbedtls/mbedtls-2.16.2/include/mbedtls/pk.h **** #define MBEDTLS_ERR_PK_HW_ACCEL_FAILED     -0x3880  /**< PK hardware accelerator failed. */
  70:/home/xingli/share/1205tiny/network/dtls/mbedtls/mbedtls-2.16.2/include/mbedtls/pk.h **** 
  71:/home/xingli/share/1205tiny/network/dtls/mbedtls/mbedtls-2.16.2/include/mbedtls/pk.h **** #ifdef __cplusplus
  72:/home/xingli/share/1205tiny/network/dtls/mbedtls/mbedtls-2.16.2/include/mbedtls/pk.h **** extern "C" {
  73:/home/xingli/share/1205tiny/network/dtls/mbedtls/mbedtls-2.16.2/include/mbedtls/pk.h **** #endif
  74:/home/xingli/share/1205tiny/network/dtls/mbedtls/mbedtls-2.16.2/include/mbedtls/pk.h **** 
  75:/home/xingli/share/1205tiny/network/dtls/mbedtls/mbedtls-2.16.2/include/mbedtls/pk.h **** /**
  76:/home/xingli/share/1205tiny/network/dtls/mbedtls/mbedtls-2.16.2/include/mbedtls/pk.h ****  * \brief          Public key types
  77:/home/xingli/share/1205tiny/network/dtls/mbedtls/mbedtls-2.16.2/include/mbedtls/pk.h ****  */
  78:/home/xingli/share/1205tiny/network/dtls/mbedtls/mbedtls-2.16.2/include/mbedtls/pk.h **** typedef enum {
  79:/home/xingli/share/1205tiny/network/dtls/mbedtls/mbedtls-2.16.2/include/mbedtls/pk.h ****     MBEDTLS_PK_NONE=0,
  80:/home/xingli/share/1205tiny/network/dtls/mbedtls/mbedtls-2.16.2/include/mbedtls/pk.h ****     MBEDTLS_PK_RSA,
  81:/home/xingli/share/1205tiny/network/dtls/mbedtls/mbedtls-2.16.2/include/mbedtls/pk.h ****     MBEDTLS_PK_ECKEY,
  82:/home/xingli/share/1205tiny/network/dtls/mbedtls/mbedtls-2.16.2/include/mbedtls/pk.h ****     MBEDTLS_PK_ECKEY_DH,
  83:/home/xingli/share/1205tiny/network/dtls/mbedtls/mbedtls-2.16.2/include/mbedtls/pk.h ****     MBEDTLS_PK_ECDSA,
  84:/home/xingli/share/1205tiny/network/dtls/mbedtls/mbedtls-2.16.2/include/mbedtls/pk.h ****     MBEDTLS_PK_RSA_ALT,
  85:/home/xingli/share/1205tiny/network/dtls/mbedtls/mbedtls-2.16.2/include/mbedtls/pk.h ****     MBEDTLS_PK_RSASSA_PSS,
  86:/home/xingli/share/1205tiny/network/dtls/mbedtls/mbedtls-2.16.2/include/mbedtls/pk.h **** } mbedtls_pk_type_t;
  87:/home/xingli/share/1205tiny/network/dtls/mbedtls/mbedtls-2.16.2/include/mbedtls/pk.h **** 
  88:/home/xingli/share/1205tiny/network/dtls/mbedtls/mbedtls-2.16.2/include/mbedtls/pk.h **** /**
  89:/home/xingli/share/1205tiny/network/dtls/mbedtls/mbedtls-2.16.2/include/mbedtls/pk.h ****  * \brief           Options for RSASSA-PSS signature verification.
  90:/home/xingli/share/1205tiny/network/dtls/mbedtls/mbedtls-2.16.2/include/mbedtls/pk.h ****  *                  See \c mbedtls_rsa_rsassa_pss_verify_ext()
  91:/home/xingli/share/1205tiny/network/dtls/mbedtls/mbedtls-2.16.2/include/mbedtls/pk.h ****  */
  92:/home/xingli/share/1205tiny/network/dtls/mbedtls/mbedtls-2.16.2/include/mbedtls/pk.h **** typedef struct mbedtls_pk_rsassa_pss_options
  93:/home/xingli/share/1205tiny/network/dtls/mbedtls/mbedtls-2.16.2/include/mbedtls/pk.h **** {
  94:/home/xingli/share/1205tiny/network/dtls/mbedtls/mbedtls-2.16.2/include/mbedtls/pk.h ****     mbedtls_md_type_t mgf1_hash_id;
  95:/home/xingli/share/1205tiny/network/dtls/mbedtls/mbedtls-2.16.2/include/mbedtls/pk.h ****     int expected_salt_len;
  96:/home/xingli/share/1205tiny/network/dtls/mbedtls/mbedtls-2.16.2/include/mbedtls/pk.h **** 
  97:/home/xingli/share/1205tiny/network/dtls/mbedtls/mbedtls-2.16.2/include/mbedtls/pk.h **** } mbedtls_pk_rsassa_pss_options;
  98:/home/xingli/share/1205tiny/network/dtls/mbedtls/mbedtls-2.16.2/include/mbedtls/pk.h **** 
  99:/home/xingli/share/1205tiny/network/dtls/mbedtls/mbedtls-2.16.2/include/mbedtls/pk.h **** /**
 100:/home/xingli/share/1205tiny/network/dtls/mbedtls/mbedtls-2.16.2/include/mbedtls/pk.h ****  * \brief           Types for interfacing with the debug module
 101:/home/xingli/share/1205tiny/network/dtls/mbedtls/mbedtls-2.16.2/include/mbedtls/pk.h ****  */
 102:/home/xingli/share/1205tiny/network/dtls/mbedtls/mbedtls-2.16.2/include/mbedtls/pk.h **** typedef enum
 103:/home/xingli/share/1205tiny/network/dtls/mbedtls/mbedtls-2.16.2/include/mbedtls/pk.h **** {
 104:/home/xingli/share/1205tiny/network/dtls/mbedtls/mbedtls-2.16.2/include/mbedtls/pk.h ****     MBEDTLS_PK_DEBUG_NONE = 0,
 105:/home/xingli/share/1205tiny/network/dtls/mbedtls/mbedtls-2.16.2/include/mbedtls/pk.h ****     MBEDTLS_PK_DEBUG_MPI,
 106:/home/xingli/share/1205tiny/network/dtls/mbedtls/mbedtls-2.16.2/include/mbedtls/pk.h ****     MBEDTLS_PK_DEBUG_ECP,
 107:/home/xingli/share/1205tiny/network/dtls/mbedtls/mbedtls-2.16.2/include/mbedtls/pk.h **** } mbedtls_pk_debug_type;
GAS LISTING /tmp/ccEn8xFO.s 			page 3


 108:/home/xingli/share/1205tiny/network/dtls/mbedtls/mbedtls-2.16.2/include/mbedtls/pk.h **** 
 109:/home/xingli/share/1205tiny/network/dtls/mbedtls/mbedtls-2.16.2/include/mbedtls/pk.h **** /**
 110:/home/xingli/share/1205tiny/network/dtls/mbedtls/mbedtls-2.16.2/include/mbedtls/pk.h ****  * \brief           Item to send to the debug module
 111:/home/xingli/share/1205tiny/network/dtls/mbedtls/mbedtls-2.16.2/include/mbedtls/pk.h ****  */
 112:/home/xingli/share/1205tiny/network/dtls/mbedtls/mbedtls-2.16.2/include/mbedtls/pk.h **** typedef struct mbedtls_pk_debug_item
 113:/home/xingli/share/1205tiny/network/dtls/mbedtls/mbedtls-2.16.2/include/mbedtls/pk.h **** {
 114:/home/xingli/share/1205tiny/network/dtls/mbedtls/mbedtls-2.16.2/include/mbedtls/pk.h ****     mbedtls_pk_debug_type type;
 115:/home/xingli/share/1205tiny/network/dtls/mbedtls/mbedtls-2.16.2/include/mbedtls/pk.h ****     const char *name;
 116:/home/xingli/share/1205tiny/network/dtls/mbedtls/mbedtls-2.16.2/include/mbedtls/pk.h ****     void *value;
 117:/home/xingli/share/1205tiny/network/dtls/mbedtls/mbedtls-2.16.2/include/mbedtls/pk.h **** } mbedtls_pk_debug_item;
 118:/home/xingli/share/1205tiny/network/dtls/mbedtls/mbedtls-2.16.2/include/mbedtls/pk.h **** 
 119:/home/xingli/share/1205tiny/network/dtls/mbedtls/mbedtls-2.16.2/include/mbedtls/pk.h **** /** Maximum number of item send for debugging, plus 1 */
 120:/home/xingli/share/1205tiny/network/dtls/mbedtls/mbedtls-2.16.2/include/mbedtls/pk.h **** #define MBEDTLS_PK_DEBUG_MAX_ITEMS 3
 121:/home/xingli/share/1205tiny/network/dtls/mbedtls/mbedtls-2.16.2/include/mbedtls/pk.h **** 
 122:/home/xingli/share/1205tiny/network/dtls/mbedtls/mbedtls-2.16.2/include/mbedtls/pk.h **** /**
 123:/home/xingli/share/1205tiny/network/dtls/mbedtls/mbedtls-2.16.2/include/mbedtls/pk.h ****  * \brief           Public key information and operations
 124:/home/xingli/share/1205tiny/network/dtls/mbedtls/mbedtls-2.16.2/include/mbedtls/pk.h ****  */
 125:/home/xingli/share/1205tiny/network/dtls/mbedtls/mbedtls-2.16.2/include/mbedtls/pk.h **** typedef struct mbedtls_pk_info_t mbedtls_pk_info_t;
 126:/home/xingli/share/1205tiny/network/dtls/mbedtls/mbedtls-2.16.2/include/mbedtls/pk.h **** 
 127:/home/xingli/share/1205tiny/network/dtls/mbedtls/mbedtls-2.16.2/include/mbedtls/pk.h **** /**
 128:/home/xingli/share/1205tiny/network/dtls/mbedtls/mbedtls-2.16.2/include/mbedtls/pk.h ****  * \brief           Public key container
 129:/home/xingli/share/1205tiny/network/dtls/mbedtls/mbedtls-2.16.2/include/mbedtls/pk.h ****  */
 130:/home/xingli/share/1205tiny/network/dtls/mbedtls/mbedtls-2.16.2/include/mbedtls/pk.h **** typedef struct mbedtls_pk_context
 131:/home/xingli/share/1205tiny/network/dtls/mbedtls/mbedtls-2.16.2/include/mbedtls/pk.h **** {
 132:/home/xingli/share/1205tiny/network/dtls/mbedtls/mbedtls-2.16.2/include/mbedtls/pk.h ****     const mbedtls_pk_info_t *   pk_info; /**< Public key information         */
 133:/home/xingli/share/1205tiny/network/dtls/mbedtls/mbedtls-2.16.2/include/mbedtls/pk.h ****     void *                      pk_ctx;  /**< Underlying public key context  */
 134:/home/xingli/share/1205tiny/network/dtls/mbedtls/mbedtls-2.16.2/include/mbedtls/pk.h **** } mbedtls_pk_context;
 135:/home/xingli/share/1205tiny/network/dtls/mbedtls/mbedtls-2.16.2/include/mbedtls/pk.h **** 
 136:/home/xingli/share/1205tiny/network/dtls/mbedtls/mbedtls-2.16.2/include/mbedtls/pk.h **** #if defined(MBEDTLS_ECDSA_C) && defined(MBEDTLS_ECP_RESTARTABLE)
 137:/home/xingli/share/1205tiny/network/dtls/mbedtls/mbedtls-2.16.2/include/mbedtls/pk.h **** /**
 138:/home/xingli/share/1205tiny/network/dtls/mbedtls/mbedtls-2.16.2/include/mbedtls/pk.h ****  * \brief           Context for resuming operations
 139:/home/xingli/share/1205tiny/network/dtls/mbedtls/mbedtls-2.16.2/include/mbedtls/pk.h ****  */
 140:/home/xingli/share/1205tiny/network/dtls/mbedtls/mbedtls-2.16.2/include/mbedtls/pk.h **** typedef struct
 141:/home/xingli/share/1205tiny/network/dtls/mbedtls/mbedtls-2.16.2/include/mbedtls/pk.h **** {
 142:/home/xingli/share/1205tiny/network/dtls/mbedtls/mbedtls-2.16.2/include/mbedtls/pk.h ****     const mbedtls_pk_info_t *   pk_info; /**< Public key information         */
 143:/home/xingli/share/1205tiny/network/dtls/mbedtls/mbedtls-2.16.2/include/mbedtls/pk.h ****     void *                      rs_ctx;  /**< Underlying restart context     */
 144:/home/xingli/share/1205tiny/network/dtls/mbedtls/mbedtls-2.16.2/include/mbedtls/pk.h **** } mbedtls_pk_restart_ctx;
 145:/home/xingli/share/1205tiny/network/dtls/mbedtls/mbedtls-2.16.2/include/mbedtls/pk.h **** #else /* MBEDTLS_ECDSA_C && MBEDTLS_ECP_RESTARTABLE */
 146:/home/xingli/share/1205tiny/network/dtls/mbedtls/mbedtls-2.16.2/include/mbedtls/pk.h **** /* Now we can declare functions that take a pointer to that */
 147:/home/xingli/share/1205tiny/network/dtls/mbedtls/mbedtls-2.16.2/include/mbedtls/pk.h **** typedef void mbedtls_pk_restart_ctx;
 148:/home/xingli/share/1205tiny/network/dtls/mbedtls/mbedtls-2.16.2/include/mbedtls/pk.h **** #endif /* MBEDTLS_ECDSA_C && MBEDTLS_ECP_RESTARTABLE */
 149:/home/xingli/share/1205tiny/network/dtls/mbedtls/mbedtls-2.16.2/include/mbedtls/pk.h **** 
 150:/home/xingli/share/1205tiny/network/dtls/mbedtls/mbedtls-2.16.2/include/mbedtls/pk.h **** #if defined(MBEDTLS_RSA_C)
 151:/home/xingli/share/1205tiny/network/dtls/mbedtls/mbedtls-2.16.2/include/mbedtls/pk.h **** /**
 152:/home/xingli/share/1205tiny/network/dtls/mbedtls/mbedtls-2.16.2/include/mbedtls/pk.h ****  * Quick access to an RSA context inside a PK context.
 153:/home/xingli/share/1205tiny/network/dtls/mbedtls/mbedtls-2.16.2/include/mbedtls/pk.h ****  *
 154:/home/xingli/share/1205tiny/network/dtls/mbedtls/mbedtls-2.16.2/include/mbedtls/pk.h ****  * \warning You must make sure the PK context actually holds an RSA context
 155:/home/xingli/share/1205tiny/network/dtls/mbedtls/mbedtls-2.16.2/include/mbedtls/pk.h ****  * before using this function!
 156:/home/xingli/share/1205tiny/network/dtls/mbedtls/mbedtls-2.16.2/include/mbedtls/pk.h ****  */
 157:/home/xingli/share/1205tiny/network/dtls/mbedtls/mbedtls-2.16.2/include/mbedtls/pk.h **** static inline mbedtls_rsa_context *mbedtls_pk_rsa( const mbedtls_pk_context pk )
 158:/home/xingli/share/1205tiny/network/dtls/mbedtls/mbedtls-2.16.2/include/mbedtls/pk.h **** {
 159:/home/xingli/share/1205tiny/network/dtls/mbedtls/mbedtls-2.16.2/include/mbedtls/pk.h ****     return( (mbedtls_rsa_context *) (pk).pk_ctx );
 160:/home/xingli/share/1205tiny/network/dtls/mbedtls/mbedtls-2.16.2/include/mbedtls/pk.h **** }
 161:/home/xingli/share/1205tiny/network/dtls/mbedtls/mbedtls-2.16.2/include/mbedtls/pk.h **** #endif /* MBEDTLS_RSA_C */
 162:/home/xingli/share/1205tiny/network/dtls/mbedtls/mbedtls-2.16.2/include/mbedtls/pk.h **** 
 163:/home/xingli/share/1205tiny/network/dtls/mbedtls/mbedtls-2.16.2/include/mbedtls/pk.h **** #if defined(MBEDTLS_ECP_C)
 164:/home/xingli/share/1205tiny/network/dtls/mbedtls/mbedtls-2.16.2/include/mbedtls/pk.h **** /**
GAS LISTING /tmp/ccEn8xFO.s 			page 4


 165:/home/xingli/share/1205tiny/network/dtls/mbedtls/mbedtls-2.16.2/include/mbedtls/pk.h ****  * Quick access to an EC context inside a PK context.
 166:/home/xingli/share/1205tiny/network/dtls/mbedtls/mbedtls-2.16.2/include/mbedtls/pk.h ****  *
 167:/home/xingli/share/1205tiny/network/dtls/mbedtls/mbedtls-2.16.2/include/mbedtls/pk.h ****  * \warning You must make sure the PK context actually holds an EC context
 168:/home/xingli/share/1205tiny/network/dtls/mbedtls/mbedtls-2.16.2/include/mbedtls/pk.h ****  * before using this function!
 169:/home/xingli/share/1205tiny/network/dtls/mbedtls/mbedtls-2.16.2/include/mbedtls/pk.h ****  */
 170:/home/xingli/share/1205tiny/network/dtls/mbedtls/mbedtls-2.16.2/include/mbedtls/pk.h **** static inline mbedtls_ecp_keypair *mbedtls_pk_ec( const mbedtls_pk_context pk )
 171:/home/xingli/share/1205tiny/network/dtls/mbedtls/mbedtls-2.16.2/include/mbedtls/pk.h **** {
   9              		.loc 1 171 1
  10              		.cfi_startproc
  11 0000 55       		pushq	%rbp
  12              	.LCFI0:
  13              		.cfi_def_cfa_offset 16
  14              		.cfi_offset 6, -16
  15 0001 4889E5   		movq	%rsp, %rbp
  16              	.LCFI1:
  17              		.cfi_def_cfa_register 6
  18 0004 4883EC20 		subq	$32, %rsp
  19 0008 4889F8   		movq	%rdi, %rax
  20 000b 4889F1   		movq	%rsi, %rcx
  21 000e 4889CA   		movq	%rcx, %rdx
  22 0011 488945E0 		movq	%rax, -32(%rbp)
  23 0015 488955E8 		movq	%rdx, -24(%rbp)
  24              		.loc 1 171 1
  25 0019 64488B04 		movq	%fs:40, %rax
  25      25280000 
  25      00
  26 0022 488945F8 		movq	%rax, -8(%rbp)
  27 0026 31C0     		xorl	%eax, %eax
 172:/home/xingli/share/1205tiny/network/dtls/mbedtls/mbedtls-2.16.2/include/mbedtls/pk.h ****     return( (mbedtls_ecp_keypair *) (pk).pk_ctx );
  28              		.loc 1 172 13
  29 0028 488B45E8 		movq	-24(%rbp), %rax
 173:/home/xingli/share/1205tiny/network/dtls/mbedtls/mbedtls-2.16.2/include/mbedtls/pk.h **** }
  30              		.loc 1 173 1
  31 002c 488B55F8 		movq	-8(%rbp), %rdx
  32 0030 64483314 		xorq	%fs:40, %rdx
  32      25280000 
  32      00
  33 0039 7405     		je	.L3
  34 003b E8000000 		call	__stack_chk_fail@PLT
  34      00
  35              	.L3:
  36 0040 C9       		leave
  37              	.LCFI2:
  38              		.cfi_def_cfa 7, 8
  39 0041 C3       		ret
  40              		.cfi_endproc
  41              	.LFE7:
  43              		.section	.text.mbedtls_cipher_get_block_size,"ax",@progbits
  45              	mbedtls_cipher_get_block_size:
  46              	.LFB9:
  47              		.file 2 "/home/xingli/share/1205tiny/network/dtls/mbedtls/mbedtls-2.16.2/include/mbedtls/cipher.h"
   1:/home/xingli/share/1205tiny/network/dtls/mbedtls/mbedtls-2.16.2/include/mbedtls/cipher.h **** /**
   2:/home/xingli/share/1205tiny/network/dtls/mbedtls/mbedtls-2.16.2/include/mbedtls/cipher.h ****  * \file cipher.h
   3:/home/xingli/share/1205tiny/network/dtls/mbedtls/mbedtls-2.16.2/include/mbedtls/cipher.h ****  *
   4:/home/xingli/share/1205tiny/network/dtls/mbedtls/mbedtls-2.16.2/include/mbedtls/cipher.h ****  * \brief This file contains an abstraction interface for use with the cipher
   5:/home/xingli/share/1205tiny/network/dtls/mbedtls/mbedtls-2.16.2/include/mbedtls/cipher.h ****  * primitives provided by the library. It provides a common interface to all of
   6:/home/xingli/share/1205tiny/network/dtls/mbedtls/mbedtls-2.16.2/include/mbedtls/cipher.h ****  * the available cipher operations.
GAS LISTING /tmp/ccEn8xFO.s 			page 5


   7:/home/xingli/share/1205tiny/network/dtls/mbedtls/mbedtls-2.16.2/include/mbedtls/cipher.h ****  *
   8:/home/xingli/share/1205tiny/network/dtls/mbedtls/mbedtls-2.16.2/include/mbedtls/cipher.h ****  * \author Adriaan de Jong <dejong@fox-it.com>
   9:/home/xingli/share/1205tiny/network/dtls/mbedtls/mbedtls-2.16.2/include/mbedtls/cipher.h ****  */
  10:/home/xingli/share/1205tiny/network/dtls/mbedtls/mbedtls-2.16.2/include/mbedtls/cipher.h **** /*
  11:/home/xingli/share/1205tiny/network/dtls/mbedtls/mbedtls-2.16.2/include/mbedtls/cipher.h ****  *  Copyright (C) 2006-2018, Arm Limited (or its affiliates), All Rights Reserved
  12:/home/xingli/share/1205tiny/network/dtls/mbedtls/mbedtls-2.16.2/include/mbedtls/cipher.h ****  *  SPDX-License-Identifier: Apache-2.0
  13:/home/xingli/share/1205tiny/network/dtls/mbedtls/mbedtls-2.16.2/include/mbedtls/cipher.h ****  *
  14:/home/xingli/share/1205tiny/network/dtls/mbedtls/mbedtls-2.16.2/include/mbedtls/cipher.h ****  *  Licensed under the Apache License, Version 2.0 (the "License"); you may
  15:/home/xingli/share/1205tiny/network/dtls/mbedtls/mbedtls-2.16.2/include/mbedtls/cipher.h ****  *  not use this file except in compliance with the License.
  16:/home/xingli/share/1205tiny/network/dtls/mbedtls/mbedtls-2.16.2/include/mbedtls/cipher.h ****  *  You may obtain a copy of the License at
  17:/home/xingli/share/1205tiny/network/dtls/mbedtls/mbedtls-2.16.2/include/mbedtls/cipher.h ****  *
  18:/home/xingli/share/1205tiny/network/dtls/mbedtls/mbedtls-2.16.2/include/mbedtls/cipher.h ****  *  http://www.apache.org/licenses/LICENSE-2.0
  19:/home/xingli/share/1205tiny/network/dtls/mbedtls/mbedtls-2.16.2/include/mbedtls/cipher.h ****  *
  20:/home/xingli/share/1205tiny/network/dtls/mbedtls/mbedtls-2.16.2/include/mbedtls/cipher.h ****  *  Unless required by applicable law or agreed to in writing, software
  21:/home/xingli/share/1205tiny/network/dtls/mbedtls/mbedtls-2.16.2/include/mbedtls/cipher.h ****  *  distributed under the License is distributed on an "AS IS" BASIS, WITHOUT
  22:/home/xingli/share/1205tiny/network/dtls/mbedtls/mbedtls-2.16.2/include/mbedtls/cipher.h ****  *  WARRANTIES OR CONDITIONS OF ANY KIND, either express or implied.
  23:/home/xingli/share/1205tiny/network/dtls/mbedtls/mbedtls-2.16.2/include/mbedtls/cipher.h ****  *  See the License for the specific language governing permissions and
  24:/home/xingli/share/1205tiny/network/dtls/mbedtls/mbedtls-2.16.2/include/mbedtls/cipher.h ****  *  limitations under the License.
  25:/home/xingli/share/1205tiny/network/dtls/mbedtls/mbedtls-2.16.2/include/mbedtls/cipher.h ****  *
  26:/home/xingli/share/1205tiny/network/dtls/mbedtls/mbedtls-2.16.2/include/mbedtls/cipher.h ****  *  This file is part of Mbed TLS (https://tls.mbed.org)
  27:/home/xingli/share/1205tiny/network/dtls/mbedtls/mbedtls-2.16.2/include/mbedtls/cipher.h ****  */
  28:/home/xingli/share/1205tiny/network/dtls/mbedtls/mbedtls-2.16.2/include/mbedtls/cipher.h **** 
  29:/home/xingli/share/1205tiny/network/dtls/mbedtls/mbedtls-2.16.2/include/mbedtls/cipher.h **** #ifndef MBEDTLS_CIPHER_H
  30:/home/xingli/share/1205tiny/network/dtls/mbedtls/mbedtls-2.16.2/include/mbedtls/cipher.h **** #define MBEDTLS_CIPHER_H
  31:/home/xingli/share/1205tiny/network/dtls/mbedtls/mbedtls-2.16.2/include/mbedtls/cipher.h **** 
  32:/home/xingli/share/1205tiny/network/dtls/mbedtls/mbedtls-2.16.2/include/mbedtls/cipher.h **** #if !defined(MBEDTLS_CONFIG_FILE)
  33:/home/xingli/share/1205tiny/network/dtls/mbedtls/mbedtls-2.16.2/include/mbedtls/cipher.h **** #include "config.h"
  34:/home/xingli/share/1205tiny/network/dtls/mbedtls/mbedtls-2.16.2/include/mbedtls/cipher.h **** #else
  35:/home/xingli/share/1205tiny/network/dtls/mbedtls/mbedtls-2.16.2/include/mbedtls/cipher.h **** #include MBEDTLS_CONFIG_FILE
  36:/home/xingli/share/1205tiny/network/dtls/mbedtls/mbedtls-2.16.2/include/mbedtls/cipher.h **** #endif
  37:/home/xingli/share/1205tiny/network/dtls/mbedtls/mbedtls-2.16.2/include/mbedtls/cipher.h **** 
  38:/home/xingli/share/1205tiny/network/dtls/mbedtls/mbedtls-2.16.2/include/mbedtls/cipher.h **** #include <stddef.h>
  39:/home/xingli/share/1205tiny/network/dtls/mbedtls/mbedtls-2.16.2/include/mbedtls/cipher.h **** #include "platform_util.h"
  40:/home/xingli/share/1205tiny/network/dtls/mbedtls/mbedtls-2.16.2/include/mbedtls/cipher.h **** 
  41:/home/xingli/share/1205tiny/network/dtls/mbedtls/mbedtls-2.16.2/include/mbedtls/cipher.h **** #if defined(MBEDTLS_GCM_C) || defined(MBEDTLS_CCM_C) || defined(MBEDTLS_CHACHAPOLY_C)
  42:/home/xingli/share/1205tiny/network/dtls/mbedtls/mbedtls-2.16.2/include/mbedtls/cipher.h **** #define MBEDTLS_CIPHER_MODE_AEAD
  43:/home/xingli/share/1205tiny/network/dtls/mbedtls/mbedtls-2.16.2/include/mbedtls/cipher.h **** #endif
  44:/home/xingli/share/1205tiny/network/dtls/mbedtls/mbedtls-2.16.2/include/mbedtls/cipher.h **** 
  45:/home/xingli/share/1205tiny/network/dtls/mbedtls/mbedtls-2.16.2/include/mbedtls/cipher.h **** #if defined(MBEDTLS_CIPHER_MODE_CBC)
  46:/home/xingli/share/1205tiny/network/dtls/mbedtls/mbedtls-2.16.2/include/mbedtls/cipher.h **** #define MBEDTLS_CIPHER_MODE_WITH_PADDING
  47:/home/xingli/share/1205tiny/network/dtls/mbedtls/mbedtls-2.16.2/include/mbedtls/cipher.h **** #endif
  48:/home/xingli/share/1205tiny/network/dtls/mbedtls/mbedtls-2.16.2/include/mbedtls/cipher.h **** 
  49:/home/xingli/share/1205tiny/network/dtls/mbedtls/mbedtls-2.16.2/include/mbedtls/cipher.h **** #if defined(MBEDTLS_ARC4_C) || defined(MBEDTLS_CIPHER_NULL_CIPHER) || \
  50:/home/xingli/share/1205tiny/network/dtls/mbedtls/mbedtls-2.16.2/include/mbedtls/cipher.h ****     defined(MBEDTLS_CHACHA20_C)
  51:/home/xingli/share/1205tiny/network/dtls/mbedtls/mbedtls-2.16.2/include/mbedtls/cipher.h **** #define MBEDTLS_CIPHER_MODE_STREAM
  52:/home/xingli/share/1205tiny/network/dtls/mbedtls/mbedtls-2.16.2/include/mbedtls/cipher.h **** #endif
  53:/home/xingli/share/1205tiny/network/dtls/mbedtls/mbedtls-2.16.2/include/mbedtls/cipher.h **** 
  54:/home/xingli/share/1205tiny/network/dtls/mbedtls/mbedtls-2.16.2/include/mbedtls/cipher.h **** #if ( defined(__ARMCC_VERSION) || defined(_MSC_VER) ) && \
  55:/home/xingli/share/1205tiny/network/dtls/mbedtls/mbedtls-2.16.2/include/mbedtls/cipher.h ****     !defined(inline) && !defined(__cplusplus)
  56:/home/xingli/share/1205tiny/network/dtls/mbedtls/mbedtls-2.16.2/include/mbedtls/cipher.h **** #define inline __inline
  57:/home/xingli/share/1205tiny/network/dtls/mbedtls/mbedtls-2.16.2/include/mbedtls/cipher.h **** #endif
  58:/home/xingli/share/1205tiny/network/dtls/mbedtls/mbedtls-2.16.2/include/mbedtls/cipher.h **** 
  59:/home/xingli/share/1205tiny/network/dtls/mbedtls/mbedtls-2.16.2/include/mbedtls/cipher.h **** #define MBEDTLS_ERR_CIPHER_FEATURE_UNAVAILABLE  -0x6080  /**< The selected feature is not available
  60:/home/xingli/share/1205tiny/network/dtls/mbedtls/mbedtls-2.16.2/include/mbedtls/cipher.h **** #define MBEDTLS_ERR_CIPHER_BAD_INPUT_DATA       -0x6100  /**< Bad input parameters. */
  61:/home/xingli/share/1205tiny/network/dtls/mbedtls/mbedtls-2.16.2/include/mbedtls/cipher.h **** #define MBEDTLS_ERR_CIPHER_ALLOC_FAILED         -0x6180  /**< Failed to allocate memory. */
  62:/home/xingli/share/1205tiny/network/dtls/mbedtls/mbedtls-2.16.2/include/mbedtls/cipher.h **** #define MBEDTLS_ERR_CIPHER_INVALID_PADDING      -0x6200  /**< Input data contains invalid padding a
  63:/home/xingli/share/1205tiny/network/dtls/mbedtls/mbedtls-2.16.2/include/mbedtls/cipher.h **** #define MBEDTLS_ERR_CIPHER_FULL_BLOCK_EXPECTED  -0x6280  /**< Decryption of block requires a full b
GAS LISTING /tmp/ccEn8xFO.s 			page 6


  64:/home/xingli/share/1205tiny/network/dtls/mbedtls/mbedtls-2.16.2/include/mbedtls/cipher.h **** #define MBEDTLS_ERR_CIPHER_AUTH_FAILED          -0x6300  /**< Authentication failed (for AEAD modes
  65:/home/xingli/share/1205tiny/network/dtls/mbedtls/mbedtls-2.16.2/include/mbedtls/cipher.h **** #define MBEDTLS_ERR_CIPHER_INVALID_CONTEXT      -0x6380  /**< The context is invalid. For example, 
  66:/home/xingli/share/1205tiny/network/dtls/mbedtls/mbedtls-2.16.2/include/mbedtls/cipher.h **** 
  67:/home/xingli/share/1205tiny/network/dtls/mbedtls/mbedtls-2.16.2/include/mbedtls/cipher.h **** /* MBEDTLS_ERR_CIPHER_HW_ACCEL_FAILED is deprecated and should not be used. */
  68:/home/xingli/share/1205tiny/network/dtls/mbedtls/mbedtls-2.16.2/include/mbedtls/cipher.h **** #define MBEDTLS_ERR_CIPHER_HW_ACCEL_FAILED      -0x6400  /**< Cipher hardware accelerator failed. *
  69:/home/xingli/share/1205tiny/network/dtls/mbedtls/mbedtls-2.16.2/include/mbedtls/cipher.h **** 
  70:/home/xingli/share/1205tiny/network/dtls/mbedtls/mbedtls-2.16.2/include/mbedtls/cipher.h **** #define MBEDTLS_CIPHER_VARIABLE_IV_LEN     0x01    /**< Cipher accepts IVs of variable length. */
  71:/home/xingli/share/1205tiny/network/dtls/mbedtls/mbedtls-2.16.2/include/mbedtls/cipher.h **** #define MBEDTLS_CIPHER_VARIABLE_KEY_LEN    0x02    /**< Cipher accepts keys of variable length. */
  72:/home/xingli/share/1205tiny/network/dtls/mbedtls/mbedtls-2.16.2/include/mbedtls/cipher.h **** 
  73:/home/xingli/share/1205tiny/network/dtls/mbedtls/mbedtls-2.16.2/include/mbedtls/cipher.h **** #ifdef __cplusplus
  74:/home/xingli/share/1205tiny/network/dtls/mbedtls/mbedtls-2.16.2/include/mbedtls/cipher.h **** extern "C" {
  75:/home/xingli/share/1205tiny/network/dtls/mbedtls/mbedtls-2.16.2/include/mbedtls/cipher.h **** #endif
  76:/home/xingli/share/1205tiny/network/dtls/mbedtls/mbedtls-2.16.2/include/mbedtls/cipher.h **** 
  77:/home/xingli/share/1205tiny/network/dtls/mbedtls/mbedtls-2.16.2/include/mbedtls/cipher.h **** /**
  78:/home/xingli/share/1205tiny/network/dtls/mbedtls/mbedtls-2.16.2/include/mbedtls/cipher.h ****  * \brief     Supported cipher types.
  79:/home/xingli/share/1205tiny/network/dtls/mbedtls/mbedtls-2.16.2/include/mbedtls/cipher.h ****  *
  80:/home/xingli/share/1205tiny/network/dtls/mbedtls/mbedtls-2.16.2/include/mbedtls/cipher.h ****  * \warning   RC4 and DES are considered weak ciphers and their use
  81:/home/xingli/share/1205tiny/network/dtls/mbedtls/mbedtls-2.16.2/include/mbedtls/cipher.h ****  *            constitutes a security risk. Arm recommends considering stronger
  82:/home/xingli/share/1205tiny/network/dtls/mbedtls/mbedtls-2.16.2/include/mbedtls/cipher.h ****  *            ciphers instead.
  83:/home/xingli/share/1205tiny/network/dtls/mbedtls/mbedtls-2.16.2/include/mbedtls/cipher.h ****  */
  84:/home/xingli/share/1205tiny/network/dtls/mbedtls/mbedtls-2.16.2/include/mbedtls/cipher.h **** typedef enum {
  85:/home/xingli/share/1205tiny/network/dtls/mbedtls/mbedtls-2.16.2/include/mbedtls/cipher.h ****     MBEDTLS_CIPHER_ID_NONE = 0,  /**< Placeholder to mark the end of cipher ID lists. */
  86:/home/xingli/share/1205tiny/network/dtls/mbedtls/mbedtls-2.16.2/include/mbedtls/cipher.h ****     MBEDTLS_CIPHER_ID_NULL,      /**< The identity cipher, treated as a stream cipher. */
  87:/home/xingli/share/1205tiny/network/dtls/mbedtls/mbedtls-2.16.2/include/mbedtls/cipher.h ****     MBEDTLS_CIPHER_ID_AES,       /**< The AES cipher. */
  88:/home/xingli/share/1205tiny/network/dtls/mbedtls/mbedtls-2.16.2/include/mbedtls/cipher.h ****     MBEDTLS_CIPHER_ID_DES,       /**< The DES cipher. */
  89:/home/xingli/share/1205tiny/network/dtls/mbedtls/mbedtls-2.16.2/include/mbedtls/cipher.h ****     MBEDTLS_CIPHER_ID_3DES,      /**< The Triple DES cipher. */
  90:/home/xingli/share/1205tiny/network/dtls/mbedtls/mbedtls-2.16.2/include/mbedtls/cipher.h ****     MBEDTLS_CIPHER_ID_CAMELLIA,  /**< The Camellia cipher. */
  91:/home/xingli/share/1205tiny/network/dtls/mbedtls/mbedtls-2.16.2/include/mbedtls/cipher.h ****     MBEDTLS_CIPHER_ID_BLOWFISH,  /**< The Blowfish cipher. */
  92:/home/xingli/share/1205tiny/network/dtls/mbedtls/mbedtls-2.16.2/include/mbedtls/cipher.h ****     MBEDTLS_CIPHER_ID_ARC4,      /**< The RC4 cipher. */
  93:/home/xingli/share/1205tiny/network/dtls/mbedtls/mbedtls-2.16.2/include/mbedtls/cipher.h ****     MBEDTLS_CIPHER_ID_ARIA,      /**< The Aria cipher. */
  94:/home/xingli/share/1205tiny/network/dtls/mbedtls/mbedtls-2.16.2/include/mbedtls/cipher.h ****     MBEDTLS_CIPHER_ID_CHACHA20,  /**< The ChaCha20 cipher. */
  95:/home/xingli/share/1205tiny/network/dtls/mbedtls/mbedtls-2.16.2/include/mbedtls/cipher.h **** } mbedtls_cipher_id_t;
  96:/home/xingli/share/1205tiny/network/dtls/mbedtls/mbedtls-2.16.2/include/mbedtls/cipher.h **** 
  97:/home/xingli/share/1205tiny/network/dtls/mbedtls/mbedtls-2.16.2/include/mbedtls/cipher.h **** /**
  98:/home/xingli/share/1205tiny/network/dtls/mbedtls/mbedtls-2.16.2/include/mbedtls/cipher.h ****  * \brief     Supported {cipher type, cipher mode} pairs.
  99:/home/xingli/share/1205tiny/network/dtls/mbedtls/mbedtls-2.16.2/include/mbedtls/cipher.h ****  *
 100:/home/xingli/share/1205tiny/network/dtls/mbedtls/mbedtls-2.16.2/include/mbedtls/cipher.h ****  * \warning   RC4 and DES are considered weak ciphers and their use
 101:/home/xingli/share/1205tiny/network/dtls/mbedtls/mbedtls-2.16.2/include/mbedtls/cipher.h ****  *            constitutes a security risk. Arm recommends considering stronger
 102:/home/xingli/share/1205tiny/network/dtls/mbedtls/mbedtls-2.16.2/include/mbedtls/cipher.h ****  *            ciphers instead.
 103:/home/xingli/share/1205tiny/network/dtls/mbedtls/mbedtls-2.16.2/include/mbedtls/cipher.h ****  */
 104:/home/xingli/share/1205tiny/network/dtls/mbedtls/mbedtls-2.16.2/include/mbedtls/cipher.h **** typedef enum {
 105:/home/xingli/share/1205tiny/network/dtls/mbedtls/mbedtls-2.16.2/include/mbedtls/cipher.h ****     MBEDTLS_CIPHER_NONE = 0,             /**< Placeholder to mark the end of cipher-pair lists. */
 106:/home/xingli/share/1205tiny/network/dtls/mbedtls/mbedtls-2.16.2/include/mbedtls/cipher.h ****     MBEDTLS_CIPHER_NULL,                 /**< The identity stream cipher. */
 107:/home/xingli/share/1205tiny/network/dtls/mbedtls/mbedtls-2.16.2/include/mbedtls/cipher.h ****     MBEDTLS_CIPHER_AES_128_ECB,          /**< AES cipher with 128-bit ECB mode. */
 108:/home/xingli/share/1205tiny/network/dtls/mbedtls/mbedtls-2.16.2/include/mbedtls/cipher.h ****     MBEDTLS_CIPHER_AES_192_ECB,          /**< AES cipher with 192-bit ECB mode. */
 109:/home/xingli/share/1205tiny/network/dtls/mbedtls/mbedtls-2.16.2/include/mbedtls/cipher.h ****     MBEDTLS_CIPHER_AES_256_ECB,          /**< AES cipher with 256-bit ECB mode. */
 110:/home/xingli/share/1205tiny/network/dtls/mbedtls/mbedtls-2.16.2/include/mbedtls/cipher.h ****     MBEDTLS_CIPHER_AES_128_CBC,          /**< AES cipher with 128-bit CBC mode. */
 111:/home/xingli/share/1205tiny/network/dtls/mbedtls/mbedtls-2.16.2/include/mbedtls/cipher.h ****     MBEDTLS_CIPHER_AES_192_CBC,          /**< AES cipher with 192-bit CBC mode. */
 112:/home/xingli/share/1205tiny/network/dtls/mbedtls/mbedtls-2.16.2/include/mbedtls/cipher.h ****     MBEDTLS_CIPHER_AES_256_CBC,          /**< AES cipher with 256-bit CBC mode. */
 113:/home/xingli/share/1205tiny/network/dtls/mbedtls/mbedtls-2.16.2/include/mbedtls/cipher.h ****     MBEDTLS_CIPHER_AES_128_CFB128,       /**< AES cipher with 128-bit CFB128 mode. */
 114:/home/xingli/share/1205tiny/network/dtls/mbedtls/mbedtls-2.16.2/include/mbedtls/cipher.h ****     MBEDTLS_CIPHER_AES_192_CFB128,       /**< AES cipher with 192-bit CFB128 mode. */
 115:/home/xingli/share/1205tiny/network/dtls/mbedtls/mbedtls-2.16.2/include/mbedtls/cipher.h ****     MBEDTLS_CIPHER_AES_256_CFB128,       /**< AES cipher with 256-bit CFB128 mode. */
 116:/home/xingli/share/1205tiny/network/dtls/mbedtls/mbedtls-2.16.2/include/mbedtls/cipher.h ****     MBEDTLS_CIPHER_AES_128_CTR,          /**< AES cipher with 128-bit CTR mode. */
 117:/home/xingli/share/1205tiny/network/dtls/mbedtls/mbedtls-2.16.2/include/mbedtls/cipher.h ****     MBEDTLS_CIPHER_AES_192_CTR,          /**< AES cipher with 192-bit CTR mode. */
 118:/home/xingli/share/1205tiny/network/dtls/mbedtls/mbedtls-2.16.2/include/mbedtls/cipher.h ****     MBEDTLS_CIPHER_AES_256_CTR,          /**< AES cipher with 256-bit CTR mode. */
 119:/home/xingli/share/1205tiny/network/dtls/mbedtls/mbedtls-2.16.2/include/mbedtls/cipher.h ****     MBEDTLS_CIPHER_AES_128_GCM,          /**< AES cipher with 128-bit GCM mode. */
 120:/home/xingli/share/1205tiny/network/dtls/mbedtls/mbedtls-2.16.2/include/mbedtls/cipher.h ****     MBEDTLS_CIPHER_AES_192_GCM,          /**< AES cipher with 192-bit GCM mode. */
GAS LISTING /tmp/ccEn8xFO.s 			page 7


 121:/home/xingli/share/1205tiny/network/dtls/mbedtls/mbedtls-2.16.2/include/mbedtls/cipher.h ****     MBEDTLS_CIPHER_AES_256_GCM,          /**< AES cipher with 256-bit GCM mode. */
 122:/home/xingli/share/1205tiny/network/dtls/mbedtls/mbedtls-2.16.2/include/mbedtls/cipher.h ****     MBEDTLS_CIPHER_CAMELLIA_128_ECB,     /**< Camellia cipher with 128-bit ECB mode. */
 123:/home/xingli/share/1205tiny/network/dtls/mbedtls/mbedtls-2.16.2/include/mbedtls/cipher.h ****     MBEDTLS_CIPHER_CAMELLIA_192_ECB,     /**< Camellia cipher with 192-bit ECB mode. */
 124:/home/xingli/share/1205tiny/network/dtls/mbedtls/mbedtls-2.16.2/include/mbedtls/cipher.h ****     MBEDTLS_CIPHER_CAMELLIA_256_ECB,     /**< Camellia cipher with 256-bit ECB mode. */
 125:/home/xingli/share/1205tiny/network/dtls/mbedtls/mbedtls-2.16.2/include/mbedtls/cipher.h ****     MBEDTLS_CIPHER_CAMELLIA_128_CBC,     /**< Camellia cipher with 128-bit CBC mode. */
 126:/home/xingli/share/1205tiny/network/dtls/mbedtls/mbedtls-2.16.2/include/mbedtls/cipher.h ****     MBEDTLS_CIPHER_CAMELLIA_192_CBC,     /**< Camellia cipher with 192-bit CBC mode. */
 127:/home/xingli/share/1205tiny/network/dtls/mbedtls/mbedtls-2.16.2/include/mbedtls/cipher.h ****     MBEDTLS_CIPHER_CAMELLIA_256_CBC,     /**< Camellia cipher with 256-bit CBC mode. */
 128:/home/xingli/share/1205tiny/network/dtls/mbedtls/mbedtls-2.16.2/include/mbedtls/cipher.h ****     MBEDTLS_CIPHER_CAMELLIA_128_CFB128,  /**< Camellia cipher with 128-bit CFB128 mode. */
 129:/home/xingli/share/1205tiny/network/dtls/mbedtls/mbedtls-2.16.2/include/mbedtls/cipher.h ****     MBEDTLS_CIPHER_CAMELLIA_192_CFB128,  /**< Camellia cipher with 192-bit CFB128 mode. */
 130:/home/xingli/share/1205tiny/network/dtls/mbedtls/mbedtls-2.16.2/include/mbedtls/cipher.h ****     MBEDTLS_CIPHER_CAMELLIA_256_CFB128,  /**< Camellia cipher with 256-bit CFB128 mode. */
 131:/home/xingli/share/1205tiny/network/dtls/mbedtls/mbedtls-2.16.2/include/mbedtls/cipher.h ****     MBEDTLS_CIPHER_CAMELLIA_128_CTR,     /**< Camellia cipher with 128-bit CTR mode. */
 132:/home/xingli/share/1205tiny/network/dtls/mbedtls/mbedtls-2.16.2/include/mbedtls/cipher.h ****     MBEDTLS_CIPHER_CAMELLIA_192_CTR,     /**< Camellia cipher with 192-bit CTR mode. */
 133:/home/xingli/share/1205tiny/network/dtls/mbedtls/mbedtls-2.16.2/include/mbedtls/cipher.h ****     MBEDTLS_CIPHER_CAMELLIA_256_CTR,     /**< Camellia cipher with 256-bit CTR mode. */
 134:/home/xingli/share/1205tiny/network/dtls/mbedtls/mbedtls-2.16.2/include/mbedtls/cipher.h ****     MBEDTLS_CIPHER_CAMELLIA_128_GCM,     /**< Camellia cipher with 128-bit GCM mode. */
 135:/home/xingli/share/1205tiny/network/dtls/mbedtls/mbedtls-2.16.2/include/mbedtls/cipher.h ****     MBEDTLS_CIPHER_CAMELLIA_192_GCM,     /**< Camellia cipher with 192-bit GCM mode. */
 136:/home/xingli/share/1205tiny/network/dtls/mbedtls/mbedtls-2.16.2/include/mbedtls/cipher.h ****     MBEDTLS_CIPHER_CAMELLIA_256_GCM,     /**< Camellia cipher with 256-bit GCM mode. */
 137:/home/xingli/share/1205tiny/network/dtls/mbedtls/mbedtls-2.16.2/include/mbedtls/cipher.h ****     MBEDTLS_CIPHER_DES_ECB,              /**< DES cipher with ECB mode. */
 138:/home/xingli/share/1205tiny/network/dtls/mbedtls/mbedtls-2.16.2/include/mbedtls/cipher.h ****     MBEDTLS_CIPHER_DES_CBC,              /**< DES cipher with CBC mode. */
 139:/home/xingli/share/1205tiny/network/dtls/mbedtls/mbedtls-2.16.2/include/mbedtls/cipher.h ****     MBEDTLS_CIPHER_DES_EDE_ECB,          /**< DES cipher with EDE ECB mode. */
 140:/home/xingli/share/1205tiny/network/dtls/mbedtls/mbedtls-2.16.2/include/mbedtls/cipher.h ****     MBEDTLS_CIPHER_DES_EDE_CBC,          /**< DES cipher with EDE CBC mode. */
 141:/home/xingli/share/1205tiny/network/dtls/mbedtls/mbedtls-2.16.2/include/mbedtls/cipher.h ****     MBEDTLS_CIPHER_DES_EDE3_ECB,         /**< DES cipher with EDE3 ECB mode. */
 142:/home/xingli/share/1205tiny/network/dtls/mbedtls/mbedtls-2.16.2/include/mbedtls/cipher.h ****     MBEDTLS_CIPHER_DES_EDE3_CBC,         /**< DES cipher with EDE3 CBC mode. */
 143:/home/xingli/share/1205tiny/network/dtls/mbedtls/mbedtls-2.16.2/include/mbedtls/cipher.h ****     MBEDTLS_CIPHER_BLOWFISH_ECB,         /**< Blowfish cipher with ECB mode. */
 144:/home/xingli/share/1205tiny/network/dtls/mbedtls/mbedtls-2.16.2/include/mbedtls/cipher.h ****     MBEDTLS_CIPHER_BLOWFISH_CBC,         /**< Blowfish cipher with CBC mode. */
 145:/home/xingli/share/1205tiny/network/dtls/mbedtls/mbedtls-2.16.2/include/mbedtls/cipher.h ****     MBEDTLS_CIPHER_BLOWFISH_CFB64,       /**< Blowfish cipher with CFB64 mode. */
 146:/home/xingli/share/1205tiny/network/dtls/mbedtls/mbedtls-2.16.2/include/mbedtls/cipher.h ****     MBEDTLS_CIPHER_BLOWFISH_CTR,         /**< Blowfish cipher with CTR mode. */
 147:/home/xingli/share/1205tiny/network/dtls/mbedtls/mbedtls-2.16.2/include/mbedtls/cipher.h ****     MBEDTLS_CIPHER_ARC4_128,             /**< RC4 cipher with 128-bit mode. */
 148:/home/xingli/share/1205tiny/network/dtls/mbedtls/mbedtls-2.16.2/include/mbedtls/cipher.h ****     MBEDTLS_CIPHER_AES_128_CCM,          /**< AES cipher with 128-bit CCM mode. */
 149:/home/xingli/share/1205tiny/network/dtls/mbedtls/mbedtls-2.16.2/include/mbedtls/cipher.h ****     MBEDTLS_CIPHER_AES_192_CCM,          /**< AES cipher with 192-bit CCM mode. */
 150:/home/xingli/share/1205tiny/network/dtls/mbedtls/mbedtls-2.16.2/include/mbedtls/cipher.h ****     MBEDTLS_CIPHER_AES_256_CCM,          /**< AES cipher with 256-bit CCM mode. */
 151:/home/xingli/share/1205tiny/network/dtls/mbedtls/mbedtls-2.16.2/include/mbedtls/cipher.h ****     MBEDTLS_CIPHER_CAMELLIA_128_CCM,     /**< Camellia cipher with 128-bit CCM mode. */
 152:/home/xingli/share/1205tiny/network/dtls/mbedtls/mbedtls-2.16.2/include/mbedtls/cipher.h ****     MBEDTLS_CIPHER_CAMELLIA_192_CCM,     /**< Camellia cipher with 192-bit CCM mode. */
 153:/home/xingli/share/1205tiny/network/dtls/mbedtls/mbedtls-2.16.2/include/mbedtls/cipher.h ****     MBEDTLS_CIPHER_CAMELLIA_256_CCM,     /**< Camellia cipher with 256-bit CCM mode. */
 154:/home/xingli/share/1205tiny/network/dtls/mbedtls/mbedtls-2.16.2/include/mbedtls/cipher.h ****     MBEDTLS_CIPHER_ARIA_128_ECB,         /**< Aria cipher with 128-bit key and ECB mode. */
 155:/home/xingli/share/1205tiny/network/dtls/mbedtls/mbedtls-2.16.2/include/mbedtls/cipher.h ****     MBEDTLS_CIPHER_ARIA_192_ECB,         /**< Aria cipher with 192-bit key and ECB mode. */
 156:/home/xingli/share/1205tiny/network/dtls/mbedtls/mbedtls-2.16.2/include/mbedtls/cipher.h ****     MBEDTLS_CIPHER_ARIA_256_ECB,         /**< Aria cipher with 256-bit key and ECB mode. */
 157:/home/xingli/share/1205tiny/network/dtls/mbedtls/mbedtls-2.16.2/include/mbedtls/cipher.h ****     MBEDTLS_CIPHER_ARIA_128_CBC,         /**< Aria cipher with 128-bit key and CBC mode. */
 158:/home/xingli/share/1205tiny/network/dtls/mbedtls/mbedtls-2.16.2/include/mbedtls/cipher.h ****     MBEDTLS_CIPHER_ARIA_192_CBC,         /**< Aria cipher with 192-bit key and CBC mode. */
 159:/home/xingli/share/1205tiny/network/dtls/mbedtls/mbedtls-2.16.2/include/mbedtls/cipher.h ****     MBEDTLS_CIPHER_ARIA_256_CBC,         /**< Aria cipher with 256-bit key and CBC mode. */
 160:/home/xingli/share/1205tiny/network/dtls/mbedtls/mbedtls-2.16.2/include/mbedtls/cipher.h ****     MBEDTLS_CIPHER_ARIA_128_CFB128,      /**< Aria cipher with 128-bit key and CFB-128 mode. */
 161:/home/xingli/share/1205tiny/network/dtls/mbedtls/mbedtls-2.16.2/include/mbedtls/cipher.h ****     MBEDTLS_CIPHER_ARIA_192_CFB128,      /**< Aria cipher with 192-bit key and CFB-128 mode. */
 162:/home/xingli/share/1205tiny/network/dtls/mbedtls/mbedtls-2.16.2/include/mbedtls/cipher.h ****     MBEDTLS_CIPHER_ARIA_256_CFB128,      /**< Aria cipher with 256-bit key and CFB-128 mode. */
 163:/home/xingli/share/1205tiny/network/dtls/mbedtls/mbedtls-2.16.2/include/mbedtls/cipher.h ****     MBEDTLS_CIPHER_ARIA_128_CTR,         /**< Aria cipher with 128-bit key and CTR mode. */
 164:/home/xingli/share/1205tiny/network/dtls/mbedtls/mbedtls-2.16.2/include/mbedtls/cipher.h ****     MBEDTLS_CIPHER_ARIA_192_CTR,         /**< Aria cipher with 192-bit key and CTR mode. */
 165:/home/xingli/share/1205tiny/network/dtls/mbedtls/mbedtls-2.16.2/include/mbedtls/cipher.h ****     MBEDTLS_CIPHER_ARIA_256_CTR,         /**< Aria cipher with 256-bit key and CTR mode. */
 166:/home/xingli/share/1205tiny/network/dtls/mbedtls/mbedtls-2.16.2/include/mbedtls/cipher.h ****     MBEDTLS_CIPHER_ARIA_128_GCM,         /**< Aria cipher with 128-bit key and GCM mode. */
 167:/home/xingli/share/1205tiny/network/dtls/mbedtls/mbedtls-2.16.2/include/mbedtls/cipher.h ****     MBEDTLS_CIPHER_ARIA_192_GCM,         /**< Aria cipher with 192-bit key and GCM mode. */
 168:/home/xingli/share/1205tiny/network/dtls/mbedtls/mbedtls-2.16.2/include/mbedtls/cipher.h ****     MBEDTLS_CIPHER_ARIA_256_GCM,         /**< Aria cipher with 256-bit key and GCM mode. */
 169:/home/xingli/share/1205tiny/network/dtls/mbedtls/mbedtls-2.16.2/include/mbedtls/cipher.h ****     MBEDTLS_CIPHER_ARIA_128_CCM,         /**< Aria cipher with 128-bit key and CCM mode. */
 170:/home/xingli/share/1205tiny/network/dtls/mbedtls/mbedtls-2.16.2/include/mbedtls/cipher.h ****     MBEDTLS_CIPHER_ARIA_192_CCM,         /**< Aria cipher with 192-bit key and CCM mode. */
 171:/home/xingli/share/1205tiny/network/dtls/mbedtls/mbedtls-2.16.2/include/mbedtls/cipher.h ****     MBEDTLS_CIPHER_ARIA_256_CCM,         /**< Aria cipher with 256-bit key and CCM mode. */
 172:/home/xingli/share/1205tiny/network/dtls/mbedtls/mbedtls-2.16.2/include/mbedtls/cipher.h ****     MBEDTLS_CIPHER_AES_128_OFB,          /**< AES 128-bit cipher in OFB mode. */
 173:/home/xingli/share/1205tiny/network/dtls/mbedtls/mbedtls-2.16.2/include/mbedtls/cipher.h ****     MBEDTLS_CIPHER_AES_192_OFB,          /**< AES 192-bit cipher in OFB mode. */
 174:/home/xingli/share/1205tiny/network/dtls/mbedtls/mbedtls-2.16.2/include/mbedtls/cipher.h ****     MBEDTLS_CIPHER_AES_256_OFB,          /**< AES 256-bit cipher in OFB mode. */
 175:/home/xingli/share/1205tiny/network/dtls/mbedtls/mbedtls-2.16.2/include/mbedtls/cipher.h ****     MBEDTLS_CIPHER_AES_128_XTS,          /**< AES 128-bit cipher in XTS block mode. */
 176:/home/xingli/share/1205tiny/network/dtls/mbedtls/mbedtls-2.16.2/include/mbedtls/cipher.h ****     MBEDTLS_CIPHER_AES_256_XTS,          /**< AES 256-bit cipher in XTS block mode. */
 177:/home/xingli/share/1205tiny/network/dtls/mbedtls/mbedtls-2.16.2/include/mbedtls/cipher.h ****     MBEDTLS_CIPHER_CHACHA20,             /**< ChaCha20 stream cipher. */
GAS LISTING /tmp/ccEn8xFO.s 			page 8


 178:/home/xingli/share/1205tiny/network/dtls/mbedtls/mbedtls-2.16.2/include/mbedtls/cipher.h ****     MBEDTLS_CIPHER_CHACHA20_POLY1305,    /**< ChaCha20-Poly1305 AEAD cipher. */
 179:/home/xingli/share/1205tiny/network/dtls/mbedtls/mbedtls-2.16.2/include/mbedtls/cipher.h **** } mbedtls_cipher_type_t;
 180:/home/xingli/share/1205tiny/network/dtls/mbedtls/mbedtls-2.16.2/include/mbedtls/cipher.h **** 
 181:/home/xingli/share/1205tiny/network/dtls/mbedtls/mbedtls-2.16.2/include/mbedtls/cipher.h **** /** Supported cipher modes. */
 182:/home/xingli/share/1205tiny/network/dtls/mbedtls/mbedtls-2.16.2/include/mbedtls/cipher.h **** typedef enum {
 183:/home/xingli/share/1205tiny/network/dtls/mbedtls/mbedtls-2.16.2/include/mbedtls/cipher.h ****     MBEDTLS_MODE_NONE = 0,               /**< None. */
 184:/home/xingli/share/1205tiny/network/dtls/mbedtls/mbedtls-2.16.2/include/mbedtls/cipher.h ****     MBEDTLS_MODE_ECB,                    /**< The ECB cipher mode. */
 185:/home/xingli/share/1205tiny/network/dtls/mbedtls/mbedtls-2.16.2/include/mbedtls/cipher.h ****     MBEDTLS_MODE_CBC,                    /**< The CBC cipher mode. */
 186:/home/xingli/share/1205tiny/network/dtls/mbedtls/mbedtls-2.16.2/include/mbedtls/cipher.h ****     MBEDTLS_MODE_CFB,                    /**< The CFB cipher mode. */
 187:/home/xingli/share/1205tiny/network/dtls/mbedtls/mbedtls-2.16.2/include/mbedtls/cipher.h ****     MBEDTLS_MODE_OFB,                    /**< The OFB cipher mode. */
 188:/home/xingli/share/1205tiny/network/dtls/mbedtls/mbedtls-2.16.2/include/mbedtls/cipher.h ****     MBEDTLS_MODE_CTR,                    /**< The CTR cipher mode. */
 189:/home/xingli/share/1205tiny/network/dtls/mbedtls/mbedtls-2.16.2/include/mbedtls/cipher.h ****     MBEDTLS_MODE_GCM,                    /**< The GCM cipher mode. */
 190:/home/xingli/share/1205tiny/network/dtls/mbedtls/mbedtls-2.16.2/include/mbedtls/cipher.h ****     MBEDTLS_MODE_STREAM,                 /**< The stream cipher mode. */
 191:/home/xingli/share/1205tiny/network/dtls/mbedtls/mbedtls-2.16.2/include/mbedtls/cipher.h ****     MBEDTLS_MODE_CCM,                    /**< The CCM cipher mode. */
 192:/home/xingli/share/1205tiny/network/dtls/mbedtls/mbedtls-2.16.2/include/mbedtls/cipher.h ****     MBEDTLS_MODE_XTS,                    /**< The XTS cipher mode. */
 193:/home/xingli/share/1205tiny/network/dtls/mbedtls/mbedtls-2.16.2/include/mbedtls/cipher.h ****     MBEDTLS_MODE_CHACHAPOLY,             /**< The ChaCha-Poly cipher mode. */
 194:/home/xingli/share/1205tiny/network/dtls/mbedtls/mbedtls-2.16.2/include/mbedtls/cipher.h **** } mbedtls_cipher_mode_t;
 195:/home/xingli/share/1205tiny/network/dtls/mbedtls/mbedtls-2.16.2/include/mbedtls/cipher.h **** 
 196:/home/xingli/share/1205tiny/network/dtls/mbedtls/mbedtls-2.16.2/include/mbedtls/cipher.h **** /** Supported cipher padding types. */
 197:/home/xingli/share/1205tiny/network/dtls/mbedtls/mbedtls-2.16.2/include/mbedtls/cipher.h **** typedef enum {
 198:/home/xingli/share/1205tiny/network/dtls/mbedtls/mbedtls-2.16.2/include/mbedtls/cipher.h ****     MBEDTLS_PADDING_PKCS7 = 0,     /**< PKCS7 padding (default).        */
 199:/home/xingli/share/1205tiny/network/dtls/mbedtls/mbedtls-2.16.2/include/mbedtls/cipher.h ****     MBEDTLS_PADDING_ONE_AND_ZEROS, /**< ISO/IEC 7816-4 padding.         */
 200:/home/xingli/share/1205tiny/network/dtls/mbedtls/mbedtls-2.16.2/include/mbedtls/cipher.h ****     MBEDTLS_PADDING_ZEROS_AND_LEN, /**< ANSI X.923 padding.             */
 201:/home/xingli/share/1205tiny/network/dtls/mbedtls/mbedtls-2.16.2/include/mbedtls/cipher.h ****     MBEDTLS_PADDING_ZEROS,         /**< Zero padding (not reversible). */
 202:/home/xingli/share/1205tiny/network/dtls/mbedtls/mbedtls-2.16.2/include/mbedtls/cipher.h ****     MBEDTLS_PADDING_NONE,          /**< Never pad (full blocks only).   */
 203:/home/xingli/share/1205tiny/network/dtls/mbedtls/mbedtls-2.16.2/include/mbedtls/cipher.h **** } mbedtls_cipher_padding_t;
 204:/home/xingli/share/1205tiny/network/dtls/mbedtls/mbedtls-2.16.2/include/mbedtls/cipher.h **** 
 205:/home/xingli/share/1205tiny/network/dtls/mbedtls/mbedtls-2.16.2/include/mbedtls/cipher.h **** /** Type of operation. */
 206:/home/xingli/share/1205tiny/network/dtls/mbedtls/mbedtls-2.16.2/include/mbedtls/cipher.h **** typedef enum {
 207:/home/xingli/share/1205tiny/network/dtls/mbedtls/mbedtls-2.16.2/include/mbedtls/cipher.h ****     MBEDTLS_OPERATION_NONE = -1,
 208:/home/xingli/share/1205tiny/network/dtls/mbedtls/mbedtls-2.16.2/include/mbedtls/cipher.h ****     MBEDTLS_DECRYPT = 0,
 209:/home/xingli/share/1205tiny/network/dtls/mbedtls/mbedtls-2.16.2/include/mbedtls/cipher.h ****     MBEDTLS_ENCRYPT,
 210:/home/xingli/share/1205tiny/network/dtls/mbedtls/mbedtls-2.16.2/include/mbedtls/cipher.h **** } mbedtls_operation_t;
 211:/home/xingli/share/1205tiny/network/dtls/mbedtls/mbedtls-2.16.2/include/mbedtls/cipher.h **** 
 212:/home/xingli/share/1205tiny/network/dtls/mbedtls/mbedtls-2.16.2/include/mbedtls/cipher.h **** enum {
 213:/home/xingli/share/1205tiny/network/dtls/mbedtls/mbedtls-2.16.2/include/mbedtls/cipher.h ****     /** Undefined key length. */
 214:/home/xingli/share/1205tiny/network/dtls/mbedtls/mbedtls-2.16.2/include/mbedtls/cipher.h ****     MBEDTLS_KEY_LENGTH_NONE = 0,
 215:/home/xingli/share/1205tiny/network/dtls/mbedtls/mbedtls-2.16.2/include/mbedtls/cipher.h ****     /** Key length, in bits (including parity), for DES keys. */
 216:/home/xingli/share/1205tiny/network/dtls/mbedtls/mbedtls-2.16.2/include/mbedtls/cipher.h ****     MBEDTLS_KEY_LENGTH_DES  = 64,
 217:/home/xingli/share/1205tiny/network/dtls/mbedtls/mbedtls-2.16.2/include/mbedtls/cipher.h ****     /** Key length in bits, including parity, for DES in two-key EDE. */
 218:/home/xingli/share/1205tiny/network/dtls/mbedtls/mbedtls-2.16.2/include/mbedtls/cipher.h ****     MBEDTLS_KEY_LENGTH_DES_EDE = 128,
 219:/home/xingli/share/1205tiny/network/dtls/mbedtls/mbedtls-2.16.2/include/mbedtls/cipher.h ****     /** Key length in bits, including parity, for DES in three-key EDE. */
 220:/home/xingli/share/1205tiny/network/dtls/mbedtls/mbedtls-2.16.2/include/mbedtls/cipher.h ****     MBEDTLS_KEY_LENGTH_DES_EDE3 = 192,
 221:/home/xingli/share/1205tiny/network/dtls/mbedtls/mbedtls-2.16.2/include/mbedtls/cipher.h **** };
 222:/home/xingli/share/1205tiny/network/dtls/mbedtls/mbedtls-2.16.2/include/mbedtls/cipher.h **** 
 223:/home/xingli/share/1205tiny/network/dtls/mbedtls/mbedtls-2.16.2/include/mbedtls/cipher.h **** /** Maximum length of any IV, in Bytes. */
 224:/home/xingli/share/1205tiny/network/dtls/mbedtls/mbedtls-2.16.2/include/mbedtls/cipher.h **** #define MBEDTLS_MAX_IV_LENGTH      16
 225:/home/xingli/share/1205tiny/network/dtls/mbedtls/mbedtls-2.16.2/include/mbedtls/cipher.h **** /** Maximum block size of any cipher, in Bytes. */
 226:/home/xingli/share/1205tiny/network/dtls/mbedtls/mbedtls-2.16.2/include/mbedtls/cipher.h **** #define MBEDTLS_MAX_BLOCK_LENGTH   16
 227:/home/xingli/share/1205tiny/network/dtls/mbedtls/mbedtls-2.16.2/include/mbedtls/cipher.h **** 
 228:/home/xingli/share/1205tiny/network/dtls/mbedtls/mbedtls-2.16.2/include/mbedtls/cipher.h **** /**
 229:/home/xingli/share/1205tiny/network/dtls/mbedtls/mbedtls-2.16.2/include/mbedtls/cipher.h ****  * Base cipher information (opaque struct).
 230:/home/xingli/share/1205tiny/network/dtls/mbedtls/mbedtls-2.16.2/include/mbedtls/cipher.h ****  */
 231:/home/xingli/share/1205tiny/network/dtls/mbedtls/mbedtls-2.16.2/include/mbedtls/cipher.h **** typedef struct mbedtls_cipher_base_t mbedtls_cipher_base_t;
 232:/home/xingli/share/1205tiny/network/dtls/mbedtls/mbedtls-2.16.2/include/mbedtls/cipher.h **** 
 233:/home/xingli/share/1205tiny/network/dtls/mbedtls/mbedtls-2.16.2/include/mbedtls/cipher.h **** /**
 234:/home/xingli/share/1205tiny/network/dtls/mbedtls/mbedtls-2.16.2/include/mbedtls/cipher.h ****  * CMAC context (opaque struct).
GAS LISTING /tmp/ccEn8xFO.s 			page 9


 235:/home/xingli/share/1205tiny/network/dtls/mbedtls/mbedtls-2.16.2/include/mbedtls/cipher.h ****  */
 236:/home/xingli/share/1205tiny/network/dtls/mbedtls/mbedtls-2.16.2/include/mbedtls/cipher.h **** typedef struct mbedtls_cmac_context_t mbedtls_cmac_context_t;
 237:/home/xingli/share/1205tiny/network/dtls/mbedtls/mbedtls-2.16.2/include/mbedtls/cipher.h **** 
 238:/home/xingli/share/1205tiny/network/dtls/mbedtls/mbedtls-2.16.2/include/mbedtls/cipher.h **** /**
 239:/home/xingli/share/1205tiny/network/dtls/mbedtls/mbedtls-2.16.2/include/mbedtls/cipher.h ****  * Cipher information. Allows calling cipher functions
 240:/home/xingli/share/1205tiny/network/dtls/mbedtls/mbedtls-2.16.2/include/mbedtls/cipher.h ****  * in a generic way.
 241:/home/xingli/share/1205tiny/network/dtls/mbedtls/mbedtls-2.16.2/include/mbedtls/cipher.h ****  */
 242:/home/xingli/share/1205tiny/network/dtls/mbedtls/mbedtls-2.16.2/include/mbedtls/cipher.h **** typedef struct mbedtls_cipher_info_t
 243:/home/xingli/share/1205tiny/network/dtls/mbedtls/mbedtls-2.16.2/include/mbedtls/cipher.h **** {
 244:/home/xingli/share/1205tiny/network/dtls/mbedtls/mbedtls-2.16.2/include/mbedtls/cipher.h ****     /** Full cipher identifier. For example,
 245:/home/xingli/share/1205tiny/network/dtls/mbedtls/mbedtls-2.16.2/include/mbedtls/cipher.h ****      * MBEDTLS_CIPHER_AES_256_CBC.
 246:/home/xingli/share/1205tiny/network/dtls/mbedtls/mbedtls-2.16.2/include/mbedtls/cipher.h ****      */
 247:/home/xingli/share/1205tiny/network/dtls/mbedtls/mbedtls-2.16.2/include/mbedtls/cipher.h ****     mbedtls_cipher_type_t type;
 248:/home/xingli/share/1205tiny/network/dtls/mbedtls/mbedtls-2.16.2/include/mbedtls/cipher.h **** 
 249:/home/xingli/share/1205tiny/network/dtls/mbedtls/mbedtls-2.16.2/include/mbedtls/cipher.h ****     /** The cipher mode. For example, MBEDTLS_MODE_CBC. */
 250:/home/xingli/share/1205tiny/network/dtls/mbedtls/mbedtls-2.16.2/include/mbedtls/cipher.h ****     mbedtls_cipher_mode_t mode;
 251:/home/xingli/share/1205tiny/network/dtls/mbedtls/mbedtls-2.16.2/include/mbedtls/cipher.h **** 
 252:/home/xingli/share/1205tiny/network/dtls/mbedtls/mbedtls-2.16.2/include/mbedtls/cipher.h ****     /** The cipher key length, in bits. This is the
 253:/home/xingli/share/1205tiny/network/dtls/mbedtls/mbedtls-2.16.2/include/mbedtls/cipher.h ****      * default length for variable sized ciphers.
 254:/home/xingli/share/1205tiny/network/dtls/mbedtls/mbedtls-2.16.2/include/mbedtls/cipher.h ****      * Includes parity bits for ciphers like DES.
 255:/home/xingli/share/1205tiny/network/dtls/mbedtls/mbedtls-2.16.2/include/mbedtls/cipher.h ****      */
 256:/home/xingli/share/1205tiny/network/dtls/mbedtls/mbedtls-2.16.2/include/mbedtls/cipher.h ****     unsigned int key_bitlen;
 257:/home/xingli/share/1205tiny/network/dtls/mbedtls/mbedtls-2.16.2/include/mbedtls/cipher.h **** 
 258:/home/xingli/share/1205tiny/network/dtls/mbedtls/mbedtls-2.16.2/include/mbedtls/cipher.h ****     /** Name of the cipher. */
 259:/home/xingli/share/1205tiny/network/dtls/mbedtls/mbedtls-2.16.2/include/mbedtls/cipher.h ****     const char * name;
 260:/home/xingli/share/1205tiny/network/dtls/mbedtls/mbedtls-2.16.2/include/mbedtls/cipher.h **** 
 261:/home/xingli/share/1205tiny/network/dtls/mbedtls/mbedtls-2.16.2/include/mbedtls/cipher.h ****     /** IV or nonce size, in Bytes.
 262:/home/xingli/share/1205tiny/network/dtls/mbedtls/mbedtls-2.16.2/include/mbedtls/cipher.h ****      * For ciphers that accept variable IV sizes,
 263:/home/xingli/share/1205tiny/network/dtls/mbedtls/mbedtls-2.16.2/include/mbedtls/cipher.h ****      * this is the recommended size.
 264:/home/xingli/share/1205tiny/network/dtls/mbedtls/mbedtls-2.16.2/include/mbedtls/cipher.h ****      */
 265:/home/xingli/share/1205tiny/network/dtls/mbedtls/mbedtls-2.16.2/include/mbedtls/cipher.h ****     unsigned int iv_size;
 266:/home/xingli/share/1205tiny/network/dtls/mbedtls/mbedtls-2.16.2/include/mbedtls/cipher.h **** 
 267:/home/xingli/share/1205tiny/network/dtls/mbedtls/mbedtls-2.16.2/include/mbedtls/cipher.h ****     /** Bitflag comprised of MBEDTLS_CIPHER_VARIABLE_IV_LEN and
 268:/home/xingli/share/1205tiny/network/dtls/mbedtls/mbedtls-2.16.2/include/mbedtls/cipher.h ****      *  MBEDTLS_CIPHER_VARIABLE_KEY_LEN indicating whether the
 269:/home/xingli/share/1205tiny/network/dtls/mbedtls/mbedtls-2.16.2/include/mbedtls/cipher.h ****      *  cipher supports variable IV or variable key sizes, respectively.
 270:/home/xingli/share/1205tiny/network/dtls/mbedtls/mbedtls-2.16.2/include/mbedtls/cipher.h ****      */
 271:/home/xingli/share/1205tiny/network/dtls/mbedtls/mbedtls-2.16.2/include/mbedtls/cipher.h ****     int flags;
 272:/home/xingli/share/1205tiny/network/dtls/mbedtls/mbedtls-2.16.2/include/mbedtls/cipher.h **** 
 273:/home/xingli/share/1205tiny/network/dtls/mbedtls/mbedtls-2.16.2/include/mbedtls/cipher.h ****     /** The block size, in Bytes. */
 274:/home/xingli/share/1205tiny/network/dtls/mbedtls/mbedtls-2.16.2/include/mbedtls/cipher.h ****     unsigned int block_size;
 275:/home/xingli/share/1205tiny/network/dtls/mbedtls/mbedtls-2.16.2/include/mbedtls/cipher.h **** 
 276:/home/xingli/share/1205tiny/network/dtls/mbedtls/mbedtls-2.16.2/include/mbedtls/cipher.h ****     /** Struct for base cipher information and functions. */
 277:/home/xingli/share/1205tiny/network/dtls/mbedtls/mbedtls-2.16.2/include/mbedtls/cipher.h ****     const mbedtls_cipher_base_t *base;
 278:/home/xingli/share/1205tiny/network/dtls/mbedtls/mbedtls-2.16.2/include/mbedtls/cipher.h **** 
 279:/home/xingli/share/1205tiny/network/dtls/mbedtls/mbedtls-2.16.2/include/mbedtls/cipher.h **** } mbedtls_cipher_info_t;
 280:/home/xingli/share/1205tiny/network/dtls/mbedtls/mbedtls-2.16.2/include/mbedtls/cipher.h **** 
 281:/home/xingli/share/1205tiny/network/dtls/mbedtls/mbedtls-2.16.2/include/mbedtls/cipher.h **** /**
 282:/home/xingli/share/1205tiny/network/dtls/mbedtls/mbedtls-2.16.2/include/mbedtls/cipher.h ****  * Generic cipher context.
 283:/home/xingli/share/1205tiny/network/dtls/mbedtls/mbedtls-2.16.2/include/mbedtls/cipher.h ****  */
 284:/home/xingli/share/1205tiny/network/dtls/mbedtls/mbedtls-2.16.2/include/mbedtls/cipher.h **** typedef struct mbedtls_cipher_context_t
 285:/home/xingli/share/1205tiny/network/dtls/mbedtls/mbedtls-2.16.2/include/mbedtls/cipher.h **** {
 286:/home/xingli/share/1205tiny/network/dtls/mbedtls/mbedtls-2.16.2/include/mbedtls/cipher.h ****     /** Information about the associated cipher. */
 287:/home/xingli/share/1205tiny/network/dtls/mbedtls/mbedtls-2.16.2/include/mbedtls/cipher.h ****     const mbedtls_cipher_info_t *cipher_info;
 288:/home/xingli/share/1205tiny/network/dtls/mbedtls/mbedtls-2.16.2/include/mbedtls/cipher.h **** 
 289:/home/xingli/share/1205tiny/network/dtls/mbedtls/mbedtls-2.16.2/include/mbedtls/cipher.h ****     /** Key length to use. */
 290:/home/xingli/share/1205tiny/network/dtls/mbedtls/mbedtls-2.16.2/include/mbedtls/cipher.h ****     int key_bitlen;
 291:/home/xingli/share/1205tiny/network/dtls/mbedtls/mbedtls-2.16.2/include/mbedtls/cipher.h **** 
GAS LISTING /tmp/ccEn8xFO.s 			page 10


 292:/home/xingli/share/1205tiny/network/dtls/mbedtls/mbedtls-2.16.2/include/mbedtls/cipher.h ****     /** Operation that the key of the context has been
 293:/home/xingli/share/1205tiny/network/dtls/mbedtls/mbedtls-2.16.2/include/mbedtls/cipher.h ****      * initialized for.
 294:/home/xingli/share/1205tiny/network/dtls/mbedtls/mbedtls-2.16.2/include/mbedtls/cipher.h ****      */
 295:/home/xingli/share/1205tiny/network/dtls/mbedtls/mbedtls-2.16.2/include/mbedtls/cipher.h ****     mbedtls_operation_t operation;
 296:/home/xingli/share/1205tiny/network/dtls/mbedtls/mbedtls-2.16.2/include/mbedtls/cipher.h **** 
 297:/home/xingli/share/1205tiny/network/dtls/mbedtls/mbedtls-2.16.2/include/mbedtls/cipher.h **** #if defined(MBEDTLS_CIPHER_MODE_WITH_PADDING)
 298:/home/xingli/share/1205tiny/network/dtls/mbedtls/mbedtls-2.16.2/include/mbedtls/cipher.h ****     /** Padding functions to use, if relevant for
 299:/home/xingli/share/1205tiny/network/dtls/mbedtls/mbedtls-2.16.2/include/mbedtls/cipher.h ****      * the specific cipher mode.
 300:/home/xingli/share/1205tiny/network/dtls/mbedtls/mbedtls-2.16.2/include/mbedtls/cipher.h ****      */
 301:/home/xingli/share/1205tiny/network/dtls/mbedtls/mbedtls-2.16.2/include/mbedtls/cipher.h ****     void (*add_padding)( unsigned char *output, size_t olen, size_t data_len );
 302:/home/xingli/share/1205tiny/network/dtls/mbedtls/mbedtls-2.16.2/include/mbedtls/cipher.h ****     int (*get_padding)( unsigned char *input, size_t ilen, size_t *data_len );
 303:/home/xingli/share/1205tiny/network/dtls/mbedtls/mbedtls-2.16.2/include/mbedtls/cipher.h **** #endif
 304:/home/xingli/share/1205tiny/network/dtls/mbedtls/mbedtls-2.16.2/include/mbedtls/cipher.h **** 
 305:/home/xingli/share/1205tiny/network/dtls/mbedtls/mbedtls-2.16.2/include/mbedtls/cipher.h ****     /** Buffer for input that has not been processed yet. */
 306:/home/xingli/share/1205tiny/network/dtls/mbedtls/mbedtls-2.16.2/include/mbedtls/cipher.h ****     unsigned char unprocessed_data[MBEDTLS_MAX_BLOCK_LENGTH];
 307:/home/xingli/share/1205tiny/network/dtls/mbedtls/mbedtls-2.16.2/include/mbedtls/cipher.h **** 
 308:/home/xingli/share/1205tiny/network/dtls/mbedtls/mbedtls-2.16.2/include/mbedtls/cipher.h ****     /** Number of Bytes that have not been processed yet. */
 309:/home/xingli/share/1205tiny/network/dtls/mbedtls/mbedtls-2.16.2/include/mbedtls/cipher.h ****     size_t unprocessed_len;
 310:/home/xingli/share/1205tiny/network/dtls/mbedtls/mbedtls-2.16.2/include/mbedtls/cipher.h **** 
 311:/home/xingli/share/1205tiny/network/dtls/mbedtls/mbedtls-2.16.2/include/mbedtls/cipher.h ****     /** Current IV or NONCE_COUNTER for CTR-mode, data unit (or sector) number
 312:/home/xingli/share/1205tiny/network/dtls/mbedtls/mbedtls-2.16.2/include/mbedtls/cipher.h ****      * for XTS-mode. */
 313:/home/xingli/share/1205tiny/network/dtls/mbedtls/mbedtls-2.16.2/include/mbedtls/cipher.h ****     unsigned char iv[MBEDTLS_MAX_IV_LENGTH];
 314:/home/xingli/share/1205tiny/network/dtls/mbedtls/mbedtls-2.16.2/include/mbedtls/cipher.h **** 
 315:/home/xingli/share/1205tiny/network/dtls/mbedtls/mbedtls-2.16.2/include/mbedtls/cipher.h ****     /** IV size in Bytes, for ciphers with variable-length IVs. */
 316:/home/xingli/share/1205tiny/network/dtls/mbedtls/mbedtls-2.16.2/include/mbedtls/cipher.h ****     size_t iv_size;
 317:/home/xingli/share/1205tiny/network/dtls/mbedtls/mbedtls-2.16.2/include/mbedtls/cipher.h **** 
 318:/home/xingli/share/1205tiny/network/dtls/mbedtls/mbedtls-2.16.2/include/mbedtls/cipher.h ****     /** The cipher-specific context. */
 319:/home/xingli/share/1205tiny/network/dtls/mbedtls/mbedtls-2.16.2/include/mbedtls/cipher.h ****     void *cipher_ctx;
 320:/home/xingli/share/1205tiny/network/dtls/mbedtls/mbedtls-2.16.2/include/mbedtls/cipher.h **** 
 321:/home/xingli/share/1205tiny/network/dtls/mbedtls/mbedtls-2.16.2/include/mbedtls/cipher.h **** #if defined(MBEDTLS_CMAC_C)
 322:/home/xingli/share/1205tiny/network/dtls/mbedtls/mbedtls-2.16.2/include/mbedtls/cipher.h ****     /** CMAC-specific context. */
 323:/home/xingli/share/1205tiny/network/dtls/mbedtls/mbedtls-2.16.2/include/mbedtls/cipher.h ****     mbedtls_cmac_context_t *cmac_ctx;
 324:/home/xingli/share/1205tiny/network/dtls/mbedtls/mbedtls-2.16.2/include/mbedtls/cipher.h **** #endif
 325:/home/xingli/share/1205tiny/network/dtls/mbedtls/mbedtls-2.16.2/include/mbedtls/cipher.h **** } mbedtls_cipher_context_t;
 326:/home/xingli/share/1205tiny/network/dtls/mbedtls/mbedtls-2.16.2/include/mbedtls/cipher.h **** 
 327:/home/xingli/share/1205tiny/network/dtls/mbedtls/mbedtls-2.16.2/include/mbedtls/cipher.h **** /**
 328:/home/xingli/share/1205tiny/network/dtls/mbedtls/mbedtls-2.16.2/include/mbedtls/cipher.h ****  * \brief This function retrieves the list of ciphers supported by the generic
 329:/home/xingli/share/1205tiny/network/dtls/mbedtls/mbedtls-2.16.2/include/mbedtls/cipher.h ****  * cipher module.
 330:/home/xingli/share/1205tiny/network/dtls/mbedtls/mbedtls-2.16.2/include/mbedtls/cipher.h ****  *
 331:/home/xingli/share/1205tiny/network/dtls/mbedtls/mbedtls-2.16.2/include/mbedtls/cipher.h ****  * \return      A statically-allocated array of ciphers. The last entry
 332:/home/xingli/share/1205tiny/network/dtls/mbedtls/mbedtls-2.16.2/include/mbedtls/cipher.h ****  *              is zero.
 333:/home/xingli/share/1205tiny/network/dtls/mbedtls/mbedtls-2.16.2/include/mbedtls/cipher.h ****  */
 334:/home/xingli/share/1205tiny/network/dtls/mbedtls/mbedtls-2.16.2/include/mbedtls/cipher.h **** const int *mbedtls_cipher_list( void );
 335:/home/xingli/share/1205tiny/network/dtls/mbedtls/mbedtls-2.16.2/include/mbedtls/cipher.h **** 
 336:/home/xingli/share/1205tiny/network/dtls/mbedtls/mbedtls-2.16.2/include/mbedtls/cipher.h **** /**
 337:/home/xingli/share/1205tiny/network/dtls/mbedtls/mbedtls-2.16.2/include/mbedtls/cipher.h ****  * \brief               This function retrieves the cipher-information
 338:/home/xingli/share/1205tiny/network/dtls/mbedtls/mbedtls-2.16.2/include/mbedtls/cipher.h ****  *                      structure associated with the given cipher name.
 339:/home/xingli/share/1205tiny/network/dtls/mbedtls/mbedtls-2.16.2/include/mbedtls/cipher.h ****  *
 340:/home/xingli/share/1205tiny/network/dtls/mbedtls/mbedtls-2.16.2/include/mbedtls/cipher.h ****  * \param cipher_name   Name of the cipher to search for. This must not be
 341:/home/xingli/share/1205tiny/network/dtls/mbedtls/mbedtls-2.16.2/include/mbedtls/cipher.h ****  *                      \c NULL.
 342:/home/xingli/share/1205tiny/network/dtls/mbedtls/mbedtls-2.16.2/include/mbedtls/cipher.h ****  *
 343:/home/xingli/share/1205tiny/network/dtls/mbedtls/mbedtls-2.16.2/include/mbedtls/cipher.h ****  * \return              The cipher information structure associated with the
 344:/home/xingli/share/1205tiny/network/dtls/mbedtls/mbedtls-2.16.2/include/mbedtls/cipher.h ****  *                      given \p cipher_name.
 345:/home/xingli/share/1205tiny/network/dtls/mbedtls/mbedtls-2.16.2/include/mbedtls/cipher.h ****  * \return              \c NULL if the associated cipher information is not found.
 346:/home/xingli/share/1205tiny/network/dtls/mbedtls/mbedtls-2.16.2/include/mbedtls/cipher.h ****  */
 347:/home/xingli/share/1205tiny/network/dtls/mbedtls/mbedtls-2.16.2/include/mbedtls/cipher.h **** const mbedtls_cipher_info_t *mbedtls_cipher_info_from_string( const char *cipher_name );
 348:/home/xingli/share/1205tiny/network/dtls/mbedtls/mbedtls-2.16.2/include/mbedtls/cipher.h **** 
GAS LISTING /tmp/ccEn8xFO.s 			page 11


 349:/home/xingli/share/1205tiny/network/dtls/mbedtls/mbedtls-2.16.2/include/mbedtls/cipher.h **** /**
 350:/home/xingli/share/1205tiny/network/dtls/mbedtls/mbedtls-2.16.2/include/mbedtls/cipher.h ****  * \brief               This function retrieves the cipher-information
 351:/home/xingli/share/1205tiny/network/dtls/mbedtls/mbedtls-2.16.2/include/mbedtls/cipher.h ****  *                      structure associated with the given cipher type.
 352:/home/xingli/share/1205tiny/network/dtls/mbedtls/mbedtls-2.16.2/include/mbedtls/cipher.h ****  *
 353:/home/xingli/share/1205tiny/network/dtls/mbedtls/mbedtls-2.16.2/include/mbedtls/cipher.h ****  * \param cipher_type   Type of the cipher to search for.
 354:/home/xingli/share/1205tiny/network/dtls/mbedtls/mbedtls-2.16.2/include/mbedtls/cipher.h ****  *
 355:/home/xingli/share/1205tiny/network/dtls/mbedtls/mbedtls-2.16.2/include/mbedtls/cipher.h ****  * \return              The cipher information structure associated with the
 356:/home/xingli/share/1205tiny/network/dtls/mbedtls/mbedtls-2.16.2/include/mbedtls/cipher.h ****  *                      given \p cipher_type.
 357:/home/xingli/share/1205tiny/network/dtls/mbedtls/mbedtls-2.16.2/include/mbedtls/cipher.h ****  * \return              \c NULL if the associated cipher information is not found.
 358:/home/xingli/share/1205tiny/network/dtls/mbedtls/mbedtls-2.16.2/include/mbedtls/cipher.h ****  */
 359:/home/xingli/share/1205tiny/network/dtls/mbedtls/mbedtls-2.16.2/include/mbedtls/cipher.h **** const mbedtls_cipher_info_t *mbedtls_cipher_info_from_type( const mbedtls_cipher_type_t cipher_type
 360:/home/xingli/share/1205tiny/network/dtls/mbedtls/mbedtls-2.16.2/include/mbedtls/cipher.h **** 
 361:/home/xingli/share/1205tiny/network/dtls/mbedtls/mbedtls-2.16.2/include/mbedtls/cipher.h **** /**
 362:/home/xingli/share/1205tiny/network/dtls/mbedtls/mbedtls-2.16.2/include/mbedtls/cipher.h ****  * \brief               This function retrieves the cipher-information
 363:/home/xingli/share/1205tiny/network/dtls/mbedtls/mbedtls-2.16.2/include/mbedtls/cipher.h ****  *                      structure associated with the given cipher ID,
 364:/home/xingli/share/1205tiny/network/dtls/mbedtls/mbedtls-2.16.2/include/mbedtls/cipher.h ****  *                      key size and mode.
 365:/home/xingli/share/1205tiny/network/dtls/mbedtls/mbedtls-2.16.2/include/mbedtls/cipher.h ****  *
 366:/home/xingli/share/1205tiny/network/dtls/mbedtls/mbedtls-2.16.2/include/mbedtls/cipher.h ****  * \param cipher_id     The ID of the cipher to search for. For example,
 367:/home/xingli/share/1205tiny/network/dtls/mbedtls/mbedtls-2.16.2/include/mbedtls/cipher.h ****  *                      #MBEDTLS_CIPHER_ID_AES.
 368:/home/xingli/share/1205tiny/network/dtls/mbedtls/mbedtls-2.16.2/include/mbedtls/cipher.h ****  * \param key_bitlen    The length of the key in bits.
 369:/home/xingli/share/1205tiny/network/dtls/mbedtls/mbedtls-2.16.2/include/mbedtls/cipher.h ****  * \param mode          The cipher mode. For example, #MBEDTLS_MODE_CBC.
 370:/home/xingli/share/1205tiny/network/dtls/mbedtls/mbedtls-2.16.2/include/mbedtls/cipher.h ****  *
 371:/home/xingli/share/1205tiny/network/dtls/mbedtls/mbedtls-2.16.2/include/mbedtls/cipher.h ****  * \return              The cipher information structure associated with the
 372:/home/xingli/share/1205tiny/network/dtls/mbedtls/mbedtls-2.16.2/include/mbedtls/cipher.h ****  *                      given \p cipher_id.
 373:/home/xingli/share/1205tiny/network/dtls/mbedtls/mbedtls-2.16.2/include/mbedtls/cipher.h ****  * \return              \c NULL if the associated cipher information is not found.
 374:/home/xingli/share/1205tiny/network/dtls/mbedtls/mbedtls-2.16.2/include/mbedtls/cipher.h ****  */
 375:/home/xingli/share/1205tiny/network/dtls/mbedtls/mbedtls-2.16.2/include/mbedtls/cipher.h **** const mbedtls_cipher_info_t *mbedtls_cipher_info_from_values( const mbedtls_cipher_id_t cipher_id,
 376:/home/xingli/share/1205tiny/network/dtls/mbedtls/mbedtls-2.16.2/include/mbedtls/cipher.h ****                                               int key_bitlen,
 377:/home/xingli/share/1205tiny/network/dtls/mbedtls/mbedtls-2.16.2/include/mbedtls/cipher.h ****                                               const mbedtls_cipher_mode_t mode );
 378:/home/xingli/share/1205tiny/network/dtls/mbedtls/mbedtls-2.16.2/include/mbedtls/cipher.h **** 
 379:/home/xingli/share/1205tiny/network/dtls/mbedtls/mbedtls-2.16.2/include/mbedtls/cipher.h **** /**
 380:/home/xingli/share/1205tiny/network/dtls/mbedtls/mbedtls-2.16.2/include/mbedtls/cipher.h ****  * \brief               This function initializes a \p cipher_context as NONE.
 381:/home/xingli/share/1205tiny/network/dtls/mbedtls/mbedtls-2.16.2/include/mbedtls/cipher.h ****  *
 382:/home/xingli/share/1205tiny/network/dtls/mbedtls/mbedtls-2.16.2/include/mbedtls/cipher.h ****  * \param ctx           The context to be initialized. This must not be \c NULL.
 383:/home/xingli/share/1205tiny/network/dtls/mbedtls/mbedtls-2.16.2/include/mbedtls/cipher.h ****  */
 384:/home/xingli/share/1205tiny/network/dtls/mbedtls/mbedtls-2.16.2/include/mbedtls/cipher.h **** void mbedtls_cipher_init( mbedtls_cipher_context_t *ctx );
 385:/home/xingli/share/1205tiny/network/dtls/mbedtls/mbedtls-2.16.2/include/mbedtls/cipher.h **** 
 386:/home/xingli/share/1205tiny/network/dtls/mbedtls/mbedtls-2.16.2/include/mbedtls/cipher.h **** /**
 387:/home/xingli/share/1205tiny/network/dtls/mbedtls/mbedtls-2.16.2/include/mbedtls/cipher.h ****  * \brief               This function frees and clears the cipher-specific
 388:/home/xingli/share/1205tiny/network/dtls/mbedtls/mbedtls-2.16.2/include/mbedtls/cipher.h ****  *                      context of \p ctx. Freeing \p ctx itself remains the
 389:/home/xingli/share/1205tiny/network/dtls/mbedtls/mbedtls-2.16.2/include/mbedtls/cipher.h ****  *                      responsibility of the caller.
 390:/home/xingli/share/1205tiny/network/dtls/mbedtls/mbedtls-2.16.2/include/mbedtls/cipher.h ****  *
 391:/home/xingli/share/1205tiny/network/dtls/mbedtls/mbedtls-2.16.2/include/mbedtls/cipher.h ****  * \param ctx           The context to be freed. If this is \c NULL, the
 392:/home/xingli/share/1205tiny/network/dtls/mbedtls/mbedtls-2.16.2/include/mbedtls/cipher.h ****  *                      function has no effect, otherwise this must point to an
 393:/home/xingli/share/1205tiny/network/dtls/mbedtls/mbedtls-2.16.2/include/mbedtls/cipher.h ****  *                      initialized context.
 394:/home/xingli/share/1205tiny/network/dtls/mbedtls/mbedtls-2.16.2/include/mbedtls/cipher.h ****  */
 395:/home/xingli/share/1205tiny/network/dtls/mbedtls/mbedtls-2.16.2/include/mbedtls/cipher.h **** void mbedtls_cipher_free( mbedtls_cipher_context_t *ctx );
 396:/home/xingli/share/1205tiny/network/dtls/mbedtls/mbedtls-2.16.2/include/mbedtls/cipher.h **** 
 397:/home/xingli/share/1205tiny/network/dtls/mbedtls/mbedtls-2.16.2/include/mbedtls/cipher.h **** 
 398:/home/xingli/share/1205tiny/network/dtls/mbedtls/mbedtls-2.16.2/include/mbedtls/cipher.h **** /**
 399:/home/xingli/share/1205tiny/network/dtls/mbedtls/mbedtls-2.16.2/include/mbedtls/cipher.h ****  * \brief               This function initializes and fills the cipher-context
 400:/home/xingli/share/1205tiny/network/dtls/mbedtls/mbedtls-2.16.2/include/mbedtls/cipher.h ****  *                      structure with the appropriate values. It also clears
 401:/home/xingli/share/1205tiny/network/dtls/mbedtls/mbedtls-2.16.2/include/mbedtls/cipher.h ****  *                      the structure.
 402:/home/xingli/share/1205tiny/network/dtls/mbedtls/mbedtls-2.16.2/include/mbedtls/cipher.h ****  *
 403:/home/xingli/share/1205tiny/network/dtls/mbedtls/mbedtls-2.16.2/include/mbedtls/cipher.h ****  * \param ctx           The context to initialize. This must be initialized.
 404:/home/xingli/share/1205tiny/network/dtls/mbedtls/mbedtls-2.16.2/include/mbedtls/cipher.h ****  * \param cipher_info   The cipher to use.
 405:/home/xingli/share/1205tiny/network/dtls/mbedtls/mbedtls-2.16.2/include/mbedtls/cipher.h ****  *
GAS LISTING /tmp/ccEn8xFO.s 			page 12


 406:/home/xingli/share/1205tiny/network/dtls/mbedtls/mbedtls-2.16.2/include/mbedtls/cipher.h ****  * \return              \c 0 on success.
 407:/home/xingli/share/1205tiny/network/dtls/mbedtls/mbedtls-2.16.2/include/mbedtls/cipher.h ****  * \return              #MBEDTLS_ERR_CIPHER_BAD_INPUT_DATA on
 408:/home/xingli/share/1205tiny/network/dtls/mbedtls/mbedtls-2.16.2/include/mbedtls/cipher.h ****  *                      parameter-verification failure.
 409:/home/xingli/share/1205tiny/network/dtls/mbedtls/mbedtls-2.16.2/include/mbedtls/cipher.h ****  * \return              #MBEDTLS_ERR_CIPHER_ALLOC_FAILED if allocation of the
 410:/home/xingli/share/1205tiny/network/dtls/mbedtls/mbedtls-2.16.2/include/mbedtls/cipher.h ****  *                      cipher-specific context fails.
 411:/home/xingli/share/1205tiny/network/dtls/mbedtls/mbedtls-2.16.2/include/mbedtls/cipher.h ****  *
 412:/home/xingli/share/1205tiny/network/dtls/mbedtls/mbedtls-2.16.2/include/mbedtls/cipher.h ****  * \internal Currently, the function also clears the structure.
 413:/home/xingli/share/1205tiny/network/dtls/mbedtls/mbedtls-2.16.2/include/mbedtls/cipher.h ****  * In future versions, the caller will be required to call
 414:/home/xingli/share/1205tiny/network/dtls/mbedtls/mbedtls-2.16.2/include/mbedtls/cipher.h ****  * mbedtls_cipher_init() on the structure first.
 415:/home/xingli/share/1205tiny/network/dtls/mbedtls/mbedtls-2.16.2/include/mbedtls/cipher.h ****  */
 416:/home/xingli/share/1205tiny/network/dtls/mbedtls/mbedtls-2.16.2/include/mbedtls/cipher.h **** int mbedtls_cipher_setup( mbedtls_cipher_context_t *ctx,
 417:/home/xingli/share/1205tiny/network/dtls/mbedtls/mbedtls-2.16.2/include/mbedtls/cipher.h ****                           const mbedtls_cipher_info_t *cipher_info );
 418:/home/xingli/share/1205tiny/network/dtls/mbedtls/mbedtls-2.16.2/include/mbedtls/cipher.h **** 
 419:/home/xingli/share/1205tiny/network/dtls/mbedtls/mbedtls-2.16.2/include/mbedtls/cipher.h **** /**
 420:/home/xingli/share/1205tiny/network/dtls/mbedtls/mbedtls-2.16.2/include/mbedtls/cipher.h ****  * \brief        This function returns the block size of the given cipher.
 421:/home/xingli/share/1205tiny/network/dtls/mbedtls/mbedtls-2.16.2/include/mbedtls/cipher.h ****  *
 422:/home/xingli/share/1205tiny/network/dtls/mbedtls/mbedtls-2.16.2/include/mbedtls/cipher.h ****  * \param ctx    The context of the cipher. This must be initialized.
 423:/home/xingli/share/1205tiny/network/dtls/mbedtls/mbedtls-2.16.2/include/mbedtls/cipher.h ****  *
 424:/home/xingli/share/1205tiny/network/dtls/mbedtls/mbedtls-2.16.2/include/mbedtls/cipher.h ****  * \return       The block size of the underlying cipher.
 425:/home/xingli/share/1205tiny/network/dtls/mbedtls/mbedtls-2.16.2/include/mbedtls/cipher.h ****  * \return       \c 0 if \p ctx has not been initialized.
 426:/home/xingli/share/1205tiny/network/dtls/mbedtls/mbedtls-2.16.2/include/mbedtls/cipher.h ****  */
 427:/home/xingli/share/1205tiny/network/dtls/mbedtls/mbedtls-2.16.2/include/mbedtls/cipher.h **** static inline unsigned int mbedtls_cipher_get_block_size(
 428:/home/xingli/share/1205tiny/network/dtls/mbedtls/mbedtls-2.16.2/include/mbedtls/cipher.h ****     const mbedtls_cipher_context_t *ctx )
 429:/home/xingli/share/1205tiny/network/dtls/mbedtls/mbedtls-2.16.2/include/mbedtls/cipher.h **** {
  48              		.loc 2 429 1
  49              		.cfi_startproc
  50 0000 55       		pushq	%rbp
  51              	.LCFI3:
  52              		.cfi_def_cfa_offset 16
  53              		.cfi_offset 6, -16
  54 0001 4889E5   		movq	%rsp, %rbp
  55              	.LCFI4:
  56              		.cfi_def_cfa_register 6
  57 0004 4883EC20 		subq	$32, %rsp
  58 0008 48897DE8 		movq	%rdi, -24(%rbp)
  59              		.loc 2 429 1
  60 000c 64488B04 		movq	%fs:40, %rax
  60      25280000 
  60      00
  61 0015 488945F8 		movq	%rax, -8(%rbp)
  62 0019 31C0     		xorl	%eax, %eax
 430:/home/xingli/share/1205tiny/network/dtls/mbedtls/mbedtls-2.16.2/include/mbedtls/cipher.h ****     MBEDTLS_INTERNAL_VALIDATE_RET( ctx != NULL, 0 );
 431:/home/xingli/share/1205tiny/network/dtls/mbedtls/mbedtls-2.16.2/include/mbedtls/cipher.h ****     if( ctx->cipher_info == NULL )
  63              		.loc 2 431 12
  64 001b 488B45E8 		movq	-24(%rbp), %rax
  65 001f 488B00   		movq	(%rax), %rax
  66              		.loc 2 431 7
  67 0022 4885C0   		testq	%rax, %rax
  68 0025 7507     		jne	.L5
 432:/home/xingli/share/1205tiny/network/dtls/mbedtls/mbedtls-2.16.2/include/mbedtls/cipher.h ****         return 0;
  69              		.loc 2 432 16
  70 0027 B8000000 		movl	$0, %eax
  70      00
  71 002c EB0A     		jmp	.L6
  72              	.L5:
 433:/home/xingli/share/1205tiny/network/dtls/mbedtls/mbedtls-2.16.2/include/mbedtls/cipher.h **** 
 434:/home/xingli/share/1205tiny/network/dtls/mbedtls/mbedtls-2.16.2/include/mbedtls/cipher.h ****     return ctx->cipher_info->block_size;
GAS LISTING /tmp/ccEn8xFO.s 			page 13


  73              		.loc 2 434 15
  74 002e 488B45E8 		movq	-24(%rbp), %rax
  75 0032 488B00   		movq	(%rax), %rax
  76              		.loc 2 434 28
  77 0035 8B4020   		movl	32(%rax), %eax
  78              	.L6:
 435:/home/xingli/share/1205tiny/network/dtls/mbedtls/mbedtls-2.16.2/include/mbedtls/cipher.h **** }
  79              		.loc 2 435 1
  80 0038 488B55F8 		movq	-8(%rbp), %rdx
  81 003c 64483314 		xorq	%fs:40, %rdx
  81      25280000 
  81      00
  82 0045 7405     		je	.L7
  83 0047 E8000000 		call	__stack_chk_fail@PLT
  83      00
  84              	.L7:
  85 004c C9       		leave
  86              	.LCFI5:
  87              		.cfi_def_cfa 7, 8
  88 004d C3       		ret
  89              		.cfi_endproc
  90              	.LFE9:
  92              		.section	.text.mbedtls_cipher_get_cipher_mode,"ax",@progbits
  94              	mbedtls_cipher_get_cipher_mode:
  95              	.LFB10:
 436:/home/xingli/share/1205tiny/network/dtls/mbedtls/mbedtls-2.16.2/include/mbedtls/cipher.h **** 
 437:/home/xingli/share/1205tiny/network/dtls/mbedtls/mbedtls-2.16.2/include/mbedtls/cipher.h **** /**
 438:/home/xingli/share/1205tiny/network/dtls/mbedtls/mbedtls-2.16.2/include/mbedtls/cipher.h ****  * \brief        This function returns the mode of operation for
 439:/home/xingli/share/1205tiny/network/dtls/mbedtls/mbedtls-2.16.2/include/mbedtls/cipher.h ****  *               the cipher. For example, MBEDTLS_MODE_CBC.
 440:/home/xingli/share/1205tiny/network/dtls/mbedtls/mbedtls-2.16.2/include/mbedtls/cipher.h ****  *
 441:/home/xingli/share/1205tiny/network/dtls/mbedtls/mbedtls-2.16.2/include/mbedtls/cipher.h ****  * \param ctx    The context of the cipher. This must be initialized.
 442:/home/xingli/share/1205tiny/network/dtls/mbedtls/mbedtls-2.16.2/include/mbedtls/cipher.h ****  *
 443:/home/xingli/share/1205tiny/network/dtls/mbedtls/mbedtls-2.16.2/include/mbedtls/cipher.h ****  * \return       The mode of operation.
 444:/home/xingli/share/1205tiny/network/dtls/mbedtls/mbedtls-2.16.2/include/mbedtls/cipher.h ****  * \return       #MBEDTLS_MODE_NONE if \p ctx has not been initialized.
 445:/home/xingli/share/1205tiny/network/dtls/mbedtls/mbedtls-2.16.2/include/mbedtls/cipher.h ****  */
 446:/home/xingli/share/1205tiny/network/dtls/mbedtls/mbedtls-2.16.2/include/mbedtls/cipher.h **** static inline mbedtls_cipher_mode_t mbedtls_cipher_get_cipher_mode(
 447:/home/xingli/share/1205tiny/network/dtls/mbedtls/mbedtls-2.16.2/include/mbedtls/cipher.h ****     const mbedtls_cipher_context_t *ctx )
 448:/home/xingli/share/1205tiny/network/dtls/mbedtls/mbedtls-2.16.2/include/mbedtls/cipher.h **** {
  96              		.loc 2 448 1
  97              		.cfi_startproc
  98 0000 55       		pushq	%rbp
  99              	.LCFI6:
 100              		.cfi_def_cfa_offset 16
 101              		.cfi_offset 6, -16
 102 0001 4889E5   		movq	%rsp, %rbp
 103              	.LCFI7:
 104              		.cfi_def_cfa_register 6
 105 0004 4883EC20 		subq	$32, %rsp
 106 0008 48897DE8 		movq	%rdi, -24(%rbp)
 107              		.loc 2 448 1
 108 000c 64488B04 		movq	%fs:40, %rax
 108      25280000 
 108      00
 109 0015 488945F8 		movq	%rax, -8(%rbp)
 110 0019 31C0     		xorl	%eax, %eax
 449:/home/xingli/share/1205tiny/network/dtls/mbedtls/mbedtls-2.16.2/include/mbedtls/cipher.h ****     MBEDTLS_INTERNAL_VALIDATE_RET( ctx != NULL, MBEDTLS_MODE_NONE );
 450:/home/xingli/share/1205tiny/network/dtls/mbedtls/mbedtls-2.16.2/include/mbedtls/cipher.h ****     if( ctx->cipher_info == NULL )
GAS LISTING /tmp/ccEn8xFO.s 			page 14


 111              		.loc 2 450 12
 112 001b 488B45E8 		movq	-24(%rbp), %rax
 113 001f 488B00   		movq	(%rax), %rax
 114              		.loc 2 450 7
 115 0022 4885C0   		testq	%rax, %rax
 116 0025 7507     		jne	.L9
 451:/home/xingli/share/1205tiny/network/dtls/mbedtls/mbedtls-2.16.2/include/mbedtls/cipher.h ****         return MBEDTLS_MODE_NONE;
 117              		.loc 2 451 16
 118 0027 B8000000 		movl	$0, %eax
 118      00
 119 002c EB0A     		jmp	.L10
 120              	.L9:
 452:/home/xingli/share/1205tiny/network/dtls/mbedtls/mbedtls-2.16.2/include/mbedtls/cipher.h **** 
 453:/home/xingli/share/1205tiny/network/dtls/mbedtls/mbedtls-2.16.2/include/mbedtls/cipher.h ****     return ctx->cipher_info->mode;
 121              		.loc 2 453 15
 122 002e 488B45E8 		movq	-24(%rbp), %rax
 123 0032 488B00   		movq	(%rax), %rax
 124              		.loc 2 453 28
 125 0035 8B4004   		movl	4(%rax), %eax
 126              	.L10:
 454:/home/xingli/share/1205tiny/network/dtls/mbedtls/mbedtls-2.16.2/include/mbedtls/cipher.h **** }
 127              		.loc 2 454 1
 128 0038 488B55F8 		movq	-8(%rbp), %rdx
 129 003c 64483314 		xorq	%fs:40, %rdx
 129      25280000 
 129      00
 130 0045 7405     		je	.L11
 131 0047 E8000000 		call	__stack_chk_fail@PLT
 131      00
 132              	.L11:
 133 004c C9       		leave
 134              	.LCFI8:
 135              		.cfi_def_cfa 7, 8
 136 004d C3       		ret
 137              		.cfi_endproc
 138              	.LFE10:
 140              		.section	.text.mbedtls_ssl_sig_hash_set_init,"ax",@progbits
 142              	mbedtls_ssl_sig_hash_set_init:
 143              	.LFB21:
 144              		.file 3 "/home/xingli/share/1205tiny/network/dtls/mbedtls/mbedtls-2.16.2/include/mbedtls/ssl_inter
   1:/home/xingli/share/1205tiny/network/dtls/mbedtls/mbedtls-2.16.2/include/mbedtls/ssl_internal.h **** /**
   2:/home/xingli/share/1205tiny/network/dtls/mbedtls/mbedtls-2.16.2/include/mbedtls/ssl_internal.h ****  * \file ssl_internal.h
   3:/home/xingli/share/1205tiny/network/dtls/mbedtls/mbedtls-2.16.2/include/mbedtls/ssl_internal.h ****  *
   4:/home/xingli/share/1205tiny/network/dtls/mbedtls/mbedtls-2.16.2/include/mbedtls/ssl_internal.h ****  * \brief Internal functions shared by the SSL modules
   5:/home/xingli/share/1205tiny/network/dtls/mbedtls/mbedtls-2.16.2/include/mbedtls/ssl_internal.h ****  */
   6:/home/xingli/share/1205tiny/network/dtls/mbedtls/mbedtls-2.16.2/include/mbedtls/ssl_internal.h **** /*
   7:/home/xingli/share/1205tiny/network/dtls/mbedtls/mbedtls-2.16.2/include/mbedtls/ssl_internal.h ****  *  Copyright (C) 2006-2015, ARM Limited, All Rights Reserved
   8:/home/xingli/share/1205tiny/network/dtls/mbedtls/mbedtls-2.16.2/include/mbedtls/ssl_internal.h ****  *  SPDX-License-Identifier: Apache-2.0
   9:/home/xingli/share/1205tiny/network/dtls/mbedtls/mbedtls-2.16.2/include/mbedtls/ssl_internal.h ****  *
  10:/home/xingli/share/1205tiny/network/dtls/mbedtls/mbedtls-2.16.2/include/mbedtls/ssl_internal.h ****  *  Licensed under the Apache License, Version 2.0 (the "License"); you may
  11:/home/xingli/share/1205tiny/network/dtls/mbedtls/mbedtls-2.16.2/include/mbedtls/ssl_internal.h ****  *  not use this file except in compliance with the License.
  12:/home/xingli/share/1205tiny/network/dtls/mbedtls/mbedtls-2.16.2/include/mbedtls/ssl_internal.h ****  *  You may obtain a copy of the License at
  13:/home/xingli/share/1205tiny/network/dtls/mbedtls/mbedtls-2.16.2/include/mbedtls/ssl_internal.h ****  *
  14:/home/xingli/share/1205tiny/network/dtls/mbedtls/mbedtls-2.16.2/include/mbedtls/ssl_internal.h ****  *  http://www.apache.org/licenses/LICENSE-2.0
  15:/home/xingli/share/1205tiny/network/dtls/mbedtls/mbedtls-2.16.2/include/mbedtls/ssl_internal.h ****  *
  16:/home/xingli/share/1205tiny/network/dtls/mbedtls/mbedtls-2.16.2/include/mbedtls/ssl_internal.h ****  *  Unless required by applicable law or agreed to in writing, software
  17:/home/xingli/share/1205tiny/network/dtls/mbedtls/mbedtls-2.16.2/include/mbedtls/ssl_internal.h ****  *  distributed under the License is distributed on an "AS IS" BASIS, WITHOUT
GAS LISTING /tmp/ccEn8xFO.s 			page 15


  18:/home/xingli/share/1205tiny/network/dtls/mbedtls/mbedtls-2.16.2/include/mbedtls/ssl_internal.h ****  *  WARRANTIES OR CONDITIONS OF ANY KIND, either express or implied.
  19:/home/xingli/share/1205tiny/network/dtls/mbedtls/mbedtls-2.16.2/include/mbedtls/ssl_internal.h ****  *  See the License for the specific language governing permissions and
  20:/home/xingli/share/1205tiny/network/dtls/mbedtls/mbedtls-2.16.2/include/mbedtls/ssl_internal.h ****  *  limitations under the License.
  21:/home/xingli/share/1205tiny/network/dtls/mbedtls/mbedtls-2.16.2/include/mbedtls/ssl_internal.h ****  *
  22:/home/xingli/share/1205tiny/network/dtls/mbedtls/mbedtls-2.16.2/include/mbedtls/ssl_internal.h ****  *  This file is part of mbed TLS (https://tls.mbed.org)
  23:/home/xingli/share/1205tiny/network/dtls/mbedtls/mbedtls-2.16.2/include/mbedtls/ssl_internal.h ****  */
  24:/home/xingli/share/1205tiny/network/dtls/mbedtls/mbedtls-2.16.2/include/mbedtls/ssl_internal.h **** #ifndef MBEDTLS_SSL_INTERNAL_H
  25:/home/xingli/share/1205tiny/network/dtls/mbedtls/mbedtls-2.16.2/include/mbedtls/ssl_internal.h **** #define MBEDTLS_SSL_INTERNAL_H
  26:/home/xingli/share/1205tiny/network/dtls/mbedtls/mbedtls-2.16.2/include/mbedtls/ssl_internal.h **** 
  27:/home/xingli/share/1205tiny/network/dtls/mbedtls/mbedtls-2.16.2/include/mbedtls/ssl_internal.h **** #if !defined(MBEDTLS_CONFIG_FILE)
  28:/home/xingli/share/1205tiny/network/dtls/mbedtls/mbedtls-2.16.2/include/mbedtls/ssl_internal.h **** #include "config.h"
  29:/home/xingli/share/1205tiny/network/dtls/mbedtls/mbedtls-2.16.2/include/mbedtls/ssl_internal.h **** #else
  30:/home/xingli/share/1205tiny/network/dtls/mbedtls/mbedtls-2.16.2/include/mbedtls/ssl_internal.h **** #include MBEDTLS_CONFIG_FILE
  31:/home/xingli/share/1205tiny/network/dtls/mbedtls/mbedtls-2.16.2/include/mbedtls/ssl_internal.h **** #endif
  32:/home/xingli/share/1205tiny/network/dtls/mbedtls/mbedtls-2.16.2/include/mbedtls/ssl_internal.h **** 
  33:/home/xingli/share/1205tiny/network/dtls/mbedtls/mbedtls-2.16.2/include/mbedtls/ssl_internal.h **** #include "ssl.h"
  34:/home/xingli/share/1205tiny/network/dtls/mbedtls/mbedtls-2.16.2/include/mbedtls/ssl_internal.h **** #include "cipher.h"
  35:/home/xingli/share/1205tiny/network/dtls/mbedtls/mbedtls-2.16.2/include/mbedtls/ssl_internal.h **** 
  36:/home/xingli/share/1205tiny/network/dtls/mbedtls/mbedtls-2.16.2/include/mbedtls/ssl_internal.h **** #if defined(MBEDTLS_MD5_C)
  37:/home/xingli/share/1205tiny/network/dtls/mbedtls/mbedtls-2.16.2/include/mbedtls/ssl_internal.h **** #include "md5.h"
  38:/home/xingli/share/1205tiny/network/dtls/mbedtls/mbedtls-2.16.2/include/mbedtls/ssl_internal.h **** #endif
  39:/home/xingli/share/1205tiny/network/dtls/mbedtls/mbedtls-2.16.2/include/mbedtls/ssl_internal.h **** 
  40:/home/xingli/share/1205tiny/network/dtls/mbedtls/mbedtls-2.16.2/include/mbedtls/ssl_internal.h **** #if defined(MBEDTLS_SHA1_C)
  41:/home/xingli/share/1205tiny/network/dtls/mbedtls/mbedtls-2.16.2/include/mbedtls/ssl_internal.h **** #include "sha1.h"
  42:/home/xingli/share/1205tiny/network/dtls/mbedtls/mbedtls-2.16.2/include/mbedtls/ssl_internal.h **** #endif
  43:/home/xingli/share/1205tiny/network/dtls/mbedtls/mbedtls-2.16.2/include/mbedtls/ssl_internal.h **** 
  44:/home/xingli/share/1205tiny/network/dtls/mbedtls/mbedtls-2.16.2/include/mbedtls/ssl_internal.h **** #if defined(MBEDTLS_SHA256_C)
  45:/home/xingli/share/1205tiny/network/dtls/mbedtls/mbedtls-2.16.2/include/mbedtls/ssl_internal.h **** #include "sha256.h"
  46:/home/xingli/share/1205tiny/network/dtls/mbedtls/mbedtls-2.16.2/include/mbedtls/ssl_internal.h **** #endif
  47:/home/xingli/share/1205tiny/network/dtls/mbedtls/mbedtls-2.16.2/include/mbedtls/ssl_internal.h **** 
  48:/home/xingli/share/1205tiny/network/dtls/mbedtls/mbedtls-2.16.2/include/mbedtls/ssl_internal.h **** #if defined(MBEDTLS_SHA512_C)
  49:/home/xingli/share/1205tiny/network/dtls/mbedtls/mbedtls-2.16.2/include/mbedtls/ssl_internal.h **** #include "sha512.h"
  50:/home/xingli/share/1205tiny/network/dtls/mbedtls/mbedtls-2.16.2/include/mbedtls/ssl_internal.h **** #endif
  51:/home/xingli/share/1205tiny/network/dtls/mbedtls/mbedtls-2.16.2/include/mbedtls/ssl_internal.h **** 
  52:/home/xingli/share/1205tiny/network/dtls/mbedtls/mbedtls-2.16.2/include/mbedtls/ssl_internal.h **** #if defined(MBEDTLS_KEY_EXCHANGE_ECJPAKE_ENABLED)
  53:/home/xingli/share/1205tiny/network/dtls/mbedtls/mbedtls-2.16.2/include/mbedtls/ssl_internal.h **** #include "ecjpake.h"
  54:/home/xingli/share/1205tiny/network/dtls/mbedtls/mbedtls-2.16.2/include/mbedtls/ssl_internal.h **** #endif
  55:/home/xingli/share/1205tiny/network/dtls/mbedtls/mbedtls-2.16.2/include/mbedtls/ssl_internal.h **** 
  56:/home/xingli/share/1205tiny/network/dtls/mbedtls/mbedtls-2.16.2/include/mbedtls/ssl_internal.h **** #if ( defined(__ARMCC_VERSION) || defined(_MSC_VER) ) && \
  57:/home/xingli/share/1205tiny/network/dtls/mbedtls/mbedtls-2.16.2/include/mbedtls/ssl_internal.h ****     !defined(inline) && !defined(__cplusplus)
  58:/home/xingli/share/1205tiny/network/dtls/mbedtls/mbedtls-2.16.2/include/mbedtls/ssl_internal.h **** #define inline __inline
  59:/home/xingli/share/1205tiny/network/dtls/mbedtls/mbedtls-2.16.2/include/mbedtls/ssl_internal.h **** #endif
  60:/home/xingli/share/1205tiny/network/dtls/mbedtls/mbedtls-2.16.2/include/mbedtls/ssl_internal.h **** 
  61:/home/xingli/share/1205tiny/network/dtls/mbedtls/mbedtls-2.16.2/include/mbedtls/ssl_internal.h **** /* Determine minimum supported version */
  62:/home/xingli/share/1205tiny/network/dtls/mbedtls/mbedtls-2.16.2/include/mbedtls/ssl_internal.h **** #define MBEDTLS_SSL_MIN_MAJOR_VERSION           MBEDTLS_SSL_MAJOR_VERSION_3
  63:/home/xingli/share/1205tiny/network/dtls/mbedtls/mbedtls-2.16.2/include/mbedtls/ssl_internal.h **** 
  64:/home/xingli/share/1205tiny/network/dtls/mbedtls/mbedtls-2.16.2/include/mbedtls/ssl_internal.h **** #if defined(MBEDTLS_SSL_PROTO_SSL3)
  65:/home/xingli/share/1205tiny/network/dtls/mbedtls/mbedtls-2.16.2/include/mbedtls/ssl_internal.h **** #define MBEDTLS_SSL_MIN_MINOR_VERSION           MBEDTLS_SSL_MINOR_VERSION_0
  66:/home/xingli/share/1205tiny/network/dtls/mbedtls/mbedtls-2.16.2/include/mbedtls/ssl_internal.h **** #else
  67:/home/xingli/share/1205tiny/network/dtls/mbedtls/mbedtls-2.16.2/include/mbedtls/ssl_internal.h **** #if defined(MBEDTLS_SSL_PROTO_TLS1)
  68:/home/xingli/share/1205tiny/network/dtls/mbedtls/mbedtls-2.16.2/include/mbedtls/ssl_internal.h **** #define MBEDTLS_SSL_MIN_MINOR_VERSION           MBEDTLS_SSL_MINOR_VERSION_1
  69:/home/xingli/share/1205tiny/network/dtls/mbedtls/mbedtls-2.16.2/include/mbedtls/ssl_internal.h **** #else
  70:/home/xingli/share/1205tiny/network/dtls/mbedtls/mbedtls-2.16.2/include/mbedtls/ssl_internal.h **** #if defined(MBEDTLS_SSL_PROTO_TLS1_1)
  71:/home/xingli/share/1205tiny/network/dtls/mbedtls/mbedtls-2.16.2/include/mbedtls/ssl_internal.h **** #define MBEDTLS_SSL_MIN_MINOR_VERSION           MBEDTLS_SSL_MINOR_VERSION_2
  72:/home/xingli/share/1205tiny/network/dtls/mbedtls/mbedtls-2.16.2/include/mbedtls/ssl_internal.h **** #else
  73:/home/xingli/share/1205tiny/network/dtls/mbedtls/mbedtls-2.16.2/include/mbedtls/ssl_internal.h **** #if defined(MBEDTLS_SSL_PROTO_TLS1_2)
  74:/home/xingli/share/1205tiny/network/dtls/mbedtls/mbedtls-2.16.2/include/mbedtls/ssl_internal.h **** #define MBEDTLS_SSL_MIN_MINOR_VERSION           MBEDTLS_SSL_MINOR_VERSION_3
GAS LISTING /tmp/ccEn8xFO.s 			page 16


  75:/home/xingli/share/1205tiny/network/dtls/mbedtls/mbedtls-2.16.2/include/mbedtls/ssl_internal.h **** #endif /* MBEDTLS_SSL_PROTO_TLS1_2 */
  76:/home/xingli/share/1205tiny/network/dtls/mbedtls/mbedtls-2.16.2/include/mbedtls/ssl_internal.h **** #endif /* MBEDTLS_SSL_PROTO_TLS1_1 */
  77:/home/xingli/share/1205tiny/network/dtls/mbedtls/mbedtls-2.16.2/include/mbedtls/ssl_internal.h **** #endif /* MBEDTLS_SSL_PROTO_TLS1   */
  78:/home/xingli/share/1205tiny/network/dtls/mbedtls/mbedtls-2.16.2/include/mbedtls/ssl_internal.h **** #endif /* MBEDTLS_SSL_PROTO_SSL3   */
  79:/home/xingli/share/1205tiny/network/dtls/mbedtls/mbedtls-2.16.2/include/mbedtls/ssl_internal.h **** 
  80:/home/xingli/share/1205tiny/network/dtls/mbedtls/mbedtls-2.16.2/include/mbedtls/ssl_internal.h **** #define MBEDTLS_SSL_MIN_VALID_MINOR_VERSION MBEDTLS_SSL_MINOR_VERSION_1
  81:/home/xingli/share/1205tiny/network/dtls/mbedtls/mbedtls-2.16.2/include/mbedtls/ssl_internal.h **** #define MBEDTLS_SSL_MIN_VALID_MAJOR_VERSION MBEDTLS_SSL_MAJOR_VERSION_3
  82:/home/xingli/share/1205tiny/network/dtls/mbedtls/mbedtls-2.16.2/include/mbedtls/ssl_internal.h **** 
  83:/home/xingli/share/1205tiny/network/dtls/mbedtls/mbedtls-2.16.2/include/mbedtls/ssl_internal.h **** /* Determine maximum supported version */
  84:/home/xingli/share/1205tiny/network/dtls/mbedtls/mbedtls-2.16.2/include/mbedtls/ssl_internal.h **** #define MBEDTLS_SSL_MAX_MAJOR_VERSION           MBEDTLS_SSL_MAJOR_VERSION_3
  85:/home/xingli/share/1205tiny/network/dtls/mbedtls/mbedtls-2.16.2/include/mbedtls/ssl_internal.h **** 
  86:/home/xingli/share/1205tiny/network/dtls/mbedtls/mbedtls-2.16.2/include/mbedtls/ssl_internal.h **** #if defined(MBEDTLS_SSL_PROTO_TLS1_2)
  87:/home/xingli/share/1205tiny/network/dtls/mbedtls/mbedtls-2.16.2/include/mbedtls/ssl_internal.h **** #define MBEDTLS_SSL_MAX_MINOR_VERSION           MBEDTLS_SSL_MINOR_VERSION_3
  88:/home/xingli/share/1205tiny/network/dtls/mbedtls/mbedtls-2.16.2/include/mbedtls/ssl_internal.h **** #else
  89:/home/xingli/share/1205tiny/network/dtls/mbedtls/mbedtls-2.16.2/include/mbedtls/ssl_internal.h **** #if defined(MBEDTLS_SSL_PROTO_TLS1_1)
  90:/home/xingli/share/1205tiny/network/dtls/mbedtls/mbedtls-2.16.2/include/mbedtls/ssl_internal.h **** #define MBEDTLS_SSL_MAX_MINOR_VERSION           MBEDTLS_SSL_MINOR_VERSION_2
  91:/home/xingli/share/1205tiny/network/dtls/mbedtls/mbedtls-2.16.2/include/mbedtls/ssl_internal.h **** #else
  92:/home/xingli/share/1205tiny/network/dtls/mbedtls/mbedtls-2.16.2/include/mbedtls/ssl_internal.h **** #if defined(MBEDTLS_SSL_PROTO_TLS1)
  93:/home/xingli/share/1205tiny/network/dtls/mbedtls/mbedtls-2.16.2/include/mbedtls/ssl_internal.h **** #define MBEDTLS_SSL_MAX_MINOR_VERSION           MBEDTLS_SSL_MINOR_VERSION_1
  94:/home/xingli/share/1205tiny/network/dtls/mbedtls/mbedtls-2.16.2/include/mbedtls/ssl_internal.h **** #else
  95:/home/xingli/share/1205tiny/network/dtls/mbedtls/mbedtls-2.16.2/include/mbedtls/ssl_internal.h **** #if defined(MBEDTLS_SSL_PROTO_SSL3)
  96:/home/xingli/share/1205tiny/network/dtls/mbedtls/mbedtls-2.16.2/include/mbedtls/ssl_internal.h **** #define MBEDTLS_SSL_MAX_MINOR_VERSION           MBEDTLS_SSL_MINOR_VERSION_0
  97:/home/xingli/share/1205tiny/network/dtls/mbedtls/mbedtls-2.16.2/include/mbedtls/ssl_internal.h **** #endif /* MBEDTLS_SSL_PROTO_SSL3   */
  98:/home/xingli/share/1205tiny/network/dtls/mbedtls/mbedtls-2.16.2/include/mbedtls/ssl_internal.h **** #endif /* MBEDTLS_SSL_PROTO_TLS1   */
  99:/home/xingli/share/1205tiny/network/dtls/mbedtls/mbedtls-2.16.2/include/mbedtls/ssl_internal.h **** #endif /* MBEDTLS_SSL_PROTO_TLS1_1 */
 100:/home/xingli/share/1205tiny/network/dtls/mbedtls/mbedtls-2.16.2/include/mbedtls/ssl_internal.h **** #endif /* MBEDTLS_SSL_PROTO_TLS1_2 */
 101:/home/xingli/share/1205tiny/network/dtls/mbedtls/mbedtls-2.16.2/include/mbedtls/ssl_internal.h **** 
 102:/home/xingli/share/1205tiny/network/dtls/mbedtls/mbedtls-2.16.2/include/mbedtls/ssl_internal.h **** /* Shorthand for restartable ECC */
 103:/home/xingli/share/1205tiny/network/dtls/mbedtls/mbedtls-2.16.2/include/mbedtls/ssl_internal.h **** #if defined(MBEDTLS_ECP_RESTARTABLE) && \
 104:/home/xingli/share/1205tiny/network/dtls/mbedtls/mbedtls-2.16.2/include/mbedtls/ssl_internal.h ****     defined(MBEDTLS_SSL_CLI_C) && \
 105:/home/xingli/share/1205tiny/network/dtls/mbedtls/mbedtls-2.16.2/include/mbedtls/ssl_internal.h ****     defined(MBEDTLS_SSL_PROTO_TLS1_2) && \
 106:/home/xingli/share/1205tiny/network/dtls/mbedtls/mbedtls-2.16.2/include/mbedtls/ssl_internal.h ****     defined(MBEDTLS_KEY_EXCHANGE_ECDHE_ECDSA_ENABLED)
 107:/home/xingli/share/1205tiny/network/dtls/mbedtls/mbedtls-2.16.2/include/mbedtls/ssl_internal.h **** #define MBEDTLS_SSL__ECP_RESTARTABLE
 108:/home/xingli/share/1205tiny/network/dtls/mbedtls/mbedtls-2.16.2/include/mbedtls/ssl_internal.h **** #endif
 109:/home/xingli/share/1205tiny/network/dtls/mbedtls/mbedtls-2.16.2/include/mbedtls/ssl_internal.h **** 
 110:/home/xingli/share/1205tiny/network/dtls/mbedtls/mbedtls-2.16.2/include/mbedtls/ssl_internal.h **** #define MBEDTLS_SSL_INITIAL_HANDSHAKE           0
 111:/home/xingli/share/1205tiny/network/dtls/mbedtls/mbedtls-2.16.2/include/mbedtls/ssl_internal.h **** #define MBEDTLS_SSL_RENEGOTIATION_IN_PROGRESS   1   /* In progress */
 112:/home/xingli/share/1205tiny/network/dtls/mbedtls/mbedtls-2.16.2/include/mbedtls/ssl_internal.h **** #define MBEDTLS_SSL_RENEGOTIATION_DONE          2   /* Done or aborted */
 113:/home/xingli/share/1205tiny/network/dtls/mbedtls/mbedtls-2.16.2/include/mbedtls/ssl_internal.h **** #define MBEDTLS_SSL_RENEGOTIATION_PENDING       3   /* Requested (server only) */
 114:/home/xingli/share/1205tiny/network/dtls/mbedtls/mbedtls-2.16.2/include/mbedtls/ssl_internal.h **** 
 115:/home/xingli/share/1205tiny/network/dtls/mbedtls/mbedtls-2.16.2/include/mbedtls/ssl_internal.h **** /*
 116:/home/xingli/share/1205tiny/network/dtls/mbedtls/mbedtls-2.16.2/include/mbedtls/ssl_internal.h ****  * DTLS retransmission states, see RFC 6347 4.2.4
 117:/home/xingli/share/1205tiny/network/dtls/mbedtls/mbedtls-2.16.2/include/mbedtls/ssl_internal.h ****  *
 118:/home/xingli/share/1205tiny/network/dtls/mbedtls/mbedtls-2.16.2/include/mbedtls/ssl_internal.h ****  * The SENDING state is merged in PREPARING for initial sends,
 119:/home/xingli/share/1205tiny/network/dtls/mbedtls/mbedtls-2.16.2/include/mbedtls/ssl_internal.h ****  * but is distinct for resends.
 120:/home/xingli/share/1205tiny/network/dtls/mbedtls/mbedtls-2.16.2/include/mbedtls/ssl_internal.h ****  *
 121:/home/xingli/share/1205tiny/network/dtls/mbedtls/mbedtls-2.16.2/include/mbedtls/ssl_internal.h ****  * Note: initial state is wrong for server, but is not used anyway.
 122:/home/xingli/share/1205tiny/network/dtls/mbedtls/mbedtls-2.16.2/include/mbedtls/ssl_internal.h ****  */
 123:/home/xingli/share/1205tiny/network/dtls/mbedtls/mbedtls-2.16.2/include/mbedtls/ssl_internal.h **** #define MBEDTLS_SSL_RETRANS_PREPARING       0
 124:/home/xingli/share/1205tiny/network/dtls/mbedtls/mbedtls-2.16.2/include/mbedtls/ssl_internal.h **** #define MBEDTLS_SSL_RETRANS_SENDING         1
 125:/home/xingli/share/1205tiny/network/dtls/mbedtls/mbedtls-2.16.2/include/mbedtls/ssl_internal.h **** #define MBEDTLS_SSL_RETRANS_WAITING         2
 126:/home/xingli/share/1205tiny/network/dtls/mbedtls/mbedtls-2.16.2/include/mbedtls/ssl_internal.h **** #define MBEDTLS_SSL_RETRANS_FINISHED        3
 127:/home/xingli/share/1205tiny/network/dtls/mbedtls/mbedtls-2.16.2/include/mbedtls/ssl_internal.h **** 
 128:/home/xingli/share/1205tiny/network/dtls/mbedtls/mbedtls-2.16.2/include/mbedtls/ssl_internal.h **** /*
 129:/home/xingli/share/1205tiny/network/dtls/mbedtls/mbedtls-2.16.2/include/mbedtls/ssl_internal.h ****  * Allow extra bytes for record, authentication and encryption overhead:
 130:/home/xingli/share/1205tiny/network/dtls/mbedtls/mbedtls-2.16.2/include/mbedtls/ssl_internal.h ****  * counter (8) + header (5) + IV(16) + MAC (16-48) + padding (0-256)
 131:/home/xingli/share/1205tiny/network/dtls/mbedtls/mbedtls-2.16.2/include/mbedtls/ssl_internal.h ****  * and allow for a maximum of 1024 of compression expansion if
GAS LISTING /tmp/ccEn8xFO.s 			page 17


 132:/home/xingli/share/1205tiny/network/dtls/mbedtls/mbedtls-2.16.2/include/mbedtls/ssl_internal.h ****  * enabled.
 133:/home/xingli/share/1205tiny/network/dtls/mbedtls/mbedtls-2.16.2/include/mbedtls/ssl_internal.h ****  */
 134:/home/xingli/share/1205tiny/network/dtls/mbedtls/mbedtls-2.16.2/include/mbedtls/ssl_internal.h **** #if defined(MBEDTLS_ZLIB_SUPPORT)
 135:/home/xingli/share/1205tiny/network/dtls/mbedtls/mbedtls-2.16.2/include/mbedtls/ssl_internal.h **** #define MBEDTLS_SSL_COMPRESSION_ADD          1024
 136:/home/xingli/share/1205tiny/network/dtls/mbedtls/mbedtls-2.16.2/include/mbedtls/ssl_internal.h **** #else
 137:/home/xingli/share/1205tiny/network/dtls/mbedtls/mbedtls-2.16.2/include/mbedtls/ssl_internal.h **** #define MBEDTLS_SSL_COMPRESSION_ADD             0
 138:/home/xingli/share/1205tiny/network/dtls/mbedtls/mbedtls-2.16.2/include/mbedtls/ssl_internal.h **** #endif
 139:/home/xingli/share/1205tiny/network/dtls/mbedtls/mbedtls-2.16.2/include/mbedtls/ssl_internal.h **** 
 140:/home/xingli/share/1205tiny/network/dtls/mbedtls/mbedtls-2.16.2/include/mbedtls/ssl_internal.h **** #if defined(MBEDTLS_ARC4_C) || defined(MBEDTLS_CIPHER_MODE_CBC)
 141:/home/xingli/share/1205tiny/network/dtls/mbedtls/mbedtls-2.16.2/include/mbedtls/ssl_internal.h **** /* Ciphersuites using HMAC */
 142:/home/xingli/share/1205tiny/network/dtls/mbedtls/mbedtls-2.16.2/include/mbedtls/ssl_internal.h **** #if defined(MBEDTLS_SHA512_C)
 143:/home/xingli/share/1205tiny/network/dtls/mbedtls/mbedtls-2.16.2/include/mbedtls/ssl_internal.h **** #define MBEDTLS_SSL_MAC_ADD                 48  /* SHA-384 used for HMAC */
 144:/home/xingli/share/1205tiny/network/dtls/mbedtls/mbedtls-2.16.2/include/mbedtls/ssl_internal.h **** #elif defined(MBEDTLS_SHA256_C)
 145:/home/xingli/share/1205tiny/network/dtls/mbedtls/mbedtls-2.16.2/include/mbedtls/ssl_internal.h **** #define MBEDTLS_SSL_MAC_ADD                 32  /* SHA-256 used for HMAC */
 146:/home/xingli/share/1205tiny/network/dtls/mbedtls/mbedtls-2.16.2/include/mbedtls/ssl_internal.h **** #else
 147:/home/xingli/share/1205tiny/network/dtls/mbedtls/mbedtls-2.16.2/include/mbedtls/ssl_internal.h **** #define MBEDTLS_SSL_MAC_ADD                 20  /* SHA-1   used for HMAC */
 148:/home/xingli/share/1205tiny/network/dtls/mbedtls/mbedtls-2.16.2/include/mbedtls/ssl_internal.h **** #endif
 149:/home/xingli/share/1205tiny/network/dtls/mbedtls/mbedtls-2.16.2/include/mbedtls/ssl_internal.h **** #else
 150:/home/xingli/share/1205tiny/network/dtls/mbedtls/mbedtls-2.16.2/include/mbedtls/ssl_internal.h **** /* AEAD ciphersuites: GCM and CCM use a 128 bits tag */
 151:/home/xingli/share/1205tiny/network/dtls/mbedtls/mbedtls-2.16.2/include/mbedtls/ssl_internal.h **** #define MBEDTLS_SSL_MAC_ADD                 16
 152:/home/xingli/share/1205tiny/network/dtls/mbedtls/mbedtls-2.16.2/include/mbedtls/ssl_internal.h **** #endif
 153:/home/xingli/share/1205tiny/network/dtls/mbedtls/mbedtls-2.16.2/include/mbedtls/ssl_internal.h **** 
 154:/home/xingli/share/1205tiny/network/dtls/mbedtls/mbedtls-2.16.2/include/mbedtls/ssl_internal.h **** #if defined(MBEDTLS_CIPHER_MODE_CBC)
 155:/home/xingli/share/1205tiny/network/dtls/mbedtls/mbedtls-2.16.2/include/mbedtls/ssl_internal.h **** #define MBEDTLS_SSL_PADDING_ADD            256
 156:/home/xingli/share/1205tiny/network/dtls/mbedtls/mbedtls-2.16.2/include/mbedtls/ssl_internal.h **** #else
 157:/home/xingli/share/1205tiny/network/dtls/mbedtls/mbedtls-2.16.2/include/mbedtls/ssl_internal.h **** #define MBEDTLS_SSL_PADDING_ADD              0
 158:/home/xingli/share/1205tiny/network/dtls/mbedtls/mbedtls-2.16.2/include/mbedtls/ssl_internal.h **** #endif
 159:/home/xingli/share/1205tiny/network/dtls/mbedtls/mbedtls-2.16.2/include/mbedtls/ssl_internal.h **** 
 160:/home/xingli/share/1205tiny/network/dtls/mbedtls/mbedtls-2.16.2/include/mbedtls/ssl_internal.h **** #define MBEDTLS_SSL_PAYLOAD_OVERHEAD ( MBEDTLS_SSL_COMPRESSION_ADD +    \
 161:/home/xingli/share/1205tiny/network/dtls/mbedtls/mbedtls-2.16.2/include/mbedtls/ssl_internal.h ****                                        MBEDTLS_MAX_IV_LENGTH +          \
 162:/home/xingli/share/1205tiny/network/dtls/mbedtls/mbedtls-2.16.2/include/mbedtls/ssl_internal.h ****                                        MBEDTLS_SSL_MAC_ADD +            \
 163:/home/xingli/share/1205tiny/network/dtls/mbedtls/mbedtls-2.16.2/include/mbedtls/ssl_internal.h ****                                        MBEDTLS_SSL_PADDING_ADD          \
 164:/home/xingli/share/1205tiny/network/dtls/mbedtls/mbedtls-2.16.2/include/mbedtls/ssl_internal.h ****                                        )
 165:/home/xingli/share/1205tiny/network/dtls/mbedtls/mbedtls-2.16.2/include/mbedtls/ssl_internal.h **** 
 166:/home/xingli/share/1205tiny/network/dtls/mbedtls/mbedtls-2.16.2/include/mbedtls/ssl_internal.h **** #define MBEDTLS_SSL_IN_PAYLOAD_LEN ( MBEDTLS_SSL_PAYLOAD_OVERHEAD + \
 167:/home/xingli/share/1205tiny/network/dtls/mbedtls/mbedtls-2.16.2/include/mbedtls/ssl_internal.h ****                                      ( MBEDTLS_SSL_IN_CONTENT_LEN ) )
 168:/home/xingli/share/1205tiny/network/dtls/mbedtls/mbedtls-2.16.2/include/mbedtls/ssl_internal.h **** 
 169:/home/xingli/share/1205tiny/network/dtls/mbedtls/mbedtls-2.16.2/include/mbedtls/ssl_internal.h **** #define MBEDTLS_SSL_OUT_PAYLOAD_LEN ( MBEDTLS_SSL_PAYLOAD_OVERHEAD + \
 170:/home/xingli/share/1205tiny/network/dtls/mbedtls/mbedtls-2.16.2/include/mbedtls/ssl_internal.h ****                                       ( MBEDTLS_SSL_OUT_CONTENT_LEN ) )
 171:/home/xingli/share/1205tiny/network/dtls/mbedtls/mbedtls-2.16.2/include/mbedtls/ssl_internal.h **** 
 172:/home/xingli/share/1205tiny/network/dtls/mbedtls/mbedtls-2.16.2/include/mbedtls/ssl_internal.h **** /* The maximum number of buffered handshake messages. */
 173:/home/xingli/share/1205tiny/network/dtls/mbedtls/mbedtls-2.16.2/include/mbedtls/ssl_internal.h **** #define MBEDTLS_SSL_MAX_BUFFERED_HS 4
 174:/home/xingli/share/1205tiny/network/dtls/mbedtls/mbedtls-2.16.2/include/mbedtls/ssl_internal.h **** 
 175:/home/xingli/share/1205tiny/network/dtls/mbedtls/mbedtls-2.16.2/include/mbedtls/ssl_internal.h **** /* Maximum length we can advertise as our max content length for
 176:/home/xingli/share/1205tiny/network/dtls/mbedtls/mbedtls-2.16.2/include/mbedtls/ssl_internal.h ****    RFC 6066 max_fragment_length extension negotiation purposes
 177:/home/xingli/share/1205tiny/network/dtls/mbedtls/mbedtls-2.16.2/include/mbedtls/ssl_internal.h ****    (the lesser of both sizes, if they are unequal.)
 178:/home/xingli/share/1205tiny/network/dtls/mbedtls/mbedtls-2.16.2/include/mbedtls/ssl_internal.h ****  */
 179:/home/xingli/share/1205tiny/network/dtls/mbedtls/mbedtls-2.16.2/include/mbedtls/ssl_internal.h **** #define MBEDTLS_TLS_EXT_ADV_CONTENT_LEN (                            \
 180:/home/xingli/share/1205tiny/network/dtls/mbedtls/mbedtls-2.16.2/include/mbedtls/ssl_internal.h ****         (MBEDTLS_SSL_IN_CONTENT_LEN > MBEDTLS_SSL_OUT_CONTENT_LEN)   \
 181:/home/xingli/share/1205tiny/network/dtls/mbedtls/mbedtls-2.16.2/include/mbedtls/ssl_internal.h ****         ? ( MBEDTLS_SSL_OUT_CONTENT_LEN )                            \
 182:/home/xingli/share/1205tiny/network/dtls/mbedtls/mbedtls-2.16.2/include/mbedtls/ssl_internal.h ****         : ( MBEDTLS_SSL_IN_CONTENT_LEN )                             \
 183:/home/xingli/share/1205tiny/network/dtls/mbedtls/mbedtls-2.16.2/include/mbedtls/ssl_internal.h ****         )
 184:/home/xingli/share/1205tiny/network/dtls/mbedtls/mbedtls-2.16.2/include/mbedtls/ssl_internal.h **** 
 185:/home/xingli/share/1205tiny/network/dtls/mbedtls/mbedtls-2.16.2/include/mbedtls/ssl_internal.h **** /*
 186:/home/xingli/share/1205tiny/network/dtls/mbedtls/mbedtls-2.16.2/include/mbedtls/ssl_internal.h ****  * Check that we obey the standard's message size bounds
 187:/home/xingli/share/1205tiny/network/dtls/mbedtls/mbedtls-2.16.2/include/mbedtls/ssl_internal.h ****  */
 188:/home/xingli/share/1205tiny/network/dtls/mbedtls/mbedtls-2.16.2/include/mbedtls/ssl_internal.h **** 
GAS LISTING /tmp/ccEn8xFO.s 			page 18


 189:/home/xingli/share/1205tiny/network/dtls/mbedtls/mbedtls-2.16.2/include/mbedtls/ssl_internal.h **** #if MBEDTLS_SSL_MAX_CONTENT_LEN > 16384
 190:/home/xingli/share/1205tiny/network/dtls/mbedtls/mbedtls-2.16.2/include/mbedtls/ssl_internal.h **** #error "Bad configuration - record content too large."
 191:/home/xingli/share/1205tiny/network/dtls/mbedtls/mbedtls-2.16.2/include/mbedtls/ssl_internal.h **** #endif
 192:/home/xingli/share/1205tiny/network/dtls/mbedtls/mbedtls-2.16.2/include/mbedtls/ssl_internal.h **** 
 193:/home/xingli/share/1205tiny/network/dtls/mbedtls/mbedtls-2.16.2/include/mbedtls/ssl_internal.h **** #if MBEDTLS_SSL_IN_CONTENT_LEN > MBEDTLS_SSL_MAX_CONTENT_LEN
 194:/home/xingli/share/1205tiny/network/dtls/mbedtls/mbedtls-2.16.2/include/mbedtls/ssl_internal.h **** #error "Bad configuration - incoming record content should not be larger than MBEDTLS_SSL_MAX_CONTE
 195:/home/xingli/share/1205tiny/network/dtls/mbedtls/mbedtls-2.16.2/include/mbedtls/ssl_internal.h **** #endif
 196:/home/xingli/share/1205tiny/network/dtls/mbedtls/mbedtls-2.16.2/include/mbedtls/ssl_internal.h **** 
 197:/home/xingli/share/1205tiny/network/dtls/mbedtls/mbedtls-2.16.2/include/mbedtls/ssl_internal.h **** #if MBEDTLS_SSL_OUT_CONTENT_LEN > MBEDTLS_SSL_MAX_CONTENT_LEN
 198:/home/xingli/share/1205tiny/network/dtls/mbedtls/mbedtls-2.16.2/include/mbedtls/ssl_internal.h **** #error "Bad configuration - outgoing record content should not be larger than MBEDTLS_SSL_MAX_CONTE
 199:/home/xingli/share/1205tiny/network/dtls/mbedtls/mbedtls-2.16.2/include/mbedtls/ssl_internal.h **** #endif
 200:/home/xingli/share/1205tiny/network/dtls/mbedtls/mbedtls-2.16.2/include/mbedtls/ssl_internal.h **** 
 201:/home/xingli/share/1205tiny/network/dtls/mbedtls/mbedtls-2.16.2/include/mbedtls/ssl_internal.h **** #if MBEDTLS_SSL_IN_PAYLOAD_LEN > MBEDTLS_SSL_MAX_CONTENT_LEN + 2048
 202:/home/xingli/share/1205tiny/network/dtls/mbedtls/mbedtls-2.16.2/include/mbedtls/ssl_internal.h **** #error "Bad configuration - incoming protected record payload too large."
 203:/home/xingli/share/1205tiny/network/dtls/mbedtls/mbedtls-2.16.2/include/mbedtls/ssl_internal.h **** #endif
 204:/home/xingli/share/1205tiny/network/dtls/mbedtls/mbedtls-2.16.2/include/mbedtls/ssl_internal.h **** 
 205:/home/xingli/share/1205tiny/network/dtls/mbedtls/mbedtls-2.16.2/include/mbedtls/ssl_internal.h **** #if MBEDTLS_SSL_OUT_PAYLOAD_LEN > MBEDTLS_SSL_MAX_CONTENT_LEN + 2048
 206:/home/xingli/share/1205tiny/network/dtls/mbedtls/mbedtls-2.16.2/include/mbedtls/ssl_internal.h **** #error "Bad configuration - outgoing protected record payload too large."
 207:/home/xingli/share/1205tiny/network/dtls/mbedtls/mbedtls-2.16.2/include/mbedtls/ssl_internal.h **** #endif
 208:/home/xingli/share/1205tiny/network/dtls/mbedtls/mbedtls-2.16.2/include/mbedtls/ssl_internal.h **** 
 209:/home/xingli/share/1205tiny/network/dtls/mbedtls/mbedtls-2.16.2/include/mbedtls/ssl_internal.h **** /* Calculate buffer sizes */
 210:/home/xingli/share/1205tiny/network/dtls/mbedtls/mbedtls-2.16.2/include/mbedtls/ssl_internal.h **** 
 211:/home/xingli/share/1205tiny/network/dtls/mbedtls/mbedtls-2.16.2/include/mbedtls/ssl_internal.h **** /* Note: Even though the TLS record header is only 5 bytes
 212:/home/xingli/share/1205tiny/network/dtls/mbedtls/mbedtls-2.16.2/include/mbedtls/ssl_internal.h ****    long, we're internally using 8 bytes to store the
 213:/home/xingli/share/1205tiny/network/dtls/mbedtls/mbedtls-2.16.2/include/mbedtls/ssl_internal.h ****    implicit sequence number. */
 214:/home/xingli/share/1205tiny/network/dtls/mbedtls/mbedtls-2.16.2/include/mbedtls/ssl_internal.h **** #define MBEDTLS_SSL_HEADER_LEN 13
 215:/home/xingli/share/1205tiny/network/dtls/mbedtls/mbedtls-2.16.2/include/mbedtls/ssl_internal.h **** 
 216:/home/xingli/share/1205tiny/network/dtls/mbedtls/mbedtls-2.16.2/include/mbedtls/ssl_internal.h **** #define MBEDTLS_SSL_IN_BUFFER_LEN  \
 217:/home/xingli/share/1205tiny/network/dtls/mbedtls/mbedtls-2.16.2/include/mbedtls/ssl_internal.h ****     ( ( MBEDTLS_SSL_HEADER_LEN ) + ( MBEDTLS_SSL_IN_PAYLOAD_LEN ) )
 218:/home/xingli/share/1205tiny/network/dtls/mbedtls/mbedtls-2.16.2/include/mbedtls/ssl_internal.h **** 
 219:/home/xingli/share/1205tiny/network/dtls/mbedtls/mbedtls-2.16.2/include/mbedtls/ssl_internal.h **** #define MBEDTLS_SSL_OUT_BUFFER_LEN  \
 220:/home/xingli/share/1205tiny/network/dtls/mbedtls/mbedtls-2.16.2/include/mbedtls/ssl_internal.h ****     ( ( MBEDTLS_SSL_HEADER_LEN ) + ( MBEDTLS_SSL_OUT_PAYLOAD_LEN ) )
 221:/home/xingli/share/1205tiny/network/dtls/mbedtls/mbedtls-2.16.2/include/mbedtls/ssl_internal.h **** 
 222:/home/xingli/share/1205tiny/network/dtls/mbedtls/mbedtls-2.16.2/include/mbedtls/ssl_internal.h **** #ifdef MBEDTLS_ZLIB_SUPPORT
 223:/home/xingli/share/1205tiny/network/dtls/mbedtls/mbedtls-2.16.2/include/mbedtls/ssl_internal.h **** /* Compression buffer holds both IN and OUT buffers, so should be size of the larger */
 224:/home/xingli/share/1205tiny/network/dtls/mbedtls/mbedtls-2.16.2/include/mbedtls/ssl_internal.h **** #define MBEDTLS_SSL_COMPRESS_BUFFER_LEN (                               \
 225:/home/xingli/share/1205tiny/network/dtls/mbedtls/mbedtls-2.16.2/include/mbedtls/ssl_internal.h ****         ( MBEDTLS_SSL_IN_BUFFER_LEN > MBEDTLS_SSL_OUT_BUFFER_LEN )      \
 226:/home/xingli/share/1205tiny/network/dtls/mbedtls/mbedtls-2.16.2/include/mbedtls/ssl_internal.h ****         ? MBEDTLS_SSL_IN_BUFFER_LEN                                     \
 227:/home/xingli/share/1205tiny/network/dtls/mbedtls/mbedtls-2.16.2/include/mbedtls/ssl_internal.h ****         : MBEDTLS_SSL_OUT_BUFFER_LEN                                    \
 228:/home/xingli/share/1205tiny/network/dtls/mbedtls/mbedtls-2.16.2/include/mbedtls/ssl_internal.h ****         )
 229:/home/xingli/share/1205tiny/network/dtls/mbedtls/mbedtls-2.16.2/include/mbedtls/ssl_internal.h **** #endif
 230:/home/xingli/share/1205tiny/network/dtls/mbedtls/mbedtls-2.16.2/include/mbedtls/ssl_internal.h **** 
 231:/home/xingli/share/1205tiny/network/dtls/mbedtls/mbedtls-2.16.2/include/mbedtls/ssl_internal.h **** /*
 232:/home/xingli/share/1205tiny/network/dtls/mbedtls/mbedtls-2.16.2/include/mbedtls/ssl_internal.h ****  * TLS extension flags (for extensions with outgoing ServerHello content
 233:/home/xingli/share/1205tiny/network/dtls/mbedtls/mbedtls-2.16.2/include/mbedtls/ssl_internal.h ****  * that need it (e.g. for RENEGOTIATION_INFO the server already knows because
 234:/home/xingli/share/1205tiny/network/dtls/mbedtls/mbedtls-2.16.2/include/mbedtls/ssl_internal.h ****  * of state of the renegotiation flag, so no indicator is required)
 235:/home/xingli/share/1205tiny/network/dtls/mbedtls/mbedtls-2.16.2/include/mbedtls/ssl_internal.h ****  */
 236:/home/xingli/share/1205tiny/network/dtls/mbedtls/mbedtls-2.16.2/include/mbedtls/ssl_internal.h **** #define MBEDTLS_TLS_EXT_SUPPORTED_POINT_FORMATS_PRESENT (1 << 0)
 237:/home/xingli/share/1205tiny/network/dtls/mbedtls/mbedtls-2.16.2/include/mbedtls/ssl_internal.h **** #define MBEDTLS_TLS_EXT_ECJPAKE_KKPP_OK                 (1 << 1)
 238:/home/xingli/share/1205tiny/network/dtls/mbedtls/mbedtls-2.16.2/include/mbedtls/ssl_internal.h **** 
 239:/home/xingli/share/1205tiny/network/dtls/mbedtls/mbedtls-2.16.2/include/mbedtls/ssl_internal.h **** #ifdef __cplusplus
 240:/home/xingli/share/1205tiny/network/dtls/mbedtls/mbedtls-2.16.2/include/mbedtls/ssl_internal.h **** extern "C" {
 241:/home/xingli/share/1205tiny/network/dtls/mbedtls/mbedtls-2.16.2/include/mbedtls/ssl_internal.h **** #endif
 242:/home/xingli/share/1205tiny/network/dtls/mbedtls/mbedtls-2.16.2/include/mbedtls/ssl_internal.h **** 
 243:/home/xingli/share/1205tiny/network/dtls/mbedtls/mbedtls-2.16.2/include/mbedtls/ssl_internal.h **** #if defined(MBEDTLS_SSL_PROTO_TLS1_2) && \
 244:/home/xingli/share/1205tiny/network/dtls/mbedtls/mbedtls-2.16.2/include/mbedtls/ssl_internal.h ****     defined(MBEDTLS_KEY_EXCHANGE__WITH_CERT__ENABLED)
 245:/home/xingli/share/1205tiny/network/dtls/mbedtls/mbedtls-2.16.2/include/mbedtls/ssl_internal.h **** /*
GAS LISTING /tmp/ccEn8xFO.s 			page 19


 246:/home/xingli/share/1205tiny/network/dtls/mbedtls/mbedtls-2.16.2/include/mbedtls/ssl_internal.h ****  * Abstraction for a grid of allowed signature-hash-algorithm pairs.
 247:/home/xingli/share/1205tiny/network/dtls/mbedtls/mbedtls-2.16.2/include/mbedtls/ssl_internal.h ****  */
 248:/home/xingli/share/1205tiny/network/dtls/mbedtls/mbedtls-2.16.2/include/mbedtls/ssl_internal.h **** struct mbedtls_ssl_sig_hash_set_t
 249:/home/xingli/share/1205tiny/network/dtls/mbedtls/mbedtls-2.16.2/include/mbedtls/ssl_internal.h **** {
 250:/home/xingli/share/1205tiny/network/dtls/mbedtls/mbedtls-2.16.2/include/mbedtls/ssl_internal.h ****     /* At the moment, we only need to remember a single suitable
 251:/home/xingli/share/1205tiny/network/dtls/mbedtls/mbedtls-2.16.2/include/mbedtls/ssl_internal.h ****      * hash algorithm per signature algorithm. As long as that's
 252:/home/xingli/share/1205tiny/network/dtls/mbedtls/mbedtls-2.16.2/include/mbedtls/ssl_internal.h ****      * the case - and we don't need a general lookup function -
 253:/home/xingli/share/1205tiny/network/dtls/mbedtls/mbedtls-2.16.2/include/mbedtls/ssl_internal.h ****      * we can implement the sig-hash-set as a map from signatures
 254:/home/xingli/share/1205tiny/network/dtls/mbedtls/mbedtls-2.16.2/include/mbedtls/ssl_internal.h ****      * to hash algorithms. */
 255:/home/xingli/share/1205tiny/network/dtls/mbedtls/mbedtls-2.16.2/include/mbedtls/ssl_internal.h ****     mbedtls_md_type_t rsa;
 256:/home/xingli/share/1205tiny/network/dtls/mbedtls/mbedtls-2.16.2/include/mbedtls/ssl_internal.h ****     mbedtls_md_type_t ecdsa;
 257:/home/xingli/share/1205tiny/network/dtls/mbedtls/mbedtls-2.16.2/include/mbedtls/ssl_internal.h **** };
 258:/home/xingli/share/1205tiny/network/dtls/mbedtls/mbedtls-2.16.2/include/mbedtls/ssl_internal.h **** #endif /* MBEDTLS_SSL_PROTO_TLS1_2 &&
 259:/home/xingli/share/1205tiny/network/dtls/mbedtls/mbedtls-2.16.2/include/mbedtls/ssl_internal.h ****           MBEDTLS_KEY_EXCHANGE__WITH_CERT__ENABLED */
 260:/home/xingli/share/1205tiny/network/dtls/mbedtls/mbedtls-2.16.2/include/mbedtls/ssl_internal.h **** 
 261:/home/xingli/share/1205tiny/network/dtls/mbedtls/mbedtls-2.16.2/include/mbedtls/ssl_internal.h **** /*
 262:/home/xingli/share/1205tiny/network/dtls/mbedtls/mbedtls-2.16.2/include/mbedtls/ssl_internal.h ****  * This structure contains the parameters only needed during handshake.
 263:/home/xingli/share/1205tiny/network/dtls/mbedtls/mbedtls-2.16.2/include/mbedtls/ssl_internal.h ****  */
 264:/home/xingli/share/1205tiny/network/dtls/mbedtls/mbedtls-2.16.2/include/mbedtls/ssl_internal.h **** struct mbedtls_ssl_handshake_params
 265:/home/xingli/share/1205tiny/network/dtls/mbedtls/mbedtls-2.16.2/include/mbedtls/ssl_internal.h **** {
 266:/home/xingli/share/1205tiny/network/dtls/mbedtls/mbedtls-2.16.2/include/mbedtls/ssl_internal.h ****     /*
 267:/home/xingli/share/1205tiny/network/dtls/mbedtls/mbedtls-2.16.2/include/mbedtls/ssl_internal.h ****      * Handshake specific crypto variables
 268:/home/xingli/share/1205tiny/network/dtls/mbedtls/mbedtls-2.16.2/include/mbedtls/ssl_internal.h ****      */
 269:/home/xingli/share/1205tiny/network/dtls/mbedtls/mbedtls-2.16.2/include/mbedtls/ssl_internal.h **** 
 270:/home/xingli/share/1205tiny/network/dtls/mbedtls/mbedtls-2.16.2/include/mbedtls/ssl_internal.h **** #if defined(MBEDTLS_SSL_PROTO_TLS1_2) && \
 271:/home/xingli/share/1205tiny/network/dtls/mbedtls/mbedtls-2.16.2/include/mbedtls/ssl_internal.h ****     defined(MBEDTLS_KEY_EXCHANGE__WITH_CERT__ENABLED)
 272:/home/xingli/share/1205tiny/network/dtls/mbedtls/mbedtls-2.16.2/include/mbedtls/ssl_internal.h ****     mbedtls_ssl_sig_hash_set_t hash_algs;             /*!<  Set of suitable sig-hash pairs */
 273:/home/xingli/share/1205tiny/network/dtls/mbedtls/mbedtls-2.16.2/include/mbedtls/ssl_internal.h **** #endif
 274:/home/xingli/share/1205tiny/network/dtls/mbedtls/mbedtls-2.16.2/include/mbedtls/ssl_internal.h **** #if defined(MBEDTLS_DHM_C)
 275:/home/xingli/share/1205tiny/network/dtls/mbedtls/mbedtls-2.16.2/include/mbedtls/ssl_internal.h ****     mbedtls_dhm_context dhm_ctx;                /*!<  DHM key exchange        */
 276:/home/xingli/share/1205tiny/network/dtls/mbedtls/mbedtls-2.16.2/include/mbedtls/ssl_internal.h **** #endif
 277:/home/xingli/share/1205tiny/network/dtls/mbedtls/mbedtls-2.16.2/include/mbedtls/ssl_internal.h **** #if defined(MBEDTLS_ECDH_C)
 278:/home/xingli/share/1205tiny/network/dtls/mbedtls/mbedtls-2.16.2/include/mbedtls/ssl_internal.h ****     mbedtls_ecdh_context ecdh_ctx;              /*!<  ECDH key exchange       */
 279:/home/xingli/share/1205tiny/network/dtls/mbedtls/mbedtls-2.16.2/include/mbedtls/ssl_internal.h **** #endif
 280:/home/xingli/share/1205tiny/network/dtls/mbedtls/mbedtls-2.16.2/include/mbedtls/ssl_internal.h **** #if defined(MBEDTLS_KEY_EXCHANGE_ECJPAKE_ENABLED)
 281:/home/xingli/share/1205tiny/network/dtls/mbedtls/mbedtls-2.16.2/include/mbedtls/ssl_internal.h ****     mbedtls_ecjpake_context ecjpake_ctx;        /*!< EC J-PAKE key exchange */
 282:/home/xingli/share/1205tiny/network/dtls/mbedtls/mbedtls-2.16.2/include/mbedtls/ssl_internal.h **** #if defined(MBEDTLS_SSL_CLI_C)
 283:/home/xingli/share/1205tiny/network/dtls/mbedtls/mbedtls-2.16.2/include/mbedtls/ssl_internal.h ****     unsigned char *ecjpake_cache;               /*!< Cache for ClientHello ext */
 284:/home/xingli/share/1205tiny/network/dtls/mbedtls/mbedtls-2.16.2/include/mbedtls/ssl_internal.h ****     size_t ecjpake_cache_len;                   /*!< Length of cached data */
 285:/home/xingli/share/1205tiny/network/dtls/mbedtls/mbedtls-2.16.2/include/mbedtls/ssl_internal.h **** #endif
 286:/home/xingli/share/1205tiny/network/dtls/mbedtls/mbedtls-2.16.2/include/mbedtls/ssl_internal.h **** #endif /* MBEDTLS_KEY_EXCHANGE_ECJPAKE_ENABLED */
 287:/home/xingli/share/1205tiny/network/dtls/mbedtls/mbedtls-2.16.2/include/mbedtls/ssl_internal.h **** #if defined(MBEDTLS_ECDH_C) || defined(MBEDTLS_ECDSA_C) || \
 288:/home/xingli/share/1205tiny/network/dtls/mbedtls/mbedtls-2.16.2/include/mbedtls/ssl_internal.h ****     defined(MBEDTLS_KEY_EXCHANGE_ECJPAKE_ENABLED)
 289:/home/xingli/share/1205tiny/network/dtls/mbedtls/mbedtls-2.16.2/include/mbedtls/ssl_internal.h ****     const mbedtls_ecp_curve_info **curves;      /*!<  Supported elliptic curves */
 290:/home/xingli/share/1205tiny/network/dtls/mbedtls/mbedtls-2.16.2/include/mbedtls/ssl_internal.h **** #endif
 291:/home/xingli/share/1205tiny/network/dtls/mbedtls/mbedtls-2.16.2/include/mbedtls/ssl_internal.h **** #if defined(MBEDTLS_KEY_EXCHANGE__SOME__PSK_ENABLED)
 292:/home/xingli/share/1205tiny/network/dtls/mbedtls/mbedtls-2.16.2/include/mbedtls/ssl_internal.h ****     unsigned char *psk;                 /*!<  PSK from the callback         */
 293:/home/xingli/share/1205tiny/network/dtls/mbedtls/mbedtls-2.16.2/include/mbedtls/ssl_internal.h ****     size_t psk_len;                     /*!<  Length of PSK from callback   */
 294:/home/xingli/share/1205tiny/network/dtls/mbedtls/mbedtls-2.16.2/include/mbedtls/ssl_internal.h **** #endif
 295:/home/xingli/share/1205tiny/network/dtls/mbedtls/mbedtls-2.16.2/include/mbedtls/ssl_internal.h **** #if defined(MBEDTLS_X509_CRT_PARSE_C)
 296:/home/xingli/share/1205tiny/network/dtls/mbedtls/mbedtls-2.16.2/include/mbedtls/ssl_internal.h ****     mbedtls_ssl_key_cert *key_cert;     /*!< chosen key/cert pair (server)  */
 297:/home/xingli/share/1205tiny/network/dtls/mbedtls/mbedtls-2.16.2/include/mbedtls/ssl_internal.h **** #if defined(MBEDTLS_SSL_SERVER_NAME_INDICATION)
 298:/home/xingli/share/1205tiny/network/dtls/mbedtls/mbedtls-2.16.2/include/mbedtls/ssl_internal.h ****     int sni_authmode;                   /*!< authmode from SNI callback     */
 299:/home/xingli/share/1205tiny/network/dtls/mbedtls/mbedtls-2.16.2/include/mbedtls/ssl_internal.h ****     mbedtls_ssl_key_cert *sni_key_cert; /*!< key/cert list from SNI         */
 300:/home/xingli/share/1205tiny/network/dtls/mbedtls/mbedtls-2.16.2/include/mbedtls/ssl_internal.h ****     mbedtls_x509_crt *sni_ca_chain;     /*!< trusted CAs from SNI callback  */
 301:/home/xingli/share/1205tiny/network/dtls/mbedtls/mbedtls-2.16.2/include/mbedtls/ssl_internal.h ****     mbedtls_x509_crl *sni_ca_crl;       /*!< trusted CAs CRLs from SNI      */
 302:/home/xingli/share/1205tiny/network/dtls/mbedtls/mbedtls-2.16.2/include/mbedtls/ssl_internal.h **** #endif /* MBEDTLS_SSL_SERVER_NAME_INDICATION */
GAS LISTING /tmp/ccEn8xFO.s 			page 20


 303:/home/xingli/share/1205tiny/network/dtls/mbedtls/mbedtls-2.16.2/include/mbedtls/ssl_internal.h **** #endif /* MBEDTLS_X509_CRT_PARSE_C */
 304:/home/xingli/share/1205tiny/network/dtls/mbedtls/mbedtls-2.16.2/include/mbedtls/ssl_internal.h **** #if defined(MBEDTLS_SSL__ECP_RESTARTABLE)
 305:/home/xingli/share/1205tiny/network/dtls/mbedtls/mbedtls-2.16.2/include/mbedtls/ssl_internal.h ****     int ecrs_enabled;                   /*!< Handshake supports EC restart? */
 306:/home/xingli/share/1205tiny/network/dtls/mbedtls/mbedtls-2.16.2/include/mbedtls/ssl_internal.h ****     mbedtls_x509_crt_restart_ctx ecrs_ctx;  /*!< restart context            */
 307:/home/xingli/share/1205tiny/network/dtls/mbedtls/mbedtls-2.16.2/include/mbedtls/ssl_internal.h ****     enum { /* this complements ssl->state with info on intra-state operations */
 308:/home/xingli/share/1205tiny/network/dtls/mbedtls/mbedtls-2.16.2/include/mbedtls/ssl_internal.h ****         ssl_ecrs_none = 0,              /*!< nothing going on (yet)         */
 309:/home/xingli/share/1205tiny/network/dtls/mbedtls/mbedtls-2.16.2/include/mbedtls/ssl_internal.h ****         ssl_ecrs_crt_verify,            /*!< Certificate: crt_verify()      */
 310:/home/xingli/share/1205tiny/network/dtls/mbedtls/mbedtls-2.16.2/include/mbedtls/ssl_internal.h ****         ssl_ecrs_ske_start_processing,  /*!< ServerKeyExchange: pk_verify() */
 311:/home/xingli/share/1205tiny/network/dtls/mbedtls/mbedtls-2.16.2/include/mbedtls/ssl_internal.h ****         ssl_ecrs_cke_ecdh_calc_secret,  /*!< ClientKeyExchange: ECDH step 2 */
 312:/home/xingli/share/1205tiny/network/dtls/mbedtls/mbedtls-2.16.2/include/mbedtls/ssl_internal.h ****         ssl_ecrs_crt_vrfy_sign,         /*!< CertificateVerify: pk_sign()   */
 313:/home/xingli/share/1205tiny/network/dtls/mbedtls/mbedtls-2.16.2/include/mbedtls/ssl_internal.h ****     } ecrs_state;                       /*!< current (or last) operation    */
 314:/home/xingli/share/1205tiny/network/dtls/mbedtls/mbedtls-2.16.2/include/mbedtls/ssl_internal.h ****     size_t ecrs_n;                      /*!< place for saving a length      */
 315:/home/xingli/share/1205tiny/network/dtls/mbedtls/mbedtls-2.16.2/include/mbedtls/ssl_internal.h **** #endif
 316:/home/xingli/share/1205tiny/network/dtls/mbedtls/mbedtls-2.16.2/include/mbedtls/ssl_internal.h **** #if defined(MBEDTLS_SSL_PROTO_DTLS)
 317:/home/xingli/share/1205tiny/network/dtls/mbedtls/mbedtls-2.16.2/include/mbedtls/ssl_internal.h ****     unsigned int out_msg_seq;           /*!<  Outgoing handshake sequence number */
 318:/home/xingli/share/1205tiny/network/dtls/mbedtls/mbedtls-2.16.2/include/mbedtls/ssl_internal.h ****     unsigned int in_msg_seq;            /*!<  Incoming handshake sequence number */
 319:/home/xingli/share/1205tiny/network/dtls/mbedtls/mbedtls-2.16.2/include/mbedtls/ssl_internal.h **** 
 320:/home/xingli/share/1205tiny/network/dtls/mbedtls/mbedtls-2.16.2/include/mbedtls/ssl_internal.h ****     unsigned char *verify_cookie;       /*!<  Cli: HelloVerifyRequest cookie
 321:/home/xingli/share/1205tiny/network/dtls/mbedtls/mbedtls-2.16.2/include/mbedtls/ssl_internal.h ****                                               Srv: unused                    */
 322:/home/xingli/share/1205tiny/network/dtls/mbedtls/mbedtls-2.16.2/include/mbedtls/ssl_internal.h ****     unsigned char verify_cookie_len;    /*!<  Cli: cookie length
 323:/home/xingli/share/1205tiny/network/dtls/mbedtls/mbedtls-2.16.2/include/mbedtls/ssl_internal.h ****                                               Srv: flag for sending a cookie */
 324:/home/xingli/share/1205tiny/network/dtls/mbedtls/mbedtls-2.16.2/include/mbedtls/ssl_internal.h **** 
 325:/home/xingli/share/1205tiny/network/dtls/mbedtls/mbedtls-2.16.2/include/mbedtls/ssl_internal.h ****     uint32_t retransmit_timeout;        /*!<  Current value of timeout       */
 326:/home/xingli/share/1205tiny/network/dtls/mbedtls/mbedtls-2.16.2/include/mbedtls/ssl_internal.h ****     unsigned char retransmit_state;     /*!<  Retransmission state           */
 327:/home/xingli/share/1205tiny/network/dtls/mbedtls/mbedtls-2.16.2/include/mbedtls/ssl_internal.h ****     mbedtls_ssl_flight_item *flight;    /*!<  Current outgoing flight        */
 328:/home/xingli/share/1205tiny/network/dtls/mbedtls/mbedtls-2.16.2/include/mbedtls/ssl_internal.h ****     mbedtls_ssl_flight_item *cur_msg;   /*!<  Current message in flight      */
 329:/home/xingli/share/1205tiny/network/dtls/mbedtls/mbedtls-2.16.2/include/mbedtls/ssl_internal.h ****     unsigned char *cur_msg_p;           /*!<  Position in current message    */
 330:/home/xingli/share/1205tiny/network/dtls/mbedtls/mbedtls-2.16.2/include/mbedtls/ssl_internal.h ****     unsigned int in_flight_start_seq;   /*!<  Minimum message sequence in the
 331:/home/xingli/share/1205tiny/network/dtls/mbedtls/mbedtls-2.16.2/include/mbedtls/ssl_internal.h ****                                               flight being received          */
 332:/home/xingli/share/1205tiny/network/dtls/mbedtls/mbedtls-2.16.2/include/mbedtls/ssl_internal.h ****     mbedtls_ssl_transform *alt_transform_out;   /*!<  Alternative transform for
 333:/home/xingli/share/1205tiny/network/dtls/mbedtls/mbedtls-2.16.2/include/mbedtls/ssl_internal.h ****                                               resending messages             */
 334:/home/xingli/share/1205tiny/network/dtls/mbedtls/mbedtls-2.16.2/include/mbedtls/ssl_internal.h ****     unsigned char alt_out_ctr[8];       /*!<  Alternative record epoch/counter
 335:/home/xingli/share/1205tiny/network/dtls/mbedtls/mbedtls-2.16.2/include/mbedtls/ssl_internal.h ****                                               for resending messages         */
 336:/home/xingli/share/1205tiny/network/dtls/mbedtls/mbedtls-2.16.2/include/mbedtls/ssl_internal.h **** 
 337:/home/xingli/share/1205tiny/network/dtls/mbedtls/mbedtls-2.16.2/include/mbedtls/ssl_internal.h ****     struct
 338:/home/xingli/share/1205tiny/network/dtls/mbedtls/mbedtls-2.16.2/include/mbedtls/ssl_internal.h ****     {
 339:/home/xingli/share/1205tiny/network/dtls/mbedtls/mbedtls-2.16.2/include/mbedtls/ssl_internal.h ****         size_t total_bytes_buffered; /*!< Cumulative size of heap allocated
 340:/home/xingli/share/1205tiny/network/dtls/mbedtls/mbedtls-2.16.2/include/mbedtls/ssl_internal.h ****                                       *   buffers used for message buffering. */
 341:/home/xingli/share/1205tiny/network/dtls/mbedtls/mbedtls-2.16.2/include/mbedtls/ssl_internal.h **** 
 342:/home/xingli/share/1205tiny/network/dtls/mbedtls/mbedtls-2.16.2/include/mbedtls/ssl_internal.h ****         uint8_t seen_ccs;               /*!< Indicates if a CCS message has
 343:/home/xingli/share/1205tiny/network/dtls/mbedtls/mbedtls-2.16.2/include/mbedtls/ssl_internal.h ****                                          *   been seen in the current flight. */
 344:/home/xingli/share/1205tiny/network/dtls/mbedtls/mbedtls-2.16.2/include/mbedtls/ssl_internal.h **** 
 345:/home/xingli/share/1205tiny/network/dtls/mbedtls/mbedtls-2.16.2/include/mbedtls/ssl_internal.h ****         struct mbedtls_ssl_hs_buffer
 346:/home/xingli/share/1205tiny/network/dtls/mbedtls/mbedtls-2.16.2/include/mbedtls/ssl_internal.h ****         {
 347:/home/xingli/share/1205tiny/network/dtls/mbedtls/mbedtls-2.16.2/include/mbedtls/ssl_internal.h ****             unsigned is_valid      : 1;
 348:/home/xingli/share/1205tiny/network/dtls/mbedtls/mbedtls-2.16.2/include/mbedtls/ssl_internal.h ****             unsigned is_fragmented : 1;
 349:/home/xingli/share/1205tiny/network/dtls/mbedtls/mbedtls-2.16.2/include/mbedtls/ssl_internal.h ****             unsigned is_complete   : 1;
 350:/home/xingli/share/1205tiny/network/dtls/mbedtls/mbedtls-2.16.2/include/mbedtls/ssl_internal.h ****             unsigned char *data;
 351:/home/xingli/share/1205tiny/network/dtls/mbedtls/mbedtls-2.16.2/include/mbedtls/ssl_internal.h ****             size_t data_len;
 352:/home/xingli/share/1205tiny/network/dtls/mbedtls/mbedtls-2.16.2/include/mbedtls/ssl_internal.h ****         } hs[MBEDTLS_SSL_MAX_BUFFERED_HS];
 353:/home/xingli/share/1205tiny/network/dtls/mbedtls/mbedtls-2.16.2/include/mbedtls/ssl_internal.h **** 
 354:/home/xingli/share/1205tiny/network/dtls/mbedtls/mbedtls-2.16.2/include/mbedtls/ssl_internal.h ****         struct
 355:/home/xingli/share/1205tiny/network/dtls/mbedtls/mbedtls-2.16.2/include/mbedtls/ssl_internal.h ****         {
 356:/home/xingli/share/1205tiny/network/dtls/mbedtls/mbedtls-2.16.2/include/mbedtls/ssl_internal.h ****             unsigned char *data;
 357:/home/xingli/share/1205tiny/network/dtls/mbedtls/mbedtls-2.16.2/include/mbedtls/ssl_internal.h ****             size_t len;
 358:/home/xingli/share/1205tiny/network/dtls/mbedtls/mbedtls-2.16.2/include/mbedtls/ssl_internal.h ****             unsigned epoch;
 359:/home/xingli/share/1205tiny/network/dtls/mbedtls/mbedtls-2.16.2/include/mbedtls/ssl_internal.h ****         } future_record;
GAS LISTING /tmp/ccEn8xFO.s 			page 21


 360:/home/xingli/share/1205tiny/network/dtls/mbedtls/mbedtls-2.16.2/include/mbedtls/ssl_internal.h **** 
 361:/home/xingli/share/1205tiny/network/dtls/mbedtls/mbedtls-2.16.2/include/mbedtls/ssl_internal.h ****     } buffering;
 362:/home/xingli/share/1205tiny/network/dtls/mbedtls/mbedtls-2.16.2/include/mbedtls/ssl_internal.h **** 
 363:/home/xingli/share/1205tiny/network/dtls/mbedtls/mbedtls-2.16.2/include/mbedtls/ssl_internal.h ****     uint16_t mtu;                       /*!<  Handshake mtu, used to fragment outgoing messages */
 364:/home/xingli/share/1205tiny/network/dtls/mbedtls/mbedtls-2.16.2/include/mbedtls/ssl_internal.h **** #endif /* MBEDTLS_SSL_PROTO_DTLS */
 365:/home/xingli/share/1205tiny/network/dtls/mbedtls/mbedtls-2.16.2/include/mbedtls/ssl_internal.h **** 
 366:/home/xingli/share/1205tiny/network/dtls/mbedtls/mbedtls-2.16.2/include/mbedtls/ssl_internal.h ****     /*
 367:/home/xingli/share/1205tiny/network/dtls/mbedtls/mbedtls-2.16.2/include/mbedtls/ssl_internal.h ****      * Checksum contexts
 368:/home/xingli/share/1205tiny/network/dtls/mbedtls/mbedtls-2.16.2/include/mbedtls/ssl_internal.h ****      */
 369:/home/xingli/share/1205tiny/network/dtls/mbedtls/mbedtls-2.16.2/include/mbedtls/ssl_internal.h **** #if defined(MBEDTLS_SSL_PROTO_SSL3) || defined(MBEDTLS_SSL_PROTO_TLS1) || \
 370:/home/xingli/share/1205tiny/network/dtls/mbedtls/mbedtls-2.16.2/include/mbedtls/ssl_internal.h ****     defined(MBEDTLS_SSL_PROTO_TLS1_1)
 371:/home/xingli/share/1205tiny/network/dtls/mbedtls/mbedtls-2.16.2/include/mbedtls/ssl_internal.h ****        mbedtls_md5_context fin_md5;
 372:/home/xingli/share/1205tiny/network/dtls/mbedtls/mbedtls-2.16.2/include/mbedtls/ssl_internal.h ****       mbedtls_sha1_context fin_sha1;
 373:/home/xingli/share/1205tiny/network/dtls/mbedtls/mbedtls-2.16.2/include/mbedtls/ssl_internal.h **** #endif
 374:/home/xingli/share/1205tiny/network/dtls/mbedtls/mbedtls-2.16.2/include/mbedtls/ssl_internal.h **** #if defined(MBEDTLS_SSL_PROTO_TLS1_2)
 375:/home/xingli/share/1205tiny/network/dtls/mbedtls/mbedtls-2.16.2/include/mbedtls/ssl_internal.h **** #if defined(MBEDTLS_SHA256_C)
 376:/home/xingli/share/1205tiny/network/dtls/mbedtls/mbedtls-2.16.2/include/mbedtls/ssl_internal.h ****     mbedtls_sha256_context fin_sha256;
 377:/home/xingli/share/1205tiny/network/dtls/mbedtls/mbedtls-2.16.2/include/mbedtls/ssl_internal.h **** #endif
 378:/home/xingli/share/1205tiny/network/dtls/mbedtls/mbedtls-2.16.2/include/mbedtls/ssl_internal.h **** #if defined(MBEDTLS_SHA512_C)
 379:/home/xingli/share/1205tiny/network/dtls/mbedtls/mbedtls-2.16.2/include/mbedtls/ssl_internal.h ****     mbedtls_sha512_context fin_sha512;
 380:/home/xingli/share/1205tiny/network/dtls/mbedtls/mbedtls-2.16.2/include/mbedtls/ssl_internal.h **** #endif
 381:/home/xingli/share/1205tiny/network/dtls/mbedtls/mbedtls-2.16.2/include/mbedtls/ssl_internal.h **** #endif /* MBEDTLS_SSL_PROTO_TLS1_2 */
 382:/home/xingli/share/1205tiny/network/dtls/mbedtls/mbedtls-2.16.2/include/mbedtls/ssl_internal.h **** 
 383:/home/xingli/share/1205tiny/network/dtls/mbedtls/mbedtls-2.16.2/include/mbedtls/ssl_internal.h ****     void (*update_checksum)(mbedtls_ssl_context *, const unsigned char *, size_t);
 384:/home/xingli/share/1205tiny/network/dtls/mbedtls/mbedtls-2.16.2/include/mbedtls/ssl_internal.h ****     void (*calc_verify)(mbedtls_ssl_context *, unsigned char *);
 385:/home/xingli/share/1205tiny/network/dtls/mbedtls/mbedtls-2.16.2/include/mbedtls/ssl_internal.h ****     void (*calc_finished)(mbedtls_ssl_context *, unsigned char *, int);
 386:/home/xingli/share/1205tiny/network/dtls/mbedtls/mbedtls-2.16.2/include/mbedtls/ssl_internal.h ****     int  (*tls_prf)(const unsigned char *, size_t, const char *,
 387:/home/xingli/share/1205tiny/network/dtls/mbedtls/mbedtls-2.16.2/include/mbedtls/ssl_internal.h ****                     const unsigned char *, size_t,
 388:/home/xingli/share/1205tiny/network/dtls/mbedtls/mbedtls-2.16.2/include/mbedtls/ssl_internal.h ****                     unsigned char *, size_t);
 389:/home/xingli/share/1205tiny/network/dtls/mbedtls/mbedtls-2.16.2/include/mbedtls/ssl_internal.h **** 
 390:/home/xingli/share/1205tiny/network/dtls/mbedtls/mbedtls-2.16.2/include/mbedtls/ssl_internal.h ****     size_t pmslen;                      /*!<  premaster length        */
 391:/home/xingli/share/1205tiny/network/dtls/mbedtls/mbedtls-2.16.2/include/mbedtls/ssl_internal.h **** 
 392:/home/xingli/share/1205tiny/network/dtls/mbedtls/mbedtls-2.16.2/include/mbedtls/ssl_internal.h ****     unsigned char randbytes[64];        /*!<  random bytes            */
 393:/home/xingli/share/1205tiny/network/dtls/mbedtls/mbedtls-2.16.2/include/mbedtls/ssl_internal.h ****     unsigned char premaster[MBEDTLS_PREMASTER_SIZE];
 394:/home/xingli/share/1205tiny/network/dtls/mbedtls/mbedtls-2.16.2/include/mbedtls/ssl_internal.h ****                                         /*!<  premaster secret        */
 395:/home/xingli/share/1205tiny/network/dtls/mbedtls/mbedtls-2.16.2/include/mbedtls/ssl_internal.h **** 
 396:/home/xingli/share/1205tiny/network/dtls/mbedtls/mbedtls-2.16.2/include/mbedtls/ssl_internal.h ****     int resume;                         /*!<  session resume indicator*/
 397:/home/xingli/share/1205tiny/network/dtls/mbedtls/mbedtls-2.16.2/include/mbedtls/ssl_internal.h ****     int max_major_ver;                  /*!< max. major version client*/
 398:/home/xingli/share/1205tiny/network/dtls/mbedtls/mbedtls-2.16.2/include/mbedtls/ssl_internal.h ****     int max_minor_ver;                  /*!< max. minor version client*/
 399:/home/xingli/share/1205tiny/network/dtls/mbedtls/mbedtls-2.16.2/include/mbedtls/ssl_internal.h ****     int cli_exts;                       /*!< client extension presence*/
 400:/home/xingli/share/1205tiny/network/dtls/mbedtls/mbedtls-2.16.2/include/mbedtls/ssl_internal.h **** 
 401:/home/xingli/share/1205tiny/network/dtls/mbedtls/mbedtls-2.16.2/include/mbedtls/ssl_internal.h **** #if defined(MBEDTLS_SSL_SESSION_TICKETS)
 402:/home/xingli/share/1205tiny/network/dtls/mbedtls/mbedtls-2.16.2/include/mbedtls/ssl_internal.h ****     int new_session_ticket;             /*!< use NewSessionTicket?    */
 403:/home/xingli/share/1205tiny/network/dtls/mbedtls/mbedtls-2.16.2/include/mbedtls/ssl_internal.h **** #endif /* MBEDTLS_SSL_SESSION_TICKETS */
 404:/home/xingli/share/1205tiny/network/dtls/mbedtls/mbedtls-2.16.2/include/mbedtls/ssl_internal.h **** #if defined(MBEDTLS_SSL_EXTENDED_MASTER_SECRET)
 405:/home/xingli/share/1205tiny/network/dtls/mbedtls/mbedtls-2.16.2/include/mbedtls/ssl_internal.h ****     int extended_ms;                    /*!< use Extended Master Secret? */
 406:/home/xingli/share/1205tiny/network/dtls/mbedtls/mbedtls-2.16.2/include/mbedtls/ssl_internal.h **** #endif
 407:/home/xingli/share/1205tiny/network/dtls/mbedtls/mbedtls-2.16.2/include/mbedtls/ssl_internal.h **** 
 408:/home/xingli/share/1205tiny/network/dtls/mbedtls/mbedtls-2.16.2/include/mbedtls/ssl_internal.h **** #if defined(MBEDTLS_SSL_ASYNC_PRIVATE)
 409:/home/xingli/share/1205tiny/network/dtls/mbedtls/mbedtls-2.16.2/include/mbedtls/ssl_internal.h ****     unsigned int async_in_progress : 1; /*!< an asynchronous operation is in progress */
 410:/home/xingli/share/1205tiny/network/dtls/mbedtls/mbedtls-2.16.2/include/mbedtls/ssl_internal.h **** #endif /* MBEDTLS_SSL_ASYNC_PRIVATE */
 411:/home/xingli/share/1205tiny/network/dtls/mbedtls/mbedtls-2.16.2/include/mbedtls/ssl_internal.h **** 
 412:/home/xingli/share/1205tiny/network/dtls/mbedtls/mbedtls-2.16.2/include/mbedtls/ssl_internal.h **** #if defined(MBEDTLS_SSL_ASYNC_PRIVATE)
 413:/home/xingli/share/1205tiny/network/dtls/mbedtls/mbedtls-2.16.2/include/mbedtls/ssl_internal.h ****     /** Asynchronous operation context. This field is meant for use by the
 414:/home/xingli/share/1205tiny/network/dtls/mbedtls/mbedtls-2.16.2/include/mbedtls/ssl_internal.h ****      * asynchronous operation callbacks (mbedtls_ssl_config::f_async_sign_start,
 415:/home/xingli/share/1205tiny/network/dtls/mbedtls/mbedtls-2.16.2/include/mbedtls/ssl_internal.h ****      * mbedtls_ssl_config::f_async_decrypt_start,
 416:/home/xingli/share/1205tiny/network/dtls/mbedtls/mbedtls-2.16.2/include/mbedtls/ssl_internal.h ****      * mbedtls_ssl_config::f_async_resume, mbedtls_ssl_config::f_async_cancel).
GAS LISTING /tmp/ccEn8xFO.s 			page 22


 417:/home/xingli/share/1205tiny/network/dtls/mbedtls/mbedtls-2.16.2/include/mbedtls/ssl_internal.h ****      * The library does not use it internally. */
 418:/home/xingli/share/1205tiny/network/dtls/mbedtls/mbedtls-2.16.2/include/mbedtls/ssl_internal.h ****     void *user_async_ctx;
 419:/home/xingli/share/1205tiny/network/dtls/mbedtls/mbedtls-2.16.2/include/mbedtls/ssl_internal.h **** #endif /* MBEDTLS_SSL_ASYNC_PRIVATE */
 420:/home/xingli/share/1205tiny/network/dtls/mbedtls/mbedtls-2.16.2/include/mbedtls/ssl_internal.h **** };
 421:/home/xingli/share/1205tiny/network/dtls/mbedtls/mbedtls-2.16.2/include/mbedtls/ssl_internal.h **** 
 422:/home/xingli/share/1205tiny/network/dtls/mbedtls/mbedtls-2.16.2/include/mbedtls/ssl_internal.h **** typedef struct mbedtls_ssl_hs_buffer mbedtls_ssl_hs_buffer;
 423:/home/xingli/share/1205tiny/network/dtls/mbedtls/mbedtls-2.16.2/include/mbedtls/ssl_internal.h **** 
 424:/home/xingli/share/1205tiny/network/dtls/mbedtls/mbedtls-2.16.2/include/mbedtls/ssl_internal.h **** /*
 425:/home/xingli/share/1205tiny/network/dtls/mbedtls/mbedtls-2.16.2/include/mbedtls/ssl_internal.h ****  * This structure contains a full set of runtime transform parameters
 426:/home/xingli/share/1205tiny/network/dtls/mbedtls/mbedtls-2.16.2/include/mbedtls/ssl_internal.h ****  * either in negotiation or active.
 427:/home/xingli/share/1205tiny/network/dtls/mbedtls/mbedtls-2.16.2/include/mbedtls/ssl_internal.h ****  */
 428:/home/xingli/share/1205tiny/network/dtls/mbedtls/mbedtls-2.16.2/include/mbedtls/ssl_internal.h **** struct mbedtls_ssl_transform
 429:/home/xingli/share/1205tiny/network/dtls/mbedtls/mbedtls-2.16.2/include/mbedtls/ssl_internal.h **** {
 430:/home/xingli/share/1205tiny/network/dtls/mbedtls/mbedtls-2.16.2/include/mbedtls/ssl_internal.h ****     /*
 431:/home/xingli/share/1205tiny/network/dtls/mbedtls/mbedtls-2.16.2/include/mbedtls/ssl_internal.h ****      * Session specific crypto layer
 432:/home/xingli/share/1205tiny/network/dtls/mbedtls/mbedtls-2.16.2/include/mbedtls/ssl_internal.h ****      */
 433:/home/xingli/share/1205tiny/network/dtls/mbedtls/mbedtls-2.16.2/include/mbedtls/ssl_internal.h ****     const mbedtls_ssl_ciphersuite_t *ciphersuite_info;
 434:/home/xingli/share/1205tiny/network/dtls/mbedtls/mbedtls-2.16.2/include/mbedtls/ssl_internal.h ****                                         /*!<  Chosen cipersuite_info  */
 435:/home/xingli/share/1205tiny/network/dtls/mbedtls/mbedtls-2.16.2/include/mbedtls/ssl_internal.h ****     unsigned int keylen;                /*!<  symmetric key length (bytes)  */
 436:/home/xingli/share/1205tiny/network/dtls/mbedtls/mbedtls-2.16.2/include/mbedtls/ssl_internal.h ****     size_t minlen;                      /*!<  min. ciphertext length  */
 437:/home/xingli/share/1205tiny/network/dtls/mbedtls/mbedtls-2.16.2/include/mbedtls/ssl_internal.h ****     size_t ivlen;                       /*!<  IV length               */
 438:/home/xingli/share/1205tiny/network/dtls/mbedtls/mbedtls-2.16.2/include/mbedtls/ssl_internal.h ****     size_t fixed_ivlen;                 /*!<  Fixed part of IV (AEAD) */
 439:/home/xingli/share/1205tiny/network/dtls/mbedtls/mbedtls-2.16.2/include/mbedtls/ssl_internal.h ****     size_t maclen;                      /*!<  MAC length              */
 440:/home/xingli/share/1205tiny/network/dtls/mbedtls/mbedtls-2.16.2/include/mbedtls/ssl_internal.h **** 
 441:/home/xingli/share/1205tiny/network/dtls/mbedtls/mbedtls-2.16.2/include/mbedtls/ssl_internal.h ****     unsigned char iv_enc[16];           /*!<  IV (encryption)         */
 442:/home/xingli/share/1205tiny/network/dtls/mbedtls/mbedtls-2.16.2/include/mbedtls/ssl_internal.h ****     unsigned char iv_dec[16];           /*!<  IV (decryption)         */
 443:/home/xingli/share/1205tiny/network/dtls/mbedtls/mbedtls-2.16.2/include/mbedtls/ssl_internal.h **** 
 444:/home/xingli/share/1205tiny/network/dtls/mbedtls/mbedtls-2.16.2/include/mbedtls/ssl_internal.h **** #if defined(MBEDTLS_SSL_PROTO_SSL3)
 445:/home/xingli/share/1205tiny/network/dtls/mbedtls/mbedtls-2.16.2/include/mbedtls/ssl_internal.h ****     /* Needed only for SSL v3.0 secret */
 446:/home/xingli/share/1205tiny/network/dtls/mbedtls/mbedtls-2.16.2/include/mbedtls/ssl_internal.h ****     unsigned char mac_enc[20];          /*!<  SSL v3.0 secret (enc)   */
 447:/home/xingli/share/1205tiny/network/dtls/mbedtls/mbedtls-2.16.2/include/mbedtls/ssl_internal.h ****     unsigned char mac_dec[20];          /*!<  SSL v3.0 secret (dec)   */
 448:/home/xingli/share/1205tiny/network/dtls/mbedtls/mbedtls-2.16.2/include/mbedtls/ssl_internal.h **** #endif /* MBEDTLS_SSL_PROTO_SSL3 */
 449:/home/xingli/share/1205tiny/network/dtls/mbedtls/mbedtls-2.16.2/include/mbedtls/ssl_internal.h **** 
 450:/home/xingli/share/1205tiny/network/dtls/mbedtls/mbedtls-2.16.2/include/mbedtls/ssl_internal.h ****     mbedtls_md_context_t md_ctx_enc;            /*!<  MAC (encryption)        */
 451:/home/xingli/share/1205tiny/network/dtls/mbedtls/mbedtls-2.16.2/include/mbedtls/ssl_internal.h ****     mbedtls_md_context_t md_ctx_dec;            /*!<  MAC (decryption)        */
 452:/home/xingli/share/1205tiny/network/dtls/mbedtls/mbedtls-2.16.2/include/mbedtls/ssl_internal.h **** 
 453:/home/xingli/share/1205tiny/network/dtls/mbedtls/mbedtls-2.16.2/include/mbedtls/ssl_internal.h ****     mbedtls_cipher_context_t cipher_ctx_enc;    /*!<  encryption context      */
 454:/home/xingli/share/1205tiny/network/dtls/mbedtls/mbedtls-2.16.2/include/mbedtls/ssl_internal.h ****     mbedtls_cipher_context_t cipher_ctx_dec;    /*!<  decryption context      */
 455:/home/xingli/share/1205tiny/network/dtls/mbedtls/mbedtls-2.16.2/include/mbedtls/ssl_internal.h **** 
 456:/home/xingli/share/1205tiny/network/dtls/mbedtls/mbedtls-2.16.2/include/mbedtls/ssl_internal.h ****     /*
 457:/home/xingli/share/1205tiny/network/dtls/mbedtls/mbedtls-2.16.2/include/mbedtls/ssl_internal.h ****      * Session specific compression layer
 458:/home/xingli/share/1205tiny/network/dtls/mbedtls/mbedtls-2.16.2/include/mbedtls/ssl_internal.h ****      */
 459:/home/xingli/share/1205tiny/network/dtls/mbedtls/mbedtls-2.16.2/include/mbedtls/ssl_internal.h **** #if defined(MBEDTLS_ZLIB_SUPPORT)
 460:/home/xingli/share/1205tiny/network/dtls/mbedtls/mbedtls-2.16.2/include/mbedtls/ssl_internal.h ****     z_stream ctx_deflate;               /*!<  compression context     */
 461:/home/xingli/share/1205tiny/network/dtls/mbedtls/mbedtls-2.16.2/include/mbedtls/ssl_internal.h ****     z_stream ctx_inflate;               /*!<  decompression context   */
 462:/home/xingli/share/1205tiny/network/dtls/mbedtls/mbedtls-2.16.2/include/mbedtls/ssl_internal.h **** #endif
 463:/home/xingli/share/1205tiny/network/dtls/mbedtls/mbedtls-2.16.2/include/mbedtls/ssl_internal.h **** };
 464:/home/xingli/share/1205tiny/network/dtls/mbedtls/mbedtls-2.16.2/include/mbedtls/ssl_internal.h **** 
 465:/home/xingli/share/1205tiny/network/dtls/mbedtls/mbedtls-2.16.2/include/mbedtls/ssl_internal.h **** #if defined(MBEDTLS_X509_CRT_PARSE_C)
 466:/home/xingli/share/1205tiny/network/dtls/mbedtls/mbedtls-2.16.2/include/mbedtls/ssl_internal.h **** /*
 467:/home/xingli/share/1205tiny/network/dtls/mbedtls/mbedtls-2.16.2/include/mbedtls/ssl_internal.h ****  * List of certificate + private key pairs
 468:/home/xingli/share/1205tiny/network/dtls/mbedtls/mbedtls-2.16.2/include/mbedtls/ssl_internal.h ****  */
 469:/home/xingli/share/1205tiny/network/dtls/mbedtls/mbedtls-2.16.2/include/mbedtls/ssl_internal.h **** struct mbedtls_ssl_key_cert
 470:/home/xingli/share/1205tiny/network/dtls/mbedtls/mbedtls-2.16.2/include/mbedtls/ssl_internal.h **** {
 471:/home/xingli/share/1205tiny/network/dtls/mbedtls/mbedtls-2.16.2/include/mbedtls/ssl_internal.h ****     mbedtls_x509_crt *cert;                 /*!< cert                       */
 472:/home/xingli/share/1205tiny/network/dtls/mbedtls/mbedtls-2.16.2/include/mbedtls/ssl_internal.h ****     mbedtls_pk_context *key;                /*!< private key                */
 473:/home/xingli/share/1205tiny/network/dtls/mbedtls/mbedtls-2.16.2/include/mbedtls/ssl_internal.h ****     mbedtls_ssl_key_cert *next;             /*!< next key/cert pair         */
GAS LISTING /tmp/ccEn8xFO.s 			page 23


 474:/home/xingli/share/1205tiny/network/dtls/mbedtls/mbedtls-2.16.2/include/mbedtls/ssl_internal.h **** };
 475:/home/xingli/share/1205tiny/network/dtls/mbedtls/mbedtls-2.16.2/include/mbedtls/ssl_internal.h **** #endif /* MBEDTLS_X509_CRT_PARSE_C */
 476:/home/xingli/share/1205tiny/network/dtls/mbedtls/mbedtls-2.16.2/include/mbedtls/ssl_internal.h **** 
 477:/home/xingli/share/1205tiny/network/dtls/mbedtls/mbedtls-2.16.2/include/mbedtls/ssl_internal.h **** #if defined(MBEDTLS_SSL_PROTO_DTLS)
 478:/home/xingli/share/1205tiny/network/dtls/mbedtls/mbedtls-2.16.2/include/mbedtls/ssl_internal.h **** /*
 479:/home/xingli/share/1205tiny/network/dtls/mbedtls/mbedtls-2.16.2/include/mbedtls/ssl_internal.h ****  * List of handshake messages kept around for resending
 480:/home/xingli/share/1205tiny/network/dtls/mbedtls/mbedtls-2.16.2/include/mbedtls/ssl_internal.h ****  */
 481:/home/xingli/share/1205tiny/network/dtls/mbedtls/mbedtls-2.16.2/include/mbedtls/ssl_internal.h **** struct mbedtls_ssl_flight_item
 482:/home/xingli/share/1205tiny/network/dtls/mbedtls/mbedtls-2.16.2/include/mbedtls/ssl_internal.h **** {
 483:/home/xingli/share/1205tiny/network/dtls/mbedtls/mbedtls-2.16.2/include/mbedtls/ssl_internal.h ****     unsigned char *p;       /*!< message, including handshake headers   */
 484:/home/xingli/share/1205tiny/network/dtls/mbedtls/mbedtls-2.16.2/include/mbedtls/ssl_internal.h ****     size_t len;             /*!< length of p                            */
 485:/home/xingli/share/1205tiny/network/dtls/mbedtls/mbedtls-2.16.2/include/mbedtls/ssl_internal.h ****     unsigned char type;     /*!< type of the message: handshake or CCS  */
 486:/home/xingli/share/1205tiny/network/dtls/mbedtls/mbedtls-2.16.2/include/mbedtls/ssl_internal.h ****     mbedtls_ssl_flight_item *next;  /*!< next handshake message(s)              */
 487:/home/xingli/share/1205tiny/network/dtls/mbedtls/mbedtls-2.16.2/include/mbedtls/ssl_internal.h **** };
 488:/home/xingli/share/1205tiny/network/dtls/mbedtls/mbedtls-2.16.2/include/mbedtls/ssl_internal.h **** #endif /* MBEDTLS_SSL_PROTO_DTLS */
 489:/home/xingli/share/1205tiny/network/dtls/mbedtls/mbedtls-2.16.2/include/mbedtls/ssl_internal.h **** 
 490:/home/xingli/share/1205tiny/network/dtls/mbedtls/mbedtls-2.16.2/include/mbedtls/ssl_internal.h **** #if defined(MBEDTLS_SSL_PROTO_TLS1_2) && \
 491:/home/xingli/share/1205tiny/network/dtls/mbedtls/mbedtls-2.16.2/include/mbedtls/ssl_internal.h ****     defined(MBEDTLS_KEY_EXCHANGE__WITH_CERT__ENABLED)
 492:/home/xingli/share/1205tiny/network/dtls/mbedtls/mbedtls-2.16.2/include/mbedtls/ssl_internal.h **** 
 493:/home/xingli/share/1205tiny/network/dtls/mbedtls/mbedtls-2.16.2/include/mbedtls/ssl_internal.h **** /* Find an entry in a signature-hash set matching a given hash algorithm. */
 494:/home/xingli/share/1205tiny/network/dtls/mbedtls/mbedtls-2.16.2/include/mbedtls/ssl_internal.h **** mbedtls_md_type_t mbedtls_ssl_sig_hash_set_find( mbedtls_ssl_sig_hash_set_t *set,
 495:/home/xingli/share/1205tiny/network/dtls/mbedtls/mbedtls-2.16.2/include/mbedtls/ssl_internal.h ****                                                  mbedtls_pk_type_t sig_alg );
 496:/home/xingli/share/1205tiny/network/dtls/mbedtls/mbedtls-2.16.2/include/mbedtls/ssl_internal.h **** /* Add a signature-hash-pair to a signature-hash set */
 497:/home/xingli/share/1205tiny/network/dtls/mbedtls/mbedtls-2.16.2/include/mbedtls/ssl_internal.h **** void mbedtls_ssl_sig_hash_set_add( mbedtls_ssl_sig_hash_set_t *set,
 498:/home/xingli/share/1205tiny/network/dtls/mbedtls/mbedtls-2.16.2/include/mbedtls/ssl_internal.h ****                                    mbedtls_pk_type_t sig_alg,
 499:/home/xingli/share/1205tiny/network/dtls/mbedtls/mbedtls-2.16.2/include/mbedtls/ssl_internal.h ****                                    mbedtls_md_type_t md_alg );
 500:/home/xingli/share/1205tiny/network/dtls/mbedtls/mbedtls-2.16.2/include/mbedtls/ssl_internal.h **** /* Allow exactly one hash algorithm for each signature. */
 501:/home/xingli/share/1205tiny/network/dtls/mbedtls/mbedtls-2.16.2/include/mbedtls/ssl_internal.h **** void mbedtls_ssl_sig_hash_set_const_hash( mbedtls_ssl_sig_hash_set_t *set,
 502:/home/xingli/share/1205tiny/network/dtls/mbedtls/mbedtls-2.16.2/include/mbedtls/ssl_internal.h ****                                           mbedtls_md_type_t md_alg );
 503:/home/xingli/share/1205tiny/network/dtls/mbedtls/mbedtls-2.16.2/include/mbedtls/ssl_internal.h **** 
 504:/home/xingli/share/1205tiny/network/dtls/mbedtls/mbedtls-2.16.2/include/mbedtls/ssl_internal.h **** /* Setup an empty signature-hash set */
 505:/home/xingli/share/1205tiny/network/dtls/mbedtls/mbedtls-2.16.2/include/mbedtls/ssl_internal.h **** static inline void mbedtls_ssl_sig_hash_set_init( mbedtls_ssl_sig_hash_set_t *set )
 506:/home/xingli/share/1205tiny/network/dtls/mbedtls/mbedtls-2.16.2/include/mbedtls/ssl_internal.h **** {
 145              		.loc 3 506 1
 146              		.cfi_startproc
 147 0000 55       		pushq	%rbp
 148              	.LCFI9:
 149              		.cfi_def_cfa_offset 16
 150              		.cfi_offset 6, -16
 151 0001 4889E5   		movq	%rsp, %rbp
 152              	.LCFI10:
 153              		.cfi_def_cfa_register 6
 154 0004 4883EC20 		subq	$32, %rsp
 155 0008 48897DE8 		movq	%rdi, -24(%rbp)
 156              		.loc 3 506 1
 157 000c 64488B04 		movq	%fs:40, %rax
 157      25280000 
 157      00
 158 0015 488945F8 		movq	%rax, -8(%rbp)
 159 0019 31C0     		xorl	%eax, %eax
 507:/home/xingli/share/1205tiny/network/dtls/mbedtls/mbedtls-2.16.2/include/mbedtls/ssl_internal.h ****     mbedtls_ssl_sig_hash_set_const_hash( set, MBEDTLS_MD_NONE );
 160              		.loc 3 507 5
 161 001b 488B45E8 		movq	-24(%rbp), %rax
 162 001f BE000000 		movl	$0, %esi
 162      00
 163 0024 4889C7   		movq	%rax, %rdi
 164 0027 E8000000 		call	mbedtls_ssl_sig_hash_set_const_hash
GAS LISTING /tmp/ccEn8xFO.s 			page 24


 164      00
 508:/home/xingli/share/1205tiny/network/dtls/mbedtls/mbedtls-2.16.2/include/mbedtls/ssl_internal.h **** }
 165              		.loc 3 508 1
 166 002c 90       		nop
 167 002d 488B45F8 		movq	-8(%rbp), %rax
 168 0031 64483304 		xorq	%fs:40, %rax
 168      25280000 
 168      00
 169 003a 7405     		je	.L13
 170 003c E8000000 		call	__stack_chk_fail@PLT
 170      00
 171              	.L13:
 172 0041 C9       		leave
 173              	.LCFI11:
 174              		.cfi_def_cfa 7, 8
 175 0042 C3       		ret
 176              		.cfi_endproc
 177              	.LFE21:
 179              		.section	.text.mbedtls_ssl_own_cert,"ax",@progbits
 181              	mbedtls_ssl_own_cert:
 182              	.LFB23:
 509:/home/xingli/share/1205tiny/network/dtls/mbedtls/mbedtls-2.16.2/include/mbedtls/ssl_internal.h **** 
 510:/home/xingli/share/1205tiny/network/dtls/mbedtls/mbedtls-2.16.2/include/mbedtls/ssl_internal.h **** #endif /* MBEDTLS_SSL_PROTO_TLS1_2) &&
 511:/home/xingli/share/1205tiny/network/dtls/mbedtls/mbedtls-2.16.2/include/mbedtls/ssl_internal.h ****           MBEDTLS_KEY_EXCHANGE__WITH_CERT__ENABLED */
 512:/home/xingli/share/1205tiny/network/dtls/mbedtls/mbedtls-2.16.2/include/mbedtls/ssl_internal.h **** 
 513:/home/xingli/share/1205tiny/network/dtls/mbedtls/mbedtls-2.16.2/include/mbedtls/ssl_internal.h **** /**
 514:/home/xingli/share/1205tiny/network/dtls/mbedtls/mbedtls-2.16.2/include/mbedtls/ssl_internal.h ****  * \brief           Free referenced items in an SSL transform context and clear
 515:/home/xingli/share/1205tiny/network/dtls/mbedtls/mbedtls-2.16.2/include/mbedtls/ssl_internal.h ****  *                  memory
 516:/home/xingli/share/1205tiny/network/dtls/mbedtls/mbedtls-2.16.2/include/mbedtls/ssl_internal.h ****  *
 517:/home/xingli/share/1205tiny/network/dtls/mbedtls/mbedtls-2.16.2/include/mbedtls/ssl_internal.h ****  * \param transform SSL transform context
 518:/home/xingli/share/1205tiny/network/dtls/mbedtls/mbedtls-2.16.2/include/mbedtls/ssl_internal.h ****  */
 519:/home/xingli/share/1205tiny/network/dtls/mbedtls/mbedtls-2.16.2/include/mbedtls/ssl_internal.h **** void mbedtls_ssl_transform_free( mbedtls_ssl_transform *transform );
 520:/home/xingli/share/1205tiny/network/dtls/mbedtls/mbedtls-2.16.2/include/mbedtls/ssl_internal.h **** 
 521:/home/xingli/share/1205tiny/network/dtls/mbedtls/mbedtls-2.16.2/include/mbedtls/ssl_internal.h **** /**
 522:/home/xingli/share/1205tiny/network/dtls/mbedtls/mbedtls-2.16.2/include/mbedtls/ssl_internal.h ****  * \brief           Free referenced items in an SSL handshake context and clear
 523:/home/xingli/share/1205tiny/network/dtls/mbedtls/mbedtls-2.16.2/include/mbedtls/ssl_internal.h ****  *                  memory
 524:/home/xingli/share/1205tiny/network/dtls/mbedtls/mbedtls-2.16.2/include/mbedtls/ssl_internal.h ****  *
 525:/home/xingli/share/1205tiny/network/dtls/mbedtls/mbedtls-2.16.2/include/mbedtls/ssl_internal.h ****  * \param ssl       SSL context
 526:/home/xingli/share/1205tiny/network/dtls/mbedtls/mbedtls-2.16.2/include/mbedtls/ssl_internal.h ****  */
 527:/home/xingli/share/1205tiny/network/dtls/mbedtls/mbedtls-2.16.2/include/mbedtls/ssl_internal.h **** void mbedtls_ssl_handshake_free( mbedtls_ssl_context *ssl );
 528:/home/xingli/share/1205tiny/network/dtls/mbedtls/mbedtls-2.16.2/include/mbedtls/ssl_internal.h **** 
 529:/home/xingli/share/1205tiny/network/dtls/mbedtls/mbedtls-2.16.2/include/mbedtls/ssl_internal.h **** int mbedtls_ssl_handshake_client_step( mbedtls_ssl_context *ssl );
 530:/home/xingli/share/1205tiny/network/dtls/mbedtls/mbedtls-2.16.2/include/mbedtls/ssl_internal.h **** int mbedtls_ssl_handshake_server_step( mbedtls_ssl_context *ssl );
 531:/home/xingli/share/1205tiny/network/dtls/mbedtls/mbedtls-2.16.2/include/mbedtls/ssl_internal.h **** void mbedtls_ssl_handshake_wrapup( mbedtls_ssl_context *ssl );
 532:/home/xingli/share/1205tiny/network/dtls/mbedtls/mbedtls-2.16.2/include/mbedtls/ssl_internal.h **** 
 533:/home/xingli/share/1205tiny/network/dtls/mbedtls/mbedtls-2.16.2/include/mbedtls/ssl_internal.h **** int mbedtls_ssl_send_fatal_handshake_failure( mbedtls_ssl_context *ssl );
 534:/home/xingli/share/1205tiny/network/dtls/mbedtls/mbedtls-2.16.2/include/mbedtls/ssl_internal.h **** 
 535:/home/xingli/share/1205tiny/network/dtls/mbedtls/mbedtls-2.16.2/include/mbedtls/ssl_internal.h **** void mbedtls_ssl_reset_checksum( mbedtls_ssl_context *ssl );
 536:/home/xingli/share/1205tiny/network/dtls/mbedtls/mbedtls-2.16.2/include/mbedtls/ssl_internal.h **** int mbedtls_ssl_derive_keys( mbedtls_ssl_context *ssl );
 537:/home/xingli/share/1205tiny/network/dtls/mbedtls/mbedtls-2.16.2/include/mbedtls/ssl_internal.h **** 
 538:/home/xingli/share/1205tiny/network/dtls/mbedtls/mbedtls-2.16.2/include/mbedtls/ssl_internal.h **** int mbedtls_ssl_handle_message_type( mbedtls_ssl_context *ssl );
 539:/home/xingli/share/1205tiny/network/dtls/mbedtls/mbedtls-2.16.2/include/mbedtls/ssl_internal.h **** int mbedtls_ssl_prepare_handshake_record( mbedtls_ssl_context *ssl );
 540:/home/xingli/share/1205tiny/network/dtls/mbedtls/mbedtls-2.16.2/include/mbedtls/ssl_internal.h **** void mbedtls_ssl_update_handshake_status( mbedtls_ssl_context *ssl );
 541:/home/xingli/share/1205tiny/network/dtls/mbedtls/mbedtls-2.16.2/include/mbedtls/ssl_internal.h **** 
 542:/home/xingli/share/1205tiny/network/dtls/mbedtls/mbedtls-2.16.2/include/mbedtls/ssl_internal.h **** /**
 543:/home/xingli/share/1205tiny/network/dtls/mbedtls/mbedtls-2.16.2/include/mbedtls/ssl_internal.h ****  * \brief       Update record layer
 544:/home/xingli/share/1205tiny/network/dtls/mbedtls/mbedtls-2.16.2/include/mbedtls/ssl_internal.h ****  *
GAS LISTING /tmp/ccEn8xFO.s 			page 25


 545:/home/xingli/share/1205tiny/network/dtls/mbedtls/mbedtls-2.16.2/include/mbedtls/ssl_internal.h ****  *              This function roughly separates the implementation
 546:/home/xingli/share/1205tiny/network/dtls/mbedtls/mbedtls-2.16.2/include/mbedtls/ssl_internal.h ****  *              of the logic of (D)TLS from the implementation
 547:/home/xingli/share/1205tiny/network/dtls/mbedtls/mbedtls-2.16.2/include/mbedtls/ssl_internal.h ****  *              of the secure transport.
 548:/home/xingli/share/1205tiny/network/dtls/mbedtls/mbedtls-2.16.2/include/mbedtls/ssl_internal.h ****  *
 549:/home/xingli/share/1205tiny/network/dtls/mbedtls/mbedtls-2.16.2/include/mbedtls/ssl_internal.h ****  * \param  ssl              The SSL context to use.
 550:/home/xingli/share/1205tiny/network/dtls/mbedtls/mbedtls-2.16.2/include/mbedtls/ssl_internal.h ****  * \param  update_hs_digest This indicates if the handshake digest
 551:/home/xingli/share/1205tiny/network/dtls/mbedtls/mbedtls-2.16.2/include/mbedtls/ssl_internal.h ****  *                          should be automatically updated in case
 552:/home/xingli/share/1205tiny/network/dtls/mbedtls/mbedtls-2.16.2/include/mbedtls/ssl_internal.h ****  *                          a handshake message is found.
 553:/home/xingli/share/1205tiny/network/dtls/mbedtls/mbedtls-2.16.2/include/mbedtls/ssl_internal.h ****  *
 554:/home/xingli/share/1205tiny/network/dtls/mbedtls/mbedtls-2.16.2/include/mbedtls/ssl_internal.h ****  * \return      0 or non-zero error code.
 555:/home/xingli/share/1205tiny/network/dtls/mbedtls/mbedtls-2.16.2/include/mbedtls/ssl_internal.h ****  *
 556:/home/xingli/share/1205tiny/network/dtls/mbedtls/mbedtls-2.16.2/include/mbedtls/ssl_internal.h ****  * \note        A clarification on what is called 'record layer' here
 557:/home/xingli/share/1205tiny/network/dtls/mbedtls/mbedtls-2.16.2/include/mbedtls/ssl_internal.h ****  *              is in order, as many sensible definitions are possible:
 558:/home/xingli/share/1205tiny/network/dtls/mbedtls/mbedtls-2.16.2/include/mbedtls/ssl_internal.h ****  *
 559:/home/xingli/share/1205tiny/network/dtls/mbedtls/mbedtls-2.16.2/include/mbedtls/ssl_internal.h ****  *              The record layer takes as input an untrusted underlying
 560:/home/xingli/share/1205tiny/network/dtls/mbedtls/mbedtls-2.16.2/include/mbedtls/ssl_internal.h ****  *              transport (stream or datagram) and transforms it into
 561:/home/xingli/share/1205tiny/network/dtls/mbedtls/mbedtls-2.16.2/include/mbedtls/ssl_internal.h ****  *              a serially multiplexed, secure transport, which
 562:/home/xingli/share/1205tiny/network/dtls/mbedtls/mbedtls-2.16.2/include/mbedtls/ssl_internal.h ****  *              conceptually provides the following:
 563:/home/xingli/share/1205tiny/network/dtls/mbedtls/mbedtls-2.16.2/include/mbedtls/ssl_internal.h ****  *
 564:/home/xingli/share/1205tiny/network/dtls/mbedtls/mbedtls-2.16.2/include/mbedtls/ssl_internal.h ****  *              (1) Three datagram based, content-agnostic transports
 565:/home/xingli/share/1205tiny/network/dtls/mbedtls/mbedtls-2.16.2/include/mbedtls/ssl_internal.h ****  *                  for handshake, alert and CCS messages.
 566:/home/xingli/share/1205tiny/network/dtls/mbedtls/mbedtls-2.16.2/include/mbedtls/ssl_internal.h ****  *              (2) One stream- or datagram-based transport
 567:/home/xingli/share/1205tiny/network/dtls/mbedtls/mbedtls-2.16.2/include/mbedtls/ssl_internal.h ****  *                  for application data.
 568:/home/xingli/share/1205tiny/network/dtls/mbedtls/mbedtls-2.16.2/include/mbedtls/ssl_internal.h ****  *              (3) Functionality for changing the underlying transform
 569:/home/xingli/share/1205tiny/network/dtls/mbedtls/mbedtls-2.16.2/include/mbedtls/ssl_internal.h ****  *                  securing the contents.
 570:/home/xingli/share/1205tiny/network/dtls/mbedtls/mbedtls-2.16.2/include/mbedtls/ssl_internal.h ****  *
 571:/home/xingli/share/1205tiny/network/dtls/mbedtls/mbedtls-2.16.2/include/mbedtls/ssl_internal.h ****  *              The interface to this functionality is given as follows:
 572:/home/xingli/share/1205tiny/network/dtls/mbedtls/mbedtls-2.16.2/include/mbedtls/ssl_internal.h ****  *
 573:/home/xingli/share/1205tiny/network/dtls/mbedtls/mbedtls-2.16.2/include/mbedtls/ssl_internal.h ****  *              a Updating
 574:/home/xingli/share/1205tiny/network/dtls/mbedtls/mbedtls-2.16.2/include/mbedtls/ssl_internal.h ****  *                [Currently implemented by mbedtls_ssl_read_record]
 575:/home/xingli/share/1205tiny/network/dtls/mbedtls/mbedtls-2.16.2/include/mbedtls/ssl_internal.h ****  *
 576:/home/xingli/share/1205tiny/network/dtls/mbedtls/mbedtls-2.16.2/include/mbedtls/ssl_internal.h ****  *                Check if and on which of the four 'ports' data is pending:
 577:/home/xingli/share/1205tiny/network/dtls/mbedtls/mbedtls-2.16.2/include/mbedtls/ssl_internal.h ****  *                Nothing, a controlling datagram of type (1), or application
 578:/home/xingli/share/1205tiny/network/dtls/mbedtls/mbedtls-2.16.2/include/mbedtls/ssl_internal.h ****  *                data (2). In any case data is present, internal buffers
 579:/home/xingli/share/1205tiny/network/dtls/mbedtls/mbedtls-2.16.2/include/mbedtls/ssl_internal.h ****  *                provide access to the data for the user to process it.
 580:/home/xingli/share/1205tiny/network/dtls/mbedtls/mbedtls-2.16.2/include/mbedtls/ssl_internal.h ****  *                Consumption of type (1) datagrams is done automatically
 581:/home/xingli/share/1205tiny/network/dtls/mbedtls/mbedtls-2.16.2/include/mbedtls/ssl_internal.h ****  *                on the next update, invalidating that the internal buffers
 582:/home/xingli/share/1205tiny/network/dtls/mbedtls/mbedtls-2.16.2/include/mbedtls/ssl_internal.h ****  *                for previous datagrams, while consumption of application
 583:/home/xingli/share/1205tiny/network/dtls/mbedtls/mbedtls-2.16.2/include/mbedtls/ssl_internal.h ****  *                data (2) is user-controlled.
 584:/home/xingli/share/1205tiny/network/dtls/mbedtls/mbedtls-2.16.2/include/mbedtls/ssl_internal.h ****  *
 585:/home/xingli/share/1205tiny/network/dtls/mbedtls/mbedtls-2.16.2/include/mbedtls/ssl_internal.h ****  *              b Reading of application data
 586:/home/xingli/share/1205tiny/network/dtls/mbedtls/mbedtls-2.16.2/include/mbedtls/ssl_internal.h ****  *                [Currently manual adaption of ssl->in_offt pointer]
 587:/home/xingli/share/1205tiny/network/dtls/mbedtls/mbedtls-2.16.2/include/mbedtls/ssl_internal.h ****  *
 588:/home/xingli/share/1205tiny/network/dtls/mbedtls/mbedtls-2.16.2/include/mbedtls/ssl_internal.h ****  *                As mentioned in the last paragraph, consumption of data
 589:/home/xingli/share/1205tiny/network/dtls/mbedtls/mbedtls-2.16.2/include/mbedtls/ssl_internal.h ****  *                is different from the automatic consumption of control
 590:/home/xingli/share/1205tiny/network/dtls/mbedtls/mbedtls-2.16.2/include/mbedtls/ssl_internal.h ****  *                datagrams (1) because application data is treated as a stream.
 591:/home/xingli/share/1205tiny/network/dtls/mbedtls/mbedtls-2.16.2/include/mbedtls/ssl_internal.h ****  *
 592:/home/xingli/share/1205tiny/network/dtls/mbedtls/mbedtls-2.16.2/include/mbedtls/ssl_internal.h ****  *              c Tracking availability of application data
 593:/home/xingli/share/1205tiny/network/dtls/mbedtls/mbedtls-2.16.2/include/mbedtls/ssl_internal.h ****  *                [Currently manually through decreasing ssl->in_msglen]
 594:/home/xingli/share/1205tiny/network/dtls/mbedtls/mbedtls-2.16.2/include/mbedtls/ssl_internal.h ****  *
 595:/home/xingli/share/1205tiny/network/dtls/mbedtls/mbedtls-2.16.2/include/mbedtls/ssl_internal.h ****  *                For efficiency and to retain datagram semantics for
 596:/home/xingli/share/1205tiny/network/dtls/mbedtls/mbedtls-2.16.2/include/mbedtls/ssl_internal.h ****  *                application data in case of DTLS, the record layer
 597:/home/xingli/share/1205tiny/network/dtls/mbedtls/mbedtls-2.16.2/include/mbedtls/ssl_internal.h ****  *                provides functionality for checking how much application
 598:/home/xingli/share/1205tiny/network/dtls/mbedtls/mbedtls-2.16.2/include/mbedtls/ssl_internal.h ****  *                data is still available in the internal buffer.
 599:/home/xingli/share/1205tiny/network/dtls/mbedtls/mbedtls-2.16.2/include/mbedtls/ssl_internal.h ****  *
 600:/home/xingli/share/1205tiny/network/dtls/mbedtls/mbedtls-2.16.2/include/mbedtls/ssl_internal.h ****  *              d Changing the transformation securing the communication.
 601:/home/xingli/share/1205tiny/network/dtls/mbedtls/mbedtls-2.16.2/include/mbedtls/ssl_internal.h ****  *
GAS LISTING /tmp/ccEn8xFO.s 			page 26


 602:/home/xingli/share/1205tiny/network/dtls/mbedtls/mbedtls-2.16.2/include/mbedtls/ssl_internal.h ****  *              Given an opaque implementation of the record layer in the
 603:/home/xingli/share/1205tiny/network/dtls/mbedtls/mbedtls-2.16.2/include/mbedtls/ssl_internal.h ****  *              above sense, it should be possible to implement the logic
 604:/home/xingli/share/1205tiny/network/dtls/mbedtls/mbedtls-2.16.2/include/mbedtls/ssl_internal.h ****  *              of (D)TLS on top of it without the need to know anything
 605:/home/xingli/share/1205tiny/network/dtls/mbedtls/mbedtls-2.16.2/include/mbedtls/ssl_internal.h ****  *              about the record layer's internals. This is done e.g.
 606:/home/xingli/share/1205tiny/network/dtls/mbedtls/mbedtls-2.16.2/include/mbedtls/ssl_internal.h ****  *              in all the handshake handling functions, and in the
 607:/home/xingli/share/1205tiny/network/dtls/mbedtls/mbedtls-2.16.2/include/mbedtls/ssl_internal.h ****  *              application data reading function mbedtls_ssl_read.
 608:/home/xingli/share/1205tiny/network/dtls/mbedtls/mbedtls-2.16.2/include/mbedtls/ssl_internal.h ****  *
 609:/home/xingli/share/1205tiny/network/dtls/mbedtls/mbedtls-2.16.2/include/mbedtls/ssl_internal.h ****  * \note        The above tries to give a conceptual picture of the
 610:/home/xingli/share/1205tiny/network/dtls/mbedtls/mbedtls-2.16.2/include/mbedtls/ssl_internal.h ****  *              record layer, but the current implementation deviates
 611:/home/xingli/share/1205tiny/network/dtls/mbedtls/mbedtls-2.16.2/include/mbedtls/ssl_internal.h ****  *              from it in some places. For example, our implementation of
 612:/home/xingli/share/1205tiny/network/dtls/mbedtls/mbedtls-2.16.2/include/mbedtls/ssl_internal.h ****  *              the update functionality through mbedtls_ssl_read_record
 613:/home/xingli/share/1205tiny/network/dtls/mbedtls/mbedtls-2.16.2/include/mbedtls/ssl_internal.h ****  *              discards datagrams depending on the current state, which
 614:/home/xingli/share/1205tiny/network/dtls/mbedtls/mbedtls-2.16.2/include/mbedtls/ssl_internal.h ****  *              wouldn't fall under the record layer's responsibility
 615:/home/xingli/share/1205tiny/network/dtls/mbedtls/mbedtls-2.16.2/include/mbedtls/ssl_internal.h ****  *              following the above definition.
 616:/home/xingli/share/1205tiny/network/dtls/mbedtls/mbedtls-2.16.2/include/mbedtls/ssl_internal.h ****  *
 617:/home/xingli/share/1205tiny/network/dtls/mbedtls/mbedtls-2.16.2/include/mbedtls/ssl_internal.h ****  */
 618:/home/xingli/share/1205tiny/network/dtls/mbedtls/mbedtls-2.16.2/include/mbedtls/ssl_internal.h **** int mbedtls_ssl_read_record( mbedtls_ssl_context *ssl,
 619:/home/xingli/share/1205tiny/network/dtls/mbedtls/mbedtls-2.16.2/include/mbedtls/ssl_internal.h ****                              unsigned update_hs_digest );
 620:/home/xingli/share/1205tiny/network/dtls/mbedtls/mbedtls-2.16.2/include/mbedtls/ssl_internal.h **** int mbedtls_ssl_fetch_input( mbedtls_ssl_context *ssl, size_t nb_want );
 621:/home/xingli/share/1205tiny/network/dtls/mbedtls/mbedtls-2.16.2/include/mbedtls/ssl_internal.h **** 
 622:/home/xingli/share/1205tiny/network/dtls/mbedtls/mbedtls-2.16.2/include/mbedtls/ssl_internal.h **** int mbedtls_ssl_write_handshake_msg( mbedtls_ssl_context *ssl );
 623:/home/xingli/share/1205tiny/network/dtls/mbedtls/mbedtls-2.16.2/include/mbedtls/ssl_internal.h **** int mbedtls_ssl_write_record( mbedtls_ssl_context *ssl, uint8_t force_flush );
 624:/home/xingli/share/1205tiny/network/dtls/mbedtls/mbedtls-2.16.2/include/mbedtls/ssl_internal.h **** int mbedtls_ssl_flush_output( mbedtls_ssl_context *ssl );
 625:/home/xingli/share/1205tiny/network/dtls/mbedtls/mbedtls-2.16.2/include/mbedtls/ssl_internal.h **** 
 626:/home/xingli/share/1205tiny/network/dtls/mbedtls/mbedtls-2.16.2/include/mbedtls/ssl_internal.h **** int mbedtls_ssl_parse_certificate( mbedtls_ssl_context *ssl );
 627:/home/xingli/share/1205tiny/network/dtls/mbedtls/mbedtls-2.16.2/include/mbedtls/ssl_internal.h **** int mbedtls_ssl_write_certificate( mbedtls_ssl_context *ssl );
 628:/home/xingli/share/1205tiny/network/dtls/mbedtls/mbedtls-2.16.2/include/mbedtls/ssl_internal.h **** 
 629:/home/xingli/share/1205tiny/network/dtls/mbedtls/mbedtls-2.16.2/include/mbedtls/ssl_internal.h **** int mbedtls_ssl_parse_change_cipher_spec( mbedtls_ssl_context *ssl );
 630:/home/xingli/share/1205tiny/network/dtls/mbedtls/mbedtls-2.16.2/include/mbedtls/ssl_internal.h **** int mbedtls_ssl_write_change_cipher_spec( mbedtls_ssl_context *ssl );
 631:/home/xingli/share/1205tiny/network/dtls/mbedtls/mbedtls-2.16.2/include/mbedtls/ssl_internal.h **** 
 632:/home/xingli/share/1205tiny/network/dtls/mbedtls/mbedtls-2.16.2/include/mbedtls/ssl_internal.h **** int mbedtls_ssl_parse_finished( mbedtls_ssl_context *ssl );
 633:/home/xingli/share/1205tiny/network/dtls/mbedtls/mbedtls-2.16.2/include/mbedtls/ssl_internal.h **** int mbedtls_ssl_write_finished( mbedtls_ssl_context *ssl );
 634:/home/xingli/share/1205tiny/network/dtls/mbedtls/mbedtls-2.16.2/include/mbedtls/ssl_internal.h **** 
 635:/home/xingli/share/1205tiny/network/dtls/mbedtls/mbedtls-2.16.2/include/mbedtls/ssl_internal.h **** void mbedtls_ssl_optimize_checksum( mbedtls_ssl_context *ssl,
 636:/home/xingli/share/1205tiny/network/dtls/mbedtls/mbedtls-2.16.2/include/mbedtls/ssl_internal.h ****                             const mbedtls_ssl_ciphersuite_t *ciphersuite_info );
 637:/home/xingli/share/1205tiny/network/dtls/mbedtls/mbedtls-2.16.2/include/mbedtls/ssl_internal.h **** 
 638:/home/xingli/share/1205tiny/network/dtls/mbedtls/mbedtls-2.16.2/include/mbedtls/ssl_internal.h **** #if defined(MBEDTLS_KEY_EXCHANGE__SOME__PSK_ENABLED)
 639:/home/xingli/share/1205tiny/network/dtls/mbedtls/mbedtls-2.16.2/include/mbedtls/ssl_internal.h **** int mbedtls_ssl_psk_derive_premaster( mbedtls_ssl_context *ssl, mbedtls_key_exchange_type_t key_ex 
 640:/home/xingli/share/1205tiny/network/dtls/mbedtls/mbedtls-2.16.2/include/mbedtls/ssl_internal.h **** #endif
 641:/home/xingli/share/1205tiny/network/dtls/mbedtls/mbedtls-2.16.2/include/mbedtls/ssl_internal.h **** 
 642:/home/xingli/share/1205tiny/network/dtls/mbedtls/mbedtls-2.16.2/include/mbedtls/ssl_internal.h **** #if defined(MBEDTLS_PK_C)
 643:/home/xingli/share/1205tiny/network/dtls/mbedtls/mbedtls-2.16.2/include/mbedtls/ssl_internal.h **** unsigned char mbedtls_ssl_sig_from_pk( mbedtls_pk_context *pk );
 644:/home/xingli/share/1205tiny/network/dtls/mbedtls/mbedtls-2.16.2/include/mbedtls/ssl_internal.h **** unsigned char mbedtls_ssl_sig_from_pk_alg( mbedtls_pk_type_t type );
 645:/home/xingli/share/1205tiny/network/dtls/mbedtls/mbedtls-2.16.2/include/mbedtls/ssl_internal.h **** mbedtls_pk_type_t mbedtls_ssl_pk_alg_from_sig( unsigned char sig );
 646:/home/xingli/share/1205tiny/network/dtls/mbedtls/mbedtls-2.16.2/include/mbedtls/ssl_internal.h **** #endif
 647:/home/xingli/share/1205tiny/network/dtls/mbedtls/mbedtls-2.16.2/include/mbedtls/ssl_internal.h **** 
 648:/home/xingli/share/1205tiny/network/dtls/mbedtls/mbedtls-2.16.2/include/mbedtls/ssl_internal.h **** mbedtls_md_type_t mbedtls_ssl_md_alg_from_hash( unsigned char hash );
 649:/home/xingli/share/1205tiny/network/dtls/mbedtls/mbedtls-2.16.2/include/mbedtls/ssl_internal.h **** unsigned char mbedtls_ssl_hash_from_md_alg( int md );
 650:/home/xingli/share/1205tiny/network/dtls/mbedtls/mbedtls-2.16.2/include/mbedtls/ssl_internal.h **** int mbedtls_ssl_set_calc_verify_md( mbedtls_ssl_context *ssl, int md );
 651:/home/xingli/share/1205tiny/network/dtls/mbedtls/mbedtls-2.16.2/include/mbedtls/ssl_internal.h **** 
 652:/home/xingli/share/1205tiny/network/dtls/mbedtls/mbedtls-2.16.2/include/mbedtls/ssl_internal.h **** #if defined(MBEDTLS_ECP_C)
 653:/home/xingli/share/1205tiny/network/dtls/mbedtls/mbedtls-2.16.2/include/mbedtls/ssl_internal.h **** int mbedtls_ssl_check_curve( const mbedtls_ssl_context *ssl, mbedtls_ecp_group_id grp_id );
 654:/home/xingli/share/1205tiny/network/dtls/mbedtls/mbedtls-2.16.2/include/mbedtls/ssl_internal.h **** #endif
 655:/home/xingli/share/1205tiny/network/dtls/mbedtls/mbedtls-2.16.2/include/mbedtls/ssl_internal.h **** 
 656:/home/xingli/share/1205tiny/network/dtls/mbedtls/mbedtls-2.16.2/include/mbedtls/ssl_internal.h **** #if defined(MBEDTLS_KEY_EXCHANGE__WITH_CERT__ENABLED)
 657:/home/xingli/share/1205tiny/network/dtls/mbedtls/mbedtls-2.16.2/include/mbedtls/ssl_internal.h **** int mbedtls_ssl_check_sig_hash( const mbedtls_ssl_context *ssl,
 658:/home/xingli/share/1205tiny/network/dtls/mbedtls/mbedtls-2.16.2/include/mbedtls/ssl_internal.h ****                                 mbedtls_md_type_t md );
GAS LISTING /tmp/ccEn8xFO.s 			page 27


 659:/home/xingli/share/1205tiny/network/dtls/mbedtls/mbedtls-2.16.2/include/mbedtls/ssl_internal.h **** #endif
 660:/home/xingli/share/1205tiny/network/dtls/mbedtls/mbedtls-2.16.2/include/mbedtls/ssl_internal.h **** 
 661:/home/xingli/share/1205tiny/network/dtls/mbedtls/mbedtls-2.16.2/include/mbedtls/ssl_internal.h **** #if defined(MBEDTLS_X509_CRT_PARSE_C)
 662:/home/xingli/share/1205tiny/network/dtls/mbedtls/mbedtls-2.16.2/include/mbedtls/ssl_internal.h **** static inline mbedtls_pk_context *mbedtls_ssl_own_key( mbedtls_ssl_context *ssl )
 663:/home/xingli/share/1205tiny/network/dtls/mbedtls/mbedtls-2.16.2/include/mbedtls/ssl_internal.h **** {
 664:/home/xingli/share/1205tiny/network/dtls/mbedtls/mbedtls-2.16.2/include/mbedtls/ssl_internal.h ****     mbedtls_ssl_key_cert *key_cert;
 665:/home/xingli/share/1205tiny/network/dtls/mbedtls/mbedtls-2.16.2/include/mbedtls/ssl_internal.h **** 
 666:/home/xingli/share/1205tiny/network/dtls/mbedtls/mbedtls-2.16.2/include/mbedtls/ssl_internal.h ****     if( ssl->handshake != NULL && ssl->handshake->key_cert != NULL )
 667:/home/xingli/share/1205tiny/network/dtls/mbedtls/mbedtls-2.16.2/include/mbedtls/ssl_internal.h ****         key_cert = ssl->handshake->key_cert;
 668:/home/xingli/share/1205tiny/network/dtls/mbedtls/mbedtls-2.16.2/include/mbedtls/ssl_internal.h ****     else
 669:/home/xingli/share/1205tiny/network/dtls/mbedtls/mbedtls-2.16.2/include/mbedtls/ssl_internal.h ****         key_cert = ssl->conf->key_cert;
 670:/home/xingli/share/1205tiny/network/dtls/mbedtls/mbedtls-2.16.2/include/mbedtls/ssl_internal.h **** 
 671:/home/xingli/share/1205tiny/network/dtls/mbedtls/mbedtls-2.16.2/include/mbedtls/ssl_internal.h ****     return( key_cert == NULL ? NULL : key_cert->key );
 672:/home/xingli/share/1205tiny/network/dtls/mbedtls/mbedtls-2.16.2/include/mbedtls/ssl_internal.h **** }
 673:/home/xingli/share/1205tiny/network/dtls/mbedtls/mbedtls-2.16.2/include/mbedtls/ssl_internal.h **** 
 674:/home/xingli/share/1205tiny/network/dtls/mbedtls/mbedtls-2.16.2/include/mbedtls/ssl_internal.h **** static inline mbedtls_x509_crt *mbedtls_ssl_own_cert( mbedtls_ssl_context *ssl )
 675:/home/xingli/share/1205tiny/network/dtls/mbedtls/mbedtls-2.16.2/include/mbedtls/ssl_internal.h **** {
 183              		.loc 3 675 1
 184              		.cfi_startproc
 185 0000 55       		pushq	%rbp
 186              	.LCFI12:
 187              		.cfi_def_cfa_offset 16
 188              		.cfi_offset 6, -16
 189 0001 4889E5   		movq	%rsp, %rbp
 190              	.LCFI13:
 191              		.cfi_def_cfa_register 6
 192 0004 4883EC20 		subq	$32, %rsp
 193 0008 48897DE8 		movq	%rdi, -24(%rbp)
 194              		.loc 3 675 1
 195 000c 64488B04 		movq	%fs:40, %rax
 195      25280000 
 195      00
 196 0015 488945F8 		movq	%rax, -8(%rbp)
 197 0019 31C0     		xorl	%eax, %eax
 676:/home/xingli/share/1205tiny/network/dtls/mbedtls/mbedtls-2.16.2/include/mbedtls/ssl_internal.h ****     mbedtls_ssl_key_cert *key_cert;
 677:/home/xingli/share/1205tiny/network/dtls/mbedtls/mbedtls-2.16.2/include/mbedtls/ssl_internal.h **** 
 678:/home/xingli/share/1205tiny/network/dtls/mbedtls/mbedtls-2.16.2/include/mbedtls/ssl_internal.h ****     if( ssl->handshake != NULL && ssl->handshake->key_cert != NULL )
 198              		.loc 3 678 12
 199 001b 488B45E8 		movq	-24(%rbp), %rax
 200 001f 488B4060 		movq	96(%rax), %rax
 201              		.loc 3 678 7
 202 0023 4885C0   		testq	%rax, %rax
 203 0026 7429     		je	.L15
 204              		.loc 3 678 38 discriminator 1
 205 0028 488B45E8 		movq	-24(%rbp), %rax
 206 002c 488B4060 		movq	96(%rax), %rax
 207              		.loc 3 678 49 discriminator 1
 208 0030 488B8078 		movq	632(%rax), %rax
 208      020000
 209              		.loc 3 678 32 discriminator 1
 210 0037 4885C0   		testq	%rax, %rax
 211 003a 7415     		je	.L15
 679:/home/xingli/share/1205tiny/network/dtls/mbedtls/mbedtls-2.16.2/include/mbedtls/ssl_internal.h ****         key_cert = ssl->handshake->key_cert;
 212              		.loc 3 679 23
 213 003c 488B45E8 		movq	-24(%rbp), %rax
 214 0040 488B4060 		movq	96(%rax), %rax
 215              		.loc 3 679 18
GAS LISTING /tmp/ccEn8xFO.s 			page 28


 216 0044 488B8078 		movq	632(%rax), %rax
 216      020000
 217 004b 488945F0 		movq	%rax, -16(%rbp)
 218 004f EB12     		jmp	.L16
 219              	.L15:
 680:/home/xingli/share/1205tiny/network/dtls/mbedtls/mbedtls-2.16.2/include/mbedtls/ssl_internal.h ****     else
 681:/home/xingli/share/1205tiny/network/dtls/mbedtls/mbedtls-2.16.2/include/mbedtls/ssl_internal.h ****         key_cert = ssl->conf->key_cert;
 220              		.loc 3 681 23
 221 0051 488B45E8 		movq	-24(%rbp), %rax
 222 0055 488B00   		movq	(%rax), %rax
 223              		.loc 3 681 18
 224 0058 488B8080 		movq	128(%rax), %rax
 224      000000
 225 005f 488945F0 		movq	%rax, -16(%rbp)
 226              	.L16:
 682:/home/xingli/share/1205tiny/network/dtls/mbedtls/mbedtls-2.16.2/include/mbedtls/ssl_internal.h **** 
 683:/home/xingli/share/1205tiny/network/dtls/mbedtls/mbedtls-2.16.2/include/mbedtls/ssl_internal.h ****     return( key_cert == NULL ? NULL : key_cert->cert );
 227              		.loc 3 683 37
 228 0063 48837DF0 		cmpq	$0, -16(%rbp)
 228      00
 229 0068 7409     		je	.L17
 230              		.loc 3 683 37 is_stmt 0 discriminator 1
 231 006a 488B45F0 		movq	-16(%rbp), %rax
 232 006e 488B00   		movq	(%rax), %rax
 233 0071 EB05     		jmp	.L19
 234              	.L17:
 235              		.loc 3 683 37 discriminator 2
 236 0073 B8000000 		movl	$0, %eax
 236      00
 237              	.L19:
 684:/home/xingli/share/1205tiny/network/dtls/mbedtls/mbedtls-2.16.2/include/mbedtls/ssl_internal.h **** }
 238              		.loc 3 684 1 is_stmt 1 discriminator 5
 239 0078 488B55F8 		movq	-8(%rbp), %rdx
 240 007c 64483314 		xorq	%fs:40, %rdx
 240      25280000 
 240      00
 241 0085 7405     		je	.L20
 242              		.loc 3 684 1 is_stmt 0
 243 0087 E8000000 		call	__stack_chk_fail@PLT
 243      00
 244              	.L20:
 245 008c C9       		leave
 246              	.LCFI14:
 247              		.cfi_def_cfa 7, 8
 248 008d C3       		ret
 249              		.cfi_endproc
 250              	.LFE23:
 252              		.section	.text.mbedtls_ssl_hdr_len,"ax",@progbits
 254              	mbedtls_ssl_hdr_len:
 255              	.LFB24:
 685:/home/xingli/share/1205tiny/network/dtls/mbedtls/mbedtls-2.16.2/include/mbedtls/ssl_internal.h **** 
 686:/home/xingli/share/1205tiny/network/dtls/mbedtls/mbedtls-2.16.2/include/mbedtls/ssl_internal.h **** /*
 687:/home/xingli/share/1205tiny/network/dtls/mbedtls/mbedtls-2.16.2/include/mbedtls/ssl_internal.h ****  * Check usage of a certificate wrt extensions:
 688:/home/xingli/share/1205tiny/network/dtls/mbedtls/mbedtls-2.16.2/include/mbedtls/ssl_internal.h ****  * keyUsage, extendedKeyUsage (later), and nSCertType (later).
 689:/home/xingli/share/1205tiny/network/dtls/mbedtls/mbedtls-2.16.2/include/mbedtls/ssl_internal.h ****  *
 690:/home/xingli/share/1205tiny/network/dtls/mbedtls/mbedtls-2.16.2/include/mbedtls/ssl_internal.h ****  * Warning: cert_endpoint is the endpoint of the cert (ie, of our peer when we
 691:/home/xingli/share/1205tiny/network/dtls/mbedtls/mbedtls-2.16.2/include/mbedtls/ssl_internal.h ****  * check a cert we received from them)!
GAS LISTING /tmp/ccEn8xFO.s 			page 29


 692:/home/xingli/share/1205tiny/network/dtls/mbedtls/mbedtls-2.16.2/include/mbedtls/ssl_internal.h ****  *
 693:/home/xingli/share/1205tiny/network/dtls/mbedtls/mbedtls-2.16.2/include/mbedtls/ssl_internal.h ****  * Return 0 if everything is OK, -1 if not.
 694:/home/xingli/share/1205tiny/network/dtls/mbedtls/mbedtls-2.16.2/include/mbedtls/ssl_internal.h ****  */
 695:/home/xingli/share/1205tiny/network/dtls/mbedtls/mbedtls-2.16.2/include/mbedtls/ssl_internal.h **** int mbedtls_ssl_check_cert_usage( const mbedtls_x509_crt *cert,
 696:/home/xingli/share/1205tiny/network/dtls/mbedtls/mbedtls-2.16.2/include/mbedtls/ssl_internal.h ****                           const mbedtls_ssl_ciphersuite_t *ciphersuite,
 697:/home/xingli/share/1205tiny/network/dtls/mbedtls/mbedtls-2.16.2/include/mbedtls/ssl_internal.h ****                           int cert_endpoint,
 698:/home/xingli/share/1205tiny/network/dtls/mbedtls/mbedtls-2.16.2/include/mbedtls/ssl_internal.h ****                           uint32_t *flags );
 699:/home/xingli/share/1205tiny/network/dtls/mbedtls/mbedtls-2.16.2/include/mbedtls/ssl_internal.h **** #endif /* MBEDTLS_X509_CRT_PARSE_C */
 700:/home/xingli/share/1205tiny/network/dtls/mbedtls/mbedtls-2.16.2/include/mbedtls/ssl_internal.h **** 
 701:/home/xingli/share/1205tiny/network/dtls/mbedtls/mbedtls-2.16.2/include/mbedtls/ssl_internal.h **** void mbedtls_ssl_write_version( int major, int minor, int transport,
 702:/home/xingli/share/1205tiny/network/dtls/mbedtls/mbedtls-2.16.2/include/mbedtls/ssl_internal.h ****                         unsigned char ver[2] );
 703:/home/xingli/share/1205tiny/network/dtls/mbedtls/mbedtls-2.16.2/include/mbedtls/ssl_internal.h **** void mbedtls_ssl_read_version( int *major, int *minor, int transport,
 704:/home/xingli/share/1205tiny/network/dtls/mbedtls/mbedtls-2.16.2/include/mbedtls/ssl_internal.h ****                        const unsigned char ver[2] );
 705:/home/xingli/share/1205tiny/network/dtls/mbedtls/mbedtls-2.16.2/include/mbedtls/ssl_internal.h **** 
 706:/home/xingli/share/1205tiny/network/dtls/mbedtls/mbedtls-2.16.2/include/mbedtls/ssl_internal.h **** static inline size_t mbedtls_ssl_hdr_len( const mbedtls_ssl_context *ssl )
 707:/home/xingli/share/1205tiny/network/dtls/mbedtls/mbedtls-2.16.2/include/mbedtls/ssl_internal.h **** {
 256              		.loc 3 707 1 is_stmt 1
 257              		.cfi_startproc
 258 0000 55       		pushq	%rbp
 259              	.LCFI15:
 260              		.cfi_def_cfa_offset 16
 261              		.cfi_offset 6, -16
 262 0001 4889E5   		movq	%rsp, %rbp
 263              	.LCFI16:
 264              		.cfi_def_cfa_register 6
 265 0004 4883EC20 		subq	$32, %rsp
 266 0008 48897DE8 		movq	%rdi, -24(%rbp)
 267              		.loc 3 707 1
 268 000c 64488B04 		movq	%fs:40, %rax
 268      25280000 
 268      00
 269 0015 488945F8 		movq	%rax, -8(%rbp)
 270 0019 31C0     		xorl	%eax, %eax
 708:/home/xingli/share/1205tiny/network/dtls/mbedtls/mbedtls-2.16.2/include/mbedtls/ssl_internal.h **** #if defined(MBEDTLS_SSL_PROTO_DTLS)
 709:/home/xingli/share/1205tiny/network/dtls/mbedtls/mbedtls-2.16.2/include/mbedtls/ssl_internal.h ****     if( ssl->conf->transport == MBEDTLS_SSL_TRANSPORT_DATAGRAM )
 710:/home/xingli/share/1205tiny/network/dtls/mbedtls/mbedtls-2.16.2/include/mbedtls/ssl_internal.h ****         return( 13 );
 711:/home/xingli/share/1205tiny/network/dtls/mbedtls/mbedtls-2.16.2/include/mbedtls/ssl_internal.h **** #else
 712:/home/xingli/share/1205tiny/network/dtls/mbedtls/mbedtls-2.16.2/include/mbedtls/ssl_internal.h ****     ((void) ssl);
 713:/home/xingli/share/1205tiny/network/dtls/mbedtls/mbedtls-2.16.2/include/mbedtls/ssl_internal.h **** #endif
 714:/home/xingli/share/1205tiny/network/dtls/mbedtls/mbedtls-2.16.2/include/mbedtls/ssl_internal.h ****     return( 5 );
 271              		.loc 3 714 11
 272 001b B8050000 		movl	$5, %eax
 272      00
 715:/home/xingli/share/1205tiny/network/dtls/mbedtls/mbedtls-2.16.2/include/mbedtls/ssl_internal.h **** }
 273              		.loc 3 715 1
 274 0020 488B55F8 		movq	-8(%rbp), %rdx
 275 0024 64483314 		xorq	%fs:40, %rdx
 275      25280000 
 275      00
 276 002d 7405     		je	.L23
 277 002f E8000000 		call	__stack_chk_fail@PLT
 277      00
 278              	.L23:
 279 0034 C9       		leave
 280              	.LCFI17:
 281              		.cfi_def_cfa 7, 8
 282 0035 C3       		ret
GAS LISTING /tmp/ccEn8xFO.s 			page 30


 283              		.cfi_endproc
 284              	.LFE24:
 286              		.section	.text.mbedtls_ssl_hs_hdr_len,"ax",@progbits
 288              	mbedtls_ssl_hs_hdr_len:
 289              	.LFB25:
 716:/home/xingli/share/1205tiny/network/dtls/mbedtls/mbedtls-2.16.2/include/mbedtls/ssl_internal.h **** 
 717:/home/xingli/share/1205tiny/network/dtls/mbedtls/mbedtls-2.16.2/include/mbedtls/ssl_internal.h **** static inline size_t mbedtls_ssl_hs_hdr_len( const mbedtls_ssl_context *ssl )
 718:/home/xingli/share/1205tiny/network/dtls/mbedtls/mbedtls-2.16.2/include/mbedtls/ssl_internal.h **** {
 290              		.loc 3 718 1
 291              		.cfi_startproc
 292 0000 55       		pushq	%rbp
 293              	.LCFI18:
 294              		.cfi_def_cfa_offset 16
 295              		.cfi_offset 6, -16
 296 0001 4889E5   		movq	%rsp, %rbp
 297              	.LCFI19:
 298              		.cfi_def_cfa_register 6
 299 0004 4883EC20 		subq	$32, %rsp
 300 0008 48897DE8 		movq	%rdi, -24(%rbp)
 301              		.loc 3 718 1
 302 000c 64488B04 		movq	%fs:40, %rax
 302      25280000 
 302      00
 303 0015 488945F8 		movq	%rax, -8(%rbp)
 304 0019 31C0     		xorl	%eax, %eax
 719:/home/xingli/share/1205tiny/network/dtls/mbedtls/mbedtls-2.16.2/include/mbedtls/ssl_internal.h **** #if defined(MBEDTLS_SSL_PROTO_DTLS)
 720:/home/xingli/share/1205tiny/network/dtls/mbedtls/mbedtls-2.16.2/include/mbedtls/ssl_internal.h ****     if( ssl->conf->transport == MBEDTLS_SSL_TRANSPORT_DATAGRAM )
 721:/home/xingli/share/1205tiny/network/dtls/mbedtls/mbedtls-2.16.2/include/mbedtls/ssl_internal.h ****         return( 12 );
 722:/home/xingli/share/1205tiny/network/dtls/mbedtls/mbedtls-2.16.2/include/mbedtls/ssl_internal.h **** #else
 723:/home/xingli/share/1205tiny/network/dtls/mbedtls/mbedtls-2.16.2/include/mbedtls/ssl_internal.h ****     ((void) ssl);
 724:/home/xingli/share/1205tiny/network/dtls/mbedtls/mbedtls-2.16.2/include/mbedtls/ssl_internal.h **** #endif
 725:/home/xingli/share/1205tiny/network/dtls/mbedtls/mbedtls-2.16.2/include/mbedtls/ssl_internal.h ****     return( 4 );
 305              		.loc 3 725 11
 306 001b B8040000 		movl	$4, %eax
 306      00
 726:/home/xingli/share/1205tiny/network/dtls/mbedtls/mbedtls-2.16.2/include/mbedtls/ssl_internal.h **** }
 307              		.loc 3 726 1
 308 0020 488B55F8 		movq	-8(%rbp), %rdx
 309 0024 64483314 		xorq	%fs:40, %rdx
 309      25280000 
 309      00
 310 002d 7405     		je	.L26
 311 002f E8000000 		call	__stack_chk_fail@PLT
 311      00
 312              	.L26:
 313 0034 C9       		leave
 314              	.LCFI20:
 315              		.cfi_def_cfa 7, 8
 316 0035 C3       		ret
 317              		.cfi_endproc
 318              	.LFE25:
 320              		.section	.text.mbedtls_ssl_safer_memcmp,"ax",@progbits
 322              	mbedtls_ssl_safer_memcmp:
 323              	.LFB26:
 727:/home/xingli/share/1205tiny/network/dtls/mbedtls/mbedtls-2.16.2/include/mbedtls/ssl_internal.h **** 
 728:/home/xingli/share/1205tiny/network/dtls/mbedtls/mbedtls-2.16.2/include/mbedtls/ssl_internal.h **** #if defined(MBEDTLS_SSL_PROTO_DTLS)
 729:/home/xingli/share/1205tiny/network/dtls/mbedtls/mbedtls-2.16.2/include/mbedtls/ssl_internal.h **** void mbedtls_ssl_send_flight_completed( mbedtls_ssl_context *ssl );
GAS LISTING /tmp/ccEn8xFO.s 			page 31


 730:/home/xingli/share/1205tiny/network/dtls/mbedtls/mbedtls-2.16.2/include/mbedtls/ssl_internal.h **** void mbedtls_ssl_recv_flight_completed( mbedtls_ssl_context *ssl );
 731:/home/xingli/share/1205tiny/network/dtls/mbedtls/mbedtls-2.16.2/include/mbedtls/ssl_internal.h **** int mbedtls_ssl_resend( mbedtls_ssl_context *ssl );
 732:/home/xingli/share/1205tiny/network/dtls/mbedtls/mbedtls-2.16.2/include/mbedtls/ssl_internal.h **** int mbedtls_ssl_flight_transmit( mbedtls_ssl_context *ssl );
 733:/home/xingli/share/1205tiny/network/dtls/mbedtls/mbedtls-2.16.2/include/mbedtls/ssl_internal.h **** #endif
 734:/home/xingli/share/1205tiny/network/dtls/mbedtls/mbedtls-2.16.2/include/mbedtls/ssl_internal.h **** 
 735:/home/xingli/share/1205tiny/network/dtls/mbedtls/mbedtls-2.16.2/include/mbedtls/ssl_internal.h **** /* Visible for testing purposes only */
 736:/home/xingli/share/1205tiny/network/dtls/mbedtls/mbedtls-2.16.2/include/mbedtls/ssl_internal.h **** #if defined(MBEDTLS_SSL_DTLS_ANTI_REPLAY)
 737:/home/xingli/share/1205tiny/network/dtls/mbedtls/mbedtls-2.16.2/include/mbedtls/ssl_internal.h **** int mbedtls_ssl_dtls_replay_check( mbedtls_ssl_context *ssl );
 738:/home/xingli/share/1205tiny/network/dtls/mbedtls/mbedtls-2.16.2/include/mbedtls/ssl_internal.h **** void mbedtls_ssl_dtls_replay_update( mbedtls_ssl_context *ssl );
 739:/home/xingli/share/1205tiny/network/dtls/mbedtls/mbedtls-2.16.2/include/mbedtls/ssl_internal.h **** #endif
 740:/home/xingli/share/1205tiny/network/dtls/mbedtls/mbedtls-2.16.2/include/mbedtls/ssl_internal.h **** 
 741:/home/xingli/share/1205tiny/network/dtls/mbedtls/mbedtls-2.16.2/include/mbedtls/ssl_internal.h **** /* constant-time buffer comparison */
 742:/home/xingli/share/1205tiny/network/dtls/mbedtls/mbedtls-2.16.2/include/mbedtls/ssl_internal.h **** static inline int mbedtls_ssl_safer_memcmp( const void *a, const void *b, size_t n )
 743:/home/xingli/share/1205tiny/network/dtls/mbedtls/mbedtls-2.16.2/include/mbedtls/ssl_internal.h **** {
 324              		.loc 3 743 1
 325              		.cfi_startproc
 326 0000 55       		pushq	%rbp
 327              	.LCFI21:
 328              		.cfi_def_cfa_offset 16
 329              		.cfi_offset 6, -16
 330 0001 4889E5   		movq	%rsp, %rbp
 331              	.LCFI22:
 332              		.cfi_def_cfa_register 6
 333 0004 4883EC50 		subq	$80, %rsp
 334 0008 48897DC8 		movq	%rdi, -56(%rbp)
 335 000c 488975C0 		movq	%rsi, -64(%rbp)
 336 0010 488955B8 		movq	%rdx, -72(%rbp)
 337              		.loc 3 743 1
 338 0014 64488B04 		movq	%fs:40, %rax
 338      25280000 
 338      00
 339 001d 488945F8 		movq	%rax, -8(%rbp)
 340 0021 31C0     		xorl	%eax, %eax
 744:/home/xingli/share/1205tiny/network/dtls/mbedtls/mbedtls-2.16.2/include/mbedtls/ssl_internal.h ****     size_t i;
 745:/home/xingli/share/1205tiny/network/dtls/mbedtls/mbedtls-2.16.2/include/mbedtls/ssl_internal.h ****     volatile const unsigned char *A = (volatile const unsigned char *) a;
 341              		.loc 3 745 35
 342 0023 488B45C8 		movq	-56(%rbp), %rax
 343 0027 488945E8 		movq	%rax, -24(%rbp)
 746:/home/xingli/share/1205tiny/network/dtls/mbedtls/mbedtls-2.16.2/include/mbedtls/ssl_internal.h ****     volatile const unsigned char *B = (volatile const unsigned char *) b;
 344              		.loc 3 746 35
 345 002b 488B45C0 		movq	-64(%rbp), %rax
 346 002f 488945F0 		movq	%rax, -16(%rbp)
 747:/home/xingli/share/1205tiny/network/dtls/mbedtls/mbedtls-2.16.2/include/mbedtls/ssl_internal.h ****     volatile unsigned char diff = 0;
 347              		.loc 3 747 28
 348 0033 C645DD00 		movb	$0, -35(%rbp)
 748:/home/xingli/share/1205tiny/network/dtls/mbedtls/mbedtls-2.16.2/include/mbedtls/ssl_internal.h **** 
 749:/home/xingli/share/1205tiny/network/dtls/mbedtls/mbedtls-2.16.2/include/mbedtls/ssl_internal.h ****     for( i = 0; i < n; i++ )
 349              		.loc 3 749 12
 350 0037 48C745E0 		movq	$0, -32(%rbp)
 350      00000000 
 351              		.loc 3 749 5
 352 003f EB39     		jmp	.L28
 353              	.L29:
 354              	.LBB2:
 750:/home/xingli/share/1205tiny/network/dtls/mbedtls/mbedtls-2.16.2/include/mbedtls/ssl_internal.h ****     {
 751:/home/xingli/share/1205tiny/network/dtls/mbedtls/mbedtls-2.16.2/include/mbedtls/ssl_internal.h ****         /* Read volatile data in order before computing diff.
 752:/home/xingli/share/1205tiny/network/dtls/mbedtls/mbedtls-2.16.2/include/mbedtls/ssl_internal.h ****          * This avoids IAR compiler warning:
GAS LISTING /tmp/ccEn8xFO.s 			page 32


 753:/home/xingli/share/1205tiny/network/dtls/mbedtls/mbedtls-2.16.2/include/mbedtls/ssl_internal.h ****          * 'the order of volatile accesses is undefined ..' */
 754:/home/xingli/share/1205tiny/network/dtls/mbedtls/mbedtls-2.16.2/include/mbedtls/ssl_internal.h ****         unsigned char x = A[i], y = B[i];
 355              		.loc 3 754 28 discriminator 3
 356 0041 488B55E8 		movq	-24(%rbp), %rdx
 357 0045 488B45E0 		movq	-32(%rbp), %rax
 358 0049 4801D0   		addq	%rdx, %rax
 359              		.loc 3 754 23 discriminator 3
 360 004c 0FB600   		movzbl	(%rax), %eax
 361 004f 8845DE   		movb	%al, -34(%rbp)
 362              		.loc 3 754 38 discriminator 3
 363 0052 488B55F0 		movq	-16(%rbp), %rdx
 364 0056 488B45E0 		movq	-32(%rbp), %rax
 365 005a 4801D0   		addq	%rdx, %rax
 366              		.loc 3 754 33 discriminator 3
 367 005d 0FB600   		movzbl	(%rax), %eax
 368 0060 8845DF   		movb	%al, -33(%rbp)
 755:/home/xingli/share/1205tiny/network/dtls/mbedtls/mbedtls-2.16.2/include/mbedtls/ssl_internal.h ****         diff |= x ^ y;
 369              		.loc 3 755 14 discriminator 3
 370 0063 0FB645DE 		movzbl	-34(%rbp), %eax
 371 0067 3245DF   		xorb	-33(%rbp), %al
 372 006a 89C2     		movl	%eax, %edx
 373 006c 0FB645DD 		movzbl	-35(%rbp), %eax
 374 0070 09D0     		orl	%edx, %eax
 375 0072 8845DD   		movb	%al, -35(%rbp)
 376              	.LBE2:
 749:/home/xingli/share/1205tiny/network/dtls/mbedtls/mbedtls-2.16.2/include/mbedtls/ssl_internal.h ****     {
 377              		.loc 3 749 25 discriminator 3
 378 0075 488345E0 		addq	$1, -32(%rbp)
 378      01
 379              	.L28:
 749:/home/xingli/share/1205tiny/network/dtls/mbedtls/mbedtls-2.16.2/include/mbedtls/ssl_internal.h ****     {
 380              		.loc 3 749 5 discriminator 1
 381 007a 488B45E0 		movq	-32(%rbp), %rax
 382 007e 483B45B8 		cmpq	-72(%rbp), %rax
 383 0082 72BD     		jb	.L29
 756:/home/xingli/share/1205tiny/network/dtls/mbedtls/mbedtls-2.16.2/include/mbedtls/ssl_internal.h ****     }
 757:/home/xingli/share/1205tiny/network/dtls/mbedtls/mbedtls-2.16.2/include/mbedtls/ssl_internal.h **** 
 758:/home/xingli/share/1205tiny/network/dtls/mbedtls/mbedtls-2.16.2/include/mbedtls/ssl_internal.h ****     return( diff );
 384              		.loc 3 758 11
 385 0084 0FB645DD 		movzbl	-35(%rbp), %eax
 386 0088 0FB6C0   		movzbl	%al, %eax
 759:/home/xingli/share/1205tiny/network/dtls/mbedtls/mbedtls-2.16.2/include/mbedtls/ssl_internal.h **** }
 387              		.loc 3 759 1
 388 008b 488B4DF8 		movq	-8(%rbp), %rcx
 389 008f 6448330C 		xorq	%fs:40, %rcx
 389      25280000 
 389      00
 390 0098 7405     		je	.L31
 391 009a E8000000 		call	__stack_chk_fail@PLT
 391      00
 392              	.L31:
 393 009f C9       		leave
 394              	.LCFI23:
 395              		.cfi_def_cfa 7, 8
 396 00a0 C3       		ret
 397              		.cfi_endproc
 398              	.LFE26:
GAS LISTING /tmp/ccEn8xFO.s 			page 33


 400              		.section	.text.ssl_ep_len,"ax",@progbits
 402              	ssl_ep_len:
 403              	.LFB27:
 404              		.file 4 "/home/xingli/share/1205tiny/network/dtls/mbedtls/mbedtls-2.16.2/library/ssl_tls.c"
   1:/home/xingli/share/1205tiny/network/dtls/mbedtls/mbedtls-2.16.2/library/ssl_tls.c **** /*
   2:/home/xingli/share/1205tiny/network/dtls/mbedtls/mbedtls-2.16.2/library/ssl_tls.c ****  *  SSLv3/TLSv1 shared functions
   3:/home/xingli/share/1205tiny/network/dtls/mbedtls/mbedtls-2.16.2/library/ssl_tls.c ****  *
   4:/home/xingli/share/1205tiny/network/dtls/mbedtls/mbedtls-2.16.2/library/ssl_tls.c ****  *  Copyright (C) 2006-2015, ARM Limited, All Rights Reserved
   5:/home/xingli/share/1205tiny/network/dtls/mbedtls/mbedtls-2.16.2/library/ssl_tls.c ****  *  SPDX-License-Identifier: Apache-2.0
   6:/home/xingli/share/1205tiny/network/dtls/mbedtls/mbedtls-2.16.2/library/ssl_tls.c ****  *
   7:/home/xingli/share/1205tiny/network/dtls/mbedtls/mbedtls-2.16.2/library/ssl_tls.c ****  *  Licensed under the Apache License, Version 2.0 (the "License"); you may
   8:/home/xingli/share/1205tiny/network/dtls/mbedtls/mbedtls-2.16.2/library/ssl_tls.c ****  *  not use this file except in compliance with the License.
   9:/home/xingli/share/1205tiny/network/dtls/mbedtls/mbedtls-2.16.2/library/ssl_tls.c ****  *  You may obtain a copy of the License at
  10:/home/xingli/share/1205tiny/network/dtls/mbedtls/mbedtls-2.16.2/library/ssl_tls.c ****  *
  11:/home/xingli/share/1205tiny/network/dtls/mbedtls/mbedtls-2.16.2/library/ssl_tls.c ****  *  http://www.apache.org/licenses/LICENSE-2.0
  12:/home/xingli/share/1205tiny/network/dtls/mbedtls/mbedtls-2.16.2/library/ssl_tls.c ****  *
  13:/home/xingli/share/1205tiny/network/dtls/mbedtls/mbedtls-2.16.2/library/ssl_tls.c ****  *  Unless required by applicable law or agreed to in writing, software
  14:/home/xingli/share/1205tiny/network/dtls/mbedtls/mbedtls-2.16.2/library/ssl_tls.c ****  *  distributed under the License is distributed on an "AS IS" BASIS, WITHOUT
  15:/home/xingli/share/1205tiny/network/dtls/mbedtls/mbedtls-2.16.2/library/ssl_tls.c ****  *  WARRANTIES OR CONDITIONS OF ANY KIND, either express or implied.
  16:/home/xingli/share/1205tiny/network/dtls/mbedtls/mbedtls-2.16.2/library/ssl_tls.c ****  *  See the License for the specific language governing permissions and
  17:/home/xingli/share/1205tiny/network/dtls/mbedtls/mbedtls-2.16.2/library/ssl_tls.c ****  *  limitations under the License.
  18:/home/xingli/share/1205tiny/network/dtls/mbedtls/mbedtls-2.16.2/library/ssl_tls.c ****  *
  19:/home/xingli/share/1205tiny/network/dtls/mbedtls/mbedtls-2.16.2/library/ssl_tls.c ****  *  This file is part of mbed TLS (https://tls.mbed.org)
  20:/home/xingli/share/1205tiny/network/dtls/mbedtls/mbedtls-2.16.2/library/ssl_tls.c ****  */
  21:/home/xingli/share/1205tiny/network/dtls/mbedtls/mbedtls-2.16.2/library/ssl_tls.c **** /*
  22:/home/xingli/share/1205tiny/network/dtls/mbedtls/mbedtls-2.16.2/library/ssl_tls.c ****  *  The SSL 3.0 specification was drafted by Netscape in 1996,
  23:/home/xingli/share/1205tiny/network/dtls/mbedtls/mbedtls-2.16.2/library/ssl_tls.c ****  *  and became an IETF standard in 1999.
  24:/home/xingli/share/1205tiny/network/dtls/mbedtls/mbedtls-2.16.2/library/ssl_tls.c ****  *
  25:/home/xingli/share/1205tiny/network/dtls/mbedtls/mbedtls-2.16.2/library/ssl_tls.c ****  *  http://wp.netscape.com/eng/ssl3/
  26:/home/xingli/share/1205tiny/network/dtls/mbedtls/mbedtls-2.16.2/library/ssl_tls.c ****  *  http://www.ietf.org/rfc/rfc2246.txt
  27:/home/xingli/share/1205tiny/network/dtls/mbedtls/mbedtls-2.16.2/library/ssl_tls.c ****  *  http://www.ietf.org/rfc/rfc4346.txt
  28:/home/xingli/share/1205tiny/network/dtls/mbedtls/mbedtls-2.16.2/library/ssl_tls.c ****  */
  29:/home/xingli/share/1205tiny/network/dtls/mbedtls/mbedtls-2.16.2/library/ssl_tls.c **** 
  30:/home/xingli/share/1205tiny/network/dtls/mbedtls/mbedtls-2.16.2/library/ssl_tls.c **** #if !defined(MBEDTLS_CONFIG_FILE)
  31:/home/xingli/share/1205tiny/network/dtls/mbedtls/mbedtls-2.16.2/library/ssl_tls.c **** #include "mbedtls/config.h"
  32:/home/xingli/share/1205tiny/network/dtls/mbedtls/mbedtls-2.16.2/library/ssl_tls.c **** #else
  33:/home/xingli/share/1205tiny/network/dtls/mbedtls/mbedtls-2.16.2/library/ssl_tls.c **** #include MBEDTLS_CONFIG_FILE
  34:/home/xingli/share/1205tiny/network/dtls/mbedtls/mbedtls-2.16.2/library/ssl_tls.c **** #endif
  35:/home/xingli/share/1205tiny/network/dtls/mbedtls/mbedtls-2.16.2/library/ssl_tls.c **** 
  36:/home/xingli/share/1205tiny/network/dtls/mbedtls/mbedtls-2.16.2/library/ssl_tls.c **** #if defined(MBEDTLS_SSL_TLS_C)
  37:/home/xingli/share/1205tiny/network/dtls/mbedtls/mbedtls-2.16.2/library/ssl_tls.c **** 
  38:/home/xingli/share/1205tiny/network/dtls/mbedtls/mbedtls-2.16.2/library/ssl_tls.c **** #if defined(MBEDTLS_PLATFORM_C)
  39:/home/xingli/share/1205tiny/network/dtls/mbedtls/mbedtls-2.16.2/library/ssl_tls.c **** #include "mbedtls/platform.h"
  40:/home/xingli/share/1205tiny/network/dtls/mbedtls/mbedtls-2.16.2/library/ssl_tls.c **** #else
  41:/home/xingli/share/1205tiny/network/dtls/mbedtls/mbedtls-2.16.2/library/ssl_tls.c **** #include <stdlib.h>
  42:/home/xingli/share/1205tiny/network/dtls/mbedtls/mbedtls-2.16.2/library/ssl_tls.c **** #define mbedtls_calloc    calloc
  43:/home/xingli/share/1205tiny/network/dtls/mbedtls/mbedtls-2.16.2/library/ssl_tls.c **** #define mbedtls_free      free
  44:/home/xingli/share/1205tiny/network/dtls/mbedtls/mbedtls-2.16.2/library/ssl_tls.c **** #endif
  45:/home/xingli/share/1205tiny/network/dtls/mbedtls/mbedtls-2.16.2/library/ssl_tls.c **** 
  46:/home/xingli/share/1205tiny/network/dtls/mbedtls/mbedtls-2.16.2/library/ssl_tls.c **** #include "mbedtls/debug.h"
  47:/home/xingli/share/1205tiny/network/dtls/mbedtls/mbedtls-2.16.2/library/ssl_tls.c **** #include "mbedtls/ssl.h"
  48:/home/xingli/share/1205tiny/network/dtls/mbedtls/mbedtls-2.16.2/library/ssl_tls.c **** #include "mbedtls/ssl_internal.h"
  49:/home/xingli/share/1205tiny/network/dtls/mbedtls/mbedtls-2.16.2/library/ssl_tls.c **** #include "mbedtls/platform_util.h"
  50:/home/xingli/share/1205tiny/network/dtls/mbedtls/mbedtls-2.16.2/library/ssl_tls.c **** 
  51:/home/xingli/share/1205tiny/network/dtls/mbedtls/mbedtls-2.16.2/library/ssl_tls.c **** #include <string.h>
  52:/home/xingli/share/1205tiny/network/dtls/mbedtls/mbedtls-2.16.2/library/ssl_tls.c **** 
  53:/home/xingli/share/1205tiny/network/dtls/mbedtls/mbedtls-2.16.2/library/ssl_tls.c **** #if defined(MBEDTLS_X509_CRT_PARSE_C)
GAS LISTING /tmp/ccEn8xFO.s 			page 34


  54:/home/xingli/share/1205tiny/network/dtls/mbedtls/mbedtls-2.16.2/library/ssl_tls.c **** #include "mbedtls/oid.h"
  55:/home/xingli/share/1205tiny/network/dtls/mbedtls/mbedtls-2.16.2/library/ssl_tls.c **** #endif
  56:/home/xingli/share/1205tiny/network/dtls/mbedtls/mbedtls-2.16.2/library/ssl_tls.c **** 
  57:/home/xingli/share/1205tiny/network/dtls/mbedtls/mbedtls-2.16.2/library/ssl_tls.c **** static void ssl_reset_in_out_pointers( mbedtls_ssl_context *ssl );
  58:/home/xingli/share/1205tiny/network/dtls/mbedtls/mbedtls-2.16.2/library/ssl_tls.c **** static uint32_t ssl_get_hs_total_len( mbedtls_ssl_context const *ssl );
  59:/home/xingli/share/1205tiny/network/dtls/mbedtls/mbedtls-2.16.2/library/ssl_tls.c **** 
  60:/home/xingli/share/1205tiny/network/dtls/mbedtls/mbedtls-2.16.2/library/ssl_tls.c **** /* Length of the "epoch" field in the record header */
  61:/home/xingli/share/1205tiny/network/dtls/mbedtls/mbedtls-2.16.2/library/ssl_tls.c **** static inline size_t ssl_ep_len( const mbedtls_ssl_context *ssl )
  62:/home/xingli/share/1205tiny/network/dtls/mbedtls/mbedtls-2.16.2/library/ssl_tls.c **** {
 405              		.loc 4 62 1
 406              		.cfi_startproc
 407 0000 55       		pushq	%rbp
 408              	.LCFI24:
 409              		.cfi_def_cfa_offset 16
 410              		.cfi_offset 6, -16
 411 0001 4889E5   		movq	%rsp, %rbp
 412              	.LCFI25:
 413              		.cfi_def_cfa_register 6
 414 0004 4883EC20 		subq	$32, %rsp
 415 0008 48897DE8 		movq	%rdi, -24(%rbp)
 416              		.loc 4 62 1
 417 000c 64488B04 		movq	%fs:40, %rax
 417      25280000 
 417      00
 418 0015 488945F8 		movq	%rax, -8(%rbp)
 419 0019 31C0     		xorl	%eax, %eax
  63:/home/xingli/share/1205tiny/network/dtls/mbedtls/mbedtls-2.16.2/library/ssl_tls.c **** #if defined(MBEDTLS_SSL_PROTO_DTLS)
  64:/home/xingli/share/1205tiny/network/dtls/mbedtls/mbedtls-2.16.2/library/ssl_tls.c ****     if( ssl->conf->transport == MBEDTLS_SSL_TRANSPORT_DATAGRAM )
  65:/home/xingli/share/1205tiny/network/dtls/mbedtls/mbedtls-2.16.2/library/ssl_tls.c ****         return( 2 );
  66:/home/xingli/share/1205tiny/network/dtls/mbedtls/mbedtls-2.16.2/library/ssl_tls.c **** #else
  67:/home/xingli/share/1205tiny/network/dtls/mbedtls/mbedtls-2.16.2/library/ssl_tls.c ****     ((void) ssl);
  68:/home/xingli/share/1205tiny/network/dtls/mbedtls/mbedtls-2.16.2/library/ssl_tls.c **** #endif
  69:/home/xingli/share/1205tiny/network/dtls/mbedtls/mbedtls-2.16.2/library/ssl_tls.c ****     return( 0 );
 420              		.loc 4 69 11
 421 001b B8000000 		movl	$0, %eax
 421      00
  70:/home/xingli/share/1205tiny/network/dtls/mbedtls/mbedtls-2.16.2/library/ssl_tls.c **** }
 422              		.loc 4 70 1
 423 0020 488B55F8 		movq	-8(%rbp), %rdx
 424 0024 64483314 		xorq	%fs:40, %rdx
 424      25280000 
 424      00
 425 002d 7405     		je	.L34
 426 002f E8000000 		call	__stack_chk_fail@PLT
 426      00
 427              	.L34:
 428 0034 C9       		leave
 429              	.LCFI26:
 430              		.cfi_def_cfa 7, 8
 431 0035 C3       		ret
 432              		.cfi_endproc
 433              	.LFE27:
 435              		.section	.text.ssl_set_timer,"ax",@progbits
 437              	ssl_set_timer:
 438              	.LFB28:
  71:/home/xingli/share/1205tiny/network/dtls/mbedtls/mbedtls-2.16.2/library/ssl_tls.c **** 
  72:/home/xingli/share/1205tiny/network/dtls/mbedtls/mbedtls-2.16.2/library/ssl_tls.c **** /*
GAS LISTING /tmp/ccEn8xFO.s 			page 35


  73:/home/xingli/share/1205tiny/network/dtls/mbedtls/mbedtls-2.16.2/library/ssl_tls.c ****  * Start a timer.
  74:/home/xingli/share/1205tiny/network/dtls/mbedtls/mbedtls-2.16.2/library/ssl_tls.c ****  * Passing millisecs = 0 cancels a running timer.
  75:/home/xingli/share/1205tiny/network/dtls/mbedtls/mbedtls-2.16.2/library/ssl_tls.c ****  */
  76:/home/xingli/share/1205tiny/network/dtls/mbedtls/mbedtls-2.16.2/library/ssl_tls.c **** static void ssl_set_timer( mbedtls_ssl_context *ssl, uint32_t millisecs )
  77:/home/xingli/share/1205tiny/network/dtls/mbedtls/mbedtls-2.16.2/library/ssl_tls.c **** {
 439              		.loc 4 77 1
 440              		.cfi_startproc
 441 0000 F30F1EFA 		endbr64
 442 0004 55       		pushq	%rbp
 443              	.LCFI27:
 444              		.cfi_def_cfa_offset 16
 445              		.cfi_offset 6, -16
 446 0005 4889E5   		movq	%rsp, %rbp
 447              	.LCFI28:
 448              		.cfi_def_cfa_register 6
 449 0008 4883EC20 		subq	$32, %rsp
 450 000c 48897DE8 		movq	%rdi, -24(%rbp)
 451 0010 8975E4   		movl	%esi, -28(%rbp)
 452              		.loc 4 77 1
 453 0013 64488B04 		movq	%fs:40, %rax
 453      25280000 
 453      00
 454 001c 488945F8 		movq	%rax, -8(%rbp)
 455 0020 31C0     		xorl	%eax, %eax
  78:/home/xingli/share/1205tiny/network/dtls/mbedtls/mbedtls-2.16.2/library/ssl_tls.c ****     if( ssl->f_set_timer == NULL )
 456              		.loc 4 78 12
 457 0022 488B45E8 		movq	-24(%rbp), %rax
 458 0026 488B8090 		movq	144(%rax), %rax
 458      000000
 459              		.loc 4 78 7
 460 002d 4885C0   		testq	%rax, %rax
 461 0030 7428     		je	.L39
  79:/home/xingli/share/1205tiny/network/dtls/mbedtls/mbedtls-2.16.2/library/ssl_tls.c ****         return;
  80:/home/xingli/share/1205tiny/network/dtls/mbedtls/mbedtls-2.16.2/library/ssl_tls.c **** 
  81:/home/xingli/share/1205tiny/network/dtls/mbedtls/mbedtls-2.16.2/library/ssl_tls.c ****     MBEDTLS_SSL_DEBUG_MSG( 3, ( "set_timer to %d ms", (int) millisecs ) );
  82:/home/xingli/share/1205tiny/network/dtls/mbedtls/mbedtls-2.16.2/library/ssl_tls.c ****     ssl->f_set_timer( ssl->p_timer, millisecs / 4, millisecs );
 462              		.loc 4 82 8
 463 0032 488B45E8 		movq	-24(%rbp), %rax
 464 0036 488B8890 		movq	144(%rax), %rcx
 464      000000
 465              		.loc 4 82 5
 466 003d 8B45E4   		movl	-28(%rbp), %eax
 467 0040 C1E802   		shrl	$2, %eax
 468 0043 89C6     		movl	%eax, %esi
 469 0045 488B45E8 		movq	-24(%rbp), %rax
 470 0049 488B8088 		movq	136(%rax), %rax
 470      000000
 471 0050 8B55E4   		movl	-28(%rbp), %edx
 472 0053 4889C7   		movq	%rax, %rdi
 473 0056 FFD1     		call	*%rcx
 474              	.LVL0:
 475 0058 EB01     		jmp	.L35
 476              	.L39:
  79:/home/xingli/share/1205tiny/network/dtls/mbedtls/mbedtls-2.16.2/library/ssl_tls.c ****         return;
 477              		.loc 4 79 9
 478 005a 90       		nop
 479              	.L35:
GAS LISTING /tmp/ccEn8xFO.s 			page 36


  83:/home/xingli/share/1205tiny/network/dtls/mbedtls/mbedtls-2.16.2/library/ssl_tls.c **** }
 480              		.loc 4 83 1
 481 005b 488B45F8 		movq	-8(%rbp), %rax
 482 005f 64483304 		xorq	%fs:40, %rax
 482      25280000 
 482      00
 483 0068 7405     		je	.L38
 484 006a E8000000 		call	__stack_chk_fail@PLT
 484      00
 485              	.L38:
 486 006f C9       		leave
 487              	.LCFI29:
 488              		.cfi_def_cfa 7, 8
 489 0070 C3       		ret
 490              		.cfi_endproc
 491              	.LFE28:
 493              		.section	.text.ssl_check_timer,"ax",@progbits
 495              	ssl_check_timer:
 496              	.LFB29:
  84:/home/xingli/share/1205tiny/network/dtls/mbedtls/mbedtls-2.16.2/library/ssl_tls.c **** 
  85:/home/xingli/share/1205tiny/network/dtls/mbedtls/mbedtls-2.16.2/library/ssl_tls.c **** /*
  86:/home/xingli/share/1205tiny/network/dtls/mbedtls/mbedtls-2.16.2/library/ssl_tls.c ****  * Return -1 is timer is expired, 0 if it isn't.
  87:/home/xingli/share/1205tiny/network/dtls/mbedtls/mbedtls-2.16.2/library/ssl_tls.c ****  */
  88:/home/xingli/share/1205tiny/network/dtls/mbedtls/mbedtls-2.16.2/library/ssl_tls.c **** static int ssl_check_timer( mbedtls_ssl_context *ssl )
  89:/home/xingli/share/1205tiny/network/dtls/mbedtls/mbedtls-2.16.2/library/ssl_tls.c **** {
 497              		.loc 4 89 1
 498              		.cfi_startproc
 499 0000 F30F1EFA 		endbr64
 500 0004 55       		pushq	%rbp
 501              	.LCFI30:
 502              		.cfi_def_cfa_offset 16
 503              		.cfi_offset 6, -16
 504 0005 4889E5   		movq	%rsp, %rbp
 505              	.LCFI31:
 506              		.cfi_def_cfa_register 6
 507 0008 4883EC20 		subq	$32, %rsp
 508 000c 48897DE8 		movq	%rdi, -24(%rbp)
 509              		.loc 4 89 1
 510 0010 64488B04 		movq	%fs:40, %rax
 510      25280000 
 510      00
 511 0019 488945F8 		movq	%rax, -8(%rbp)
 512 001d 31C0     		xorl	%eax, %eax
  90:/home/xingli/share/1205tiny/network/dtls/mbedtls/mbedtls-2.16.2/library/ssl_tls.c ****     if( ssl->f_get_timer == NULL )
 513              		.loc 4 90 12
 514 001f 488B45E8 		movq	-24(%rbp), %rax
 515 0023 488B8098 		movq	152(%rax), %rax
 515      000000
 516              		.loc 4 90 7
 517 002a 4885C0   		testq	%rax, %rax
 518 002d 7507     		jne	.L41
  91:/home/xingli/share/1205tiny/network/dtls/mbedtls/mbedtls-2.16.2/library/ssl_tls.c ****         return( 0 );
 519              		.loc 4 91 15
 520 002f B8000000 		movl	$0, %eax
 520      00
 521 0034 EB2C     		jmp	.L42
 522              	.L41:
GAS LISTING /tmp/ccEn8xFO.s 			page 37


  92:/home/xingli/share/1205tiny/network/dtls/mbedtls/mbedtls-2.16.2/library/ssl_tls.c **** 
  93:/home/xingli/share/1205tiny/network/dtls/mbedtls/mbedtls-2.16.2/library/ssl_tls.c ****     if( ssl->f_get_timer( ssl->p_timer ) == 2 )
 523              		.loc 4 93 12
 524 0036 488B45E8 		movq	-24(%rbp), %rax
 525 003a 488B9098 		movq	152(%rax), %rdx
 525      000000
 526              		.loc 4 93 9
 527 0041 488B45E8 		movq	-24(%rbp), %rax
 528 0045 488B8088 		movq	136(%rax), %rax
 528      000000
 529 004c 4889C7   		movq	%rax, %rdi
 530 004f FFD2     		call	*%rdx
 531              	.LVL1:
 532              		.loc 4 93 7
 533 0051 83F802   		cmpl	$2, %eax
 534 0054 7507     		jne	.L43
  94:/home/xingli/share/1205tiny/network/dtls/mbedtls/mbedtls-2.16.2/library/ssl_tls.c ****     {
  95:/home/xingli/share/1205tiny/network/dtls/mbedtls/mbedtls-2.16.2/library/ssl_tls.c ****         MBEDTLS_SSL_DEBUG_MSG( 3, ( "timer expired" ) );
  96:/home/xingli/share/1205tiny/network/dtls/mbedtls/mbedtls-2.16.2/library/ssl_tls.c ****         return( -1 );
 535              		.loc 4 96 15
 536 0056 B8FFFFFF 		movl	$-1, %eax
 536      FF
 537 005b EB05     		jmp	.L42
 538              	.L43:
  97:/home/xingli/share/1205tiny/network/dtls/mbedtls/mbedtls-2.16.2/library/ssl_tls.c ****     }
  98:/home/xingli/share/1205tiny/network/dtls/mbedtls/mbedtls-2.16.2/library/ssl_tls.c **** 
  99:/home/xingli/share/1205tiny/network/dtls/mbedtls/mbedtls-2.16.2/library/ssl_tls.c ****     return( 0 );
 539              		.loc 4 99 11
 540 005d B8000000 		movl	$0, %eax
 540      00
 541              	.L42:
 100:/home/xingli/share/1205tiny/network/dtls/mbedtls/mbedtls-2.16.2/library/ssl_tls.c **** }
 542              		.loc 4 100 1
 543 0062 488B4DF8 		movq	-8(%rbp), %rcx
 544 0066 6448330C 		xorq	%fs:40, %rcx
 544      25280000 
 544      00
 545 006f 7405     		je	.L44
 546 0071 E8000000 		call	__stack_chk_fail@PLT
 546      00
 547              	.L44:
 548 0076 C9       		leave
 549              	.LCFI32:
 550              		.cfi_def_cfa 7, 8
 551 0077 C3       		ret
 552              		.cfi_endproc
 553              	.LFE29:
 555              		.section	.text.ssl_mfl_code_to_length,"ax",@progbits
 557              	ssl_mfl_code_to_length:
 558              	.LFB30:
 101:/home/xingli/share/1205tiny/network/dtls/mbedtls/mbedtls-2.16.2/library/ssl_tls.c **** 
 102:/home/xingli/share/1205tiny/network/dtls/mbedtls/mbedtls-2.16.2/library/ssl_tls.c **** static void ssl_update_out_pointers( mbedtls_ssl_context *ssl,
 103:/home/xingli/share/1205tiny/network/dtls/mbedtls/mbedtls-2.16.2/library/ssl_tls.c ****                                      mbedtls_ssl_transform *transform );
 104:/home/xingli/share/1205tiny/network/dtls/mbedtls/mbedtls-2.16.2/library/ssl_tls.c **** static void ssl_update_in_pointers( mbedtls_ssl_context *ssl,
 105:/home/xingli/share/1205tiny/network/dtls/mbedtls/mbedtls-2.16.2/library/ssl_tls.c ****                                     mbedtls_ssl_transform *transform );
 106:/home/xingli/share/1205tiny/network/dtls/mbedtls/mbedtls-2.16.2/library/ssl_tls.c **** 
 107:/home/xingli/share/1205tiny/network/dtls/mbedtls/mbedtls-2.16.2/library/ssl_tls.c **** #define SSL_DONT_FORCE_FLUSH 0
GAS LISTING /tmp/ccEn8xFO.s 			page 38


 108:/home/xingli/share/1205tiny/network/dtls/mbedtls/mbedtls-2.16.2/library/ssl_tls.c **** #define SSL_FORCE_FLUSH      1
 109:/home/xingli/share/1205tiny/network/dtls/mbedtls/mbedtls-2.16.2/library/ssl_tls.c **** 
 110:/home/xingli/share/1205tiny/network/dtls/mbedtls/mbedtls-2.16.2/library/ssl_tls.c **** #if defined(MBEDTLS_SSL_PROTO_DTLS)
 111:/home/xingli/share/1205tiny/network/dtls/mbedtls/mbedtls-2.16.2/library/ssl_tls.c **** 
 112:/home/xingli/share/1205tiny/network/dtls/mbedtls/mbedtls-2.16.2/library/ssl_tls.c **** /* Forward declarations for functions related to message buffering. */
 113:/home/xingli/share/1205tiny/network/dtls/mbedtls/mbedtls-2.16.2/library/ssl_tls.c **** static void ssl_buffering_free( mbedtls_ssl_context *ssl );
 114:/home/xingli/share/1205tiny/network/dtls/mbedtls/mbedtls-2.16.2/library/ssl_tls.c **** static void ssl_buffering_free_slot( mbedtls_ssl_context *ssl,
 115:/home/xingli/share/1205tiny/network/dtls/mbedtls/mbedtls-2.16.2/library/ssl_tls.c ****                                      uint8_t slot );
 116:/home/xingli/share/1205tiny/network/dtls/mbedtls/mbedtls-2.16.2/library/ssl_tls.c **** static void ssl_free_buffered_record( mbedtls_ssl_context *ssl );
 117:/home/xingli/share/1205tiny/network/dtls/mbedtls/mbedtls-2.16.2/library/ssl_tls.c **** static int ssl_load_buffered_message( mbedtls_ssl_context *ssl );
 118:/home/xingli/share/1205tiny/network/dtls/mbedtls/mbedtls-2.16.2/library/ssl_tls.c **** static int ssl_load_buffered_record( mbedtls_ssl_context *ssl );
 119:/home/xingli/share/1205tiny/network/dtls/mbedtls/mbedtls-2.16.2/library/ssl_tls.c **** static int ssl_buffer_message( mbedtls_ssl_context *ssl );
 120:/home/xingli/share/1205tiny/network/dtls/mbedtls/mbedtls-2.16.2/library/ssl_tls.c **** static int ssl_buffer_future_record( mbedtls_ssl_context *ssl );
 121:/home/xingli/share/1205tiny/network/dtls/mbedtls/mbedtls-2.16.2/library/ssl_tls.c **** static int ssl_next_record_is_in_datagram( mbedtls_ssl_context *ssl );
 122:/home/xingli/share/1205tiny/network/dtls/mbedtls/mbedtls-2.16.2/library/ssl_tls.c **** 
 123:/home/xingli/share/1205tiny/network/dtls/mbedtls/mbedtls-2.16.2/library/ssl_tls.c **** static size_t ssl_get_current_mtu( const mbedtls_ssl_context *ssl );
 124:/home/xingli/share/1205tiny/network/dtls/mbedtls/mbedtls-2.16.2/library/ssl_tls.c **** static size_t ssl_get_maximum_datagram_size( mbedtls_ssl_context const *ssl )
 125:/home/xingli/share/1205tiny/network/dtls/mbedtls/mbedtls-2.16.2/library/ssl_tls.c **** {
 126:/home/xingli/share/1205tiny/network/dtls/mbedtls/mbedtls-2.16.2/library/ssl_tls.c ****     size_t mtu = ssl_get_current_mtu( ssl );
 127:/home/xingli/share/1205tiny/network/dtls/mbedtls/mbedtls-2.16.2/library/ssl_tls.c **** 
 128:/home/xingli/share/1205tiny/network/dtls/mbedtls/mbedtls-2.16.2/library/ssl_tls.c ****     if( mtu != 0 && mtu < MBEDTLS_SSL_OUT_BUFFER_LEN )
 129:/home/xingli/share/1205tiny/network/dtls/mbedtls/mbedtls-2.16.2/library/ssl_tls.c ****         return( mtu );
 130:/home/xingli/share/1205tiny/network/dtls/mbedtls/mbedtls-2.16.2/library/ssl_tls.c **** 
 131:/home/xingli/share/1205tiny/network/dtls/mbedtls/mbedtls-2.16.2/library/ssl_tls.c ****     return( MBEDTLS_SSL_OUT_BUFFER_LEN );
 132:/home/xingli/share/1205tiny/network/dtls/mbedtls/mbedtls-2.16.2/library/ssl_tls.c **** }
 133:/home/xingli/share/1205tiny/network/dtls/mbedtls/mbedtls-2.16.2/library/ssl_tls.c **** 
 134:/home/xingli/share/1205tiny/network/dtls/mbedtls/mbedtls-2.16.2/library/ssl_tls.c **** static int ssl_get_remaining_space_in_datagram( mbedtls_ssl_context const *ssl )
 135:/home/xingli/share/1205tiny/network/dtls/mbedtls/mbedtls-2.16.2/library/ssl_tls.c **** {
 136:/home/xingli/share/1205tiny/network/dtls/mbedtls/mbedtls-2.16.2/library/ssl_tls.c ****     size_t const bytes_written = ssl->out_left;
 137:/home/xingli/share/1205tiny/network/dtls/mbedtls/mbedtls-2.16.2/library/ssl_tls.c ****     size_t const mtu           = ssl_get_maximum_datagram_size( ssl );
 138:/home/xingli/share/1205tiny/network/dtls/mbedtls/mbedtls-2.16.2/library/ssl_tls.c **** 
 139:/home/xingli/share/1205tiny/network/dtls/mbedtls/mbedtls-2.16.2/library/ssl_tls.c ****     /* Double-check that the write-index hasn't gone
 140:/home/xingli/share/1205tiny/network/dtls/mbedtls/mbedtls-2.16.2/library/ssl_tls.c ****      * past what we can transmit in a single datagram. */
 141:/home/xingli/share/1205tiny/network/dtls/mbedtls/mbedtls-2.16.2/library/ssl_tls.c ****     if( bytes_written > mtu )
 142:/home/xingli/share/1205tiny/network/dtls/mbedtls/mbedtls-2.16.2/library/ssl_tls.c ****     {
 143:/home/xingli/share/1205tiny/network/dtls/mbedtls/mbedtls-2.16.2/library/ssl_tls.c ****         /* Should never happen... */
 144:/home/xingli/share/1205tiny/network/dtls/mbedtls/mbedtls-2.16.2/library/ssl_tls.c ****         return( MBEDTLS_ERR_SSL_INTERNAL_ERROR );
 145:/home/xingli/share/1205tiny/network/dtls/mbedtls/mbedtls-2.16.2/library/ssl_tls.c ****     }
 146:/home/xingli/share/1205tiny/network/dtls/mbedtls/mbedtls-2.16.2/library/ssl_tls.c **** 
 147:/home/xingli/share/1205tiny/network/dtls/mbedtls/mbedtls-2.16.2/library/ssl_tls.c ****     return( (int) ( mtu - bytes_written ) );
 148:/home/xingli/share/1205tiny/network/dtls/mbedtls/mbedtls-2.16.2/library/ssl_tls.c **** }
 149:/home/xingli/share/1205tiny/network/dtls/mbedtls/mbedtls-2.16.2/library/ssl_tls.c **** 
 150:/home/xingli/share/1205tiny/network/dtls/mbedtls/mbedtls-2.16.2/library/ssl_tls.c **** static int ssl_get_remaining_payload_in_datagram( mbedtls_ssl_context const *ssl )
 151:/home/xingli/share/1205tiny/network/dtls/mbedtls/mbedtls-2.16.2/library/ssl_tls.c **** {
 152:/home/xingli/share/1205tiny/network/dtls/mbedtls/mbedtls-2.16.2/library/ssl_tls.c ****     int ret;
 153:/home/xingli/share/1205tiny/network/dtls/mbedtls/mbedtls-2.16.2/library/ssl_tls.c ****     size_t remaining, expansion;
 154:/home/xingli/share/1205tiny/network/dtls/mbedtls/mbedtls-2.16.2/library/ssl_tls.c ****     size_t max_len = MBEDTLS_SSL_OUT_CONTENT_LEN;
 155:/home/xingli/share/1205tiny/network/dtls/mbedtls/mbedtls-2.16.2/library/ssl_tls.c **** 
 156:/home/xingli/share/1205tiny/network/dtls/mbedtls/mbedtls-2.16.2/library/ssl_tls.c **** #if defined(MBEDTLS_SSL_MAX_FRAGMENT_LENGTH)
 157:/home/xingli/share/1205tiny/network/dtls/mbedtls/mbedtls-2.16.2/library/ssl_tls.c ****     const size_t mfl = mbedtls_ssl_get_max_frag_len( ssl );
 158:/home/xingli/share/1205tiny/network/dtls/mbedtls/mbedtls-2.16.2/library/ssl_tls.c **** 
 159:/home/xingli/share/1205tiny/network/dtls/mbedtls/mbedtls-2.16.2/library/ssl_tls.c ****     if( max_len > mfl )
 160:/home/xingli/share/1205tiny/network/dtls/mbedtls/mbedtls-2.16.2/library/ssl_tls.c ****         max_len = mfl;
 161:/home/xingli/share/1205tiny/network/dtls/mbedtls/mbedtls-2.16.2/library/ssl_tls.c **** 
 162:/home/xingli/share/1205tiny/network/dtls/mbedtls/mbedtls-2.16.2/library/ssl_tls.c ****     /* By the standard (RFC 6066 Sect. 4), the MFL extension
 163:/home/xingli/share/1205tiny/network/dtls/mbedtls/mbedtls-2.16.2/library/ssl_tls.c ****      * only limits the maximum record payload size, so in theory
 164:/home/xingli/share/1205tiny/network/dtls/mbedtls/mbedtls-2.16.2/library/ssl_tls.c ****      * we would be allowed to pack multiple records of payload size
GAS LISTING /tmp/ccEn8xFO.s 			page 39


 165:/home/xingli/share/1205tiny/network/dtls/mbedtls/mbedtls-2.16.2/library/ssl_tls.c ****      * MFL into a single datagram. However, this would mean that there's
 166:/home/xingli/share/1205tiny/network/dtls/mbedtls/mbedtls-2.16.2/library/ssl_tls.c ****      * no way to explicitly communicate MTU restrictions to the peer.
 167:/home/xingli/share/1205tiny/network/dtls/mbedtls/mbedtls-2.16.2/library/ssl_tls.c ****      *
 168:/home/xingli/share/1205tiny/network/dtls/mbedtls/mbedtls-2.16.2/library/ssl_tls.c ****      * The following reduction of max_len makes sure that we never
 169:/home/xingli/share/1205tiny/network/dtls/mbedtls/mbedtls-2.16.2/library/ssl_tls.c ****      * write datagrams larger than MFL + Record Expansion Overhead.
 170:/home/xingli/share/1205tiny/network/dtls/mbedtls/mbedtls-2.16.2/library/ssl_tls.c ****      */
 171:/home/xingli/share/1205tiny/network/dtls/mbedtls/mbedtls-2.16.2/library/ssl_tls.c ****     if( max_len <= ssl->out_left )
 172:/home/xingli/share/1205tiny/network/dtls/mbedtls/mbedtls-2.16.2/library/ssl_tls.c ****         return( 0 );
 173:/home/xingli/share/1205tiny/network/dtls/mbedtls/mbedtls-2.16.2/library/ssl_tls.c **** 
 174:/home/xingli/share/1205tiny/network/dtls/mbedtls/mbedtls-2.16.2/library/ssl_tls.c ****     max_len -= ssl->out_left;
 175:/home/xingli/share/1205tiny/network/dtls/mbedtls/mbedtls-2.16.2/library/ssl_tls.c **** #endif
 176:/home/xingli/share/1205tiny/network/dtls/mbedtls/mbedtls-2.16.2/library/ssl_tls.c **** 
 177:/home/xingli/share/1205tiny/network/dtls/mbedtls/mbedtls-2.16.2/library/ssl_tls.c ****     ret = ssl_get_remaining_space_in_datagram( ssl );
 178:/home/xingli/share/1205tiny/network/dtls/mbedtls/mbedtls-2.16.2/library/ssl_tls.c ****     if( ret < 0 )
 179:/home/xingli/share/1205tiny/network/dtls/mbedtls/mbedtls-2.16.2/library/ssl_tls.c ****         return( ret );
 180:/home/xingli/share/1205tiny/network/dtls/mbedtls/mbedtls-2.16.2/library/ssl_tls.c ****     remaining = (size_t) ret;
 181:/home/xingli/share/1205tiny/network/dtls/mbedtls/mbedtls-2.16.2/library/ssl_tls.c **** 
 182:/home/xingli/share/1205tiny/network/dtls/mbedtls/mbedtls-2.16.2/library/ssl_tls.c ****     ret = mbedtls_ssl_get_record_expansion( ssl );
 183:/home/xingli/share/1205tiny/network/dtls/mbedtls/mbedtls-2.16.2/library/ssl_tls.c ****     if( ret < 0 )
 184:/home/xingli/share/1205tiny/network/dtls/mbedtls/mbedtls-2.16.2/library/ssl_tls.c ****         return( ret );
 185:/home/xingli/share/1205tiny/network/dtls/mbedtls/mbedtls-2.16.2/library/ssl_tls.c ****     expansion = (size_t) ret;
 186:/home/xingli/share/1205tiny/network/dtls/mbedtls/mbedtls-2.16.2/library/ssl_tls.c **** 
 187:/home/xingli/share/1205tiny/network/dtls/mbedtls/mbedtls-2.16.2/library/ssl_tls.c ****     if( remaining <= expansion )
 188:/home/xingli/share/1205tiny/network/dtls/mbedtls/mbedtls-2.16.2/library/ssl_tls.c ****         return( 0 );
 189:/home/xingli/share/1205tiny/network/dtls/mbedtls/mbedtls-2.16.2/library/ssl_tls.c **** 
 190:/home/xingli/share/1205tiny/network/dtls/mbedtls/mbedtls-2.16.2/library/ssl_tls.c ****     remaining -= expansion;
 191:/home/xingli/share/1205tiny/network/dtls/mbedtls/mbedtls-2.16.2/library/ssl_tls.c ****     if( remaining >= max_len )
 192:/home/xingli/share/1205tiny/network/dtls/mbedtls/mbedtls-2.16.2/library/ssl_tls.c ****         remaining = max_len;
 193:/home/xingli/share/1205tiny/network/dtls/mbedtls/mbedtls-2.16.2/library/ssl_tls.c **** 
 194:/home/xingli/share/1205tiny/network/dtls/mbedtls/mbedtls-2.16.2/library/ssl_tls.c ****     return( (int) remaining );
 195:/home/xingli/share/1205tiny/network/dtls/mbedtls/mbedtls-2.16.2/library/ssl_tls.c **** }
 196:/home/xingli/share/1205tiny/network/dtls/mbedtls/mbedtls-2.16.2/library/ssl_tls.c **** 
 197:/home/xingli/share/1205tiny/network/dtls/mbedtls/mbedtls-2.16.2/library/ssl_tls.c **** /*
 198:/home/xingli/share/1205tiny/network/dtls/mbedtls/mbedtls-2.16.2/library/ssl_tls.c ****  * Double the retransmit timeout value, within the allowed range,
 199:/home/xingli/share/1205tiny/network/dtls/mbedtls/mbedtls-2.16.2/library/ssl_tls.c ****  * returning -1 if the maximum value has already been reached.
 200:/home/xingli/share/1205tiny/network/dtls/mbedtls/mbedtls-2.16.2/library/ssl_tls.c ****  */
 201:/home/xingli/share/1205tiny/network/dtls/mbedtls/mbedtls-2.16.2/library/ssl_tls.c **** static int ssl_double_retransmit_timeout( mbedtls_ssl_context *ssl )
 202:/home/xingli/share/1205tiny/network/dtls/mbedtls/mbedtls-2.16.2/library/ssl_tls.c **** {
 203:/home/xingli/share/1205tiny/network/dtls/mbedtls/mbedtls-2.16.2/library/ssl_tls.c ****     uint32_t new_timeout;
 204:/home/xingli/share/1205tiny/network/dtls/mbedtls/mbedtls-2.16.2/library/ssl_tls.c **** 
 205:/home/xingli/share/1205tiny/network/dtls/mbedtls/mbedtls-2.16.2/library/ssl_tls.c ****     if( ssl->handshake->retransmit_timeout >= ssl->conf->hs_timeout_max )
 206:/home/xingli/share/1205tiny/network/dtls/mbedtls/mbedtls-2.16.2/library/ssl_tls.c ****         return( -1 );
 207:/home/xingli/share/1205tiny/network/dtls/mbedtls/mbedtls-2.16.2/library/ssl_tls.c **** 
 208:/home/xingli/share/1205tiny/network/dtls/mbedtls/mbedtls-2.16.2/library/ssl_tls.c ****     /* Implement the final paragraph of RFC 6347 section 4.1.1.1
 209:/home/xingli/share/1205tiny/network/dtls/mbedtls/mbedtls-2.16.2/library/ssl_tls.c ****      * in the following way: after the initial transmission and a first
 210:/home/xingli/share/1205tiny/network/dtls/mbedtls/mbedtls-2.16.2/library/ssl_tls.c ****      * retransmission, back off to a temporary estimated MTU of 508 bytes.
 211:/home/xingli/share/1205tiny/network/dtls/mbedtls/mbedtls-2.16.2/library/ssl_tls.c ****      * This value is guaranteed to be deliverable (if not guaranteed to be
 212:/home/xingli/share/1205tiny/network/dtls/mbedtls/mbedtls-2.16.2/library/ssl_tls.c ****      * delivered) of any compliant IPv4 (and IPv6) network, and should work
 213:/home/xingli/share/1205tiny/network/dtls/mbedtls/mbedtls-2.16.2/library/ssl_tls.c ****      * on most non-IP stacks too. */
 214:/home/xingli/share/1205tiny/network/dtls/mbedtls/mbedtls-2.16.2/library/ssl_tls.c ****     if( ssl->handshake->retransmit_timeout != ssl->conf->hs_timeout_min )
 215:/home/xingli/share/1205tiny/network/dtls/mbedtls/mbedtls-2.16.2/library/ssl_tls.c ****     {
 216:/home/xingli/share/1205tiny/network/dtls/mbedtls/mbedtls-2.16.2/library/ssl_tls.c ****         ssl->handshake->mtu = 508;
 217:/home/xingli/share/1205tiny/network/dtls/mbedtls/mbedtls-2.16.2/library/ssl_tls.c ****         MBEDTLS_SSL_DEBUG_MSG( 2, ( "mtu autoreduction to %d bytes", ssl->handshake->mtu ) );
 218:/home/xingli/share/1205tiny/network/dtls/mbedtls/mbedtls-2.16.2/library/ssl_tls.c ****     }
 219:/home/xingli/share/1205tiny/network/dtls/mbedtls/mbedtls-2.16.2/library/ssl_tls.c **** 
 220:/home/xingli/share/1205tiny/network/dtls/mbedtls/mbedtls-2.16.2/library/ssl_tls.c ****     new_timeout = 2 * ssl->handshake->retransmit_timeout;
 221:/home/xingli/share/1205tiny/network/dtls/mbedtls/mbedtls-2.16.2/library/ssl_tls.c **** 
GAS LISTING /tmp/ccEn8xFO.s 			page 40


 222:/home/xingli/share/1205tiny/network/dtls/mbedtls/mbedtls-2.16.2/library/ssl_tls.c ****     /* Avoid arithmetic overflow and range overflow */
 223:/home/xingli/share/1205tiny/network/dtls/mbedtls/mbedtls-2.16.2/library/ssl_tls.c ****     if( new_timeout < ssl->handshake->retransmit_timeout ||
 224:/home/xingli/share/1205tiny/network/dtls/mbedtls/mbedtls-2.16.2/library/ssl_tls.c ****         new_timeout > ssl->conf->hs_timeout_max )
 225:/home/xingli/share/1205tiny/network/dtls/mbedtls/mbedtls-2.16.2/library/ssl_tls.c ****     {
 226:/home/xingli/share/1205tiny/network/dtls/mbedtls/mbedtls-2.16.2/library/ssl_tls.c ****         new_timeout = ssl->conf->hs_timeout_max;
 227:/home/xingli/share/1205tiny/network/dtls/mbedtls/mbedtls-2.16.2/library/ssl_tls.c ****     }
 228:/home/xingli/share/1205tiny/network/dtls/mbedtls/mbedtls-2.16.2/library/ssl_tls.c **** 
 229:/home/xingli/share/1205tiny/network/dtls/mbedtls/mbedtls-2.16.2/library/ssl_tls.c ****     ssl->handshake->retransmit_timeout = new_timeout;
 230:/home/xingli/share/1205tiny/network/dtls/mbedtls/mbedtls-2.16.2/library/ssl_tls.c ****     MBEDTLS_SSL_DEBUG_MSG( 3, ( "update timeout value to %d millisecs",
 231:/home/xingli/share/1205tiny/network/dtls/mbedtls/mbedtls-2.16.2/library/ssl_tls.c ****                         ssl->handshake->retransmit_timeout ) );
 232:/home/xingli/share/1205tiny/network/dtls/mbedtls/mbedtls-2.16.2/library/ssl_tls.c **** 
 233:/home/xingli/share/1205tiny/network/dtls/mbedtls/mbedtls-2.16.2/library/ssl_tls.c ****     return( 0 );
 234:/home/xingli/share/1205tiny/network/dtls/mbedtls/mbedtls-2.16.2/library/ssl_tls.c **** }
 235:/home/xingli/share/1205tiny/network/dtls/mbedtls/mbedtls-2.16.2/library/ssl_tls.c **** 
 236:/home/xingli/share/1205tiny/network/dtls/mbedtls/mbedtls-2.16.2/library/ssl_tls.c **** static void ssl_reset_retransmit_timeout( mbedtls_ssl_context *ssl )
 237:/home/xingli/share/1205tiny/network/dtls/mbedtls/mbedtls-2.16.2/library/ssl_tls.c **** {
 238:/home/xingli/share/1205tiny/network/dtls/mbedtls/mbedtls-2.16.2/library/ssl_tls.c ****     ssl->handshake->retransmit_timeout = ssl->conf->hs_timeout_min;
 239:/home/xingli/share/1205tiny/network/dtls/mbedtls/mbedtls-2.16.2/library/ssl_tls.c ****     MBEDTLS_SSL_DEBUG_MSG( 3, ( "update timeout value to %d millisecs",
 240:/home/xingli/share/1205tiny/network/dtls/mbedtls/mbedtls-2.16.2/library/ssl_tls.c ****                         ssl->handshake->retransmit_timeout ) );
 241:/home/xingli/share/1205tiny/network/dtls/mbedtls/mbedtls-2.16.2/library/ssl_tls.c **** }
 242:/home/xingli/share/1205tiny/network/dtls/mbedtls/mbedtls-2.16.2/library/ssl_tls.c **** #endif /* MBEDTLS_SSL_PROTO_DTLS */
 243:/home/xingli/share/1205tiny/network/dtls/mbedtls/mbedtls-2.16.2/library/ssl_tls.c **** 
 244:/home/xingli/share/1205tiny/network/dtls/mbedtls/mbedtls-2.16.2/library/ssl_tls.c **** #if defined(MBEDTLS_SSL_MAX_FRAGMENT_LENGTH)
 245:/home/xingli/share/1205tiny/network/dtls/mbedtls/mbedtls-2.16.2/library/ssl_tls.c **** /*
 246:/home/xingli/share/1205tiny/network/dtls/mbedtls/mbedtls-2.16.2/library/ssl_tls.c ****  * Convert max_fragment_length codes to length.
 247:/home/xingli/share/1205tiny/network/dtls/mbedtls/mbedtls-2.16.2/library/ssl_tls.c ****  * RFC 6066 says:
 248:/home/xingli/share/1205tiny/network/dtls/mbedtls/mbedtls-2.16.2/library/ssl_tls.c ****  *    enum{
