GAS LISTING /tmp/ccCicVkT.s 			page 1


   1              		.file	"version.c"
   2              		.text
   3              	.Ltext0:
   4              		.section	.text.mbedtls_version_get_number,"ax",@progbits
   5              		.globl	mbedtls_version_get_number
   7              	mbedtls_version_get_number:
   8              	.LFB0:
   9              		.file 1 "/home/xingli/share/LiteOS_Lab/network/dtls/mbedtls/mbedtls-2.16.2/library/version.c"
   1:/home/xingli/share/LiteOS_Lab/network/dtls/mbedtls/mbedtls-2.16.2/library/version.c **** /*
   2:/home/xingli/share/LiteOS_Lab/network/dtls/mbedtls/mbedtls-2.16.2/library/version.c ****  *  Version information
   3:/home/xingli/share/LiteOS_Lab/network/dtls/mbedtls/mbedtls-2.16.2/library/version.c ****  *
   4:/home/xingli/share/LiteOS_Lab/network/dtls/mbedtls/mbedtls-2.16.2/library/version.c ****  *  Copyright (C) 2006-2015, ARM Limited, All Rights Reserved
   5:/home/xingli/share/LiteOS_Lab/network/dtls/mbedtls/mbedtls-2.16.2/library/version.c ****  *  SPDX-License-Identifier: Apache-2.0
   6:/home/xingli/share/LiteOS_Lab/network/dtls/mbedtls/mbedtls-2.16.2/library/version.c ****  *
   7:/home/xingli/share/LiteOS_Lab/network/dtls/mbedtls/mbedtls-2.16.2/library/version.c ****  *  Licensed under the Apache License, Version 2.0 (the "License"); you may
   8:/home/xingli/share/LiteOS_Lab/network/dtls/mbedtls/mbedtls-2.16.2/library/version.c ****  *  not use this file except in compliance with the License.
   9:/home/xingli/share/LiteOS_Lab/network/dtls/mbedtls/mbedtls-2.16.2/library/version.c ****  *  You may obtain a copy of the License at
  10:/home/xingli/share/LiteOS_Lab/network/dtls/mbedtls/mbedtls-2.16.2/library/version.c ****  *
  11:/home/xingli/share/LiteOS_Lab/network/dtls/mbedtls/mbedtls-2.16.2/library/version.c ****  *  http://www.apache.org/licenses/LICENSE-2.0
  12:/home/xingli/share/LiteOS_Lab/network/dtls/mbedtls/mbedtls-2.16.2/library/version.c ****  *
  13:/home/xingli/share/LiteOS_Lab/network/dtls/mbedtls/mbedtls-2.16.2/library/version.c ****  *  Unless required by applicable law or agreed to in writing, software
  14:/home/xingli/share/LiteOS_Lab/network/dtls/mbedtls/mbedtls-2.16.2/library/version.c ****  *  distributed under the License is distributed on an "AS IS" BASIS, WITHOUT
  15:/home/xingli/share/LiteOS_Lab/network/dtls/mbedtls/mbedtls-2.16.2/library/version.c ****  *  WARRANTIES OR CONDITIONS OF ANY KIND, either express or implied.
  16:/home/xingli/share/LiteOS_Lab/network/dtls/mbedtls/mbedtls-2.16.2/library/version.c ****  *  See the License for the specific language governing permissions and
  17:/home/xingli/share/LiteOS_Lab/network/dtls/mbedtls/mbedtls-2.16.2/library/version.c ****  *  limitations under the License.
  18:/home/xingli/share/LiteOS_Lab/network/dtls/mbedtls/mbedtls-2.16.2/library/version.c ****  *
  19:/home/xingli/share/LiteOS_Lab/network/dtls/mbedtls/mbedtls-2.16.2/library/version.c ****  *  This file is part of mbed TLS (https://tls.mbed.org)
  20:/home/xingli/share/LiteOS_Lab/network/dtls/mbedtls/mbedtls-2.16.2/library/version.c ****  */
  21:/home/xingli/share/LiteOS_Lab/network/dtls/mbedtls/mbedtls-2.16.2/library/version.c **** 
  22:/home/xingli/share/LiteOS_Lab/network/dtls/mbedtls/mbedtls-2.16.2/library/version.c **** #if !defined(MBEDTLS_CONFIG_FILE)
  23:/home/xingli/share/LiteOS_Lab/network/dtls/mbedtls/mbedtls-2.16.2/library/version.c **** #include "mbedtls/config.h"
  24:/home/xingli/share/LiteOS_Lab/network/dtls/mbedtls/mbedtls-2.16.2/library/version.c **** #else
  25:/home/xingli/share/LiteOS_Lab/network/dtls/mbedtls/mbedtls-2.16.2/library/version.c **** #include MBEDTLS_CONFIG_FILE
  26:/home/xingli/share/LiteOS_Lab/network/dtls/mbedtls/mbedtls-2.16.2/library/version.c **** #endif
  27:/home/xingli/share/LiteOS_Lab/network/dtls/mbedtls/mbedtls-2.16.2/library/version.c **** 
  28:/home/xingli/share/LiteOS_Lab/network/dtls/mbedtls/mbedtls-2.16.2/library/version.c **** #if defined(MBEDTLS_VERSION_C)
  29:/home/xingli/share/LiteOS_Lab/network/dtls/mbedtls/mbedtls-2.16.2/library/version.c **** 
  30:/home/xingli/share/LiteOS_Lab/network/dtls/mbedtls/mbedtls-2.16.2/library/version.c **** #include "mbedtls/version.h"
  31:/home/xingli/share/LiteOS_Lab/network/dtls/mbedtls/mbedtls-2.16.2/library/version.c **** #include <string.h>
  32:/home/xingli/share/LiteOS_Lab/network/dtls/mbedtls/mbedtls-2.16.2/library/version.c **** 
  33:/home/xingli/share/LiteOS_Lab/network/dtls/mbedtls/mbedtls-2.16.2/library/version.c **** unsigned int mbedtls_version_get_number( void )
  34:/home/xingli/share/LiteOS_Lab/network/dtls/mbedtls/mbedtls-2.16.2/library/version.c **** {
  10              		.loc 1 34 1
  11              		.cfi_startproc
  12 0000 F30F1EFA 		endbr64
  13 0004 55       		pushq	%rbp
  14              	.LCFI0:
  15              		.cfi_def_cfa_offset 16
  16              		.cfi_offset 6, -16
  17 0005 4889E5   		movq	%rsp, %rbp
  18              	.LCFI1:
  19              		.cfi_def_cfa_register 6
  20 0008 4883EC10 		subq	$16, %rsp
  21              		.loc 1 34 1
  22 000c 64488B04 		movq	%fs:40, %rax
  22      25280000 
  22      00
GAS LISTING /tmp/ccCicVkT.s 			page 2


  23 0015 488945F8 		movq	%rax, -8(%rbp)
  24 0019 31C0     		xorl	%eax, %eax
  35:/home/xingli/share/LiteOS_Lab/network/dtls/mbedtls/mbedtls-2.16.2/library/version.c ****     return( MBEDTLS_VERSION_NUMBER );
  25              		.loc 1 35 11
  26 001b B8000210 		movl	$34603520, %eax
  26      02
  36:/home/xingli/share/LiteOS_Lab/network/dtls/mbedtls/mbedtls-2.16.2/library/version.c **** }
  27              		.loc 1 36 1
  28 0020 488B55F8 		movq	-8(%rbp), %rdx
  29 0024 64483314 		xorq	%fs:40, %rdx
  29      25280000 
  29      00
  30 002d 7405     		je	.L3
  31 002f E8000000 		call	__stack_chk_fail@PLT
  31      00
  32              	.L3:
  33 0034 C9       		leave
  34              	.LCFI2:
  35              		.cfi_def_cfa 7, 8
  36 0035 C3       		ret
  37              		.cfi_endproc
  38              	.LFE0:
  40              		.section	.rodata
  41              	.LC0:
  42 0000 322E3136 		.string	"2.16.2"
  42      2E3200
  43              		.section	.text.mbedtls_version_get_string,"ax",@progbits
  44              		.globl	mbedtls_version_get_string
  46              	mbedtls_version_get_string:
  47              	.LFB1:
  37:/home/xingli/share/LiteOS_Lab/network/dtls/mbedtls/mbedtls-2.16.2/library/version.c **** 
  38:/home/xingli/share/LiteOS_Lab/network/dtls/mbedtls/mbedtls-2.16.2/library/version.c **** void mbedtls_version_get_string( char *string )
  39:/home/xingli/share/LiteOS_Lab/network/dtls/mbedtls/mbedtls-2.16.2/library/version.c **** {
  48              		.loc 1 39 1
  49              		.cfi_startproc
  50 0000 F30F1EFA 		endbr64
  51 0004 55       		pushq	%rbp
  52              	.LCFI3:
  53              		.cfi_def_cfa_offset 16
  54              		.cfi_offset 6, -16
  55 0005 4889E5   		movq	%rsp, %rbp
  56              	.LCFI4:
  57              		.cfi_def_cfa_register 6
  58 0008 4883EC20 		subq	$32, %rsp
  59 000c 48897DE8 		movq	%rdi, -24(%rbp)
  60              		.loc 1 39 1
  61 0010 64488B04 		movq	%fs:40, %rax
  61      25280000 
  61      00
  62 0019 488945F8 		movq	%rax, -8(%rbp)
  63 001d 31C0     		xorl	%eax, %eax
  40:/home/xingli/share/LiteOS_Lab/network/dtls/mbedtls/mbedtls-2.16.2/library/version.c ****     memcpy( string, MBEDTLS_VERSION_STRING,
  64              		.loc 1 40 5
  65 001f 488B45E8 		movq	-24(%rbp), %rax
  66 0023 BA070000 		movl	$7, %edx
  66      00
  67 0028 488D3500 		leaq	.LC0(%rip), %rsi
GAS LISTING /tmp/ccCicVkT.s 			page 3


  67      000000
  68 002f 4889C7   		movq	%rax, %rdi
  69 0032 E8000000 		call	memcpy@PLT
  69      00
  41:/home/xingli/share/LiteOS_Lab/network/dtls/mbedtls/mbedtls-2.16.2/library/version.c ****             sizeof( MBEDTLS_VERSION_STRING ) );
  42:/home/xingli/share/LiteOS_Lab/network/dtls/mbedtls/mbedtls-2.16.2/library/version.c **** }
  70              		.loc 1 42 1
  71 0037 90       		nop
  72 0038 488B45F8 		movq	-8(%rbp), %rax
  73 003c 64483304 		xorq	%fs:40, %rax
  73      25280000 
  73      00
  74 0045 7405     		je	.L5
  75 0047 E8000000 		call	__stack_chk_fail@PLT
  75      00
  76              	.L5:
  77 004c C9       		leave
  78              	.LCFI5:
  79              		.cfi_def_cfa 7, 8
  80 004d C3       		ret
  81              		.cfi_endproc
  82              	.LFE1:
  84              		.section	.rodata
  85              	.LC1:
  86 0007 6D626564 		.string	"mbed TLS 2.16.2"
  86      20544C53 
  86      20322E31 
  86      362E3200 
  87              		.section	.text.mbedtls_version_get_string_full,"ax",@progbits
  88              		.globl	mbedtls_version_get_string_full
  90              	mbedtls_version_get_string_full:
  91              	.LFB2:
  43:/home/xingli/share/LiteOS_Lab/network/dtls/mbedtls/mbedtls-2.16.2/library/version.c **** 
  44:/home/xingli/share/LiteOS_Lab/network/dtls/mbedtls/mbedtls-2.16.2/library/version.c **** void mbedtls_version_get_string_full( char *string )
  45:/home/xingli/share/LiteOS_Lab/network/dtls/mbedtls/mbedtls-2.16.2/library/version.c **** {
  92              		.loc 1 45 1
  93              		.cfi_startproc
  94 0000 F30F1EFA 		endbr64
  95 0004 55       		pushq	%rbp
  96              	.LCFI6:
  97              		.cfi_def_cfa_offset 16
  98              		.cfi_offset 6, -16
  99 0005 4889E5   		movq	%rsp, %rbp
 100              	.LCFI7:
 101              		.cfi_def_cfa_register 6
 102 0008 4883EC20 		subq	$32, %rsp
 103 000c 48897DE8 		movq	%rdi, -24(%rbp)
 104              		.loc 1 45 1
 105 0010 64488B04 		movq	%fs:40, %rax
 105      25280000 
 105      00
 106 0019 488945F8 		movq	%rax, -8(%rbp)
 107 001d 31C0     		xorl	%eax, %eax
  46:/home/xingli/share/LiteOS_Lab/network/dtls/mbedtls/mbedtls-2.16.2/library/version.c ****     memcpy( string, MBEDTLS_VERSION_STRING_FULL,
 108              		.loc 1 46 5
 109 001f 488B45E8 		movq	-24(%rbp), %rax
 110 0023 BA100000 		movl	$16, %edx
GAS LISTING /tmp/ccCicVkT.s 			page 4


 110      00
 111 0028 488D3500 		leaq	.LC1(%rip), %rsi
 111      000000
 112 002f 4889C7   		movq	%rax, %rdi
 113 0032 E8000000 		call	memcpy@PLT
 113      00
  47:/home/xingli/share/LiteOS_Lab/network/dtls/mbedtls/mbedtls-2.16.2/library/version.c ****             sizeof( MBEDTLS_VERSION_STRING_FULL ) );
  48:/home/xingli/share/LiteOS_Lab/network/dtls/mbedtls/mbedtls-2.16.2/library/version.c **** }
 114              		.loc 1 48 1
 115 0037 90       		nop
 116 0038 488B45F8 		movq	-8(%rbp), %rax
 117 003c 64483304 		xorq	%fs:40, %rax
 117      25280000 
 117      00
 118 0045 7405     		je	.L7
 119 0047 E8000000 		call	__stack_chk_fail@PLT
 119      00
 120              	.L7:
 121 004c C9       		leave
 122              	.LCFI8:
 123              		.cfi_def_cfa 7, 8
 124 004d C3       		ret
 125              		.cfi_endproc
 126              	.LFE2:
 128              		.text
 129              	.Letext0:
 475              		.section	.note.gnu.property,"a"
 476              		.align 8
 477 0000 04000000 		.long	 1f - 0f
 478 0004 10000000 		.long	 4f - 1f
 479 0008 05000000 		.long	 5
 480              	0:
 481 000c 474E5500 		.string	 "GNU"
 482              	1:
 483              		.align 8
 484 0010 020000C0 		.long	 0xc0000002
 485 0014 04000000 		.long	 3f - 2f
 486              	2:
 487 0018 03000000 		.long	 0x3
 488              	3:
 489 001c 00000000 		.align 8
 490              	4:
GAS LISTING /tmp/ccCicVkT.s 			page 5

