GAS LISTING /tmp/cckLzPk8.s 			page 1


   1              		.file	"x509_create.c"
   2              		.text
   3              	.Ltext0:
   4              		.section	.rodata
   5              	.LC0:
   6 0000 434E00   		.string	"CN"
   7              	.LC1:
   8 0003 55040300 		.string	"U\004\003"
   9              	.LC2:
  10 0007 636F6D6D 		.string	"commonName"
  10      6F6E4E61 
  10      6D6500
  11              	.LC3:
  12 0012 4300     		.string	"C"
  13              	.LC4:
  14 0014 55040600 		.string	"U\004\006"
  15              	.LC5:
  16 0018 636F756E 		.string	"countryName"
  16      7472794E 
  16      616D6500 
  17              	.LC6:
  18 0024 4F00     		.string	"O"
  19              	.LC7:
  20 0026 55040A00 		.string	"U\004\n"
  21              	.LC8:
  22 002a 6F726761 		.string	"organizationName"
  22      6E697A61 
  22      74696F6E 
  22      4E616D65 
  22      00
  23              	.LC9:
  24 003b 4C00     		.string	"L"
  25              	.LC10:
  26 003d 55040700 		.string	"U\004\007"
  27              	.LC11:
  28 0041 6C6F6361 		.string	"locality"
  28      6C697479 
  28      00
  29              	.LC12:
  30 004a 5200     		.string	"R"
  31              	.LC13:
  32 004c 2A864886 		.string	"*\206H\206\367\r\001\t\001"
  32      F70D0109 
  32      0100
  33              	.LC14:
  34 0056 4F5500   		.string	"OU"
  35              	.LC15:
  36 0059 55040B00 		.string	"U\004\013"
  37              	.LC16:
  38 005d 6F726761 		.string	"organizationalUnitName"
  38      6E697A61 
  38      74696F6E 
  38      616C556E 
  38      69744E61 
  39              	.LC17:
  40 0074 535400   		.string	"ST"
  41              	.LC18:
GAS LISTING /tmp/cckLzPk8.s 			page 2


  42 0077 55040800 		.string	"U\004\b"
  43              	.LC19:
  44 007b 73746174 		.string	"stateOrProvinceName"
  44      654F7250 
  44      726F7669 
  44      6E63654E 
  44      616D6500 
  45              	.LC20:
  46 008f 656D6169 		.string	"emailAddress"
  46      6C416464 
  46      72657373 
  46      00
  47              	.LC21:
  48 009c 73657269 		.string	"serialNumber"
  48      616C4E75 
  48      6D626572 
  48      00
  49              	.LC22:
  50 00a9 55040500 		.string	"U\004\005"
  51              	.LC23:
  52 00ad 706F7374 		.string	"postalAddress"
  52      616C4164 
  52      64726573 
  52      7300
  53              	.LC24:
  54 00bb 55041000 		.string	"U\004\020"
  55              	.LC25:
  56 00bf 706F7374 		.string	"postalCode"
  56      616C436F 
  56      646500
  57              	.LC26:
  58 00ca 55041100 		.string	"U\004\021"
  59              	.LC27:
  60 00ce 646E5175 		.string	"dnQualifier"
  60      616C6966 
  60      69657200 
  61              	.LC28:
  62 00da 55042E00 		.string	"U\004."
  63              	.LC29:
  64 00de 7469746C 		.string	"title"
  64      6500
  65              	.LC30:
  66 00e4 55040C00 		.string	"U\004\f"
  67              	.LC31:
  68 00e8 7375724E 		.string	"surName"
  68      616D6500 
  69              	.LC32:
  70 00f0 55040400 		.string	"U\004\004"
  71              	.LC33:
  72 00f4 534E00   		.string	"SN"
  73              	.LC34:
  74 00f7 67697665 		.string	"givenName"
  74      6E4E616D 
  74      6500
  75              	.LC35:
  76 0101 55042A00 		.string	"U\004*"
  77              	.LC36:
GAS LISTING /tmp/cckLzPk8.s 			page 3


  78 0105 474E00   		.string	"GN"
  79              	.LC37:
  80 0108 696E6974 		.string	"initials"
  80      69616C73 
  80      00
  81              	.LC38:
  82 0111 55042B00 		.string	"U\004+"
  83              	.LC39:
  84 0115 70736575 		.string	"pseudonym"
  84      646F6E79 
  84      6D00
  85              	.LC40:
  86 011f 55044100 		.string	"U\004A"
  87              	.LC41:
  88 0123 67656E65 		.string	"generationQualifier"
  88      72617469 
  88      6F6E5175 
  88      616C6966 
  88      69657200 
  89              	.LC42:
  90 0137 55042C00 		.string	"U\004,"
  91              	.LC43:
  92 013b 646F6D61 		.string	"domainComponent"
  92      696E436F 
  92      6D706F6E 
  92      656E7400 
  93              	.LC44:
  94 014b 09922689 		.string	"\t\222&\211\223\362,d\001\031"
  94      93F22C64 
  94      011900
  95              	.LC45:
  96 0156 444300   		.string	"DC"
  97              		.section	.data.rel.ro.local.x509_attrs,"aw"
  98              		.align 32
 101              	x509_attrs:
 102 0000 00000000 		.quad	.LC0
 102      00000000 
 103 0008 02000000 		.quad	2
 103      00000000 
 104 0010 00000000 		.quad	.LC1
 104      00000000 
 105 0018 0C000000 		.long	12
 106 001c 00000000 		.zero	4
 107 0020 00000000 		.quad	.LC2
 107      00000000 
 108 0028 0A000000 		.quad	10
 108      00000000 
 109 0030 00000000 		.quad	.LC1
 109      00000000 
 110 0038 0C000000 		.long	12
 111 003c 00000000 		.zero	4
 112 0040 00000000 		.quad	.LC3
 112      00000000 
 113 0048 01000000 		.quad	1
 113      00000000 
 114 0050 00000000 		.quad	.LC4
 114      00000000 
GAS LISTING /tmp/cckLzPk8.s 			page 4


 115 0058 13000000 		.long	19
 116 005c 00000000 		.zero	4
 117 0060 00000000 		.quad	.LC5
 117      00000000 
 118 0068 0B000000 		.quad	11
 118      00000000 
 119 0070 00000000 		.quad	.LC4
 119      00000000 
 120 0078 13000000 		.long	19
 121 007c 00000000 		.zero	4
 122 0080 00000000 		.quad	.LC6
 122      00000000 
 123 0088 01000000 		.quad	1
 123      00000000 
 124 0090 00000000 		.quad	.LC7
 124      00000000 
 125 0098 0C000000 		.long	12
 126 009c 00000000 		.zero	4
 127 00a0 00000000 		.quad	.LC8
 127      00000000 
 128 00a8 10000000 		.quad	16
 128      00000000 
 129 00b0 00000000 		.quad	.LC7
 129      00000000 
 130 00b8 0C000000 		.long	12
 131 00bc 00000000 		.zero	4
 132 00c0 00000000 		.quad	.LC9
 132      00000000 
 133 00c8 01000000 		.quad	1
 133      00000000 
 134 00d0 00000000 		.quad	.LC10
 134      00000000 
 135 00d8 0C000000 		.long	12
 136 00dc 00000000 		.zero	4
 137 00e0 00000000 		.quad	.LC11
 137      00000000 
 138 00e8 08000000 		.quad	8
 138      00000000 
 139 00f0 00000000 		.quad	.LC10
 139      00000000 
 140 00f8 0C000000 		.long	12
 141 00fc 00000000 		.zero	4
 142 0100 00000000 		.quad	.LC12
 142      00000000 
 143 0108 01000000 		.quad	1
 143      00000000 
 144 0110 00000000 		.quad	.LC13
 144      00000000 
 145 0118 16000000 		.long	22
 146 011c 00000000 		.zero	4
 147 0120 00000000 		.quad	.LC14
 147      00000000 
 148 0128 02000000 		.quad	2
 148      00000000 
 149 0130 00000000 		.quad	.LC15
 149      00000000 
 150 0138 0C000000 		.long	12
GAS LISTING /tmp/cckLzPk8.s 			page 5


 151 013c 00000000 		.zero	4
 152 0140 00000000 		.quad	.LC16
 152      00000000 
 153 0148 16000000 		.quad	22
 153      00000000 
 154 0150 00000000 		.quad	.LC15
 154      00000000 
 155 0158 0C000000 		.long	12
 156 015c 00000000 		.zero	4
 157 0160 00000000 		.quad	.LC17
 157      00000000 
 158 0168 02000000 		.quad	2
 158      00000000 
 159 0170 00000000 		.quad	.LC18
 159      00000000 
 160 0178 0C000000 		.long	12
 161 017c 00000000 		.zero	4
 162 0180 00000000 		.quad	.LC19
 162      00000000 
 163 0188 13000000 		.quad	19
 163      00000000 
 164 0190 00000000 		.quad	.LC18
 164      00000000 
 165 0198 0C000000 		.long	12
 166 019c 00000000 		.zero	4
 167 01a0 00000000 		.quad	.LC20
 167      00000000 
 168 01a8 0C000000 		.quad	12
 168      00000000 
 169 01b0 00000000 		.quad	.LC13
 169      00000000 
 170 01b8 16000000 		.long	22
 171 01bc 00000000 		.zero	4
 172 01c0 00000000 		.quad	.LC21
 172      00000000 
 173 01c8 0C000000 		.quad	12
 173      00000000 
 174 01d0 00000000 		.quad	.LC22
 174      00000000 
 175 01d8 13000000 		.long	19
 176 01dc 00000000 		.zero	4
 177 01e0 00000000 		.quad	.LC23
 177      00000000 
 178 01e8 0D000000 		.quad	13
 178      00000000 
 179 01f0 00000000 		.quad	.LC24
 179      00000000 
 180 01f8 13000000 		.long	19
 181 01fc 00000000 		.zero	4
 182 0200 00000000 		.quad	.LC25
 182      00000000 
 183 0208 0A000000 		.quad	10
 183      00000000 
 184 0210 00000000 		.quad	.LC26
 184      00000000 
 185 0218 13000000 		.long	19
 186 021c 00000000 		.zero	4
GAS LISTING /tmp/cckLzPk8.s 			page 6


 187 0220 00000000 		.quad	.LC27
 187      00000000 
 188 0228 0B000000 		.quad	11
 188      00000000 
 189 0230 00000000 		.quad	.LC28
 189      00000000 
 190 0238 13000000 		.long	19
 191 023c 00000000 		.zero	4
 192 0240 00000000 		.quad	.LC29
 192      00000000 
 193 0248 05000000 		.quad	5
 193      00000000 
 194 0250 00000000 		.quad	.LC30
 194      00000000 
 195 0258 0C000000 		.long	12
 196 025c 00000000 		.zero	4
 197 0260 00000000 		.quad	.LC31
 197      00000000 
 198 0268 07000000 		.quad	7
 198      00000000 
 199 0270 00000000 		.quad	.LC32
 199      00000000 
 200 0278 0C000000 		.long	12
 201 027c 00000000 		.zero	4
 202 0280 00000000 		.quad	.LC33
 202      00000000 
 203 0288 02000000 		.quad	2
 203      00000000 
 204 0290 00000000 		.quad	.LC32
 204      00000000 
 205 0298 0C000000 		.long	12
 206 029c 00000000 		.zero	4
 207 02a0 00000000 		.quad	.LC34
 207      00000000 
 208 02a8 09000000 		.quad	9
 208      00000000 
 209 02b0 00000000 		.quad	.LC35
 209      00000000 
 210 02b8 0C000000 		.long	12
 211 02bc 00000000 		.zero	4
 212 02c0 00000000 		.quad	.LC36
 212      00000000 
 213 02c8 02000000 		.quad	2
 213      00000000 
 214 02d0 00000000 		.quad	.LC35
 214      00000000 
 215 02d8 0C000000 		.long	12
 216 02dc 00000000 		.zero	4
 217 02e0 00000000 		.quad	.LC37
 217      00000000 
 218 02e8 08000000 		.quad	8
 218      00000000 
 219 02f0 00000000 		.quad	.LC38
 219      00000000 
 220 02f8 0C000000 		.long	12
 221 02fc 00000000 		.zero	4
 222 0300 00000000 		.quad	.LC39
GAS LISTING /tmp/cckLzPk8.s 			page 7


 222      00000000 
 223 0308 09000000 		.quad	9
 223      00000000 
 224 0310 00000000 		.quad	.LC40
 224      00000000 
 225 0318 0C000000 		.long	12
 226 031c 00000000 		.zero	4
 227 0320 00000000 		.quad	.LC41
 227      00000000 
 228 0328 13000000 		.quad	19
 228      00000000 
 229 0330 00000000 		.quad	.LC42
 229      00000000 
 230 0338 0C000000 		.long	12
 231 033c 00000000 		.zero	4
 232 0340 00000000 		.quad	.LC43
 232      00000000 
 233 0348 0F000000 		.quad	15
 233      00000000 
 234 0350 00000000 		.quad	.LC44
 234      00000000 
 235 0358 16000000 		.long	22
 236 035c 00000000 		.zero	4
 237 0360 00000000 		.quad	.LC45
 237      00000000 
 238 0368 02000000 		.quad	2
 238      00000000 
 239 0370 00000000 		.quad	.LC44
 239      00000000 
 240 0378 16000000 		.long	22
 241 037c 00000000 		.zero	4
 242 0380 00000000 		.quad	0
 242      00000000 
 243 0388 00000000 		.quad	0
 243      00000000 
 244 0390 00000000 		.quad	0
 244      00000000 
 245 0398 05000000 		.long	5
 246 039c 00000000 		.zero	4
 247              		.section	.text.x509_attr_descr_from_name,"ax",@progbits
 249              	x509_attr_descr_from_name:
 250              	.LFB10:
 251              		.file 1 "/home/xingli/share/LiteOS_Lab/network/dtls/mbedtls/mbedtls-2.16.2/library/x509_create.c"
   1:/home/xingli/share/LiteOS_Lab/network/dtls/mbedtls/mbedtls-2.16.2/library/x509_create.c **** /*
   2:/home/xingli/share/LiteOS_Lab/network/dtls/mbedtls/mbedtls-2.16.2/library/x509_create.c ****  *  X.509 base functions for creating certificates / CSRs
   3:/home/xingli/share/LiteOS_Lab/network/dtls/mbedtls/mbedtls-2.16.2/library/x509_create.c ****  *
   4:/home/xingli/share/LiteOS_Lab/network/dtls/mbedtls/mbedtls-2.16.2/library/x509_create.c ****  *  Copyright (C) 2006-2015, ARM Limited, All Rights Reserved
   5:/home/xingli/share/LiteOS_Lab/network/dtls/mbedtls/mbedtls-2.16.2/library/x509_create.c ****  *  SPDX-License-Identifier: Apache-2.0
   6:/home/xingli/share/LiteOS_Lab/network/dtls/mbedtls/mbedtls-2.16.2/library/x509_create.c ****  *
   7:/home/xingli/share/LiteOS_Lab/network/dtls/mbedtls/mbedtls-2.16.2/library/x509_create.c ****  *  Licensed under the Apache License, Version 2.0 (the "License"); you may
   8:/home/xingli/share/LiteOS_Lab/network/dtls/mbedtls/mbedtls-2.16.2/library/x509_create.c ****  *  not use this file except in compliance with the License.
   9:/home/xingli/share/LiteOS_Lab/network/dtls/mbedtls/mbedtls-2.16.2/library/x509_create.c ****  *  You may obtain a copy of the License at
  10:/home/xingli/share/LiteOS_Lab/network/dtls/mbedtls/mbedtls-2.16.2/library/x509_create.c ****  *
  11:/home/xingli/share/LiteOS_Lab/network/dtls/mbedtls/mbedtls-2.16.2/library/x509_create.c ****  *  http://www.apache.org/licenses/LICENSE-2.0
  12:/home/xingli/share/LiteOS_Lab/network/dtls/mbedtls/mbedtls-2.16.2/library/x509_create.c ****  *
  13:/home/xingli/share/LiteOS_Lab/network/dtls/mbedtls/mbedtls-2.16.2/library/x509_create.c ****  *  Unless required by applicable law or agreed to in writing, software
  14:/home/xingli/share/LiteOS_Lab/network/dtls/mbedtls/mbedtls-2.16.2/library/x509_create.c ****  *  distributed under the License is distributed on an "AS IS" BASIS, WITHOUT
GAS LISTING /tmp/cckLzPk8.s 			page 8


  15:/home/xingli/share/LiteOS_Lab/network/dtls/mbedtls/mbedtls-2.16.2/library/x509_create.c ****  *  WARRANTIES OR CONDITIONS OF ANY KIND, either express or implied.
  16:/home/xingli/share/LiteOS_Lab/network/dtls/mbedtls/mbedtls-2.16.2/library/x509_create.c ****  *  See the License for the specific language governing permissions and
  17:/home/xingli/share/LiteOS_Lab/network/dtls/mbedtls/mbedtls-2.16.2/library/x509_create.c ****  *  limitations under the License.
  18:/home/xingli/share/LiteOS_Lab/network/dtls/mbedtls/mbedtls-2.16.2/library/x509_create.c ****  *
  19:/home/xingli/share/LiteOS_Lab/network/dtls/mbedtls/mbedtls-2.16.2/library/x509_create.c ****  *  This file is part of mbed TLS (https://tls.mbed.org)
  20:/home/xingli/share/LiteOS_Lab/network/dtls/mbedtls/mbedtls-2.16.2/library/x509_create.c ****  */
  21:/home/xingli/share/LiteOS_Lab/network/dtls/mbedtls/mbedtls-2.16.2/library/x509_create.c **** 
  22:/home/xingli/share/LiteOS_Lab/network/dtls/mbedtls/mbedtls-2.16.2/library/x509_create.c **** #if !defined(MBEDTLS_CONFIG_FILE)
  23:/home/xingli/share/LiteOS_Lab/network/dtls/mbedtls/mbedtls-2.16.2/library/x509_create.c **** #include "mbedtls/config.h"
  24:/home/xingli/share/LiteOS_Lab/network/dtls/mbedtls/mbedtls-2.16.2/library/x509_create.c **** #else
  25:/home/xingli/share/LiteOS_Lab/network/dtls/mbedtls/mbedtls-2.16.2/library/x509_create.c **** #include MBEDTLS_CONFIG_FILE
  26:/home/xingli/share/LiteOS_Lab/network/dtls/mbedtls/mbedtls-2.16.2/library/x509_create.c **** #endif
  27:/home/xingli/share/LiteOS_Lab/network/dtls/mbedtls/mbedtls-2.16.2/library/x509_create.c **** 
  28:/home/xingli/share/LiteOS_Lab/network/dtls/mbedtls/mbedtls-2.16.2/library/x509_create.c **** #if defined(MBEDTLS_X509_CREATE_C)
  29:/home/xingli/share/LiteOS_Lab/network/dtls/mbedtls/mbedtls-2.16.2/library/x509_create.c **** 
  30:/home/xingli/share/LiteOS_Lab/network/dtls/mbedtls/mbedtls-2.16.2/library/x509_create.c **** #include "mbedtls/x509.h"
  31:/home/xingli/share/LiteOS_Lab/network/dtls/mbedtls/mbedtls-2.16.2/library/x509_create.c **** #include "mbedtls/asn1write.h"
  32:/home/xingli/share/LiteOS_Lab/network/dtls/mbedtls/mbedtls-2.16.2/library/x509_create.c **** #include "mbedtls/oid.h"
  33:/home/xingli/share/LiteOS_Lab/network/dtls/mbedtls/mbedtls-2.16.2/library/x509_create.c **** 
  34:/home/xingli/share/LiteOS_Lab/network/dtls/mbedtls/mbedtls-2.16.2/library/x509_create.c **** #include <string.h>
  35:/home/xingli/share/LiteOS_Lab/network/dtls/mbedtls/mbedtls-2.16.2/library/x509_create.c **** 
  36:/home/xingli/share/LiteOS_Lab/network/dtls/mbedtls/mbedtls-2.16.2/library/x509_create.c **** /* Structure linking OIDs for X.509 DN AttributeTypes to their
  37:/home/xingli/share/LiteOS_Lab/network/dtls/mbedtls/mbedtls-2.16.2/library/x509_create.c ****  * string representations and default string encodings used by Mbed TLS. */
  38:/home/xingli/share/LiteOS_Lab/network/dtls/mbedtls/mbedtls-2.16.2/library/x509_create.c **** typedef struct {
  39:/home/xingli/share/LiteOS_Lab/network/dtls/mbedtls/mbedtls-2.16.2/library/x509_create.c ****    const char *name; /* String representation of AttributeType, e.g.
  40:/home/xingli/share/LiteOS_Lab/network/dtls/mbedtls/mbedtls-2.16.2/library/x509_create.c ****                       * "CN" or "emailAddress". */
  41:/home/xingli/share/LiteOS_Lab/network/dtls/mbedtls/mbedtls-2.16.2/library/x509_create.c ****    size_t name_len;  /* Length of 'name', without trailing 0 byte. */
  42:/home/xingli/share/LiteOS_Lab/network/dtls/mbedtls/mbedtls-2.16.2/library/x509_create.c ****    const char *oid;  /* String representation of OID of AttributeType,
  43:/home/xingli/share/LiteOS_Lab/network/dtls/mbedtls/mbedtls-2.16.2/library/x509_create.c ****                       * as per RFC 5280, Appendix A.1. */
  44:/home/xingli/share/LiteOS_Lab/network/dtls/mbedtls/mbedtls-2.16.2/library/x509_create.c ****    int default_tag;  /* The default character encoding used for the
  45:/home/xingli/share/LiteOS_Lab/network/dtls/mbedtls/mbedtls-2.16.2/library/x509_create.c ****                       * given attribute type, e.g.
  46:/home/xingli/share/LiteOS_Lab/network/dtls/mbedtls/mbedtls-2.16.2/library/x509_create.c ****                       * MBEDTLS_ASN1_UTF8_STRING for UTF-8. */
  47:/home/xingli/share/LiteOS_Lab/network/dtls/mbedtls/mbedtls-2.16.2/library/x509_create.c **** } x509_attr_descriptor_t;
  48:/home/xingli/share/LiteOS_Lab/network/dtls/mbedtls/mbedtls-2.16.2/library/x509_create.c **** 
  49:/home/xingli/share/LiteOS_Lab/network/dtls/mbedtls/mbedtls-2.16.2/library/x509_create.c **** #define ADD_STRLEN( s )     s, sizeof( s ) - 1
  50:/home/xingli/share/LiteOS_Lab/network/dtls/mbedtls/mbedtls-2.16.2/library/x509_create.c **** 
  51:/home/xingli/share/LiteOS_Lab/network/dtls/mbedtls/mbedtls-2.16.2/library/x509_create.c **** /* X.509 DN attributes from RFC 5280, Appendix A.1. */
  52:/home/xingli/share/LiteOS_Lab/network/dtls/mbedtls/mbedtls-2.16.2/library/x509_create.c **** static const x509_attr_descriptor_t x509_attrs[] =
  53:/home/xingli/share/LiteOS_Lab/network/dtls/mbedtls/mbedtls-2.16.2/library/x509_create.c **** {
  54:/home/xingli/share/LiteOS_Lab/network/dtls/mbedtls/mbedtls-2.16.2/library/x509_create.c ****     { ADD_STRLEN( "CN" ),
  55:/home/xingli/share/LiteOS_Lab/network/dtls/mbedtls/mbedtls-2.16.2/library/x509_create.c ****       MBEDTLS_OID_AT_CN, MBEDTLS_ASN1_UTF8_STRING },
  56:/home/xingli/share/LiteOS_Lab/network/dtls/mbedtls/mbedtls-2.16.2/library/x509_create.c ****     { ADD_STRLEN( "commonName" ),
  57:/home/xingli/share/LiteOS_Lab/network/dtls/mbedtls/mbedtls-2.16.2/library/x509_create.c ****       MBEDTLS_OID_AT_CN, MBEDTLS_ASN1_UTF8_STRING },
  58:/home/xingli/share/LiteOS_Lab/network/dtls/mbedtls/mbedtls-2.16.2/library/x509_create.c ****     { ADD_STRLEN( "C" ),
  59:/home/xingli/share/LiteOS_Lab/network/dtls/mbedtls/mbedtls-2.16.2/library/x509_create.c ****       MBEDTLS_OID_AT_COUNTRY, MBEDTLS_ASN1_PRINTABLE_STRING },
  60:/home/xingli/share/LiteOS_Lab/network/dtls/mbedtls/mbedtls-2.16.2/library/x509_create.c ****     { ADD_STRLEN( "countryName" ),
  61:/home/xingli/share/LiteOS_Lab/network/dtls/mbedtls/mbedtls-2.16.2/library/x509_create.c ****       MBEDTLS_OID_AT_COUNTRY, MBEDTLS_ASN1_PRINTABLE_STRING },
  62:/home/xingli/share/LiteOS_Lab/network/dtls/mbedtls/mbedtls-2.16.2/library/x509_create.c ****     { ADD_STRLEN( "O" ),
  63:/home/xingli/share/LiteOS_Lab/network/dtls/mbedtls/mbedtls-2.16.2/library/x509_create.c ****       MBEDTLS_OID_AT_ORGANIZATION, MBEDTLS_ASN1_UTF8_STRING },
  64:/home/xingli/share/LiteOS_Lab/network/dtls/mbedtls/mbedtls-2.16.2/library/x509_create.c ****     { ADD_STRLEN( "organizationName" ),
  65:/home/xingli/share/LiteOS_Lab/network/dtls/mbedtls/mbedtls-2.16.2/library/x509_create.c ****       MBEDTLS_OID_AT_ORGANIZATION, MBEDTLS_ASN1_UTF8_STRING },
  66:/home/xingli/share/LiteOS_Lab/network/dtls/mbedtls/mbedtls-2.16.2/library/x509_create.c ****     { ADD_STRLEN( "L" ),
  67:/home/xingli/share/LiteOS_Lab/network/dtls/mbedtls/mbedtls-2.16.2/library/x509_create.c ****       MBEDTLS_OID_AT_LOCALITY, MBEDTLS_ASN1_UTF8_STRING },
  68:/home/xingli/share/LiteOS_Lab/network/dtls/mbedtls/mbedtls-2.16.2/library/x509_create.c ****     { ADD_STRLEN( "locality" ),
  69:/home/xingli/share/LiteOS_Lab/network/dtls/mbedtls/mbedtls-2.16.2/library/x509_create.c ****       MBEDTLS_OID_AT_LOCALITY, MBEDTLS_ASN1_UTF8_STRING },
  70:/home/xingli/share/LiteOS_Lab/network/dtls/mbedtls/mbedtls-2.16.2/library/x509_create.c ****     { ADD_STRLEN( "R" ),
  71:/home/xingli/share/LiteOS_Lab/network/dtls/mbedtls/mbedtls-2.16.2/library/x509_create.c ****       MBEDTLS_OID_PKCS9_EMAIL, MBEDTLS_ASN1_IA5_STRING },
GAS LISTING /tmp/cckLzPk8.s 			page 9


  72:/home/xingli/share/LiteOS_Lab/network/dtls/mbedtls/mbedtls-2.16.2/library/x509_create.c ****     { ADD_STRLEN( "OU" ),
  73:/home/xingli/share/LiteOS_Lab/network/dtls/mbedtls/mbedtls-2.16.2/library/x509_create.c ****       MBEDTLS_OID_AT_ORG_UNIT, MBEDTLS_ASN1_UTF8_STRING },
  74:/home/xingli/share/LiteOS_Lab/network/dtls/mbedtls/mbedtls-2.16.2/library/x509_create.c ****     { ADD_STRLEN( "organizationalUnitName" ),
  75:/home/xingli/share/LiteOS_Lab/network/dtls/mbedtls/mbedtls-2.16.2/library/x509_create.c ****       MBEDTLS_OID_AT_ORG_UNIT, MBEDTLS_ASN1_UTF8_STRING },
  76:/home/xingli/share/LiteOS_Lab/network/dtls/mbedtls/mbedtls-2.16.2/library/x509_create.c ****     { ADD_STRLEN( "ST" ),
  77:/home/xingli/share/LiteOS_Lab/network/dtls/mbedtls/mbedtls-2.16.2/library/x509_create.c ****       MBEDTLS_OID_AT_STATE, MBEDTLS_ASN1_UTF8_STRING },
  78:/home/xingli/share/LiteOS_Lab/network/dtls/mbedtls/mbedtls-2.16.2/library/x509_create.c ****     { ADD_STRLEN( "stateOrProvinceName" ),
  79:/home/xingli/share/LiteOS_Lab/network/dtls/mbedtls/mbedtls-2.16.2/library/x509_create.c ****       MBEDTLS_OID_AT_STATE, MBEDTLS_ASN1_UTF8_STRING },
  80:/home/xingli/share/LiteOS_Lab/network/dtls/mbedtls/mbedtls-2.16.2/library/x509_create.c ****     { ADD_STRLEN( "emailAddress" ),
  81:/home/xingli/share/LiteOS_Lab/network/dtls/mbedtls/mbedtls-2.16.2/library/x509_create.c ****       MBEDTLS_OID_PKCS9_EMAIL, MBEDTLS_ASN1_IA5_STRING },
  82:/home/xingli/share/LiteOS_Lab/network/dtls/mbedtls/mbedtls-2.16.2/library/x509_create.c ****     { ADD_STRLEN( "serialNumber" ),
  83:/home/xingli/share/LiteOS_Lab/network/dtls/mbedtls/mbedtls-2.16.2/library/x509_create.c ****       MBEDTLS_OID_AT_SERIAL_NUMBER, MBEDTLS_ASN1_PRINTABLE_STRING },
  84:/home/xingli/share/LiteOS_Lab/network/dtls/mbedtls/mbedtls-2.16.2/library/x509_create.c ****     { ADD_STRLEN( "postalAddress" ),
  85:/home/xingli/share/LiteOS_Lab/network/dtls/mbedtls/mbedtls-2.16.2/library/x509_create.c ****       MBEDTLS_OID_AT_POSTAL_ADDRESS, MBEDTLS_ASN1_PRINTABLE_STRING },
  86:/home/xingli/share/LiteOS_Lab/network/dtls/mbedtls/mbedtls-2.16.2/library/x509_create.c ****     { ADD_STRLEN( "postalCode" ),
  87:/home/xingli/share/LiteOS_Lab/network/dtls/mbedtls/mbedtls-2.16.2/library/x509_create.c ****       MBEDTLS_OID_AT_POSTAL_CODE, MBEDTLS_ASN1_PRINTABLE_STRING },
  88:/home/xingli/share/LiteOS_Lab/network/dtls/mbedtls/mbedtls-2.16.2/library/x509_create.c ****     { ADD_STRLEN( "dnQualifier" ),
  89:/home/xingli/share/LiteOS_Lab/network/dtls/mbedtls/mbedtls-2.16.2/library/x509_create.c ****       MBEDTLS_OID_AT_DN_QUALIFIER, MBEDTLS_ASN1_PRINTABLE_STRING },
  90:/home/xingli/share/LiteOS_Lab/network/dtls/mbedtls/mbedtls-2.16.2/library/x509_create.c ****     { ADD_STRLEN( "title" ),
  91:/home/xingli/share/LiteOS_Lab/network/dtls/mbedtls/mbedtls-2.16.2/library/x509_create.c ****       MBEDTLS_OID_AT_TITLE, MBEDTLS_ASN1_UTF8_STRING },
  92:/home/xingli/share/LiteOS_Lab/network/dtls/mbedtls/mbedtls-2.16.2/library/x509_create.c ****     { ADD_STRLEN( "surName" ),
  93:/home/xingli/share/LiteOS_Lab/network/dtls/mbedtls/mbedtls-2.16.2/library/x509_create.c ****       MBEDTLS_OID_AT_SUR_NAME, MBEDTLS_ASN1_UTF8_STRING },
  94:/home/xingli/share/LiteOS_Lab/network/dtls/mbedtls/mbedtls-2.16.2/library/x509_create.c ****     { ADD_STRLEN( "SN" ),
  95:/home/xingli/share/LiteOS_Lab/network/dtls/mbedtls/mbedtls-2.16.2/library/x509_create.c ****       MBEDTLS_OID_AT_SUR_NAME, MBEDTLS_ASN1_UTF8_STRING },
  96:/home/xingli/share/LiteOS_Lab/network/dtls/mbedtls/mbedtls-2.16.2/library/x509_create.c ****     { ADD_STRLEN( "givenName" ),
  97:/home/xingli/share/LiteOS_Lab/network/dtls/mbedtls/mbedtls-2.16.2/library/x509_create.c ****       MBEDTLS_OID_AT_GIVEN_NAME, MBEDTLS_ASN1_UTF8_STRING },
  98:/home/xingli/share/LiteOS_Lab/network/dtls/mbedtls/mbedtls-2.16.2/library/x509_create.c ****     { ADD_STRLEN( "GN" ),
  99:/home/xingli/share/LiteOS_Lab/network/dtls/mbedtls/mbedtls-2.16.2/library/x509_create.c ****       MBEDTLS_OID_AT_GIVEN_NAME, MBEDTLS_ASN1_UTF8_STRING },
 100:/home/xingli/share/LiteOS_Lab/network/dtls/mbedtls/mbedtls-2.16.2/library/x509_create.c ****     { ADD_STRLEN( "initials" ),
 101:/home/xingli/share/LiteOS_Lab/network/dtls/mbedtls/mbedtls-2.16.2/library/x509_create.c ****       MBEDTLS_OID_AT_INITIALS, MBEDTLS_ASN1_UTF8_STRING },
 102:/home/xingli/share/LiteOS_Lab/network/dtls/mbedtls/mbedtls-2.16.2/library/x509_create.c ****     { ADD_STRLEN( "pseudonym" ),
 103:/home/xingli/share/LiteOS_Lab/network/dtls/mbedtls/mbedtls-2.16.2/library/x509_create.c ****       MBEDTLS_OID_AT_PSEUDONYM, MBEDTLS_ASN1_UTF8_STRING },
 104:/home/xingli/share/LiteOS_Lab/network/dtls/mbedtls/mbedtls-2.16.2/library/x509_create.c ****     { ADD_STRLEN( "generationQualifier" ),
 105:/home/xingli/share/LiteOS_Lab/network/dtls/mbedtls/mbedtls-2.16.2/library/x509_create.c ****       MBEDTLS_OID_AT_GENERATION_QUALIFIER, MBEDTLS_ASN1_UTF8_STRING },
 106:/home/xingli/share/LiteOS_Lab/network/dtls/mbedtls/mbedtls-2.16.2/library/x509_create.c ****     { ADD_STRLEN( "domainComponent" ),
 107:/home/xingli/share/LiteOS_Lab/network/dtls/mbedtls/mbedtls-2.16.2/library/x509_create.c ****       MBEDTLS_OID_DOMAIN_COMPONENT, MBEDTLS_ASN1_IA5_STRING },
 108:/home/xingli/share/LiteOS_Lab/network/dtls/mbedtls/mbedtls-2.16.2/library/x509_create.c ****     { ADD_STRLEN( "DC" ),
 109:/home/xingli/share/LiteOS_Lab/network/dtls/mbedtls/mbedtls-2.16.2/library/x509_create.c ****       MBEDTLS_OID_DOMAIN_COMPONENT,   MBEDTLS_ASN1_IA5_STRING },
 110:/home/xingli/share/LiteOS_Lab/network/dtls/mbedtls/mbedtls-2.16.2/library/x509_create.c ****     { NULL, 0, NULL, MBEDTLS_ASN1_NULL }
 111:/home/xingli/share/LiteOS_Lab/network/dtls/mbedtls/mbedtls-2.16.2/library/x509_create.c **** };
 112:/home/xingli/share/LiteOS_Lab/network/dtls/mbedtls/mbedtls-2.16.2/library/x509_create.c **** 
 113:/home/xingli/share/LiteOS_Lab/network/dtls/mbedtls/mbedtls-2.16.2/library/x509_create.c **** static const x509_attr_descriptor_t *x509_attr_descr_from_name( const char *name, size_t name_len )
 114:/home/xingli/share/LiteOS_Lab/network/dtls/mbedtls/mbedtls-2.16.2/library/x509_create.c **** {
 252              		.loc 1 114 1
 253              		.cfi_startproc
 254 0000 F30F1EFA 		endbr64
 255 0004 55       		pushq	%rbp
 256              	.LCFI0:
 257              		.cfi_def_cfa_offset 16
 258              		.cfi_offset 6, -16
 259 0005 4889E5   		movq	%rsp, %rbp
 260              	.LCFI1:
 261              		.cfi_def_cfa_register 6
 262 0008 4883EC20 		subq	$32, %rsp
 263 000c 48897DE8 		movq	%rdi, -24(%rbp)
 264 0010 488975E0 		movq	%rsi, -32(%rbp)
 265              		.loc 1 114 1
GAS LISTING /tmp/cckLzPk8.s 			page 10


 266 0014 64488B04 		movq	%fs:40, %rax
 266      25280000 
 266      00
 267 001d 488945F8 		movq	%rax, -8(%rbp)
 268 0021 31C0     		xorl	%eax, %eax
 115:/home/xingli/share/LiteOS_Lab/network/dtls/mbedtls/mbedtls-2.16.2/library/x509_create.c ****     const x509_attr_descriptor_t *cur;
 116:/home/xingli/share/LiteOS_Lab/network/dtls/mbedtls/mbedtls-2.16.2/library/x509_create.c **** 
 117:/home/xingli/share/LiteOS_Lab/network/dtls/mbedtls/mbedtls-2.16.2/library/x509_create.c ****     for( cur = x509_attrs; cur->name != NULL; cur++ )
 269              		.loc 1 117 14
 270 0023 488D0500 		leaq	x509_attrs(%rip), %rax
 270      000000
 271 002a 488945F0 		movq	%rax, -16(%rbp)
 272              		.loc 1 117 5
 273 002e EB31     		jmp	.L2
 274              	.L5:
 118:/home/xingli/share/LiteOS_Lab/network/dtls/mbedtls/mbedtls-2.16.2/library/x509_create.c ****         if( cur->name_len == name_len &&
 275              		.loc 1 118 16
 276 0030 488B45F0 		movq	-16(%rbp), %rax
 277 0034 488B4008 		movq	8(%rax), %rax
 278              		.loc 1 118 11
 279 0038 483945E0 		cmpq	%rax, -32(%rbp)
 280 003c 751E     		jne	.L3
 119:/home/xingli/share/LiteOS_Lab/network/dtls/mbedtls/mbedtls-2.16.2/library/x509_create.c ****             strncmp( cur->name, name, name_len ) == 0 )
 281              		.loc 1 119 13 discriminator 1
 282 003e 488B45F0 		movq	-16(%rbp), %rax
 283 0042 488B00   		movq	(%rax), %rax
 284 0045 488B55E0 		movq	-32(%rbp), %rdx
 285 0049 488B4DE8 		movq	-24(%rbp), %rcx
 286 004d 4889CE   		movq	%rcx, %rsi
 287 0050 4889C7   		movq	%rax, %rdi
 288 0053 E8000000 		call	strncmp@PLT
 288      00
 118:/home/xingli/share/LiteOS_Lab/network/dtls/mbedtls/mbedtls-2.16.2/library/x509_create.c ****         if( cur->name_len == name_len &&
 289              		.loc 1 118 39 discriminator 1
 290 0058 85C0     		testl	%eax, %eax
 291 005a 7413     		je	.L9
 292              	.L3:
 117:/home/xingli/share/LiteOS_Lab/network/dtls/mbedtls/mbedtls-2.16.2/library/x509_create.c ****         if( cur->name_len == name_len &&
 293              		.loc 1 117 50 discriminator 2
 294 005c 488345F0 		addq	$32, -16(%rbp)
 294      20
 295              	.L2:
 117:/home/xingli/share/LiteOS_Lab/network/dtls/mbedtls/mbedtls-2.16.2/library/x509_create.c ****         if( cur->name_len == name_len &&
 296              		.loc 1 117 31 discriminator 1
 297 0061 488B45F0 		movq	-16(%rbp), %rax
 298 0065 488B00   		movq	(%rax), %rax
 117:/home/xingli/share/LiteOS_Lab/network/dtls/mbedtls/mbedtls-2.16.2/library/x509_create.c ****         if( cur->name_len == name_len &&
 299              		.loc 1 117 5 discriminator 1
 300 0068 4885C0   		testq	%rax, %rax
 301 006b 75C3     		jne	.L5
 302 006d EB01     		jmp	.L4
 303              	.L9:
 120:/home/xingli/share/LiteOS_Lab/network/dtls/mbedtls/mbedtls-2.16.2/library/x509_create.c ****             break;
 304              		.loc 1 120 13
 305 006f 90       		nop
 306              	.L4:
 121:/home/xingli/share/LiteOS_Lab/network/dtls/mbedtls/mbedtls-2.16.2/library/x509_create.c **** 
GAS LISTING /tmp/cckLzPk8.s 			page 11


 122:/home/xingli/share/LiteOS_Lab/network/dtls/mbedtls/mbedtls-2.16.2/library/x509_create.c ****     if ( cur->name == NULL )
 307              		.loc 1 122 13
 308 0070 488B45F0 		movq	-16(%rbp), %rax
 309 0074 488B00   		movq	(%rax), %rax
 310              		.loc 1 122 8
 311 0077 4885C0   		testq	%rax, %rax
 312 007a 7507     		jne	.L6
 123:/home/xingli/share/LiteOS_Lab/network/dtls/mbedtls/mbedtls-2.16.2/library/x509_create.c ****         return( NULL );
 313              		.loc 1 123 15
 314 007c B8000000 		movl	$0, %eax
 314      00
 315 0081 EB04     		jmp	.L7
 316              	.L6:
 124:/home/xingli/share/LiteOS_Lab/network/dtls/mbedtls/mbedtls-2.16.2/library/x509_create.c **** 
 125:/home/xingli/share/LiteOS_Lab/network/dtls/mbedtls/mbedtls-2.16.2/library/x509_create.c ****     return( cur );
 317              		.loc 1 125 11
 318 0083 488B45F0 		movq	-16(%rbp), %rax
 319              	.L7:
 126:/home/xingli/share/LiteOS_Lab/network/dtls/mbedtls/mbedtls-2.16.2/library/x509_create.c **** }
 320              		.loc 1 126 1
 321 0087 488B4DF8 		movq	-8(%rbp), %rcx
 322 008b 6448330C 		xorq	%fs:40, %rcx
 322      25280000 
 322      00
 323 0094 7405     		je	.L8
 324 0096 E8000000 		call	__stack_chk_fail@PLT
 324      00
 325              	.L8:
 326 009b C9       		leave
 327              	.LCFI2:
 328              		.cfi_def_cfa 7, 8
 329 009c C3       		ret
 330              		.cfi_endproc
 331              	.LFE10:
 333              		.section	.text.mbedtls_x509_string_to_names,"ax",@progbits
 334              		.globl	mbedtls_x509_string_to_names
 336              	mbedtls_x509_string_to_names:
 337              	.LFB11:
 127:/home/xingli/share/LiteOS_Lab/network/dtls/mbedtls/mbedtls-2.16.2/library/x509_create.c **** 
 128:/home/xingli/share/LiteOS_Lab/network/dtls/mbedtls/mbedtls-2.16.2/library/x509_create.c **** int mbedtls_x509_string_to_names( mbedtls_asn1_named_data **head, const char *name )
 129:/home/xingli/share/LiteOS_Lab/network/dtls/mbedtls/mbedtls-2.16.2/library/x509_create.c **** {
 338              		.loc 1 129 1
 339              		.cfi_startproc
 340 0000 F30F1EFA 		endbr64
 341 0004 55       		pushq	%rbp
 342              	.LCFI3:
 343              		.cfi_def_cfa_offset 16
 344              		.cfi_offset 6, -16
 345 0005 4889E5   		movq	%rsp, %rbp
 346              	.LCFI4:
 347              		.cfi_def_cfa_register 6
 348 0008 53       		pushq	%rbx
 349 0009 4881EC68 		subq	$360, %rsp
 349      010000
 350              		.cfi_offset 3, -24
 351 0010 4889BD98 		movq	%rdi, -360(%rbp)
 351      FEFFFF
GAS LISTING /tmp/cckLzPk8.s 			page 12


 352 0017 4889B590 		movq	%rsi, -368(%rbp)
 352      FEFFFF
 353              		.loc 1 129 1
 354 001e 64488B04 		movq	%fs:40, %rax
 354      25280000 
 354      00
 355 0027 488945E8 		movq	%rax, -24(%rbp)
 356 002b 31C0     		xorl	%eax, %eax
 130:/home/xingli/share/LiteOS_Lab/network/dtls/mbedtls/mbedtls-2.16.2/library/x509_create.c ****     int ret = 0;
 357              		.loc 1 130 9
 358 002d C785A0FE 		movl	$0, -352(%rbp)
 358      FFFF0000 
 358      0000
 131:/home/xingli/share/LiteOS_Lab/network/dtls/mbedtls/mbedtls-2.16.2/library/x509_create.c ****     const char *s = name, *c = s;
 359              		.loc 1 131 17
 360 0037 488B8590 		movq	-368(%rbp), %rax
 360      FEFFFF
 361 003e 488985A8 		movq	%rax, -344(%rbp)
 361      FEFFFF
 362              		.loc 1 131 28
 363 0045 488B85A8 		movq	-344(%rbp), %rax
 363      FEFFFF
 364 004c 488985B0 		movq	%rax, -336(%rbp)
 364      FEFFFF
 132:/home/xingli/share/LiteOS_Lab/network/dtls/mbedtls/mbedtls-2.16.2/library/x509_create.c ****     const char *end = s + strlen( s );
 365              		.loc 1 132 27
 366 0053 488B85A8 		movq	-344(%rbp), %rax
 366      FEFFFF
 367 005a 4889C7   		movq	%rax, %rdi
 368 005d E8000000 		call	strlen@PLT
 368      00
 369              		.loc 1 132 17
 370 0062 488B95A8 		movq	-344(%rbp), %rdx
 370      FEFFFF
 371 0069 4801D0   		addq	%rdx, %rax
 372 006c 488985D0 		movq	%rax, -304(%rbp)
 372      FEFFFF
 133:/home/xingli/share/LiteOS_Lab/network/dtls/mbedtls/mbedtls-2.16.2/library/x509_create.c ****     const char *oid = NULL;
 373              		.loc 1 133 17
 374 0073 48C785B8 		movq	$0, -328(%rbp)
 374      FEFFFF00 
 374      000000
 134:/home/xingli/share/LiteOS_Lab/network/dtls/mbedtls/mbedtls-2.16.2/library/x509_create.c ****     const x509_attr_descriptor_t* attr_descr = NULL;
 375              		.loc 1 134 35
 376 007e 48C785C0 		movq	$0, -320(%rbp)
 376      FEFFFF00 
 376      000000
 135:/home/xingli/share/LiteOS_Lab/network/dtls/mbedtls/mbedtls-2.16.2/library/x509_create.c ****     int in_tag = 1;
 377              		.loc 1 135 9
 378 0089 C785A4FE 		movl	$1, -348(%rbp)
 378      FFFF0100 
 378      0000
 136:/home/xingli/share/LiteOS_Lab/network/dtls/mbedtls/mbedtls-2.16.2/library/x509_create.c ****     char data[MBEDTLS_X509_MAX_DN_NAME_SIZE];
 137:/home/xingli/share/LiteOS_Lab/network/dtls/mbedtls/mbedtls-2.16.2/library/x509_create.c ****     char *d = data;
 379              		.loc 1 137 11
 380 0093 488D85E0 		leaq	-288(%rbp), %rax
 380      FEFFFF
GAS LISTING /tmp/cckLzPk8.s 			page 13


 381 009a 488985C8 		movq	%rax, -312(%rbp)
 381      FEFFFF
 138:/home/xingli/share/LiteOS_Lab/network/dtls/mbedtls/mbedtls-2.16.2/library/x509_create.c **** 
 139:/home/xingli/share/LiteOS_Lab/network/dtls/mbedtls/mbedtls-2.16.2/library/x509_create.c ****     /* Clear existing chain if present */
 140:/home/xingli/share/LiteOS_Lab/network/dtls/mbedtls/mbedtls-2.16.2/library/x509_create.c ****     mbedtls_asn1_free_named_data_list( head );
 382              		.loc 1 140 5
 383 00a1 488B8598 		movq	-360(%rbp), %rax
 383      FEFFFF
 384 00a8 4889C7   		movq	%rax, %rdi
 385 00ab E8000000 		call	mbedtls_asn1_free_named_data_list@PLT
 385      00
 141:/home/xingli/share/LiteOS_Lab/network/dtls/mbedtls/mbedtls-2.16.2/library/x509_create.c **** 
 142:/home/xingli/share/LiteOS_Lab/network/dtls/mbedtls/mbedtls-2.16.2/library/x509_create.c ****     while( c <= end )
 386              		.loc 1 142 10
 387 00b0 E95D0200 		jmp	.L11
 387      00
 388              	.L26:
 143:/home/xingli/share/LiteOS_Lab/network/dtls/mbedtls/mbedtls-2.16.2/library/x509_create.c ****     {
 144:/home/xingli/share/LiteOS_Lab/network/dtls/mbedtls/mbedtls-2.16.2/library/x509_create.c ****         if( in_tag && *c == '=' )
 389              		.loc 1 144 11
 390 00b5 83BDA4FE 		cmpl	$0, -348(%rbp)
 390      FFFF00
 391 00bc 0F848D00 		je	.L12
 391      0000
 392              		.loc 1 144 23 discriminator 1
 393 00c2 488B85B0 		movq	-336(%rbp), %rax
 393      FEFFFF
 394 00c9 0FB600   		movzbl	(%rax), %eax
 395              		.loc 1 144 20 discriminator 1
 396 00cc 3C3D     		cmpb	$61, %al
 397 00ce 757F     		jne	.L12
 145:/home/xingli/share/LiteOS_Lab/network/dtls/mbedtls/mbedtls-2.16.2/library/x509_create.c ****         {
 146:/home/xingli/share/LiteOS_Lab/network/dtls/mbedtls/mbedtls-2.16.2/library/x509_create.c ****             if( ( attr_descr = x509_attr_descr_from_name( s, c - s ) ) == NULL )
 398              		.loc 1 146 64
 399 00d0 488B85B0 		movq	-336(%rbp), %rax
 399      FEFFFF
 400 00d7 482B85A8 		subq	-344(%rbp), %rax
 400      FEFFFF
 401              		.loc 1 146 32
 402 00de 4889C2   		movq	%rax, %rdx
 403 00e1 488B85A8 		movq	-344(%rbp), %rax
 403      FEFFFF
 404 00e8 4889D6   		movq	%rdx, %rsi
 405 00eb 4889C7   		movq	%rax, %rdi
 406 00ee E8000000 		call	x509_attr_descr_from_name
 406      00
 407 00f3 488985C0 		movq	%rax, -320(%rbp)
 407      FEFFFF
 408              		.loc 1 146 15
 409 00fa 4883BDC0 		cmpq	$0, -320(%rbp)
 409      FEFFFF00 
 410 0102 750F     		jne	.L13
 147:/home/xingli/share/LiteOS_Lab/network/dtls/mbedtls/mbedtls-2.16.2/library/x509_create.c ****             {
 148:/home/xingli/share/LiteOS_Lab/network/dtls/mbedtls/mbedtls-2.16.2/library/x509_create.c ****                 ret = MBEDTLS_ERR_X509_UNKNOWN_OID;
 411              		.loc 1 148 21
 412 0104 C785A0FE 		movl	$-8448, -352(%rbp)
 412      FFFF00DF 
GAS LISTING /tmp/cckLzPk8.s 			page 14


 412      FFFF
 149:/home/xingli/share/LiteOS_Lab/network/dtls/mbedtls/mbedtls-2.16.2/library/x509_create.c ****                 goto exit;
 413              		.loc 1 149 17
 414 010e E9140200 		jmp	.L14
 414      00
 415              	.L13:
 150:/home/xingli/share/LiteOS_Lab/network/dtls/mbedtls/mbedtls-2.16.2/library/x509_create.c ****             }
 151:/home/xingli/share/LiteOS_Lab/network/dtls/mbedtls/mbedtls-2.16.2/library/x509_create.c **** 
 152:/home/xingli/share/LiteOS_Lab/network/dtls/mbedtls/mbedtls-2.16.2/library/x509_create.c ****             oid = attr_descr->oid;
 416              		.loc 1 152 17
 417 0113 488B85C0 		movq	-320(%rbp), %rax
 417      FEFFFF
 418 011a 488B4010 		movq	16(%rax), %rax
 419 011e 488985B8 		movq	%rax, -328(%rbp)
 419      FEFFFF
 153:/home/xingli/share/LiteOS_Lab/network/dtls/mbedtls/mbedtls-2.16.2/library/x509_create.c ****             s = c + 1;
 420              		.loc 1 153 15
 421 0125 488B85B0 		movq	-336(%rbp), %rax
 421      FEFFFF
 422 012c 4883C001 		addq	$1, %rax
 423 0130 488985A8 		movq	%rax, -344(%rbp)
 423      FEFFFF
 154:/home/xingli/share/LiteOS_Lab/network/dtls/mbedtls/mbedtls-2.16.2/library/x509_create.c ****             in_tag = 0;
 424              		.loc 1 154 20
 425 0137 C785A4FE 		movl	$0, -348(%rbp)
 425      FFFF0000 
 425      0000
 155:/home/xingli/share/LiteOS_Lab/network/dtls/mbedtls/mbedtls-2.16.2/library/x509_create.c ****             d = data;
 426              		.loc 1 155 15
 427 0141 488D85E0 		leaq	-288(%rbp), %rax
 427      FEFFFF
 428 0148 488985C8 		movq	%rax, -312(%rbp)
 428      FEFFFF
 429              	.L12:
 156:/home/xingli/share/LiteOS_Lab/network/dtls/mbedtls/mbedtls-2.16.2/library/x509_create.c ****         }
 157:/home/xingli/share/LiteOS_Lab/network/dtls/mbedtls/mbedtls-2.16.2/library/x509_create.c **** 
 158:/home/xingli/share/LiteOS_Lab/network/dtls/mbedtls/mbedtls-2.16.2/library/x509_create.c ****         if( !in_tag && *c == '\\' && c != end )
 430              		.loc 1 158 11
 431 014f 83BDA4FE 		cmpl	$0, -348(%rbp)
 431      FFFF00
 432 0156 7557     		jne	.L15
 433              		.loc 1 158 24 discriminator 1
 434 0158 488B85B0 		movq	-336(%rbp), %rax
 434      FEFFFF
 435 015f 0FB600   		movzbl	(%rax), %eax
 436              		.loc 1 158 21 discriminator 1
 437 0162 3C5C     		cmpb	$92, %al
 438 0164 7549     		jne	.L15
 439              		.loc 1 158 35 discriminator 2
 440 0166 488B85B0 		movq	-336(%rbp), %rax
 440      FEFFFF
 441 016d 483B85D0 		cmpq	-304(%rbp), %rax
 441      FEFFFF
 442 0174 7439     		je	.L15
 159:/home/xingli/share/LiteOS_Lab/network/dtls/mbedtls/mbedtls-2.16.2/library/x509_create.c ****         {
 160:/home/xingli/share/LiteOS_Lab/network/dtls/mbedtls/mbedtls-2.16.2/library/x509_create.c ****             c++;
 443              		.loc 1 160 14
GAS LISTING /tmp/cckLzPk8.s 			page 15


 444 0176 488385B0 		addq	$1, -336(%rbp)
 444      FEFFFF01 
 161:/home/xingli/share/LiteOS_Lab/network/dtls/mbedtls/mbedtls-2.16.2/library/x509_create.c **** 
 162:/home/xingli/share/LiteOS_Lab/network/dtls/mbedtls/mbedtls-2.16.2/library/x509_create.c ****             /* Check for valid escaped characters */
 163:/home/xingli/share/LiteOS_Lab/network/dtls/mbedtls/mbedtls-2.16.2/library/x509_create.c ****             if( c == end || *c != ',' )
 445              		.loc 1 163 15
 446 017e 488B85B0 		movq	-336(%rbp), %rax
 446      FEFFFF
 447 0185 483B85D0 		cmpq	-304(%rbp), %rax
 447      FEFFFF
 448 018c 7412     		je	.L16
 449              		.loc 1 163 29 discriminator 1
 450 018e 488B85B0 		movq	-336(%rbp), %rax
 450      FEFFFF
 451 0195 0FB600   		movzbl	(%rax), %eax
 452              		.loc 1 163 26 discriminator 1
 453 0198 3C2C     		cmpb	$44, %al
 454 019a 0F840601 		je	.L29
 454      0000
 455              	.L16:
 164:/home/xingli/share/LiteOS_Lab/network/dtls/mbedtls/mbedtls-2.16.2/library/x509_create.c ****             {
 165:/home/xingli/share/LiteOS_Lab/network/dtls/mbedtls/mbedtls-2.16.2/library/x509_create.c ****                 ret = MBEDTLS_ERR_X509_INVALID_NAME;
 456              		.loc 1 165 21
 457 01a0 C785A0FE 		movl	$-9088, -352(%rbp)
 457      FFFF80DC 
 457      FFFF
 166:/home/xingli/share/LiteOS_Lab/network/dtls/mbedtls/mbedtls-2.16.2/library/x509_create.c ****                 goto exit;
 458              		.loc 1 166 17
 459 01aa E9780100 		jmp	.L14
 459      00
 460              	.L15:
 167:/home/xingli/share/LiteOS_Lab/network/dtls/mbedtls/mbedtls-2.16.2/library/x509_create.c ****             }
 168:/home/xingli/share/LiteOS_Lab/network/dtls/mbedtls/mbedtls-2.16.2/library/x509_create.c ****         }
 169:/home/xingli/share/LiteOS_Lab/network/dtls/mbedtls/mbedtls-2.16.2/library/x509_create.c ****         else if( !in_tag && ( *c == ',' || c == end ) )
 461              		.loc 1 169 16
 462 01af 83BDA4FE 		cmpl	$0, -348(%rbp)
 462      FFFF00
 463 01b6 0F85EB00 		jne	.L18
 463      0000
 464              		.loc 1 169 31 discriminator 1
 465 01bc 488B85B0 		movq	-336(%rbp), %rax
 465      FEFFFF
 466 01c3 0FB600   		movzbl	(%rax), %eax
 467              		.loc 1 169 26 discriminator 1
 468 01c6 3C2C     		cmpb	$44, %al
 469 01c8 7414     		je	.L19
 470              		.loc 1 169 41 discriminator 2
 471 01ca 488B85B0 		movq	-336(%rbp), %rax
 471      FEFFFF
 472 01d1 483B85D0 		cmpq	-304(%rbp), %rax
 472      FEFFFF
 473 01d8 0F85C900 		jne	.L18
 473      0000
 474              	.L19:
 475              	.LBB2:
 170:/home/xingli/share/LiteOS_Lab/network/dtls/mbedtls/mbedtls-2.16.2/library/x509_create.c ****         {
 171:/home/xingli/share/LiteOS_Lab/network/dtls/mbedtls/mbedtls-2.16.2/library/x509_create.c ****             mbedtls_asn1_named_data* cur =
GAS LISTING /tmp/cckLzPk8.s 			page 16


 172:/home/xingli/share/LiteOS_Lab/network/dtls/mbedtls/mbedtls-2.16.2/library/x509_create.c ****                 mbedtls_asn1_store_named_data( head, oid, strlen( oid ),
 173:/home/xingli/share/LiteOS_Lab/network/dtls/mbedtls/mbedtls-2.16.2/library/x509_create.c ****                                                (unsigned char *) data,
 174:/home/xingli/share/LiteOS_Lab/network/dtls/mbedtls/mbedtls-2.16.2/library/x509_create.c ****                                                d - data );
 476              		.loc 1 174 50
 477 01de 488D85E0 		leaq	-288(%rbp), %rax
 477      FEFFFF
 478 01e5 488B95C8 		movq	-312(%rbp), %rdx
 478      FEFFFF
 479 01ec 4829C2   		subq	%rax, %rdx
 480 01ef 4889D0   		movq	%rdx, %rax
 172:/home/xingli/share/LiteOS_Lab/network/dtls/mbedtls/mbedtls-2.16.2/library/x509_create.c ****                                                (unsigned char *) data,
 481              		.loc 1 172 17
 482 01f2 4889C3   		movq	%rax, %rbx
 483 01f5 488B85B8 		movq	-328(%rbp), %rax
 483      FEFFFF
 484 01fc 4889C7   		movq	%rax, %rdi
 485 01ff E8000000 		call	strlen@PLT
 485      00
 486 0204 4889C7   		movq	%rax, %rdi
 487 0207 488D95E0 		leaq	-288(%rbp), %rdx
 487      FEFFFF
 488 020e 488BB5B8 		movq	-328(%rbp), %rsi
 488      FEFFFF
 489 0215 488B8598 		movq	-360(%rbp), %rax
 489      FEFFFF
 490 021c 4989D8   		movq	%rbx, %r8
 491 021f 4889D1   		movq	%rdx, %rcx
 492 0222 4889FA   		movq	%rdi, %rdx
 493 0225 4889C7   		movq	%rax, %rdi
 494 0228 E8000000 		call	mbedtls_asn1_store_named_data@PLT
 494      00
 495 022d 488985D8 		movq	%rax, -296(%rbp)
 495      FEFFFF
 175:/home/xingli/share/LiteOS_Lab/network/dtls/mbedtls/mbedtls-2.16.2/library/x509_create.c **** 
 176:/home/xingli/share/LiteOS_Lab/network/dtls/mbedtls/mbedtls-2.16.2/library/x509_create.c ****             if(cur == NULL )
 496              		.loc 1 176 15
 497 0234 4883BDD8 		cmpq	$0, -296(%rbp)
 497      FEFFFF00 
 498 023c 750A     		jne	.L20
 177:/home/xingli/share/LiteOS_Lab/network/dtls/mbedtls/mbedtls-2.16.2/library/x509_create.c ****             {
 178:/home/xingli/share/LiteOS_Lab/network/dtls/mbedtls/mbedtls-2.16.2/library/x509_create.c ****                 return( MBEDTLS_ERR_X509_ALLOC_FAILED );
 499              		.loc 1 178 23
 500 023e B880D7FF 		movl	$-10368, %eax
 500      FF
 501 0243 E9E50000 		jmp	.L27
 501      00
 502              	.L20:
 179:/home/xingli/share/LiteOS_Lab/network/dtls/mbedtls/mbedtls-2.16.2/library/x509_create.c ****             }
 180:/home/xingli/share/LiteOS_Lab/network/dtls/mbedtls/mbedtls-2.16.2/library/x509_create.c **** 
 181:/home/xingli/share/LiteOS_Lab/network/dtls/mbedtls/mbedtls-2.16.2/library/x509_create.c ****             // set tagType
 182:/home/xingli/share/LiteOS_Lab/network/dtls/mbedtls/mbedtls-2.16.2/library/x509_create.c ****             cur->val.tag = attr_descr->default_tag;
 503              		.loc 1 182 38
 504 0248 488B85C0 		movq	-320(%rbp), %rax
 504      FEFFFF
 505 024f 8B5018   		movl	24(%rax), %edx
 506              		.loc 1 182 26
 507 0252 488B85D8 		movq	-296(%rbp), %rax
GAS LISTING /tmp/cckLzPk8.s 			page 17


 507      FEFFFF
 508 0259 895018   		movl	%edx, 24(%rax)
 183:/home/xingli/share/LiteOS_Lab/network/dtls/mbedtls/mbedtls-2.16.2/library/x509_create.c **** 
 184:/home/xingli/share/LiteOS_Lab/network/dtls/mbedtls/mbedtls-2.16.2/library/x509_create.c ****             while( c < end && *(c + 1) == ' ' )
 509              		.loc 1 184 18
 510 025c EB08     		jmp	.L22
 511              	.L24:
 185:/home/xingli/share/LiteOS_Lab/network/dtls/mbedtls/mbedtls-2.16.2/library/x509_create.c ****                 c++;
 512              		.loc 1 185 18
 513 025e 488385B0 		addq	$1, -336(%rbp)
 513      FEFFFF01 
 514              	.L22:
 184:/home/xingli/share/LiteOS_Lab/network/dtls/mbedtls/mbedtls-2.16.2/library/x509_create.c ****                 c++;
 515              		.loc 1 184 18
 516 0266 488B85B0 		movq	-336(%rbp), %rax
 516      FEFFFF
 517 026d 483B85D0 		cmpq	-304(%rbp), %rax
 517      FEFFFF
 518 0274 7312     		jnb	.L23
 184:/home/xingli/share/LiteOS_Lab/network/dtls/mbedtls/mbedtls-2.16.2/library/x509_create.c ****                 c++;
 519              		.loc 1 184 35 discriminator 1
 520 0276 488B85B0 		movq	-336(%rbp), %rax
 520      FEFFFF
 521 027d 4883C001 		addq	$1, %rax
 184:/home/xingli/share/LiteOS_Lab/network/dtls/mbedtls/mbedtls-2.16.2/library/x509_create.c ****                 c++;
 522              		.loc 1 184 31 discriminator 1
 523 0281 0FB600   		movzbl	(%rax), %eax
 184:/home/xingli/share/LiteOS_Lab/network/dtls/mbedtls/mbedtls-2.16.2/library/x509_create.c ****                 c++;
 524              		.loc 1 184 28 discriminator 1
 525 0284 3C20     		cmpb	$32, %al
 526 0286 74D6     		je	.L24
 527              	.L23:
 186:/home/xingli/share/LiteOS_Lab/network/dtls/mbedtls/mbedtls-2.16.2/library/x509_create.c **** 
 187:/home/xingli/share/LiteOS_Lab/network/dtls/mbedtls/mbedtls-2.16.2/library/x509_create.c ****             s = c + 1;
 528              		.loc 1 187 15
 529 0288 488B85B0 		movq	-336(%rbp), %rax
 529      FEFFFF
 530 028f 4883C001 		addq	$1, %rax
 531 0293 488985A8 		movq	%rax, -344(%rbp)
 531      FEFFFF
 188:/home/xingli/share/LiteOS_Lab/network/dtls/mbedtls/mbedtls-2.16.2/library/x509_create.c ****             in_tag = 1;
 532              		.loc 1 188 20
 533 029a C785A4FE 		movl	$1, -348(%rbp)
 533      FFFF0100 
 533      0000
 534 02a4 EB01     		jmp	.L18
 535              	.L29:
 536              	.LBE2:
 163:/home/xingli/share/LiteOS_Lab/network/dtls/mbedtls/mbedtls-2.16.2/library/x509_create.c ****             {
 537              		.loc 1 163 15
 538 02a6 90       		nop
 539              	.L18:
 189:/home/xingli/share/LiteOS_Lab/network/dtls/mbedtls/mbedtls-2.16.2/library/x509_create.c ****         }
 190:/home/xingli/share/LiteOS_Lab/network/dtls/mbedtls/mbedtls-2.16.2/library/x509_create.c **** 
 191:/home/xingli/share/LiteOS_Lab/network/dtls/mbedtls/mbedtls-2.16.2/library/x509_create.c ****         if( !in_tag && s != c + 1 )
 540              		.loc 1 191 11
 541 02a7 83BDA4FE 		cmpl	$0, -348(%rbp)
GAS LISTING /tmp/cckLzPk8.s 			page 18


 541      FFFF00
 542 02ae 755A     		jne	.L25
 543              		.loc 1 191 31 discriminator 1
 544 02b0 488B85B0 		movq	-336(%rbp), %rax
 544      FEFFFF
 545 02b7 4883C001 		addq	$1, %rax
 546              		.loc 1 191 21 discriminator 1
 547 02bb 483985A8 		cmpq	%rax, -344(%rbp)
 547      FEFFFF
 548 02c2 7446     		je	.L25
 192:/home/xingli/share/LiteOS_Lab/network/dtls/mbedtls/mbedtls-2.16.2/library/x509_create.c ****         {
 193:/home/xingli/share/LiteOS_Lab/network/dtls/mbedtls/mbedtls-2.16.2/library/x509_create.c ****             *(d++) = *c;
 549              		.loc 1 193 16
 550 02c4 488B85C8 		movq	-312(%rbp), %rax
 550      FEFFFF
 551 02cb 488D5001 		leaq	1(%rax), %rdx
 552 02cf 488995C8 		movq	%rdx, -312(%rbp)
 552      FEFFFF
 553              		.loc 1 193 22
 554 02d6 488B95B0 		movq	-336(%rbp), %rdx
 554      FEFFFF
 555 02dd 0FB612   		movzbl	(%rdx), %edx
 556              		.loc 1 193 20
 557 02e0 8810     		movb	%dl, (%rax)
 194:/home/xingli/share/LiteOS_Lab/network/dtls/mbedtls/mbedtls-2.16.2/library/x509_create.c **** 
 195:/home/xingli/share/LiteOS_Lab/network/dtls/mbedtls/mbedtls-2.16.2/library/x509_create.c ****             if( d - data == MBEDTLS_X509_MAX_DN_NAME_SIZE )
 558              		.loc 1 195 19
 559 02e2 488D85E0 		leaq	-288(%rbp), %rax
 559      FEFFFF
 560 02e9 488B95C8 		movq	-312(%rbp), %rdx
 560      FEFFFF
 561 02f0 4829C2   		subq	%rax, %rdx
 562 02f3 4889D0   		movq	%rdx, %rax
 563              		.loc 1 195 15
 564 02f6 483D0001 		cmpq	$256, %rax
 564      0000
 565 02fc 750C     		jne	.L25
 196:/home/xingli/share/LiteOS_Lab/network/dtls/mbedtls/mbedtls-2.16.2/library/x509_create.c ****             {
 197:/home/xingli/share/LiteOS_Lab/network/dtls/mbedtls/mbedtls-2.16.2/library/x509_create.c ****                 ret = MBEDTLS_ERR_X509_INVALID_NAME;
 566              		.loc 1 197 21
 567 02fe C785A0FE 		movl	$-9088, -352(%rbp)
 567      FFFF80DC 
 567      FFFF
 198:/home/xingli/share/LiteOS_Lab/network/dtls/mbedtls/mbedtls-2.16.2/library/x509_create.c ****                 goto exit;
 568              		.loc 1 198 17
 569 0308 EB1D     		jmp	.L14
 570              	.L25:
 199:/home/xingli/share/LiteOS_Lab/network/dtls/mbedtls/mbedtls-2.16.2/library/x509_create.c ****             }
 200:/home/xingli/share/LiteOS_Lab/network/dtls/mbedtls/mbedtls-2.16.2/library/x509_create.c ****         }
 201:/home/xingli/share/LiteOS_Lab/network/dtls/mbedtls/mbedtls-2.16.2/library/x509_create.c **** 
 202:/home/xingli/share/LiteOS_Lab/network/dtls/mbedtls/mbedtls-2.16.2/library/x509_create.c ****         c++;
 571              		.loc 1 202 10
 572 030a 488385B0 		addq	$1, -336(%rbp)
 572      FEFFFF01 
 573              	.L11:
 142:/home/xingli/share/LiteOS_Lab/network/dtls/mbedtls/mbedtls-2.16.2/library/x509_create.c ****     {
 574              		.loc 1 142 10
GAS LISTING /tmp/cckLzPk8.s 			page 19


 575 0312 488B85B0 		movq	-336(%rbp), %rax
 575      FEFFFF
 576 0319 483B85D0 		cmpq	-304(%rbp), %rax
 576      FEFFFF
 577 0320 0F868FFD 		jbe	.L26
 577      FFFF
 203:/home/xingli/share/LiteOS_Lab/network/dtls/mbedtls/mbedtls-2.16.2/library/x509_create.c ****     }
 204:/home/xingli/share/LiteOS_Lab/network/dtls/mbedtls/mbedtls-2.16.2/library/x509_create.c **** 
 205:/home/xingli/share/LiteOS_Lab/network/dtls/mbedtls/mbedtls-2.16.2/library/x509_create.c **** exit:
 578              		.loc 1 205 1
 579 0326 90       		nop
 580              	.L14:
 206:/home/xingli/share/LiteOS_Lab/network/dtls/mbedtls/mbedtls-2.16.2/library/x509_create.c **** 
 207:/home/xingli/share/LiteOS_Lab/network/dtls/mbedtls/mbedtls-2.16.2/library/x509_create.c ****     return( ret );
 581              		.loc 1 207 11
 582 0327 8B85A0FE 		movl	-352(%rbp), %eax
 582      FFFF
 583              	.L27:
 208:/home/xingli/share/LiteOS_Lab/network/dtls/mbedtls/mbedtls-2.16.2/library/x509_create.c **** }
 584              		.loc 1 208 1 discriminator 1
 585 032d 488B4DE8 		movq	-24(%rbp), %rcx
 586 0331 6448330C 		xorq	%fs:40, %rcx
 586      25280000 
 586      00
 587 033a 7405     		je	.L28
 588              		.loc 1 208 1 is_stmt 0
 589 033c E8000000 		call	__stack_chk_fail@PLT
 589      00
 590              	.L28:
 591 0341 4881C468 		addq	$360, %rsp
 591      010000
 592 0348 5B       		popq	%rbx
 593 0349 5D       		popq	%rbp
 594              	.LCFI5:
 595              		.cfi_def_cfa 7, 8
 596 034a C3       		ret
 597              		.cfi_endproc
 598              	.LFE11:
 600              		.section	.text.mbedtls_x509_set_extension,"ax",@progbits
 601              		.globl	mbedtls_x509_set_extension
 603              	mbedtls_x509_set_extension:
 604              	.LFB12:
 209:/home/xingli/share/LiteOS_Lab/network/dtls/mbedtls/mbedtls-2.16.2/library/x509_create.c **** 
 210:/home/xingli/share/LiteOS_Lab/network/dtls/mbedtls/mbedtls-2.16.2/library/x509_create.c **** /* The first byte of the value in the mbedtls_asn1_named_data structure is reserved
 211:/home/xingli/share/LiteOS_Lab/network/dtls/mbedtls/mbedtls-2.16.2/library/x509_create.c ****  * to store the critical boolean for us
 212:/home/xingli/share/LiteOS_Lab/network/dtls/mbedtls/mbedtls-2.16.2/library/x509_create.c ****  */
 213:/home/xingli/share/LiteOS_Lab/network/dtls/mbedtls/mbedtls-2.16.2/library/x509_create.c **** int mbedtls_x509_set_extension( mbedtls_asn1_named_data **head, const char *oid, size_t oid_len,
 214:/home/xingli/share/LiteOS_Lab/network/dtls/mbedtls/mbedtls-2.16.2/library/x509_create.c ****                         int critical, const unsigned char *val, size_t val_len )
 215:/home/xingli/share/LiteOS_Lab/network/dtls/mbedtls/mbedtls-2.16.2/library/x509_create.c **** {
 605              		.loc 1 215 1 is_stmt 1
 606              		.cfi_startproc
 607 0000 F30F1EFA 		endbr64
 608 0004 55       		pushq	%rbp
 609              	.LCFI6:
 610              		.cfi_def_cfa_offset 16
 611              		.cfi_offset 6, -16
 612 0005 4889E5   		movq	%rsp, %rbp
GAS LISTING /tmp/cckLzPk8.s 			page 20


 613              	.LCFI7:
 614              		.cfi_def_cfa_register 6
 615 0008 4883EC40 		subq	$64, %rsp
 616 000c 48897DE8 		movq	%rdi, -24(%rbp)
 617 0010 488975E0 		movq	%rsi, -32(%rbp)
 618 0014 488955D8 		movq	%rdx, -40(%rbp)
 619 0018 894DD4   		movl	%ecx, -44(%rbp)
 620 001b 4C8945C8 		movq	%r8, -56(%rbp)
 621 001f 4C894DC0 		movq	%r9, -64(%rbp)
 622              		.loc 1 215 1
 623 0023 64488B04 		movq	%fs:40, %rax
 623      25280000 
 623      00
 624 002c 488945F8 		movq	%rax, -8(%rbp)
 625 0030 31C0     		xorl	%eax, %eax
 216:/home/xingli/share/LiteOS_Lab/network/dtls/mbedtls/mbedtls-2.16.2/library/x509_create.c ****     mbedtls_asn1_named_data *cur;
 217:/home/xingli/share/LiteOS_Lab/network/dtls/mbedtls/mbedtls-2.16.2/library/x509_create.c **** 
 218:/home/xingli/share/LiteOS_Lab/network/dtls/mbedtls/mbedtls-2.16.2/library/x509_create.c ****     if( ( cur = mbedtls_asn1_store_named_data( head, oid, oid_len,
 626              		.loc 1 218 17
 627 0032 488B45C0 		movq	-64(%rbp), %rax
 628 0036 488D4801 		leaq	1(%rax), %rcx
 629 003a 488B55D8 		movq	-40(%rbp), %rdx
 630 003e 488B75E0 		movq	-32(%rbp), %rsi
 631 0042 488B45E8 		movq	-24(%rbp), %rax
 632 0046 4989C8   		movq	%rcx, %r8
 633 0049 B9000000 		movl	$0, %ecx
 633      00
 634 004e 4889C7   		movq	%rax, %rdi
 635 0051 E8000000 		call	mbedtls_asn1_store_named_data@PLT
 635      00
 636 0056 488945F0 		movq	%rax, -16(%rbp)
 637              		.loc 1 218 7
 638 005a 48837DF0 		cmpq	$0, -16(%rbp)
 638      00
 639 005f 7507     		jne	.L31
 219:/home/xingli/share/LiteOS_Lab/network/dtls/mbedtls/mbedtls-2.16.2/library/x509_create.c ****                                        NULL, val_len + 1 ) ) == NULL )
 220:/home/xingli/share/LiteOS_Lab/network/dtls/mbedtls/mbedtls-2.16.2/library/x509_create.c ****     {
 221:/home/xingli/share/LiteOS_Lab/network/dtls/mbedtls/mbedtls-2.16.2/library/x509_create.c ****         return( MBEDTLS_ERR_X509_ALLOC_FAILED );
 640              		.loc 1 221 15
 641 0061 B880D7FF 		movl	$-10368, %eax
 641      FF
 642 0066 EB31     		jmp	.L32
 643              	.L31:
 222:/home/xingli/share/LiteOS_Lab/network/dtls/mbedtls/mbedtls-2.16.2/library/x509_create.c ****     }
 223:/home/xingli/share/LiteOS_Lab/network/dtls/mbedtls/mbedtls-2.16.2/library/x509_create.c **** 
 224:/home/xingli/share/LiteOS_Lab/network/dtls/mbedtls/mbedtls-2.16.2/library/x509_create.c ****     cur->val.p[0] = critical;
 644              		.loc 1 224 13
 645 0068 488B45F0 		movq	-16(%rbp), %rax
 646 006c 488B4028 		movq	40(%rax), %rax
 647              		.loc 1 224 19
 648 0070 8B55D4   		movl	-44(%rbp), %edx
 649 0073 8810     		movb	%dl, (%rax)
 225:/home/xingli/share/LiteOS_Lab/network/dtls/mbedtls/mbedtls-2.16.2/library/x509_create.c ****     memcpy( cur->val.p + 1, val, val_len );
 650              		.loc 1 225 21
 651 0075 488B45F0 		movq	-16(%rbp), %rax
 652 0079 488B4028 		movq	40(%rax), %rax
 653              		.loc 1 225 24
GAS LISTING /tmp/cckLzPk8.s 			page 21


 654 007d 488D4801 		leaq	1(%rax), %rcx
 655              		.loc 1 225 5
 656 0081 488B55C0 		movq	-64(%rbp), %rdx
 657 0085 488B45C8 		movq	-56(%rbp), %rax
 658 0089 4889C6   		movq	%rax, %rsi
 659 008c 4889CF   		movq	%rcx, %rdi
 660 008f E8000000 		call	memcpy@PLT
 660      00
 226:/home/xingli/share/LiteOS_Lab/network/dtls/mbedtls/mbedtls-2.16.2/library/x509_create.c **** 
 227:/home/xingli/share/LiteOS_Lab/network/dtls/mbedtls/mbedtls-2.16.2/library/x509_create.c ****     return( 0 );
 661              		.loc 1 227 11
 662 0094 B8000000 		movl	$0, %eax
 662      00
 663              	.L32:
 228:/home/xingli/share/LiteOS_Lab/network/dtls/mbedtls/mbedtls-2.16.2/library/x509_create.c **** }
 664              		.loc 1 228 1
 665 0099 488B7DF8 		movq	-8(%rbp), %rdi
 666 009d 6448333C 		xorq	%fs:40, %rdi
 666      25280000 
 666      00
 667 00a6 7405     		je	.L33
 668 00a8 E8000000 		call	__stack_chk_fail@PLT
 668      00
 669              	.L33:
 670 00ad C9       		leave
 671              	.LCFI8:
 672              		.cfi_def_cfa 7, 8
 673 00ae C3       		ret
 674              		.cfi_endproc
 675              	.LFE12:
 677              		.section	.text.x509_write_name,"ax",@progbits
 679              	x509_write_name:
 680              	.LFB13:
 229:/home/xingli/share/LiteOS_Lab/network/dtls/mbedtls/mbedtls-2.16.2/library/x509_create.c **** 
 230:/home/xingli/share/LiteOS_Lab/network/dtls/mbedtls/mbedtls-2.16.2/library/x509_create.c **** /*
 231:/home/xingli/share/LiteOS_Lab/network/dtls/mbedtls/mbedtls-2.16.2/library/x509_create.c ****  *  RelativeDistinguishedName ::=
 232:/home/xingli/share/LiteOS_Lab/network/dtls/mbedtls/mbedtls-2.16.2/library/x509_create.c ****  *    SET OF AttributeTypeAndValue
 233:/home/xingli/share/LiteOS_Lab/network/dtls/mbedtls/mbedtls-2.16.2/library/x509_create.c ****  *
 234:/home/xingli/share/LiteOS_Lab/network/dtls/mbedtls/mbedtls-2.16.2/library/x509_create.c ****  *  AttributeTypeAndValue ::= SEQUENCE {
 235:/home/xingli/share/LiteOS_Lab/network/dtls/mbedtls/mbedtls-2.16.2/library/x509_create.c ****  *    type     AttributeType,
 236:/home/xingli/share/LiteOS_Lab/network/dtls/mbedtls/mbedtls-2.16.2/library/x509_create.c ****  *    value    AttributeValue }
 237:/home/xingli/share/LiteOS_Lab/network/dtls/mbedtls/mbedtls-2.16.2/library/x509_create.c ****  *
 238:/home/xingli/share/LiteOS_Lab/network/dtls/mbedtls/mbedtls-2.16.2/library/x509_create.c ****  *  AttributeType ::= OBJECT IDENTIFIER
 239:/home/xingli/share/LiteOS_Lab/network/dtls/mbedtls/mbedtls-2.16.2/library/x509_create.c ****  *
 240:/home/xingli/share/LiteOS_Lab/network/dtls/mbedtls/mbedtls-2.16.2/library/x509_create.c ****  *  AttributeValue ::= ANY DEFINED BY AttributeType
 241:/home/xingli/share/LiteOS_Lab/network/dtls/mbedtls/mbedtls-2.16.2/library/x509_create.c ****  */
 242:/home/xingli/share/LiteOS_Lab/network/dtls/mbedtls/mbedtls-2.16.2/library/x509_create.c **** static int x509_write_name( unsigned char **p, unsigned char *start, mbedtls_asn1_named_data* cur_n
 243:/home/xingli/share/LiteOS_Lab/network/dtls/mbedtls/mbedtls-2.16.2/library/x509_create.c **** {
 681              		.loc 1 243 1
 682              		.cfi_startproc
 683 0000 F30F1EFA 		endbr64
 684 0004 55       		pushq	%rbp
 685              	.LCFI9:
 686              		.cfi_def_cfa_offset 16
 687              		.cfi_offset 6, -16
 688 0005 4889E5   		movq	%rsp, %rbp
 689              	.LCFI10:
GAS LISTING /tmp/cckLzPk8.s 			page 22


 690              		.cfi_def_cfa_register 6
 691 0008 4883EC60 		subq	$96, %rsp
 692 000c 48897DB8 		movq	%rdi, -72(%rbp)
 693 0010 488975B0 		movq	%rsi, -80(%rbp)
 694 0014 488955A8 		movq	%rdx, -88(%rbp)
 695              		.loc 1 243 1
 696 0018 64488B04 		movq	%fs:40, %rax
 696      25280000 
 696      00
 697 0021 488945F8 		movq	%rax, -8(%rbp)
 698 0025 31C0     		xorl	%eax, %eax
 244:/home/xingli/share/LiteOS_Lab/network/dtls/mbedtls/mbedtls-2.16.2/library/x509_create.c ****     int ret;
 245:/home/xingli/share/LiteOS_Lab/network/dtls/mbedtls/mbedtls-2.16.2/library/x509_create.c ****     size_t len = 0;
 699              		.loc 1 245 12
 700 0027 48C745D0 		movq	$0, -48(%rbp)
 700      00000000 
 246:/home/xingli/share/LiteOS_Lab/network/dtls/mbedtls/mbedtls-2.16.2/library/x509_create.c ****     const char *oid             = (const char*)cur_name->oid.p;
 701              		.loc 1 246 17
 702 002f 488B45A8 		movq	-88(%rbp), %rax
 703 0033 488B4010 		movq	16(%rax), %rax
 704 0037 488945D8 		movq	%rax, -40(%rbp)
 247:/home/xingli/share/LiteOS_Lab/network/dtls/mbedtls/mbedtls-2.16.2/library/x509_create.c ****     size_t oid_len              = cur_name->oid.len;
 705              		.loc 1 247 12
 706 003b 488B45A8 		movq	-88(%rbp), %rax
 707 003f 488B4008 		movq	8(%rax), %rax
 708 0043 488945E0 		movq	%rax, -32(%rbp)
 248:/home/xingli/share/LiteOS_Lab/network/dtls/mbedtls/mbedtls-2.16.2/library/x509_create.c ****     const unsigned char *name   = cur_name->val.p;
 709              		.loc 1 248 26
 710 0047 488B45A8 		movq	-88(%rbp), %rax
 711 004b 488B4028 		movq	40(%rax), %rax
 712 004f 488945E8 		movq	%rax, -24(%rbp)
 249:/home/xingli/share/LiteOS_Lab/network/dtls/mbedtls/mbedtls-2.16.2/library/x509_create.c ****     size_t name_len             = cur_name->val.len;
 713              		.loc 1 249 12
 714 0053 488B45A8 		movq	-88(%rbp), %rax
 715 0057 488B4020 		movq	32(%rax), %rax
 716 005b 488945F0 		movq	%rax, -16(%rbp)
 250:/home/xingli/share/LiteOS_Lab/network/dtls/mbedtls/mbedtls-2.16.2/library/x509_create.c **** 
 251:/home/xingli/share/LiteOS_Lab/network/dtls/mbedtls/mbedtls-2.16.2/library/x509_create.c ****     // Write correct string tag and value
 252:/home/xingli/share/LiteOS_Lab/network/dtls/mbedtls/mbedtls-2.16.2/library/x509_create.c ****     MBEDTLS_ASN1_CHK_ADD( len, mbedtls_asn1_write_tagged_string( p, start,
 717              		.loc 1 252 5
 718 005f 488B45A8 		movq	-88(%rbp), %rax
 719 0063 8B5018   		movl	24(%rax), %edx
 720 0066 488B7DF0 		movq	-16(%rbp), %rdi
 721 006a 488B4DE8 		movq	-24(%rbp), %rcx
 722 006e 488B75B0 		movq	-80(%rbp), %rsi
 723 0072 488B45B8 		movq	-72(%rbp), %rax
 724 0076 4989F8   		movq	%rdi, %r8
 725 0079 4889C7   		movq	%rax, %rdi
 726 007c E8000000 		call	mbedtls_asn1_write_tagged_string@PLT
 726      00
 727 0081 8945CC   		movl	%eax, -52(%rbp)
 728 0084 837DCC00 		cmpl	$0, -52(%rbp)
 729 0088 7908     		jns	.L35
 730              		.loc 1 252 5 is_stmt 0 discriminator 1
 731 008a 8B45CC   		movl	-52(%rbp), %eax
 732 008d E9FC0000 		jmp	.L36
 732      00
GAS LISTING /tmp/cckLzPk8.s 			page 23


 733              	.L35:
 734              		.loc 1 252 5 discriminator 2
 735 0092 8B45CC   		movl	-52(%rbp), %eax
 736 0095 4898     		cltq
 737 0097 480145D0 		addq	%rax, -48(%rbp)
 253:/home/xingli/share/LiteOS_Lab/network/dtls/mbedtls/mbedtls-2.16.2/library/x509_create.c ****                                                        cur_name->val.tag,
 254:/home/xingli/share/LiteOS_Lab/network/dtls/mbedtls/mbedtls-2.16.2/library/x509_create.c ****                                                        (const char *) name,
 255:/home/xingli/share/LiteOS_Lab/network/dtls/mbedtls/mbedtls-2.16.2/library/x509_create.c ****                                                        name_len ) );
 256:/home/xingli/share/LiteOS_Lab/network/dtls/mbedtls/mbedtls-2.16.2/library/x509_create.c ****     // Write OID
 257:/home/xingli/share/LiteOS_Lab/network/dtls/mbedtls/mbedtls-2.16.2/library/x509_create.c ****     //
 258:/home/xingli/share/LiteOS_Lab/network/dtls/mbedtls/mbedtls-2.16.2/library/x509_create.c ****     MBEDTLS_ASN1_CHK_ADD( len, mbedtls_asn1_write_oid( p, start, oid,
 738              		.loc 1 258 5 is_stmt 1 discriminator 2
 739 009b 488B4DE0 		movq	-32(%rbp), %rcx
 740 009f 488B55D8 		movq	-40(%rbp), %rdx
 741 00a3 488B75B0 		movq	-80(%rbp), %rsi
 742 00a7 488B45B8 		movq	-72(%rbp), %rax
 743 00ab 4889C7   		movq	%rax, %rdi
 744 00ae E8000000 		call	mbedtls_asn1_write_oid@PLT
 744      00
 745 00b3 8945CC   		movl	%eax, -52(%rbp)
 746 00b6 837DCC00 		cmpl	$0, -52(%rbp)
 747 00ba 7908     		jns	.L37
 748              		.loc 1 258 5 is_stmt 0 discriminator 1
 749 00bc 8B45CC   		movl	-52(%rbp), %eax
 750 00bf E9CA0000 		jmp	.L36
 750      00
 751              	.L37:
 752              		.loc 1 258 5 discriminator 2
 753 00c4 8B45CC   		movl	-52(%rbp), %eax
 754 00c7 4898     		cltq
 755 00c9 480145D0 		addq	%rax, -48(%rbp)
 259:/home/xingli/share/LiteOS_Lab/network/dtls/mbedtls/mbedtls-2.16.2/library/x509_create.c ****                                                        oid_len ) );
 260:/home/xingli/share/LiteOS_Lab/network/dtls/mbedtls/mbedtls-2.16.2/library/x509_create.c **** 
 261:/home/xingli/share/LiteOS_Lab/network/dtls/mbedtls/mbedtls-2.16.2/library/x509_create.c ****     MBEDTLS_ASN1_CHK_ADD( len, mbedtls_asn1_write_len( p, start, len ) );
 756              		.loc 1 261 5 is_stmt 1 discriminator 2
 757 00cd 488B55D0 		movq	-48(%rbp), %rdx
 758 00d1 488B4DB0 		movq	-80(%rbp), %rcx
 759 00d5 488B45B8 		movq	-72(%rbp), %rax
 760 00d9 4889CE   		movq	%rcx, %rsi
 761 00dc 4889C7   		movq	%rax, %rdi
 762 00df E8000000 		call	mbedtls_asn1_write_len@PLT
 762      00
 763 00e4 8945CC   		movl	%eax, -52(%rbp)
 764 00e7 837DCC00 		cmpl	$0, -52(%rbp)
 765 00eb 7908     		jns	.L38
 766              		.loc 1 261 5 is_stmt 0 discriminator 1
 767 00ed 8B45CC   		movl	-52(%rbp), %eax
 768 00f0 E9990000 		jmp	.L36
 768      00
 769              	.L38:
 770              		.loc 1 261 5 discriminator 2
 771 00f5 8B45CC   		movl	-52(%rbp), %eax
 772 00f8 4898     		cltq
 773 00fa 480145D0 		addq	%rax, -48(%rbp)
 262:/home/xingli/share/LiteOS_Lab/network/dtls/mbedtls/mbedtls-2.16.2/library/x509_create.c ****     MBEDTLS_ASN1_CHK_ADD( len, mbedtls_asn1_write_tag( p, start,
 774              		.loc 1 262 5 is_stmt 1 discriminator 2
 775 00fe 488B4DB0 		movq	-80(%rbp), %rcx
GAS LISTING /tmp/cckLzPk8.s 			page 24


 776 0102 488B45B8 		movq	-72(%rbp), %rax
 777 0106 BA300000 		movl	$48, %edx
 777      00
 778 010b 4889CE   		movq	%rcx, %rsi
 779 010e 4889C7   		movq	%rax, %rdi
 780 0111 E8000000 		call	mbedtls_asn1_write_tag@PLT
 780      00
 781 0116 8945CC   		movl	%eax, -52(%rbp)
 782 0119 837DCC00 		cmpl	$0, -52(%rbp)
 783 011d 7905     		jns	.L39
 784              		.loc 1 262 5 is_stmt 0 discriminator 1
 785 011f 8B45CC   		movl	-52(%rbp), %eax
 786 0122 EB6A     		jmp	.L36
 787              	.L39:
 788              		.loc 1 262 5 discriminator 2
 789 0124 8B45CC   		movl	-52(%rbp), %eax
 790 0127 4898     		cltq
 791 0129 480145D0 		addq	%rax, -48(%rbp)
 263:/home/xingli/share/LiteOS_Lab/network/dtls/mbedtls/mbedtls-2.16.2/library/x509_create.c ****                                                     MBEDTLS_ASN1_CONSTRUCTED |
 264:/home/xingli/share/LiteOS_Lab/network/dtls/mbedtls/mbedtls-2.16.2/library/x509_create.c ****                                                     MBEDTLS_ASN1_SEQUENCE ) );
 265:/home/xingli/share/LiteOS_Lab/network/dtls/mbedtls/mbedtls-2.16.2/library/x509_create.c **** 
 266:/home/xingli/share/LiteOS_Lab/network/dtls/mbedtls/mbedtls-2.16.2/library/x509_create.c ****     MBEDTLS_ASN1_CHK_ADD( len, mbedtls_asn1_write_len( p, start, len ) );
 792              		.loc 1 266 5 is_stmt 1 discriminator 2
 793 012d 488B55D0 		movq	-48(%rbp), %rdx
 794 0131 488B4DB0 		movq	-80(%rbp), %rcx
 795 0135 488B45B8 		movq	-72(%rbp), %rax
 796 0139 4889CE   		movq	%rcx, %rsi
 797 013c 4889C7   		movq	%rax, %rdi
 798 013f E8000000 		call	mbedtls_asn1_write_len@PLT
 798      00
 799 0144 8945CC   		movl	%eax, -52(%rbp)
 800 0147 837DCC00 		cmpl	$0, -52(%rbp)
 801 014b 7905     		jns	.L40
 802              		.loc 1 266 5 is_stmt 0 discriminator 1
 803 014d 8B45CC   		movl	-52(%rbp), %eax
 804 0150 EB3C     		jmp	.L36
 805              	.L40:
 806              		.loc 1 266 5 discriminator 2
 807 0152 8B45CC   		movl	-52(%rbp), %eax
 808 0155 4898     		cltq
 809 0157 480145D0 		addq	%rax, -48(%rbp)
 267:/home/xingli/share/LiteOS_Lab/network/dtls/mbedtls/mbedtls-2.16.2/library/x509_create.c ****     MBEDTLS_ASN1_CHK_ADD( len, mbedtls_asn1_write_tag( p, start,
 810              		.loc 1 267 5 is_stmt 1 discriminator 2
 811 015b 488B4DB0 		movq	-80(%rbp), %rcx
 812 015f 488B45B8 		movq	-72(%rbp), %rax
 813 0163 BA310000 		movl	$49, %edx
 813      00
 814 0168 4889CE   		movq	%rcx, %rsi
 815 016b 4889C7   		movq	%rax, %rdi
 816 016e E8000000 		call	mbedtls_asn1_write_tag@PLT
 816      00
 817 0173 8945CC   		movl	%eax, -52(%rbp)
 818 0176 837DCC00 		cmpl	$0, -52(%rbp)
 819 017a 7905     		jns	.L41
 820              		.loc 1 267 5 is_stmt 0 discriminator 1
 821 017c 8B45CC   		movl	-52(%rbp), %eax
 822 017f EB0D     		jmp	.L36
GAS LISTING /tmp/cckLzPk8.s 			page 25


 823              	.L41:
 824              		.loc 1 267 5 discriminator 2
 825 0181 8B45CC   		movl	-52(%rbp), %eax
 826 0184 4898     		cltq
 827 0186 480145D0 		addq	%rax, -48(%rbp)
 268:/home/xingli/share/LiteOS_Lab/network/dtls/mbedtls/mbedtls-2.16.2/library/x509_create.c ****                                                  MBEDTLS_ASN1_CONSTRUCTED |
 269:/home/xingli/share/LiteOS_Lab/network/dtls/mbedtls/mbedtls-2.16.2/library/x509_create.c ****                                                  MBEDTLS_ASN1_SET ) );
 270:/home/xingli/share/LiteOS_Lab/network/dtls/mbedtls/mbedtls-2.16.2/library/x509_create.c **** 
 271:/home/xingli/share/LiteOS_Lab/network/dtls/mbedtls/mbedtls-2.16.2/library/x509_create.c ****     return( (int) len );
 828              		.loc 1 271 13 is_stmt 1 discriminator 2
 829 018a 488B45D0 		movq	-48(%rbp), %rax
 830              	.L36:
 272:/home/xingli/share/LiteOS_Lab/network/dtls/mbedtls/mbedtls-2.16.2/library/x509_create.c **** }
 831              		.loc 1 272 1
 832 018e 488B7DF8 		movq	-8(%rbp), %rdi
 833 0192 6448333C 		xorq	%fs:40, %rdi
 833      25280000 
 833      00
 834 019b 7405     		je	.L42
 835 019d E8000000 		call	__stack_chk_fail@PLT
 835      00
 836              	.L42:
 837 01a2 C9       		leave
 838              	.LCFI11:
 839              		.cfi_def_cfa 7, 8
 840 01a3 C3       		ret
 841              		.cfi_endproc
 842              	.LFE13:
 844              		.section	.text.mbedtls_x509_write_names,"ax",@progbits
 845              		.globl	mbedtls_x509_write_names
 847              	mbedtls_x509_write_names:
 848              	.LFB14:
 273:/home/xingli/share/LiteOS_Lab/network/dtls/mbedtls/mbedtls-2.16.2/library/x509_create.c **** 
 274:/home/xingli/share/LiteOS_Lab/network/dtls/mbedtls/mbedtls-2.16.2/library/x509_create.c **** int mbedtls_x509_write_names( unsigned char **p, unsigned char *start,
 275:/home/xingli/share/LiteOS_Lab/network/dtls/mbedtls/mbedtls-2.16.2/library/x509_create.c ****                               mbedtls_asn1_named_data *first )
 276:/home/xingli/share/LiteOS_Lab/network/dtls/mbedtls/mbedtls-2.16.2/library/x509_create.c **** {
 849              		.loc 1 276 1
 850              		.cfi_startproc
 851 0000 F30F1EFA 		endbr64
 852 0004 55       		pushq	%rbp
 853              	.LCFI12:
 854              		.cfi_def_cfa_offset 16
 855              		.cfi_offset 6, -16
 856 0005 4889E5   		movq	%rsp, %rbp
 857              	.LCFI13:
 858              		.cfi_def_cfa_register 6
 859 0008 4883EC40 		subq	$64, %rsp
 860 000c 48897DD8 		movq	%rdi, -40(%rbp)
 861 0010 488975D0 		movq	%rsi, -48(%rbp)
 862 0014 488955C8 		movq	%rdx, -56(%rbp)
 863              		.loc 1 276 1
 864 0018 64488B04 		movq	%fs:40, %rax
 864      25280000 
 864      00
 865 0021 488945F8 		movq	%rax, -8(%rbp)
 866 0025 31C0     		xorl	%eax, %eax
 277:/home/xingli/share/LiteOS_Lab/network/dtls/mbedtls/mbedtls-2.16.2/library/x509_create.c ****     int ret;
GAS LISTING /tmp/cckLzPk8.s 			page 26


 278:/home/xingli/share/LiteOS_Lab/network/dtls/mbedtls/mbedtls-2.16.2/library/x509_create.c ****     size_t len = 0;
 867              		.loc 1 278 12
 868 0027 48C745E8 		movq	$0, -24(%rbp)
 868      00000000 
 279:/home/xingli/share/LiteOS_Lab/network/dtls/mbedtls/mbedtls-2.16.2/library/x509_create.c ****     mbedtls_asn1_named_data *cur = first;
 869              		.loc 1 279 30
 870 002f 488B45C8 		movq	-56(%rbp), %rax
 871 0033 488945F0 		movq	%rax, -16(%rbp)
 280:/home/xingli/share/LiteOS_Lab/network/dtls/mbedtls/mbedtls-2.16.2/library/x509_create.c **** 
 281:/home/xingli/share/LiteOS_Lab/network/dtls/mbedtls/mbedtls-2.16.2/library/x509_create.c ****     while( cur != NULL )
 872              		.loc 1 281 10
 873 0037 EB3A     		jmp	.L44
 874              	.L47:
 282:/home/xingli/share/LiteOS_Lab/network/dtls/mbedtls/mbedtls-2.16.2/library/x509_create.c ****     {
 283:/home/xingli/share/LiteOS_Lab/network/dtls/mbedtls/mbedtls-2.16.2/library/x509_create.c ****         MBEDTLS_ASN1_CHK_ADD( len, x509_write_name( p, start, cur ) );
 875              		.loc 1 283 9
 876 0039 488B55F0 		movq	-16(%rbp), %rdx
 877 003d 488B4DD0 		movq	-48(%rbp), %rcx
 878 0041 488B45D8 		movq	-40(%rbp), %rax
 879 0045 4889CE   		movq	%rcx, %rsi
 880 0048 4889C7   		movq	%rax, %rdi
 881 004b E8000000 		call	x509_write_name
 881      00
 882 0050 8945E4   		movl	%eax, -28(%rbp)
 883 0053 837DE400 		cmpl	$0, -28(%rbp)
 884 0057 7905     		jns	.L45
 885              		.loc 1 283 9 is_stmt 0 discriminator 1
 886 0059 8B45E4   		movl	-28(%rbp), %eax
 887 005c EB7D     		jmp	.L46
 888              	.L45:
 889              		.loc 1 283 9 discriminator 2
 890 005e 8B45E4   		movl	-28(%rbp), %eax
 891 0061 4898     		cltq
 892 0063 480145E8 		addq	%rax, -24(%rbp)
 284:/home/xingli/share/LiteOS_Lab/network/dtls/mbedtls/mbedtls-2.16.2/library/x509_create.c ****         cur = cur->next;
 893              		.loc 1 284 13 is_stmt 1 discriminator 2
 894 0067 488B45F0 		movq	-16(%rbp), %rax
 895 006b 488B4030 		movq	48(%rax), %rax
 896 006f 488945F0 		movq	%rax, -16(%rbp)
 897              	.L44:
 281:/home/xingli/share/LiteOS_Lab/network/dtls/mbedtls/mbedtls-2.16.2/library/x509_create.c ****     {
 898              		.loc 1 281 10
 899 0073 48837DF0 		cmpq	$0, -16(%rbp)
 899      00
 900 0078 75BF     		jne	.L47
 285:/home/xingli/share/LiteOS_Lab/network/dtls/mbedtls/mbedtls-2.16.2/library/x509_create.c ****     }
 286:/home/xingli/share/LiteOS_Lab/network/dtls/mbedtls/mbedtls-2.16.2/library/x509_create.c **** 
 287:/home/xingli/share/LiteOS_Lab/network/dtls/mbedtls/mbedtls-2.16.2/library/x509_create.c ****     MBEDTLS_ASN1_CHK_ADD( len, mbedtls_asn1_write_len( p, start, len ) );
 901              		.loc 1 287 5
 902 007a 488B55E8 		movq	-24(%rbp), %rdx
 903 007e 488B4DD0 		movq	-48(%rbp), %rcx
 904 0082 488B45D8 		movq	-40(%rbp), %rax
 905 0086 4889CE   		movq	%rcx, %rsi
 906 0089 4889C7   		movq	%rax, %rdi
 907 008c E8000000 		call	mbedtls_asn1_write_len@PLT
 907      00
 908 0091 8945E4   		movl	%eax, -28(%rbp)
GAS LISTING /tmp/cckLzPk8.s 			page 27


 909 0094 837DE400 		cmpl	$0, -28(%rbp)
 910 0098 7905     		jns	.L48
 911              		.loc 1 287 5 is_stmt 0 discriminator 1
 912 009a 8B45E4   		movl	-28(%rbp), %eax
 913 009d EB3C     		jmp	.L46
 914              	.L48:
 915              		.loc 1 287 5 discriminator 2
 916 009f 8B45E4   		movl	-28(%rbp), %eax
 917 00a2 4898     		cltq
 918 00a4 480145E8 		addq	%rax, -24(%rbp)
 288:/home/xingli/share/LiteOS_Lab/network/dtls/mbedtls/mbedtls-2.16.2/library/x509_create.c ****     MBEDTLS_ASN1_CHK_ADD( len, mbedtls_asn1_write_tag( p, start, MBEDTLS_ASN1_CONSTRUCTED |
 919              		.loc 1 288 5 is_stmt 1 discriminator 2
 920 00a8 488B4DD0 		movq	-48(%rbp), %rcx
 921 00ac 488B45D8 		movq	-40(%rbp), %rax
 922 00b0 BA300000 		movl	$48, %edx
 922      00
 923 00b5 4889CE   		movq	%rcx, %rsi
 924 00b8 4889C7   		movq	%rax, %rdi
 925 00bb E8000000 		call	mbedtls_asn1_write_tag@PLT
 925      00
 926 00c0 8945E4   		movl	%eax, -28(%rbp)
 927 00c3 837DE400 		cmpl	$0, -28(%rbp)
 928 00c7 7905     		jns	.L49
 929              		.loc 1 288 5 is_stmt 0 discriminator 1
 930 00c9 8B45E4   		movl	-28(%rbp), %eax
 931 00cc EB0D     		jmp	.L46
 932              	.L49:
 933              		.loc 1 288 5 discriminator 2
 934 00ce 8B45E4   		movl	-28(%rbp), %eax
 935 00d1 4898     		cltq
 936 00d3 480145E8 		addq	%rax, -24(%rbp)
 289:/home/xingli/share/LiteOS_Lab/network/dtls/mbedtls/mbedtls-2.16.2/library/x509_create.c ****                                                  MBEDTLS_ASN1_SEQUENCE ) );
 290:/home/xingli/share/LiteOS_Lab/network/dtls/mbedtls/mbedtls-2.16.2/library/x509_create.c **** 
 291:/home/xingli/share/LiteOS_Lab/network/dtls/mbedtls/mbedtls-2.16.2/library/x509_create.c ****     return( (int) len );
 937              		.loc 1 291 13 is_stmt 1 discriminator 2
 938 00d7 488B45E8 		movq	-24(%rbp), %rax
 939              	.L46:
 292:/home/xingli/share/LiteOS_Lab/network/dtls/mbedtls/mbedtls-2.16.2/library/x509_create.c **** }
 940              		.loc 1 292 1
 941 00db 488B75F8 		movq	-8(%rbp), %rsi
 942 00df 64483334 		xorq	%fs:40, %rsi
 942      25280000 
 942      00
 943 00e8 7405     		je	.L50
 944 00ea E8000000 		call	__stack_chk_fail@PLT
 944      00
 945              	.L50:
 946 00ef C9       		leave
 947              	.LCFI14:
 948              		.cfi_def_cfa 7, 8
 949 00f0 C3       		ret
 950              		.cfi_endproc
 951              	.LFE14:
 953              		.section	.text.mbedtls_x509_write_sig,"ax",@progbits
 954              		.globl	mbedtls_x509_write_sig
 956              	mbedtls_x509_write_sig:
 957              	.LFB15:
GAS LISTING /tmp/cckLzPk8.s 			page 28


 293:/home/xingli/share/LiteOS_Lab/network/dtls/mbedtls/mbedtls-2.16.2/library/x509_create.c **** 
 294:/home/xingli/share/LiteOS_Lab/network/dtls/mbedtls/mbedtls-2.16.2/library/x509_create.c **** int mbedtls_x509_write_sig( unsigned char **p, unsigned char *start,
 295:/home/xingli/share/LiteOS_Lab/network/dtls/mbedtls/mbedtls-2.16.2/library/x509_create.c ****                     const char *oid, size_t oid_len,
 296:/home/xingli/share/LiteOS_Lab/network/dtls/mbedtls/mbedtls-2.16.2/library/x509_create.c ****                     unsigned char *sig, size_t size )
 297:/home/xingli/share/LiteOS_Lab/network/dtls/mbedtls/mbedtls-2.16.2/library/x509_create.c **** {
 958              		.loc 1 297 1
 959              		.cfi_startproc
 960 0000 F30F1EFA 		endbr64
 961 0004 55       		pushq	%rbp
 962              	.LCFI15:
 963              		.cfi_def_cfa_offset 16
 964              		.cfi_offset 6, -16
 965 0005 4889E5   		movq	%rsp, %rbp
 966              	.LCFI16:
 967              		.cfi_def_cfa_register 6
 968 0008 4883EC50 		subq	$80, %rsp
 969 000c 48897DD8 		movq	%rdi, -40(%rbp)
 970 0010 488975D0 		movq	%rsi, -48(%rbp)
 971 0014 488955C8 		movq	%rdx, -56(%rbp)
 972 0018 48894DC0 		movq	%rcx, -64(%rbp)
 973 001c 4C8945B8 		movq	%r8, -72(%rbp)
 974 0020 4C894DB0 		movq	%r9, -80(%rbp)
 975              		.loc 1 297 1
 976 0024 64488B04 		movq	%fs:40, %rax
 976      25280000 
 976      00
 977 002d 488945F8 		movq	%rax, -8(%rbp)
 978 0031 31C0     		xorl	%eax, %eax
 298:/home/xingli/share/LiteOS_Lab/network/dtls/mbedtls/mbedtls-2.16.2/library/x509_create.c ****     int ret;
 299:/home/xingli/share/LiteOS_Lab/network/dtls/mbedtls/mbedtls-2.16.2/library/x509_create.c ****     size_t len = 0;
 979              		.loc 1 299 12
 980 0033 48C745F0 		movq	$0, -16(%rbp)
 980      00000000 
 300:/home/xingli/share/LiteOS_Lab/network/dtls/mbedtls/mbedtls-2.16.2/library/x509_create.c **** 
 301:/home/xingli/share/LiteOS_Lab/network/dtls/mbedtls/mbedtls-2.16.2/library/x509_create.c ****     if( *p < start || (size_t)( *p - start ) < size )
 981              		.loc 1 301 9
 982 003b 488B45D8 		movq	-40(%rbp), %rax
 983 003f 488B00   		movq	(%rax), %rax
 984              		.loc 1 301 7
 985 0042 483945D0 		cmpq	%rax, -48(%rbp)
 986 0046 7711     		ja	.L52
 987              		.loc 1 301 33 discriminator 1
 988 0048 488B45D8 		movq	-40(%rbp), %rax
 989 004c 488B00   		movq	(%rax), %rax
 990              		.loc 1 301 36 discriminator 1
 991 004f 482B45D0 		subq	-48(%rbp), %rax
 992              		.loc 1 301 20 discriminator 1
 993 0053 483945B0 		cmpq	%rax, -80(%rbp)
 994 0057 760A     		jbe	.L53
 995              	.L52:
 302:/home/xingli/share/LiteOS_Lab/network/dtls/mbedtls/mbedtls-2.16.2/library/x509_create.c ****         return( MBEDTLS_ERR_ASN1_BUF_TOO_SMALL );
 996              		.loc 1 302 15
 997 0059 B894FFFF 		movl	$-108, %eax
 997      FF
 998 005e E90B0100 		jmp	.L54
 998      00
 999              	.L53:
GAS LISTING /tmp/cckLzPk8.s 			page 29


 303:/home/xingli/share/LiteOS_Lab/network/dtls/mbedtls/mbedtls-2.16.2/library/x509_create.c **** 
 304:/home/xingli/share/LiteOS_Lab/network/dtls/mbedtls/mbedtls-2.16.2/library/x509_create.c ****     len = size;
 1000              		.loc 1 304 9
 1001 0063 488B45B0 		movq	-80(%rbp), %rax
 1002 0067 488945F0 		movq	%rax, -16(%rbp)
 305:/home/xingli/share/LiteOS_Lab/network/dtls/mbedtls/mbedtls-2.16.2/library/x509_create.c ****     (*p) -= len;
 1003              		.loc 1 305 10
 1004 006b 488B45D8 		movq	-40(%rbp), %rax
 1005 006f 488B00   		movq	(%rax), %rax
 1006 0072 488B55F0 		movq	-16(%rbp), %rdx
 1007 0076 48F7DA   		negq	%rdx
 1008 0079 4801C2   		addq	%rax, %rdx
 1009 007c 488B45D8 		movq	-40(%rbp), %rax
 1010 0080 488910   		movq	%rdx, (%rax)
 306:/home/xingli/share/LiteOS_Lab/network/dtls/mbedtls/mbedtls-2.16.2/library/x509_create.c ****     memcpy( *p, sig, len );
 1011              		.loc 1 306 5
 1012 0083 488B45D8 		movq	-40(%rbp), %rax
 1013 0087 488B00   		movq	(%rax), %rax
 1014 008a 488B55F0 		movq	-16(%rbp), %rdx
 1015 008e 488B4DB8 		movq	-72(%rbp), %rcx
 1016 0092 4889CE   		movq	%rcx, %rsi
 1017 0095 4889C7   		movq	%rax, %rdi
 1018 0098 E8000000 		call	memcpy@PLT
 1018      00
 307:/home/xingli/share/LiteOS_Lab/network/dtls/mbedtls/mbedtls-2.16.2/library/x509_create.c **** 
 308:/home/xingli/share/LiteOS_Lab/network/dtls/mbedtls/mbedtls-2.16.2/library/x509_create.c ****     if( *p - start < 1 )
 1019              		.loc 1 308 9
 1020 009d 488B45D8 		movq	-40(%rbp), %rax
 1021 00a1 488B00   		movq	(%rax), %rax
 1022              		.loc 1 308 12
 1023 00a4 482B45D0 		subq	-48(%rbp), %rax
 1024              		.loc 1 308 7
 1025 00a8 4885C0   		testq	%rax, %rax
 1026 00ab 7F0A     		jg	.L55
 309:/home/xingli/share/LiteOS_Lab/network/dtls/mbedtls/mbedtls-2.16.2/library/x509_create.c ****         return( MBEDTLS_ERR_ASN1_BUF_TOO_SMALL );
 1027              		.loc 1 309 15
 1028 00ad B894FFFF 		movl	$-108, %eax
 1028      FF
 1029 00b2 E9B70000 		jmp	.L54
 1029      00
 1030              	.L55:
 310:/home/xingli/share/LiteOS_Lab/network/dtls/mbedtls/mbedtls-2.16.2/library/x509_create.c **** 
 311:/home/xingli/share/LiteOS_Lab/network/dtls/mbedtls/mbedtls-2.16.2/library/x509_create.c ****     *--(*p) = 0;
 1031              		.loc 1 311 9
 1032 00b7 488B45D8 		movq	-40(%rbp), %rax
 1033 00bb 488B00   		movq	(%rax), %rax
 1034              		.loc 1 311 6
 1035 00be 488D50FF 		leaq	-1(%rax), %rdx
 1036              		.loc 1 311 13
 1037 00c2 488B45D8 		movq	-40(%rbp), %rax
 1038 00c6 488910   		movq	%rdx, (%rax)
 1039              		.loc 1 311 9
 1040 00c9 488B45D8 		movq	-40(%rbp), %rax
 1041 00cd 488B00   		movq	(%rax), %rax
 1042              		.loc 1 311 13
 1043 00d0 C60000   		movb	$0, (%rax)
 312:/home/xingli/share/LiteOS_Lab/network/dtls/mbedtls/mbedtls-2.16.2/library/x509_create.c ****     len += 1;
GAS LISTING /tmp/cckLzPk8.s 			page 30


 1044              		.loc 1 312 9
 1045 00d3 488345F0 		addq	$1, -16(%rbp)
 1045      01
 313:/home/xingli/share/LiteOS_Lab/network/dtls/mbedtls/mbedtls-2.16.2/library/x509_create.c **** 
 314:/home/xingli/share/LiteOS_Lab/network/dtls/mbedtls/mbedtls-2.16.2/library/x509_create.c ****     MBEDTLS_ASN1_CHK_ADD( len, mbedtls_asn1_write_len( p, start, len ) );
 1046              		.loc 1 314 5
 1047 00d8 488B55F0 		movq	-16(%rbp), %rdx
 1048 00dc 488B4DD0 		movq	-48(%rbp), %rcx
 1049 00e0 488B45D8 		movq	-40(%rbp), %rax
 1050 00e4 4889CE   		movq	%rcx, %rsi
 1051 00e7 4889C7   		movq	%rax, %rdi
 1052 00ea E8000000 		call	mbedtls_asn1_write_len@PLT
 1052      00
 1053 00ef 8945EC   		movl	%eax, -20(%rbp)
 1054 00f2 837DEC00 		cmpl	$0, -20(%rbp)
 1055 00f6 7905     		jns	.L56
 1056              		.loc 1 314 5 is_stmt 0 discriminator 1
 1057 00f8 8B45EC   		movl	-20(%rbp), %eax
 1058 00fb EB71     		jmp	.L54
 1059              	.L56:
 1060              		.loc 1 314 5 discriminator 2
 1061 00fd 8B45EC   		movl	-20(%rbp), %eax
 1062 0100 4898     		cltq
 1063 0102 480145F0 		addq	%rax, -16(%rbp)
 315:/home/xingli/share/LiteOS_Lab/network/dtls/mbedtls/mbedtls-2.16.2/library/x509_create.c ****     MBEDTLS_ASN1_CHK_ADD( len, mbedtls_asn1_write_tag( p, start, MBEDTLS_ASN1_BIT_STRING ) );
 1064              		.loc 1 315 5 is_stmt 1 discriminator 2
 1065 0106 488B4DD0 		movq	-48(%rbp), %rcx
 1066 010a 488B45D8 		movq	-40(%rbp), %rax
 1067 010e BA030000 		movl	$3, %edx
 1067      00
 1068 0113 4889CE   		movq	%rcx, %rsi
 1069 0116 4889C7   		movq	%rax, %rdi
 1070 0119 E8000000 		call	mbedtls_asn1_write_tag@PLT
 1070      00
 1071 011e 8945EC   		movl	%eax, -20(%rbp)
 1072 0121 837DEC00 		cmpl	$0, -20(%rbp)
 1073 0125 7905     		jns	.L57
 1074              		.loc 1 315 5 is_stmt 0 discriminator 1
 1075 0127 8B45EC   		movl	-20(%rbp), %eax
 1076 012a EB42     		jmp	.L54
 1077              	.L57:
 1078              		.loc 1 315 5 discriminator 2
 1079 012c 8B45EC   		movl	-20(%rbp), %eax
 1080 012f 4898     		cltq
 1081 0131 480145F0 		addq	%rax, -16(%rbp)
 316:/home/xingli/share/LiteOS_Lab/network/dtls/mbedtls/mbedtls-2.16.2/library/x509_create.c **** 
 317:/home/xingli/share/LiteOS_Lab/network/dtls/mbedtls/mbedtls-2.16.2/library/x509_create.c ****     // Write OID
 318:/home/xingli/share/LiteOS_Lab/network/dtls/mbedtls/mbedtls-2.16.2/library/x509_create.c ****     //
 319:/home/xingli/share/LiteOS_Lab/network/dtls/mbedtls/mbedtls-2.16.2/library/x509_create.c ****     MBEDTLS_ASN1_CHK_ADD( len, mbedtls_asn1_write_algorithm_identifier( p, start, oid,
 1082              		.loc 1 319 5 is_stmt 1 discriminator 2
 1083 0135 488B4DC0 		movq	-64(%rbp), %rcx
 1084 0139 488B55C8 		movq	-56(%rbp), %rdx
 1085 013d 488B75D0 		movq	-48(%rbp), %rsi
 1086 0141 488B45D8 		movq	-40(%rbp), %rax
 1087 0145 41B80000 		movl	$0, %r8d
 1087      0000
 1088 014b 4889C7   		movq	%rax, %rdi
GAS LISTING /tmp/cckLzPk8.s 			page 31


 1089 014e E8000000 		call	mbedtls_asn1_write_algorithm_identifier@PLT
 1089      00
 1090 0153 8945EC   		movl	%eax, -20(%rbp)
 1091 0156 837DEC00 		cmpl	$0, -20(%rbp)
 1092 015a 7905     		jns	.L58
 1093              		.loc 1 319 5 is_stmt 0 discriminator 1
 1094 015c 8B45EC   		movl	-20(%rbp), %eax
 1095 015f EB0D     		jmp	.L54
 1096              	.L58:
 1097              		.loc 1 319 5 discriminator 2
 1098 0161 8B45EC   		movl	-20(%rbp), %eax
 1099 0164 4898     		cltq
 1100 0166 480145F0 		addq	%rax, -16(%rbp)
 320:/home/xingli/share/LiteOS_Lab/network/dtls/mbedtls/mbedtls-2.16.2/library/x509_create.c ****                                                         oid_len, 0 ) );
 321:/home/xingli/share/LiteOS_Lab/network/dtls/mbedtls/mbedtls-2.16.2/library/x509_create.c **** 
 322:/home/xingli/share/LiteOS_Lab/network/dtls/mbedtls/mbedtls-2.16.2/library/x509_create.c ****     return( (int) len );
 1101              		.loc 1 322 13 is_stmt 1 discriminator 2
 1102 016a 488B45F0 		movq	-16(%rbp), %rax
 1103              	.L54:
 323:/home/xingli/share/LiteOS_Lab/network/dtls/mbedtls/mbedtls-2.16.2/library/x509_create.c **** }
 1104              		.loc 1 323 1
 1105 016e 488B7DF8 		movq	-8(%rbp), %rdi
 1106 0172 6448333C 		xorq	%fs:40, %rdi
 1106      25280000 
 1106      00
 1107 017b 7405     		je	.L59
 1108 017d E8000000 		call	__stack_chk_fail@PLT
 1108      00
 1109              	.L59:
 1110 0182 C9       		leave
 1111              	.LCFI17:
 1112              		.cfi_def_cfa 7, 8
 1113 0183 C3       		ret
 1114              		.cfi_endproc
 1115              	.LFE15:
 1117              		.section	.text.x509_write_extension,"ax",@progbits
 1119              	x509_write_extension:
 1120              	.LFB16:
 324:/home/xingli/share/LiteOS_Lab/network/dtls/mbedtls/mbedtls-2.16.2/library/x509_create.c **** 
 325:/home/xingli/share/LiteOS_Lab/network/dtls/mbedtls/mbedtls-2.16.2/library/x509_create.c **** static int x509_write_extension( unsigned char **p, unsigned char *start,
 326:/home/xingli/share/LiteOS_Lab/network/dtls/mbedtls/mbedtls-2.16.2/library/x509_create.c ****                                  mbedtls_asn1_named_data *ext )
 327:/home/xingli/share/LiteOS_Lab/network/dtls/mbedtls/mbedtls-2.16.2/library/x509_create.c **** {
 1121              		.loc 1 327 1
 1122              		.cfi_startproc
 1123 0000 F30F1EFA 		endbr64
 1124 0004 55       		pushq	%rbp
 1125              	.LCFI18:
 1126              		.cfi_def_cfa_offset 16
 1127              		.cfi_offset 6, -16
 1128 0005 4889E5   		movq	%rsp, %rbp
 1129              	.LCFI19:
 1130              		.cfi_def_cfa_register 6
 1131 0008 4883EC40 		subq	$64, %rsp
 1132 000c 48897DD8 		movq	%rdi, -40(%rbp)
 1133 0010 488975D0 		movq	%rsi, -48(%rbp)
 1134 0014 488955C8 		movq	%rdx, -56(%rbp)
 1135              		.loc 1 327 1
GAS LISTING /tmp/cckLzPk8.s 			page 32


 1136 0018 64488B04 		movq	%fs:40, %rax
 1136      25280000 
 1136      00
 1137 0021 488945F8 		movq	%rax, -8(%rbp)
 1138 0025 31C0     		xorl	%eax, %eax
 328:/home/xingli/share/LiteOS_Lab/network/dtls/mbedtls/mbedtls-2.16.2/library/x509_create.c ****     int ret;
 329:/home/xingli/share/LiteOS_Lab/network/dtls/mbedtls/mbedtls-2.16.2/library/x509_create.c ****     size_t len = 0;
 1139              		.loc 1 329 12
 1140 0027 48C745F0 		movq	$0, -16(%rbp)
 1140      00000000 
 330:/home/xingli/share/LiteOS_Lab/network/dtls/mbedtls/mbedtls-2.16.2/library/x509_create.c **** 
 331:/home/xingli/share/LiteOS_Lab/network/dtls/mbedtls/mbedtls-2.16.2/library/x509_create.c ****     MBEDTLS_ASN1_CHK_ADD( len, mbedtls_asn1_write_raw_buffer( p, start, ext->val.p + 1,
 1141              		.loc 1 331 5
 1142 002f 488B45C8 		movq	-56(%rbp), %rax
 1143 0033 488B4020 		movq	32(%rax), %rax
 1144 0037 488D48FF 		leaq	-1(%rax), %rcx
 1145 003b 488B45C8 		movq	-56(%rbp), %rax
 1146 003f 488B4028 		movq	40(%rax), %rax
 1147 0043 488D5001 		leaq	1(%rax), %rdx
 1148 0047 488B75D0 		movq	-48(%rbp), %rsi
 1149 004b 488B45D8 		movq	-40(%rbp), %rax
 1150 004f 4889C7   		movq	%rax, %rdi
 1151 0052 E8000000 		call	mbedtls_asn1_write_raw_buffer@PLT
 1151      00
 1152 0057 8945EC   		movl	%eax, -20(%rbp)
 1153 005a 837DEC00 		cmpl	$0, -20(%rbp)
 1154 005e 7908     		jns	.L61
 1155              		.loc 1 331 5 is_stmt 0 discriminator 1
 1156 0060 8B45EC   		movl	-20(%rbp), %eax
 1157 0063 E9B40100 		jmp	.L62
 1157      00
 1158              	.L61:
 1159              		.loc 1 331 5 discriminator 2
 1160 0068 8B45EC   		movl	-20(%rbp), %eax
 1161 006b 4898     		cltq
 1162 006d 480145F0 		addq	%rax, -16(%rbp)
 332:/home/xingli/share/LiteOS_Lab/network/dtls/mbedtls/mbedtls-2.16.2/library/x509_create.c ****                                               ext->val.len - 1 ) );
 333:/home/xingli/share/LiteOS_Lab/network/dtls/mbedtls/mbedtls-2.16.2/library/x509_create.c ****     MBEDTLS_ASN1_CHK_ADD( len, mbedtls_asn1_write_len( p, start, ext->val.len - 1 ) );
 1163              		.loc 1 333 5 is_stmt 1 discriminator 2
 1164 0071 488B45C8 		movq	-56(%rbp), %rax
 1165 0075 488B4020 		movq	32(%rax), %rax
 1166 0079 488D50FF 		leaq	-1(%rax), %rdx
 1167 007d 488B4DD0 		movq	-48(%rbp), %rcx
 1168 0081 488B45D8 		movq	-40(%rbp), %rax
 1169 0085 4889CE   		movq	%rcx, %rsi
 1170 0088 4889C7   		movq	%rax, %rdi
 1171 008b E8000000 		call	mbedtls_asn1_write_len@PLT
 1171      00
 1172 0090 8945EC   		movl	%eax, -20(%rbp)
 1173 0093 837DEC00 		cmpl	$0, -20(%rbp)
 1174 0097 7908     		jns	.L63
 1175              		.loc 1 333 5 is_stmt 0 discriminator 1
 1176 0099 8B45EC   		movl	-20(%rbp), %eax
 1177 009c E97B0100 		jmp	.L62
 1177      00
 1178              	.L63:
 1179              		.loc 1 333 5 discriminator 2
GAS LISTING /tmp/cckLzPk8.s 			page 33


 1180 00a1 8B45EC   		movl	-20(%rbp), %eax
 1181 00a4 4898     		cltq
 1182 00a6 480145F0 		addq	%rax, -16(%rbp)
 334:/home/xingli/share/LiteOS_Lab/network/dtls/mbedtls/mbedtls-2.16.2/library/x509_create.c ****     MBEDTLS_ASN1_CHK_ADD( len, mbedtls_asn1_write_tag( p, start, MBEDTLS_ASN1_OCTET_STRING ) );
 1183              		.loc 1 334 5 is_stmt 1 discriminator 2
 1184 00aa 488B4DD0 		movq	-48(%rbp), %rcx
 1185 00ae 488B45D8 		movq	-40(%rbp), %rax
 1186 00b2 BA040000 		movl	$4, %edx
 1186      00
 1187 00b7 4889CE   		movq	%rcx, %rsi
 1188 00ba 4889C7   		movq	%rax, %rdi
 1189 00bd E8000000 		call	mbedtls_asn1_write_tag@PLT
 1189      00
 1190 00c2 8945EC   		movl	%eax, -20(%rbp)
 1191 00c5 837DEC00 		cmpl	$0, -20(%rbp)
 1192 00c9 7908     		jns	.L64
 1193              		.loc 1 334 5 is_stmt 0 discriminator 1
 1194 00cb 8B45EC   		movl	-20(%rbp), %eax
 1195 00ce E9490100 		jmp	.L62
 1195      00
 1196              	.L64:
 1197              		.loc 1 334 5 discriminator 2
 1198 00d3 8B45EC   		movl	-20(%rbp), %eax
 1199 00d6 4898     		cltq
 1200 00d8 480145F0 		addq	%rax, -16(%rbp)
 335:/home/xingli/share/LiteOS_Lab/network/dtls/mbedtls/mbedtls-2.16.2/library/x509_create.c **** 
 336:/home/xingli/share/LiteOS_Lab/network/dtls/mbedtls/mbedtls-2.16.2/library/x509_create.c ****     if( ext->val.p[0] != 0 )
 1201              		.loc 1 336 17 is_stmt 1 discriminator 2
 1202 00dc 488B45C8 		movq	-56(%rbp), %rax
 1203 00e0 488B4028 		movq	40(%rax), %rax
 1204              		.loc 1 336 19 discriminator 2
 1205 00e4 0FB600   		movzbl	(%rax), %eax
 1206              		.loc 1 336 7 discriminator 2
 1207 00e7 84C0     		testb	%al, %al
 1208 00e9 7432     		je	.L65
 337:/home/xingli/share/LiteOS_Lab/network/dtls/mbedtls/mbedtls-2.16.2/library/x509_create.c ****     {
 338:/home/xingli/share/LiteOS_Lab/network/dtls/mbedtls/mbedtls-2.16.2/library/x509_create.c ****         MBEDTLS_ASN1_CHK_ADD( len, mbedtls_asn1_write_bool( p, start, 1 ) );
 1209              		.loc 1 338 9
 1210 00eb 488B4DD0 		movq	-48(%rbp), %rcx
 1211 00ef 488B45D8 		movq	-40(%rbp), %rax
 1212 00f3 BA010000 		movl	$1, %edx
 1212      00
 1213 00f8 4889CE   		movq	%rcx, %rsi
 1214 00fb 4889C7   		movq	%rax, %rdi
 1215 00fe E8000000 		call	mbedtls_asn1_write_bool@PLT
 1215      00
 1216 0103 8945EC   		movl	%eax, -20(%rbp)
 1217 0106 837DEC00 		cmpl	$0, -20(%rbp)
 1218 010a 7908     		jns	.L66
 1219              		.loc 1 338 9 is_stmt 0 discriminator 1
 1220 010c 8B45EC   		movl	-20(%rbp), %eax
 1221 010f E9080100 		jmp	.L62
 1221      00
 1222              	.L66:
 1223              		.loc 1 338 9 discriminator 2
 1224 0114 8B45EC   		movl	-20(%rbp), %eax
 1225 0117 4898     		cltq
GAS LISTING /tmp/cckLzPk8.s 			page 34


 1226 0119 480145F0 		addq	%rax, -16(%rbp)
 1227              	.L65:
 339:/home/xingli/share/LiteOS_Lab/network/dtls/mbedtls/mbedtls-2.16.2/library/x509_create.c ****     }
 340:/home/xingli/share/LiteOS_Lab/network/dtls/mbedtls/mbedtls-2.16.2/library/x509_create.c **** 
 341:/home/xingli/share/LiteOS_Lab/network/dtls/mbedtls/mbedtls-2.16.2/library/x509_create.c ****     MBEDTLS_ASN1_CHK_ADD( len, mbedtls_asn1_write_raw_buffer( p, start, ext->oid.p,
 1228              		.loc 1 341 5 is_stmt 1
 1229 011d 488B45C8 		movq	-56(%rbp), %rax
 1230 0121 488B4808 		movq	8(%rax), %rcx
 1231 0125 488B45C8 		movq	-56(%rbp), %rax
 1232 0129 488B5010 		movq	16(%rax), %rdx
 1233 012d 488B75D0 		movq	-48(%rbp), %rsi
 1234 0131 488B45D8 		movq	-40(%rbp), %rax
 1235 0135 4889C7   		movq	%rax, %rdi
 1236 0138 E8000000 		call	mbedtls_asn1_write_raw_buffer@PLT
 1236      00
 1237 013d 8945EC   		movl	%eax, -20(%rbp)
 1238 0140 837DEC00 		cmpl	$0, -20(%rbp)
 1239 0144 7908     		jns	.L67
 1240              		.loc 1 341 5 is_stmt 0 discriminator 1
 1241 0146 8B45EC   		movl	-20(%rbp), %eax
 1242 0149 E9CE0000 		jmp	.L62
 1242      00
 1243              	.L67:
 1244              		.loc 1 341 5 discriminator 2
 1245 014e 8B45EC   		movl	-20(%rbp), %eax
 1246 0151 4898     		cltq
 1247 0153 480145F0 		addq	%rax, -16(%rbp)
 342:/home/xingli/share/LiteOS_Lab/network/dtls/mbedtls/mbedtls-2.16.2/library/x509_create.c ****                                               ext->oid.len ) );
 343:/home/xingli/share/LiteOS_Lab/network/dtls/mbedtls/mbedtls-2.16.2/library/x509_create.c ****     MBEDTLS_ASN1_CHK_ADD( len, mbedtls_asn1_write_len( p, start, ext->oid.len ) );
 1248              		.loc 1 343 5 is_stmt 1 discriminator 2
 1249 0157 488B45C8 		movq	-56(%rbp), %rax
 1250 015b 488B5008 		movq	8(%rax), %rdx
 1251 015f 488B4DD0 		movq	-48(%rbp), %rcx
 1252 0163 488B45D8 		movq	-40(%rbp), %rax
 1253 0167 4889CE   		movq	%rcx, %rsi
 1254 016a 4889C7   		movq	%rax, %rdi
 1255 016d E8000000 		call	mbedtls_asn1_write_len@PLT
 1255      00
 1256 0172 8945EC   		movl	%eax, -20(%rbp)
 1257 0175 837DEC00 		cmpl	$0, -20(%rbp)
 1258 0179 7908     		jns	.L68
 1259              		.loc 1 343 5 is_stmt 0 discriminator 1
 1260 017b 8B45EC   		movl	-20(%rbp), %eax
 1261 017e E9990000 		jmp	.L62
 1261      00
 1262              	.L68:
 1263              		.loc 1 343 5 discriminator 2
 1264 0183 8B45EC   		movl	-20(%rbp), %eax
 1265 0186 4898     		cltq
 1266 0188 480145F0 		addq	%rax, -16(%rbp)
 344:/home/xingli/share/LiteOS_Lab/network/dtls/mbedtls/mbedtls-2.16.2/library/x509_create.c ****     MBEDTLS_ASN1_CHK_ADD( len, mbedtls_asn1_write_tag( p, start, MBEDTLS_ASN1_OID ) );
 1267              		.loc 1 344 5 is_stmt 1 discriminator 2
 1268 018c 488B4DD0 		movq	-48(%rbp), %rcx
 1269 0190 488B45D8 		movq	-40(%rbp), %rax
 1270 0194 BA060000 		movl	$6, %edx
 1270      00
 1271 0199 4889CE   		movq	%rcx, %rsi
GAS LISTING /tmp/cckLzPk8.s 			page 35


 1272 019c 4889C7   		movq	%rax, %rdi
 1273 019f E8000000 		call	mbedtls_asn1_write_tag@PLT
 1273      00
 1274 01a4 8945EC   		movl	%eax, -20(%rbp)
 1275 01a7 837DEC00 		cmpl	$0, -20(%rbp)
 1276 01ab 7905     		jns	.L69
 1277              		.loc 1 344 5 is_stmt 0 discriminator 1
 1278 01ad 8B45EC   		movl	-20(%rbp), %eax
 1279 01b0 EB6A     		jmp	.L62
 1280              	.L69:
 1281              		.loc 1 344 5 discriminator 2
 1282 01b2 8B45EC   		movl	-20(%rbp), %eax
 1283 01b5 4898     		cltq
 1284 01b7 480145F0 		addq	%rax, -16(%rbp)
 345:/home/xingli/share/LiteOS_Lab/network/dtls/mbedtls/mbedtls-2.16.2/library/x509_create.c **** 
 346:/home/xingli/share/LiteOS_Lab/network/dtls/mbedtls/mbedtls-2.16.2/library/x509_create.c ****     MBEDTLS_ASN1_CHK_ADD( len, mbedtls_asn1_write_len( p, start, len ) );
 1285              		.loc 1 346 5 is_stmt 1 discriminator 2
 1286 01bb 488B55F0 		movq	-16(%rbp), %rdx
 1287 01bf 488B4DD0 		movq	-48(%rbp), %rcx
 1288 01c3 488B45D8 		movq	-40(%rbp), %rax
 1289 01c7 4889CE   		movq	%rcx, %rsi
 1290 01ca 4889C7   		movq	%rax, %rdi
 1291 01cd E8000000 		call	mbedtls_asn1_write_len@PLT
 1291      00
 1292 01d2 8945EC   		movl	%eax, -20(%rbp)
 1293 01d5 837DEC00 		cmpl	$0, -20(%rbp)
 1294 01d9 7905     		jns	.L70
 1295              		.loc 1 346 5 is_stmt 0 discriminator 1
 1296 01db 8B45EC   		movl	-20(%rbp), %eax
 1297 01de EB3C     		jmp	.L62
 1298              	.L70:
 1299              		.loc 1 346 5 discriminator 2
 1300 01e0 8B45EC   		movl	-20(%rbp), %eax
 1301 01e3 4898     		cltq
 1302 01e5 480145F0 		addq	%rax, -16(%rbp)
 347:/home/xingli/share/LiteOS_Lab/network/dtls/mbedtls/mbedtls-2.16.2/library/x509_create.c ****     MBEDTLS_ASN1_CHK_ADD( len, mbedtls_asn1_write_tag( p, start, MBEDTLS_ASN1_CONSTRUCTED |
 1303              		.loc 1 347 5 is_stmt 1 discriminator 2
 1304 01e9 488B4DD0 		movq	-48(%rbp), %rcx
 1305 01ed 488B45D8 		movq	-40(%rbp), %rax
 1306 01f1 BA300000 		movl	$48, %edx
 1306      00
 1307 01f6 4889CE   		movq	%rcx, %rsi
 1308 01f9 4889C7   		movq	%rax, %rdi
 1309 01fc E8000000 		call	mbedtls_asn1_write_tag@PLT
 1309      00
 1310 0201 8945EC   		movl	%eax, -20(%rbp)
 1311 0204 837DEC00 		cmpl	$0, -20(%rbp)
 1312 0208 7905     		jns	.L71
 1313              		.loc 1 347 5 is_stmt 0 discriminator 1
 1314 020a 8B45EC   		movl	-20(%rbp), %eax
 1315 020d EB0D     		jmp	.L62
 1316              	.L71:
 1317              		.loc 1 347 5 discriminator 2
 1318 020f 8B45EC   		movl	-20(%rbp), %eax
 1319 0212 4898     		cltq
 1320 0214 480145F0 		addq	%rax, -16(%rbp)
 348:/home/xingli/share/LiteOS_Lab/network/dtls/mbedtls/mbedtls-2.16.2/library/x509_create.c ****                                                  MBEDTLS_ASN1_SEQUENCE ) );
GAS LISTING /tmp/cckLzPk8.s 			page 36


 349:/home/xingli/share/LiteOS_Lab/network/dtls/mbedtls/mbedtls-2.16.2/library/x509_create.c **** 
 350:/home/xingli/share/LiteOS_Lab/network/dtls/mbedtls/mbedtls-2.16.2/library/x509_create.c ****     return( (int) len );
 1321              		.loc 1 350 13 is_stmt 1 discriminator 2
 1322 0218 488B45F0 		movq	-16(%rbp), %rax
 1323              	.L62:
 351:/home/xingli/share/LiteOS_Lab/network/dtls/mbedtls/mbedtls-2.16.2/library/x509_create.c **** }
 1324              		.loc 1 351 1
 1325 021c 488B7DF8 		movq	-8(%rbp), %rdi
 1326 0220 6448333C 		xorq	%fs:40, %rdi
 1326      25280000 
 1326      00
 1327 0229 7405     		je	.L72
 1328 022b E8000000 		call	__stack_chk_fail@PLT
 1328      00
 1329              	.L72:
 1330 0230 C9       		leave
 1331              	.LCFI20:
 1332              		.cfi_def_cfa 7, 8
 1333 0231 C3       		ret
 1334              		.cfi_endproc
 1335              	.LFE16:
 1337              		.section	.text.mbedtls_x509_write_extensions,"ax",@progbits
 1338              		.globl	mbedtls_x509_write_extensions
 1340              	mbedtls_x509_write_extensions:
 1341              	.LFB17:
 352:/home/xingli/share/LiteOS_Lab/network/dtls/mbedtls/mbedtls-2.16.2/library/x509_create.c **** 
 353:/home/xingli/share/LiteOS_Lab/network/dtls/mbedtls/mbedtls-2.16.2/library/x509_create.c **** /*
 354:/home/xingli/share/LiteOS_Lab/network/dtls/mbedtls/mbedtls-2.16.2/library/x509_create.c ****  * Extension  ::=  SEQUENCE  {
 355:/home/xingli/share/LiteOS_Lab/network/dtls/mbedtls/mbedtls-2.16.2/library/x509_create.c ****  *     extnID      OBJECT IDENTIFIER,
 356:/home/xingli/share/LiteOS_Lab/network/dtls/mbedtls/mbedtls-2.16.2/library/x509_create.c ****  *     critical    BOOLEAN DEFAULT FALSE,
 357:/home/xingli/share/LiteOS_Lab/network/dtls/mbedtls/mbedtls-2.16.2/library/x509_create.c ****  *     extnValue   OCTET STRING
 358:/home/xingli/share/LiteOS_Lab/network/dtls/mbedtls/mbedtls-2.16.2/library/x509_create.c ****  *                 -- contains the DER encoding of an ASN.1 value
 359:/home/xingli/share/LiteOS_Lab/network/dtls/mbedtls/mbedtls-2.16.2/library/x509_create.c ****  *                 -- corresponding to the extension type identified
 360:/home/xingli/share/LiteOS_Lab/network/dtls/mbedtls/mbedtls-2.16.2/library/x509_create.c ****  *                 -- by extnID
 361:/home/xingli/share/LiteOS_Lab/network/dtls/mbedtls/mbedtls-2.16.2/library/x509_create.c ****  *     }
 362:/home/xingli/share/LiteOS_Lab/network/dtls/mbedtls/mbedtls-2.16.2/library/x509_create.c ****  */
 363:/home/xingli/share/LiteOS_Lab/network/dtls/mbedtls/mbedtls-2.16.2/library/x509_create.c **** int mbedtls_x509_write_extensions( unsigned char **p, unsigned char *start,
 364:/home/xingli/share/LiteOS_Lab/network/dtls/mbedtls/mbedtls-2.16.2/library/x509_create.c ****                            mbedtls_asn1_named_data *first )
 365:/home/xingli/share/LiteOS_Lab/network/dtls/mbedtls/mbedtls-2.16.2/library/x509_create.c **** {
 1342              		.loc 1 365 1
 1343              		.cfi_startproc
 1344 0000 F30F1EFA 		endbr64
 1345 0004 55       		pushq	%rbp
 1346              	.LCFI21:
 1347              		.cfi_def_cfa_offset 16
 1348              		.cfi_offset 6, -16
 1349 0005 4889E5   		movq	%rsp, %rbp
 1350              	.LCFI22:
 1351              		.cfi_def_cfa_register 6
 1352 0008 4883EC40 		subq	$64, %rsp
 1353 000c 48897DD8 		movq	%rdi, -40(%rbp)
 1354 0010 488975D0 		movq	%rsi, -48(%rbp)
 1355 0014 488955C8 		movq	%rdx, -56(%rbp)
 1356              		.loc 1 365 1
 1357 0018 64488B04 		movq	%fs:40, %rax
 1357      25280000 
 1357      00
GAS LISTING /tmp/cckLzPk8.s 			page 37


 1358 0021 488945F8 		movq	%rax, -8(%rbp)
 1359 0025 31C0     		xorl	%eax, %eax
 366:/home/xingli/share/LiteOS_Lab/network/dtls/mbedtls/mbedtls-2.16.2/library/x509_create.c ****     int ret;
 367:/home/xingli/share/LiteOS_Lab/network/dtls/mbedtls/mbedtls-2.16.2/library/x509_create.c ****     size_t len = 0;
 1360              		.loc 1 367 12
 1361 0027 48C745E8 		movq	$0, -24(%rbp)
 1361      00000000 
 368:/home/xingli/share/LiteOS_Lab/network/dtls/mbedtls/mbedtls-2.16.2/library/x509_create.c ****     mbedtls_asn1_named_data *cur_ext = first;
 1362              		.loc 1 368 30
 1363 002f 488B45C8 		movq	-56(%rbp), %rax
 1364 0033 488945F0 		movq	%rax, -16(%rbp)
 369:/home/xingli/share/LiteOS_Lab/network/dtls/mbedtls/mbedtls-2.16.2/library/x509_create.c **** 
 370:/home/xingli/share/LiteOS_Lab/network/dtls/mbedtls/mbedtls-2.16.2/library/x509_create.c ****     while( cur_ext != NULL )
 1365              		.loc 1 370 10
 1366 0037 EB3A     		jmp	.L74
 1367              	.L77:
 371:/home/xingli/share/LiteOS_Lab/network/dtls/mbedtls/mbedtls-2.16.2/library/x509_create.c ****     {
 372:/home/xingli/share/LiteOS_Lab/network/dtls/mbedtls/mbedtls-2.16.2/library/x509_create.c ****         MBEDTLS_ASN1_CHK_ADD( len, x509_write_extension( p, start, cur_ext ) );
 1368              		.loc 1 372 9
 1369 0039 488B55F0 		movq	-16(%rbp), %rdx
 1370 003d 488B4DD0 		movq	-48(%rbp), %rcx
 1371 0041 488B45D8 		movq	-40(%rbp), %rax
 1372 0045 4889CE   		movq	%rcx, %rsi
 1373 0048 4889C7   		movq	%rax, %rdi
 1374 004b E8000000 		call	x509_write_extension
 1374      00
 1375 0050 8945E4   		movl	%eax, -28(%rbp)
 1376 0053 837DE400 		cmpl	$0, -28(%rbp)
 1377 0057 7905     		jns	.L75
 1378              		.loc 1 372 9 is_stmt 0 discriminator 1
 1379 0059 8B45E4   		movl	-28(%rbp), %eax
 1380 005c EB20     		jmp	.L76
 1381              	.L75:
 1382              		.loc 1 372 9 discriminator 2
 1383 005e 8B45E4   		movl	-28(%rbp), %eax
 1384 0061 4898     		cltq
 1385 0063 480145E8 		addq	%rax, -24(%rbp)
 373:/home/xingli/share/LiteOS_Lab/network/dtls/mbedtls/mbedtls-2.16.2/library/x509_create.c ****         cur_ext = cur_ext->next;
 1386              		.loc 1 373 17 is_stmt 1 discriminator 2
 1387 0067 488B45F0 		movq	-16(%rbp), %rax
 1388 006b 488B4030 		movq	48(%rax), %rax
 1389 006f 488945F0 		movq	%rax, -16(%rbp)
 1390              	.L74:
 370:/home/xingli/share/LiteOS_Lab/network/dtls/mbedtls/mbedtls-2.16.2/library/x509_create.c ****     {
 1391              		.loc 1 370 10
 1392 0073 48837DF0 		cmpq	$0, -16(%rbp)
 1392      00
 1393 0078 75BF     		jne	.L77
 374:/home/xingli/share/LiteOS_Lab/network/dtls/mbedtls/mbedtls-2.16.2/library/x509_create.c ****     }
 375:/home/xingli/share/LiteOS_Lab/network/dtls/mbedtls/mbedtls-2.16.2/library/x509_create.c **** 
 376:/home/xingli/share/LiteOS_Lab/network/dtls/mbedtls/mbedtls-2.16.2/library/x509_create.c ****     return( (int) len );
 1394              		.loc 1 376 13
 1395 007a 488B45E8 		movq	-24(%rbp), %rax
 1396              	.L76:
 377:/home/xingli/share/LiteOS_Lab/network/dtls/mbedtls/mbedtls-2.16.2/library/x509_create.c **** }
 1397              		.loc 1 377 1
 1398 007e 488B4DF8 		movq	-8(%rbp), %rcx
GAS LISTING /tmp/cckLzPk8.s 			page 38


 1399 0082 6448330C 		xorq	%fs:40, %rcx
 1399      25280000 
 1399      00
 1400 008b 7405     		je	.L78
 1401 008d E8000000 		call	__stack_chk_fail@PLT
 1401      00
 1402              	.L78:
 1403 0092 C9       		leave
 1404              	.LCFI23:
 1405              		.cfi_def_cfa 7, 8
 1406 0093 C3       		ret
 1407              		.cfi_endproc
 1408              	.LFE17:
 1410              		.text
 1411              	.Letext0:
 1412              		.file 2 "/home/xingli/share/LiteOS_Lab/network/dtls/mbedtls/mbedtls-2.16.2/include/mbedtls/asn1.h"
 1413              		.file 3 "/usr/lib/gcc/x86_64-linux-gnu/9/include/stddef.h"
 3089              		.section	.note.gnu.property,"a"
 3090              		.align 8
 3091 0000 04000000 		.long	 1f - 0f
 3092 0004 10000000 		.long	 4f - 1f
 3093 0008 05000000 		.long	 5
 3094              	0:
 3095 000c 474E5500 		.string	 "GNU"
 3096              	1:
 3097              		.align 8
 3098 0010 020000C0 		.long	 0xc0000002
 3099 0014 04000000 		.long	 3f - 2f
 3100              	2:
 3101 0018 03000000 		.long	 0x3
 3102              	3:
 3103 001c 00000000 		.align 8
 3104              	4:
GAS LISTING /tmp/cckLzPk8.s 			page 39


DEFINED SYMBOLS
                            *ABS*:0000000000000000 x509_create.c
     /tmp/cckLzPk8.s:101    .data.rel.ro.local.x509_attrs:0000000000000000 x509_attrs
     /tmp/cckLzPk8.s:249    .text.x509_attr_descr_from_name:0000000000000000 x509_attr_descr_from_name
     /tmp/cckLzPk8.s:336    .text.mbedtls_x509_string_to_names:0000000000000000 mbedtls_x509_string_to_names
     /tmp/cckLzPk8.s:603    .text.mbedtls_x509_set_extension:0000000000000000 mbedtls_x509_set_extension
     /tmp/cckLzPk8.s:679    .text.x509_write_name:0000000000000000 x509_write_name
     /tmp/cckLzPk8.s:847    .text.mbedtls_x509_write_names:0000000000000000 mbedtls_x509_write_names
     /tmp/cckLzPk8.s:956    .text.mbedtls_x509_write_sig:0000000000000000 mbedtls_x509_write_sig
     /tmp/cckLzPk8.s:1119   .text.x509_write_extension:0000000000000000 x509_write_extension
     /tmp/cckLzPk8.s:1340   .text.mbedtls_x509_write_extensions:0000000000000000 mbedtls_x509_write_extensions

UNDEFINED SYMBOLS
_GLOBAL_OFFSET_TABLE_
strncmp
__stack_chk_fail
strlen
mbedtls_asn1_free_named_data_list
mbedtls_asn1_store_named_data
memcpy
mbedtls_asn1_write_tagged_string
mbedtls_asn1_write_oid
mbedtls_asn1_write_len
mbedtls_asn1_write_tag
mbedtls_asn1_write_algorithm_identifier
mbedtls_asn1_write_raw_buffer
mbedtls_asn1_write_bool
