GAS LISTING /tmp/ccnlqVtp.s 			page 1


   1              		.file	"x509_crt.c"
   2              		.text
   3              	.Ltext0:
   4              		.section	.text.mbedtls_pk_ec,"ax",@progbits
   6              	mbedtls_pk_ec:
   7              	.LFB1:
   8              		.file 1 "/home/xingli/share/LiteOS_Lab/network/dtls/mbedtls/mbedtls-2.16.2/include/mbedtls/pk.h"
   1:/home/xingli/share/LiteOS_Lab/network/dtls/mbedtls/mbedtls-2.16.2/include/mbedtls/pk.h **** /**
   2:/home/xingli/share/LiteOS_Lab/network/dtls/mbedtls/mbedtls-2.16.2/include/mbedtls/pk.h ****  * \file pk.h
   3:/home/xingli/share/LiteOS_Lab/network/dtls/mbedtls/mbedtls-2.16.2/include/mbedtls/pk.h ****  *
   4:/home/xingli/share/LiteOS_Lab/network/dtls/mbedtls/mbedtls-2.16.2/include/mbedtls/pk.h ****  * \brief Public Key abstraction layer
   5:/home/xingli/share/LiteOS_Lab/network/dtls/mbedtls/mbedtls-2.16.2/include/mbedtls/pk.h ****  */
   6:/home/xingli/share/LiteOS_Lab/network/dtls/mbedtls/mbedtls-2.16.2/include/mbedtls/pk.h **** /*
   7:/home/xingli/share/LiteOS_Lab/network/dtls/mbedtls/mbedtls-2.16.2/include/mbedtls/pk.h ****  *  Copyright (C) 2006-2015, ARM Limited, All Rights Reserved
   8:/home/xingli/share/LiteOS_Lab/network/dtls/mbedtls/mbedtls-2.16.2/include/mbedtls/pk.h ****  *  SPDX-License-Identifier: Apache-2.0
   9:/home/xingli/share/LiteOS_Lab/network/dtls/mbedtls/mbedtls-2.16.2/include/mbedtls/pk.h ****  *
  10:/home/xingli/share/LiteOS_Lab/network/dtls/mbedtls/mbedtls-2.16.2/include/mbedtls/pk.h ****  *  Licensed under the Apache License, Version 2.0 (the "License"); you may
  11:/home/xingli/share/LiteOS_Lab/network/dtls/mbedtls/mbedtls-2.16.2/include/mbedtls/pk.h ****  *  not use this file except in compliance with the License.
  12:/home/xingli/share/LiteOS_Lab/network/dtls/mbedtls/mbedtls-2.16.2/include/mbedtls/pk.h ****  *  You may obtain a copy of the License at
  13:/home/xingli/share/LiteOS_Lab/network/dtls/mbedtls/mbedtls-2.16.2/include/mbedtls/pk.h ****  *
  14:/home/xingli/share/LiteOS_Lab/network/dtls/mbedtls/mbedtls-2.16.2/include/mbedtls/pk.h ****  *  http://www.apache.org/licenses/LICENSE-2.0
  15:/home/xingli/share/LiteOS_Lab/network/dtls/mbedtls/mbedtls-2.16.2/include/mbedtls/pk.h ****  *
  16:/home/xingli/share/LiteOS_Lab/network/dtls/mbedtls/mbedtls-2.16.2/include/mbedtls/pk.h ****  *  Unless required by applicable law or agreed to in writing, software
  17:/home/xingli/share/LiteOS_Lab/network/dtls/mbedtls/mbedtls-2.16.2/include/mbedtls/pk.h ****  *  distributed under the License is distributed on an "AS IS" BASIS, WITHOUT
  18:/home/xingli/share/LiteOS_Lab/network/dtls/mbedtls/mbedtls-2.16.2/include/mbedtls/pk.h ****  *  WARRANTIES OR CONDITIONS OF ANY KIND, either express or implied.
  19:/home/xingli/share/LiteOS_Lab/network/dtls/mbedtls/mbedtls-2.16.2/include/mbedtls/pk.h ****  *  See the License for the specific language governing permissions and
  20:/home/xingli/share/LiteOS_Lab/network/dtls/mbedtls/mbedtls-2.16.2/include/mbedtls/pk.h ****  *  limitations under the License.
  21:/home/xingli/share/LiteOS_Lab/network/dtls/mbedtls/mbedtls-2.16.2/include/mbedtls/pk.h ****  *
  22:/home/xingli/share/LiteOS_Lab/network/dtls/mbedtls/mbedtls-2.16.2/include/mbedtls/pk.h ****  *  This file is part of mbed TLS (https://tls.mbed.org)
  23:/home/xingli/share/LiteOS_Lab/network/dtls/mbedtls/mbedtls-2.16.2/include/mbedtls/pk.h ****  */
  24:/home/xingli/share/LiteOS_Lab/network/dtls/mbedtls/mbedtls-2.16.2/include/mbedtls/pk.h **** 
  25:/home/xingli/share/LiteOS_Lab/network/dtls/mbedtls/mbedtls-2.16.2/include/mbedtls/pk.h **** #ifndef MBEDTLS_PK_H
  26:/home/xingli/share/LiteOS_Lab/network/dtls/mbedtls/mbedtls-2.16.2/include/mbedtls/pk.h **** #define MBEDTLS_PK_H
  27:/home/xingli/share/LiteOS_Lab/network/dtls/mbedtls/mbedtls-2.16.2/include/mbedtls/pk.h **** 
  28:/home/xingli/share/LiteOS_Lab/network/dtls/mbedtls/mbedtls-2.16.2/include/mbedtls/pk.h **** #if !defined(MBEDTLS_CONFIG_FILE)
  29:/home/xingli/share/LiteOS_Lab/network/dtls/mbedtls/mbedtls-2.16.2/include/mbedtls/pk.h **** #include "config.h"
  30:/home/xingli/share/LiteOS_Lab/network/dtls/mbedtls/mbedtls-2.16.2/include/mbedtls/pk.h **** #else
  31:/home/xingli/share/LiteOS_Lab/network/dtls/mbedtls/mbedtls-2.16.2/include/mbedtls/pk.h **** #include MBEDTLS_CONFIG_FILE
  32:/home/xingli/share/LiteOS_Lab/network/dtls/mbedtls/mbedtls-2.16.2/include/mbedtls/pk.h **** #endif
  33:/home/xingli/share/LiteOS_Lab/network/dtls/mbedtls/mbedtls-2.16.2/include/mbedtls/pk.h **** 
  34:/home/xingli/share/LiteOS_Lab/network/dtls/mbedtls/mbedtls-2.16.2/include/mbedtls/pk.h **** #include "md.h"
  35:/home/xingli/share/LiteOS_Lab/network/dtls/mbedtls/mbedtls-2.16.2/include/mbedtls/pk.h **** 
  36:/home/xingli/share/LiteOS_Lab/network/dtls/mbedtls/mbedtls-2.16.2/include/mbedtls/pk.h **** #if defined(MBEDTLS_RSA_C)
  37:/home/xingli/share/LiteOS_Lab/network/dtls/mbedtls/mbedtls-2.16.2/include/mbedtls/pk.h **** #include "rsa.h"
  38:/home/xingli/share/LiteOS_Lab/network/dtls/mbedtls/mbedtls-2.16.2/include/mbedtls/pk.h **** #endif
  39:/home/xingli/share/LiteOS_Lab/network/dtls/mbedtls/mbedtls-2.16.2/include/mbedtls/pk.h **** 
  40:/home/xingli/share/LiteOS_Lab/network/dtls/mbedtls/mbedtls-2.16.2/include/mbedtls/pk.h **** #if defined(MBEDTLS_ECP_C)
  41:/home/xingli/share/LiteOS_Lab/network/dtls/mbedtls/mbedtls-2.16.2/include/mbedtls/pk.h **** #include "ecp.h"
  42:/home/xingli/share/LiteOS_Lab/network/dtls/mbedtls/mbedtls-2.16.2/include/mbedtls/pk.h **** #endif
  43:/home/xingli/share/LiteOS_Lab/network/dtls/mbedtls/mbedtls-2.16.2/include/mbedtls/pk.h **** 
  44:/home/xingli/share/LiteOS_Lab/network/dtls/mbedtls/mbedtls-2.16.2/include/mbedtls/pk.h **** #if defined(MBEDTLS_ECDSA_C)
  45:/home/xingli/share/LiteOS_Lab/network/dtls/mbedtls/mbedtls-2.16.2/include/mbedtls/pk.h **** #include "ecdsa.h"
  46:/home/xingli/share/LiteOS_Lab/network/dtls/mbedtls/mbedtls-2.16.2/include/mbedtls/pk.h **** #endif
  47:/home/xingli/share/LiteOS_Lab/network/dtls/mbedtls/mbedtls-2.16.2/include/mbedtls/pk.h **** 
  48:/home/xingli/share/LiteOS_Lab/network/dtls/mbedtls/mbedtls-2.16.2/include/mbedtls/pk.h **** #if ( defined(__ARMCC_VERSION) || defined(_MSC_VER) ) && \
  49:/home/xingli/share/LiteOS_Lab/network/dtls/mbedtls/mbedtls-2.16.2/include/mbedtls/pk.h ****     !defined(inline) && !defined(__cplusplus)
  50:/home/xingli/share/LiteOS_Lab/network/dtls/mbedtls/mbedtls-2.16.2/include/mbedtls/pk.h **** #define inline __inline
GAS LISTING /tmp/ccnlqVtp.s 			page 2


  51:/home/xingli/share/LiteOS_Lab/network/dtls/mbedtls/mbedtls-2.16.2/include/mbedtls/pk.h **** #endif
  52:/home/xingli/share/LiteOS_Lab/network/dtls/mbedtls/mbedtls-2.16.2/include/mbedtls/pk.h **** 
  53:/home/xingli/share/LiteOS_Lab/network/dtls/mbedtls/mbedtls-2.16.2/include/mbedtls/pk.h **** #define MBEDTLS_ERR_PK_ALLOC_FAILED        -0x3F80  /**< Memory allocation failed. */
  54:/home/xingli/share/LiteOS_Lab/network/dtls/mbedtls/mbedtls-2.16.2/include/mbedtls/pk.h **** #define MBEDTLS_ERR_PK_TYPE_MISMATCH       -0x3F00  /**< Type mismatch, eg attempt to encrypt with 
  55:/home/xingli/share/LiteOS_Lab/network/dtls/mbedtls/mbedtls-2.16.2/include/mbedtls/pk.h **** #define MBEDTLS_ERR_PK_BAD_INPUT_DATA      -0x3E80  /**< Bad input parameters to function. */
  56:/home/xingli/share/LiteOS_Lab/network/dtls/mbedtls/mbedtls-2.16.2/include/mbedtls/pk.h **** #define MBEDTLS_ERR_PK_FILE_IO_ERROR       -0x3E00  /**< Read/write of file failed. */
  57:/home/xingli/share/LiteOS_Lab/network/dtls/mbedtls/mbedtls-2.16.2/include/mbedtls/pk.h **** #define MBEDTLS_ERR_PK_KEY_INVALID_VERSION -0x3D80  /**< Unsupported key version */
  58:/home/xingli/share/LiteOS_Lab/network/dtls/mbedtls/mbedtls-2.16.2/include/mbedtls/pk.h **** #define MBEDTLS_ERR_PK_KEY_INVALID_FORMAT  -0x3D00  /**< Invalid key tag or value. */
  59:/home/xingli/share/LiteOS_Lab/network/dtls/mbedtls/mbedtls-2.16.2/include/mbedtls/pk.h **** #define MBEDTLS_ERR_PK_UNKNOWN_PK_ALG      -0x3C80  /**< Key algorithm is unsupported (only RSA and
  60:/home/xingli/share/LiteOS_Lab/network/dtls/mbedtls/mbedtls-2.16.2/include/mbedtls/pk.h **** #define MBEDTLS_ERR_PK_PASSWORD_REQUIRED   -0x3C00  /**< Private key password can't be empty. */
  61:/home/xingli/share/LiteOS_Lab/network/dtls/mbedtls/mbedtls-2.16.2/include/mbedtls/pk.h **** #define MBEDTLS_ERR_PK_PASSWORD_MISMATCH   -0x3B80  /**< Given private key password does not allow 
  62:/home/xingli/share/LiteOS_Lab/network/dtls/mbedtls/mbedtls-2.16.2/include/mbedtls/pk.h **** #define MBEDTLS_ERR_PK_INVALID_PUBKEY      -0x3B00  /**< The pubkey tag or value is invalid (only R
  63:/home/xingli/share/LiteOS_Lab/network/dtls/mbedtls/mbedtls-2.16.2/include/mbedtls/pk.h **** #define MBEDTLS_ERR_PK_INVALID_ALG         -0x3A80  /**< The algorithm tag or value is invalid. */
  64:/home/xingli/share/LiteOS_Lab/network/dtls/mbedtls/mbedtls-2.16.2/include/mbedtls/pk.h **** #define MBEDTLS_ERR_PK_UNKNOWN_NAMED_CURVE -0x3A00  /**< Elliptic curve is unsupported (only NIST c
  65:/home/xingli/share/LiteOS_Lab/network/dtls/mbedtls/mbedtls-2.16.2/include/mbedtls/pk.h **** #define MBEDTLS_ERR_PK_FEATURE_UNAVAILABLE -0x3980  /**< Unavailable feature, e.g. RSA disabled for
  66:/home/xingli/share/LiteOS_Lab/network/dtls/mbedtls/mbedtls-2.16.2/include/mbedtls/pk.h **** #define MBEDTLS_ERR_PK_SIG_LEN_MISMATCH    -0x3900  /**< The buffer contains a valid signature foll
  67:/home/xingli/share/LiteOS_Lab/network/dtls/mbedtls/mbedtls-2.16.2/include/mbedtls/pk.h **** 
  68:/home/xingli/share/LiteOS_Lab/network/dtls/mbedtls/mbedtls-2.16.2/include/mbedtls/pk.h **** /* MBEDTLS_ERR_PK_HW_ACCEL_FAILED is deprecated and should not be used. */
  69:/home/xingli/share/LiteOS_Lab/network/dtls/mbedtls/mbedtls-2.16.2/include/mbedtls/pk.h **** #define MBEDTLS_ERR_PK_HW_ACCEL_FAILED     -0x3880  /**< PK hardware accelerator failed. */
  70:/home/xingli/share/LiteOS_Lab/network/dtls/mbedtls/mbedtls-2.16.2/include/mbedtls/pk.h **** 
  71:/home/xingli/share/LiteOS_Lab/network/dtls/mbedtls/mbedtls-2.16.2/include/mbedtls/pk.h **** #ifdef __cplusplus
  72:/home/xingli/share/LiteOS_Lab/network/dtls/mbedtls/mbedtls-2.16.2/include/mbedtls/pk.h **** extern "C" {
  73:/home/xingli/share/LiteOS_Lab/network/dtls/mbedtls/mbedtls-2.16.2/include/mbedtls/pk.h **** #endif
  74:/home/xingli/share/LiteOS_Lab/network/dtls/mbedtls/mbedtls-2.16.2/include/mbedtls/pk.h **** 
  75:/home/xingli/share/LiteOS_Lab/network/dtls/mbedtls/mbedtls-2.16.2/include/mbedtls/pk.h **** /**
  76:/home/xingli/share/LiteOS_Lab/network/dtls/mbedtls/mbedtls-2.16.2/include/mbedtls/pk.h ****  * \brief          Public key types
  77:/home/xingli/share/LiteOS_Lab/network/dtls/mbedtls/mbedtls-2.16.2/include/mbedtls/pk.h ****  */
  78:/home/xingli/share/LiteOS_Lab/network/dtls/mbedtls/mbedtls-2.16.2/include/mbedtls/pk.h **** typedef enum {
  79:/home/xingli/share/LiteOS_Lab/network/dtls/mbedtls/mbedtls-2.16.2/include/mbedtls/pk.h ****     MBEDTLS_PK_NONE=0,
  80:/home/xingli/share/LiteOS_Lab/network/dtls/mbedtls/mbedtls-2.16.2/include/mbedtls/pk.h ****     MBEDTLS_PK_RSA,
  81:/home/xingli/share/LiteOS_Lab/network/dtls/mbedtls/mbedtls-2.16.2/include/mbedtls/pk.h ****     MBEDTLS_PK_ECKEY,
  82:/home/xingli/share/LiteOS_Lab/network/dtls/mbedtls/mbedtls-2.16.2/include/mbedtls/pk.h ****     MBEDTLS_PK_ECKEY_DH,
  83:/home/xingli/share/LiteOS_Lab/network/dtls/mbedtls/mbedtls-2.16.2/include/mbedtls/pk.h ****     MBEDTLS_PK_ECDSA,
  84:/home/xingli/share/LiteOS_Lab/network/dtls/mbedtls/mbedtls-2.16.2/include/mbedtls/pk.h ****     MBEDTLS_PK_RSA_ALT,
  85:/home/xingli/share/LiteOS_Lab/network/dtls/mbedtls/mbedtls-2.16.2/include/mbedtls/pk.h ****     MBEDTLS_PK_RSASSA_PSS,
  86:/home/xingli/share/LiteOS_Lab/network/dtls/mbedtls/mbedtls-2.16.2/include/mbedtls/pk.h **** } mbedtls_pk_type_t;
  87:/home/xingli/share/LiteOS_Lab/network/dtls/mbedtls/mbedtls-2.16.2/include/mbedtls/pk.h **** 
  88:/home/xingli/share/LiteOS_Lab/network/dtls/mbedtls/mbedtls-2.16.2/include/mbedtls/pk.h **** /**
  89:/home/xingli/share/LiteOS_Lab/network/dtls/mbedtls/mbedtls-2.16.2/include/mbedtls/pk.h ****  * \brief           Options for RSASSA-PSS signature verification.
  90:/home/xingli/share/LiteOS_Lab/network/dtls/mbedtls/mbedtls-2.16.2/include/mbedtls/pk.h ****  *                  See \c mbedtls_rsa_rsassa_pss_verify_ext()
  91:/home/xingli/share/LiteOS_Lab/network/dtls/mbedtls/mbedtls-2.16.2/include/mbedtls/pk.h ****  */
  92:/home/xingli/share/LiteOS_Lab/network/dtls/mbedtls/mbedtls-2.16.2/include/mbedtls/pk.h **** typedef struct mbedtls_pk_rsassa_pss_options
  93:/home/xingli/share/LiteOS_Lab/network/dtls/mbedtls/mbedtls-2.16.2/include/mbedtls/pk.h **** {
  94:/home/xingli/share/LiteOS_Lab/network/dtls/mbedtls/mbedtls-2.16.2/include/mbedtls/pk.h ****     mbedtls_md_type_t mgf1_hash_id;
  95:/home/xingli/share/LiteOS_Lab/network/dtls/mbedtls/mbedtls-2.16.2/include/mbedtls/pk.h ****     int expected_salt_len;
  96:/home/xingli/share/LiteOS_Lab/network/dtls/mbedtls/mbedtls-2.16.2/include/mbedtls/pk.h **** 
  97:/home/xingli/share/LiteOS_Lab/network/dtls/mbedtls/mbedtls-2.16.2/include/mbedtls/pk.h **** } mbedtls_pk_rsassa_pss_options;
  98:/home/xingli/share/LiteOS_Lab/network/dtls/mbedtls/mbedtls-2.16.2/include/mbedtls/pk.h **** 
  99:/home/xingli/share/LiteOS_Lab/network/dtls/mbedtls/mbedtls-2.16.2/include/mbedtls/pk.h **** /**
 100:/home/xingli/share/LiteOS_Lab/network/dtls/mbedtls/mbedtls-2.16.2/include/mbedtls/pk.h ****  * \brief           Types for interfacing with the debug module
 101:/home/xingli/share/LiteOS_Lab/network/dtls/mbedtls/mbedtls-2.16.2/include/mbedtls/pk.h ****  */
 102:/home/xingli/share/LiteOS_Lab/network/dtls/mbedtls/mbedtls-2.16.2/include/mbedtls/pk.h **** typedef enum
 103:/home/xingli/share/LiteOS_Lab/network/dtls/mbedtls/mbedtls-2.16.2/include/mbedtls/pk.h **** {
 104:/home/xingli/share/LiteOS_Lab/network/dtls/mbedtls/mbedtls-2.16.2/include/mbedtls/pk.h ****     MBEDTLS_PK_DEBUG_NONE = 0,
 105:/home/xingli/share/LiteOS_Lab/network/dtls/mbedtls/mbedtls-2.16.2/include/mbedtls/pk.h ****     MBEDTLS_PK_DEBUG_MPI,
 106:/home/xingli/share/LiteOS_Lab/network/dtls/mbedtls/mbedtls-2.16.2/include/mbedtls/pk.h ****     MBEDTLS_PK_DEBUG_ECP,
 107:/home/xingli/share/LiteOS_Lab/network/dtls/mbedtls/mbedtls-2.16.2/include/mbedtls/pk.h **** } mbedtls_pk_debug_type;
GAS LISTING /tmp/ccnlqVtp.s 			page 3


 108:/home/xingli/share/LiteOS_Lab/network/dtls/mbedtls/mbedtls-2.16.2/include/mbedtls/pk.h **** 
 109:/home/xingli/share/LiteOS_Lab/network/dtls/mbedtls/mbedtls-2.16.2/include/mbedtls/pk.h **** /**
 110:/home/xingli/share/LiteOS_Lab/network/dtls/mbedtls/mbedtls-2.16.2/include/mbedtls/pk.h ****  * \brief           Item to send to the debug module
 111:/home/xingli/share/LiteOS_Lab/network/dtls/mbedtls/mbedtls-2.16.2/include/mbedtls/pk.h ****  */
 112:/home/xingli/share/LiteOS_Lab/network/dtls/mbedtls/mbedtls-2.16.2/include/mbedtls/pk.h **** typedef struct mbedtls_pk_debug_item
 113:/home/xingli/share/LiteOS_Lab/network/dtls/mbedtls/mbedtls-2.16.2/include/mbedtls/pk.h **** {
 114:/home/xingli/share/LiteOS_Lab/network/dtls/mbedtls/mbedtls-2.16.2/include/mbedtls/pk.h ****     mbedtls_pk_debug_type type;
 115:/home/xingli/share/LiteOS_Lab/network/dtls/mbedtls/mbedtls-2.16.2/include/mbedtls/pk.h ****     const char *name;
 116:/home/xingli/share/LiteOS_Lab/network/dtls/mbedtls/mbedtls-2.16.2/include/mbedtls/pk.h ****     void *value;
 117:/home/xingli/share/LiteOS_Lab/network/dtls/mbedtls/mbedtls-2.16.2/include/mbedtls/pk.h **** } mbedtls_pk_debug_item;
 118:/home/xingli/share/LiteOS_Lab/network/dtls/mbedtls/mbedtls-2.16.2/include/mbedtls/pk.h **** 
 119:/home/xingli/share/LiteOS_Lab/network/dtls/mbedtls/mbedtls-2.16.2/include/mbedtls/pk.h **** /** Maximum number of item send for debugging, plus 1 */
 120:/home/xingli/share/LiteOS_Lab/network/dtls/mbedtls/mbedtls-2.16.2/include/mbedtls/pk.h **** #define MBEDTLS_PK_DEBUG_MAX_ITEMS 3
 121:/home/xingli/share/LiteOS_Lab/network/dtls/mbedtls/mbedtls-2.16.2/include/mbedtls/pk.h **** 
 122:/home/xingli/share/LiteOS_Lab/network/dtls/mbedtls/mbedtls-2.16.2/include/mbedtls/pk.h **** /**
 123:/home/xingli/share/LiteOS_Lab/network/dtls/mbedtls/mbedtls-2.16.2/include/mbedtls/pk.h ****  * \brief           Public key information and operations
 124:/home/xingli/share/LiteOS_Lab/network/dtls/mbedtls/mbedtls-2.16.2/include/mbedtls/pk.h ****  */
 125:/home/xingli/share/LiteOS_Lab/network/dtls/mbedtls/mbedtls-2.16.2/include/mbedtls/pk.h **** typedef struct mbedtls_pk_info_t mbedtls_pk_info_t;
 126:/home/xingli/share/LiteOS_Lab/network/dtls/mbedtls/mbedtls-2.16.2/include/mbedtls/pk.h **** 
 127:/home/xingli/share/LiteOS_Lab/network/dtls/mbedtls/mbedtls-2.16.2/include/mbedtls/pk.h **** /**
 128:/home/xingli/share/LiteOS_Lab/network/dtls/mbedtls/mbedtls-2.16.2/include/mbedtls/pk.h ****  * \brief           Public key container
 129:/home/xingli/share/LiteOS_Lab/network/dtls/mbedtls/mbedtls-2.16.2/include/mbedtls/pk.h ****  */
 130:/home/xingli/share/LiteOS_Lab/network/dtls/mbedtls/mbedtls-2.16.2/include/mbedtls/pk.h **** typedef struct mbedtls_pk_context
 131:/home/xingli/share/LiteOS_Lab/network/dtls/mbedtls/mbedtls-2.16.2/include/mbedtls/pk.h **** {
 132:/home/xingli/share/LiteOS_Lab/network/dtls/mbedtls/mbedtls-2.16.2/include/mbedtls/pk.h ****     const mbedtls_pk_info_t *   pk_info; /**< Public key information         */
 133:/home/xingli/share/LiteOS_Lab/network/dtls/mbedtls/mbedtls-2.16.2/include/mbedtls/pk.h ****     void *                      pk_ctx;  /**< Underlying public key context  */
 134:/home/xingli/share/LiteOS_Lab/network/dtls/mbedtls/mbedtls-2.16.2/include/mbedtls/pk.h **** } mbedtls_pk_context;
 135:/home/xingli/share/LiteOS_Lab/network/dtls/mbedtls/mbedtls-2.16.2/include/mbedtls/pk.h **** 
 136:/home/xingli/share/LiteOS_Lab/network/dtls/mbedtls/mbedtls-2.16.2/include/mbedtls/pk.h **** #if defined(MBEDTLS_ECDSA_C) && defined(MBEDTLS_ECP_RESTARTABLE)
 137:/home/xingli/share/LiteOS_Lab/network/dtls/mbedtls/mbedtls-2.16.2/include/mbedtls/pk.h **** /**
 138:/home/xingli/share/LiteOS_Lab/network/dtls/mbedtls/mbedtls-2.16.2/include/mbedtls/pk.h ****  * \brief           Context for resuming operations
 139:/home/xingli/share/LiteOS_Lab/network/dtls/mbedtls/mbedtls-2.16.2/include/mbedtls/pk.h ****  */
 140:/home/xingli/share/LiteOS_Lab/network/dtls/mbedtls/mbedtls-2.16.2/include/mbedtls/pk.h **** typedef struct
 141:/home/xingli/share/LiteOS_Lab/network/dtls/mbedtls/mbedtls-2.16.2/include/mbedtls/pk.h **** {
 142:/home/xingli/share/LiteOS_Lab/network/dtls/mbedtls/mbedtls-2.16.2/include/mbedtls/pk.h ****     const mbedtls_pk_info_t *   pk_info; /**< Public key information         */
 143:/home/xingli/share/LiteOS_Lab/network/dtls/mbedtls/mbedtls-2.16.2/include/mbedtls/pk.h ****     void *                      rs_ctx;  /**< Underlying restart context     */
 144:/home/xingli/share/LiteOS_Lab/network/dtls/mbedtls/mbedtls-2.16.2/include/mbedtls/pk.h **** } mbedtls_pk_restart_ctx;
 145:/home/xingli/share/LiteOS_Lab/network/dtls/mbedtls/mbedtls-2.16.2/include/mbedtls/pk.h **** #else /* MBEDTLS_ECDSA_C && MBEDTLS_ECP_RESTARTABLE */
 146:/home/xingli/share/LiteOS_Lab/network/dtls/mbedtls/mbedtls-2.16.2/include/mbedtls/pk.h **** /* Now we can declare functions that take a pointer to that */
 147:/home/xingli/share/LiteOS_Lab/network/dtls/mbedtls/mbedtls-2.16.2/include/mbedtls/pk.h **** typedef void mbedtls_pk_restart_ctx;
 148:/home/xingli/share/LiteOS_Lab/network/dtls/mbedtls/mbedtls-2.16.2/include/mbedtls/pk.h **** #endif /* MBEDTLS_ECDSA_C && MBEDTLS_ECP_RESTARTABLE */
 149:/home/xingli/share/LiteOS_Lab/network/dtls/mbedtls/mbedtls-2.16.2/include/mbedtls/pk.h **** 
 150:/home/xingli/share/LiteOS_Lab/network/dtls/mbedtls/mbedtls-2.16.2/include/mbedtls/pk.h **** #if defined(MBEDTLS_RSA_C)
 151:/home/xingli/share/LiteOS_Lab/network/dtls/mbedtls/mbedtls-2.16.2/include/mbedtls/pk.h **** /**
 152:/home/xingli/share/LiteOS_Lab/network/dtls/mbedtls/mbedtls-2.16.2/include/mbedtls/pk.h ****  * Quick access to an RSA context inside a PK context.
 153:/home/xingli/share/LiteOS_Lab/network/dtls/mbedtls/mbedtls-2.16.2/include/mbedtls/pk.h ****  *
 154:/home/xingli/share/LiteOS_Lab/network/dtls/mbedtls/mbedtls-2.16.2/include/mbedtls/pk.h ****  * \warning You must make sure the PK context actually holds an RSA context
 155:/home/xingli/share/LiteOS_Lab/network/dtls/mbedtls/mbedtls-2.16.2/include/mbedtls/pk.h ****  * before using this function!
 156:/home/xingli/share/LiteOS_Lab/network/dtls/mbedtls/mbedtls-2.16.2/include/mbedtls/pk.h ****  */
 157:/home/xingli/share/LiteOS_Lab/network/dtls/mbedtls/mbedtls-2.16.2/include/mbedtls/pk.h **** static inline mbedtls_rsa_context *mbedtls_pk_rsa( const mbedtls_pk_context pk )
 158:/home/xingli/share/LiteOS_Lab/network/dtls/mbedtls/mbedtls-2.16.2/include/mbedtls/pk.h **** {
 159:/home/xingli/share/LiteOS_Lab/network/dtls/mbedtls/mbedtls-2.16.2/include/mbedtls/pk.h ****     return( (mbedtls_rsa_context *) (pk).pk_ctx );
 160:/home/xingli/share/LiteOS_Lab/network/dtls/mbedtls/mbedtls-2.16.2/include/mbedtls/pk.h **** }
 161:/home/xingli/share/LiteOS_Lab/network/dtls/mbedtls/mbedtls-2.16.2/include/mbedtls/pk.h **** #endif /* MBEDTLS_RSA_C */
 162:/home/xingli/share/LiteOS_Lab/network/dtls/mbedtls/mbedtls-2.16.2/include/mbedtls/pk.h **** 
 163:/home/xingli/share/LiteOS_Lab/network/dtls/mbedtls/mbedtls-2.16.2/include/mbedtls/pk.h **** #if defined(MBEDTLS_ECP_C)
 164:/home/xingli/share/LiteOS_Lab/network/dtls/mbedtls/mbedtls-2.16.2/include/mbedtls/pk.h **** /**
GAS LISTING /tmp/ccnlqVtp.s 			page 4


 165:/home/xingli/share/LiteOS_Lab/network/dtls/mbedtls/mbedtls-2.16.2/include/mbedtls/pk.h ****  * Quick access to an EC context inside a PK context.
 166:/home/xingli/share/LiteOS_Lab/network/dtls/mbedtls/mbedtls-2.16.2/include/mbedtls/pk.h ****  *
 167:/home/xingli/share/LiteOS_Lab/network/dtls/mbedtls/mbedtls-2.16.2/include/mbedtls/pk.h ****  * \warning You must make sure the PK context actually holds an EC context
 168:/home/xingli/share/LiteOS_Lab/network/dtls/mbedtls/mbedtls-2.16.2/include/mbedtls/pk.h ****  * before using this function!
 169:/home/xingli/share/LiteOS_Lab/network/dtls/mbedtls/mbedtls-2.16.2/include/mbedtls/pk.h ****  */
 170:/home/xingli/share/LiteOS_Lab/network/dtls/mbedtls/mbedtls-2.16.2/include/mbedtls/pk.h **** static inline mbedtls_ecp_keypair *mbedtls_pk_ec( const mbedtls_pk_context pk )
 171:/home/xingli/share/LiteOS_Lab/network/dtls/mbedtls/mbedtls-2.16.2/include/mbedtls/pk.h **** {
   9              		.loc 1 171 1
  10              		.cfi_startproc
  11 0000 55       		pushq	%rbp
  12              	.LCFI0:
  13              		.cfi_def_cfa_offset 16
  14              		.cfi_offset 6, -16
  15 0001 4889E5   		movq	%rsp, %rbp
  16              	.LCFI1:
  17              		.cfi_def_cfa_register 6
  18 0004 4883EC20 		subq	$32, %rsp
  19 0008 4889F8   		movq	%rdi, %rax
  20 000b 4889F1   		movq	%rsi, %rcx
  21 000e 4889CA   		movq	%rcx, %rdx
  22 0011 488945E0 		movq	%rax, -32(%rbp)
  23 0015 488955E8 		movq	%rdx, -24(%rbp)
  24              		.loc 1 171 1
  25 0019 64488B04 		movq	%fs:40, %rax
  25      25280000 
  25      00
  26 0022 488945F8 		movq	%rax, -8(%rbp)
  27 0026 31C0     		xorl	%eax, %eax
 172:/home/xingli/share/LiteOS_Lab/network/dtls/mbedtls/mbedtls-2.16.2/include/mbedtls/pk.h ****     return( (mbedtls_ecp_keypair *) (pk).pk_ctx );
  28              		.loc 1 172 13
  29 0028 488B45E8 		movq	-24(%rbp), %rax
 173:/home/xingli/share/LiteOS_Lab/network/dtls/mbedtls/mbedtls-2.16.2/include/mbedtls/pk.h **** }
  30              		.loc 1 173 1
  31 002c 488B55F8 		movq	-8(%rbp), %rdx
  32 0030 64483314 		xorq	%fs:40, %rdx
  32      25280000 
  32      00
  33 0039 7405     		je	.L3
  34 003b E8000000 		call	__stack_chk_fail@PLT
  34      00
  35              	.L3:
  36 0040 C9       		leave
  37              	.LCFI2:
  38              		.cfi_def_cfa 7, 8
  39 0041 C3       		ret
  40              		.cfi_endproc
  41              	.LFE1:
  43              		.globl	mbedtls_x509_crt_profile_default
  44              		.section	.rodata.mbedtls_x509_crt_profile_default,"a"
  45              		.align 16
  48              	mbedtls_x509_crt_profile_default:
  49 0000 F0000000 		.long	240
  50 0004 FFFFFF0F 		.long	268435455
  51 0008 FFFFFF0F 		.long	268435455
  52 000c 00080000 		.long	2048
  53              		.globl	mbedtls_x509_crt_profile_next
  54              		.section	.rodata.mbedtls_x509_crt_profile_next,"a"
GAS LISTING /tmp/ccnlqVtp.s 			page 5


  55              		.align 16
  58              	mbedtls_x509_crt_profile_next:
  59 0000 E0000000 		.long	224
  60 0004 FFFFFF0F 		.long	268435455
  61 0008 FC080000 		.long	2300
  62 000c 00080000 		.long	2048
  63              		.globl	mbedtls_x509_crt_profile_suiteb
  64              		.section	.rodata.mbedtls_x509_crt_profile_suiteb,"a"
  65              		.align 16
  68              	mbedtls_x509_crt_profile_suiteb:
  69 0000 60000000 		.long	96
  70 0004 0A000000 		.long	10
  71 0008 0C000000 		.long	12
  72 000c 00000000 		.long	0
  73              		.section	.text.x509_profile_check_md_alg,"ax",@progbits
  75              	x509_profile_check_md_alg:
  76              	.LFB16:
  77              		.file 2 "/home/xingli/share/LiteOS_Lab/network/dtls/mbedtls/mbedtls-2.16.2/library/x509_crt.c"
   1:/home/xingli/share/LiteOS_Lab/network/dtls/mbedtls/mbedtls-2.16.2/library/x509_crt.c **** /*
   2:/home/xingli/share/LiteOS_Lab/network/dtls/mbedtls/mbedtls-2.16.2/library/x509_crt.c ****  *  X.509 certificate parsing and verification
   3:/home/xingli/share/LiteOS_Lab/network/dtls/mbedtls/mbedtls-2.16.2/library/x509_crt.c ****  *
   4:/home/xingli/share/LiteOS_Lab/network/dtls/mbedtls/mbedtls-2.16.2/library/x509_crt.c ****  *  Copyright (C) 2006-2015, ARM Limited, All Rights Reserved
   5:/home/xingli/share/LiteOS_Lab/network/dtls/mbedtls/mbedtls-2.16.2/library/x509_crt.c ****  *  SPDX-License-Identifier: Apache-2.0
   6:/home/xingli/share/LiteOS_Lab/network/dtls/mbedtls/mbedtls-2.16.2/library/x509_crt.c ****  *
   7:/home/xingli/share/LiteOS_Lab/network/dtls/mbedtls/mbedtls-2.16.2/library/x509_crt.c ****  *  Licensed under the Apache License, Version 2.0 (the "License"); you may
   8:/home/xingli/share/LiteOS_Lab/network/dtls/mbedtls/mbedtls-2.16.2/library/x509_crt.c ****  *  not use this file except in compliance with the License.
   9:/home/xingli/share/LiteOS_Lab/network/dtls/mbedtls/mbedtls-2.16.2/library/x509_crt.c ****  *  You may obtain a copy of the License at
  10:/home/xingli/share/LiteOS_Lab/network/dtls/mbedtls/mbedtls-2.16.2/library/x509_crt.c ****  *
  11:/home/xingli/share/LiteOS_Lab/network/dtls/mbedtls/mbedtls-2.16.2/library/x509_crt.c ****  *  http://www.apache.org/licenses/LICENSE-2.0
  12:/home/xingli/share/LiteOS_Lab/network/dtls/mbedtls/mbedtls-2.16.2/library/x509_crt.c ****  *
  13:/home/xingli/share/LiteOS_Lab/network/dtls/mbedtls/mbedtls-2.16.2/library/x509_crt.c ****  *  Unless required by applicable law or agreed to in writing, software
  14:/home/xingli/share/LiteOS_Lab/network/dtls/mbedtls/mbedtls-2.16.2/library/x509_crt.c ****  *  distributed under the License is distributed on an "AS IS" BASIS, WITHOUT
  15:/home/xingli/share/LiteOS_Lab/network/dtls/mbedtls/mbedtls-2.16.2/library/x509_crt.c ****  *  WARRANTIES OR CONDITIONS OF ANY KIND, either express or implied.
  16:/home/xingli/share/LiteOS_Lab/network/dtls/mbedtls/mbedtls-2.16.2/library/x509_crt.c ****  *  See the License for the specific language governing permissions and
  17:/home/xingli/share/LiteOS_Lab/network/dtls/mbedtls/mbedtls-2.16.2/library/x509_crt.c ****  *  limitations under the License.
  18:/home/xingli/share/LiteOS_Lab/network/dtls/mbedtls/mbedtls-2.16.2/library/x509_crt.c ****  *
  19:/home/xingli/share/LiteOS_Lab/network/dtls/mbedtls/mbedtls-2.16.2/library/x509_crt.c ****  *  This file is part of mbed TLS (https://tls.mbed.org)
  20:/home/xingli/share/LiteOS_Lab/network/dtls/mbedtls/mbedtls-2.16.2/library/x509_crt.c ****  */
  21:/home/xingli/share/LiteOS_Lab/network/dtls/mbedtls/mbedtls-2.16.2/library/x509_crt.c **** /*
  22:/home/xingli/share/LiteOS_Lab/network/dtls/mbedtls/mbedtls-2.16.2/library/x509_crt.c ****  *  The ITU-T X.509 standard defines a certificate format for PKI.
  23:/home/xingli/share/LiteOS_Lab/network/dtls/mbedtls/mbedtls-2.16.2/library/x509_crt.c ****  *
  24:/home/xingli/share/LiteOS_Lab/network/dtls/mbedtls/mbedtls-2.16.2/library/x509_crt.c ****  *  http://www.ietf.org/rfc/rfc5280.txt (Certificates and CRLs)
  25:/home/xingli/share/LiteOS_Lab/network/dtls/mbedtls/mbedtls-2.16.2/library/x509_crt.c ****  *  http://www.ietf.org/rfc/rfc3279.txt (Alg IDs for CRLs)
  26:/home/xingli/share/LiteOS_Lab/network/dtls/mbedtls/mbedtls-2.16.2/library/x509_crt.c ****  *  http://www.ietf.org/rfc/rfc2986.txt (CSRs, aka PKCS#10)
  27:/home/xingli/share/LiteOS_Lab/network/dtls/mbedtls/mbedtls-2.16.2/library/x509_crt.c ****  *
  28:/home/xingli/share/LiteOS_Lab/network/dtls/mbedtls/mbedtls-2.16.2/library/x509_crt.c ****  *  http://www.itu.int/ITU-T/studygroups/com17/languages/X.680-0207.pdf
  29:/home/xingli/share/LiteOS_Lab/network/dtls/mbedtls/mbedtls-2.16.2/library/x509_crt.c ****  *  http://www.itu.int/ITU-T/studygroups/com17/languages/X.690-0207.pdf
  30:/home/xingli/share/LiteOS_Lab/network/dtls/mbedtls/mbedtls-2.16.2/library/x509_crt.c ****  *
  31:/home/xingli/share/LiteOS_Lab/network/dtls/mbedtls/mbedtls-2.16.2/library/x509_crt.c ****  *  [SIRO] https://cabforum.org/wp-content/uploads/Chunghwatelecom201503cabforumV4.pdf
  32:/home/xingli/share/LiteOS_Lab/network/dtls/mbedtls/mbedtls-2.16.2/library/x509_crt.c ****  */
  33:/home/xingli/share/LiteOS_Lab/network/dtls/mbedtls/mbedtls-2.16.2/library/x509_crt.c **** 
  34:/home/xingli/share/LiteOS_Lab/network/dtls/mbedtls/mbedtls-2.16.2/library/x509_crt.c **** #if !defined(MBEDTLS_CONFIG_FILE)
  35:/home/xingli/share/LiteOS_Lab/network/dtls/mbedtls/mbedtls-2.16.2/library/x509_crt.c **** #include "mbedtls/config.h"
  36:/home/xingli/share/LiteOS_Lab/network/dtls/mbedtls/mbedtls-2.16.2/library/x509_crt.c **** #else
  37:/home/xingli/share/LiteOS_Lab/network/dtls/mbedtls/mbedtls-2.16.2/library/x509_crt.c **** #include MBEDTLS_CONFIG_FILE
  38:/home/xingli/share/LiteOS_Lab/network/dtls/mbedtls/mbedtls-2.16.2/library/x509_crt.c **** #endif
  39:/home/xingli/share/LiteOS_Lab/network/dtls/mbedtls/mbedtls-2.16.2/library/x509_crt.c **** 
GAS LISTING /tmp/ccnlqVtp.s 			page 6


  40:/home/xingli/share/LiteOS_Lab/network/dtls/mbedtls/mbedtls-2.16.2/library/x509_crt.c **** #if defined(MBEDTLS_X509_CRT_PARSE_C)
  41:/home/xingli/share/LiteOS_Lab/network/dtls/mbedtls/mbedtls-2.16.2/library/x509_crt.c **** 
  42:/home/xingli/share/LiteOS_Lab/network/dtls/mbedtls/mbedtls-2.16.2/library/x509_crt.c **** #include "mbedtls/x509_crt.h"
  43:/home/xingli/share/LiteOS_Lab/network/dtls/mbedtls/mbedtls-2.16.2/library/x509_crt.c **** #include "mbedtls/oid.h"
  44:/home/xingli/share/LiteOS_Lab/network/dtls/mbedtls/mbedtls-2.16.2/library/x509_crt.c **** #include "mbedtls/platform_util.h"
  45:/home/xingli/share/LiteOS_Lab/network/dtls/mbedtls/mbedtls-2.16.2/library/x509_crt.c **** 
  46:/home/xingli/share/LiteOS_Lab/network/dtls/mbedtls/mbedtls-2.16.2/library/x509_crt.c **** #include <string.h>
  47:/home/xingli/share/LiteOS_Lab/network/dtls/mbedtls/mbedtls-2.16.2/library/x509_crt.c **** 
  48:/home/xingli/share/LiteOS_Lab/network/dtls/mbedtls/mbedtls-2.16.2/library/x509_crt.c **** #if defined(MBEDTLS_PEM_PARSE_C)
  49:/home/xingli/share/LiteOS_Lab/network/dtls/mbedtls/mbedtls-2.16.2/library/x509_crt.c **** #include "mbedtls/pem.h"
  50:/home/xingli/share/LiteOS_Lab/network/dtls/mbedtls/mbedtls-2.16.2/library/x509_crt.c **** #endif
  51:/home/xingli/share/LiteOS_Lab/network/dtls/mbedtls/mbedtls-2.16.2/library/x509_crt.c **** 
  52:/home/xingli/share/LiteOS_Lab/network/dtls/mbedtls/mbedtls-2.16.2/library/x509_crt.c **** #if defined(MBEDTLS_PLATFORM_C)
  53:/home/xingli/share/LiteOS_Lab/network/dtls/mbedtls/mbedtls-2.16.2/library/x509_crt.c **** #include "mbedtls/platform.h"
  54:/home/xingli/share/LiteOS_Lab/network/dtls/mbedtls/mbedtls-2.16.2/library/x509_crt.c **** #else
  55:/home/xingli/share/LiteOS_Lab/network/dtls/mbedtls/mbedtls-2.16.2/library/x509_crt.c **** #include <stdio.h>
  56:/home/xingli/share/LiteOS_Lab/network/dtls/mbedtls/mbedtls-2.16.2/library/x509_crt.c **** #include <stdlib.h>
  57:/home/xingli/share/LiteOS_Lab/network/dtls/mbedtls/mbedtls-2.16.2/library/x509_crt.c **** #define mbedtls_free       free
  58:/home/xingli/share/LiteOS_Lab/network/dtls/mbedtls/mbedtls-2.16.2/library/x509_crt.c **** #define mbedtls_calloc    calloc
  59:/home/xingli/share/LiteOS_Lab/network/dtls/mbedtls/mbedtls-2.16.2/library/x509_crt.c **** #define mbedtls_snprintf   snprintf
  60:/home/xingli/share/LiteOS_Lab/network/dtls/mbedtls/mbedtls-2.16.2/library/x509_crt.c **** #endif
  61:/home/xingli/share/LiteOS_Lab/network/dtls/mbedtls/mbedtls-2.16.2/library/x509_crt.c **** 
  62:/home/xingli/share/LiteOS_Lab/network/dtls/mbedtls/mbedtls-2.16.2/library/x509_crt.c **** #if defined(MBEDTLS_THREADING_C)
  63:/home/xingli/share/LiteOS_Lab/network/dtls/mbedtls/mbedtls-2.16.2/library/x509_crt.c **** #include "mbedtls/threading.h"
  64:/home/xingli/share/LiteOS_Lab/network/dtls/mbedtls/mbedtls-2.16.2/library/x509_crt.c **** #endif
  65:/home/xingli/share/LiteOS_Lab/network/dtls/mbedtls/mbedtls-2.16.2/library/x509_crt.c **** 
  66:/home/xingli/share/LiteOS_Lab/network/dtls/mbedtls/mbedtls-2.16.2/library/x509_crt.c **** #if defined(_WIN32) && !defined(EFIX64) && !defined(EFI32)
  67:/home/xingli/share/LiteOS_Lab/network/dtls/mbedtls/mbedtls-2.16.2/library/x509_crt.c **** #include <windows.h>
  68:/home/xingli/share/LiteOS_Lab/network/dtls/mbedtls/mbedtls-2.16.2/library/x509_crt.c **** #else
  69:/home/xingli/share/LiteOS_Lab/network/dtls/mbedtls/mbedtls-2.16.2/library/x509_crt.c **** #include <time.h>
  70:/home/xingli/share/LiteOS_Lab/network/dtls/mbedtls/mbedtls-2.16.2/library/x509_crt.c **** #endif
  71:/home/xingli/share/LiteOS_Lab/network/dtls/mbedtls/mbedtls-2.16.2/library/x509_crt.c **** 
  72:/home/xingli/share/LiteOS_Lab/network/dtls/mbedtls/mbedtls-2.16.2/library/x509_crt.c **** #if defined(MBEDTLS_FS_IO)
  73:/home/xingli/share/LiteOS_Lab/network/dtls/mbedtls/mbedtls-2.16.2/library/x509_crt.c **** #include <stdio.h>
  74:/home/xingli/share/LiteOS_Lab/network/dtls/mbedtls/mbedtls-2.16.2/library/x509_crt.c **** #if !defined(_WIN32) || defined(EFIX64) || defined(EFI32)
  75:/home/xingli/share/LiteOS_Lab/network/dtls/mbedtls/mbedtls-2.16.2/library/x509_crt.c **** #include <sys/types.h>
  76:/home/xingli/share/LiteOS_Lab/network/dtls/mbedtls/mbedtls-2.16.2/library/x509_crt.c **** #include <sys/stat.h>
  77:/home/xingli/share/LiteOS_Lab/network/dtls/mbedtls/mbedtls-2.16.2/library/x509_crt.c **** #include <dirent.h>
  78:/home/xingli/share/LiteOS_Lab/network/dtls/mbedtls/mbedtls-2.16.2/library/x509_crt.c **** #endif /* !_WIN32 || EFIX64 || EFI32 */
  79:/home/xingli/share/LiteOS_Lab/network/dtls/mbedtls/mbedtls-2.16.2/library/x509_crt.c **** #endif
  80:/home/xingli/share/LiteOS_Lab/network/dtls/mbedtls/mbedtls-2.16.2/library/x509_crt.c **** 
  81:/home/xingli/share/LiteOS_Lab/network/dtls/mbedtls/mbedtls-2.16.2/library/x509_crt.c **** /*
  82:/home/xingli/share/LiteOS_Lab/network/dtls/mbedtls/mbedtls-2.16.2/library/x509_crt.c ****  * Item in a verification chain: cert and flags for it
  83:/home/xingli/share/LiteOS_Lab/network/dtls/mbedtls/mbedtls-2.16.2/library/x509_crt.c ****  */
  84:/home/xingli/share/LiteOS_Lab/network/dtls/mbedtls/mbedtls-2.16.2/library/x509_crt.c **** typedef struct {
  85:/home/xingli/share/LiteOS_Lab/network/dtls/mbedtls/mbedtls-2.16.2/library/x509_crt.c ****     mbedtls_x509_crt *crt;
  86:/home/xingli/share/LiteOS_Lab/network/dtls/mbedtls/mbedtls-2.16.2/library/x509_crt.c ****     uint32_t flags;
  87:/home/xingli/share/LiteOS_Lab/network/dtls/mbedtls/mbedtls-2.16.2/library/x509_crt.c **** } x509_crt_verify_chain_item;
  88:/home/xingli/share/LiteOS_Lab/network/dtls/mbedtls/mbedtls-2.16.2/library/x509_crt.c **** 
  89:/home/xingli/share/LiteOS_Lab/network/dtls/mbedtls/mbedtls-2.16.2/library/x509_crt.c **** /*
  90:/home/xingli/share/LiteOS_Lab/network/dtls/mbedtls/mbedtls-2.16.2/library/x509_crt.c ****  * Max size of verification chain: end-entity + intermediates + trusted root
  91:/home/xingli/share/LiteOS_Lab/network/dtls/mbedtls/mbedtls-2.16.2/library/x509_crt.c ****  */
  92:/home/xingli/share/LiteOS_Lab/network/dtls/mbedtls/mbedtls-2.16.2/library/x509_crt.c **** #define X509_MAX_VERIFY_CHAIN_SIZE    ( MBEDTLS_X509_MAX_INTERMEDIATE_CA + 2 )
  93:/home/xingli/share/LiteOS_Lab/network/dtls/mbedtls/mbedtls-2.16.2/library/x509_crt.c **** 
  94:/home/xingli/share/LiteOS_Lab/network/dtls/mbedtls/mbedtls-2.16.2/library/x509_crt.c **** /*
  95:/home/xingli/share/LiteOS_Lab/network/dtls/mbedtls/mbedtls-2.16.2/library/x509_crt.c ****  * Default profile
  96:/home/xingli/share/LiteOS_Lab/network/dtls/mbedtls/mbedtls-2.16.2/library/x509_crt.c ****  */
GAS LISTING /tmp/ccnlqVtp.s 			page 7


  97:/home/xingli/share/LiteOS_Lab/network/dtls/mbedtls/mbedtls-2.16.2/library/x509_crt.c **** const mbedtls_x509_crt_profile mbedtls_x509_crt_profile_default =
  98:/home/xingli/share/LiteOS_Lab/network/dtls/mbedtls/mbedtls-2.16.2/library/x509_crt.c **** {
  99:/home/xingli/share/LiteOS_Lab/network/dtls/mbedtls/mbedtls-2.16.2/library/x509_crt.c **** #if defined(MBEDTLS_TLS_DEFAULT_ALLOW_SHA1_IN_CERTIFICATES)
 100:/home/xingli/share/LiteOS_Lab/network/dtls/mbedtls/mbedtls-2.16.2/library/x509_crt.c ****     /* Allow SHA-1 (weak, but still safe in controlled environments) */
 101:/home/xingli/share/LiteOS_Lab/network/dtls/mbedtls/mbedtls-2.16.2/library/x509_crt.c ****     MBEDTLS_X509_ID_FLAG( MBEDTLS_MD_SHA1 ) |
 102:/home/xingli/share/LiteOS_Lab/network/dtls/mbedtls/mbedtls-2.16.2/library/x509_crt.c **** #endif
 103:/home/xingli/share/LiteOS_Lab/network/dtls/mbedtls/mbedtls-2.16.2/library/x509_crt.c ****     /* Only SHA-2 hashes */
 104:/home/xingli/share/LiteOS_Lab/network/dtls/mbedtls/mbedtls-2.16.2/library/x509_crt.c ****     MBEDTLS_X509_ID_FLAG( MBEDTLS_MD_SHA224 ) |
 105:/home/xingli/share/LiteOS_Lab/network/dtls/mbedtls/mbedtls-2.16.2/library/x509_crt.c ****     MBEDTLS_X509_ID_FLAG( MBEDTLS_MD_SHA256 ) |
 106:/home/xingli/share/LiteOS_Lab/network/dtls/mbedtls/mbedtls-2.16.2/library/x509_crt.c ****     MBEDTLS_X509_ID_FLAG( MBEDTLS_MD_SHA384 ) |
 107:/home/xingli/share/LiteOS_Lab/network/dtls/mbedtls/mbedtls-2.16.2/library/x509_crt.c ****     MBEDTLS_X509_ID_FLAG( MBEDTLS_MD_SHA512 ),
 108:/home/xingli/share/LiteOS_Lab/network/dtls/mbedtls/mbedtls-2.16.2/library/x509_crt.c ****     0xFFFFFFF, /* Any PK alg    */
 109:/home/xingli/share/LiteOS_Lab/network/dtls/mbedtls/mbedtls-2.16.2/library/x509_crt.c ****     0xFFFFFFF, /* Any curve     */
 110:/home/xingli/share/LiteOS_Lab/network/dtls/mbedtls/mbedtls-2.16.2/library/x509_crt.c ****     2048,
 111:/home/xingli/share/LiteOS_Lab/network/dtls/mbedtls/mbedtls-2.16.2/library/x509_crt.c **** };
 112:/home/xingli/share/LiteOS_Lab/network/dtls/mbedtls/mbedtls-2.16.2/library/x509_crt.c **** 
 113:/home/xingli/share/LiteOS_Lab/network/dtls/mbedtls/mbedtls-2.16.2/library/x509_crt.c **** /*
 114:/home/xingli/share/LiteOS_Lab/network/dtls/mbedtls/mbedtls-2.16.2/library/x509_crt.c ****  * Next-default profile
 115:/home/xingli/share/LiteOS_Lab/network/dtls/mbedtls/mbedtls-2.16.2/library/x509_crt.c ****  */
 116:/home/xingli/share/LiteOS_Lab/network/dtls/mbedtls/mbedtls-2.16.2/library/x509_crt.c **** const mbedtls_x509_crt_profile mbedtls_x509_crt_profile_next =
 117:/home/xingli/share/LiteOS_Lab/network/dtls/mbedtls/mbedtls-2.16.2/library/x509_crt.c **** {
 118:/home/xingli/share/LiteOS_Lab/network/dtls/mbedtls/mbedtls-2.16.2/library/x509_crt.c ****     /* Hashes from SHA-256 and above */
 119:/home/xingli/share/LiteOS_Lab/network/dtls/mbedtls/mbedtls-2.16.2/library/x509_crt.c ****     MBEDTLS_X509_ID_FLAG( MBEDTLS_MD_SHA256 ) |
 120:/home/xingli/share/LiteOS_Lab/network/dtls/mbedtls/mbedtls-2.16.2/library/x509_crt.c ****     MBEDTLS_X509_ID_FLAG( MBEDTLS_MD_SHA384 ) |
 121:/home/xingli/share/LiteOS_Lab/network/dtls/mbedtls/mbedtls-2.16.2/library/x509_crt.c ****     MBEDTLS_X509_ID_FLAG( MBEDTLS_MD_SHA512 ),
 122:/home/xingli/share/LiteOS_Lab/network/dtls/mbedtls/mbedtls-2.16.2/library/x509_crt.c ****     0xFFFFFFF, /* Any PK alg    */
 123:/home/xingli/share/LiteOS_Lab/network/dtls/mbedtls/mbedtls-2.16.2/library/x509_crt.c **** #if defined(MBEDTLS_ECP_C)
 124:/home/xingli/share/LiteOS_Lab/network/dtls/mbedtls/mbedtls-2.16.2/library/x509_crt.c ****     /* Curves at or above 128-bit security level */
 125:/home/xingli/share/LiteOS_Lab/network/dtls/mbedtls/mbedtls-2.16.2/library/x509_crt.c ****     MBEDTLS_X509_ID_FLAG( MBEDTLS_ECP_DP_SECP256R1 ) |
 126:/home/xingli/share/LiteOS_Lab/network/dtls/mbedtls/mbedtls-2.16.2/library/x509_crt.c ****     MBEDTLS_X509_ID_FLAG( MBEDTLS_ECP_DP_SECP384R1 ) |
 127:/home/xingli/share/LiteOS_Lab/network/dtls/mbedtls/mbedtls-2.16.2/library/x509_crt.c ****     MBEDTLS_X509_ID_FLAG( MBEDTLS_ECP_DP_SECP521R1 ) |
 128:/home/xingli/share/LiteOS_Lab/network/dtls/mbedtls/mbedtls-2.16.2/library/x509_crt.c ****     MBEDTLS_X509_ID_FLAG( MBEDTLS_ECP_DP_BP256R1 ) |
 129:/home/xingli/share/LiteOS_Lab/network/dtls/mbedtls/mbedtls-2.16.2/library/x509_crt.c ****     MBEDTLS_X509_ID_FLAG( MBEDTLS_ECP_DP_BP384R1 ) |
 130:/home/xingli/share/LiteOS_Lab/network/dtls/mbedtls/mbedtls-2.16.2/library/x509_crt.c ****     MBEDTLS_X509_ID_FLAG( MBEDTLS_ECP_DP_BP512R1 ) |
 131:/home/xingli/share/LiteOS_Lab/network/dtls/mbedtls/mbedtls-2.16.2/library/x509_crt.c ****     MBEDTLS_X509_ID_FLAG( MBEDTLS_ECP_DP_SECP256K1 ),
 132:/home/xingli/share/LiteOS_Lab/network/dtls/mbedtls/mbedtls-2.16.2/library/x509_crt.c **** #else
 133:/home/xingli/share/LiteOS_Lab/network/dtls/mbedtls/mbedtls-2.16.2/library/x509_crt.c ****     0,
 134:/home/xingli/share/LiteOS_Lab/network/dtls/mbedtls/mbedtls-2.16.2/library/x509_crt.c **** #endif
 135:/home/xingli/share/LiteOS_Lab/network/dtls/mbedtls/mbedtls-2.16.2/library/x509_crt.c ****     2048,
 136:/home/xingli/share/LiteOS_Lab/network/dtls/mbedtls/mbedtls-2.16.2/library/x509_crt.c **** };
 137:/home/xingli/share/LiteOS_Lab/network/dtls/mbedtls/mbedtls-2.16.2/library/x509_crt.c **** 
 138:/home/xingli/share/LiteOS_Lab/network/dtls/mbedtls/mbedtls-2.16.2/library/x509_crt.c **** /*
 139:/home/xingli/share/LiteOS_Lab/network/dtls/mbedtls/mbedtls-2.16.2/library/x509_crt.c ****  * NSA Suite B Profile
 140:/home/xingli/share/LiteOS_Lab/network/dtls/mbedtls/mbedtls-2.16.2/library/x509_crt.c ****  */
 141:/home/xingli/share/LiteOS_Lab/network/dtls/mbedtls/mbedtls-2.16.2/library/x509_crt.c **** const mbedtls_x509_crt_profile mbedtls_x509_crt_profile_suiteb =
 142:/home/xingli/share/LiteOS_Lab/network/dtls/mbedtls/mbedtls-2.16.2/library/x509_crt.c **** {
 143:/home/xingli/share/LiteOS_Lab/network/dtls/mbedtls/mbedtls-2.16.2/library/x509_crt.c ****     /* Only SHA-256 and 384 */
 144:/home/xingli/share/LiteOS_Lab/network/dtls/mbedtls/mbedtls-2.16.2/library/x509_crt.c ****     MBEDTLS_X509_ID_FLAG( MBEDTLS_MD_SHA256 ) |
 145:/home/xingli/share/LiteOS_Lab/network/dtls/mbedtls/mbedtls-2.16.2/library/x509_crt.c ****     MBEDTLS_X509_ID_FLAG( MBEDTLS_MD_SHA384 ),
 146:/home/xingli/share/LiteOS_Lab/network/dtls/mbedtls/mbedtls-2.16.2/library/x509_crt.c ****     /* Only ECDSA */
 147:/home/xingli/share/LiteOS_Lab/network/dtls/mbedtls/mbedtls-2.16.2/library/x509_crt.c ****     MBEDTLS_X509_ID_FLAG( MBEDTLS_PK_ECDSA ) |
 148:/home/xingli/share/LiteOS_Lab/network/dtls/mbedtls/mbedtls-2.16.2/library/x509_crt.c ****     MBEDTLS_X509_ID_FLAG( MBEDTLS_PK_ECKEY ),
 149:/home/xingli/share/LiteOS_Lab/network/dtls/mbedtls/mbedtls-2.16.2/library/x509_crt.c **** #if defined(MBEDTLS_ECP_C)
 150:/home/xingli/share/LiteOS_Lab/network/dtls/mbedtls/mbedtls-2.16.2/library/x509_crt.c ****     /* Only NIST P-256 and P-384 */
 151:/home/xingli/share/LiteOS_Lab/network/dtls/mbedtls/mbedtls-2.16.2/library/x509_crt.c ****     MBEDTLS_X509_ID_FLAG( MBEDTLS_ECP_DP_SECP256R1 ) |
 152:/home/xingli/share/LiteOS_Lab/network/dtls/mbedtls/mbedtls-2.16.2/library/x509_crt.c ****     MBEDTLS_X509_ID_FLAG( MBEDTLS_ECP_DP_SECP384R1 ),
 153:/home/xingli/share/LiteOS_Lab/network/dtls/mbedtls/mbedtls-2.16.2/library/x509_crt.c **** #else
GAS LISTING /tmp/ccnlqVtp.s 			page 8


 154:/home/xingli/share/LiteOS_Lab/network/dtls/mbedtls/mbedtls-2.16.2/library/x509_crt.c ****     0,
 155:/home/xingli/share/LiteOS_Lab/network/dtls/mbedtls/mbedtls-2.16.2/library/x509_crt.c **** #endif
 156:/home/xingli/share/LiteOS_Lab/network/dtls/mbedtls/mbedtls-2.16.2/library/x509_crt.c ****     0,
 157:/home/xingli/share/LiteOS_Lab/network/dtls/mbedtls/mbedtls-2.16.2/library/x509_crt.c **** };
 158:/home/xingli/share/LiteOS_Lab/network/dtls/mbedtls/mbedtls-2.16.2/library/x509_crt.c **** 
 159:/home/xingli/share/LiteOS_Lab/network/dtls/mbedtls/mbedtls-2.16.2/library/x509_crt.c **** /*
 160:/home/xingli/share/LiteOS_Lab/network/dtls/mbedtls/mbedtls-2.16.2/library/x509_crt.c ****  * Check md_alg against profile
 161:/home/xingli/share/LiteOS_Lab/network/dtls/mbedtls/mbedtls-2.16.2/library/x509_crt.c ****  * Return 0 if md_alg is acceptable for this profile, -1 otherwise
 162:/home/xingli/share/LiteOS_Lab/network/dtls/mbedtls/mbedtls-2.16.2/library/x509_crt.c ****  */
 163:/home/xingli/share/LiteOS_Lab/network/dtls/mbedtls/mbedtls-2.16.2/library/x509_crt.c **** static int x509_profile_check_md_alg( const mbedtls_x509_crt_profile *profile,
 164:/home/xingli/share/LiteOS_Lab/network/dtls/mbedtls/mbedtls-2.16.2/library/x509_crt.c ****                                       mbedtls_md_type_t md_alg )
 165:/home/xingli/share/LiteOS_Lab/network/dtls/mbedtls/mbedtls-2.16.2/library/x509_crt.c **** {
  78              		.loc 2 165 1
  79              		.cfi_startproc
  80 0000 F30F1EFA 		endbr64
  81 0004 55       		pushq	%rbp
  82              	.LCFI3:
  83              		.cfi_def_cfa_offset 16
  84              		.cfi_offset 6, -16
  85 0005 4889E5   		movq	%rsp, %rbp
  86              	.LCFI4:
  87              		.cfi_def_cfa_register 6
  88 0008 4883EC20 		subq	$32, %rsp
  89 000c 48897DE8 		movq	%rdi, -24(%rbp)
  90 0010 8975E4   		movl	%esi, -28(%rbp)
  91              		.loc 2 165 1
  92 0013 64488B04 		movq	%fs:40, %rax
  92      25280000 
  92      00
  93 001c 488945F8 		movq	%rax, -8(%rbp)
  94 0020 31C0     		xorl	%eax, %eax
 166:/home/xingli/share/LiteOS_Lab/network/dtls/mbedtls/mbedtls-2.16.2/library/x509_crt.c ****     if( md_alg == MBEDTLS_MD_NONE )
  95              		.loc 2 166 7
  96 0022 837DE400 		cmpl	$0, -28(%rbp)
  97 0026 7507     		jne	.L5
 167:/home/xingli/share/LiteOS_Lab/network/dtls/mbedtls/mbedtls-2.16.2/library/x509_crt.c ****         return( -1 );
  98              		.loc 2 167 15
  99 0028 B8FFFFFF 		movl	$-1, %eax
  99      FF
 100 002d EB29     		jmp	.L6
 101              	.L5:
 168:/home/xingli/share/LiteOS_Lab/network/dtls/mbedtls/mbedtls-2.16.2/library/x509_crt.c **** 
 169:/home/xingli/share/LiteOS_Lab/network/dtls/mbedtls/mbedtls-2.16.2/library/x509_crt.c ****     if( ( profile->allowed_mds & MBEDTLS_X509_ID_FLAG( md_alg ) ) != 0 )
 102              		.loc 2 169 18
 103 002f 488B45E8 		movq	-24(%rbp), %rax
 104 0033 8B00     		movl	(%rax), %eax
 105              		.loc 2 169 34
 106 0035 8B55E4   		movl	-28(%rbp), %edx
 107 0038 83EA01   		subl	$1, %edx
 108 003b BE010000 		movl	$1, %esi
 108      00
 109 0040 89D1     		movl	%edx, %ecx
 110 0042 D3E6     		sall	%cl, %esi
 111 0044 89F2     		movl	%esi, %edx
 112              		.loc 2 169 32
 113 0046 21D0     		andl	%edx, %eax
 114              		.loc 2 169 7
GAS LISTING /tmp/ccnlqVtp.s 			page 9


 115 0048 85C0     		testl	%eax, %eax
 116 004a 7407     		je	.L7
 170:/home/xingli/share/LiteOS_Lab/network/dtls/mbedtls/mbedtls-2.16.2/library/x509_crt.c ****         return( 0 );
 117              		.loc 2 170 15
 118 004c B8000000 		movl	$0, %eax
 118      00
 119 0051 EB05     		jmp	.L6
 120              	.L7:
 171:/home/xingli/share/LiteOS_Lab/network/dtls/mbedtls/mbedtls-2.16.2/library/x509_crt.c **** 
 172:/home/xingli/share/LiteOS_Lab/network/dtls/mbedtls/mbedtls-2.16.2/library/x509_crt.c ****     return( -1 );
 121              		.loc 2 172 11
 122 0053 B8FFFFFF 		movl	$-1, %eax
 122      FF
 123              	.L6:
 173:/home/xingli/share/LiteOS_Lab/network/dtls/mbedtls/mbedtls-2.16.2/library/x509_crt.c **** }
 124              		.loc 2 173 1
 125 0058 488B7DF8 		movq	-8(%rbp), %rdi
 126 005c 6448333C 		xorq	%fs:40, %rdi
 126      25280000 
 126      00
 127 0065 7405     		je	.L8
 128 0067 E8000000 		call	__stack_chk_fail@PLT
 128      00
 129              	.L8:
 130 006c C9       		leave
 131              	.LCFI5:
 132              		.cfi_def_cfa 7, 8
 133 006d C3       		ret
 134              		.cfi_endproc
 135              	.LFE16:
 137              		.section	.text.x509_profile_check_pk_alg,"ax",@progbits
 139              	x509_profile_check_pk_alg:
 140              	.LFB17:
 174:/home/xingli/share/LiteOS_Lab/network/dtls/mbedtls/mbedtls-2.16.2/library/x509_crt.c **** 
 175:/home/xingli/share/LiteOS_Lab/network/dtls/mbedtls/mbedtls-2.16.2/library/x509_crt.c **** /*
 176:/home/xingli/share/LiteOS_Lab/network/dtls/mbedtls/mbedtls-2.16.2/library/x509_crt.c ****  * Check pk_alg against profile
 177:/home/xingli/share/LiteOS_Lab/network/dtls/mbedtls/mbedtls-2.16.2/library/x509_crt.c ****  * Return 0 if pk_alg is acceptable for this profile, -1 otherwise
 178:/home/xingli/share/LiteOS_Lab/network/dtls/mbedtls/mbedtls-2.16.2/library/x509_crt.c ****  */
 179:/home/xingli/share/LiteOS_Lab/network/dtls/mbedtls/mbedtls-2.16.2/library/x509_crt.c **** static int x509_profile_check_pk_alg( const mbedtls_x509_crt_profile *profile,
 180:/home/xingli/share/LiteOS_Lab/network/dtls/mbedtls/mbedtls-2.16.2/library/x509_crt.c ****                                       mbedtls_pk_type_t pk_alg )
 181:/home/xingli/share/LiteOS_Lab/network/dtls/mbedtls/mbedtls-2.16.2/library/x509_crt.c **** {
 141              		.loc 2 181 1
 142              		.cfi_startproc
 143 0000 F30F1EFA 		endbr64
 144 0004 55       		pushq	%rbp
 145              	.LCFI6:
 146              		.cfi_def_cfa_offset 16
 147              		.cfi_offset 6, -16
 148 0005 4889E5   		movq	%rsp, %rbp
 149              	.LCFI7:
 150              		.cfi_def_cfa_register 6
 151 0008 4883EC20 		subq	$32, %rsp
 152 000c 48897DE8 		movq	%rdi, -24(%rbp)
 153 0010 8975E4   		movl	%esi, -28(%rbp)
 154              		.loc 2 181 1
 155 0013 64488B04 		movq	%fs:40, %rax
 155      25280000 
GAS LISTING /tmp/ccnlqVtp.s 			page 10


 155      00
 156 001c 488945F8 		movq	%rax, -8(%rbp)
 157 0020 31C0     		xorl	%eax, %eax
 182:/home/xingli/share/LiteOS_Lab/network/dtls/mbedtls/mbedtls-2.16.2/library/x509_crt.c ****     if( pk_alg == MBEDTLS_PK_NONE )
 158              		.loc 2 182 7
 159 0022 837DE400 		cmpl	$0, -28(%rbp)
 160 0026 7507     		jne	.L10
 183:/home/xingli/share/LiteOS_Lab/network/dtls/mbedtls/mbedtls-2.16.2/library/x509_crt.c ****         return( -1 );
 161              		.loc 2 183 15
 162 0028 B8FFFFFF 		movl	$-1, %eax
 162      FF
 163 002d EB2A     		jmp	.L11
 164              	.L10:
 184:/home/xingli/share/LiteOS_Lab/network/dtls/mbedtls/mbedtls-2.16.2/library/x509_crt.c **** 
 185:/home/xingli/share/LiteOS_Lab/network/dtls/mbedtls/mbedtls-2.16.2/library/x509_crt.c ****     if( ( profile->allowed_pks & MBEDTLS_X509_ID_FLAG( pk_alg ) ) != 0 )
 165              		.loc 2 185 18
 166 002f 488B45E8 		movq	-24(%rbp), %rax
 167 0033 8B4004   		movl	4(%rax), %eax
 168              		.loc 2 185 34
 169 0036 8B55E4   		movl	-28(%rbp), %edx
 170 0039 83EA01   		subl	$1, %edx
 171 003c BE010000 		movl	$1, %esi
 171      00
 172 0041 89D1     		movl	%edx, %ecx
 173 0043 D3E6     		sall	%cl, %esi
 174 0045 89F2     		movl	%esi, %edx
 175              		.loc 2 185 32
 176 0047 21D0     		andl	%edx, %eax
 177              		.loc 2 185 7
 178 0049 85C0     		testl	%eax, %eax
 179 004b 7407     		je	.L12
 186:/home/xingli/share/LiteOS_Lab/network/dtls/mbedtls/mbedtls-2.16.2/library/x509_crt.c ****         return( 0 );
 180              		.loc 2 186 15
 181 004d B8000000 		movl	$0, %eax
 181      00
 182 0052 EB05     		jmp	.L11
 183              	.L12:
 187:/home/xingli/share/LiteOS_Lab/network/dtls/mbedtls/mbedtls-2.16.2/library/x509_crt.c **** 
 188:/home/xingli/share/LiteOS_Lab/network/dtls/mbedtls/mbedtls-2.16.2/library/x509_crt.c ****     return( -1 );
 184              		.loc 2 188 11
 185 0054 B8FFFFFF 		movl	$-1, %eax
 185      FF
 186              	.L11:
 189:/home/xingli/share/LiteOS_Lab/network/dtls/mbedtls/mbedtls-2.16.2/library/x509_crt.c **** }
 187              		.loc 2 189 1
 188 0059 488B7DF8 		movq	-8(%rbp), %rdi
 189 005d 6448333C 		xorq	%fs:40, %rdi
 189      25280000 
 189      00
 190 0066 7405     		je	.L13
 191 0068 E8000000 		call	__stack_chk_fail@PLT
 191      00
 192              	.L13:
 193 006d C9       		leave
 194              	.LCFI8:
 195              		.cfi_def_cfa 7, 8
 196 006e C3       		ret
GAS LISTING /tmp/ccnlqVtp.s 			page 11


 197              		.cfi_endproc
 198              	.LFE17:
 200              		.section	.text.x509_profile_check_key,"ax",@progbits
 202              	x509_profile_check_key:
 203              	.LFB18:
 190:/home/xingli/share/LiteOS_Lab/network/dtls/mbedtls/mbedtls-2.16.2/library/x509_crt.c **** 
 191:/home/xingli/share/LiteOS_Lab/network/dtls/mbedtls/mbedtls-2.16.2/library/x509_crt.c **** /*
 192:/home/xingli/share/LiteOS_Lab/network/dtls/mbedtls/mbedtls-2.16.2/library/x509_crt.c ****  * Check key against profile
 193:/home/xingli/share/LiteOS_Lab/network/dtls/mbedtls/mbedtls-2.16.2/library/x509_crt.c ****  * Return 0 if pk is acceptable for this profile, -1 otherwise
 194:/home/xingli/share/LiteOS_Lab/network/dtls/mbedtls/mbedtls-2.16.2/library/x509_crt.c ****  */
 195:/home/xingli/share/LiteOS_Lab/network/dtls/mbedtls/mbedtls-2.16.2/library/x509_crt.c **** static int x509_profile_check_key( const mbedtls_x509_crt_profile *profile,
 196:/home/xingli/share/LiteOS_Lab/network/dtls/mbedtls/mbedtls-2.16.2/library/x509_crt.c ****                                    const mbedtls_pk_context *pk )
 197:/home/xingli/share/LiteOS_Lab/network/dtls/mbedtls/mbedtls-2.16.2/library/x509_crt.c **** {
 204              		.loc 2 197 1
 205              		.cfi_startproc
 206 0000 F30F1EFA 		endbr64
 207 0004 55       		pushq	%rbp
 208              	.LCFI9:
 209              		.cfi_def_cfa_offset 16
 210              		.cfi_offset 6, -16
 211 0005 4889E5   		movq	%rsp, %rbp
 212              	.LCFI10:
 213              		.cfi_def_cfa_register 6
 214 0008 4883EC20 		subq	$32, %rsp
 215 000c 48897DE8 		movq	%rdi, -24(%rbp)
 216 0010 488975E0 		movq	%rsi, -32(%rbp)
 217              		.loc 2 197 1
 218 0014 64488B04 		movq	%fs:40, %rax
 218      25280000 
 218      00
 219 001d 488945F8 		movq	%rax, -8(%rbp)
 220 0021 31C0     		xorl	%eax, %eax
 198:/home/xingli/share/LiteOS_Lab/network/dtls/mbedtls/mbedtls-2.16.2/library/x509_crt.c ****     const mbedtls_pk_type_t pk_alg = mbedtls_pk_get_type( pk );
 221              		.loc 2 198 38
 222 0023 488B45E0 		movq	-32(%rbp), %rax
 223 0027 4889C7   		movq	%rax, %rdi
 224 002a E8000000 		call	mbedtls_pk_get_type@PLT
 224      00
 225 002f 8945F0   		movl	%eax, -16(%rbp)
 199:/home/xingli/share/LiteOS_Lab/network/dtls/mbedtls/mbedtls-2.16.2/library/x509_crt.c **** 
 200:/home/xingli/share/LiteOS_Lab/network/dtls/mbedtls/mbedtls-2.16.2/library/x509_crt.c **** #if defined(MBEDTLS_RSA_C)
 201:/home/xingli/share/LiteOS_Lab/network/dtls/mbedtls/mbedtls-2.16.2/library/x509_crt.c ****     if( pk_alg == MBEDTLS_PK_RSA || pk_alg == MBEDTLS_PK_RSASSA_PSS )
 226              		.loc 2 201 7
 227 0032 837DF001 		cmpl	$1, -16(%rbp)
 228 0036 7406     		je	.L15
 229              		.loc 2 201 34 discriminator 1
 230 0038 837DF006 		cmpl	$6, -16(%rbp)
 231 003c 7528     		jne	.L16
 232              	.L15:
 202:/home/xingli/share/LiteOS_Lab/network/dtls/mbedtls/mbedtls-2.16.2/library/x509_crt.c ****     {
 203:/home/xingli/share/LiteOS_Lab/network/dtls/mbedtls/mbedtls-2.16.2/library/x509_crt.c ****         if( mbedtls_pk_get_bitlen( pk ) >= profile->rsa_min_bitlen )
 233              		.loc 2 203 13
 234 003e 488B45E0 		movq	-32(%rbp), %rax
 235 0042 4889C7   		movq	%rax, %rdi
 236 0045 E8000000 		call	mbedtls_pk_get_bitlen@PLT
 236      00
 237              		.loc 2 203 51
GAS LISTING /tmp/ccnlqVtp.s 			page 12


 238 004a 488B55E8 		movq	-24(%rbp), %rdx
 239 004e 8B520C   		movl	12(%rdx), %edx
 240 0051 89D2     		movl	%edx, %edx
 241              		.loc 2 203 11
 242 0053 4839D0   		cmpq	%rdx, %rax
 243 0056 7207     		jb	.L17
 204:/home/xingli/share/LiteOS_Lab/network/dtls/mbedtls/mbedtls-2.16.2/library/x509_crt.c ****             return( 0 );
 244              		.loc 2 204 19
 245 0058 B8000000 		movl	$0, %eax
 245      00
 246 005d EB72     		jmp	.L18
 247              	.L17:
 205:/home/xingli/share/LiteOS_Lab/network/dtls/mbedtls/mbedtls-2.16.2/library/x509_crt.c **** 
 206:/home/xingli/share/LiteOS_Lab/network/dtls/mbedtls/mbedtls-2.16.2/library/x509_crt.c ****         return( -1 );
 248              		.loc 2 206 15
 249 005f B8FFFFFF 		movl	$-1, %eax
 249      FF
 250 0064 EB6B     		jmp	.L18
 251              	.L16:
 207:/home/xingli/share/LiteOS_Lab/network/dtls/mbedtls/mbedtls-2.16.2/library/x509_crt.c ****     }
 208:/home/xingli/share/LiteOS_Lab/network/dtls/mbedtls/mbedtls-2.16.2/library/x509_crt.c **** #endif
 209:/home/xingli/share/LiteOS_Lab/network/dtls/mbedtls/mbedtls-2.16.2/library/x509_crt.c **** 
 210:/home/xingli/share/LiteOS_Lab/network/dtls/mbedtls/mbedtls-2.16.2/library/x509_crt.c **** #if defined(MBEDTLS_ECP_C)
 211:/home/xingli/share/LiteOS_Lab/network/dtls/mbedtls/mbedtls-2.16.2/library/x509_crt.c ****     if( pk_alg == MBEDTLS_PK_ECDSA ||
 252              		.loc 2 211 7
 253 0066 837DF004 		cmpl	$4, -16(%rbp)
 254 006a 740C     		je	.L19
 255              		.loc 2 211 36 discriminator 1
 256 006c 837DF002 		cmpl	$2, -16(%rbp)
 257 0070 7406     		je	.L19
 212:/home/xingli/share/LiteOS_Lab/network/dtls/mbedtls/mbedtls-2.16.2/library/x509_crt.c ****         pk_alg == MBEDTLS_PK_ECKEY ||
 258              		.loc 2 212 36
 259 0072 837DF003 		cmpl	$3, -16(%rbp)
 260 0076 7554     		jne	.L20
 261              	.L19:
 262              	.LBB2:
 213:/home/xingli/share/LiteOS_Lab/network/dtls/mbedtls/mbedtls-2.16.2/library/x509_crt.c ****         pk_alg == MBEDTLS_PK_ECKEY_DH )
 214:/home/xingli/share/LiteOS_Lab/network/dtls/mbedtls/mbedtls-2.16.2/library/x509_crt.c ****     {
 215:/home/xingli/share/LiteOS_Lab/network/dtls/mbedtls/mbedtls-2.16.2/library/x509_crt.c ****         const mbedtls_ecp_group_id gid = mbedtls_pk_ec( *pk )->grp.id;
 263              		.loc 2 215 42
 264 0078 488B45E0 		movq	-32(%rbp), %rax
 265 007c 488B10   		movq	(%rax), %rdx
 266 007f 488B4008 		movq	8(%rax), %rax
 267 0083 4889D7   		movq	%rdx, %rdi
 268 0086 4889C6   		movq	%rax, %rsi
 269 0089 E8000000 		call	mbedtls_pk_ec
 269      00
 270              		.loc 2 215 36
 271 008e 8B00     		movl	(%rax), %eax
 272 0090 8945F4   		movl	%eax, -12(%rbp)
 216:/home/xingli/share/LiteOS_Lab/network/dtls/mbedtls/mbedtls-2.16.2/library/x509_crt.c **** 
 217:/home/xingli/share/LiteOS_Lab/network/dtls/mbedtls/mbedtls-2.16.2/library/x509_crt.c ****         if( gid == MBEDTLS_ECP_DP_NONE )
 273              		.loc 2 217 11
 274 0093 837DF400 		cmpl	$0, -12(%rbp)
 275 0097 7507     		jne	.L21
 218:/home/xingli/share/LiteOS_Lab/network/dtls/mbedtls/mbedtls-2.16.2/library/x509_crt.c ****             return( -1 );
 276              		.loc 2 218 19
GAS LISTING /tmp/ccnlqVtp.s 			page 13


 277 0099 B8FFFFFF 		movl	$-1, %eax
 277      FF
 278 009e EB31     		jmp	.L18
 279              	.L21:
 219:/home/xingli/share/LiteOS_Lab/network/dtls/mbedtls/mbedtls-2.16.2/library/x509_crt.c **** 
 220:/home/xingli/share/LiteOS_Lab/network/dtls/mbedtls/mbedtls-2.16.2/library/x509_crt.c ****         if( ( profile->allowed_curves & MBEDTLS_X509_ID_FLAG( gid ) ) != 0 )
 280              		.loc 2 220 22
 281 00a0 488B45E8 		movq	-24(%rbp), %rax
 282 00a4 8B4008   		movl	8(%rax), %eax
 283              		.loc 2 220 41
 284 00a7 8B55F4   		movl	-12(%rbp), %edx
 285 00aa 83EA01   		subl	$1, %edx
 286 00ad BE010000 		movl	$1, %esi
 286      00
 287 00b2 89D1     		movl	%edx, %ecx
 288 00b4 D3E6     		sall	%cl, %esi
 289 00b6 89F2     		movl	%esi, %edx
 290              		.loc 2 220 39
 291 00b8 21D0     		andl	%edx, %eax
 292              		.loc 2 220 11
 293 00ba 85C0     		testl	%eax, %eax
 294 00bc 7407     		je	.L22
 221:/home/xingli/share/LiteOS_Lab/network/dtls/mbedtls/mbedtls-2.16.2/library/x509_crt.c ****             return( 0 );
 295              		.loc 2 221 19
 296 00be B8000000 		movl	$0, %eax
 296      00
 297 00c3 EB0C     		jmp	.L18
 298              	.L22:
 222:/home/xingli/share/LiteOS_Lab/network/dtls/mbedtls/mbedtls-2.16.2/library/x509_crt.c **** 
 223:/home/xingli/share/LiteOS_Lab/network/dtls/mbedtls/mbedtls-2.16.2/library/x509_crt.c ****         return( -1 );
 299              		.loc 2 223 15
 300 00c5 B8FFFFFF 		movl	$-1, %eax
 300      FF
 301 00ca EB05     		jmp	.L18
 302              	.L20:
 303              	.LBE2:
 224:/home/xingli/share/LiteOS_Lab/network/dtls/mbedtls/mbedtls-2.16.2/library/x509_crt.c ****     }
 225:/home/xingli/share/LiteOS_Lab/network/dtls/mbedtls/mbedtls-2.16.2/library/x509_crt.c **** #endif
 226:/home/xingli/share/LiteOS_Lab/network/dtls/mbedtls/mbedtls-2.16.2/library/x509_crt.c **** 
 227:/home/xingli/share/LiteOS_Lab/network/dtls/mbedtls/mbedtls-2.16.2/library/x509_crt.c ****     return( -1 );
 304              		.loc 2 227 11
 305 00cc B8FFFFFF 		movl	$-1, %eax
 305      FF
 306              	.L18:
 228:/home/xingli/share/LiteOS_Lab/network/dtls/mbedtls/mbedtls-2.16.2/library/x509_crt.c **** }
 307              		.loc 2 228 1
 308 00d1 488B4DF8 		movq	-8(%rbp), %rcx
 309 00d5 6448330C 		xorq	%fs:40, %rcx
 309      25280000 
 309      00
 310 00de 7405     		je	.L23
 311 00e0 E8000000 		call	__stack_chk_fail@PLT
 311      00
 312              	.L23:
 313 00e5 C9       		leave
 314              	.LCFI11:
 315              		.cfi_def_cfa 7, 8
GAS LISTING /tmp/ccnlqVtp.s 			page 14


 316 00e6 C3       		ret
 317              		.cfi_endproc
 318              	.LFE18:
 320              		.section	.text.x509_memcasecmp,"ax",@progbits
 322              	x509_memcasecmp:
 323              	.LFB19:
 229:/home/xingli/share/LiteOS_Lab/network/dtls/mbedtls/mbedtls-2.16.2/library/x509_crt.c **** 
 230:/home/xingli/share/LiteOS_Lab/network/dtls/mbedtls/mbedtls-2.16.2/library/x509_crt.c **** /*
 231:/home/xingli/share/LiteOS_Lab/network/dtls/mbedtls/mbedtls-2.16.2/library/x509_crt.c ****  * Like memcmp, but case-insensitive and always returns -1 if different
 232:/home/xingli/share/LiteOS_Lab/network/dtls/mbedtls/mbedtls-2.16.2/library/x509_crt.c ****  */
 233:/home/xingli/share/LiteOS_Lab/network/dtls/mbedtls/mbedtls-2.16.2/library/x509_crt.c **** static int x509_memcasecmp( const void *s1, const void *s2, size_t len )
 234:/home/xingli/share/LiteOS_Lab/network/dtls/mbedtls/mbedtls-2.16.2/library/x509_crt.c **** {
 324              		.loc 2 234 1
 325              		.cfi_startproc
 326 0000 F30F1EFA 		endbr64
 327 0004 55       		pushq	%rbp
 328              	.LCFI12:
 329              		.cfi_def_cfa_offset 16
 330              		.cfi_offset 6, -16
 331 0005 4889E5   		movq	%rsp, %rbp
 332              	.LCFI13:
 333              		.cfi_def_cfa_register 6
 334 0008 4883EC50 		subq	$80, %rsp
 335 000c 48897DC8 		movq	%rdi, -56(%rbp)
 336 0010 488975C0 		movq	%rsi, -64(%rbp)
 337 0014 488955B8 		movq	%rdx, -72(%rbp)
 338              		.loc 2 234 1
 339 0018 64488B04 		movq	%fs:40, %rax
 339      25280000 
 339      00
 340 0021 488945F8 		movq	%rax, -8(%rbp)
 341 0025 31C0     		xorl	%eax, %eax
 235:/home/xingli/share/LiteOS_Lab/network/dtls/mbedtls/mbedtls-2.16.2/library/x509_crt.c ****     size_t i;
 236:/home/xingli/share/LiteOS_Lab/network/dtls/mbedtls/mbedtls-2.16.2/library/x509_crt.c ****     unsigned char diff;
 237:/home/xingli/share/LiteOS_Lab/network/dtls/mbedtls/mbedtls-2.16.2/library/x509_crt.c ****     const unsigned char *n1 = s1, *n2 = s2;
 342              		.loc 2 237 26
 343 0027 488B45C8 		movq	-56(%rbp), %rax
 344 002b 488945E8 		movq	%rax, -24(%rbp)
 345              		.loc 2 237 36
 346 002f 488B45C0 		movq	-64(%rbp), %rax
 347 0033 488945F0 		movq	%rax, -16(%rbp)
 238:/home/xingli/share/LiteOS_Lab/network/dtls/mbedtls/mbedtls-2.16.2/library/x509_crt.c **** 
 239:/home/xingli/share/LiteOS_Lab/network/dtls/mbedtls/mbedtls-2.16.2/library/x509_crt.c ****     for( i = 0; i < len; i++ )
 348              		.loc 2 239 12
 349 0037 48C745E0 		movq	$0, -32(%rbp)
 349      00000000 
 350              		.loc 2 239 5
 351 003f E9850000 		jmp	.L25
 351      00
 352              	.L32:
 240:/home/xingli/share/LiteOS_Lab/network/dtls/mbedtls/mbedtls-2.16.2/library/x509_crt.c ****     {
 241:/home/xingli/share/LiteOS_Lab/network/dtls/mbedtls/mbedtls-2.16.2/library/x509_crt.c ****         diff = n1[i] ^ n2[i];
 353              		.loc 2 241 18
 354 0044 488B55E8 		movq	-24(%rbp), %rdx
 355 0048 488B45E0 		movq	-32(%rbp), %rax
 356 004c 4801D0   		addq	%rdx, %rax
 357 004f 0FB608   		movzbl	(%rax), %ecx
GAS LISTING /tmp/ccnlqVtp.s 			page 15


 358              		.loc 2 241 26
 359 0052 488B55F0 		movq	-16(%rbp), %rdx
 360 0056 488B45E0 		movq	-32(%rbp), %rax
 361 005a 4801D0   		addq	%rdx, %rax
 362 005d 0FB600   		movzbl	(%rax), %eax
 363              		.loc 2 241 14
 364 0060 31C8     		xorl	%ecx, %eax
 365 0062 8845DF   		movb	%al, -33(%rbp)
 242:/home/xingli/share/LiteOS_Lab/network/dtls/mbedtls/mbedtls-2.16.2/library/x509_crt.c **** 
 243:/home/xingli/share/LiteOS_Lab/network/dtls/mbedtls/mbedtls-2.16.2/library/x509_crt.c ****         if( diff == 0 )
 366              		.loc 2 243 11
 367 0065 807DDF00 		cmpb	$0, -33(%rbp)
 368 0069 7455     		je	.L34
 244:/home/xingli/share/LiteOS_Lab/network/dtls/mbedtls/mbedtls-2.16.2/library/x509_crt.c ****             continue;
 245:/home/xingli/share/LiteOS_Lab/network/dtls/mbedtls/mbedtls-2.16.2/library/x509_crt.c **** 
 246:/home/xingli/share/LiteOS_Lab/network/dtls/mbedtls/mbedtls-2.16.2/library/x509_crt.c ****         if( diff == 32 &&
 369              		.loc 2 246 11
 370 006b 807DDF20 		cmpb	$32, -33(%rbp)
 371 006f 7548     		jne	.L28
 247:/home/xingli/share/LiteOS_Lab/network/dtls/mbedtls/mbedtls-2.16.2/library/x509_crt.c ****             ( ( n1[i] >= 'a' && n1[i] <= 'z' ) ||
 372              		.loc 2 247 19 discriminator 1
 373 0071 488B55E8 		movq	-24(%rbp), %rdx
 374 0075 488B45E0 		movq	-32(%rbp), %rax
 375 0079 4801D0   		addq	%rdx, %rax
 376 007c 0FB600   		movzbl	(%rax), %eax
 246:/home/xingli/share/LiteOS_Lab/network/dtls/mbedtls/mbedtls-2.16.2/library/x509_crt.c ****             ( ( n1[i] >= 'a' && n1[i] <= 'z' ) ||
 377              		.loc 2 246 24 discriminator 1
 378 007f 3C60     		cmpb	$96, %al
 379 0081 7612     		jbe	.L29
 380              		.loc 2 247 35
 381 0083 488B55E8 		movq	-24(%rbp), %rdx
 382 0087 488B45E0 		movq	-32(%rbp), %rax
 383 008b 4801D0   		addq	%rdx, %rax
 384 008e 0FB600   		movzbl	(%rax), %eax
 385              		.loc 2 247 30
 386 0091 3C7A     		cmpb	$122, %al
 387 0093 762E     		jbe	.L35
 388              	.L29:
 248:/home/xingli/share/LiteOS_Lab/network/dtls/mbedtls/mbedtls-2.16.2/library/x509_crt.c ****               ( n1[i] >= 'A' && n1[i] <= 'Z' ) ) )
 389              		.loc 2 248 19 discriminator 1
 390 0095 488B55E8 		movq	-24(%rbp), %rdx
 391 0099 488B45E0 		movq	-32(%rbp), %rax
 392 009d 4801D0   		addq	%rdx, %rax
 393 00a0 0FB600   		movzbl	(%rax), %eax
 247:/home/xingli/share/LiteOS_Lab/network/dtls/mbedtls/mbedtls-2.16.2/library/x509_crt.c ****             ( ( n1[i] >= 'a' && n1[i] <= 'z' ) ||
 394              		.loc 2 247 48 discriminator 1
 395 00a3 3C40     		cmpb	$64, %al
 396 00a5 7612     		jbe	.L28
 397              		.loc 2 248 35
 398 00a7 488B55E8 		movq	-24(%rbp), %rdx
 399 00ab 488B45E0 		movq	-32(%rbp), %rax
 400 00af 4801D0   		addq	%rdx, %rax
 401 00b2 0FB600   		movzbl	(%rax), %eax
 402              		.loc 2 248 30
 403 00b5 3C5A     		cmpb	$90, %al
 404 00b7 760A     		jbe	.L35
 405              	.L28:
GAS LISTING /tmp/ccnlqVtp.s 			page 16


 249:/home/xingli/share/LiteOS_Lab/network/dtls/mbedtls/mbedtls-2.16.2/library/x509_crt.c ****         {
 250:/home/xingli/share/LiteOS_Lab/network/dtls/mbedtls/mbedtls-2.16.2/library/x509_crt.c ****             continue;
 251:/home/xingli/share/LiteOS_Lab/network/dtls/mbedtls/mbedtls-2.16.2/library/x509_crt.c ****         }
 252:/home/xingli/share/LiteOS_Lab/network/dtls/mbedtls/mbedtls-2.16.2/library/x509_crt.c **** 
 253:/home/xingli/share/LiteOS_Lab/network/dtls/mbedtls/mbedtls-2.16.2/library/x509_crt.c ****         return( -1 );
 406              		.loc 2 253 15
 407 00b9 B8FFFFFF 		movl	$-1, %eax
 407      FF
 408 00be EB1C     		jmp	.L31
 409              	.L34:
 244:/home/xingli/share/LiteOS_Lab/network/dtls/mbedtls/mbedtls-2.16.2/library/x509_crt.c **** 
 410              		.loc 2 244 13
 411 00c0 90       		nop
 412 00c1 EB01     		jmp	.L27
 413              	.L35:
 250:/home/xingli/share/LiteOS_Lab/network/dtls/mbedtls/mbedtls-2.16.2/library/x509_crt.c ****         }
 414              		.loc 2 250 13
 415 00c3 90       		nop
 416              	.L27:
 239:/home/xingli/share/LiteOS_Lab/network/dtls/mbedtls/mbedtls-2.16.2/library/x509_crt.c ****     {
 417              		.loc 2 239 27 discriminator 2
 418 00c4 488345E0 		addq	$1, -32(%rbp)
 418      01
 419              	.L25:
 239:/home/xingli/share/LiteOS_Lab/network/dtls/mbedtls/mbedtls-2.16.2/library/x509_crt.c ****     {
 420              		.loc 2 239 5 discriminator 1
 421 00c9 488B45E0 		movq	-32(%rbp), %rax
 422 00cd 483B45B8 		cmpq	-72(%rbp), %rax
 423 00d1 0F826DFF 		jb	.L32
 423      FFFF
 254:/home/xingli/share/LiteOS_Lab/network/dtls/mbedtls/mbedtls-2.16.2/library/x509_crt.c ****     }
 255:/home/xingli/share/LiteOS_Lab/network/dtls/mbedtls/mbedtls-2.16.2/library/x509_crt.c **** 
 256:/home/xingli/share/LiteOS_Lab/network/dtls/mbedtls/mbedtls-2.16.2/library/x509_crt.c ****     return( 0 );
 424              		.loc 2 256 11
 425 00d7 B8000000 		movl	$0, %eax
 425      00
 426              	.L31:
 257:/home/xingli/share/LiteOS_Lab/network/dtls/mbedtls/mbedtls-2.16.2/library/x509_crt.c **** }
 427              		.loc 2 257 1
 428 00dc 488B75F8 		movq	-8(%rbp), %rsi
 429 00e0 64483334 		xorq	%fs:40, %rsi
 429      25280000 
 429      00
 430 00e9 7405     		je	.L33
 431 00eb E8000000 		call	__stack_chk_fail@PLT
 431      00
 432              	.L33:
 433 00f0 C9       		leave
 434              	.LCFI14:
 435              		.cfi_def_cfa 7, 8
 436 00f1 C3       		ret
 437              		.cfi_endproc
 438              	.LFE19:
 440              		.section	.text.x509_check_wildcard,"ax",@progbits
 442              	x509_check_wildcard:
 443              	.LFB20:
 258:/home/xingli/share/LiteOS_Lab/network/dtls/mbedtls/mbedtls-2.16.2/library/x509_crt.c **** 
GAS LISTING /tmp/ccnlqVtp.s 			page 17


 259:/home/xingli/share/LiteOS_Lab/network/dtls/mbedtls/mbedtls-2.16.2/library/x509_crt.c **** /*
 260:/home/xingli/share/LiteOS_Lab/network/dtls/mbedtls/mbedtls-2.16.2/library/x509_crt.c ****  * Return 0 if name matches wildcard, -1 otherwise
 261:/home/xingli/share/LiteOS_Lab/network/dtls/mbedtls/mbedtls-2.16.2/library/x509_crt.c ****  */
 262:/home/xingli/share/LiteOS_Lab/network/dtls/mbedtls/mbedtls-2.16.2/library/x509_crt.c **** static int x509_check_wildcard( const char *cn, const mbedtls_x509_buf *name )
 263:/home/xingli/share/LiteOS_Lab/network/dtls/mbedtls/mbedtls-2.16.2/library/x509_crt.c **** {
 444              		.loc 2 263 1
 445              		.cfi_startproc
 446 0000 F30F1EFA 		endbr64
 447 0004 55       		pushq	%rbp
 448              	.LCFI15:
 449              		.cfi_def_cfa_offset 16
 450              		.cfi_offset 6, -16
 451 0005 4889E5   		movq	%rsp, %rbp
 452              	.LCFI16:
 453              		.cfi_def_cfa_register 6
 454 0008 4883EC30 		subq	$48, %rsp
 455 000c 48897DD8 		movq	%rdi, -40(%rbp)
 456 0010 488975D0 		movq	%rsi, -48(%rbp)
 457              		.loc 2 263 1
 458 0014 64488B04 		movq	%fs:40, %rax
 458      25280000 
 458      00
 459 001d 488945F8 		movq	%rax, -8(%rbp)
 460 0021 31C0     		xorl	%eax, %eax
 264:/home/xingli/share/LiteOS_Lab/network/dtls/mbedtls/mbedtls-2.16.2/library/x509_crt.c ****     size_t i;
 265:/home/xingli/share/LiteOS_Lab/network/dtls/mbedtls/mbedtls-2.16.2/library/x509_crt.c ****     size_t cn_idx = 0, cn_len = strlen( cn );
 461              		.loc 2 265 12
 462 0023 48C745E8 		movq	$0, -24(%rbp)
 462      00000000 
 463              		.loc 2 265 33
 464 002b 488B45D8 		movq	-40(%rbp), %rax
 465 002f 4889C7   		movq	%rax, %rdi
 466 0032 E8000000 		call	strlen@PLT
 466      00
 467 0037 488945F0 		movq	%rax, -16(%rbp)
 266:/home/xingli/share/LiteOS_Lab/network/dtls/mbedtls/mbedtls-2.16.2/library/x509_crt.c **** 
 267:/home/xingli/share/LiteOS_Lab/network/dtls/mbedtls/mbedtls-2.16.2/library/x509_crt.c ****     /* We can't have a match if there is no wildcard to match */
 268:/home/xingli/share/LiteOS_Lab/network/dtls/mbedtls/mbedtls-2.16.2/library/x509_crt.c ****     if( name->len < 3 || name->p[0] != '*' || name->p[1] != '.' )
 468              		.loc 2 268 13
 469 003b 488B45D0 		movq	-48(%rbp), %rax
 470 003f 488B4008 		movq	8(%rax), %rax
 471              		.loc 2 268 7
 472 0043 4883F802 		cmpq	$2, %rax
 473 0047 7622     		jbe	.L37
 474              		.loc 2 268 30 discriminator 1
 475 0049 488B45D0 		movq	-48(%rbp), %rax
 476 004d 488B4010 		movq	16(%rax), %rax
 477              		.loc 2 268 33 discriminator 1
 478 0051 0FB600   		movzbl	(%rax), %eax
 479              		.loc 2 268 23 discriminator 1
 480 0054 3C2A     		cmpb	$42, %al
 481 0056 7513     		jne	.L37
 482              		.loc 2 268 51 discriminator 2
 483 0058 488B45D0 		movq	-48(%rbp), %rax
 484 005c 488B4010 		movq	16(%rax), %rax
 485              		.loc 2 268 54 discriminator 2
 486 0060 4883C001 		addq	$1, %rax
GAS LISTING /tmp/ccnlqVtp.s 			page 18


 487 0064 0FB600   		movzbl	(%rax), %eax
 488              		.loc 2 268 44 discriminator 2
 489 0067 3C2E     		cmpb	$46, %al
 490 0069 740A     		je	.L38
 491              	.L37:
 269:/home/xingli/share/LiteOS_Lab/network/dtls/mbedtls/mbedtls-2.16.2/library/x509_crt.c ****         return( -1 );
 492              		.loc 2 269 15
 493 006b B8FFFFFF 		movl	$-1, %eax
 493      FF
 494 0070 E99D0000 		jmp	.L39
 494      00
 495              	.L38:
 270:/home/xingli/share/LiteOS_Lab/network/dtls/mbedtls/mbedtls-2.16.2/library/x509_crt.c **** 
 271:/home/xingli/share/LiteOS_Lab/network/dtls/mbedtls/mbedtls-2.16.2/library/x509_crt.c ****     for( i = 0; i < cn_len; ++i )
 496              		.loc 2 271 12
 497 0075 48C745E0 		movq	$0, -32(%rbp)
 497      00000000 
 498              		.loc 2 271 5
 499 007d EB21     		jmp	.L40
 500              	.L43:
 272:/home/xingli/share/LiteOS_Lab/network/dtls/mbedtls/mbedtls-2.16.2/library/x509_crt.c ****     {
 273:/home/xingli/share/LiteOS_Lab/network/dtls/mbedtls/mbedtls-2.16.2/library/x509_crt.c ****         if( cn[i] == '.' )
 501              		.loc 2 273 15
 502 007f 488B55D8 		movq	-40(%rbp), %rdx
 503 0083 488B45E0 		movq	-32(%rbp), %rax
 504 0087 4801D0   		addq	%rdx, %rax
 505 008a 0FB600   		movzbl	(%rax), %eax
 506              		.loc 2 273 11
 507 008d 3C2E     		cmpb	$46, %al
 508 008f 750A     		jne	.L41
 274:/home/xingli/share/LiteOS_Lab/network/dtls/mbedtls/mbedtls-2.16.2/library/x509_crt.c ****         {
 275:/home/xingli/share/LiteOS_Lab/network/dtls/mbedtls/mbedtls-2.16.2/library/x509_crt.c ****             cn_idx = i;
 509              		.loc 2 275 20
 510 0091 488B45E0 		movq	-32(%rbp), %rax
 511 0095 488945E8 		movq	%rax, -24(%rbp)
 276:/home/xingli/share/LiteOS_Lab/network/dtls/mbedtls/mbedtls-2.16.2/library/x509_crt.c ****             break;
 512              		.loc 2 276 13
 513 0099 EB0F     		jmp	.L42
 514              	.L41:
 271:/home/xingli/share/LiteOS_Lab/network/dtls/mbedtls/mbedtls-2.16.2/library/x509_crt.c ****     {
 515              		.loc 2 271 29 discriminator 2
 516 009b 488345E0 		addq	$1, -32(%rbp)
 516      01
 517              	.L40:
 271:/home/xingli/share/LiteOS_Lab/network/dtls/mbedtls/mbedtls-2.16.2/library/x509_crt.c ****     {
 518              		.loc 2 271 5 discriminator 1
 519 00a0 488B45E0 		movq	-32(%rbp), %rax
 520 00a4 483B45F0 		cmpq	-16(%rbp), %rax
 521 00a8 72D5     		jb	.L43
 522              	.L42:
 277:/home/xingli/share/LiteOS_Lab/network/dtls/mbedtls/mbedtls-2.16.2/library/x509_crt.c ****         }
 278:/home/xingli/share/LiteOS_Lab/network/dtls/mbedtls/mbedtls-2.16.2/library/x509_crt.c ****     }
 279:/home/xingli/share/LiteOS_Lab/network/dtls/mbedtls/mbedtls-2.16.2/library/x509_crt.c **** 
 280:/home/xingli/share/LiteOS_Lab/network/dtls/mbedtls/mbedtls-2.16.2/library/x509_crt.c ****     if( cn_idx == 0 )
 523              		.loc 2 280 7
 524 00aa 48837DE8 		cmpq	$0, -24(%rbp)
 524      00
GAS LISTING /tmp/ccnlqVtp.s 			page 19


 525 00af 7507     		jne	.L44
 281:/home/xingli/share/LiteOS_Lab/network/dtls/mbedtls/mbedtls-2.16.2/library/x509_crt.c ****         return( -1 );
 526              		.loc 2 281 15
 527 00b1 B8FFFFFF 		movl	$-1, %eax
 527      FF
 528 00b6 EB5A     		jmp	.L39
 529              	.L44:
 282:/home/xingli/share/LiteOS_Lab/network/dtls/mbedtls/mbedtls-2.16.2/library/x509_crt.c **** 
 283:/home/xingli/share/LiteOS_Lab/network/dtls/mbedtls/mbedtls-2.16.2/library/x509_crt.c ****     if( cn_len - cn_idx == name->len - 1 &&
 530              		.loc 2 283 16
 531 00b8 488B45F0 		movq	-16(%rbp), %rax
 532 00bc 482B45E8 		subq	-24(%rbp), %rax
 533 00c0 4889C2   		movq	%rax, %rdx
 534              		.loc 2 283 32
 535 00c3 488B45D0 		movq	-48(%rbp), %rax
 536 00c7 488B4008 		movq	8(%rax), %rax
 537              		.loc 2 283 38
 538 00cb 4883E801 		subq	$1, %rax
 539              		.loc 2 283 7
 540 00cf 4839C2   		cmpq	%rax, %rdx
 541 00d2 7539     		jne	.L45
 284:/home/xingli/share/LiteOS_Lab/network/dtls/mbedtls/mbedtls-2.16.2/library/x509_crt.c ****         x509_memcasecmp( name->p + 1, cn + cn_idx, name->len - 1 ) == 0 )
 542              		.loc 2 284 56 discriminator 1
 543 00d4 488B45D0 		movq	-48(%rbp), %rax
 544 00d8 488B4008 		movq	8(%rax), %rax
 545              		.loc 2 284 9 discriminator 1
 546 00dc 488D50FF 		leaq	-1(%rax), %rdx
 547              		.loc 2 284 42 discriminator 1
 548 00e0 488B4DD8 		movq	-40(%rbp), %rcx
 549 00e4 488B45E8 		movq	-24(%rbp), %rax
 550 00e8 4801C1   		addq	%rax, %rcx
 551              		.loc 2 284 30 discriminator 1
 552 00eb 488B45D0 		movq	-48(%rbp), %rax
 553 00ef 488B4010 		movq	16(%rax), %rax
 554              		.loc 2 284 34 discriminator 1
 555 00f3 4883C001 		addq	$1, %rax
 556              		.loc 2 284 9 discriminator 1
 557 00f7 4889CE   		movq	%rcx, %rsi
 558 00fa 4889C7   		movq	%rax, %rdi
 559 00fd E8000000 		call	x509_memcasecmp
 559      00
 283:/home/xingli/share/LiteOS_Lab/network/dtls/mbedtls/mbedtls-2.16.2/library/x509_crt.c ****         x509_memcasecmp( name->p + 1, cn + cn_idx, name->len - 1 ) == 0 )
 560              		.loc 2 283 42 discriminator 1
 561 0102 85C0     		testl	%eax, %eax
 562 0104 7507     		jne	.L45
 285:/home/xingli/share/LiteOS_Lab/network/dtls/mbedtls/mbedtls-2.16.2/library/x509_crt.c ****     {
 286:/home/xingli/share/LiteOS_Lab/network/dtls/mbedtls/mbedtls-2.16.2/library/x509_crt.c ****         return( 0 );
 563              		.loc 2 286 15
 564 0106 B8000000 		movl	$0, %eax
 564      00
 565 010b EB05     		jmp	.L39
 566              	.L45:
 287:/home/xingli/share/LiteOS_Lab/network/dtls/mbedtls/mbedtls-2.16.2/library/x509_crt.c ****     }
 288:/home/xingli/share/LiteOS_Lab/network/dtls/mbedtls/mbedtls-2.16.2/library/x509_crt.c **** 
 289:/home/xingli/share/LiteOS_Lab/network/dtls/mbedtls/mbedtls-2.16.2/library/x509_crt.c ****     return( -1 );
 567              		.loc 2 289 11
 568 010d B8FFFFFF 		movl	$-1, %eax
GAS LISTING /tmp/ccnlqVtp.s 			page 20


 568      FF
 569              	.L39:
 290:/home/xingli/share/LiteOS_Lab/network/dtls/mbedtls/mbedtls-2.16.2/library/x509_crt.c **** }
 570              		.loc 2 290 1
 571 0112 488B75F8 		movq	-8(%rbp), %rsi
 572 0116 64483334 		xorq	%fs:40, %rsi
 572      25280000 
 572      00
 573 011f 7405     		je	.L46
 574 0121 E8000000 		call	__stack_chk_fail@PLT
 574      00
 575              	.L46:
 576 0126 C9       		leave
 577              	.LCFI17:
 578              		.cfi_def_cfa 7, 8
 579 0127 C3       		ret
 580              		.cfi_endproc
 581              	.LFE20:
 583              		.section	.text.x509_string_cmp,"ax",@progbits
 585              	x509_string_cmp:
 586              	.LFB21:
 291:/home/xingli/share/LiteOS_Lab/network/dtls/mbedtls/mbedtls-2.16.2/library/x509_crt.c **** 
 292:/home/xingli/share/LiteOS_Lab/network/dtls/mbedtls/mbedtls-2.16.2/library/x509_crt.c **** /*
 293:/home/xingli/share/LiteOS_Lab/network/dtls/mbedtls/mbedtls-2.16.2/library/x509_crt.c ****  * Compare two X.509 strings, case-insensitive, and allowing for some encoding
 294:/home/xingli/share/LiteOS_Lab/network/dtls/mbedtls/mbedtls-2.16.2/library/x509_crt.c ****  * variations (but not all).
 295:/home/xingli/share/LiteOS_Lab/network/dtls/mbedtls/mbedtls-2.16.2/library/x509_crt.c ****  *
 296:/home/xingli/share/LiteOS_Lab/network/dtls/mbedtls/mbedtls-2.16.2/library/x509_crt.c ****  * Return 0 if equal, -1 otherwise.
 297:/home/xingli/share/LiteOS_Lab/network/dtls/mbedtls/mbedtls-2.16.2/library/x509_crt.c ****  */
 298:/home/xingli/share/LiteOS_Lab/network/dtls/mbedtls/mbedtls-2.16.2/library/x509_crt.c **** static int x509_string_cmp( const mbedtls_x509_buf *a, const mbedtls_x509_buf *b )
 299:/home/xingli/share/LiteOS_Lab/network/dtls/mbedtls/mbedtls-2.16.2/library/x509_crt.c **** {
 587              		.loc 2 299 1
 588              		.cfi_startproc
 589 0000 F30F1EFA 		endbr64
 590 0004 55       		pushq	%rbp
 591              	.LCFI18:
 592              		.cfi_def_cfa_offset 16
 593              		.cfi_offset 6, -16
 594 0005 4889E5   		movq	%rsp, %rbp
 595              	.LCFI19:
 596              		.cfi_def_cfa_register 6
 597 0008 4883EC20 		subq	$32, %rsp
 598 000c 48897DE8 		movq	%rdi, -24(%rbp)
 599 0010 488975E0 		movq	%rsi, -32(%rbp)
 600              		.loc 2 299 1
 601 0014 64488B04 		movq	%fs:40, %rax
 601      25280000 
 601      00
 602 001d 488945F8 		movq	%rax, -8(%rbp)
 603 0021 31C0     		xorl	%eax, %eax
 300:/home/xingli/share/LiteOS_Lab/network/dtls/mbedtls/mbedtls-2.16.2/library/x509_crt.c ****     if( a->tag == b->tag &&
 604              		.loc 2 300 10
 605 0023 488B45E8 		movq	-24(%rbp), %rax
 606 0027 8B10     		movl	(%rax), %edx
 607              		.loc 2 300 20
 608 0029 488B45E0 		movq	-32(%rbp), %rax
 609 002d 8B00     		movl	(%rax), %eax
 610              		.loc 2 300 7
GAS LISTING /tmp/ccnlqVtp.s 			page 21


 611 002f 39C2     		cmpl	%eax, %edx
 612 0031 7543     		jne	.L48
 301:/home/xingli/share/LiteOS_Lab/network/dtls/mbedtls/mbedtls-2.16.2/library/x509_crt.c ****         a->len == b->len &&
 613              		.loc 2 301 10 discriminator 1
 614 0033 488B45E8 		movq	-24(%rbp), %rax
 615 0037 488B5008 		movq	8(%rax), %rdx
 616              		.loc 2 301 20 discriminator 1
 617 003b 488B45E0 		movq	-32(%rbp), %rax
 618 003f 488B4008 		movq	8(%rax), %rax
 300:/home/xingli/share/LiteOS_Lab/network/dtls/mbedtls/mbedtls-2.16.2/library/x509_crt.c ****     if( a->tag == b->tag &&
 619              		.loc 2 300 26 discriminator 1
 620 0043 4839C2   		cmpq	%rax, %rdx
 621 0046 752E     		jne	.L48
 302:/home/xingli/share/LiteOS_Lab/network/dtls/mbedtls/mbedtls-2.16.2/library/x509_crt.c ****         memcmp( a->p, b->p, b->len ) == 0 )
 622              		.loc 2 302 9
 623 0048 488B45E0 		movq	-32(%rbp), %rax
 624 004c 488B5008 		movq	8(%rax), %rdx
 625              		.loc 2 302 24
 626 0050 488B45E0 		movq	-32(%rbp), %rax
 627 0054 488B4810 		movq	16(%rax), %rcx
 628              		.loc 2 302 18
 629 0058 488B45E8 		movq	-24(%rbp), %rax
 630 005c 488B4010 		movq	16(%rax), %rax
 631              		.loc 2 302 9
 632 0060 4889CE   		movq	%rcx, %rsi
 633 0063 4889C7   		movq	%rax, %rdi
 634 0066 E8000000 		call	memcmp@PLT
 634      00
 301:/home/xingli/share/LiteOS_Lab/network/dtls/mbedtls/mbedtls-2.16.2/library/x509_crt.c ****         a->len == b->len &&
 635              		.loc 2 301 26
 636 006b 85C0     		testl	%eax, %eax
 637 006d 7507     		jne	.L48
 303:/home/xingli/share/LiteOS_Lab/network/dtls/mbedtls/mbedtls-2.16.2/library/x509_crt.c ****     {
 304:/home/xingli/share/LiteOS_Lab/network/dtls/mbedtls/mbedtls-2.16.2/library/x509_crt.c ****         return( 0 );
 638              		.loc 2 304 15
 639 006f B8000000 		movl	$0, %eax
 639      00
 640 0074 EB74     		jmp	.L49
 641              	.L48:
 305:/home/xingli/share/LiteOS_Lab/network/dtls/mbedtls/mbedtls-2.16.2/library/x509_crt.c ****     }
 306:/home/xingli/share/LiteOS_Lab/network/dtls/mbedtls/mbedtls-2.16.2/library/x509_crt.c **** 
 307:/home/xingli/share/LiteOS_Lab/network/dtls/mbedtls/mbedtls-2.16.2/library/x509_crt.c ****     if( ( a->tag == MBEDTLS_ASN1_UTF8_STRING || a->tag == MBEDTLS_ASN1_PRINTABLE_STRING ) &&
 642              		.loc 2 307 12
 643 0076 488B45E8 		movq	-24(%rbp), %rax
 644 007a 8B00     		movl	(%rax), %eax
 645              		.loc 2 307 7
 646 007c 83F80C   		cmpl	$12, %eax
 647 007f 740B     		je	.L50
 648              		.loc 2 307 50 discriminator 2
 649 0081 488B45E8 		movq	-24(%rbp), %rax
 650 0085 8B00     		movl	(%rax), %eax
 651              		.loc 2 307 46 discriminator 2
 652 0087 83F813   		cmpl	$19, %eax
 653 008a 7559     		jne	.L51
 654              	.L50:
 308:/home/xingli/share/LiteOS_Lab/network/dtls/mbedtls/mbedtls-2.16.2/library/x509_crt.c ****         ( b->tag == MBEDTLS_ASN1_UTF8_STRING || b->tag == MBEDTLS_ASN1_PRINTABLE_STRING ) &&
 655              		.loc 2 308 12 discriminator 3
GAS LISTING /tmp/ccnlqVtp.s 			page 22


 656 008c 488B45E0 		movq	-32(%rbp), %rax
 657 0090 8B00     		movl	(%rax), %eax
 307:/home/xingli/share/LiteOS_Lab/network/dtls/mbedtls/mbedtls-2.16.2/library/x509_crt.c ****         ( b->tag == MBEDTLS_ASN1_UTF8_STRING || b->tag == MBEDTLS_ASN1_PRINTABLE_STRING ) &&
 658              		.loc 2 307 91 discriminator 3
 659 0092 83F80C   		cmpl	$12, %eax
 660 0095 740B     		je	.L52
 661              		.loc 2 308 50
 662 0097 488B45E0 		movq	-32(%rbp), %rax
 663 009b 8B00     		movl	(%rax), %eax
 664              		.loc 2 308 46
 665 009d 83F813   		cmpl	$19, %eax
 666 00a0 7543     		jne	.L51
 667              	.L52:
 309:/home/xingli/share/LiteOS_Lab/network/dtls/mbedtls/mbedtls-2.16.2/library/x509_crt.c ****         a->len == b->len &&
 668              		.loc 2 309 10 discriminator 1
 669 00a2 488B45E8 		movq	-24(%rbp), %rax
 670 00a6 488B5008 		movq	8(%rax), %rdx
 671              		.loc 2 309 20 discriminator 1
 672 00aa 488B45E0 		movq	-32(%rbp), %rax
 673 00ae 488B4008 		movq	8(%rax), %rax
 308:/home/xingli/share/LiteOS_Lab/network/dtls/mbedtls/mbedtls-2.16.2/library/x509_crt.c ****         ( b->tag == MBEDTLS_ASN1_UTF8_STRING || b->tag == MBEDTLS_ASN1_PRINTABLE_STRING ) &&
 674              		.loc 2 308 91 discriminator 1
 675 00b2 4839C2   		cmpq	%rax, %rdx
 676 00b5 752E     		jne	.L51
 310:/home/xingli/share/LiteOS_Lab/network/dtls/mbedtls/mbedtls-2.16.2/library/x509_crt.c ****         x509_memcasecmp( a->p, b->p, b->len ) == 0 )
 677              		.loc 2 310 9
 678 00b7 488B45E0 		movq	-32(%rbp), %rax
 679 00bb 488B5008 		movq	8(%rax), %rdx
 680              		.loc 2 310 33
 681 00bf 488B45E0 		movq	-32(%rbp), %rax
 682 00c3 488B4810 		movq	16(%rax), %rcx
 683              		.loc 2 310 27
 684 00c7 488B45E8 		movq	-24(%rbp), %rax
 685 00cb 488B4010 		movq	16(%rax), %rax
 686              		.loc 2 310 9
 687 00cf 4889CE   		movq	%rcx, %rsi
 688 00d2 4889C7   		movq	%rax, %rdi
 689 00d5 E8000000 		call	x509_memcasecmp
 689      00
 309:/home/xingli/share/LiteOS_Lab/network/dtls/mbedtls/mbedtls-2.16.2/library/x509_crt.c ****         a->len == b->len &&
 690              		.loc 2 309 26
 691 00da 85C0     		testl	%eax, %eax
 692 00dc 7507     		jne	.L51
 311:/home/xingli/share/LiteOS_Lab/network/dtls/mbedtls/mbedtls-2.16.2/library/x509_crt.c ****     {
 312:/home/xingli/share/LiteOS_Lab/network/dtls/mbedtls/mbedtls-2.16.2/library/x509_crt.c ****         return( 0 );
 693              		.loc 2 312 15
 694 00de B8000000 		movl	$0, %eax
 694      00
 695 00e3 EB05     		jmp	.L49
 696              	.L51:
 313:/home/xingli/share/LiteOS_Lab/network/dtls/mbedtls/mbedtls-2.16.2/library/x509_crt.c ****     }
 314:/home/xingli/share/LiteOS_Lab/network/dtls/mbedtls/mbedtls-2.16.2/library/x509_crt.c **** 
 315:/home/xingli/share/LiteOS_Lab/network/dtls/mbedtls/mbedtls-2.16.2/library/x509_crt.c ****     return( -1 );
 697              		.loc 2 315 11
 698 00e5 B8FFFFFF 		movl	$-1, %eax
 698      FF
 699              	.L49:
GAS LISTING /tmp/ccnlqVtp.s 			page 23


 316:/home/xingli/share/LiteOS_Lab/network/dtls/mbedtls/mbedtls-2.16.2/library/x509_crt.c **** }
 700              		.loc 2 316 1
 701 00ea 488B75F8 		movq	-8(%rbp), %rsi
 702 00ee 64483334 		xorq	%fs:40, %rsi
 702      25280000 
 702      00
 703 00f7 7405     		je	.L53
 704 00f9 E8000000 		call	__stack_chk_fail@PLT
 704      00
 705              	.L53:
 706 00fe C9       		leave
 707              	.LCFI20:
 708              		.cfi_def_cfa 7, 8
 709 00ff C3       		ret
 710              		.cfi_endproc
 711              	.LFE21:
 713              		.section	.text.x509_name_cmp,"ax",@progbits
 715              	x509_name_cmp:
 716              	.LFB22:
 317:/home/xingli/share/LiteOS_Lab/network/dtls/mbedtls/mbedtls-2.16.2/library/x509_crt.c **** 
 318:/home/xingli/share/LiteOS_Lab/network/dtls/mbedtls/mbedtls-2.16.2/library/x509_crt.c **** /*
 319:/home/xingli/share/LiteOS_Lab/network/dtls/mbedtls/mbedtls-2.16.2/library/x509_crt.c ****  * Compare two X.509 Names (aka rdnSequence).
 320:/home/xingli/share/LiteOS_Lab/network/dtls/mbedtls/mbedtls-2.16.2/library/x509_crt.c ****  *
 321:/home/xingli/share/LiteOS_Lab/network/dtls/mbedtls/mbedtls-2.16.2/library/x509_crt.c ****  * See RFC 5280 section 7.1, though we don't implement the whole algorithm:
 322:/home/xingli/share/LiteOS_Lab/network/dtls/mbedtls/mbedtls-2.16.2/library/x509_crt.c ****  * we sometimes return unequal when the full algorithm would return equal,
 323:/home/xingli/share/LiteOS_Lab/network/dtls/mbedtls/mbedtls-2.16.2/library/x509_crt.c ****  * but never the other way. (In particular, we don't do Unicode normalisation
 324:/home/xingli/share/LiteOS_Lab/network/dtls/mbedtls/mbedtls-2.16.2/library/x509_crt.c ****  * or space folding.)
 325:/home/xingli/share/LiteOS_Lab/network/dtls/mbedtls/mbedtls-2.16.2/library/x509_crt.c ****  *
 326:/home/xingli/share/LiteOS_Lab/network/dtls/mbedtls/mbedtls-2.16.2/library/x509_crt.c ****  * Return 0 if equal, -1 otherwise.
 327:/home/xingli/share/LiteOS_Lab/network/dtls/mbedtls/mbedtls-2.16.2/library/x509_crt.c ****  */
 328:/home/xingli/share/LiteOS_Lab/network/dtls/mbedtls/mbedtls-2.16.2/library/x509_crt.c **** static int x509_name_cmp( const mbedtls_x509_name *a, const mbedtls_x509_name *b )
 329:/home/xingli/share/LiteOS_Lab/network/dtls/mbedtls/mbedtls-2.16.2/library/x509_crt.c **** {
 717              		.loc 2 329 1
 718              		.cfi_startproc
 719 0000 F30F1EFA 		endbr64
 720 0004 55       		pushq	%rbp
 721              	.LCFI21:
 722              		.cfi_def_cfa_offset 16
 723              		.cfi_offset 6, -16
 724 0005 4889E5   		movq	%rsp, %rbp
 725              	.LCFI22:
 726              		.cfi_def_cfa_register 6
 727 0008 4883EC20 		subq	$32, %rsp
 728 000c 48897DE8 		movq	%rdi, -24(%rbp)
 729 0010 488975E0 		movq	%rsi, -32(%rbp)
 730              		.loc 2 329 1
 731 0014 64488B04 		movq	%fs:40, %rax
 731      25280000 
 731      00
 732 001d 488945F8 		movq	%rax, -8(%rbp)
 733 0021 31C0     		xorl	%eax, %eax
 330:/home/xingli/share/LiteOS_Lab/network/dtls/mbedtls/mbedtls-2.16.2/library/x509_crt.c ****     /* Avoid recursion, it might not be optimised by the compiler */
 331:/home/xingli/share/LiteOS_Lab/network/dtls/mbedtls/mbedtls-2.16.2/library/x509_crt.c ****     while( a != NULL || b != NULL )
 734              		.loc 2 331 10
 735 0023 E9C40000 		jmp	.L55
 735      00
 736              	.L63:
GAS LISTING /tmp/ccnlqVtp.s 			page 24


 332:/home/xingli/share/LiteOS_Lab/network/dtls/mbedtls/mbedtls-2.16.2/library/x509_crt.c ****     {
 333:/home/xingli/share/LiteOS_Lab/network/dtls/mbedtls/mbedtls-2.16.2/library/x509_crt.c ****         if( a == NULL || b == NULL )
 737              		.loc 2 333 11
 738 0028 48837DE8 		cmpq	$0, -24(%rbp)
 738      00
 739 002d 7407     		je	.L56
 740              		.loc 2 333 23 discriminator 1
 741 002f 48837DE0 		cmpq	$0, -32(%rbp)
 741      00
 742 0034 750A     		jne	.L57
 743              	.L56:
 334:/home/xingli/share/LiteOS_Lab/network/dtls/mbedtls/mbedtls-2.16.2/library/x509_crt.c ****             return( -1 );
 744              		.loc 2 334 19
 745 0036 B8FFFFFF 		movl	$-1, %eax
 745      FF
 746 003b E9C70000 		jmp	.L58
 746      00
 747              	.L57:
 335:/home/xingli/share/LiteOS_Lab/network/dtls/mbedtls/mbedtls-2.16.2/library/x509_crt.c **** 
 336:/home/xingli/share/LiteOS_Lab/network/dtls/mbedtls/mbedtls-2.16.2/library/x509_crt.c ****         /* type */
 337:/home/xingli/share/LiteOS_Lab/network/dtls/mbedtls/mbedtls-2.16.2/library/x509_crt.c ****         if( a->oid.tag != b->oid.tag ||
 748              		.loc 2 337 19
 749 0040 488B45E8 		movq	-24(%rbp), %rax
 750 0044 8B10     		movl	(%rax), %edx
 751              		.loc 2 337 33
 752 0046 488B45E0 		movq	-32(%rbp), %rax
 753 004a 8B00     		movl	(%rax), %eax
 754              		.loc 2 337 11
 755 004c 39C2     		cmpl	%eax, %edx
 756 004e 753C     		jne	.L59
 338:/home/xingli/share/LiteOS_Lab/network/dtls/mbedtls/mbedtls-2.16.2/library/x509_crt.c ****             a->oid.len != b->oid.len ||
 757              		.loc 2 338 19 discriminator 1
 758 0050 488B45E8 		movq	-24(%rbp), %rax
 759 0054 488B5008 		movq	8(%rax), %rdx
 760              		.loc 2 338 33 discriminator 1
 761 0058 488B45E0 		movq	-32(%rbp), %rax
 762 005c 488B4008 		movq	8(%rax), %rax
 337:/home/xingli/share/LiteOS_Lab/network/dtls/mbedtls/mbedtls-2.16.2/library/x509_crt.c ****             a->oid.len != b->oid.len ||
 763              		.loc 2 337 38 discriminator 1
 764 0060 4839C2   		cmpq	%rax, %rdx
 765 0063 7527     		jne	.L59
 339:/home/xingli/share/LiteOS_Lab/network/dtls/mbedtls/mbedtls-2.16.2/library/x509_crt.c ****             memcmp( a->oid.p, b->oid.p, b->oid.len ) != 0 )
 766              		.loc 2 339 13
 767 0065 488B45E0 		movq	-32(%rbp), %rax
 768 0069 488B5008 		movq	8(%rax), %rdx
 769              		.loc 2 339 37
 770 006d 488B45E0 		movq	-32(%rbp), %rax
 771 0071 488B4810 		movq	16(%rax), %rcx
 772              		.loc 2 339 27
 773 0075 488B45E8 		movq	-24(%rbp), %rax
 774 0079 488B4010 		movq	16(%rax), %rax
 775              		.loc 2 339 13
 776 007d 4889CE   		movq	%rcx, %rsi
 777 0080 4889C7   		movq	%rax, %rdi
 778 0083 E8000000 		call	memcmp@PLT
 778      00
 338:/home/xingli/share/LiteOS_Lab/network/dtls/mbedtls/mbedtls-2.16.2/library/x509_crt.c ****             a->oid.len != b->oid.len ||
GAS LISTING /tmp/ccnlqVtp.s 			page 25


 779              		.loc 2 338 38
 780 0088 85C0     		testl	%eax, %eax
 781 008a 7407     		je	.L60
 782              	.L59:
 340:/home/xingli/share/LiteOS_Lab/network/dtls/mbedtls/mbedtls-2.16.2/library/x509_crt.c ****         {
 341:/home/xingli/share/LiteOS_Lab/network/dtls/mbedtls/mbedtls-2.16.2/library/x509_crt.c ****             return( -1 );
 783              		.loc 2 341 19
 784 008c B8FFFFFF 		movl	$-1, %eax
 784      FF
 785 0091 EB74     		jmp	.L58
 786              	.L60:
 342:/home/xingli/share/LiteOS_Lab/network/dtls/mbedtls/mbedtls-2.16.2/library/x509_crt.c ****         }
 343:/home/xingli/share/LiteOS_Lab/network/dtls/mbedtls/mbedtls-2.16.2/library/x509_crt.c **** 
 344:/home/xingli/share/LiteOS_Lab/network/dtls/mbedtls/mbedtls-2.16.2/library/x509_crt.c ****         /* value */
 345:/home/xingli/share/LiteOS_Lab/network/dtls/mbedtls/mbedtls-2.16.2/library/x509_crt.c ****         if( x509_string_cmp( &a->val, &b->val ) != 0 )
 787              		.loc 2 345 39
 788 0093 488B45E0 		movq	-32(%rbp), %rax
 789 0097 488D5018 		leaq	24(%rax), %rdx
 790              		.loc 2 345 30
 791 009b 488B45E8 		movq	-24(%rbp), %rax
 792 009f 4883C018 		addq	$24, %rax
 793              		.loc 2 345 13
 794 00a3 4889D6   		movq	%rdx, %rsi
 795 00a6 4889C7   		movq	%rax, %rdi
 796 00a9 E8000000 		call	x509_string_cmp
 796      00
 797              		.loc 2 345 11
 798 00ae 85C0     		testl	%eax, %eax
 799 00b0 7407     		je	.L61
 346:/home/xingli/share/LiteOS_Lab/network/dtls/mbedtls/mbedtls-2.16.2/library/x509_crt.c ****             return( -1 );
 800              		.loc 2 346 19
 801 00b2 B8FFFFFF 		movl	$-1, %eax
 801      FF
 802 00b7 EB4E     		jmp	.L58
 803              	.L61:
 347:/home/xingli/share/LiteOS_Lab/network/dtls/mbedtls/mbedtls-2.16.2/library/x509_crt.c **** 
 348:/home/xingli/share/LiteOS_Lab/network/dtls/mbedtls/mbedtls-2.16.2/library/x509_crt.c ****         /* structure of the list of sets */
 349:/home/xingli/share/LiteOS_Lab/network/dtls/mbedtls/mbedtls-2.16.2/library/x509_crt.c ****         if( a->next_merged != b->next_merged )
 804              		.loc 2 349 14
 805 00b9 488B45E8 		movq	-24(%rbp), %rax
 806 00bd 0FB65038 		movzbl	56(%rax), %edx
 807              		.loc 2 349 32
 808 00c1 488B45E0 		movq	-32(%rbp), %rax
 809 00c5 0FB64038 		movzbl	56(%rax), %eax
 810              		.loc 2 349 11
 811 00c9 38C2     		cmpb	%al, %dl
 812 00cb 7407     		je	.L62
 350:/home/xingli/share/LiteOS_Lab/network/dtls/mbedtls/mbedtls-2.16.2/library/x509_crt.c ****             return( -1 );
 813              		.loc 2 350 19
 814 00cd B8FFFFFF 		movl	$-1, %eax
 814      FF
 815 00d2 EB33     		jmp	.L58
 816              	.L62:
 351:/home/xingli/share/LiteOS_Lab/network/dtls/mbedtls/mbedtls-2.16.2/library/x509_crt.c **** 
 352:/home/xingli/share/LiteOS_Lab/network/dtls/mbedtls/mbedtls-2.16.2/library/x509_crt.c ****         a = a->next;
 817              		.loc 2 352 11
 818 00d4 488B45E8 		movq	-24(%rbp), %rax
GAS LISTING /tmp/ccnlqVtp.s 			page 26


 819 00d8 488B4030 		movq	48(%rax), %rax
 820 00dc 488945E8 		movq	%rax, -24(%rbp)
 353:/home/xingli/share/LiteOS_Lab/network/dtls/mbedtls/mbedtls-2.16.2/library/x509_crt.c ****         b = b->next;
 821              		.loc 2 353 11
 822 00e0 488B45E0 		movq	-32(%rbp), %rax
 823 00e4 488B4030 		movq	48(%rax), %rax
 824 00e8 488945E0 		movq	%rax, -32(%rbp)
 825              	.L55:
 331:/home/xingli/share/LiteOS_Lab/network/dtls/mbedtls/mbedtls-2.16.2/library/x509_crt.c ****     {
 826              		.loc 2 331 10
 827 00ec 48837DE8 		cmpq	$0, -24(%rbp)
 827      00
 828 00f1 0F8531FF 		jne	.L63
 828      FFFF
 331:/home/xingli/share/LiteOS_Lab/network/dtls/mbedtls/mbedtls-2.16.2/library/x509_crt.c ****     {
 829              		.loc 2 331 22 discriminator 1
 830 00f7 48837DE0 		cmpq	$0, -32(%rbp)
 830      00
 831 00fc 0F8526FF 		jne	.L63
 831      FFFF
 354:/home/xingli/share/LiteOS_Lab/network/dtls/mbedtls/mbedtls-2.16.2/library/x509_crt.c ****     }
 355:/home/xingli/share/LiteOS_Lab/network/dtls/mbedtls/mbedtls-2.16.2/library/x509_crt.c **** 
 356:/home/xingli/share/LiteOS_Lab/network/dtls/mbedtls/mbedtls-2.16.2/library/x509_crt.c ****     /* a == NULL == b */
 357:/home/xingli/share/LiteOS_Lab/network/dtls/mbedtls/mbedtls-2.16.2/library/x509_crt.c ****     return( 0 );
 832              		.loc 2 357 11
 833 0102 B8000000 		movl	$0, %eax
 833      00
 834              	.L58:
 358:/home/xingli/share/LiteOS_Lab/network/dtls/mbedtls/mbedtls-2.16.2/library/x509_crt.c **** }
 835              		.loc 2 358 1
 836 0107 488B4DF8 		movq	-8(%rbp), %rcx
 837 010b 6448330C 		xorq	%fs:40, %rcx
 837      25280000 
 837      00
 838 0114 7405     		je	.L64
 839 0116 E8000000 		call	__stack_chk_fail@PLT
 839      00
 840              	.L64:
 841 011b C9       		leave
 842              	.LCFI23:
 843              		.cfi_def_cfa 7, 8
 844 011c C3       		ret
 845              		.cfi_endproc
 846              	.LFE22:
 848              		.section	.text.x509_crt_verify_chain_reset,"ax",@progbits
 850              	x509_crt_verify_chain_reset:
 851              	.LFB23:
 359:/home/xingli/share/LiteOS_Lab/network/dtls/mbedtls/mbedtls-2.16.2/library/x509_crt.c **** 
 360:/home/xingli/share/LiteOS_Lab/network/dtls/mbedtls/mbedtls-2.16.2/library/x509_crt.c **** /*
 361:/home/xingli/share/LiteOS_Lab/network/dtls/mbedtls/mbedtls-2.16.2/library/x509_crt.c ****  * Reset (init or clear) a verify_chain
 362:/home/xingli/share/LiteOS_Lab/network/dtls/mbedtls/mbedtls-2.16.2/library/x509_crt.c ****  */
 363:/home/xingli/share/LiteOS_Lab/network/dtls/mbedtls/mbedtls-2.16.2/library/x509_crt.c **** static void x509_crt_verify_chain_reset(
 364:/home/xingli/share/LiteOS_Lab/network/dtls/mbedtls/mbedtls-2.16.2/library/x509_crt.c ****     mbedtls_x509_crt_verify_chain *ver_chain )
 365:/home/xingli/share/LiteOS_Lab/network/dtls/mbedtls/mbedtls-2.16.2/library/x509_crt.c **** {
 852              		.loc 2 365 1
 853              		.cfi_startproc
 854 0000 F30F1EFA 		endbr64
GAS LISTING /tmp/ccnlqVtp.s 			page 27


 855 0004 55       		pushq	%rbp
 856              	.LCFI24:
 857              		.cfi_def_cfa_offset 16
 858              		.cfi_offset 6, -16
 859 0005 4889E5   		movq	%rsp, %rbp
 860              	.LCFI25:
 861              		.cfi_def_cfa_register 6
 862 0008 4883EC20 		subq	$32, %rsp
 863 000c 48897DE8 		movq	%rdi, -24(%rbp)
 864              		.loc 2 365 1
 865 0010 64488B04 		movq	%fs:40, %rax
 865      25280000 
 865      00
 866 0019 488945F8 		movq	%rax, -8(%rbp)
 867 001d 31C0     		xorl	%eax, %eax
 366:/home/xingli/share/LiteOS_Lab/network/dtls/mbedtls/mbedtls-2.16.2/library/x509_crt.c ****     size_t i;
 367:/home/xingli/share/LiteOS_Lab/network/dtls/mbedtls/mbedtls-2.16.2/library/x509_crt.c **** 
 368:/home/xingli/share/LiteOS_Lab/network/dtls/mbedtls/mbedtls-2.16.2/library/x509_crt.c ****     for( i = 0; i < MBEDTLS_X509_MAX_VERIFY_CHAIN_SIZE; i++ )
 868              		.loc 2 368 12
 869 001f 48C745F0 		movq	$0, -16(%rbp)
 869      00000000 
 870              		.loc 2 368 5
 871 0027 EB34     		jmp	.L66
 872              	.L67:
 369:/home/xingli/share/LiteOS_Lab/network/dtls/mbedtls/mbedtls-2.16.2/library/x509_crt.c ****     {
 370:/home/xingli/share/LiteOS_Lab/network/dtls/mbedtls/mbedtls-2.16.2/library/x509_crt.c ****         ver_chain->items[i].crt = NULL;
 873              		.loc 2 370 33 discriminator 3
 874 0029 488B45E8 		movq	-24(%rbp), %rax
 875 002d 488B55F0 		movq	-16(%rbp), %rdx
 876 0031 48C1E204 		salq	$4, %rdx
 877 0035 4801D0   		addq	%rdx, %rax
 878 0038 48C70000 		movq	$0, (%rax)
 878      000000
 371:/home/xingli/share/LiteOS_Lab/network/dtls/mbedtls/mbedtls-2.16.2/library/x509_crt.c ****         ver_chain->items[i].flags = (uint32_t) -1;
 879              		.loc 2 371 35 discriminator 3
 880 003f 488B45E8 		movq	-24(%rbp), %rax
 881 0043 488B55F0 		movq	-16(%rbp), %rdx
 882 0047 48C1E204 		salq	$4, %rdx
 883 004b 4801D0   		addq	%rdx, %rax
 884 004e 4883C008 		addq	$8, %rax
 885 0052 C700FFFF 		movl	$-1, (%rax)
 885      FFFF
 368:/home/xingli/share/LiteOS_Lab/network/dtls/mbedtls/mbedtls-2.16.2/library/x509_crt.c ****     {
 886              		.loc 2 368 58 discriminator 3
 887 0058 488345F0 		addq	$1, -16(%rbp)
 887      01
 888              	.L66:
 368:/home/xingli/share/LiteOS_Lab/network/dtls/mbedtls/mbedtls-2.16.2/library/x509_crt.c ****     {
 889              		.loc 2 368 5 discriminator 1
 890 005d 48837DF0 		cmpq	$9, -16(%rbp)
 890      09
 891 0062 76C5     		jbe	.L67
 372:/home/xingli/share/LiteOS_Lab/network/dtls/mbedtls/mbedtls-2.16.2/library/x509_crt.c ****     }
 373:/home/xingli/share/LiteOS_Lab/network/dtls/mbedtls/mbedtls-2.16.2/library/x509_crt.c **** 
 374:/home/xingli/share/LiteOS_Lab/network/dtls/mbedtls/mbedtls-2.16.2/library/x509_crt.c ****     ver_chain->len = 0;
 892              		.loc 2 374 20
 893 0064 488B45E8 		movq	-24(%rbp), %rax
GAS LISTING /tmp/ccnlqVtp.s 			page 28


 894 0068 C780A000 		movl	$0, 160(%rax)
 894      00000000 
 894      0000
 375:/home/xingli/share/LiteOS_Lab/network/dtls/mbedtls/mbedtls-2.16.2/library/x509_crt.c **** }
 895              		.loc 2 375 1
 896 0072 90       		nop
 897 0073 488B45F8 		movq	-8(%rbp), %rax
 898 0077 64483304 		xorq	%fs:40, %rax
 898      25280000 
 898      00
 899 0080 7405     		je	.L68
 900 0082 E8000000 		call	__stack_chk_fail@PLT
 900      00
 901              	.L68:
 902 0087 C9       		leave
 903              	.LCFI26:
 904              		.cfi_def_cfa 7, 8
 905 0088 C3       		ret
 906              		.cfi_endproc
 907              	.LFE23:
 909              		.section	.text.x509_get_version,"ax",@progbits
 911              	x509_get_version:
 912              	.LFB24:
 376:/home/xingli/share/LiteOS_Lab/network/dtls/mbedtls/mbedtls-2.16.2/library/x509_crt.c **** 
 377:/home/xingli/share/LiteOS_Lab/network/dtls/mbedtls/mbedtls-2.16.2/library/x509_crt.c **** /*
 378:/home/xingli/share/LiteOS_Lab/network/dtls/mbedtls/mbedtls-2.16.2/library/x509_crt.c ****  *  Version  ::=  INTEGER  {  v1(0), v2(1), v3(2)  }
 379:/home/xingli/share/LiteOS_Lab/network/dtls/mbedtls/mbedtls-2.16.2/library/x509_crt.c ****  */
 380:/home/xingli/share/LiteOS_Lab/network/dtls/mbedtls/mbedtls-2.16.2/library/x509_crt.c **** static int x509_get_version( unsigned char **p,
 381:/home/xingli/share/LiteOS_Lab/network/dtls/mbedtls/mbedtls-2.16.2/library/x509_crt.c ****                              const unsigned char *end,
 382:/home/xingli/share/LiteOS_Lab/network/dtls/mbedtls/mbedtls-2.16.2/library/x509_crt.c ****                              int *ver )
 383:/home/xingli/share/LiteOS_Lab/network/dtls/mbedtls/mbedtls-2.16.2/library/x509_crt.c **** {
 913              		.loc 2 383 1
 914              		.cfi_startproc
 915 0000 F30F1EFA 		endbr64
 916 0004 55       		pushq	%rbp
 917              	.LCFI27:
 918              		.cfi_def_cfa_offset 16
 919              		.cfi_offset 6, -16
 920 0005 4889E5   		movq	%rsp, %rbp
 921              	.LCFI28:
 922              		.cfi_def_cfa_register 6
 923 0008 4883EC40 		subq	$64, %rsp
 924 000c 48897DD8 		movq	%rdi, -40(%rbp)
 925 0010 488975D0 		movq	%rsi, -48(%rbp)
 926 0014 488955C8 		movq	%rdx, -56(%rbp)
 927              		.loc 2 383 1
 928 0018 64488B04 		movq	%fs:40, %rax
 928      25280000 
 928      00
 929 0021 488945F8 		movq	%rax, -8(%rbp)
 930 0025 31C0     		xorl	%eax, %eax
 384:/home/xingli/share/LiteOS_Lab/network/dtls/mbedtls/mbedtls-2.16.2/library/x509_crt.c ****     int ret;
 385:/home/xingli/share/LiteOS_Lab/network/dtls/mbedtls/mbedtls-2.16.2/library/x509_crt.c ****     size_t len;
 386:/home/xingli/share/LiteOS_Lab/network/dtls/mbedtls/mbedtls-2.16.2/library/x509_crt.c **** 
 387:/home/xingli/share/LiteOS_Lab/network/dtls/mbedtls/mbedtls-2.16.2/library/x509_crt.c ****     if( ( ret = mbedtls_asn1_get_tag( p, end, &len,
 931              		.loc 2 387 17
 932 0027 488D55F0 		leaq	-16(%rbp), %rdx
GAS LISTING /tmp/ccnlqVtp.s 			page 29


 933 002b 488B75D0 		movq	-48(%rbp), %rsi
 934 002f 488B45D8 		movq	-40(%rbp), %rax
 935 0033 B9A00000 		movl	$160, %ecx
 935      00
 936 0038 4889C7   		movq	%rax, %rdi
 937 003b E8000000 		call	mbedtls_asn1_get_tag@PLT
 937      00
 938 0040 8945EC   		movl	%eax, -20(%rbp)
 939              		.loc 2 387 7
 940 0043 837DEC00 		cmpl	$0, -20(%rbp)
 941 0047 7421     		je	.L70
 388:/home/xingli/share/LiteOS_Lab/network/dtls/mbedtls/mbedtls-2.16.2/library/x509_crt.c ****             MBEDTLS_ASN1_CONTEXT_SPECIFIC | MBEDTLS_ASN1_CONSTRUCTED | 0 ) ) != 0 )
 389:/home/xingli/share/LiteOS_Lab/network/dtls/mbedtls/mbedtls-2.16.2/library/x509_crt.c ****     {
 390:/home/xingli/share/LiteOS_Lab/network/dtls/mbedtls/mbedtls-2.16.2/library/x509_crt.c ****         if( ret == MBEDTLS_ERR_ASN1_UNEXPECTED_TAG )
 942              		.loc 2 390 11
 943 0049 837DEC9E 		cmpl	$-98, -20(%rbp)
 944 004d 7511     		jne	.L71
 391:/home/xingli/share/LiteOS_Lab/network/dtls/mbedtls/mbedtls-2.16.2/library/x509_crt.c ****         {
 392:/home/xingli/share/LiteOS_Lab/network/dtls/mbedtls/mbedtls-2.16.2/library/x509_crt.c ****             *ver = 0;
 945              		.loc 2 392 18
 946 004f 488B45C8 		movq	-56(%rbp), %rax
 947 0053 C7000000 		movl	$0, (%rax)
 947      0000
 393:/home/xingli/share/LiteOS_Lab/network/dtls/mbedtls/mbedtls-2.16.2/library/x509_crt.c ****             return( 0 );
 948              		.loc 2 393 19
 949 0059 B8000000 		movl	$0, %eax
 949      00
 950 005e EB5F     		jmp	.L75
 951              	.L71:
 394:/home/xingli/share/LiteOS_Lab/network/dtls/mbedtls/mbedtls-2.16.2/library/x509_crt.c ****         }
 395:/home/xingli/share/LiteOS_Lab/network/dtls/mbedtls/mbedtls-2.16.2/library/x509_crt.c **** 
 396:/home/xingli/share/LiteOS_Lab/network/dtls/mbedtls/mbedtls-2.16.2/library/x509_crt.c ****         return( MBEDTLS_ERR_X509_INVALID_FORMAT + ret );
 952              		.loc 2 396 49
 953 0060 8B45EC   		movl	-20(%rbp), %eax
 954 0063 2D802100 		subl	$8576, %eax
 954      00
 955 0068 EB55     		jmp	.L75
 956              	.L70:
 397:/home/xingli/share/LiteOS_Lab/network/dtls/mbedtls/mbedtls-2.16.2/library/x509_crt.c ****     }
 398:/home/xingli/share/LiteOS_Lab/network/dtls/mbedtls/mbedtls-2.16.2/library/x509_crt.c **** 
 399:/home/xingli/share/LiteOS_Lab/network/dtls/mbedtls/mbedtls-2.16.2/library/x509_crt.c ****     end = *p + len;
 957              		.loc 2 399 11
 958 006a 488B45D8 		movq	-40(%rbp), %rax
 959 006e 488B10   		movq	(%rax), %rdx
 960              		.loc 2 399 14
 961 0071 488B45F0 		movq	-16(%rbp), %rax
 962              		.loc 2 399 9
 963 0075 4801D0   		addq	%rdx, %rax
 964 0078 488945D0 		movq	%rax, -48(%rbp)
 400:/home/xingli/share/LiteOS_Lab/network/dtls/mbedtls/mbedtls-2.16.2/library/x509_crt.c **** 
 401:/home/xingli/share/LiteOS_Lab/network/dtls/mbedtls/mbedtls-2.16.2/library/x509_crt.c ****     if( ( ret = mbedtls_asn1_get_int( p, end, ver ) ) != 0 )
 965              		.loc 2 401 17
 966 007c 488B55C8 		movq	-56(%rbp), %rdx
 967 0080 488B4DD0 		movq	-48(%rbp), %rcx
 968 0084 488B45D8 		movq	-40(%rbp), %rax
 969 0088 4889CE   		movq	%rcx, %rsi
 970 008b 4889C7   		movq	%rax, %rdi
GAS LISTING /tmp/ccnlqVtp.s 			page 30


 971 008e E8000000 		call	mbedtls_asn1_get_int@PLT
 971      00
 972 0093 8945EC   		movl	%eax, -20(%rbp)
 973              		.loc 2 401 7
 974 0096 837DEC00 		cmpl	$0, -20(%rbp)
 975 009a 740A     		je	.L73
 402:/home/xingli/share/LiteOS_Lab/network/dtls/mbedtls/mbedtls-2.16.2/library/x509_crt.c ****         return( MBEDTLS_ERR_X509_INVALID_VERSION + ret );
 976              		.loc 2 402 50
 977 009c 8B45EC   		movl	-20(%rbp), %eax
 978 009f 2D002200 		subl	$8704, %eax
 978      00
 979 00a4 EB19     		jmp	.L75
 980              	.L73:
 403:/home/xingli/share/LiteOS_Lab/network/dtls/mbedtls/mbedtls-2.16.2/library/x509_crt.c **** 
 404:/home/xingli/share/LiteOS_Lab/network/dtls/mbedtls/mbedtls-2.16.2/library/x509_crt.c ****     if( *p != end )
 981              		.loc 2 404 9
 982 00a6 488B45D8 		movq	-40(%rbp), %rax
 983 00aa 488B00   		movq	(%rax), %rax
 984              		.loc 2 404 7
 985 00ad 483945D0 		cmpq	%rax, -48(%rbp)
 986 00b1 7407     		je	.L74
 405:/home/xingli/share/LiteOS_Lab/network/dtls/mbedtls/mbedtls-2.16.2/library/x509_crt.c ****         return( MBEDTLS_ERR_X509_INVALID_VERSION +
 987              		.loc 2 405 15
 988 00b3 B89ADDFF 		movl	$-8806, %eax
 988      FF
 989 00b8 EB05     		jmp	.L75
 990              	.L74:
 406:/home/xingli/share/LiteOS_Lab/network/dtls/mbedtls/mbedtls-2.16.2/library/x509_crt.c ****                 MBEDTLS_ERR_ASN1_LENGTH_MISMATCH );
 407:/home/xingli/share/LiteOS_Lab/network/dtls/mbedtls/mbedtls-2.16.2/library/x509_crt.c **** 
 408:/home/xingli/share/LiteOS_Lab/network/dtls/mbedtls/mbedtls-2.16.2/library/x509_crt.c ****     return( 0 );
 991              		.loc 2 408 11
 992 00ba B8000000 		movl	$0, %eax
 992      00
 993              	.L75:
 409:/home/xingli/share/LiteOS_Lab/network/dtls/mbedtls/mbedtls-2.16.2/library/x509_crt.c **** }
 994              		.loc 2 409 1 discriminator 1
 995 00bf 488B4DF8 		movq	-8(%rbp), %rcx
 996 00c3 6448330C 		xorq	%fs:40, %rcx
 996      25280000 
 996      00
 997 00cc 7405     		je	.L76
 998              		.loc 2 409 1 is_stmt 0
 999 00ce E8000000 		call	__stack_chk_fail@PLT
 999      00
 1000              	.L76:
 1001 00d3 C9       		leave
 1002              	.LCFI29:
 1003              		.cfi_def_cfa 7, 8
 1004 00d4 C3       		ret
 1005              		.cfi_endproc
 1006              	.LFE24:
 1008              		.section	.text.x509_get_dates,"ax",@progbits
 1010              	x509_get_dates:
 1011              	.LFB25:
 410:/home/xingli/share/LiteOS_Lab/network/dtls/mbedtls/mbedtls-2.16.2/library/x509_crt.c **** 
 411:/home/xingli/share/LiteOS_Lab/network/dtls/mbedtls/mbedtls-2.16.2/library/x509_crt.c **** /*
 412:/home/xingli/share/LiteOS_Lab/network/dtls/mbedtls/mbedtls-2.16.2/library/x509_crt.c ****  *  Validity ::= SEQUENCE {
GAS LISTING /tmp/ccnlqVtp.s 			page 31


 413:/home/xingli/share/LiteOS_Lab/network/dtls/mbedtls/mbedtls-2.16.2/library/x509_crt.c ****  *       notBefore      Time,
 414:/home/xingli/share/LiteOS_Lab/network/dtls/mbedtls/mbedtls-2.16.2/library/x509_crt.c ****  *       notAfter       Time }
 415:/home/xingli/share/LiteOS_Lab/network/dtls/mbedtls/mbedtls-2.16.2/library/x509_crt.c ****  */
 416:/home/xingli/share/LiteOS_Lab/network/dtls/mbedtls/mbedtls-2.16.2/library/x509_crt.c **** static int x509_get_dates( unsigned char **p,
 417:/home/xingli/share/LiteOS_Lab/network/dtls/mbedtls/mbedtls-2.16.2/library/x509_crt.c ****                            const unsigned char *end,
 418:/home/xingli/share/LiteOS_Lab/network/dtls/mbedtls/mbedtls-2.16.2/library/x509_crt.c ****                            mbedtls_x509_time *from,
 419:/home/xingli/share/LiteOS_Lab/network/dtls/mbedtls/mbedtls-2.16.2/library/x509_crt.c ****                            mbedtls_x509_time *to )
 420:/home/xingli/share/LiteOS_Lab/network/dtls/mbedtls/mbedtls-2.16.2/library/x509_crt.c **** {
 1012              		.loc 2 420 1 is_stmt 1
 1013              		.cfi_startproc
 1014 0000 F30F1EFA 		endbr64
 1015 0004 55       		pushq	%rbp
 1016              	.LCFI30:
 1017              		.cfi_def_cfa_offset 16
 1018              		.cfi_offset 6, -16
 1019 0005 4889E5   		movq	%rsp, %rbp
 1020              	.LCFI31:
 1021              		.cfi_def_cfa_register 6
 1022 0008 4883EC40 		subq	$64, %rsp
 1023 000c 48897DD8 		movq	%rdi, -40(%rbp)
 1024 0010 488975D0 		movq	%rsi, -48(%rbp)
 1025 0014 488955C8 		movq	%rdx, -56(%rbp)
 1026 0018 48894DC0 		movq	%rcx, -64(%rbp)
 1027              		.loc 2 420 1
 1028 001c 64488B04 		movq	%fs:40, %rax
 1028      25280000 
 1028      00
 1029 0025 488945F8 		movq	%rax, -8(%rbp)
 1030 0029 31C0     		xorl	%eax, %eax
 421:/home/xingli/share/LiteOS_Lab/network/dtls/mbedtls/mbedtls-2.16.2/library/x509_crt.c ****     int ret;
 422:/home/xingli/share/LiteOS_Lab/network/dtls/mbedtls/mbedtls-2.16.2/library/x509_crt.c ****     size_t len;
 423:/home/xingli/share/LiteOS_Lab/network/dtls/mbedtls/mbedtls-2.16.2/library/x509_crt.c **** 
 424:/home/xingli/share/LiteOS_Lab/network/dtls/mbedtls/mbedtls-2.16.2/library/x509_crt.c ****     if( ( ret = mbedtls_asn1_get_tag( p, end, &len,
 1031              		.loc 2 424 17
 1032 002b 488D55F0 		leaq	-16(%rbp), %rdx
 1033 002f 488B75D0 		movq	-48(%rbp), %rsi
 1034 0033 488B45D8 		movq	-40(%rbp), %rax
 1035 0037 B9300000 		movl	$48, %ecx
 1035      00
 1036 003c 4889C7   		movq	%rax, %rdi
 1037 003f E8000000 		call	mbedtls_asn1_get_tag@PLT
 1037      00
 1038 0044 8945EC   		movl	%eax, -20(%rbp)
 1039              		.loc 2 424 7
 1040 0047 837DEC00 		cmpl	$0, -20(%rbp)
 1041 004b 740A     		je	.L78
 425:/home/xingli/share/LiteOS_Lab/network/dtls/mbedtls/mbedtls-2.16.2/library/x509_crt.c ****             MBEDTLS_ASN1_CONSTRUCTED | MBEDTLS_ASN1_SEQUENCE ) ) != 0 )
 426:/home/xingli/share/LiteOS_Lab/network/dtls/mbedtls/mbedtls-2.16.2/library/x509_crt.c ****         return( MBEDTLS_ERR_X509_INVALID_DATE + ret );
 1042              		.loc 2 426 47
 1043 004d 8B45EC   		movl	-20(%rbp), %eax
 1044 0050 2D002400 		subl	$9216, %eax
 1044      00
 1045 0055 EB75     		jmp	.L83
 1046              	.L78:
 427:/home/xingli/share/LiteOS_Lab/network/dtls/mbedtls/mbedtls-2.16.2/library/x509_crt.c **** 
 428:/home/xingli/share/LiteOS_Lab/network/dtls/mbedtls/mbedtls-2.16.2/library/x509_crt.c ****     end = *p + len;
 1047              		.loc 2 428 11
GAS LISTING /tmp/ccnlqVtp.s 			page 32


 1048 0057 488B45D8 		movq	-40(%rbp), %rax
 1049 005b 488B10   		movq	(%rax), %rdx
 1050              		.loc 2 428 14
 1051 005e 488B45F0 		movq	-16(%rbp), %rax
 1052              		.loc 2 428 9
 1053 0062 4801D0   		addq	%rdx, %rax
 1054 0065 488945D0 		movq	%rax, -48(%rbp)
 429:/home/xingli/share/LiteOS_Lab/network/dtls/mbedtls/mbedtls-2.16.2/library/x509_crt.c **** 
 430:/home/xingli/share/LiteOS_Lab/network/dtls/mbedtls/mbedtls-2.16.2/library/x509_crt.c ****     if( ( ret = mbedtls_x509_get_time( p, end, from ) ) != 0 )
 1055              		.loc 2 430 17
 1056 0069 488B55C8 		movq	-56(%rbp), %rdx
 1057 006d 488B4DD0 		movq	-48(%rbp), %rcx
 1058 0071 488B45D8 		movq	-40(%rbp), %rax
 1059 0075 4889CE   		movq	%rcx, %rsi
 1060 0078 4889C7   		movq	%rax, %rdi
 1061 007b E8000000 		call	mbedtls_x509_get_time@PLT
 1061      00
 1062 0080 8945EC   		movl	%eax, -20(%rbp)
 1063              		.loc 2 430 7
 1064 0083 837DEC00 		cmpl	$0, -20(%rbp)
 1065 0087 7405     		je	.L80
 431:/home/xingli/share/LiteOS_Lab/network/dtls/mbedtls/mbedtls-2.16.2/library/x509_crt.c ****         return( ret );
 1066              		.loc 2 431 15
 1067 0089 8B45EC   		movl	-20(%rbp), %eax
 1068 008c EB3E     		jmp	.L83
 1069              	.L80:
 432:/home/xingli/share/LiteOS_Lab/network/dtls/mbedtls/mbedtls-2.16.2/library/x509_crt.c **** 
 433:/home/xingli/share/LiteOS_Lab/network/dtls/mbedtls/mbedtls-2.16.2/library/x509_crt.c ****     if( ( ret = mbedtls_x509_get_time( p, end, to ) ) != 0 )
 1070              		.loc 2 433 17
 1071 008e 488B55C0 		movq	-64(%rbp), %rdx
 1072 0092 488B4DD0 		movq	-48(%rbp), %rcx
 1073 0096 488B45D8 		movq	-40(%rbp), %rax
 1074 009a 4889CE   		movq	%rcx, %rsi
 1075 009d 4889C7   		movq	%rax, %rdi
 1076 00a0 E8000000 		call	mbedtls_x509_get_time@PLT
 1076      00
 1077 00a5 8945EC   		movl	%eax, -20(%rbp)
 1078              		.loc 2 433 7
 1079 00a8 837DEC00 		cmpl	$0, -20(%rbp)
 1080 00ac 7405     		je	.L81
 434:/home/xingli/share/LiteOS_Lab/network/dtls/mbedtls/mbedtls-2.16.2/library/x509_crt.c ****         return( ret );
 1081              		.loc 2 434 15
 1082 00ae 8B45EC   		movl	-20(%rbp), %eax
 1083 00b1 EB19     		jmp	.L83
 1084              	.L81:
 435:/home/xingli/share/LiteOS_Lab/network/dtls/mbedtls/mbedtls-2.16.2/library/x509_crt.c **** 
 436:/home/xingli/share/LiteOS_Lab/network/dtls/mbedtls/mbedtls-2.16.2/library/x509_crt.c ****     if( *p != end )
 1085              		.loc 2 436 9
 1086 00b3 488B45D8 		movq	-40(%rbp), %rax
 1087 00b7 488B00   		movq	(%rax), %rax
 1088              		.loc 2 436 7
 1089 00ba 483945D0 		cmpq	%rax, -48(%rbp)
 1090 00be 7407     		je	.L82
 437:/home/xingli/share/LiteOS_Lab/network/dtls/mbedtls/mbedtls-2.16.2/library/x509_crt.c ****         return( MBEDTLS_ERR_X509_INVALID_DATE +
 1091              		.loc 2 437 15
 1092 00c0 B89ADBFF 		movl	$-9318, %eax
 1092      FF
GAS LISTING /tmp/ccnlqVtp.s 			page 33


 1093 00c5 EB05     		jmp	.L83
 1094              	.L82:
 438:/home/xingli/share/LiteOS_Lab/network/dtls/mbedtls/mbedtls-2.16.2/library/x509_crt.c ****                 MBEDTLS_ERR_ASN1_LENGTH_MISMATCH );
 439:/home/xingli/share/LiteOS_Lab/network/dtls/mbedtls/mbedtls-2.16.2/library/x509_crt.c **** 
 440:/home/xingli/share/LiteOS_Lab/network/dtls/mbedtls/mbedtls-2.16.2/library/x509_crt.c ****     return( 0 );
 1095              		.loc 2 440 11
 1096 00c7 B8000000 		movl	$0, %eax
 1096      00
 1097              	.L83:
 441:/home/xingli/share/LiteOS_Lab/network/dtls/mbedtls/mbedtls-2.16.2/library/x509_crt.c **** }
 1098              		.loc 2 441 1 discriminator 1
 1099 00cc 488B7DF8 		movq	-8(%rbp), %rdi
 1100 00d0 6448333C 		xorq	%fs:40, %rdi
 1100      25280000 
 1100      00
 1101 00d9 7405     		je	.L84
 1102              		.loc 2 441 1 is_stmt 0
 1103 00db E8000000 		call	__stack_chk_fail@PLT
 1103      00
 1104              	.L84:
 1105 00e0 C9       		leave
 1106              	.LCFI32:
 1107              		.cfi_def_cfa 7, 8
 1108 00e1 C3       		ret
 1109              		.cfi_endproc
 1110              	.LFE25:
 1112              		.section	.text.x509_get_uid,"ax",@progbits
 1114              	x509_get_uid:
 1115              	.LFB26:
 442:/home/xingli/share/LiteOS_Lab/network/dtls/mbedtls/mbedtls-2.16.2/library/x509_crt.c **** 
 443:/home/xingli/share/LiteOS_Lab/network/dtls/mbedtls/mbedtls-2.16.2/library/x509_crt.c **** /*
 444:/home/xingli/share/LiteOS_Lab/network/dtls/mbedtls/mbedtls-2.16.2/library/x509_crt.c ****  * X.509 v2/v3 unique identifier (not parsed)
 445:/home/xingli/share/LiteOS_Lab/network/dtls/mbedtls/mbedtls-2.16.2/library/x509_crt.c ****  */
 446:/home/xingli/share/LiteOS_Lab/network/dtls/mbedtls/mbedtls-2.16.2/library/x509_crt.c **** static int x509_get_uid( unsigned char **p,
 447:/home/xingli/share/LiteOS_Lab/network/dtls/mbedtls/mbedtls-2.16.2/library/x509_crt.c ****                          const unsigned char *end,
 448:/home/xingli/share/LiteOS_Lab/network/dtls/mbedtls/mbedtls-2.16.2/library/x509_crt.c ****                          mbedtls_x509_buf *uid, int n )
 449:/home/xingli/share/LiteOS_Lab/network/dtls/mbedtls/mbedtls-2.16.2/library/x509_crt.c **** {
 1116              		.loc 2 449 1 is_stmt 1
 1117              		.cfi_startproc
 1118 0000 F30F1EFA 		endbr64
 1119 0004 55       		pushq	%rbp
 1120              	.LCFI33:
 1121              		.cfi_def_cfa_offset 16
 1122              		.cfi_offset 6, -16
 1123 0005 4889E5   		movq	%rsp, %rbp
 1124              	.LCFI34:
 1125              		.cfi_def_cfa_register 6
 1126 0008 4883EC30 		subq	$48, %rsp
 1127 000c 48897DE8 		movq	%rdi, -24(%rbp)
 1128 0010 488975E0 		movq	%rsi, -32(%rbp)
 1129 0014 488955D8 		movq	%rdx, -40(%rbp)
 1130 0018 894DD4   		movl	%ecx, -44(%rbp)
 1131              		.loc 2 449 1
 1132 001b 64488B04 		movq	%fs:40, %rax
 1132      25280000 
 1132      00
 1133 0024 488945F8 		movq	%rax, -8(%rbp)
GAS LISTING /tmp/ccnlqVtp.s 			page 34


 1134 0028 31C0     		xorl	%eax, %eax
 450:/home/xingli/share/LiteOS_Lab/network/dtls/mbedtls/mbedtls-2.16.2/library/x509_crt.c ****     int ret;
 451:/home/xingli/share/LiteOS_Lab/network/dtls/mbedtls/mbedtls-2.16.2/library/x509_crt.c **** 
 452:/home/xingli/share/LiteOS_Lab/network/dtls/mbedtls/mbedtls-2.16.2/library/x509_crt.c ****     if( *p == end )
 1135              		.loc 2 452 9
 1136 002a 488B45E8 		movq	-24(%rbp), %rax
 1137 002e 488B00   		movq	(%rax), %rax
 1138              		.loc 2 452 7
 1139 0031 483945E0 		cmpq	%rax, -32(%rbp)
 1140 0035 7507     		jne	.L86
 453:/home/xingli/share/LiteOS_Lab/network/dtls/mbedtls/mbedtls-2.16.2/library/x509_crt.c ****         return( 0 );
 1141              		.loc 2 453 15
 1142 0037 B8000000 		movl	$0, %eax
 1142      00
 1143 003c EB7F     		jmp	.L87
 1144              	.L86:
 454:/home/xingli/share/LiteOS_Lab/network/dtls/mbedtls/mbedtls-2.16.2/library/x509_crt.c **** 
 455:/home/xingli/share/LiteOS_Lab/network/dtls/mbedtls/mbedtls-2.16.2/library/x509_crt.c ****     uid->tag = **p;
 1145              		.loc 2 455 17
 1146 003e 488B45E8 		movq	-24(%rbp), %rax
 1147 0042 488B00   		movq	(%rax), %rax
 1148              		.loc 2 455 16
 1149 0045 0FB600   		movzbl	(%rax), %eax
 1150 0048 0FB6D0   		movzbl	%al, %edx
 1151              		.loc 2 455 14
 1152 004b 488B45D8 		movq	-40(%rbp), %rax
 1153 004f 8910     		movl	%edx, (%rax)
 456:/home/xingli/share/LiteOS_Lab/network/dtls/mbedtls/mbedtls-2.16.2/library/x509_crt.c **** 
 457:/home/xingli/share/LiteOS_Lab/network/dtls/mbedtls/mbedtls-2.16.2/library/x509_crt.c ****     if( ( ret = mbedtls_asn1_get_tag( p, end, &uid->len,
 1154              		.loc 2 457 17
 1155 0051 8B45D4   		movl	-44(%rbp), %eax
 1156 0054 0CA0     		orb	$-96, %al
 1157 0056 89C1     		movl	%eax, %ecx
 1158 0058 488B45D8 		movq	-40(%rbp), %rax
 1159 005c 488D5008 		leaq	8(%rax), %rdx
 1160 0060 488B75E0 		movq	-32(%rbp), %rsi
 1161 0064 488B45E8 		movq	-24(%rbp), %rax
 1162 0068 4889C7   		movq	%rax, %rdi
 1163 006b E8000000 		call	mbedtls_asn1_get_tag@PLT
 1163      00
 1164 0070 8945F4   		movl	%eax, -12(%rbp)
 1165              		.loc 2 457 7
 1166 0073 837DF400 		cmpl	$0, -12(%rbp)
 1167 0077 7417     		je	.L88
 458:/home/xingli/share/LiteOS_Lab/network/dtls/mbedtls/mbedtls-2.16.2/library/x509_crt.c ****             MBEDTLS_ASN1_CONTEXT_SPECIFIC | MBEDTLS_ASN1_CONSTRUCTED | n ) ) != 0 )
 459:/home/xingli/share/LiteOS_Lab/network/dtls/mbedtls/mbedtls-2.16.2/library/x509_crt.c ****     {
 460:/home/xingli/share/LiteOS_Lab/network/dtls/mbedtls/mbedtls-2.16.2/library/x509_crt.c ****         if( ret == MBEDTLS_ERR_ASN1_UNEXPECTED_TAG )
 1168              		.loc 2 460 11
 1169 0079 837DF49E 		cmpl	$-98, -12(%rbp)
 1170 007d 7507     		jne	.L89
 461:/home/xingli/share/LiteOS_Lab/network/dtls/mbedtls/mbedtls-2.16.2/library/x509_crt.c ****             return( 0 );
 1171              		.loc 2 461 19
 1172 007f B8000000 		movl	$0, %eax
 1172      00
 1173 0084 EB37     		jmp	.L87
 1174              	.L89:
 462:/home/xingli/share/LiteOS_Lab/network/dtls/mbedtls/mbedtls-2.16.2/library/x509_crt.c **** 
GAS LISTING /tmp/ccnlqVtp.s 			page 35


 463:/home/xingli/share/LiteOS_Lab/network/dtls/mbedtls/mbedtls-2.16.2/library/x509_crt.c ****         return( MBEDTLS_ERR_X509_INVALID_FORMAT + ret );
 1175              		.loc 2 463 49
 1176 0086 8B45F4   		movl	-12(%rbp), %eax
 1177 0089 2D802100 		subl	$8576, %eax
 1177      00
 1178 008e EB2D     		jmp	.L87
 1179              	.L88:
 464:/home/xingli/share/LiteOS_Lab/network/dtls/mbedtls/mbedtls-2.16.2/library/x509_crt.c ****     }
 465:/home/xingli/share/LiteOS_Lab/network/dtls/mbedtls/mbedtls-2.16.2/library/x509_crt.c **** 
 466:/home/xingli/share/LiteOS_Lab/network/dtls/mbedtls/mbedtls-2.16.2/library/x509_crt.c ****     uid->p = *p;
 1180              		.loc 2 466 14
 1181 0090 488B45E8 		movq	-24(%rbp), %rax
 1182 0094 488B10   		movq	(%rax), %rdx
 1183              		.loc 2 466 12
 1184 0097 488B45D8 		movq	-40(%rbp), %rax
 1185 009b 48895010 		movq	%rdx, 16(%rax)
 467:/home/xingli/share/LiteOS_Lab/network/dtls/mbedtls/mbedtls-2.16.2/library/x509_crt.c ****     *p += uid->len;
 1186              		.loc 2 467 8
 1187 009f 488B45E8 		movq	-24(%rbp), %rax
 1188 00a3 488B10   		movq	(%rax), %rdx
 1189              		.loc 2 467 14
 1190 00a6 488B45D8 		movq	-40(%rbp), %rax
 1191 00aa 488B4008 		movq	8(%rax), %rax
 1192              		.loc 2 467 8
 1193 00ae 4801C2   		addq	%rax, %rdx
 1194 00b1 488B45E8 		movq	-24(%rbp), %rax
 1195 00b5 488910   		movq	%rdx, (%rax)
 468:/home/xingli/share/LiteOS_Lab/network/dtls/mbedtls/mbedtls-2.16.2/library/x509_crt.c **** 
 469:/home/xingli/share/LiteOS_Lab/network/dtls/mbedtls/mbedtls-2.16.2/library/x509_crt.c ****     return( 0 );
 1196              		.loc 2 469 11
 1197 00b8 B8000000 		movl	$0, %eax
 1197      00
 1198              	.L87:
 470:/home/xingli/share/LiteOS_Lab/network/dtls/mbedtls/mbedtls-2.16.2/library/x509_crt.c **** }
 1199              		.loc 2 470 1
 1200 00bd 488B7DF8 		movq	-8(%rbp), %rdi
 1201 00c1 6448333C 		xorq	%fs:40, %rdi
 1201      25280000 
 1201      00
 1202 00ca 7405     		je	.L90
 1203 00cc E8000000 		call	__stack_chk_fail@PLT
 1203      00
 1204              	.L90:
 1205 00d1 C9       		leave
 1206              	.LCFI35:
 1207              		.cfi_def_cfa 7, 8
 1208 00d2 C3       		ret
 1209              		.cfi_endproc
 1210              	.LFE26:
 1212              		.section	.text.x509_get_basic_constraints,"ax",@progbits
 1214              	x509_get_basic_constraints:
 1215              	.LFB27:
 471:/home/xingli/share/LiteOS_Lab/network/dtls/mbedtls/mbedtls-2.16.2/library/x509_crt.c **** 
 472:/home/xingli/share/LiteOS_Lab/network/dtls/mbedtls/mbedtls-2.16.2/library/x509_crt.c **** static int x509_get_basic_constraints( unsigned char **p,
 473:/home/xingli/share/LiteOS_Lab/network/dtls/mbedtls/mbedtls-2.16.2/library/x509_crt.c ****                                        const unsigned char *end,
 474:/home/xingli/share/LiteOS_Lab/network/dtls/mbedtls/mbedtls-2.16.2/library/x509_crt.c ****                                        int *ca_istrue,
 475:/home/xingli/share/LiteOS_Lab/network/dtls/mbedtls/mbedtls-2.16.2/library/x509_crt.c ****                                        int *max_pathlen )
GAS LISTING /tmp/ccnlqVtp.s 			page 36


 476:/home/xingli/share/LiteOS_Lab/network/dtls/mbedtls/mbedtls-2.16.2/library/x509_crt.c **** {
 1216              		.loc 2 476 1
 1217              		.cfi_startproc
 1218 0000 F30F1EFA 		endbr64
 1219 0004 55       		pushq	%rbp
 1220              	.LCFI36:
 1221              		.cfi_def_cfa_offset 16
 1222              		.cfi_offset 6, -16
 1223 0005 4889E5   		movq	%rsp, %rbp
 1224              	.LCFI37:
 1225              		.cfi_def_cfa_register 6
 1226 0008 4883EC40 		subq	$64, %rsp
 1227 000c 48897DD8 		movq	%rdi, -40(%rbp)
 1228 0010 488975D0 		movq	%rsi, -48(%rbp)
 1229 0014 488955C8 		movq	%rdx, -56(%rbp)
 1230 0018 48894DC0 		movq	%rcx, -64(%rbp)
 1231              		.loc 2 476 1
 1232 001c 64488B04 		movq	%fs:40, %rax
 1232      25280000 
 1232      00
 1233 0025 488945F8 		movq	%rax, -8(%rbp)
 1234 0029 31C0     		xorl	%eax, %eax
 477:/home/xingli/share/LiteOS_Lab/network/dtls/mbedtls/mbedtls-2.16.2/library/x509_crt.c ****     int ret;
 478:/home/xingli/share/LiteOS_Lab/network/dtls/mbedtls/mbedtls-2.16.2/library/x509_crt.c ****     size_t len;
 479:/home/xingli/share/LiteOS_Lab/network/dtls/mbedtls/mbedtls-2.16.2/library/x509_crt.c **** 
 480:/home/xingli/share/LiteOS_Lab/network/dtls/mbedtls/mbedtls-2.16.2/library/x509_crt.c ****     /*
 481:/home/xingli/share/LiteOS_Lab/network/dtls/mbedtls/mbedtls-2.16.2/library/x509_crt.c ****      * BasicConstraints ::= SEQUENCE {
 482:/home/xingli/share/LiteOS_Lab/network/dtls/mbedtls/mbedtls-2.16.2/library/x509_crt.c ****      *      cA                      BOOLEAN DEFAULT FALSE,
 483:/home/xingli/share/LiteOS_Lab/network/dtls/mbedtls/mbedtls-2.16.2/library/x509_crt.c ****      *      pathLenConstraint       INTEGER (0..MAX) OPTIONAL }
 484:/home/xingli/share/LiteOS_Lab/network/dtls/mbedtls/mbedtls-2.16.2/library/x509_crt.c ****      */
 485:/home/xingli/share/LiteOS_Lab/network/dtls/mbedtls/mbedtls-2.16.2/library/x509_crt.c ****     *ca_istrue = 0; /* DEFAULT FALSE */
 1235              		.loc 2 485 16
 1236 002b 488B45C8 		movq	-56(%rbp), %rax
 1237 002f C7000000 		movl	$0, (%rax)
 1237      0000
 486:/home/xingli/share/LiteOS_Lab/network/dtls/mbedtls/mbedtls-2.16.2/library/x509_crt.c ****     *max_pathlen = 0; /* endless */
 1238              		.loc 2 486 18
 1239 0035 488B45C0 		movq	-64(%rbp), %rax
 1240 0039 C7000000 		movl	$0, (%rax)
 1240      0000
 487:/home/xingli/share/LiteOS_Lab/network/dtls/mbedtls/mbedtls-2.16.2/library/x509_crt.c **** 
 488:/home/xingli/share/LiteOS_Lab/network/dtls/mbedtls/mbedtls-2.16.2/library/x509_crt.c ****     if( ( ret = mbedtls_asn1_get_tag( p, end, &len,
 1241              		.loc 2 488 17
 1242 003f 488D55F0 		leaq	-16(%rbp), %rdx
 1243 0043 488B75D0 		movq	-48(%rbp), %rsi
 1244 0047 488B45D8 		movq	-40(%rbp), %rax
 1245 004b B9300000 		movl	$48, %ecx
 1245      00
 1246 0050 4889C7   		movq	%rax, %rdi
 1247 0053 E8000000 		call	mbedtls_asn1_get_tag@PLT
 1247      00
 1248 0058 8945EC   		movl	%eax, -20(%rbp)
 1249              		.loc 2 488 7
 1250 005b 837DEC00 		cmpl	$0, -20(%rbp)
 1251 005f 740D     		je	.L92
 489:/home/xingli/share/LiteOS_Lab/network/dtls/mbedtls/mbedtls-2.16.2/library/x509_crt.c ****             MBEDTLS_ASN1_CONSTRUCTED | MBEDTLS_ASN1_SEQUENCE ) ) != 0 )
 490:/home/xingli/share/LiteOS_Lab/network/dtls/mbedtls/mbedtls-2.16.2/library/x509_crt.c ****         return( MBEDTLS_ERR_X509_INVALID_EXTENSIONS + ret );
GAS LISTING /tmp/ccnlqVtp.s 			page 37


 1252              		.loc 2 490 53
 1253 0061 8B45EC   		movl	-20(%rbp), %eax
 1254 0064 2D002500 		subl	$9472, %eax
 1254      00
 1255 0069 E9E10000 		jmp	.L101
 1255      00
 1256              	.L92:
 491:/home/xingli/share/LiteOS_Lab/network/dtls/mbedtls/mbedtls-2.16.2/library/x509_crt.c **** 
 492:/home/xingli/share/LiteOS_Lab/network/dtls/mbedtls/mbedtls-2.16.2/library/x509_crt.c ****     if( *p == end )
 1257              		.loc 2 492 9
 1258 006e 488B45D8 		movq	-40(%rbp), %rax
 1259 0072 488B00   		movq	(%rax), %rax
 1260              		.loc 2 492 7
 1261 0075 483945D0 		cmpq	%rax, -48(%rbp)
 1262 0079 750A     		jne	.L94
 493:/home/xingli/share/LiteOS_Lab/network/dtls/mbedtls/mbedtls-2.16.2/library/x509_crt.c ****         return( 0 );
 1263              		.loc 2 493 15
 1264 007b B8000000 		movl	$0, %eax
 1264      00
 1265 0080 E9CA0000 		jmp	.L101
 1265      00
 1266              	.L94:
 494:/home/xingli/share/LiteOS_Lab/network/dtls/mbedtls/mbedtls-2.16.2/library/x509_crt.c **** 
 495:/home/xingli/share/LiteOS_Lab/network/dtls/mbedtls/mbedtls-2.16.2/library/x509_crt.c ****     if( ( ret = mbedtls_asn1_get_bool( p, end, ca_istrue ) ) != 0 )
 1267              		.loc 2 495 17
 1268 0085 488B55C8 		movq	-56(%rbp), %rdx
 1269 0089 488B4DD0 		movq	-48(%rbp), %rcx
 1270 008d 488B45D8 		movq	-40(%rbp), %rax
 1271 0091 4889CE   		movq	%rcx, %rsi
 1272 0094 4889C7   		movq	%rax, %rdi
 1273 0097 E8000000 		call	mbedtls_asn1_get_bool@PLT
 1273      00
 1274 009c 8945EC   		movl	%eax, -20(%rbp)
 1275              		.loc 2 495 7
 1276 009f 837DEC00 		cmpl	$0, -20(%rbp)
 1277 00a3 7444     		je	.L95
 496:/home/xingli/share/LiteOS_Lab/network/dtls/mbedtls/mbedtls-2.16.2/library/x509_crt.c ****     {
 497:/home/xingli/share/LiteOS_Lab/network/dtls/mbedtls/mbedtls-2.16.2/library/x509_crt.c ****         if( ret == MBEDTLS_ERR_ASN1_UNEXPECTED_TAG )
 1278              		.loc 2 497 11
 1279 00a5 837DEC9E 		cmpl	$-98, -20(%rbp)
 1280 00a9 751A     		jne	.L96
 498:/home/xingli/share/LiteOS_Lab/network/dtls/mbedtls/mbedtls-2.16.2/library/x509_crt.c ****             ret = mbedtls_asn1_get_int( p, end, ca_istrue );
 1281              		.loc 2 498 19
 1282 00ab 488B55C8 		movq	-56(%rbp), %rdx
 1283 00af 488B4DD0 		movq	-48(%rbp), %rcx
 1284 00b3 488B45D8 		movq	-40(%rbp), %rax
 1285 00b7 4889CE   		movq	%rcx, %rsi
 1286 00ba 4889C7   		movq	%rax, %rdi
 1287 00bd E8000000 		call	mbedtls_asn1_get_int@PLT
 1287      00
 1288 00c2 8945EC   		movl	%eax, -20(%rbp)
 1289              	.L96:
 499:/home/xingli/share/LiteOS_Lab/network/dtls/mbedtls/mbedtls-2.16.2/library/x509_crt.c **** 
 500:/home/xingli/share/LiteOS_Lab/network/dtls/mbedtls/mbedtls-2.16.2/library/x509_crt.c ****         if( ret != 0 )
 1290              		.loc 2 500 11
 1291 00c5 837DEC00 		cmpl	$0, -20(%rbp)
 1292 00c9 740A     		je	.L97
GAS LISTING /tmp/ccnlqVtp.s 			page 38


 501:/home/xingli/share/LiteOS_Lab/network/dtls/mbedtls/mbedtls-2.16.2/library/x509_crt.c ****             return( MBEDTLS_ERR_X509_INVALID_EXTENSIONS + ret );
 1293              		.loc 2 501 57
 1294 00cb 8B45EC   		movl	-20(%rbp), %eax
 1295 00ce 2D002500 		subl	$9472, %eax
 1295      00
 1296 00d3 EB7A     		jmp	.L101
 1297              	.L97:
 502:/home/xingli/share/LiteOS_Lab/network/dtls/mbedtls/mbedtls-2.16.2/library/x509_crt.c **** 
 503:/home/xingli/share/LiteOS_Lab/network/dtls/mbedtls/mbedtls-2.16.2/library/x509_crt.c ****         if( *ca_istrue != 0 )
 1298              		.loc 2 503 13
 1299 00d5 488B45C8 		movq	-56(%rbp), %rax
 1300 00d9 8B00     		movl	(%rax), %eax
 1301              		.loc 2 503 11
 1302 00db 85C0     		testl	%eax, %eax
 1303 00dd 740A     		je	.L95
 504:/home/xingli/share/LiteOS_Lab/network/dtls/mbedtls/mbedtls-2.16.2/library/x509_crt.c ****             *ca_istrue = 1;
 1304              		.loc 2 504 24
 1305 00df 488B45C8 		movq	-56(%rbp), %rax
 1306 00e3 C7000100 		movl	$1, (%rax)
 1306      0000
 1307              	.L95:
 505:/home/xingli/share/LiteOS_Lab/network/dtls/mbedtls/mbedtls-2.16.2/library/x509_crt.c ****     }
 506:/home/xingli/share/LiteOS_Lab/network/dtls/mbedtls/mbedtls-2.16.2/library/x509_crt.c **** 
 507:/home/xingli/share/LiteOS_Lab/network/dtls/mbedtls/mbedtls-2.16.2/library/x509_crt.c ****     if( *p == end )
 1308              		.loc 2 507 9
 1309 00e9 488B45D8 		movq	-40(%rbp), %rax
 1310 00ed 488B00   		movq	(%rax), %rax
 1311              		.loc 2 507 7
 1312 00f0 483945D0 		cmpq	%rax, -48(%rbp)
 1313 00f4 7507     		jne	.L98
 508:/home/xingli/share/LiteOS_Lab/network/dtls/mbedtls/mbedtls-2.16.2/library/x509_crt.c ****         return( 0 );
 1314              		.loc 2 508 15
 1315 00f6 B8000000 		movl	$0, %eax
 1315      00
 1316 00fb EB52     		jmp	.L101
 1317              	.L98:
 509:/home/xingli/share/LiteOS_Lab/network/dtls/mbedtls/mbedtls-2.16.2/library/x509_crt.c **** 
 510:/home/xingli/share/LiteOS_Lab/network/dtls/mbedtls/mbedtls-2.16.2/library/x509_crt.c ****     if( ( ret = mbedtls_asn1_get_int( p, end, max_pathlen ) ) != 0 )
 1318              		.loc 2 510 17
 1319 00fd 488B55C0 		movq	-64(%rbp), %rdx
 1320 0101 488B4DD0 		movq	-48(%rbp), %rcx
 1321 0105 488B45D8 		movq	-40(%rbp), %rax
 1322 0109 4889CE   		movq	%rcx, %rsi
 1323 010c 4889C7   		movq	%rax, %rdi
 1324 010f E8000000 		call	mbedtls_asn1_get_int@PLT
 1324      00
 1325 0114 8945EC   		movl	%eax, -20(%rbp)
 1326              		.loc 2 510 7
 1327 0117 837DEC00 		cmpl	$0, -20(%rbp)
 1328 011b 740A     		je	.L99
 511:/home/xingli/share/LiteOS_Lab/network/dtls/mbedtls/mbedtls-2.16.2/library/x509_crt.c ****         return( MBEDTLS_ERR_X509_INVALID_EXTENSIONS + ret );
 1329              		.loc 2 511 53
 1330 011d 8B45EC   		movl	-20(%rbp), %eax
 1331 0120 2D002500 		subl	$9472, %eax
 1331      00
 1332 0125 EB28     		jmp	.L101
 1333              	.L99:
GAS LISTING /tmp/ccnlqVtp.s 			page 39


 512:/home/xingli/share/LiteOS_Lab/network/dtls/mbedtls/mbedtls-2.16.2/library/x509_crt.c **** 
 513:/home/xingli/share/LiteOS_Lab/network/dtls/mbedtls/mbedtls-2.16.2/library/x509_crt.c ****     if( *p != end )
 1334              		.loc 2 513 9
 1335 0127 488B45D8 		movq	-40(%rbp), %rax
 1336 012b 488B00   		movq	(%rax), %rax
 1337              		.loc 2 513 7
 1338 012e 483945D0 		cmpq	%rax, -48(%rbp)
 1339 0132 7407     		je	.L100
 514:/home/xingli/share/LiteOS_Lab/network/dtls/mbedtls/mbedtls-2.16.2/library/x509_crt.c ****         return( MBEDTLS_ERR_X509_INVALID_EXTENSIONS +
 1340              		.loc 2 514 15
 1341 0134 B89ADAFF 		movl	$-9574, %eax
 1341      FF
 1342 0139 EB14     		jmp	.L101
 1343              	.L100:
 515:/home/xingli/share/LiteOS_Lab/network/dtls/mbedtls/mbedtls-2.16.2/library/x509_crt.c ****                 MBEDTLS_ERR_ASN1_LENGTH_MISMATCH );
 516:/home/xingli/share/LiteOS_Lab/network/dtls/mbedtls/mbedtls-2.16.2/library/x509_crt.c **** 
 517:/home/xingli/share/LiteOS_Lab/network/dtls/mbedtls/mbedtls-2.16.2/library/x509_crt.c ****     (*max_pathlen)++;
 1344              		.loc 2 517 6
 1345 013b 488B45C0 		movq	-64(%rbp), %rax
 1346 013f 8B00     		movl	(%rax), %eax
 1347              		.loc 2 517 19
 1348 0141 8D5001   		leal	1(%rax), %edx
 1349 0144 488B45C0 		movq	-64(%rbp), %rax
 1350 0148 8910     		movl	%edx, (%rax)
 518:/home/xingli/share/LiteOS_Lab/network/dtls/mbedtls/mbedtls-2.16.2/library/x509_crt.c **** 
 519:/home/xingli/share/LiteOS_Lab/network/dtls/mbedtls/mbedtls-2.16.2/library/x509_crt.c ****     return( 0 );
 1351              		.loc 2 519 11
 1352 014a B8000000 		movl	$0, %eax
 1352      00
 1353              	.L101:
 520:/home/xingli/share/LiteOS_Lab/network/dtls/mbedtls/mbedtls-2.16.2/library/x509_crt.c **** }
 1354              		.loc 2 520 1 discriminator 1
 1355 014f 488B7DF8 		movq	-8(%rbp), %rdi
 1356 0153 6448333C 		xorq	%fs:40, %rdi
 1356      25280000 
 1356      00
 1357 015c 7405     		je	.L102
 1358              		.loc 2 520 1 is_stmt 0
 1359 015e E8000000 		call	__stack_chk_fail@PLT
 1359      00
 1360              	.L102:
 1361 0163 C9       		leave
 1362              	.LCFI38:
 1363              		.cfi_def_cfa 7, 8
 1364 0164 C3       		ret
 1365              		.cfi_endproc
 1366              	.LFE27:
 1368              		.section	.text.x509_get_ns_cert_type,"ax",@progbits
 1370              	x509_get_ns_cert_type:
 1371              	.LFB28:
 521:/home/xingli/share/LiteOS_Lab/network/dtls/mbedtls/mbedtls-2.16.2/library/x509_crt.c **** 
 522:/home/xingli/share/LiteOS_Lab/network/dtls/mbedtls/mbedtls-2.16.2/library/x509_crt.c **** static int x509_get_ns_cert_type( unsigned char **p,
 523:/home/xingli/share/LiteOS_Lab/network/dtls/mbedtls/mbedtls-2.16.2/library/x509_crt.c ****                                        const unsigned char *end,
 524:/home/xingli/share/LiteOS_Lab/network/dtls/mbedtls/mbedtls-2.16.2/library/x509_crt.c ****                                        unsigned char *ns_cert_type)
 525:/home/xingli/share/LiteOS_Lab/network/dtls/mbedtls/mbedtls-2.16.2/library/x509_crt.c **** {
 1372              		.loc 2 525 1 is_stmt 1
 1373              		.cfi_startproc
GAS LISTING /tmp/ccnlqVtp.s 			page 40


 1374 0000 F30F1EFA 		endbr64
 1375 0004 55       		pushq	%rbp
 1376              	.LCFI39:
 1377              		.cfi_def_cfa_offset 16
 1378              		.cfi_offset 6, -16
 1379 0005 4889E5   		movq	%rsp, %rbp
 1380              	.LCFI40:
 1381              		.cfi_def_cfa_register 6
 1382 0008 4883EC50 		subq	$80, %rsp
 1383 000c 48897DC8 		movq	%rdi, -56(%rbp)
 1384 0010 488975C0 		movq	%rsi, -64(%rbp)
 1385 0014 488955B8 		movq	%rdx, -72(%rbp)
 1386              		.loc 2 525 1
 1387 0018 64488B04 		movq	%fs:40, %rax
 1387      25280000 
 1387      00
 1388 0021 488945F8 		movq	%rax, -8(%rbp)
 1389 0025 31C0     		xorl	%eax, %eax
 526:/home/xingli/share/LiteOS_Lab/network/dtls/mbedtls/mbedtls-2.16.2/library/x509_crt.c ****     int ret;
 527:/home/xingli/share/LiteOS_Lab/network/dtls/mbedtls/mbedtls-2.16.2/library/x509_crt.c ****     mbedtls_x509_bitstring bs = { 0, 0, NULL };
 1390              		.loc 2 527 28
 1391 0027 48C745E0 		movq	$0, -32(%rbp)
 1391      00000000 
 1392 002f C645E800 		movb	$0, -24(%rbp)
 1393 0033 48C745F0 		movq	$0, -16(%rbp)
 1393      00000000 
 528:/home/xingli/share/LiteOS_Lab/network/dtls/mbedtls/mbedtls-2.16.2/library/x509_crt.c **** 
 529:/home/xingli/share/LiteOS_Lab/network/dtls/mbedtls/mbedtls-2.16.2/library/x509_crt.c ****     if( ( ret = mbedtls_asn1_get_bitstring( p, end, &bs ) ) != 0 )
 1394              		.loc 2 529 17
 1395 003b 488D55E0 		leaq	-32(%rbp), %rdx
 1396 003f 488B4DC0 		movq	-64(%rbp), %rcx
 1397 0043 488B45C8 		movq	-56(%rbp), %rax
 1398 0047 4889CE   		movq	%rcx, %rsi
 1399 004a 4889C7   		movq	%rax, %rdi
 1400 004d E8000000 		call	mbedtls_asn1_get_bitstring@PLT
 1400      00
 1401 0052 8945DC   		movl	%eax, -36(%rbp)
 1402              		.loc 2 529 7
 1403 0055 837DDC00 		cmpl	$0, -36(%rbp)
 1404 0059 740A     		je	.L104
 530:/home/xingli/share/LiteOS_Lab/network/dtls/mbedtls/mbedtls-2.16.2/library/x509_crt.c ****         return( MBEDTLS_ERR_X509_INVALID_EXTENSIONS + ret );
 1405              		.loc 2 530 53
 1406 005b 8B45DC   		movl	-36(%rbp), %eax
 1407 005e 2D002500 		subl	$9472, %eax
 1407      00
 1408 0063 EB23     		jmp	.L107
 1409              	.L104:
 531:/home/xingli/share/LiteOS_Lab/network/dtls/mbedtls/mbedtls-2.16.2/library/x509_crt.c **** 
 532:/home/xingli/share/LiteOS_Lab/network/dtls/mbedtls/mbedtls-2.16.2/library/x509_crt.c ****     if( bs.len != 1 )
 1410              		.loc 2 532 11
 1411 0065 488B45E0 		movq	-32(%rbp), %rax
 1412              		.loc 2 532 7
 1413 0069 4883F801 		cmpq	$1, %rax
 1414 006d 7407     		je	.L106
 533:/home/xingli/share/LiteOS_Lab/network/dtls/mbedtls/mbedtls-2.16.2/library/x509_crt.c ****         return( MBEDTLS_ERR_X509_INVALID_EXTENSIONS +
 1415              		.loc 2 533 15
 1416 006f B89CDAFF 		movl	$-9572, %eax
GAS LISTING /tmp/ccnlqVtp.s 			page 41


 1416      FF
 1417 0074 EB12     		jmp	.L107
 1418              	.L106:
 534:/home/xingli/share/LiteOS_Lab/network/dtls/mbedtls/mbedtls-2.16.2/library/x509_crt.c ****                 MBEDTLS_ERR_ASN1_INVALID_LENGTH );
 535:/home/xingli/share/LiteOS_Lab/network/dtls/mbedtls/mbedtls-2.16.2/library/x509_crt.c **** 
 536:/home/xingli/share/LiteOS_Lab/network/dtls/mbedtls/mbedtls-2.16.2/library/x509_crt.c ****     /* Get actual bitstring */
 537:/home/xingli/share/LiteOS_Lab/network/dtls/mbedtls/mbedtls-2.16.2/library/x509_crt.c ****     *ns_cert_type = *bs.p;
 1419              		.loc 2 537 24
 1420 0076 488B45F0 		movq	-16(%rbp), %rax
 1421              		.loc 2 537 21
 1422 007a 0FB610   		movzbl	(%rax), %edx
 1423              		.loc 2 537 19
 1424 007d 488B45B8 		movq	-72(%rbp), %rax
 1425 0081 8810     		movb	%dl, (%rax)
 538:/home/xingli/share/LiteOS_Lab/network/dtls/mbedtls/mbedtls-2.16.2/library/x509_crt.c ****     return( 0 );
 1426              		.loc 2 538 11
 1427 0083 B8000000 		movl	$0, %eax
 1427      00
 1428              	.L107:
 539:/home/xingli/share/LiteOS_Lab/network/dtls/mbedtls/mbedtls-2.16.2/library/x509_crt.c **** }
 1429              		.loc 2 539 1 discriminator 1
 1430 0088 488B4DF8 		movq	-8(%rbp), %rcx
 1431 008c 6448330C 		xorq	%fs:40, %rcx
 1431      25280000 
 1431      00
 1432 0095 7405     		je	.L108
 1433              		.loc 2 539 1 is_stmt 0
 1434 0097 E8000000 		call	__stack_chk_fail@PLT
 1434      00
 1435              	.L108:
 1436 009c C9       		leave
 1437              	.LCFI41:
 1438              		.cfi_def_cfa 7, 8
 1439 009d C3       		ret
 1440              		.cfi_endproc
 1441              	.LFE28:
 1443              		.section	.text.x509_get_key_usage,"ax",@progbits
 1445              	x509_get_key_usage:
 1446              	.LFB29:
 540:/home/xingli/share/LiteOS_Lab/network/dtls/mbedtls/mbedtls-2.16.2/library/x509_crt.c **** 
 541:/home/xingli/share/LiteOS_Lab/network/dtls/mbedtls/mbedtls-2.16.2/library/x509_crt.c **** static int x509_get_key_usage( unsigned char **p,
 542:/home/xingli/share/LiteOS_Lab/network/dtls/mbedtls/mbedtls-2.16.2/library/x509_crt.c ****                                const unsigned char *end,
 543:/home/xingli/share/LiteOS_Lab/network/dtls/mbedtls/mbedtls-2.16.2/library/x509_crt.c ****                                unsigned int *key_usage)
 544:/home/xingli/share/LiteOS_Lab/network/dtls/mbedtls/mbedtls-2.16.2/library/x509_crt.c **** {
 1447              		.loc 2 544 1 is_stmt 1
 1448              		.cfi_startproc
 1449 0000 F30F1EFA 		endbr64
 1450 0004 55       		pushq	%rbp
 1451              	.LCFI42:
 1452              		.cfi_def_cfa_offset 16
 1453              		.cfi_offset 6, -16
 1454 0005 4889E5   		movq	%rsp, %rbp
 1455              	.LCFI43:
 1456              		.cfi_def_cfa_register 6
 1457 0008 4883EC50 		subq	$80, %rsp
 1458 000c 48897DC8 		movq	%rdi, -56(%rbp)
 1459 0010 488975C0 		movq	%rsi, -64(%rbp)
GAS LISTING /tmp/ccnlqVtp.s 			page 42


 1460 0014 488955B8 		movq	%rdx, -72(%rbp)
 1461              		.loc 2 544 1
 1462 0018 64488B04 		movq	%fs:40, %rax
 1462      25280000 
 1462      00
 1463 0021 488945F8 		movq	%rax, -8(%rbp)
 1464 0025 31C0     		xorl	%eax, %eax
 545:/home/xingli/share/LiteOS_Lab/network/dtls/mbedtls/mbedtls-2.16.2/library/x509_crt.c ****     int ret;
 546:/home/xingli/share/LiteOS_Lab/network/dtls/mbedtls/mbedtls-2.16.2/library/x509_crt.c ****     size_t i;
 547:/home/xingli/share/LiteOS_Lab/network/dtls/mbedtls/mbedtls-2.16.2/library/x509_crt.c ****     mbedtls_x509_bitstring bs = { 0, 0, NULL };
 1465              		.loc 2 547 28
 1466 0027 48C745E0 		movq	$0, -32(%rbp)
 1466      00000000 
 1467 002f C645E800 		movb	$0, -24(%rbp)
 1468 0033 48C745F0 		movq	$0, -16(%rbp)
 1468      00000000 
 548:/home/xingli/share/LiteOS_Lab/network/dtls/mbedtls/mbedtls-2.16.2/library/x509_crt.c **** 
 549:/home/xingli/share/LiteOS_Lab/network/dtls/mbedtls/mbedtls-2.16.2/library/x509_crt.c ****     if( ( ret = mbedtls_asn1_get_bitstring( p, end, &bs ) ) != 0 )
 1469              		.loc 2 549 17
 1470 003b 488D55E0 		leaq	-32(%rbp), %rdx
 1471 003f 488B4DC0 		movq	-64(%rbp), %rcx
 1472 0043 488B45C8 		movq	-56(%rbp), %rax
 1473 0047 4889CE   		movq	%rcx, %rsi
 1474 004a 4889C7   		movq	%rax, %rdi
 1475 004d E8000000 		call	mbedtls_asn1_get_bitstring@PLT
 1475      00
 1476 0052 8945D4   		movl	%eax, -44(%rbp)
 1477              		.loc 2 549 7
 1478 0055 837DD400 		cmpl	$0, -44(%rbp)
 1479 0059 740A     		je	.L110
 550:/home/xingli/share/LiteOS_Lab/network/dtls/mbedtls/mbedtls-2.16.2/library/x509_crt.c ****         return( MBEDTLS_ERR_X509_INVALID_EXTENSIONS + ret );
 1480              		.loc 2 550 53
 1481 005b 8B45D4   		movl	-44(%rbp), %eax
 1482 005e 2D002500 		subl	$9472, %eax
 1482      00
 1483 0063 EB6B     		jmp	.L116
 1484              	.L110:
 551:/home/xingli/share/LiteOS_Lab/network/dtls/mbedtls/mbedtls-2.16.2/library/x509_crt.c **** 
 552:/home/xingli/share/LiteOS_Lab/network/dtls/mbedtls/mbedtls-2.16.2/library/x509_crt.c ****     if( bs.len < 1 )
 1485              		.loc 2 552 11
 1486 0065 488B45E0 		movq	-32(%rbp), %rax
 1487              		.loc 2 552 7
 1488 0069 4885C0   		testq	%rax, %rax
 1489 006c 7507     		jne	.L112
 553:/home/xingli/share/LiteOS_Lab/network/dtls/mbedtls/mbedtls-2.16.2/library/x509_crt.c ****         return( MBEDTLS_ERR_X509_INVALID_EXTENSIONS +
 1490              		.loc 2 553 15
 1491 006e B89CDAFF 		movl	$-9572, %eax
 1491      FF
 1492 0073 EB5B     		jmp	.L116
 1493              	.L112:
 554:/home/xingli/share/LiteOS_Lab/network/dtls/mbedtls/mbedtls-2.16.2/library/x509_crt.c ****                 MBEDTLS_ERR_ASN1_INVALID_LENGTH );
 555:/home/xingli/share/LiteOS_Lab/network/dtls/mbedtls/mbedtls-2.16.2/library/x509_crt.c **** 
 556:/home/xingli/share/LiteOS_Lab/network/dtls/mbedtls/mbedtls-2.16.2/library/x509_crt.c ****     /* Get actual bitstring */
 557:/home/xingli/share/LiteOS_Lab/network/dtls/mbedtls/mbedtls-2.16.2/library/x509_crt.c ****     *key_usage = 0;
 1494              		.loc 2 557 16
 1495 0075 488B45B8 		movq	-72(%rbp), %rax
 1496 0079 C7000000 		movl	$0, (%rax)
GAS LISTING /tmp/ccnlqVtp.s 			page 43


 1496      0000
 558:/home/xingli/share/LiteOS_Lab/network/dtls/mbedtls/mbedtls-2.16.2/library/x509_crt.c ****     for( i = 0; i < bs.len && i < sizeof( unsigned int ); i++ )
 1497              		.loc 2 558 12
 1498 007f 48C745D8 		movq	$0, -40(%rbp)
 1498      00000000 
 1499              		.loc 2 558 5
 1500 0087 EB31     		jmp	.L113
 1501              	.L115:
 559:/home/xingli/share/LiteOS_Lab/network/dtls/mbedtls/mbedtls-2.16.2/library/x509_crt.c ****     {
 560:/home/xingli/share/LiteOS_Lab/network/dtls/mbedtls/mbedtls-2.16.2/library/x509_crt.c ****         *key_usage |= (unsigned int) bs.p[i] << (8*i);
 1502              		.loc 2 560 20 discriminator 4
 1503 0089 488B45B8 		movq	-72(%rbp), %rax
 1504 008d 8B00     		movl	(%rax), %eax
 1505              		.loc 2 560 40 discriminator 4
 1506 008f 488B4DF0 		movq	-16(%rbp), %rcx
 1507              		.loc 2 560 42 discriminator 4
 1508 0093 488B55D8 		movq	-40(%rbp), %rdx
 1509 0097 4801CA   		addq	%rcx, %rdx
 1510 009a 0FB612   		movzbl	(%rdx), %edx
 1511              		.loc 2 560 23 discriminator 4
 1512 009d 0FB6F2   		movzbl	%dl, %esi
 1513              		.loc 2 560 46 discriminator 4
 1514 00a0 488B55D8 		movq	-40(%rbp), %rdx
 1515 00a4 C1E203   		sall	$3, %edx
 1516 00a7 89D1     		movl	%edx, %ecx
 1517 00a9 D3E6     		sall	%cl, %esi
 1518 00ab 89F2     		movl	%esi, %edx
 1519              		.loc 2 560 20 discriminator 4
 1520 00ad 09C2     		orl	%eax, %edx
 1521 00af 488B45B8 		movq	-72(%rbp), %rax
 1522 00b3 8910     		movl	%edx, (%rax)
 558:/home/xingli/share/LiteOS_Lab/network/dtls/mbedtls/mbedtls-2.16.2/library/x509_crt.c ****     for( i = 0; i < bs.len && i < sizeof( unsigned int ); i++ )
 1523              		.loc 2 558 60 discriminator 4
 1524 00b5 488345D8 		addq	$1, -40(%rbp)
 1524      01
 1525              	.L113:
 558:/home/xingli/share/LiteOS_Lab/network/dtls/mbedtls/mbedtls-2.16.2/library/x509_crt.c ****     for( i = 0; i < bs.len && i < sizeof( unsigned int ); i++ )
 1526              		.loc 2 558 23 discriminator 1
 1527 00ba 488B45E0 		movq	-32(%rbp), %rax
 558:/home/xingli/share/LiteOS_Lab/network/dtls/mbedtls/mbedtls-2.16.2/library/x509_crt.c ****     for( i = 0; i < bs.len && i < sizeof( unsigned int ); i++ )
 1528              		.loc 2 558 5 discriminator 1
 1529 00be 483945D8 		cmpq	%rax, -40(%rbp)
 1530 00c2 7307     		jnb	.L114
 558:/home/xingli/share/LiteOS_Lab/network/dtls/mbedtls/mbedtls-2.16.2/library/x509_crt.c ****     for( i = 0; i < bs.len && i < sizeof( unsigned int ); i++ )
 1531              		.loc 2 558 28 discriminator 3
 1532 00c4 48837DD8 		cmpq	$3, -40(%rbp)
 1532      03
 1533 00c9 76BE     		jbe	.L115
 1534              	.L114:
 561:/home/xingli/share/LiteOS_Lab/network/dtls/mbedtls/mbedtls-2.16.2/library/x509_crt.c ****     }
 562:/home/xingli/share/LiteOS_Lab/network/dtls/mbedtls/mbedtls-2.16.2/library/x509_crt.c **** 
 563:/home/xingli/share/LiteOS_Lab/network/dtls/mbedtls/mbedtls-2.16.2/library/x509_crt.c ****     return( 0 );
 1535              		.loc 2 563 11
 1536 00cb B8000000 		movl	$0, %eax
 1536      00
 1537              	.L116:
 564:/home/xingli/share/LiteOS_Lab/network/dtls/mbedtls/mbedtls-2.16.2/library/x509_crt.c **** }
GAS LISTING /tmp/ccnlqVtp.s 			page 44


 1538              		.loc 2 564 1 discriminator 1
 1539 00d0 488B7DF8 		movq	-8(%rbp), %rdi
 1540 00d4 6448333C 		xorq	%fs:40, %rdi
 1540      25280000 
 1540      00
 1541 00dd 7405     		je	.L117
 1542              		.loc 2 564 1 is_stmt 0
 1543 00df E8000000 		call	__stack_chk_fail@PLT
 1543      00
 1544              	.L117:
 1545 00e4 C9       		leave
 1546              	.LCFI44:
 1547              		.cfi_def_cfa 7, 8
 1548 00e5 C3       		ret
 1549              		.cfi_endproc
 1550              	.LFE29:
 1552              		.section	.text.x509_get_ext_key_usage,"ax",@progbits
 1554              	x509_get_ext_key_usage:
 1555              	.LFB30:
 565:/home/xingli/share/LiteOS_Lab/network/dtls/mbedtls/mbedtls-2.16.2/library/x509_crt.c **** 
 566:/home/xingli/share/LiteOS_Lab/network/dtls/mbedtls/mbedtls-2.16.2/library/x509_crt.c **** /*
 567:/home/xingli/share/LiteOS_Lab/network/dtls/mbedtls/mbedtls-2.16.2/library/x509_crt.c ****  * ExtKeyUsageSyntax ::= SEQUENCE SIZE (1..MAX) OF KeyPurposeId
 568:/home/xingli/share/LiteOS_Lab/network/dtls/mbedtls/mbedtls-2.16.2/library/x509_crt.c ****  *
 569:/home/xingli/share/LiteOS_Lab/network/dtls/mbedtls/mbedtls-2.16.2/library/x509_crt.c ****  * KeyPurposeId ::= OBJECT IDENTIFIER
 570:/home/xingli/share/LiteOS_Lab/network/dtls/mbedtls/mbedtls-2.16.2/library/x509_crt.c ****  */
 571:/home/xingli/share/LiteOS_Lab/network/dtls/mbedtls/mbedtls-2.16.2/library/x509_crt.c **** static int x509_get_ext_key_usage( unsigned char **p,
 572:/home/xingli/share/LiteOS_Lab/network/dtls/mbedtls/mbedtls-2.16.2/library/x509_crt.c ****                                const unsigned char *end,
 573:/home/xingli/share/LiteOS_Lab/network/dtls/mbedtls/mbedtls-2.16.2/library/x509_crt.c ****                                mbedtls_x509_sequence *ext_key_usage)
 574:/home/xingli/share/LiteOS_Lab/network/dtls/mbedtls/mbedtls-2.16.2/library/x509_crt.c **** {
 1556              		.loc 2 574 1 is_stmt 1
 1557              		.cfi_startproc
 1558 0000 F30F1EFA 		endbr64
 1559 0004 55       		pushq	%rbp
 1560              	.LCFI45:
 1561              		.cfi_def_cfa_offset 16
 1562              		.cfi_offset 6, -16
 1563 0005 4889E5   		movq	%rsp, %rbp
 1564              	.LCFI46:
 1565              		.cfi_def_cfa_register 6
 1566 0008 4883EC30 		subq	$48, %rsp
 1567 000c 48897DE8 		movq	%rdi, -24(%rbp)
 1568 0010 488975E0 		movq	%rsi, -32(%rbp)
 1569 0014 488955D8 		movq	%rdx, -40(%rbp)
 1570              		.loc 2 574 1
 1571 0018 64488B04 		movq	%fs:40, %rax
 1571      25280000 
 1571      00
 1572 0021 488945F8 		movq	%rax, -8(%rbp)
 1573 0025 31C0     		xorl	%eax, %eax
 575:/home/xingli/share/LiteOS_Lab/network/dtls/mbedtls/mbedtls-2.16.2/library/x509_crt.c ****     int ret;
 576:/home/xingli/share/LiteOS_Lab/network/dtls/mbedtls/mbedtls-2.16.2/library/x509_crt.c **** 
 577:/home/xingli/share/LiteOS_Lab/network/dtls/mbedtls/mbedtls-2.16.2/library/x509_crt.c ****     if( ( ret = mbedtls_asn1_get_sequence_of( p, end, ext_key_usage, MBEDTLS_ASN1_OID ) ) != 0 )
 1574              		.loc 2 577 17
 1575 0027 488B55D8 		movq	-40(%rbp), %rdx
 1576 002b 488B75E0 		movq	-32(%rbp), %rsi
 1577 002f 488B45E8 		movq	-24(%rbp), %rax
 1578 0033 B9060000 		movl	$6, %ecx
GAS LISTING /tmp/ccnlqVtp.s 			page 45


 1578      00
 1579 0038 4889C7   		movq	%rax, %rdi
 1580 003b E8000000 		call	mbedtls_asn1_get_sequence_of@PLT
 1580      00
 1581 0040 8945F4   		movl	%eax, -12(%rbp)
 1582              		.loc 2 577 7
 1583 0043 837DF400 		cmpl	$0, -12(%rbp)
 1584 0047 740A     		je	.L119
 578:/home/xingli/share/LiteOS_Lab/network/dtls/mbedtls/mbedtls-2.16.2/library/x509_crt.c ****         return( MBEDTLS_ERR_X509_INVALID_EXTENSIONS + ret );
 1585              		.loc 2 578 53
 1586 0049 8B45F4   		movl	-12(%rbp), %eax
 1587 004c 2D002500 		subl	$9472, %eax
 1587      00
 1588 0051 EB19     		jmp	.L120
 1589              	.L119:
 579:/home/xingli/share/LiteOS_Lab/network/dtls/mbedtls/mbedtls-2.16.2/library/x509_crt.c **** 
 580:/home/xingli/share/LiteOS_Lab/network/dtls/mbedtls/mbedtls-2.16.2/library/x509_crt.c ****     /* Sequence length must be >= 1 */
 581:/home/xingli/share/LiteOS_Lab/network/dtls/mbedtls/mbedtls-2.16.2/library/x509_crt.c ****     if( ext_key_usage->buf.p == NULL )
 1590              		.loc 2 581 27
 1591 0053 488B45D8 		movq	-40(%rbp), %rax
 1592 0057 488B4010 		movq	16(%rax), %rax
 1593              		.loc 2 581 7
 1594 005b 4885C0   		testq	%rax, %rax
 1595 005e 7507     		jne	.L121
 582:/home/xingli/share/LiteOS_Lab/network/dtls/mbedtls/mbedtls-2.16.2/library/x509_crt.c ****         return( MBEDTLS_ERR_X509_INVALID_EXTENSIONS +
 1596              		.loc 2 582 15
 1597 0060 B89CDAFF 		movl	$-9572, %eax
 1597      FF
 1598 0065 EB05     		jmp	.L120
 1599              	.L121:
 583:/home/xingli/share/LiteOS_Lab/network/dtls/mbedtls/mbedtls-2.16.2/library/x509_crt.c ****                 MBEDTLS_ERR_ASN1_INVALID_LENGTH );
 584:/home/xingli/share/LiteOS_Lab/network/dtls/mbedtls/mbedtls-2.16.2/library/x509_crt.c **** 
 585:/home/xingli/share/LiteOS_Lab/network/dtls/mbedtls/mbedtls-2.16.2/library/x509_crt.c ****     return( 0 );
 1600              		.loc 2 585 11
 1601 0067 B8000000 		movl	$0, %eax
 1601      00
 1602              	.L120:
 586:/home/xingli/share/LiteOS_Lab/network/dtls/mbedtls/mbedtls-2.16.2/library/x509_crt.c **** }
 1603              		.loc 2 586 1
 1604 006c 488B4DF8 		movq	-8(%rbp), %rcx
 1605 0070 6448330C 		xorq	%fs:40, %rcx
 1605      25280000 
 1605      00
 1606 0079 7405     		je	.L122
 1607 007b E8000000 		call	__stack_chk_fail@PLT
 1607      00
 1608              	.L122:
 1609 0080 C9       		leave
 1610              	.LCFI47:
 1611              		.cfi_def_cfa 7, 8
 1612 0081 C3       		ret
 1613              		.cfi_endproc
 1614              	.LFE30:
 1616              		.section	.text.x509_get_subject_alt_name,"ax",@progbits
 1618              	x509_get_subject_alt_name:
 1619              	.LFB31:
 587:/home/xingli/share/LiteOS_Lab/network/dtls/mbedtls/mbedtls-2.16.2/library/x509_crt.c **** 
GAS LISTING /tmp/ccnlqVtp.s 			page 46


 588:/home/xingli/share/LiteOS_Lab/network/dtls/mbedtls/mbedtls-2.16.2/library/x509_crt.c **** /*
 589:/home/xingli/share/LiteOS_Lab/network/dtls/mbedtls/mbedtls-2.16.2/library/x509_crt.c ****  * SubjectAltName ::= GeneralNames
 590:/home/xingli/share/LiteOS_Lab/network/dtls/mbedtls/mbedtls-2.16.2/library/x509_crt.c ****  *
 591:/home/xingli/share/LiteOS_Lab/network/dtls/mbedtls/mbedtls-2.16.2/library/x509_crt.c ****  * GeneralNames ::= SEQUENCE SIZE (1..MAX) OF GeneralName
 592:/home/xingli/share/LiteOS_Lab/network/dtls/mbedtls/mbedtls-2.16.2/library/x509_crt.c ****  *
 593:/home/xingli/share/LiteOS_Lab/network/dtls/mbedtls/mbedtls-2.16.2/library/x509_crt.c ****  * GeneralName ::= CHOICE {
 594:/home/xingli/share/LiteOS_Lab/network/dtls/mbedtls/mbedtls-2.16.2/library/x509_crt.c ****  *      otherName                       [0]     OtherName,
 595:/home/xingli/share/LiteOS_Lab/network/dtls/mbedtls/mbedtls-2.16.2/library/x509_crt.c ****  *      rfc822Name                      [1]     IA5String,
 596:/home/xingli/share/LiteOS_Lab/network/dtls/mbedtls/mbedtls-2.16.2/library/x509_crt.c ****  *      dNSName                         [2]     IA5String,
 597:/home/xingli/share/LiteOS_Lab/network/dtls/mbedtls/mbedtls-2.16.2/library/x509_crt.c ****  *      x400Address                     [3]     ORAddress,
 598:/home/xingli/share/LiteOS_Lab/network/dtls/mbedtls/mbedtls-2.16.2/library/x509_crt.c ****  *      directoryName                   [4]     Name,
 599:/home/xingli/share/LiteOS_Lab/network/dtls/mbedtls/mbedtls-2.16.2/library/x509_crt.c ****  *      ediPartyName                    [5]     EDIPartyName,
 600:/home/xingli/share/LiteOS_Lab/network/dtls/mbedtls/mbedtls-2.16.2/library/x509_crt.c ****  *      uniformResourceIdentifier       [6]     IA5String,
 601:/home/xingli/share/LiteOS_Lab/network/dtls/mbedtls/mbedtls-2.16.2/library/x509_crt.c ****  *      iPAddress                       [7]     OCTET STRING,
 602:/home/xingli/share/LiteOS_Lab/network/dtls/mbedtls/mbedtls-2.16.2/library/x509_crt.c ****  *      registeredID                    [8]     OBJECT IDENTIFIER }
 603:/home/xingli/share/LiteOS_Lab/network/dtls/mbedtls/mbedtls-2.16.2/library/x509_crt.c ****  *
 604:/home/xingli/share/LiteOS_Lab/network/dtls/mbedtls/mbedtls-2.16.2/library/x509_crt.c ****  * OtherName ::= SEQUENCE {
 605:/home/xingli/share/LiteOS_Lab/network/dtls/mbedtls/mbedtls-2.16.2/library/x509_crt.c ****  *      type-id    OBJECT IDENTIFIER,
 606:/home/xingli/share/LiteOS_Lab/network/dtls/mbedtls/mbedtls-2.16.2/library/x509_crt.c ****  *      value      [0] EXPLICIT ANY DEFINED BY type-id }
 607:/home/xingli/share/LiteOS_Lab/network/dtls/mbedtls/mbedtls-2.16.2/library/x509_crt.c ****  *
 608:/home/xingli/share/LiteOS_Lab/network/dtls/mbedtls/mbedtls-2.16.2/library/x509_crt.c ****  * EDIPartyName ::= SEQUENCE {
 609:/home/xingli/share/LiteOS_Lab/network/dtls/mbedtls/mbedtls-2.16.2/library/x509_crt.c ****  *      nameAssigner            [0]     DirectoryString OPTIONAL,
 610:/home/xingli/share/LiteOS_Lab/network/dtls/mbedtls/mbedtls-2.16.2/library/x509_crt.c ****  *      partyName               [1]     DirectoryString }
 611:/home/xingli/share/LiteOS_Lab/network/dtls/mbedtls/mbedtls-2.16.2/library/x509_crt.c ****  *
 612:/home/xingli/share/LiteOS_Lab/network/dtls/mbedtls/mbedtls-2.16.2/library/x509_crt.c ****  * NOTE: we only parse and use dNSName at this point.
 613:/home/xingli/share/LiteOS_Lab/network/dtls/mbedtls/mbedtls-2.16.2/library/x509_crt.c ****  */
 614:/home/xingli/share/LiteOS_Lab/network/dtls/mbedtls/mbedtls-2.16.2/library/x509_crt.c **** static int x509_get_subject_alt_name( unsigned char **p,
 615:/home/xingli/share/LiteOS_Lab/network/dtls/mbedtls/mbedtls-2.16.2/library/x509_crt.c ****                                       const unsigned char *end,
 616:/home/xingli/share/LiteOS_Lab/network/dtls/mbedtls/mbedtls-2.16.2/library/x509_crt.c ****                                       mbedtls_x509_sequence *subject_alt_name )
 617:/home/xingli/share/LiteOS_Lab/network/dtls/mbedtls/mbedtls-2.16.2/library/x509_crt.c **** {
 1620              		.loc 2 617 1
 1621              		.cfi_startproc
 1622 0000 F30F1EFA 		endbr64
 1623 0004 55       		pushq	%rbp
 1624              	.LCFI48:
 1625              		.cfi_def_cfa_offset 16
 1626              		.cfi_offset 6, -16
 1627 0005 4889E5   		movq	%rsp, %rbp
 1628              	.LCFI49:
 1629              		.cfi_def_cfa_register 6
 1630 0008 4883EC50 		subq	$80, %rsp
 1631 000c 48897DC8 		movq	%rdi, -56(%rbp)
 1632 0010 488975C0 		movq	%rsi, -64(%rbp)
 1633 0014 488955B8 		movq	%rdx, -72(%rbp)
 1634              		.loc 2 617 1
 1635 0018 64488B04 		movq	%fs:40, %rax
 1635      25280000 
 1635      00
 1636 0021 488945F8 		movq	%rax, -8(%rbp)
 1637 0025 31C0     		xorl	%eax, %eax
 618:/home/xingli/share/LiteOS_Lab/network/dtls/mbedtls/mbedtls-2.16.2/library/x509_crt.c ****     int ret;
 619:/home/xingli/share/LiteOS_Lab/network/dtls/mbedtls/mbedtls-2.16.2/library/x509_crt.c ****     size_t len, tag_len;
 620:/home/xingli/share/LiteOS_Lab/network/dtls/mbedtls/mbedtls-2.16.2/library/x509_crt.c ****     mbedtls_asn1_buf *buf;
 621:/home/xingli/share/LiteOS_Lab/network/dtls/mbedtls/mbedtls-2.16.2/library/x509_crt.c ****     unsigned char tag;
 622:/home/xingli/share/LiteOS_Lab/network/dtls/mbedtls/mbedtls-2.16.2/library/x509_crt.c ****     mbedtls_asn1_sequence *cur = subject_alt_name;
 1638              		.loc 2 622 28
 1639 0027 488B45B8 		movq	-72(%rbp), %rax
GAS LISTING /tmp/ccnlqVtp.s 			page 47


 1640 002b 488945E8 		movq	%rax, -24(%rbp)
 623:/home/xingli/share/LiteOS_Lab/network/dtls/mbedtls/mbedtls-2.16.2/library/x509_crt.c **** 
 624:/home/xingli/share/LiteOS_Lab/network/dtls/mbedtls/mbedtls-2.16.2/library/x509_crt.c ****     /* Get main sequence tag */
 625:/home/xingli/share/LiteOS_Lab/network/dtls/mbedtls/mbedtls-2.16.2/library/x509_crt.c ****     if( ( ret = mbedtls_asn1_get_tag( p, end, &len,
 1641              		.loc 2 625 17
 1642 002f 488D55D8 		leaq	-40(%rbp), %rdx
 1643 0033 488B75C0 		movq	-64(%rbp), %rsi
 1644 0037 488B45C8 		movq	-56(%rbp), %rax
 1645 003b B9300000 		movl	$48, %ecx
 1645      00
 1646 0040 4889C7   		movq	%rax, %rdi
 1647 0043 E8000000 		call	mbedtls_asn1_get_tag@PLT
 1647      00
 1648 0048 8945D4   		movl	%eax, -44(%rbp)
 1649              		.loc 2 625 7
 1650 004b 837DD400 		cmpl	$0, -44(%rbp)
 1651 004f 740D     		je	.L124
 626:/home/xingli/share/LiteOS_Lab/network/dtls/mbedtls/mbedtls-2.16.2/library/x509_crt.c ****             MBEDTLS_ASN1_CONSTRUCTED | MBEDTLS_ASN1_SEQUENCE ) ) != 0 )
 627:/home/xingli/share/LiteOS_Lab/network/dtls/mbedtls/mbedtls-2.16.2/library/x509_crt.c ****         return( MBEDTLS_ERR_X509_INVALID_EXTENSIONS + ret );
 1652              		.loc 2 627 53
 1653 0051 8B45D4   		movl	-44(%rbp), %eax
 1654 0054 2D002500 		subl	$9472, %eax
 1654      00
 1655 0059 E9A20100 		jmp	.L137
 1655      00
 1656              	.L124:
 628:/home/xingli/share/LiteOS_Lab/network/dtls/mbedtls/mbedtls-2.16.2/library/x509_crt.c **** 
 629:/home/xingli/share/LiteOS_Lab/network/dtls/mbedtls/mbedtls-2.16.2/library/x509_crt.c ****     if( *p + len != end )
 1657              		.loc 2 629 9
 1658 005e 488B45C8 		movq	-56(%rbp), %rax
 1659 0062 488B10   		movq	(%rax), %rdx
 1660              		.loc 2 629 12
 1661 0065 488B45D8 		movq	-40(%rbp), %rax
 1662 0069 4801D0   		addq	%rdx, %rax
 1663              		.loc 2 629 7
 1664 006c 483945C0 		cmpq	%rax, -64(%rbp)
 1665 0070 0F845401 		je	.L127
 1665      0000
 630:/home/xingli/share/LiteOS_Lab/network/dtls/mbedtls/mbedtls-2.16.2/library/x509_crt.c ****         return( MBEDTLS_ERR_X509_INVALID_EXTENSIONS +
 1666              		.loc 2 630 15
 1667 0076 B89ADAFF 		movl	$-9574, %eax
 1667      FF
 1668 007b E9800100 		jmp	.L137
 1668      00
 1669              	.L135:
 631:/home/xingli/share/LiteOS_Lab/network/dtls/mbedtls/mbedtls-2.16.2/library/x509_crt.c ****                 MBEDTLS_ERR_ASN1_LENGTH_MISMATCH );
 632:/home/xingli/share/LiteOS_Lab/network/dtls/mbedtls/mbedtls-2.16.2/library/x509_crt.c **** 
 633:/home/xingli/share/LiteOS_Lab/network/dtls/mbedtls/mbedtls-2.16.2/library/x509_crt.c ****     while( *p < end )
 634:/home/xingli/share/LiteOS_Lab/network/dtls/mbedtls/mbedtls-2.16.2/library/x509_crt.c ****     {
 635:/home/xingli/share/LiteOS_Lab/network/dtls/mbedtls/mbedtls-2.16.2/library/x509_crt.c ****         if( ( end - *p ) < 1 )
 1670              		.loc 2 635 21
 1671 0080 488B45C8 		movq	-56(%rbp), %rax
 1672 0084 488B00   		movq	(%rax), %rax
 1673              		.loc 2 635 19
 1674 0087 488B55C0 		movq	-64(%rbp), %rdx
 1675 008b 4829C2   		subq	%rax, %rdx
 1676 008e 4889D0   		movq	%rdx, %rax
GAS LISTING /tmp/ccnlqVtp.s 			page 48


 1677              		.loc 2 635 11
 1678 0091 4885C0   		testq	%rax, %rax
 1679 0094 7F0A     		jg	.L128
 636:/home/xingli/share/LiteOS_Lab/network/dtls/mbedtls/mbedtls-2.16.2/library/x509_crt.c ****             return( MBEDTLS_ERR_X509_INVALID_EXTENSIONS +
 1680              		.loc 2 636 19
 1681 0096 B8A0DAFF 		movl	$-9568, %eax
 1681      FF
 1682 009b E9600100 		jmp	.L137
 1682      00
 1683              	.L128:
 637:/home/xingli/share/LiteOS_Lab/network/dtls/mbedtls/mbedtls-2.16.2/library/x509_crt.c ****                     MBEDTLS_ERR_ASN1_OUT_OF_DATA );
 638:/home/xingli/share/LiteOS_Lab/network/dtls/mbedtls/mbedtls-2.16.2/library/x509_crt.c **** 
 639:/home/xingli/share/LiteOS_Lab/network/dtls/mbedtls/mbedtls-2.16.2/library/x509_crt.c ****         tag = **p;
 1684              		.loc 2 639 16
 1685 00a0 488B45C8 		movq	-56(%rbp), %rax
 1686 00a4 488B00   		movq	(%rax), %rax
 1687              		.loc 2 639 13
 1688 00a7 0FB600   		movzbl	(%rax), %eax
 1689 00aa 8845D3   		movb	%al, -45(%rbp)
 640:/home/xingli/share/LiteOS_Lab/network/dtls/mbedtls/mbedtls-2.16.2/library/x509_crt.c ****         (*p)++;
 1690              		.loc 2 640 10
 1691 00ad 488B45C8 		movq	-56(%rbp), %rax
 1692 00b1 488B00   		movq	(%rax), %rax
 1693              		.loc 2 640 13
 1694 00b4 488D5001 		leaq	1(%rax), %rdx
 1695 00b8 488B45C8 		movq	-56(%rbp), %rax
 1696 00bc 488910   		movq	%rdx, (%rax)
 641:/home/xingli/share/LiteOS_Lab/network/dtls/mbedtls/mbedtls-2.16.2/library/x509_crt.c ****         if( ( ret = mbedtls_asn1_get_len( p, end, &tag_len ) ) != 0 )
 1697              		.loc 2 641 21
 1698 00bf 488D55E0 		leaq	-32(%rbp), %rdx
 1699 00c3 488B4DC0 		movq	-64(%rbp), %rcx
 1700 00c7 488B45C8 		movq	-56(%rbp), %rax
 1701 00cb 4889CE   		movq	%rcx, %rsi
 1702 00ce 4889C7   		movq	%rax, %rdi
 1703 00d1 E8000000 		call	mbedtls_asn1_get_len@PLT
 1703      00
 1704 00d6 8945D4   		movl	%eax, -44(%rbp)
 1705              		.loc 2 641 11
 1706 00d9 837DD400 		cmpl	$0, -44(%rbp)
 1707 00dd 740D     		je	.L129
 642:/home/xingli/share/LiteOS_Lab/network/dtls/mbedtls/mbedtls-2.16.2/library/x509_crt.c ****             return( MBEDTLS_ERR_X509_INVALID_EXTENSIONS + ret );
 1708              		.loc 2 642 57
 1709 00df 8B45D4   		movl	-44(%rbp), %eax
 1710 00e2 2D002500 		subl	$9472, %eax
 1710      00
 1711 00e7 E9140100 		jmp	.L137
 1711      00
 1712              	.L129:
 643:/home/xingli/share/LiteOS_Lab/network/dtls/mbedtls/mbedtls-2.16.2/library/x509_crt.c **** 
 644:/home/xingli/share/LiteOS_Lab/network/dtls/mbedtls/mbedtls-2.16.2/library/x509_crt.c ****         if( ( tag & MBEDTLS_ASN1_TAG_CLASS_MASK ) !=
 1713              		.loc 2 644 19
 1714 00ec 0FB645D3 		movzbl	-45(%rbp), %eax
 1715 00f0 25C00000 		andl	$192, %eax
 1715      00
 1716              		.loc 2 644 11
 1717 00f5 3D800000 		cmpl	$128, %eax
 1717      00
GAS LISTING /tmp/ccnlqVtp.s 			page 49


 1718 00fa 740A     		je	.L130
 645:/home/xingli/share/LiteOS_Lab/network/dtls/mbedtls/mbedtls-2.16.2/library/x509_crt.c ****                 MBEDTLS_ASN1_CONTEXT_SPECIFIC )
 646:/home/xingli/share/LiteOS_Lab/network/dtls/mbedtls/mbedtls-2.16.2/library/x509_crt.c ****         {
 647:/home/xingli/share/LiteOS_Lab/network/dtls/mbedtls/mbedtls-2.16.2/library/x509_crt.c ****             return( MBEDTLS_ERR_X509_INVALID_EXTENSIONS +
 1719              		.loc 2 647 19
 1720 00fc B89EDAFF 		movl	$-9570, %eax
 1720      FF
 1721 0101 E9FA0000 		jmp	.L137
 1721      00
 1722              	.L130:
 648:/home/xingli/share/LiteOS_Lab/network/dtls/mbedtls/mbedtls-2.16.2/library/x509_crt.c ****                     MBEDTLS_ERR_ASN1_UNEXPECTED_TAG );
 649:/home/xingli/share/LiteOS_Lab/network/dtls/mbedtls/mbedtls-2.16.2/library/x509_crt.c ****         }
 650:/home/xingli/share/LiteOS_Lab/network/dtls/mbedtls/mbedtls-2.16.2/library/x509_crt.c **** 
 651:/home/xingli/share/LiteOS_Lab/network/dtls/mbedtls/mbedtls-2.16.2/library/x509_crt.c ****         /* Skip everything but DNS name */
 652:/home/xingli/share/LiteOS_Lab/network/dtls/mbedtls/mbedtls-2.16.2/library/x509_crt.c ****         if( tag != ( MBEDTLS_ASN1_CONTEXT_SPECIFIC | 2 ) )
 1723              		.loc 2 652 11
 1724 0106 807DD382 		cmpb	$-126, -45(%rbp)
 1725 010a 741A     		je	.L131
 653:/home/xingli/share/LiteOS_Lab/network/dtls/mbedtls/mbedtls-2.16.2/library/x509_crt.c ****         {
 654:/home/xingli/share/LiteOS_Lab/network/dtls/mbedtls/mbedtls-2.16.2/library/x509_crt.c ****             *p += tag_len;
 1726              		.loc 2 654 16
 1727 010c 488B45C8 		movq	-56(%rbp), %rax
 1728 0110 488B10   		movq	(%rax), %rdx
 1729 0113 488B45E0 		movq	-32(%rbp), %rax
 1730 0117 4801C2   		addq	%rax, %rdx
 1731 011a 488B45C8 		movq	-56(%rbp), %rax
 1732 011e 488910   		movq	%rdx, (%rax)
 655:/home/xingli/share/LiteOS_Lab/network/dtls/mbedtls/mbedtls-2.16.2/library/x509_crt.c ****             continue;
 1733              		.loc 2 655 13
 1734 0121 E9A40000 		jmp	.L127
 1734      00
 1735              	.L131:
 656:/home/xingli/share/LiteOS_Lab/network/dtls/mbedtls/mbedtls-2.16.2/library/x509_crt.c ****         }
 657:/home/xingli/share/LiteOS_Lab/network/dtls/mbedtls/mbedtls-2.16.2/library/x509_crt.c **** 
 658:/home/xingli/share/LiteOS_Lab/network/dtls/mbedtls/mbedtls-2.16.2/library/x509_crt.c ****         /* Allocate and assign next pointer */
 659:/home/xingli/share/LiteOS_Lab/network/dtls/mbedtls/mbedtls-2.16.2/library/x509_crt.c ****         if( cur->buf.p != NULL )
 1736              		.loc 2 659 21
 1737 0126 488B45E8 		movq	-24(%rbp), %rax
 1738 012a 488B4010 		movq	16(%rax), %rax
 1739              		.loc 2 659 11
 1740 012e 4885C0   		testq	%rax, %rax
 1741 0131 7451     		je	.L132
 660:/home/xingli/share/LiteOS_Lab/network/dtls/mbedtls/mbedtls-2.16.2/library/x509_crt.c ****         {
 661:/home/xingli/share/LiteOS_Lab/network/dtls/mbedtls/mbedtls-2.16.2/library/x509_crt.c ****             if( cur->next != NULL )
 1742              		.loc 2 661 20
 1743 0133 488B45E8 		movq	-24(%rbp), %rax
 1744 0137 488B4018 		movq	24(%rax), %rax
 1745              		.loc 2 661 15
 1746 013b 4885C0   		testq	%rax, %rax
 1747 013e 740A     		je	.L133
 662:/home/xingli/share/LiteOS_Lab/network/dtls/mbedtls/mbedtls-2.16.2/library/x509_crt.c ****                 return( MBEDTLS_ERR_X509_INVALID_EXTENSIONS );
 1748              		.loc 2 662 23
 1749 0140 B800DBFF 		movl	$-9472, %eax
 1749      FF
 1750 0145 E9B60000 		jmp	.L137
 1750      00
 1751              	.L133:
GAS LISTING /tmp/ccnlqVtp.s 			page 50


 663:/home/xingli/share/LiteOS_Lab/network/dtls/mbedtls/mbedtls-2.16.2/library/x509_crt.c **** 
 664:/home/xingli/share/LiteOS_Lab/network/dtls/mbedtls/mbedtls-2.16.2/library/x509_crt.c ****             cur->next = mbedtls_calloc( 1, sizeof( mbedtls_asn1_sequence ) );
 1752              		.loc 2 664 25
 1753 014a BE200000 		movl	$32, %esi
 1753      00
 1754 014f BF010000 		movl	$1, %edi
 1754      00
 1755 0154 E8000000 		call	mbedtls_calloc@PLT
 1755      00
 1756              		.loc 2 664 23
 1757 0159 488B55E8 		movq	-24(%rbp), %rdx
 1758 015d 48894218 		movq	%rax, 24(%rdx)
 665:/home/xingli/share/LiteOS_Lab/network/dtls/mbedtls/mbedtls-2.16.2/library/x509_crt.c **** 
 666:/home/xingli/share/LiteOS_Lab/network/dtls/mbedtls/mbedtls-2.16.2/library/x509_crt.c ****             if( cur->next == NULL )
 1759              		.loc 2 666 20
 1760 0161 488B45E8 		movq	-24(%rbp), %rax
 1761 0165 488B4018 		movq	24(%rax), %rax
 1762              		.loc 2 666 15
 1763 0169 4885C0   		testq	%rax, %rax
 1764 016c 750A     		jne	.L134
 667:/home/xingli/share/LiteOS_Lab/network/dtls/mbedtls/mbedtls-2.16.2/library/x509_crt.c ****                 return( MBEDTLS_ERR_X509_INVALID_EXTENSIONS +
 1765              		.loc 2 667 23
 1766 016e B896DAFF 		movl	$-9578, %eax
 1766      FF
 1767 0173 E9880000 		jmp	.L137
 1767      00
 1768              	.L134:
 668:/home/xingli/share/LiteOS_Lab/network/dtls/mbedtls/mbedtls-2.16.2/library/x509_crt.c ****                         MBEDTLS_ERR_ASN1_ALLOC_FAILED );
 669:/home/xingli/share/LiteOS_Lab/network/dtls/mbedtls/mbedtls-2.16.2/library/x509_crt.c **** 
 670:/home/xingli/share/LiteOS_Lab/network/dtls/mbedtls/mbedtls-2.16.2/library/x509_crt.c ****             cur = cur->next;
 1769              		.loc 2 670 17
 1770 0178 488B45E8 		movq	-24(%rbp), %rax
 1771 017c 488B4018 		movq	24(%rax), %rax
 1772 0180 488945E8 		movq	%rax, -24(%rbp)
 1773              	.L132:
 671:/home/xingli/share/LiteOS_Lab/network/dtls/mbedtls/mbedtls-2.16.2/library/x509_crt.c ****         }
 672:/home/xingli/share/LiteOS_Lab/network/dtls/mbedtls/mbedtls-2.16.2/library/x509_crt.c **** 
 673:/home/xingli/share/LiteOS_Lab/network/dtls/mbedtls/mbedtls-2.16.2/library/x509_crt.c ****         buf = &(cur->buf);
 1774              		.loc 2 673 13
 1775 0184 488B45E8 		movq	-24(%rbp), %rax
 1776 0188 488945F0 		movq	%rax, -16(%rbp)
 674:/home/xingli/share/LiteOS_Lab/network/dtls/mbedtls/mbedtls-2.16.2/library/x509_crt.c ****         buf->tag = tag;
 1777              		.loc 2 674 18
 1778 018c 0FB655D3 		movzbl	-45(%rbp), %edx
 1779 0190 488B45F0 		movq	-16(%rbp), %rax
 1780 0194 8910     		movl	%edx, (%rax)
 675:/home/xingli/share/LiteOS_Lab/network/dtls/mbedtls/mbedtls-2.16.2/library/x509_crt.c ****         buf->p = *p;
 1781              		.loc 2 675 18
 1782 0196 488B45C8 		movq	-56(%rbp), %rax
 1783 019a 488B10   		movq	(%rax), %rdx
 1784              		.loc 2 675 16
 1785 019d 488B45F0 		movq	-16(%rbp), %rax
 1786 01a1 48895010 		movq	%rdx, 16(%rax)
 676:/home/xingli/share/LiteOS_Lab/network/dtls/mbedtls/mbedtls-2.16.2/library/x509_crt.c ****         buf->len = tag_len;
 1787              		.loc 2 676 18
 1788 01a5 488B55E0 		movq	-32(%rbp), %rdx
 1789 01a9 488B45F0 		movq	-16(%rbp), %rax
GAS LISTING /tmp/ccnlqVtp.s 			page 51


 1790 01ad 48895008 		movq	%rdx, 8(%rax)
 677:/home/xingli/share/LiteOS_Lab/network/dtls/mbedtls/mbedtls-2.16.2/library/x509_crt.c ****         *p += buf->len;
 1791              		.loc 2 677 12
 1792 01b1 488B45C8 		movq	-56(%rbp), %rax
 1793 01b5 488B10   		movq	(%rax), %rdx
 1794              		.loc 2 677 18
 1795 01b8 488B45F0 		movq	-16(%rbp), %rax
 1796 01bc 488B4008 		movq	8(%rax), %rax
 1797              		.loc 2 677 12
 1798 01c0 4801C2   		addq	%rax, %rdx
 1799 01c3 488B45C8 		movq	-56(%rbp), %rax
 1800 01c7 488910   		movq	%rdx, (%rax)
 1801              	.L127:
 633:/home/xingli/share/LiteOS_Lab/network/dtls/mbedtls/mbedtls-2.16.2/library/x509_crt.c ****     {
 1802              		.loc 2 633 12
 1803 01ca 488B45C8 		movq	-56(%rbp), %rax
 1804 01ce 488B00   		movq	(%rax), %rax
 633:/home/xingli/share/LiteOS_Lab/network/dtls/mbedtls/mbedtls-2.16.2/library/x509_crt.c ****     {
 1805              		.loc 2 633 10
 1806 01d1 483945C0 		cmpq	%rax, -64(%rbp)
 1807 01d5 0F87A5FE 		ja	.L135
 1807      FFFF
 678:/home/xingli/share/LiteOS_Lab/network/dtls/mbedtls/mbedtls-2.16.2/library/x509_crt.c ****     }
 679:/home/xingli/share/LiteOS_Lab/network/dtls/mbedtls/mbedtls-2.16.2/library/x509_crt.c **** 
 680:/home/xingli/share/LiteOS_Lab/network/dtls/mbedtls/mbedtls-2.16.2/library/x509_crt.c ****     /* Set final sequence entry's next pointer to NULL */
 681:/home/xingli/share/LiteOS_Lab/network/dtls/mbedtls/mbedtls-2.16.2/library/x509_crt.c ****     cur->next = NULL;
 1808              		.loc 2 681 15
 1809 01db 488B45E8 		movq	-24(%rbp), %rax
 1810 01df 48C74018 		movq	$0, 24(%rax)
 1810      00000000 
 682:/home/xingli/share/LiteOS_Lab/network/dtls/mbedtls/mbedtls-2.16.2/library/x509_crt.c **** 
 683:/home/xingli/share/LiteOS_Lab/network/dtls/mbedtls/mbedtls-2.16.2/library/x509_crt.c ****     if( *p != end )
 1811              		.loc 2 683 9
 1812 01e7 488B45C8 		movq	-56(%rbp), %rax
 1813 01eb 488B00   		movq	(%rax), %rax
 1814              		.loc 2 683 7
 1815 01ee 483945C0 		cmpq	%rax, -64(%rbp)
 1816 01f2 7407     		je	.L136
 684:/home/xingli/share/LiteOS_Lab/network/dtls/mbedtls/mbedtls-2.16.2/library/x509_crt.c ****         return( MBEDTLS_ERR_X509_INVALID_EXTENSIONS +
 1817              		.loc 2 684 15
 1818 01f4 B89ADAFF 		movl	$-9574, %eax
 1818      FF
 1819 01f9 EB05     		jmp	.L137
 1820              	.L136:
 685:/home/xingli/share/LiteOS_Lab/network/dtls/mbedtls/mbedtls-2.16.2/library/x509_crt.c ****                 MBEDTLS_ERR_ASN1_LENGTH_MISMATCH );
 686:/home/xingli/share/LiteOS_Lab/network/dtls/mbedtls/mbedtls-2.16.2/library/x509_crt.c **** 
 687:/home/xingli/share/LiteOS_Lab/network/dtls/mbedtls/mbedtls-2.16.2/library/x509_crt.c ****     return( 0 );
 1821              		.loc 2 687 11
 1822 01fb B8000000 		movl	$0, %eax
 1822      00
 1823              	.L137:
 688:/home/xingli/share/LiteOS_Lab/network/dtls/mbedtls/mbedtls-2.16.2/library/x509_crt.c **** }
 1824              		.loc 2 688 1 discriminator 1
 1825 0200 488B4DF8 		movq	-8(%rbp), %rcx
 1826 0204 6448330C 		xorq	%fs:40, %rcx
 1826      25280000 
 1826      00
GAS LISTING /tmp/ccnlqVtp.s 			page 52


 1827 020d 7405     		je	.L138
 1828              		.loc 2 688 1 is_stmt 0
 1829 020f E8000000 		call	__stack_chk_fail@PLT
 1829      00
 1830              	.L138:
 1831 0214 C9       		leave
 1832              	.LCFI50:
 1833              		.cfi_def_cfa 7, 8
 1834 0215 C3       		ret
 1835              		.cfi_endproc
 1836              	.LFE31:
 1838              		.section	.text.x509_get_crt_ext,"ax",@progbits
 1840              	x509_get_crt_ext:
 1841              	.LFB32:
 689:/home/xingli/share/LiteOS_Lab/network/dtls/mbedtls/mbedtls-2.16.2/library/x509_crt.c **** 
 690:/home/xingli/share/LiteOS_Lab/network/dtls/mbedtls/mbedtls-2.16.2/library/x509_crt.c **** /*
 691:/home/xingli/share/LiteOS_Lab/network/dtls/mbedtls/mbedtls-2.16.2/library/x509_crt.c ****  * X.509 v3 extensions
 692:/home/xingli/share/LiteOS_Lab/network/dtls/mbedtls/mbedtls-2.16.2/library/x509_crt.c ****  *
 693:/home/xingli/share/LiteOS_Lab/network/dtls/mbedtls/mbedtls-2.16.2/library/x509_crt.c ****  */
 694:/home/xingli/share/LiteOS_Lab/network/dtls/mbedtls/mbedtls-2.16.2/library/x509_crt.c **** static int x509_get_crt_ext( unsigned char **p,
 695:/home/xingli/share/LiteOS_Lab/network/dtls/mbedtls/mbedtls-2.16.2/library/x509_crt.c ****                              const unsigned char *end,
 696:/home/xingli/share/LiteOS_Lab/network/dtls/mbedtls/mbedtls-2.16.2/library/x509_crt.c ****                              mbedtls_x509_crt *crt )
 697:/home/xingli/share/LiteOS_Lab/network/dtls/mbedtls/mbedtls-2.16.2/library/x509_crt.c **** {
 1842              		.loc 2 697 1 is_stmt 1
 1843              		.cfi_startproc
 1844 0000 F30F1EFA 		endbr64
 1845 0004 55       		pushq	%rbp
 1846              	.LCFI51:
 1847              		.cfi_def_cfa_offset 16
 1848              		.cfi_offset 6, -16
 1849 0005 4889E5   		movq	%rsp, %rbp
 1850              	.LCFI52:
 1851              		.cfi_def_cfa_register 6
 1852 0008 4883EC70 		subq	$112, %rsp
 1853 000c 48897DA8 		movq	%rdi, -88(%rbp)
 1854 0010 488975A0 		movq	%rsi, -96(%rbp)
 1855 0014 48895598 		movq	%rdx, -104(%rbp)
 1856              		.loc 2 697 1
 1857 0018 64488B04 		movq	%fs:40, %rax
 1857      25280000 
 1857      00
 1858 0021 488945F8 		movq	%rax, -8(%rbp)
 1859 0025 31C0     		xorl	%eax, %eax
 698:/home/xingli/share/LiteOS_Lab/network/dtls/mbedtls/mbedtls-2.16.2/library/x509_crt.c ****     int ret;
 699:/home/xingli/share/LiteOS_Lab/network/dtls/mbedtls/mbedtls-2.16.2/library/x509_crt.c ****     size_t len;
 700:/home/xingli/share/LiteOS_Lab/network/dtls/mbedtls/mbedtls-2.16.2/library/x509_crt.c ****     unsigned char *end_ext_data, *end_ext_octet;
 701:/home/xingli/share/LiteOS_Lab/network/dtls/mbedtls/mbedtls-2.16.2/library/x509_crt.c **** 
 702:/home/xingli/share/LiteOS_Lab/network/dtls/mbedtls/mbedtls-2.16.2/library/x509_crt.c ****     if( *p == end )
 1860              		.loc 2 702 9
 1861 0027 488B45A8 		movq	-88(%rbp), %rax
 1862 002b 488B00   		movq	(%rax), %rax
 1863              		.loc 2 702 7
 1864 002e 483945A0 		cmpq	%rax, -96(%rbp)
 1865 0032 750A     		jne	.L140
 703:/home/xingli/share/LiteOS_Lab/network/dtls/mbedtls/mbedtls-2.16.2/library/x509_crt.c ****         return( 0 );
 1866              		.loc 2 703 15
 1867 0034 B8000000 		movl	$0, %eax
GAS LISTING /tmp/ccnlqVtp.s 			page 53


 1867      00
 1868 0039 E9940300 		jmp	.L167
 1868      00
 1869              	.L140:
 704:/home/xingli/share/LiteOS_Lab/network/dtls/mbedtls/mbedtls-2.16.2/library/x509_crt.c **** 
 705:/home/xingli/share/LiteOS_Lab/network/dtls/mbedtls/mbedtls-2.16.2/library/x509_crt.c ****     if( ( ret = mbedtls_x509_get_ext( p, end, &crt->v3_ext, 3 ) ) != 0 )
 1870              		.loc 2 705 17
 1871 003e 488B4598 		movq	-104(%rbp), %rax
 1872 0042 488D9088 		leaq	392(%rax), %rdx
 1872      010000
 1873 0049 488B75A0 		movq	-96(%rbp), %rsi
 1874 004d 488B45A8 		movq	-88(%rbp), %rax
 1875 0051 B9030000 		movl	$3, %ecx
 1875      00
 1876 0056 4889C7   		movq	%rax, %rdi
 1877 0059 E8000000 		call	mbedtls_x509_get_ext@PLT
 1877      00
 1878 005e 8945C4   		movl	%eax, -60(%rbp)
 1879              		.loc 2 705 7
 1880 0061 837DC400 		cmpl	$0, -60(%rbp)
 1881 0065 7408     		je	.L142
 706:/home/xingli/share/LiteOS_Lab/network/dtls/mbedtls/mbedtls-2.16.2/library/x509_crt.c ****         return( ret );
 1882              		.loc 2 706 15
 1883 0067 8B45C4   		movl	-60(%rbp), %eax
 1884 006a E9630300 		jmp	.L167
 1884      00
 1885              	.L142:
 707:/home/xingli/share/LiteOS_Lab/network/dtls/mbedtls/mbedtls-2.16.2/library/x509_crt.c **** 
 708:/home/xingli/share/LiteOS_Lab/network/dtls/mbedtls/mbedtls-2.16.2/library/x509_crt.c ****     end = crt->v3_ext.p + crt->v3_ext.len;
 1886              		.loc 2 708 22
 1887 006f 488B4598 		movq	-104(%rbp), %rax
 1888 0073 488B9098 		movq	408(%rax), %rdx
 1888      010000
 1889              		.loc 2 708 38
 1890 007a 488B4598 		movq	-104(%rbp), %rax
 1891 007e 488B8090 		movq	400(%rax), %rax
 1891      010000
 1892              		.loc 2 708 9
 1893 0085 4801D0   		addq	%rdx, %rax
 1894 0088 488945A0 		movq	%rax, -96(%rbp)
 709:/home/xingli/share/LiteOS_Lab/network/dtls/mbedtls/mbedtls-2.16.2/library/x509_crt.c ****     while( *p < end )
 1895              		.loc 2 709 10
 1896 008c E9170300 		jmp	.L143
 1896      00
 1897              	.L165:
 1898              	.LBB3:
 710:/home/xingli/share/LiteOS_Lab/network/dtls/mbedtls/mbedtls-2.16.2/library/x509_crt.c ****     {
 711:/home/xingli/share/LiteOS_Lab/network/dtls/mbedtls/mbedtls-2.16.2/library/x509_crt.c ****         /*
 712:/home/xingli/share/LiteOS_Lab/network/dtls/mbedtls/mbedtls-2.16.2/library/x509_crt.c ****          * Extension  ::=  SEQUENCE  {
 713:/home/xingli/share/LiteOS_Lab/network/dtls/mbedtls/mbedtls-2.16.2/library/x509_crt.c ****          *      extnID      OBJECT IDENTIFIER,
 714:/home/xingli/share/LiteOS_Lab/network/dtls/mbedtls/mbedtls-2.16.2/library/x509_crt.c ****          *      critical    BOOLEAN DEFAULT FALSE,
 715:/home/xingli/share/LiteOS_Lab/network/dtls/mbedtls/mbedtls-2.16.2/library/x509_crt.c ****          *      extnValue   OCTET STRING  }
 716:/home/xingli/share/LiteOS_Lab/network/dtls/mbedtls/mbedtls-2.16.2/library/x509_crt.c ****          */
 717:/home/xingli/share/LiteOS_Lab/network/dtls/mbedtls/mbedtls-2.16.2/library/x509_crt.c ****         mbedtls_x509_buf extn_oid = {0, 0, NULL};
 1899              		.loc 2 717 26
 1900 0091 C745E000 		movl	$0, -32(%rbp)
 1900      000000
GAS LISTING /tmp/ccnlqVtp.s 			page 54


 1901 0098 48C745E8 		movq	$0, -24(%rbp)
 1901      00000000 
 1902 00a0 48C745F0 		movq	$0, -16(%rbp)
 1902      00000000 
 718:/home/xingli/share/LiteOS_Lab/network/dtls/mbedtls/mbedtls-2.16.2/library/x509_crt.c ****         int is_critical = 0; /* DEFAULT FALSE */
 1903              		.loc 2 718 13
 1904 00a8 C745BC00 		movl	$0, -68(%rbp)
 1904      000000
 719:/home/xingli/share/LiteOS_Lab/network/dtls/mbedtls/mbedtls-2.16.2/library/x509_crt.c ****         int ext_type = 0;
 1905              		.loc 2 719 13
 1906 00af C745C000 		movl	$0, -64(%rbp)
 1906      000000
 720:/home/xingli/share/LiteOS_Lab/network/dtls/mbedtls/mbedtls-2.16.2/library/x509_crt.c **** 
 721:/home/xingli/share/LiteOS_Lab/network/dtls/mbedtls/mbedtls-2.16.2/library/x509_crt.c ****         if( ( ret = mbedtls_asn1_get_tag( p, end, &len,
 1907              		.loc 2 721 21
 1908 00b6 488D55C8 		leaq	-56(%rbp), %rdx
 1909 00ba 488B75A0 		movq	-96(%rbp), %rsi
 1910 00be 488B45A8 		movq	-88(%rbp), %rax
 1911 00c2 B9300000 		movl	$48, %ecx
 1911      00
 1912 00c7 4889C7   		movq	%rax, %rdi
 1913 00ca E8000000 		call	mbedtls_asn1_get_tag@PLT
 1913      00
 1914 00cf 8945C4   		movl	%eax, -60(%rbp)
 1915              		.loc 2 721 11
 1916 00d2 837DC400 		cmpl	$0, -60(%rbp)
 1917 00d6 740D     		je	.L144
 722:/home/xingli/share/LiteOS_Lab/network/dtls/mbedtls/mbedtls-2.16.2/library/x509_crt.c ****                 MBEDTLS_ASN1_CONSTRUCTED | MBEDTLS_ASN1_SEQUENCE ) ) != 0 )
 723:/home/xingli/share/LiteOS_Lab/network/dtls/mbedtls/mbedtls-2.16.2/library/x509_crt.c ****             return( MBEDTLS_ERR_X509_INVALID_EXTENSIONS + ret );
 1918              		.loc 2 723 57
 1919 00d8 8B45C4   		movl	-60(%rbp), %eax
 1920 00db 2D002500 		subl	$9472, %eax
 1920      00
 1921 00e0 E9ED0200 		jmp	.L167
 1921      00
 1922              	.L144:
 724:/home/xingli/share/LiteOS_Lab/network/dtls/mbedtls/mbedtls-2.16.2/library/x509_crt.c **** 
 725:/home/xingli/share/LiteOS_Lab/network/dtls/mbedtls/mbedtls-2.16.2/library/x509_crt.c ****         end_ext_data = *p + len;
 1923              		.loc 2 725 24
 1924 00e5 488B45A8 		movq	-88(%rbp), %rax
 1925 00e9 488B10   		movq	(%rax), %rdx
 1926              		.loc 2 725 27
 1927 00ec 488B45C8 		movq	-56(%rbp), %rax
 1928              		.loc 2 725 22
 1929 00f0 4801D0   		addq	%rdx, %rax
 1930 00f3 488945D0 		movq	%rax, -48(%rbp)
 726:/home/xingli/share/LiteOS_Lab/network/dtls/mbedtls/mbedtls-2.16.2/library/x509_crt.c **** 
 727:/home/xingli/share/LiteOS_Lab/network/dtls/mbedtls/mbedtls-2.16.2/library/x509_crt.c ****         /* Get extension ID */
 728:/home/xingli/share/LiteOS_Lab/network/dtls/mbedtls/mbedtls-2.16.2/library/x509_crt.c ****         if( ( ret = mbedtls_asn1_get_tag( p, end_ext_data, &extn_oid.len,
 1931              		.loc 2 728 21
 1932 00f7 488D45E0 		leaq	-32(%rbp), %rax
 1933 00fb 488D5008 		leaq	8(%rax), %rdx
 1934 00ff 488B75D0 		movq	-48(%rbp), %rsi
 1935 0103 488B45A8 		movq	-88(%rbp), %rax
 1936 0107 B9060000 		movl	$6, %ecx
 1936      00
 1937 010c 4889C7   		movq	%rax, %rdi
GAS LISTING /tmp/ccnlqVtp.s 			page 55


 1938 010f E8000000 		call	mbedtls_asn1_get_tag@PLT
 1938      00
 1939 0114 8945C4   		movl	%eax, -60(%rbp)
 1940              		.loc 2 728 11
 1941 0117 837DC400 		cmpl	$0, -60(%rbp)
 1942 011b 740D     		je	.L146
 729:/home/xingli/share/LiteOS_Lab/network/dtls/mbedtls/mbedtls-2.16.2/library/x509_crt.c ****                                           MBEDTLS_ASN1_OID ) ) != 0 )
 730:/home/xingli/share/LiteOS_Lab/network/dtls/mbedtls/mbedtls-2.16.2/library/x509_crt.c ****             return( MBEDTLS_ERR_X509_INVALID_EXTENSIONS + ret );
 1943              		.loc 2 730 57
 1944 011d 8B45C4   		movl	-60(%rbp), %eax
 1945 0120 2D002500 		subl	$9472, %eax
 1945      00
 1946 0125 E9A80200 		jmp	.L167
 1946      00
 1947              	.L146:
 731:/home/xingli/share/LiteOS_Lab/network/dtls/mbedtls/mbedtls-2.16.2/library/x509_crt.c **** 
 732:/home/xingli/share/LiteOS_Lab/network/dtls/mbedtls/mbedtls-2.16.2/library/x509_crt.c ****         extn_oid.tag = MBEDTLS_ASN1_OID;
 1948              		.loc 2 732 22
 1949 012a C745E006 		movl	$6, -32(%rbp)
 1949      000000
 733:/home/xingli/share/LiteOS_Lab/network/dtls/mbedtls/mbedtls-2.16.2/library/x509_crt.c ****         extn_oid.p = *p;
 1950              		.loc 2 733 22
 1951 0131 488B45A8 		movq	-88(%rbp), %rax
 1952 0135 488B00   		movq	(%rax), %rax
 1953              		.loc 2 733 20
 1954 0138 488945F0 		movq	%rax, -16(%rbp)
 734:/home/xingli/share/LiteOS_Lab/network/dtls/mbedtls/mbedtls-2.16.2/library/x509_crt.c ****         *p += extn_oid.len;
 1955              		.loc 2 734 12
 1956 013c 488B45A8 		movq	-88(%rbp), %rax
 1957 0140 488B10   		movq	(%rax), %rdx
 1958              		.loc 2 734 23
 1959 0143 488B45E8 		movq	-24(%rbp), %rax
 1960              		.loc 2 734 12
 1961 0147 4801C2   		addq	%rax, %rdx
 1962 014a 488B45A8 		movq	-88(%rbp), %rax
 1963 014e 488910   		movq	%rdx, (%rax)
 735:/home/xingli/share/LiteOS_Lab/network/dtls/mbedtls/mbedtls-2.16.2/library/x509_crt.c **** 
 736:/home/xingli/share/LiteOS_Lab/network/dtls/mbedtls/mbedtls-2.16.2/library/x509_crt.c ****         /* Get optional critical */
 737:/home/xingli/share/LiteOS_Lab/network/dtls/mbedtls/mbedtls-2.16.2/library/x509_crt.c ****         if( ( ret = mbedtls_asn1_get_bool( p, end_ext_data, &is_critical ) ) != 0 &&
 1964              		.loc 2 737 21
 1965 0151 488D55BC 		leaq	-68(%rbp), %rdx
 1966 0155 488B4DD0 		movq	-48(%rbp), %rcx
 1967 0159 488B45A8 		movq	-88(%rbp), %rax
 1968 015d 4889CE   		movq	%rcx, %rsi
 1969 0160 4889C7   		movq	%rax, %rdi
 1970 0163 E8000000 		call	mbedtls_asn1_get_bool@PLT
 1970      00
 1971 0168 8945C4   		movl	%eax, -60(%rbp)
 1972              		.loc 2 737 11
 1973 016b 837DC400 		cmpl	$0, -60(%rbp)
 1974 016f 7413     		je	.L147
 1975              		.loc 2 737 83 discriminator 1
 1976 0171 837DC49E 		cmpl	$-98, -60(%rbp)
 1977 0175 740D     		je	.L147
 738:/home/xingli/share/LiteOS_Lab/network/dtls/mbedtls/mbedtls-2.16.2/library/x509_crt.c ****             ( ret != MBEDTLS_ERR_ASN1_UNEXPECTED_TAG ) )
 739:/home/xingli/share/LiteOS_Lab/network/dtls/mbedtls/mbedtls-2.16.2/library/x509_crt.c ****             return( MBEDTLS_ERR_X509_INVALID_EXTENSIONS + ret );
 1978              		.loc 2 739 57
GAS LISTING /tmp/ccnlqVtp.s 			page 56


 1979 0177 8B45C4   		movl	-60(%rbp), %eax
 1980 017a 2D002500 		subl	$9472, %eax
 1980      00
 1981 017f E94E0200 		jmp	.L167
 1981      00
 1982              	.L147:
 740:/home/xingli/share/LiteOS_Lab/network/dtls/mbedtls/mbedtls-2.16.2/library/x509_crt.c **** 
 741:/home/xingli/share/LiteOS_Lab/network/dtls/mbedtls/mbedtls-2.16.2/library/x509_crt.c ****         /* Data should be octet string type */
 742:/home/xingli/share/LiteOS_Lab/network/dtls/mbedtls/mbedtls-2.16.2/library/x509_crt.c ****         if( ( ret = mbedtls_asn1_get_tag( p, end_ext_data, &len,
 1983              		.loc 2 742 21
 1984 0184 488D55C8 		leaq	-56(%rbp), %rdx
 1985 0188 488B75D0 		movq	-48(%rbp), %rsi
 1986 018c 488B45A8 		movq	-88(%rbp), %rax
 1987 0190 B9040000 		movl	$4, %ecx
 1987      00
 1988 0195 4889C7   		movq	%rax, %rdi
 1989 0198 E8000000 		call	mbedtls_asn1_get_tag@PLT
 1989      00
 1990 019d 8945C4   		movl	%eax, -60(%rbp)
 1991              		.loc 2 742 11
 1992 01a0 837DC400 		cmpl	$0, -60(%rbp)
 1993 01a4 740D     		je	.L148
 743:/home/xingli/share/LiteOS_Lab/network/dtls/mbedtls/mbedtls-2.16.2/library/x509_crt.c ****                 MBEDTLS_ASN1_OCTET_STRING ) ) != 0 )
 744:/home/xingli/share/LiteOS_Lab/network/dtls/mbedtls/mbedtls-2.16.2/library/x509_crt.c ****             return( MBEDTLS_ERR_X509_INVALID_EXTENSIONS + ret );
 1994              		.loc 2 744 57
 1995 01a6 8B45C4   		movl	-60(%rbp), %eax
 1996 01a9 2D002500 		subl	$9472, %eax
 1996      00
 1997 01ae E91F0200 		jmp	.L167
 1997      00
 1998              	.L148:
 745:/home/xingli/share/LiteOS_Lab/network/dtls/mbedtls/mbedtls-2.16.2/library/x509_crt.c **** 
 746:/home/xingli/share/LiteOS_Lab/network/dtls/mbedtls/mbedtls-2.16.2/library/x509_crt.c ****         end_ext_octet = *p + len;
 1999              		.loc 2 746 25
 2000 01b3 488B45A8 		movq	-88(%rbp), %rax
 2001 01b7 488B10   		movq	(%rax), %rdx
 2002              		.loc 2 746 28
 2003 01ba 488B45C8 		movq	-56(%rbp), %rax
 2004              		.loc 2 746 23
 2005 01be 4801D0   		addq	%rdx, %rax
 2006 01c1 488945D8 		movq	%rax, -40(%rbp)
 747:/home/xingli/share/LiteOS_Lab/network/dtls/mbedtls/mbedtls-2.16.2/library/x509_crt.c **** 
 748:/home/xingli/share/LiteOS_Lab/network/dtls/mbedtls/mbedtls-2.16.2/library/x509_crt.c ****         if( end_ext_octet != end_ext_data )
 2007              		.loc 2 748 11
 2008 01c5 488B45D8 		movq	-40(%rbp), %rax
 2009 01c9 483B45D0 		cmpq	-48(%rbp), %rax
 2010 01cd 740A     		je	.L149
 749:/home/xingli/share/LiteOS_Lab/network/dtls/mbedtls/mbedtls-2.16.2/library/x509_crt.c ****             return( MBEDTLS_ERR_X509_INVALID_EXTENSIONS +
 2011              		.loc 2 749 19
 2012 01cf B89ADAFF 		movl	$-9574, %eax
 2012      FF
 2013 01d4 E9F90100 		jmp	.L167
 2013      00
 2014              	.L149:
 750:/home/xingli/share/LiteOS_Lab/network/dtls/mbedtls/mbedtls-2.16.2/library/x509_crt.c ****                     MBEDTLS_ERR_ASN1_LENGTH_MISMATCH );
 751:/home/xingli/share/LiteOS_Lab/network/dtls/mbedtls/mbedtls-2.16.2/library/x509_crt.c **** 
 752:/home/xingli/share/LiteOS_Lab/network/dtls/mbedtls/mbedtls-2.16.2/library/x509_crt.c ****         /*
GAS LISTING /tmp/ccnlqVtp.s 			page 57


 753:/home/xingli/share/LiteOS_Lab/network/dtls/mbedtls/mbedtls-2.16.2/library/x509_crt.c ****          * Detect supported extensions
 754:/home/xingli/share/LiteOS_Lab/network/dtls/mbedtls/mbedtls-2.16.2/library/x509_crt.c ****          */
 755:/home/xingli/share/LiteOS_Lab/network/dtls/mbedtls/mbedtls-2.16.2/library/x509_crt.c ****         ret = mbedtls_oid_get_x509_ext_type( &extn_oid, &ext_type );
 2015              		.loc 2 755 15
 2016 01d9 488D55C0 		leaq	-64(%rbp), %rdx
 2017 01dd 488D45E0 		leaq	-32(%rbp), %rax
 2018 01e1 4889D6   		movq	%rdx, %rsi
 2019 01e4 4889C7   		movq	%rax, %rdi
 2020 01e7 E8000000 		call	mbedtls_oid_get_x509_ext_type@PLT
 2020      00
 2021 01ec 8945C4   		movl	%eax, -60(%rbp)
 756:/home/xingli/share/LiteOS_Lab/network/dtls/mbedtls/mbedtls-2.16.2/library/x509_crt.c **** 
 757:/home/xingli/share/LiteOS_Lab/network/dtls/mbedtls/mbedtls-2.16.2/library/x509_crt.c ****         if( ret != 0 )
 2022              		.loc 2 757 11
 2023 01ef 837DC400 		cmpl	$0, -60(%rbp)
 2024 01f3 7420     		je	.L150
 758:/home/xingli/share/LiteOS_Lab/network/dtls/mbedtls/mbedtls-2.16.2/library/x509_crt.c ****         {
 759:/home/xingli/share/LiteOS_Lab/network/dtls/mbedtls/mbedtls-2.16.2/library/x509_crt.c ****             /* No parser found, skip extension */
 760:/home/xingli/share/LiteOS_Lab/network/dtls/mbedtls/mbedtls-2.16.2/library/x509_crt.c ****             *p = end_ext_octet;
 2025              		.loc 2 760 16
 2026 01f5 488B45A8 		movq	-88(%rbp), %rax
 2027 01f9 488B55D8 		movq	-40(%rbp), %rdx
 2028 01fd 488910   		movq	%rdx, (%rax)
 761:/home/xingli/share/LiteOS_Lab/network/dtls/mbedtls/mbedtls-2.16.2/library/x509_crt.c **** 
 762:/home/xingli/share/LiteOS_Lab/network/dtls/mbedtls/mbedtls-2.16.2/library/x509_crt.c **** #if !defined(MBEDTLS_X509_ALLOW_UNSUPPORTED_CRITICAL_EXTENSION)
 763:/home/xingli/share/LiteOS_Lab/network/dtls/mbedtls/mbedtls-2.16.2/library/x509_crt.c ****             if( is_critical )
 2029              		.loc 2 763 17
 2030 0200 8B45BC   		movl	-68(%rbp), %eax
 2031              		.loc 2 763 15
 2032 0203 85C0     		testl	%eax, %eax
 2033 0205 0F849D01 		je	.L143
 2033      0000
 764:/home/xingli/share/LiteOS_Lab/network/dtls/mbedtls/mbedtls-2.16.2/library/x509_crt.c ****             {
 765:/home/xingli/share/LiteOS_Lab/network/dtls/mbedtls/mbedtls-2.16.2/library/x509_crt.c ****                 /* Data is marked as critical: fail */
 766:/home/xingli/share/LiteOS_Lab/network/dtls/mbedtls/mbedtls-2.16.2/library/x509_crt.c ****                 return( MBEDTLS_ERR_X509_INVALID_EXTENSIONS +
 2034              		.loc 2 766 23
 2035 020b B89EDAFF 		movl	$-9570, %eax
 2035      FF
 2036 0210 E9BD0100 		jmp	.L167
 2036      00
 2037              	.L150:
 767:/home/xingli/share/LiteOS_Lab/network/dtls/mbedtls/mbedtls-2.16.2/library/x509_crt.c ****                         MBEDTLS_ERR_ASN1_UNEXPECTED_TAG );
 768:/home/xingli/share/LiteOS_Lab/network/dtls/mbedtls/mbedtls-2.16.2/library/x509_crt.c ****             }
 769:/home/xingli/share/LiteOS_Lab/network/dtls/mbedtls/mbedtls-2.16.2/library/x509_crt.c **** #endif
 770:/home/xingli/share/LiteOS_Lab/network/dtls/mbedtls/mbedtls-2.16.2/library/x509_crt.c ****             continue;
 771:/home/xingli/share/LiteOS_Lab/network/dtls/mbedtls/mbedtls-2.16.2/library/x509_crt.c ****         }
 772:/home/xingli/share/LiteOS_Lab/network/dtls/mbedtls/mbedtls-2.16.2/library/x509_crt.c **** 
 773:/home/xingli/share/LiteOS_Lab/network/dtls/mbedtls/mbedtls-2.16.2/library/x509_crt.c ****         /* Forbid repeated extensions */
 774:/home/xingli/share/LiteOS_Lab/network/dtls/mbedtls/mbedtls-2.16.2/library/x509_crt.c ****         if( ( crt->ext_types & ext_type ) != 0 )
 2038              		.loc 2 774 18
 2039 0215 488B4598 		movq	-104(%rbp), %rax
 2040 0219 8B90C001 		movl	448(%rax), %edx
 2040      0000
 2041              		.loc 2 774 30
 2042 021f 8B45C0   		movl	-64(%rbp), %eax
 2043 0222 21D0     		andl	%edx, %eax
 2044              		.loc 2 774 11
GAS LISTING /tmp/ccnlqVtp.s 			page 58


 2045 0224 85C0     		testl	%eax, %eax
 2046 0226 740A     		je	.L152
 775:/home/xingli/share/LiteOS_Lab/network/dtls/mbedtls/mbedtls-2.16.2/library/x509_crt.c ****             return( MBEDTLS_ERR_X509_INVALID_EXTENSIONS );
 2047              		.loc 2 775 19
 2048 0228 B800DBFF 		movl	$-9472, %eax
 2048      FF
 2049 022d E9A00100 		jmp	.L167
 2049      00
 2050              	.L152:
 776:/home/xingli/share/LiteOS_Lab/network/dtls/mbedtls/mbedtls-2.16.2/library/x509_crt.c **** 
 777:/home/xingli/share/LiteOS_Lab/network/dtls/mbedtls/mbedtls-2.16.2/library/x509_crt.c ****         crt->ext_types |= ext_type;
 2051              		.loc 2 777 24
 2052 0232 488B4598 		movq	-104(%rbp), %rax
 2053 0236 8B90C001 		movl	448(%rax), %edx
 2053      0000
 2054 023c 8B45C0   		movl	-64(%rbp), %eax
 2055 023f 09C2     		orl	%eax, %edx
 2056 0241 488B4598 		movq	-104(%rbp), %rax
 2057 0245 8990C001 		movl	%edx, 448(%rax)
 2057      0000
 778:/home/xingli/share/LiteOS_Lab/network/dtls/mbedtls/mbedtls-2.16.2/library/x509_crt.c **** 
 779:/home/xingli/share/LiteOS_Lab/network/dtls/mbedtls/mbedtls-2.16.2/library/x509_crt.c ****         switch( ext_type )
 2058              		.loc 2 779 9
 2059 024b 8B45C0   		movl	-64(%rbp), %eax
 2060 024e 3D000001 		cmpl	$65536, %eax
 2060      00
 2061 0253 0F840F01 		je	.L153
 2061      0000
 2062 0259 3D000001 		cmpl	$65536, %eax
 2062      00
 2063 025e 0F8F3001 		jg	.L154
 2063      0000
 2064 0264 3D000800 		cmpl	$2048, %eax
 2064      00
 2065 0269 0F849E00 		je	.L155
 2065      0000
 2066 026f 3D000800 		cmpl	$2048, %eax
 2066      00
 2067 0274 0F8F1A01 		jg	.L154
 2067      0000
 2068 027a 3D000100 		cmpl	$256, %eax
 2068      00
 2069 027f 741E     		je	.L156
 2070 0281 3D000100 		cmpl	$256, %eax
 2070      00
 2071 0286 0F8F0801 		jg	.L154
 2071      0000
 2072 028c 83F804   		cmpl	$4, %eax
 2073 028f 7449     		je	.L157
 2074 0291 83F820   		cmpl	$32, %eax
 2075 0294 0F84A200 		je	.L158
 2075      0000
 2076 029a E9F50000 		jmp	.L154
 2076      00
 2077              	.L156:
 780:/home/xingli/share/LiteOS_Lab/network/dtls/mbedtls/mbedtls-2.16.2/library/x509_crt.c ****         {
 781:/home/xingli/share/LiteOS_Lab/network/dtls/mbedtls/mbedtls-2.16.2/library/x509_crt.c ****         case MBEDTLS_X509_EXT_BASIC_CONSTRAINTS:
GAS LISTING /tmp/ccnlqVtp.s 			page 59


 782:/home/xingli/share/LiteOS_Lab/network/dtls/mbedtls/mbedtls-2.16.2/library/x509_crt.c ****             /* Parse basic constraints */
 783:/home/xingli/share/LiteOS_Lab/network/dtls/mbedtls/mbedtls-2.16.2/library/x509_crt.c ****             if( ( ret = x509_get_basic_constraints( p, end_ext_octet,
 2078              		.loc 2 783 25
 2079 029f 488B4598 		movq	-104(%rbp), %rax
 2080 02a3 488D88C8 		leaq	456(%rax), %rcx
 2080      010000
 2081 02aa 488B4598 		movq	-104(%rbp), %rax
 2082 02ae 488D90C4 		leaq	452(%rax), %rdx
 2082      010000
 2083 02b5 488B75D8 		movq	-40(%rbp), %rsi
 2084 02b9 488B45A8 		movq	-88(%rbp), %rax
 2085 02bd 4889C7   		movq	%rax, %rdi
 2086 02c0 E8000000 		call	x509_get_basic_constraints
 2086      00
 2087 02c5 8945C4   		movl	%eax, -60(%rbp)
 2088              		.loc 2 783 15
 2089 02c8 837DC400 		cmpl	$0, -60(%rbp)
 2090 02cc 0F84C900 		je	.L169
 2090      0000
 784:/home/xingli/share/LiteOS_Lab/network/dtls/mbedtls/mbedtls-2.16.2/library/x509_crt.c ****                     &crt->ca_istrue, &crt->max_pathlen ) ) != 0 )
 785:/home/xingli/share/LiteOS_Lab/network/dtls/mbedtls/mbedtls-2.16.2/library/x509_crt.c ****                 return( ret );
 2091              		.loc 2 785 23
 2092 02d2 8B45C4   		movl	-60(%rbp), %eax
 2093 02d5 E9F80000 		jmp	.L167
 2093      00
 2094              	.L157:
 786:/home/xingli/share/LiteOS_Lab/network/dtls/mbedtls/mbedtls-2.16.2/library/x509_crt.c ****             break;
 787:/home/xingli/share/LiteOS_Lab/network/dtls/mbedtls/mbedtls-2.16.2/library/x509_crt.c **** 
 788:/home/xingli/share/LiteOS_Lab/network/dtls/mbedtls/mbedtls-2.16.2/library/x509_crt.c ****         case MBEDTLS_X509_EXT_KEY_USAGE:
 789:/home/xingli/share/LiteOS_Lab/network/dtls/mbedtls/mbedtls-2.16.2/library/x509_crt.c ****             /* Parse key usage */
 790:/home/xingli/share/LiteOS_Lab/network/dtls/mbedtls/mbedtls-2.16.2/library/x509_crt.c ****             if( ( ret = x509_get_key_usage( p, end_ext_octet,
 2095              		.loc 2 790 25
 2096 02da 488B4598 		movq	-104(%rbp), %rax
 2097 02de 488D90CC 		leaq	460(%rax), %rdx
 2097      010000
 2098 02e5 488B4DD8 		movq	-40(%rbp), %rcx
 2099 02e9 488B45A8 		movq	-88(%rbp), %rax
 2100 02ed 4889CE   		movq	%rcx, %rsi
 2101 02f0 4889C7   		movq	%rax, %rdi
 2102 02f3 E8000000 		call	x509_get_key_usage
 2102      00
 2103 02f8 8945C4   		movl	%eax, -60(%rbp)
 2104              		.loc 2 790 15
 2105 02fb 837DC400 		cmpl	$0, -60(%rbp)
 2106 02ff 0F849900 		je	.L170
 2106      0000
 791:/home/xingli/share/LiteOS_Lab/network/dtls/mbedtls/mbedtls-2.16.2/library/x509_crt.c ****                     &crt->key_usage ) ) != 0 )
 792:/home/xingli/share/LiteOS_Lab/network/dtls/mbedtls/mbedtls-2.16.2/library/x509_crt.c ****                 return( ret );
 2107              		.loc 2 792 23
 2108 0305 8B45C4   		movl	-60(%rbp), %eax
 2109 0308 E9C50000 		jmp	.L167
 2109      00
 2110              	.L155:
 793:/home/xingli/share/LiteOS_Lab/network/dtls/mbedtls/mbedtls-2.16.2/library/x509_crt.c ****             break;
 794:/home/xingli/share/LiteOS_Lab/network/dtls/mbedtls/mbedtls-2.16.2/library/x509_crt.c **** 
 795:/home/xingli/share/LiteOS_Lab/network/dtls/mbedtls/mbedtls-2.16.2/library/x509_crt.c ****         case MBEDTLS_X509_EXT_EXTENDED_KEY_USAGE:
 796:/home/xingli/share/LiteOS_Lab/network/dtls/mbedtls/mbedtls-2.16.2/library/x509_crt.c ****             /* Parse extended key usage */
GAS LISTING /tmp/ccnlqVtp.s 			page 60


 797:/home/xingli/share/LiteOS_Lab/network/dtls/mbedtls/mbedtls-2.16.2/library/x509_crt.c ****             if( ( ret = x509_get_ext_key_usage( p, end_ext_octet,
 2111              		.loc 2 797 25
 2112 030d 488B4598 		movq	-104(%rbp), %rax
 2113 0311 488D90D0 		leaq	464(%rax), %rdx
 2113      010000
 2114 0318 488B4DD8 		movq	-40(%rbp), %rcx
 2115 031c 488B45A8 		movq	-88(%rbp), %rax
 2116 0320 4889CE   		movq	%rcx, %rsi
 2117 0323 4889C7   		movq	%rax, %rdi
 2118 0326 E8000000 		call	x509_get_ext_key_usage
 2118      00
 2119 032b 8945C4   		movl	%eax, -60(%rbp)
 2120              		.loc 2 797 15
 2121 032e 837DC400 		cmpl	$0, -60(%rbp)
 2122 0332 746D     		je	.L171
 798:/home/xingli/share/LiteOS_Lab/network/dtls/mbedtls/mbedtls-2.16.2/library/x509_crt.c ****                     &crt->ext_key_usage ) ) != 0 )
 799:/home/xingli/share/LiteOS_Lab/network/dtls/mbedtls/mbedtls-2.16.2/library/x509_crt.c ****                 return( ret );
 2123              		.loc 2 799 23
 2124 0334 8B45C4   		movl	-60(%rbp), %eax
 2125 0337 E9960000 		jmp	.L167
 2125      00
 2126              	.L158:
 800:/home/xingli/share/LiteOS_Lab/network/dtls/mbedtls/mbedtls-2.16.2/library/x509_crt.c ****             break;
 801:/home/xingli/share/LiteOS_Lab/network/dtls/mbedtls/mbedtls-2.16.2/library/x509_crt.c **** 
 802:/home/xingli/share/LiteOS_Lab/network/dtls/mbedtls/mbedtls-2.16.2/library/x509_crt.c ****         case MBEDTLS_X509_EXT_SUBJECT_ALT_NAME:
 803:/home/xingli/share/LiteOS_Lab/network/dtls/mbedtls/mbedtls-2.16.2/library/x509_crt.c ****             /* Parse subject alt name */
 804:/home/xingli/share/LiteOS_Lab/network/dtls/mbedtls/mbedtls-2.16.2/library/x509_crt.c ****             if( ( ret = x509_get_subject_alt_name( p, end_ext_octet,
 2127              		.loc 2 804 25
 2128 033c 488B4598 		movq	-104(%rbp), %rax
 2129 0340 488D90A0 		leaq	416(%rax), %rdx
 2129      010000
 2130 0347 488B4DD8 		movq	-40(%rbp), %rcx
 2131 034b 488B45A8 		movq	-88(%rbp), %rax
 2132 034f 4889CE   		movq	%rcx, %rsi
 2133 0352 4889C7   		movq	%rax, %rdi
 2134 0355 E8000000 		call	x509_get_subject_alt_name
 2134      00
 2135 035a 8945C4   		movl	%eax, -60(%rbp)
 2136              		.loc 2 804 15
 2137 035d 837DC400 		cmpl	$0, -60(%rbp)
 2138 0361 7441     		je	.L172
 805:/home/xingli/share/LiteOS_Lab/network/dtls/mbedtls/mbedtls-2.16.2/library/x509_crt.c ****                     &crt->subject_alt_names ) ) != 0 )
 806:/home/xingli/share/LiteOS_Lab/network/dtls/mbedtls/mbedtls-2.16.2/library/x509_crt.c ****                 return( ret );
 2139              		.loc 2 806 23
 2140 0363 8B45C4   		movl	-60(%rbp), %eax
 2141 0366 EB6A     		jmp	.L167
 2142              	.L153:
 807:/home/xingli/share/LiteOS_Lab/network/dtls/mbedtls/mbedtls-2.16.2/library/x509_crt.c ****             break;
 808:/home/xingli/share/LiteOS_Lab/network/dtls/mbedtls/mbedtls-2.16.2/library/x509_crt.c **** 
 809:/home/xingli/share/LiteOS_Lab/network/dtls/mbedtls/mbedtls-2.16.2/library/x509_crt.c ****         case MBEDTLS_X509_EXT_NS_CERT_TYPE:
 810:/home/xingli/share/LiteOS_Lab/network/dtls/mbedtls/mbedtls-2.16.2/library/x509_crt.c ****             /* Parse netscape certificate type */
 811:/home/xingli/share/LiteOS_Lab/network/dtls/mbedtls/mbedtls-2.16.2/library/x509_crt.c ****             if( ( ret = x509_get_ns_cert_type( p, end_ext_octet,
 2143              		.loc 2 811 25
 2144 0368 488B4598 		movq	-104(%rbp), %rax
 2145 036c 488D90F0 		leaq	496(%rax), %rdx
 2145      010000
 2146 0373 488B4DD8 		movq	-40(%rbp), %rcx
GAS LISTING /tmp/ccnlqVtp.s 			page 61


 2147 0377 488B45A8 		movq	-88(%rbp), %rax
 2148 037b 4889CE   		movq	%rcx, %rsi
 2149 037e 4889C7   		movq	%rax, %rdi
 2150 0381 E8000000 		call	x509_get_ns_cert_type
 2150      00
 2151 0386 8945C4   		movl	%eax, -60(%rbp)
 2152              		.loc 2 811 15
 2153 0389 837DC400 		cmpl	$0, -60(%rbp)
 2154 038d 7418     		je	.L173
 812:/home/xingli/share/LiteOS_Lab/network/dtls/mbedtls/mbedtls-2.16.2/library/x509_crt.c ****                     &crt->ns_cert_type ) ) != 0 )
 813:/home/xingli/share/LiteOS_Lab/network/dtls/mbedtls/mbedtls-2.16.2/library/x509_crt.c ****                 return( ret );
 2155              		.loc 2 813 23
 2156 038f 8B45C4   		movl	-60(%rbp), %eax
 2157 0392 EB3E     		jmp	.L167
 2158              	.L154:
 814:/home/xingli/share/LiteOS_Lab/network/dtls/mbedtls/mbedtls-2.16.2/library/x509_crt.c ****             break;
 815:/home/xingli/share/LiteOS_Lab/network/dtls/mbedtls/mbedtls-2.16.2/library/x509_crt.c **** 
 816:/home/xingli/share/LiteOS_Lab/network/dtls/mbedtls/mbedtls-2.16.2/library/x509_crt.c ****         default:
 817:/home/xingli/share/LiteOS_Lab/network/dtls/mbedtls/mbedtls-2.16.2/library/x509_crt.c ****             return( MBEDTLS_ERR_X509_FEATURE_UNAVAILABLE );
 2159              		.loc 2 817 19
 2160 0394 B880DFFF 		movl	$-8320, %eax
 2160      FF
 2161 0399 EB37     		jmp	.L167
 2162              	.L169:
 786:/home/xingli/share/LiteOS_Lab/network/dtls/mbedtls/mbedtls-2.16.2/library/x509_crt.c **** 
 2163              		.loc 2 786 13
 2164 039b 90       		nop
 2165 039c EB0A     		jmp	.L143
 2166              	.L170:
 793:/home/xingli/share/LiteOS_Lab/network/dtls/mbedtls/mbedtls-2.16.2/library/x509_crt.c **** 
 2167              		.loc 2 793 13
 2168 039e 90       		nop
 2169 039f EB07     		jmp	.L143
 2170              	.L171:
 800:/home/xingli/share/LiteOS_Lab/network/dtls/mbedtls/mbedtls-2.16.2/library/x509_crt.c **** 
 2171              		.loc 2 800 13
 2172 03a1 90       		nop
 2173 03a2 EB04     		jmp	.L143
 2174              	.L172:
 807:/home/xingli/share/LiteOS_Lab/network/dtls/mbedtls/mbedtls-2.16.2/library/x509_crt.c **** 
 2175              		.loc 2 807 13
 2176 03a4 90       		nop
 2177 03a5 EB01     		jmp	.L143
 2178              	.L173:
 814:/home/xingli/share/LiteOS_Lab/network/dtls/mbedtls/mbedtls-2.16.2/library/x509_crt.c **** 
 2179              		.loc 2 814 13
 2180 03a7 90       		nop
 2181              	.L143:
 2182              	.LBE3:
 709:/home/xingli/share/LiteOS_Lab/network/dtls/mbedtls/mbedtls-2.16.2/library/x509_crt.c ****     {
 2183              		.loc 2 709 12
 2184 03a8 488B45A8 		movq	-88(%rbp), %rax
 2185 03ac 488B00   		movq	(%rax), %rax
 709:/home/xingli/share/LiteOS_Lab/network/dtls/mbedtls/mbedtls-2.16.2/library/x509_crt.c ****     {
 2186              		.loc 2 709 10
 2187 03af 483945A0 		cmpq	%rax, -96(%rbp)
 2188 03b3 0F87D8FC 		ja	.L165
GAS LISTING /tmp/ccnlqVtp.s 			page 62


 2188      FFFF
 818:/home/xingli/share/LiteOS_Lab/network/dtls/mbedtls/mbedtls-2.16.2/library/x509_crt.c ****         }
 819:/home/xingli/share/LiteOS_Lab/network/dtls/mbedtls/mbedtls-2.16.2/library/x509_crt.c ****     }
 820:/home/xingli/share/LiteOS_Lab/network/dtls/mbedtls/mbedtls-2.16.2/library/x509_crt.c **** 
 821:/home/xingli/share/LiteOS_Lab/network/dtls/mbedtls/mbedtls-2.16.2/library/x509_crt.c ****     if( *p != end )
 2189              		.loc 2 821 9
 2190 03b9 488B45A8 		movq	-88(%rbp), %rax
 2191 03bd 488B00   		movq	(%rax), %rax
 2192              		.loc 2 821 7
 2193 03c0 483945A0 		cmpq	%rax, -96(%rbp)
 2194 03c4 7407     		je	.L166
 822:/home/xingli/share/LiteOS_Lab/network/dtls/mbedtls/mbedtls-2.16.2/library/x509_crt.c ****         return( MBEDTLS_ERR_X509_INVALID_EXTENSIONS +
 2195              		.loc 2 822 15
 2196 03c6 B89ADAFF 		movl	$-9574, %eax
 2196      FF
 2197 03cb EB05     		jmp	.L167
 2198              	.L166:
 823:/home/xingli/share/LiteOS_Lab/network/dtls/mbedtls/mbedtls-2.16.2/library/x509_crt.c ****                 MBEDTLS_ERR_ASN1_LENGTH_MISMATCH );
 824:/home/xingli/share/LiteOS_Lab/network/dtls/mbedtls/mbedtls-2.16.2/library/x509_crt.c **** 
 825:/home/xingli/share/LiteOS_Lab/network/dtls/mbedtls/mbedtls-2.16.2/library/x509_crt.c ****     return( 0 );
 2199              		.loc 2 825 11
 2200 03cd B8000000 		movl	$0, %eax
 2200      00
 2201              	.L167:
 826:/home/xingli/share/LiteOS_Lab/network/dtls/mbedtls/mbedtls-2.16.2/library/x509_crt.c **** }
 2202              		.loc 2 826 1 discriminator 6
 2203 03d2 488B7DF8 		movq	-8(%rbp), %rdi
 2204 03d6 6448333C 		xorq	%fs:40, %rdi
 2204      25280000 
 2204      00
 2205 03df 7405     		je	.L168
 2206              		.loc 2 826 1 is_stmt 0
 2207 03e1 E8000000 		call	__stack_chk_fail@PLT
 2207      00
 2208              	.L168:
 2209 03e6 C9       		leave
 2210              	.LCFI53:
 2211              		.cfi_def_cfa 7, 8
 2212 03e7 C3       		ret
 2213              		.cfi_endproc
 2214              	.LFE32:
 2216              		.section	.text.x509_crt_parse_der_core,"ax",@progbits
 2218              	x509_crt_parse_der_core:
 2219              	.LFB33:
 827:/home/xingli/share/LiteOS_Lab/network/dtls/mbedtls/mbedtls-2.16.2/library/x509_crt.c **** 
 828:/home/xingli/share/LiteOS_Lab/network/dtls/mbedtls/mbedtls-2.16.2/library/x509_crt.c **** /*
 829:/home/xingli/share/LiteOS_Lab/network/dtls/mbedtls/mbedtls-2.16.2/library/x509_crt.c ****  * Parse and fill a single X.509 certificate in DER format
 830:/home/xingli/share/LiteOS_Lab/network/dtls/mbedtls/mbedtls-2.16.2/library/x509_crt.c ****  */
 831:/home/xingli/share/LiteOS_Lab/network/dtls/mbedtls/mbedtls-2.16.2/library/x509_crt.c **** static int x509_crt_parse_der_core( mbedtls_x509_crt *crt, const unsigned char *buf,
 832:/home/xingli/share/LiteOS_Lab/network/dtls/mbedtls/mbedtls-2.16.2/library/x509_crt.c ****                                     size_t buflen )
 833:/home/xingli/share/LiteOS_Lab/network/dtls/mbedtls/mbedtls-2.16.2/library/x509_crt.c **** {
 2220              		.loc 2 833 1 is_stmt 1
 2221              		.cfi_startproc
 2222 0000 F30F1EFA 		endbr64
 2223 0004 55       		pushq	%rbp
 2224              	.LCFI54:
 2225              		.cfi_def_cfa_offset 16
GAS LISTING /tmp/ccnlqVtp.s 			page 63


 2226              		.cfi_offset 6, -16
 2227 0005 4889E5   		movq	%rsp, %rbp
 2228              	.LCFI55:
 2229              		.cfi_def_cfa_register 6
 2230 0008 4881ECB0 		subq	$176, %rsp
 2230      000000
 2231 000f 4889BD68 		movq	%rdi, -152(%rbp)
 2231      FFFFFF
 2232 0016 4889B560 		movq	%rsi, -160(%rbp)
 2232      FFFFFF
 2233 001d 48899558 		movq	%rdx, -168(%rbp)
 2233      FFFFFF
 2234              		.loc 2 833 1
 2235 0024 64488B04 		movq	%fs:40, %rax
 2235      25280000 
 2235      00
 2236 002d 488945F8 		movq	%rax, -8(%rbp)
 2237 0031 31C0     		xorl	%eax, %eax
 834:/home/xingli/share/LiteOS_Lab/network/dtls/mbedtls/mbedtls-2.16.2/library/x509_crt.c ****     int ret;
 835:/home/xingli/share/LiteOS_Lab/network/dtls/mbedtls/mbedtls-2.16.2/library/x509_crt.c ****     size_t len;
 836:/home/xingli/share/LiteOS_Lab/network/dtls/mbedtls/mbedtls-2.16.2/library/x509_crt.c ****     unsigned char *p, *end, *crt_end;
 837:/home/xingli/share/LiteOS_Lab/network/dtls/mbedtls/mbedtls-2.16.2/library/x509_crt.c ****     mbedtls_x509_buf sig_params1, sig_params2, sig_oid2;
 838:/home/xingli/share/LiteOS_Lab/network/dtls/mbedtls/mbedtls-2.16.2/library/x509_crt.c **** 
 839:/home/xingli/share/LiteOS_Lab/network/dtls/mbedtls/mbedtls-2.16.2/library/x509_crt.c ****     memset( &sig_params1, 0, sizeof( mbedtls_x509_buf ) );
 2238              		.loc 2 839 5
 2239 0033 488D45A0 		leaq	-96(%rbp), %rax
 2240 0037 BA180000 		movl	$24, %edx
 2240      00
 2241 003c BE000000 		movl	$0, %esi
 2241      00
 2242 0041 4889C7   		movq	%rax, %rdi
 2243 0044 E8000000 		call	memset@PLT
 2243      00
 840:/home/xingli/share/LiteOS_Lab/network/dtls/mbedtls/mbedtls-2.16.2/library/x509_crt.c ****     memset( &sig_params2, 0, sizeof( mbedtls_x509_buf ) );
 2244              		.loc 2 840 5
 2245 0049 488D45C0 		leaq	-64(%rbp), %rax
 2246 004d BA180000 		movl	$24, %edx
 2246      00
 2247 0052 BE000000 		movl	$0, %esi
 2247      00
 2248 0057 4889C7   		movq	%rax, %rdi
 2249 005a E8000000 		call	memset@PLT
 2249      00
 841:/home/xingli/share/LiteOS_Lab/network/dtls/mbedtls/mbedtls-2.16.2/library/x509_crt.c ****     memset( &sig_oid2, 0, sizeof( mbedtls_x509_buf ) );
 2250              		.loc 2 841 5
 2251 005f 488D45E0 		leaq	-32(%rbp), %rax
 2252 0063 BA180000 		movl	$24, %edx
 2252      00
 2253 0068 BE000000 		movl	$0, %esi
 2253      00
 2254 006d 4889C7   		movq	%rax, %rdi
 2255 0070 E8000000 		call	memset@PLT
 2255      00
 842:/home/xingli/share/LiteOS_Lab/network/dtls/mbedtls/mbedtls-2.16.2/library/x509_crt.c **** 
 843:/home/xingli/share/LiteOS_Lab/network/dtls/mbedtls/mbedtls-2.16.2/library/x509_crt.c ****     /*
 844:/home/xingli/share/LiteOS_Lab/network/dtls/mbedtls/mbedtls-2.16.2/library/x509_crt.c ****      * Check for valid input
 845:/home/xingli/share/LiteOS_Lab/network/dtls/mbedtls/mbedtls-2.16.2/library/x509_crt.c ****      */
GAS LISTING /tmp/ccnlqVtp.s 			page 64


 846:/home/xingli/share/LiteOS_Lab/network/dtls/mbedtls/mbedtls-2.16.2/library/x509_crt.c ****     if( crt == NULL || buf == NULL )
 2256              		.loc 2 846 7
 2257 0075 4883BD68 		cmpq	$0, -152(%rbp)
 2257      FFFFFF00 
 2258 007d 740A     		je	.L175
 2259              		.loc 2 846 21 discriminator 1
 2260 007f 4883BD60 		cmpq	$0, -160(%rbp)
 2260      FFFFFF00 
 2261 0087 750A     		jne	.L176
 2262              	.L175:
 847:/home/xingli/share/LiteOS_Lab/network/dtls/mbedtls/mbedtls-2.16.2/library/x509_crt.c ****         return( MBEDTLS_ERR_X509_BAD_INPUT_DATA );
 2263              		.loc 2 847 15
 2264 0089 B800D8FF 		movl	$-10240, %eax
 2264      FF
 2265 008e E9080800 		jmp	.L204
 2265      00
 2266              	.L176:
 848:/home/xingli/share/LiteOS_Lab/network/dtls/mbedtls/mbedtls-2.16.2/library/x509_crt.c **** 
 849:/home/xingli/share/LiteOS_Lab/network/dtls/mbedtls/mbedtls-2.16.2/library/x509_crt.c ****     // Use the original buffer until we figure out actual length
 850:/home/xingli/share/LiteOS_Lab/network/dtls/mbedtls/mbedtls-2.16.2/library/x509_crt.c ****     p = (unsigned char*) buf;
 2267              		.loc 2 850 7
 2268 0093 488B8560 		movq	-160(%rbp), %rax
 2268      FFFFFF
 2269 009a 48894588 		movq	%rax, -120(%rbp)
 851:/home/xingli/share/LiteOS_Lab/network/dtls/mbedtls/mbedtls-2.16.2/library/x509_crt.c ****     len = buflen;
 2270              		.loc 2 851 9
 2271 009e 488B8558 		movq	-168(%rbp), %rax
 2271      FFFFFF
 2272 00a5 48894580 		movq	%rax, -128(%rbp)
 852:/home/xingli/share/LiteOS_Lab/network/dtls/mbedtls/mbedtls-2.16.2/library/x509_crt.c ****     end = p + len;
 2273              		.loc 2 852 13
 2274 00a9 488B5588 		movq	-120(%rbp), %rdx
 2275 00ad 488B4580 		movq	-128(%rbp), %rax
 2276              		.loc 2 852 9
 2277 00b1 4801D0   		addq	%rdx, %rax
 2278 00b4 48894590 		movq	%rax, -112(%rbp)
 853:/home/xingli/share/LiteOS_Lab/network/dtls/mbedtls/mbedtls-2.16.2/library/x509_crt.c **** 
 854:/home/xingli/share/LiteOS_Lab/network/dtls/mbedtls/mbedtls-2.16.2/library/x509_crt.c ****     /*
 855:/home/xingli/share/LiteOS_Lab/network/dtls/mbedtls/mbedtls-2.16.2/library/x509_crt.c ****      * Certificate  ::=  SEQUENCE  {
 856:/home/xingli/share/LiteOS_Lab/network/dtls/mbedtls/mbedtls-2.16.2/library/x509_crt.c ****      *      tbsCertificate       TBSCertificate,
 857:/home/xingli/share/LiteOS_Lab/network/dtls/mbedtls/mbedtls-2.16.2/library/x509_crt.c ****      *      signatureAlgorithm   AlgorithmIdentifier,
 858:/home/xingli/share/LiteOS_Lab/network/dtls/mbedtls/mbedtls-2.16.2/library/x509_crt.c ****      *      signatureValue       BIT STRING  }
 859:/home/xingli/share/LiteOS_Lab/network/dtls/mbedtls/mbedtls-2.16.2/library/x509_crt.c ****      */
 860:/home/xingli/share/LiteOS_Lab/network/dtls/mbedtls/mbedtls-2.16.2/library/x509_crt.c ****     if( ( ret = mbedtls_asn1_get_tag( &p, end, &len,
 2279              		.loc 2 860 17
 2280 00b8 488D5580 		leaq	-128(%rbp), %rdx
 2281 00bc 488B7590 		movq	-112(%rbp), %rsi
 2282 00c0 488D4588 		leaq	-120(%rbp), %rax
 2283 00c4 B9300000 		movl	$48, %ecx
 2283      00
 2284 00c9 4889C7   		movq	%rax, %rdi
 2285 00cc E8000000 		call	mbedtls_asn1_get_tag@PLT
 2285      00
 2286 00d1 89857CFF 		movl	%eax, -132(%rbp)
 2286      FFFF
 2287              		.loc 2 860 7
 2288 00d7 83BD7CFF 		cmpl	$0, -132(%rbp)
GAS LISTING /tmp/ccnlqVtp.s 			page 65


 2288      FFFF00
 2289 00de 7419     		je	.L178
 861:/home/xingli/share/LiteOS_Lab/network/dtls/mbedtls/mbedtls-2.16.2/library/x509_crt.c ****             MBEDTLS_ASN1_CONSTRUCTED | MBEDTLS_ASN1_SEQUENCE ) ) != 0 )
 862:/home/xingli/share/LiteOS_Lab/network/dtls/mbedtls/mbedtls-2.16.2/library/x509_crt.c ****     {
 863:/home/xingli/share/LiteOS_Lab/network/dtls/mbedtls/mbedtls-2.16.2/library/x509_crt.c ****         mbedtls_x509_crt_free( crt );
 2290              		.loc 2 863 9
 2291 00e0 488B8568 		movq	-152(%rbp), %rax
 2291      FFFFFF
 2292 00e7 4889C7   		movq	%rax, %rdi
 2293 00ea E8000000 		call	mbedtls_x509_crt_free
 2293      00
 864:/home/xingli/share/LiteOS_Lab/network/dtls/mbedtls/mbedtls-2.16.2/library/x509_crt.c ****         return( MBEDTLS_ERR_X509_INVALID_FORMAT );
 2294              		.loc 2 864 15
 2295 00ef B880DEFF 		movl	$-8576, %eax
 2295      FF
 2296 00f4 E9A20700 		jmp	.L204
 2296      00
 2297              	.L178:
 865:/home/xingli/share/LiteOS_Lab/network/dtls/mbedtls/mbedtls-2.16.2/library/x509_crt.c ****     }
 866:/home/xingli/share/LiteOS_Lab/network/dtls/mbedtls/mbedtls-2.16.2/library/x509_crt.c **** 
 867:/home/xingli/share/LiteOS_Lab/network/dtls/mbedtls/mbedtls-2.16.2/library/x509_crt.c ****     if( len > (size_t) ( end - p ) )
 2298              		.loc 2 867 30
 2299 00f9 488B4588 		movq	-120(%rbp), %rax
 2300 00fd 488B5590 		movq	-112(%rbp), %rdx
 2301 0101 4829C2   		subq	%rax, %rdx
 2302 0104 4889D0   		movq	%rdx, %rax
 2303              		.loc 2 867 15
 2304 0107 4889C2   		movq	%rax, %rdx
 2305              		.loc 2 867 13
 2306 010a 488B4580 		movq	-128(%rbp), %rax
 2307              		.loc 2 867 7
 2308 010e 4839C2   		cmpq	%rax, %rdx
 2309 0111 7319     		jnb	.L179
 868:/home/xingli/share/LiteOS_Lab/network/dtls/mbedtls/mbedtls-2.16.2/library/x509_crt.c ****     {
 869:/home/xingli/share/LiteOS_Lab/network/dtls/mbedtls/mbedtls-2.16.2/library/x509_crt.c ****         mbedtls_x509_crt_free( crt );
 2310              		.loc 2 869 9
 2311 0113 488B8568 		movq	-152(%rbp), %rax
 2311      FFFFFF
 2312 011a 4889C7   		movq	%rax, %rdi
 2313 011d E8000000 		call	mbedtls_x509_crt_free
 2313      00
 870:/home/xingli/share/LiteOS_Lab/network/dtls/mbedtls/mbedtls-2.16.2/library/x509_crt.c ****         return( MBEDTLS_ERR_X509_INVALID_FORMAT +
 2314              		.loc 2 870 15
 2315 0122 B81ADEFF 		movl	$-8678, %eax
 2315      FF
 2316 0127 E96F0700 		jmp	.L204
 2316      00
 2317              	.L179:
 871:/home/xingli/share/LiteOS_Lab/network/dtls/mbedtls/mbedtls-2.16.2/library/x509_crt.c ****                 MBEDTLS_ERR_ASN1_LENGTH_MISMATCH );
 872:/home/xingli/share/LiteOS_Lab/network/dtls/mbedtls/mbedtls-2.16.2/library/x509_crt.c ****     }
 873:/home/xingli/share/LiteOS_Lab/network/dtls/mbedtls/mbedtls-2.16.2/library/x509_crt.c ****     crt_end = p + len;
 2318              		.loc 2 873 17
 2319 012c 488B5588 		movq	-120(%rbp), %rdx
 2320 0130 488B4580 		movq	-128(%rbp), %rax
 2321              		.loc 2 873 13
 2322 0134 4801D0   		addq	%rdx, %rax
 2323 0137 48894598 		movq	%rax, -104(%rbp)
GAS LISTING /tmp/ccnlqVtp.s 			page 66


 874:/home/xingli/share/LiteOS_Lab/network/dtls/mbedtls/mbedtls-2.16.2/library/x509_crt.c **** 
 875:/home/xingli/share/LiteOS_Lab/network/dtls/mbedtls/mbedtls-2.16.2/library/x509_crt.c ****     // Create and populate a new buffer for the raw field
 876:/home/xingli/share/LiteOS_Lab/network/dtls/mbedtls/mbedtls-2.16.2/library/x509_crt.c ****     crt->raw.len = crt_end - buf;
 2324              		.loc 2 876 28
 2325 013b 488B4598 		movq	-104(%rbp), %rax
 2326 013f 482B8560 		subq	-160(%rbp), %rax
 2326      FFFFFF
 2327 0146 4889C2   		movq	%rax, %rdx
 2328              		.loc 2 876 18
 2329 0149 488B8568 		movq	-152(%rbp), %rax
 2329      FFFFFF
 2330 0150 48895008 		movq	%rdx, 8(%rax)
 877:/home/xingli/share/LiteOS_Lab/network/dtls/mbedtls/mbedtls-2.16.2/library/x509_crt.c ****     crt->raw.p = p = mbedtls_calloc( 1, crt->raw.len );
 2331              		.loc 2 877 22
 2332 0154 488B8568 		movq	-152(%rbp), %rax
 2332      FFFFFF
 2333 015b 488B4008 		movq	8(%rax), %rax
 2334 015f 4889C6   		movq	%rax, %rsi
 2335 0162 BF010000 		movl	$1, %edi
 2335      00
 2336 0167 E8000000 		call	mbedtls_calloc@PLT
 2336      00
 2337              		.loc 2 877 20
 2338 016c 48894588 		movq	%rax, -120(%rbp)
 2339              		.loc 2 877 16
 2340 0170 488B5588 		movq	-120(%rbp), %rdx
 2341 0174 488B8568 		movq	-152(%rbp), %rax
 2341      FFFFFF
 2342 017b 48895010 		movq	%rdx, 16(%rax)
 878:/home/xingli/share/LiteOS_Lab/network/dtls/mbedtls/mbedtls-2.16.2/library/x509_crt.c ****     if( p == NULL )
 2343              		.loc 2 878 11
 2344 017f 488B4588 		movq	-120(%rbp), %rax
 2345              		.loc 2 878 7
 2346 0183 4885C0   		testq	%rax, %rax
 2347 0186 750A     		jne	.L180
 879:/home/xingli/share/LiteOS_Lab/network/dtls/mbedtls/mbedtls-2.16.2/library/x509_crt.c ****         return( MBEDTLS_ERR_X509_ALLOC_FAILED );
 2348              		.loc 2 879 15
 2349 0188 B880D7FF 		movl	$-10368, %eax
 2349      FF
 2350 018d E9090700 		jmp	.L204
 2350      00
 2351              	.L180:
 880:/home/xingli/share/LiteOS_Lab/network/dtls/mbedtls/mbedtls-2.16.2/library/x509_crt.c **** 
 881:/home/xingli/share/LiteOS_Lab/network/dtls/mbedtls/mbedtls-2.16.2/library/x509_crt.c ****     memcpy( p, buf, crt->raw.len );
 2352              		.loc 2 881 5
 2353 0192 488B8568 		movq	-152(%rbp), %rax
 2353      FFFFFF
 2354 0199 488B5008 		movq	8(%rax), %rdx
 2355 019d 488B4588 		movq	-120(%rbp), %rax
 2356 01a1 488B8D60 		movq	-160(%rbp), %rcx
 2356      FFFFFF
 2357 01a8 4889CE   		movq	%rcx, %rsi
 2358 01ab 4889C7   		movq	%rax, %rdi
 2359 01ae E8000000 		call	memcpy@PLT
 2359      00
 882:/home/xingli/share/LiteOS_Lab/network/dtls/mbedtls/mbedtls-2.16.2/library/x509_crt.c **** 
 883:/home/xingli/share/LiteOS_Lab/network/dtls/mbedtls/mbedtls-2.16.2/library/x509_crt.c ****     // Direct pointers to the new buffer
GAS LISTING /tmp/ccnlqVtp.s 			page 67


 884:/home/xingli/share/LiteOS_Lab/network/dtls/mbedtls/mbedtls-2.16.2/library/x509_crt.c ****     p += crt->raw.len - len;
 2360              		.loc 2 884 7
 2361 01b3 488B5588 		movq	-120(%rbp), %rdx
 2362              		.loc 2 884 18
 2363 01b7 488B8568 		movq	-152(%rbp), %rax
 2363      FFFFFF
 2364 01be 488B4808 		movq	8(%rax), %rcx
 2365              		.loc 2 884 23
 2366 01c2 488B4580 		movq	-128(%rbp), %rax
 2367 01c6 4829C1   		subq	%rax, %rcx
 2368 01c9 4889C8   		movq	%rcx, %rax
 2369              		.loc 2 884 7
 2370 01cc 4801D0   		addq	%rdx, %rax
 2371 01cf 48894588 		movq	%rax, -120(%rbp)
 885:/home/xingli/share/LiteOS_Lab/network/dtls/mbedtls/mbedtls-2.16.2/library/x509_crt.c ****     end = crt_end = p + len;
 2372              		.loc 2 885 23
 2373 01d3 488B5588 		movq	-120(%rbp), %rdx
 2374 01d7 488B4580 		movq	-128(%rbp), %rax
 2375              		.loc 2 885 19
 2376 01db 4801D0   		addq	%rdx, %rax
 2377 01de 48894598 		movq	%rax, -104(%rbp)
 2378              		.loc 2 885 9
 2379 01e2 488B4598 		movq	-104(%rbp), %rax
 2380 01e6 48894590 		movq	%rax, -112(%rbp)
 886:/home/xingli/share/LiteOS_Lab/network/dtls/mbedtls/mbedtls-2.16.2/library/x509_crt.c **** 
 887:/home/xingli/share/LiteOS_Lab/network/dtls/mbedtls/mbedtls-2.16.2/library/x509_crt.c ****     /*
 888:/home/xingli/share/LiteOS_Lab/network/dtls/mbedtls/mbedtls-2.16.2/library/x509_crt.c ****      * TBSCertificate  ::=  SEQUENCE  {
 889:/home/xingli/share/LiteOS_Lab/network/dtls/mbedtls/mbedtls-2.16.2/library/x509_crt.c ****      */
 890:/home/xingli/share/LiteOS_Lab/network/dtls/mbedtls/mbedtls-2.16.2/library/x509_crt.c ****     crt->tbs.p = p;
 2381              		.loc 2 890 16
 2382 01ea 488B5588 		movq	-120(%rbp), %rdx
 2383 01ee 488B8568 		movq	-152(%rbp), %rax
 2383      FFFFFF
 2384 01f5 48895028 		movq	%rdx, 40(%rax)
 891:/home/xingli/share/LiteOS_Lab/network/dtls/mbedtls/mbedtls-2.16.2/library/x509_crt.c **** 
 892:/home/xingli/share/LiteOS_Lab/network/dtls/mbedtls/mbedtls-2.16.2/library/x509_crt.c ****     if( ( ret = mbedtls_asn1_get_tag( &p, end, &len,
 2385              		.loc 2 892 17
 2386 01f9 488D5580 		leaq	-128(%rbp), %rdx
 2387 01fd 488B7590 		movq	-112(%rbp), %rsi
 2388 0201 488D4588 		leaq	-120(%rbp), %rax
 2389 0205 B9300000 		movl	$48, %ecx
 2389      00
 2390 020a 4889C7   		movq	%rax, %rdi
 2391 020d E8000000 		call	mbedtls_asn1_get_tag@PLT
 2391      00
 2392 0212 89857CFF 		movl	%eax, -132(%rbp)
 2392      FFFF
 2393              		.loc 2 892 7
 2394 0218 83BD7CFF 		cmpl	$0, -132(%rbp)
 2394      FFFF00
 2395 021f 741F     		je	.L181
 893:/home/xingli/share/LiteOS_Lab/network/dtls/mbedtls/mbedtls-2.16.2/library/x509_crt.c ****             MBEDTLS_ASN1_CONSTRUCTED | MBEDTLS_ASN1_SEQUENCE ) ) != 0 )
 894:/home/xingli/share/LiteOS_Lab/network/dtls/mbedtls/mbedtls-2.16.2/library/x509_crt.c ****     {
 895:/home/xingli/share/LiteOS_Lab/network/dtls/mbedtls/mbedtls-2.16.2/library/x509_crt.c ****         mbedtls_x509_crt_free( crt );
 2396              		.loc 2 895 9
 2397 0221 488B8568 		movq	-152(%rbp), %rax
 2397      FFFFFF
GAS LISTING /tmp/ccnlqVtp.s 			page 68


 2398 0228 4889C7   		movq	%rax, %rdi
 2399 022b E8000000 		call	mbedtls_x509_crt_free
 2399      00
 896:/home/xingli/share/LiteOS_Lab/network/dtls/mbedtls/mbedtls-2.16.2/library/x509_crt.c ****         return( MBEDTLS_ERR_X509_INVALID_FORMAT + ret );
 2400              		.loc 2 896 49
 2401 0230 8B857CFF 		movl	-132(%rbp), %eax
 2401      FFFF
 2402 0236 2D802100 		subl	$8576, %eax
 2402      00
 2403 023b E95B0600 		jmp	.L204
 2403      00
 2404              	.L181:
 897:/home/xingli/share/LiteOS_Lab/network/dtls/mbedtls/mbedtls-2.16.2/library/x509_crt.c ****     }
 898:/home/xingli/share/LiteOS_Lab/network/dtls/mbedtls/mbedtls-2.16.2/library/x509_crt.c **** 
 899:/home/xingli/share/LiteOS_Lab/network/dtls/mbedtls/mbedtls-2.16.2/library/x509_crt.c ****     end = p + len;
 2405              		.loc 2 899 13
 2406 0240 488B5588 		movq	-120(%rbp), %rdx
 2407 0244 488B4580 		movq	-128(%rbp), %rax
 2408              		.loc 2 899 9
 2409 0248 4801D0   		addq	%rdx, %rax
 2410 024b 48894590 		movq	%rax, -112(%rbp)
 900:/home/xingli/share/LiteOS_Lab/network/dtls/mbedtls/mbedtls-2.16.2/library/x509_crt.c ****     crt->tbs.len = end - crt->tbs.p;
 2411              		.loc 2 900 34
 2412 024f 488B8568 		movq	-152(%rbp), %rax
 2412      FFFFFF
 2413 0256 488B4028 		movq	40(%rax), %rax
 2414              		.loc 2 900 24
 2415 025a 488B5590 		movq	-112(%rbp), %rdx
 2416 025e 4829C2   		subq	%rax, %rdx
 2417 0261 4889D0   		movq	%rdx, %rax
 2418 0264 4889C2   		movq	%rax, %rdx
 2419              		.loc 2 900 18
 2420 0267 488B8568 		movq	-152(%rbp), %rax
 2420      FFFFFF
 2421 026e 48895020 		movq	%rdx, 32(%rax)
 901:/home/xingli/share/LiteOS_Lab/network/dtls/mbedtls/mbedtls-2.16.2/library/x509_crt.c **** 
 902:/home/xingli/share/LiteOS_Lab/network/dtls/mbedtls/mbedtls-2.16.2/library/x509_crt.c ****     /*
 903:/home/xingli/share/LiteOS_Lab/network/dtls/mbedtls/mbedtls-2.16.2/library/x509_crt.c ****      * Version  ::=  INTEGER  {  v1(0), v2(1), v3(2)  }
 904:/home/xingli/share/LiteOS_Lab/network/dtls/mbedtls/mbedtls-2.16.2/library/x509_crt.c ****      *
 905:/home/xingli/share/LiteOS_Lab/network/dtls/mbedtls/mbedtls-2.16.2/library/x509_crt.c ****      * CertificateSerialNumber  ::=  INTEGER
 906:/home/xingli/share/LiteOS_Lab/network/dtls/mbedtls/mbedtls-2.16.2/library/x509_crt.c ****      *
 907:/home/xingli/share/LiteOS_Lab/network/dtls/mbedtls/mbedtls-2.16.2/library/x509_crt.c ****      * signature            AlgorithmIdentifier
 908:/home/xingli/share/LiteOS_Lab/network/dtls/mbedtls/mbedtls-2.16.2/library/x509_crt.c ****      */
 909:/home/xingli/share/LiteOS_Lab/network/dtls/mbedtls/mbedtls-2.16.2/library/x509_crt.c ****     if( ( ret = x509_get_version(  &p, end, &crt->version  ) ) != 0 ||
 2422              		.loc 2 909 17
 2423 0272 488B8568 		movq	-152(%rbp), %rax
 2423      FFFFFF
 2424 0279 488D5030 		leaq	48(%rax), %rdx
 2425 027d 488B4D90 		movq	-112(%rbp), %rcx
 2426 0281 488D4588 		leaq	-120(%rbp), %rax
 2427 0285 4889CE   		movq	%rcx, %rsi
 2428 0288 4889C7   		movq	%rax, %rdi
 2429 028b E8000000 		call	x509_get_version
 2429      00
 2430 0290 89857CFF 		movl	%eax, -132(%rbp)
 2430      FFFF
 2431              		.loc 2 909 7
GAS LISTING /tmp/ccnlqVtp.s 			page 69


 2432 0296 83BD7CFF 		cmpl	$0, -132(%rbp)
 2432      FFFF00
 2433 029d 7561     		jne	.L182
 910:/home/xingli/share/LiteOS_Lab/network/dtls/mbedtls/mbedtls-2.16.2/library/x509_crt.c ****         ( ret = mbedtls_x509_get_serial(   &p, end, &crt->serial   ) ) != 0 ||
 2434              		.loc 2 910 17 discriminator 1
 2435 029f 488B8568 		movq	-152(%rbp), %rax
 2435      FFFFFF
 2436 02a6 488D5038 		leaq	56(%rax), %rdx
 2437 02aa 488B4D90 		movq	-112(%rbp), %rcx
 2438 02ae 488D4588 		leaq	-120(%rbp), %rax
 2439 02b2 4889CE   		movq	%rcx, %rsi
 2440 02b5 4889C7   		movq	%rax, %rdi
 2441 02b8 E8000000 		call	mbedtls_x509_get_serial@PLT
 2441      00
 2442 02bd 89857CFF 		movl	%eax, -132(%rbp)
 2442      FFFF
 909:/home/xingli/share/LiteOS_Lab/network/dtls/mbedtls/mbedtls-2.16.2/library/x509_crt.c ****         ( ret = mbedtls_x509_get_serial(   &p, end, &crt->serial   ) ) != 0 ||
 2443              		.loc 2 909 69 discriminator 1
 2444 02c3 83BD7CFF 		cmpl	$0, -132(%rbp)
 2444      FFFF00
 2445 02ca 7534     		jne	.L182
 911:/home/xingli/share/LiteOS_Lab/network/dtls/mbedtls/mbedtls-2.16.2/library/x509_crt.c ****         ( ret = mbedtls_x509_get_alg(      &p, end, &crt->sig_oid,
 2446              		.loc 2 911 17
 2447 02cc 488B8568 		movq	-152(%rbp), %rax
 2447      FFFFFF
 2448 02d3 488D7850 		leaq	80(%rax), %rdi
 2449 02d7 488D55A0 		leaq	-96(%rbp), %rdx
 2450 02db 488B7590 		movq	-112(%rbp), %rsi
 2451 02df 488D4588 		leaq	-120(%rbp), %rax
 2452 02e3 4889D1   		movq	%rdx, %rcx
 2453 02e6 4889FA   		movq	%rdi, %rdx
 2454 02e9 4889C7   		movq	%rax, %rdi
 2455 02ec E8000000 		call	mbedtls_x509_get_alg@PLT
 2455      00
 2456 02f1 89857CFF 		movl	%eax, -132(%rbp)
 2456      FFFF
 910:/home/xingli/share/LiteOS_Lab/network/dtls/mbedtls/mbedtls-2.16.2/library/x509_crt.c ****         ( ret = mbedtls_x509_get_serial(   &p, end, &crt->serial   ) ) != 0 ||
 2457              		.loc 2 910 77
 2458 02f7 83BD7CFF 		cmpl	$0, -132(%rbp)
 2458      FFFF00
 2459 02fe 741A     		je	.L183
 2460              	.L182:
 912:/home/xingli/share/LiteOS_Lab/network/dtls/mbedtls/mbedtls-2.16.2/library/x509_crt.c ****                                             &sig_params1 ) ) != 0 )
 913:/home/xingli/share/LiteOS_Lab/network/dtls/mbedtls/mbedtls-2.16.2/library/x509_crt.c ****     {
 914:/home/xingli/share/LiteOS_Lab/network/dtls/mbedtls/mbedtls-2.16.2/library/x509_crt.c ****         mbedtls_x509_crt_free( crt );
 2461              		.loc 2 914 9
 2462 0300 488B8568 		movq	-152(%rbp), %rax
 2462      FFFFFF
 2463 0307 4889C7   		movq	%rax, %rdi
 2464 030a E8000000 		call	mbedtls_x509_crt_free
 2464      00
 915:/home/xingli/share/LiteOS_Lab/network/dtls/mbedtls/mbedtls-2.16.2/library/x509_crt.c ****         return( ret );
 2465              		.loc 2 915 15
 2466 030f 8B857CFF 		movl	-132(%rbp), %eax
 2466      FFFF
 2467 0315 E9810500 		jmp	.L204
 2467      00
GAS LISTING /tmp/ccnlqVtp.s 			page 70


 2468              	.L183:
 916:/home/xingli/share/LiteOS_Lab/network/dtls/mbedtls/mbedtls-2.16.2/library/x509_crt.c ****     }
 917:/home/xingli/share/LiteOS_Lab/network/dtls/mbedtls/mbedtls-2.16.2/library/x509_crt.c **** 
 918:/home/xingli/share/LiteOS_Lab/network/dtls/mbedtls/mbedtls-2.16.2/library/x509_crt.c ****     if( crt->version < 0 || crt->version > 2 )
 2469              		.loc 2 918 12
 2470 031a 488B8568 		movq	-152(%rbp), %rax
 2470      FFFFFF
 2471 0321 8B4030   		movl	48(%rax), %eax
 2472              		.loc 2 918 7
 2473 0324 85C0     		testl	%eax, %eax
 2474 0326 780F     		js	.L184
 2475              		.loc 2 918 32 discriminator 1
 2476 0328 488B8568 		movq	-152(%rbp), %rax
 2476      FFFFFF
 2477 032f 8B4030   		movl	48(%rax), %eax
 2478              		.loc 2 918 26 discriminator 1
 2479 0332 83F802   		cmpl	$2, %eax
 2480 0335 7E19     		jle	.L185
 2481              	.L184:
 919:/home/xingli/share/LiteOS_Lab/network/dtls/mbedtls/mbedtls-2.16.2/library/x509_crt.c ****     {
 920:/home/xingli/share/LiteOS_Lab/network/dtls/mbedtls/mbedtls-2.16.2/library/x509_crt.c ****         mbedtls_x509_crt_free( crt );
 2482              		.loc 2 920 9
 2483 0337 488B8568 		movq	-152(%rbp), %rax
 2483      FFFFFF
 2484 033e 4889C7   		movq	%rax, %rdi
 2485 0341 E8000000 		call	mbedtls_x509_crt_free
 2485      00
 921:/home/xingli/share/LiteOS_Lab/network/dtls/mbedtls/mbedtls-2.16.2/library/x509_crt.c ****         return( MBEDTLS_ERR_X509_UNKNOWN_VERSION );
 2486              		.loc 2 921 15
 2487 0346 B880DAFF 		movl	$-9600, %eax
 2487      FF
 2488 034b E94B0500 		jmp	.L204
 2488      00
 2489              	.L185:
 922:/home/xingli/share/LiteOS_Lab/network/dtls/mbedtls/mbedtls-2.16.2/library/x509_crt.c ****     }
 923:/home/xingli/share/LiteOS_Lab/network/dtls/mbedtls/mbedtls-2.16.2/library/x509_crt.c **** 
 924:/home/xingli/share/LiteOS_Lab/network/dtls/mbedtls/mbedtls-2.16.2/library/x509_crt.c ****     crt->version++;
 2490              		.loc 2 924 8
 2491 0350 488B8568 		movq	-152(%rbp), %rax
 2491      FFFFFF
 2492 0357 8B4030   		movl	48(%rax), %eax
 2493              		.loc 2 924 17
 2494 035a 8D5001   		leal	1(%rax), %edx
 2495 035d 488B8568 		movq	-152(%rbp), %rax
 2495      FFFFFF
 2496 0364 895030   		movl	%edx, 48(%rax)
 925:/home/xingli/share/LiteOS_Lab/network/dtls/mbedtls/mbedtls-2.16.2/library/x509_crt.c **** 
 926:/home/xingli/share/LiteOS_Lab/network/dtls/mbedtls/mbedtls-2.16.2/library/x509_crt.c ****     if( ( ret = mbedtls_x509_get_sig_alg( &crt->sig_oid, &sig_params1,
 2497              		.loc 2 926 17
 2498 0367 488B8568 		movq	-152(%rbp), %rax
 2498      FFFFFF
 2499 036e 488DB018 		leaq	536(%rax), %rsi
 2499      020000
 2500 0375 488B8568 		movq	-152(%rbp), %rax
 2500      FFFFFF
 2501 037c 488D8814 		leaq	532(%rax), %rcx
 2501      020000
GAS LISTING /tmp/ccnlqVtp.s 			page 71


 2502 0383 488B8568 		movq	-152(%rbp), %rax
 2502      FFFFFF
 2503 038a 488D9010 		leaq	528(%rax), %rdx
 2503      020000
 2504              		.loc 2 926 43
 2505 0391 488B8568 		movq	-152(%rbp), %rax
 2505      FFFFFF
 2506 0398 488D7850 		leaq	80(%rax), %rdi
 2507              		.loc 2 926 17
 2508 039c 488D45A0 		leaq	-96(%rbp), %rax
 2509 03a0 4989F0   		movq	%rsi, %r8
 2510 03a3 4889C6   		movq	%rax, %rsi
 2511 03a6 E8000000 		call	mbedtls_x509_get_sig_alg@PLT
 2511      00
 2512 03ab 89857CFF 		movl	%eax, -132(%rbp)
 2512      FFFF
 2513              		.loc 2 926 7
 2514 03b1 83BD7CFF 		cmpl	$0, -132(%rbp)
 2514      FFFF00
 2515 03b8 741A     		je	.L186
 927:/home/xingli/share/LiteOS_Lab/network/dtls/mbedtls/mbedtls-2.16.2/library/x509_crt.c ****                                   &crt->sig_md, &crt->sig_pk,
 928:/home/xingli/share/LiteOS_Lab/network/dtls/mbedtls/mbedtls-2.16.2/library/x509_crt.c ****                                   &crt->sig_opts ) ) != 0 )
 929:/home/xingli/share/LiteOS_Lab/network/dtls/mbedtls/mbedtls-2.16.2/library/x509_crt.c ****     {
 930:/home/xingli/share/LiteOS_Lab/network/dtls/mbedtls/mbedtls-2.16.2/library/x509_crt.c ****         mbedtls_x509_crt_free( crt );
 2516              		.loc 2 930 9
 2517 03ba 488B8568 		movq	-152(%rbp), %rax
 2517      FFFFFF
 2518 03c1 4889C7   		movq	%rax, %rdi
 2519 03c4 E8000000 		call	mbedtls_x509_crt_free
 2519      00
 931:/home/xingli/share/LiteOS_Lab/network/dtls/mbedtls/mbedtls-2.16.2/library/x509_crt.c ****         return( ret );
 2520              		.loc 2 931 15
 2521 03c9 8B857CFF 		movl	-132(%rbp), %eax
 2521      FFFF
 2522 03cf E9C70400 		jmp	.L204
 2522      00
 2523              	.L186:
 932:/home/xingli/share/LiteOS_Lab/network/dtls/mbedtls/mbedtls-2.16.2/library/x509_crt.c ****     }
 933:/home/xingli/share/LiteOS_Lab/network/dtls/mbedtls/mbedtls-2.16.2/library/x509_crt.c **** 
 934:/home/xingli/share/LiteOS_Lab/network/dtls/mbedtls/mbedtls-2.16.2/library/x509_crt.c ****     /*
 935:/home/xingli/share/LiteOS_Lab/network/dtls/mbedtls/mbedtls-2.16.2/library/x509_crt.c ****      * issuer               Name
 936:/home/xingli/share/LiteOS_Lab/network/dtls/mbedtls/mbedtls-2.16.2/library/x509_crt.c ****      */
 937:/home/xingli/share/LiteOS_Lab/network/dtls/mbedtls/mbedtls-2.16.2/library/x509_crt.c ****     crt->issuer_raw.p = p;
 2524              		.loc 2 937 23
 2525 03d4 488B5588 		movq	-120(%rbp), %rdx
 2526 03d8 488B8568 		movq	-152(%rbp), %rax
 2526      FFFFFF
 2527 03df 48895078 		movq	%rdx, 120(%rax)
 938:/home/xingli/share/LiteOS_Lab/network/dtls/mbedtls/mbedtls-2.16.2/library/x509_crt.c **** 
 939:/home/xingli/share/LiteOS_Lab/network/dtls/mbedtls/mbedtls-2.16.2/library/x509_crt.c ****     if( ( ret = mbedtls_asn1_get_tag( &p, end, &len,
 2528              		.loc 2 939 17
 2529 03e3 488D5580 		leaq	-128(%rbp), %rdx
 2530 03e7 488B7590 		movq	-112(%rbp), %rsi
 2531 03eb 488D4588 		leaq	-120(%rbp), %rax
 2532 03ef B9300000 		movl	$48, %ecx
 2532      00
 2533 03f4 4889C7   		movq	%rax, %rdi
GAS LISTING /tmp/ccnlqVtp.s 			page 72


 2534 03f7 E8000000 		call	mbedtls_asn1_get_tag@PLT
 2534      00
 2535 03fc 89857CFF 		movl	%eax, -132(%rbp)
 2535      FFFF
 2536              		.loc 2 939 7
 2537 0402 83BD7CFF 		cmpl	$0, -132(%rbp)
 2537      FFFF00
 2538 0409 741F     		je	.L187
 940:/home/xingli/share/LiteOS_Lab/network/dtls/mbedtls/mbedtls-2.16.2/library/x509_crt.c ****             MBEDTLS_ASN1_CONSTRUCTED | MBEDTLS_ASN1_SEQUENCE ) ) != 0 )
 941:/home/xingli/share/LiteOS_Lab/network/dtls/mbedtls/mbedtls-2.16.2/library/x509_crt.c ****     {
 942:/home/xingli/share/LiteOS_Lab/network/dtls/mbedtls/mbedtls-2.16.2/library/x509_crt.c ****         mbedtls_x509_crt_free( crt );
 2539              		.loc 2 942 9
 2540 040b 488B8568 		movq	-152(%rbp), %rax
 2540      FFFFFF
 2541 0412 4889C7   		movq	%rax, %rdi
 2542 0415 E8000000 		call	mbedtls_x509_crt_free
 2542      00
 943:/home/xingli/share/LiteOS_Lab/network/dtls/mbedtls/mbedtls-2.16.2/library/x509_crt.c ****         return( MBEDTLS_ERR_X509_INVALID_FORMAT + ret );
 2543              		.loc 2 943 49
 2544 041a 8B857CFF 		movl	-132(%rbp), %eax
 2544      FFFF
 2545 0420 2D802100 		subl	$8576, %eax
 2545      00
 2546 0425 E9710400 		jmp	.L204
 2546      00
 2547              	.L187:
 944:/home/xingli/share/LiteOS_Lab/network/dtls/mbedtls/mbedtls-2.16.2/library/x509_crt.c ****     }
 945:/home/xingli/share/LiteOS_Lab/network/dtls/mbedtls/mbedtls-2.16.2/library/x509_crt.c **** 
 946:/home/xingli/share/LiteOS_Lab/network/dtls/mbedtls/mbedtls-2.16.2/library/x509_crt.c ****     if( ( ret = mbedtls_x509_get_name( &p, p + len, &crt->issuer ) ) != 0 )
 2548              		.loc 2 946 17
 2549 042a 488B8568 		movq	-152(%rbp), %rax
 2549      FFFFFF
 2550 0431 488D9098 		leaq	152(%rax), %rdx
 2550      000000
 2551 0438 488B4D88 		movq	-120(%rbp), %rcx
 2552 043c 488B4580 		movq	-128(%rbp), %rax
 2553              		.loc 2 946 46
 2554 0440 4801C1   		addq	%rax, %rcx
 2555              		.loc 2 946 17
 2556 0443 488D4588 		leaq	-120(%rbp), %rax
 2557 0447 4889CE   		movq	%rcx, %rsi
 2558 044a 4889C7   		movq	%rax, %rdi
 2559 044d E8000000 		call	mbedtls_x509_get_name@PLT
 2559      00
 2560 0452 89857CFF 		movl	%eax, -132(%rbp)
 2560      FFFF
 2561              		.loc 2 946 7
 2562 0458 83BD7CFF 		cmpl	$0, -132(%rbp)
 2562      FFFF00
 2563 045f 741A     		je	.L188
 947:/home/xingli/share/LiteOS_Lab/network/dtls/mbedtls/mbedtls-2.16.2/library/x509_crt.c ****     {
 948:/home/xingli/share/LiteOS_Lab/network/dtls/mbedtls/mbedtls-2.16.2/library/x509_crt.c ****         mbedtls_x509_crt_free( crt );
 2564              		.loc 2 948 9
 2565 0461 488B8568 		movq	-152(%rbp), %rax
 2565      FFFFFF
 2566 0468 4889C7   		movq	%rax, %rdi
 2567 046b E8000000 		call	mbedtls_x509_crt_free
GAS LISTING /tmp/ccnlqVtp.s 			page 73


 2567      00
 949:/home/xingli/share/LiteOS_Lab/network/dtls/mbedtls/mbedtls-2.16.2/library/x509_crt.c ****         return( ret );
 2568              		.loc 2 949 15
 2569 0470 8B857CFF 		movl	-132(%rbp), %eax
 2569      FFFF
 2570 0476 E9200400 		jmp	.L204
 2570      00
 2571              	.L188:
 950:/home/xingli/share/LiteOS_Lab/network/dtls/mbedtls/mbedtls-2.16.2/library/x509_crt.c ****     }
 951:/home/xingli/share/LiteOS_Lab/network/dtls/mbedtls/mbedtls-2.16.2/library/x509_crt.c **** 
 952:/home/xingli/share/LiteOS_Lab/network/dtls/mbedtls/mbedtls-2.16.2/library/x509_crt.c ****     crt->issuer_raw.len = p - crt->issuer_raw.p;
 2572              		.loc 2 952 29
 2573 047b 488B5588 		movq	-120(%rbp), %rdx
 2574              		.loc 2 952 46
 2575 047f 488B8568 		movq	-152(%rbp), %rax
 2575      FFFFFF
 2576 0486 488B4078 		movq	120(%rax), %rax
 2577              		.loc 2 952 29
 2578 048a 4829C2   		subq	%rax, %rdx
 2579 048d 4889D0   		movq	%rdx, %rax
 2580 0490 4889C2   		movq	%rax, %rdx
 2581              		.loc 2 952 25
 2582 0493 488B8568 		movq	-152(%rbp), %rax
 2582      FFFFFF
 2583 049a 48895070 		movq	%rdx, 112(%rax)
 953:/home/xingli/share/LiteOS_Lab/network/dtls/mbedtls/mbedtls-2.16.2/library/x509_crt.c **** 
 954:/home/xingli/share/LiteOS_Lab/network/dtls/mbedtls/mbedtls-2.16.2/library/x509_crt.c ****     /*
 955:/home/xingli/share/LiteOS_Lab/network/dtls/mbedtls/mbedtls-2.16.2/library/x509_crt.c ****      * Validity ::= SEQUENCE {
 956:/home/xingli/share/LiteOS_Lab/network/dtls/mbedtls/mbedtls-2.16.2/library/x509_crt.c ****      *      notBefore      Time,
 957:/home/xingli/share/LiteOS_Lab/network/dtls/mbedtls/mbedtls-2.16.2/library/x509_crt.c ****      *      notAfter       Time }
 958:/home/xingli/share/LiteOS_Lab/network/dtls/mbedtls/mbedtls-2.16.2/library/x509_crt.c ****      *
 959:/home/xingli/share/LiteOS_Lab/network/dtls/mbedtls/mbedtls-2.16.2/library/x509_crt.c ****      */
 960:/home/xingli/share/LiteOS_Lab/network/dtls/mbedtls/mbedtls-2.16.2/library/x509_crt.c ****     if( ( ret = x509_get_dates( &p, end, &crt->valid_from,
 2584              		.loc 2 960 17
 2585 049e 488B8568 		movq	-152(%rbp), %rax
 2585      FFFFFF
 2586 04a5 488D8830 		leaq	304(%rax), %rcx
 2586      010000
 2587 04ac 488B8568 		movq	-152(%rbp), %rax
 2587      FFFFFF
 2588 04b3 488D9018 		leaq	280(%rax), %rdx
 2588      010000
 2589 04ba 488B7590 		movq	-112(%rbp), %rsi
