GAS LISTING /tmp/ccQRyzdw.s 			page 1


   1              		.file	"x509_crl.c"
   2              		.text
   3              	.Ltext0:
   4              		.section	.text.x509_crl_get_version,"ax",@progbits
   6              	x509_crl_get_version:
   7              	.LFB16:
   8              		.file 1 "/home/xingli/share/LiteOS_Lab/network/dtls/mbedtls/mbedtls-2.16.2/library/x509_crl.c"
   1:/home/xingli/share/LiteOS_Lab/network/dtls/mbedtls/mbedtls-2.16.2/library/x509_crl.c **** /*
   2:/home/xingli/share/LiteOS_Lab/network/dtls/mbedtls/mbedtls-2.16.2/library/x509_crl.c ****  *  X.509 Certidicate Revocation List (CRL) parsing
   3:/home/xingli/share/LiteOS_Lab/network/dtls/mbedtls/mbedtls-2.16.2/library/x509_crl.c ****  *
   4:/home/xingli/share/LiteOS_Lab/network/dtls/mbedtls/mbedtls-2.16.2/library/x509_crl.c ****  *  Copyright (C) 2006-2015, ARM Limited, All Rights Reserved
   5:/home/xingli/share/LiteOS_Lab/network/dtls/mbedtls/mbedtls-2.16.2/library/x509_crl.c ****  *  SPDX-License-Identifier: Apache-2.0
   6:/home/xingli/share/LiteOS_Lab/network/dtls/mbedtls/mbedtls-2.16.2/library/x509_crl.c ****  *
   7:/home/xingli/share/LiteOS_Lab/network/dtls/mbedtls/mbedtls-2.16.2/library/x509_crl.c ****  *  Licensed under the Apache License, Version 2.0 (the "License"); you may
   8:/home/xingli/share/LiteOS_Lab/network/dtls/mbedtls/mbedtls-2.16.2/library/x509_crl.c ****  *  not use this file except in compliance with the License.
   9:/home/xingli/share/LiteOS_Lab/network/dtls/mbedtls/mbedtls-2.16.2/library/x509_crl.c ****  *  You may obtain a copy of the License at
  10:/home/xingli/share/LiteOS_Lab/network/dtls/mbedtls/mbedtls-2.16.2/library/x509_crl.c ****  *
  11:/home/xingli/share/LiteOS_Lab/network/dtls/mbedtls/mbedtls-2.16.2/library/x509_crl.c ****  *  http://www.apache.org/licenses/LICENSE-2.0
  12:/home/xingli/share/LiteOS_Lab/network/dtls/mbedtls/mbedtls-2.16.2/library/x509_crl.c ****  *
  13:/home/xingli/share/LiteOS_Lab/network/dtls/mbedtls/mbedtls-2.16.2/library/x509_crl.c ****  *  Unless required by applicable law or agreed to in writing, software
  14:/home/xingli/share/LiteOS_Lab/network/dtls/mbedtls/mbedtls-2.16.2/library/x509_crl.c ****  *  distributed under the License is distributed on an "AS IS" BASIS, WITHOUT
  15:/home/xingli/share/LiteOS_Lab/network/dtls/mbedtls/mbedtls-2.16.2/library/x509_crl.c ****  *  WARRANTIES OR CONDITIONS OF ANY KIND, either express or implied.
  16:/home/xingli/share/LiteOS_Lab/network/dtls/mbedtls/mbedtls-2.16.2/library/x509_crl.c ****  *  See the License for the specific language governing permissions and
  17:/home/xingli/share/LiteOS_Lab/network/dtls/mbedtls/mbedtls-2.16.2/library/x509_crl.c ****  *  limitations under the License.
  18:/home/xingli/share/LiteOS_Lab/network/dtls/mbedtls/mbedtls-2.16.2/library/x509_crl.c ****  *
  19:/home/xingli/share/LiteOS_Lab/network/dtls/mbedtls/mbedtls-2.16.2/library/x509_crl.c ****  *  This file is part of mbed TLS (https://tls.mbed.org)
  20:/home/xingli/share/LiteOS_Lab/network/dtls/mbedtls/mbedtls-2.16.2/library/x509_crl.c ****  */
  21:/home/xingli/share/LiteOS_Lab/network/dtls/mbedtls/mbedtls-2.16.2/library/x509_crl.c **** /*
  22:/home/xingli/share/LiteOS_Lab/network/dtls/mbedtls/mbedtls-2.16.2/library/x509_crl.c ****  *  The ITU-T X.509 standard defines a certificate format for PKI.
  23:/home/xingli/share/LiteOS_Lab/network/dtls/mbedtls/mbedtls-2.16.2/library/x509_crl.c ****  *
  24:/home/xingli/share/LiteOS_Lab/network/dtls/mbedtls/mbedtls-2.16.2/library/x509_crl.c ****  *  http://www.ietf.org/rfc/rfc5280.txt (Certificates and CRLs)
  25:/home/xingli/share/LiteOS_Lab/network/dtls/mbedtls/mbedtls-2.16.2/library/x509_crl.c ****  *  http://www.ietf.org/rfc/rfc3279.txt (Alg IDs for CRLs)
  26:/home/xingli/share/LiteOS_Lab/network/dtls/mbedtls/mbedtls-2.16.2/library/x509_crl.c ****  *  http://www.ietf.org/rfc/rfc2986.txt (CSRs, aka PKCS#10)
  27:/home/xingli/share/LiteOS_Lab/network/dtls/mbedtls/mbedtls-2.16.2/library/x509_crl.c ****  *
  28:/home/xingli/share/LiteOS_Lab/network/dtls/mbedtls/mbedtls-2.16.2/library/x509_crl.c ****  *  http://www.itu.int/ITU-T/studygroups/com17/languages/X.680-0207.pdf
  29:/home/xingli/share/LiteOS_Lab/network/dtls/mbedtls/mbedtls-2.16.2/library/x509_crl.c ****  *  http://www.itu.int/ITU-T/studygroups/com17/languages/X.690-0207.pdf
  30:/home/xingli/share/LiteOS_Lab/network/dtls/mbedtls/mbedtls-2.16.2/library/x509_crl.c ****  */
  31:/home/xingli/share/LiteOS_Lab/network/dtls/mbedtls/mbedtls-2.16.2/library/x509_crl.c **** 
  32:/home/xingli/share/LiteOS_Lab/network/dtls/mbedtls/mbedtls-2.16.2/library/x509_crl.c **** #if !defined(MBEDTLS_CONFIG_FILE)
  33:/home/xingli/share/LiteOS_Lab/network/dtls/mbedtls/mbedtls-2.16.2/library/x509_crl.c **** #include "mbedtls/config.h"
  34:/home/xingli/share/LiteOS_Lab/network/dtls/mbedtls/mbedtls-2.16.2/library/x509_crl.c **** #else
  35:/home/xingli/share/LiteOS_Lab/network/dtls/mbedtls/mbedtls-2.16.2/library/x509_crl.c **** #include MBEDTLS_CONFIG_FILE
  36:/home/xingli/share/LiteOS_Lab/network/dtls/mbedtls/mbedtls-2.16.2/library/x509_crl.c **** #endif
  37:/home/xingli/share/LiteOS_Lab/network/dtls/mbedtls/mbedtls-2.16.2/library/x509_crl.c **** 
  38:/home/xingli/share/LiteOS_Lab/network/dtls/mbedtls/mbedtls-2.16.2/library/x509_crl.c **** #if defined(MBEDTLS_X509_CRL_PARSE_C)
  39:/home/xingli/share/LiteOS_Lab/network/dtls/mbedtls/mbedtls-2.16.2/library/x509_crl.c **** 
  40:/home/xingli/share/LiteOS_Lab/network/dtls/mbedtls/mbedtls-2.16.2/library/x509_crl.c **** #include "mbedtls/x509_crl.h"
  41:/home/xingli/share/LiteOS_Lab/network/dtls/mbedtls/mbedtls-2.16.2/library/x509_crl.c **** #include "mbedtls/oid.h"
  42:/home/xingli/share/LiteOS_Lab/network/dtls/mbedtls/mbedtls-2.16.2/library/x509_crl.c **** #include "mbedtls/platform_util.h"
  43:/home/xingli/share/LiteOS_Lab/network/dtls/mbedtls/mbedtls-2.16.2/library/x509_crl.c **** 
  44:/home/xingli/share/LiteOS_Lab/network/dtls/mbedtls/mbedtls-2.16.2/library/x509_crl.c **** #include <string.h>
  45:/home/xingli/share/LiteOS_Lab/network/dtls/mbedtls/mbedtls-2.16.2/library/x509_crl.c **** 
  46:/home/xingli/share/LiteOS_Lab/network/dtls/mbedtls/mbedtls-2.16.2/library/x509_crl.c **** #if defined(MBEDTLS_PEM_PARSE_C)
  47:/home/xingli/share/LiteOS_Lab/network/dtls/mbedtls/mbedtls-2.16.2/library/x509_crl.c **** #include "mbedtls/pem.h"
  48:/home/xingli/share/LiteOS_Lab/network/dtls/mbedtls/mbedtls-2.16.2/library/x509_crl.c **** #endif
  49:/home/xingli/share/LiteOS_Lab/network/dtls/mbedtls/mbedtls-2.16.2/library/x509_crl.c **** 
  50:/home/xingli/share/LiteOS_Lab/network/dtls/mbedtls/mbedtls-2.16.2/library/x509_crl.c **** #if defined(MBEDTLS_PLATFORM_C)
GAS LISTING /tmp/ccQRyzdw.s 			page 2


  51:/home/xingli/share/LiteOS_Lab/network/dtls/mbedtls/mbedtls-2.16.2/library/x509_crl.c **** #include "mbedtls/platform.h"
  52:/home/xingli/share/LiteOS_Lab/network/dtls/mbedtls/mbedtls-2.16.2/library/x509_crl.c **** #else
  53:/home/xingli/share/LiteOS_Lab/network/dtls/mbedtls/mbedtls-2.16.2/library/x509_crl.c **** #include <stdlib.h>
  54:/home/xingli/share/LiteOS_Lab/network/dtls/mbedtls/mbedtls-2.16.2/library/x509_crl.c **** #include <stdio.h>
  55:/home/xingli/share/LiteOS_Lab/network/dtls/mbedtls/mbedtls-2.16.2/library/x509_crl.c **** #define mbedtls_free       free
  56:/home/xingli/share/LiteOS_Lab/network/dtls/mbedtls/mbedtls-2.16.2/library/x509_crl.c **** #define mbedtls_calloc    calloc
  57:/home/xingli/share/LiteOS_Lab/network/dtls/mbedtls/mbedtls-2.16.2/library/x509_crl.c **** #define mbedtls_snprintf   snprintf
  58:/home/xingli/share/LiteOS_Lab/network/dtls/mbedtls/mbedtls-2.16.2/library/x509_crl.c **** #endif
  59:/home/xingli/share/LiteOS_Lab/network/dtls/mbedtls/mbedtls-2.16.2/library/x509_crl.c **** 
  60:/home/xingli/share/LiteOS_Lab/network/dtls/mbedtls/mbedtls-2.16.2/library/x509_crl.c **** #if defined(_WIN32) && !defined(EFIX64) && !defined(EFI32)
  61:/home/xingli/share/LiteOS_Lab/network/dtls/mbedtls/mbedtls-2.16.2/library/x509_crl.c **** #include <windows.h>
  62:/home/xingli/share/LiteOS_Lab/network/dtls/mbedtls/mbedtls-2.16.2/library/x509_crl.c **** #else
  63:/home/xingli/share/LiteOS_Lab/network/dtls/mbedtls/mbedtls-2.16.2/library/x509_crl.c **** #include <time.h>
  64:/home/xingli/share/LiteOS_Lab/network/dtls/mbedtls/mbedtls-2.16.2/library/x509_crl.c **** #endif
  65:/home/xingli/share/LiteOS_Lab/network/dtls/mbedtls/mbedtls-2.16.2/library/x509_crl.c **** 
  66:/home/xingli/share/LiteOS_Lab/network/dtls/mbedtls/mbedtls-2.16.2/library/x509_crl.c **** #if defined(MBEDTLS_FS_IO) || defined(EFIX64) || defined(EFI32)
  67:/home/xingli/share/LiteOS_Lab/network/dtls/mbedtls/mbedtls-2.16.2/library/x509_crl.c **** #include <stdio.h>
  68:/home/xingli/share/LiteOS_Lab/network/dtls/mbedtls/mbedtls-2.16.2/library/x509_crl.c **** #endif
  69:/home/xingli/share/LiteOS_Lab/network/dtls/mbedtls/mbedtls-2.16.2/library/x509_crl.c **** 
  70:/home/xingli/share/LiteOS_Lab/network/dtls/mbedtls/mbedtls-2.16.2/library/x509_crl.c **** /*
  71:/home/xingli/share/LiteOS_Lab/network/dtls/mbedtls/mbedtls-2.16.2/library/x509_crl.c ****  *  Version  ::=  INTEGER  {  v1(0), v2(1)  }
  72:/home/xingli/share/LiteOS_Lab/network/dtls/mbedtls/mbedtls-2.16.2/library/x509_crl.c ****  */
  73:/home/xingli/share/LiteOS_Lab/network/dtls/mbedtls/mbedtls-2.16.2/library/x509_crl.c **** static int x509_crl_get_version( unsigned char **p,
  74:/home/xingli/share/LiteOS_Lab/network/dtls/mbedtls/mbedtls-2.16.2/library/x509_crl.c ****                              const unsigned char *end,
  75:/home/xingli/share/LiteOS_Lab/network/dtls/mbedtls/mbedtls-2.16.2/library/x509_crl.c ****                              int *ver )
  76:/home/xingli/share/LiteOS_Lab/network/dtls/mbedtls/mbedtls-2.16.2/library/x509_crl.c **** {
   9              		.loc 1 76 1
  10              		.cfi_startproc
  11 0000 F30F1EFA 		endbr64
  12 0004 55       		pushq	%rbp
  13              	.LCFI0:
  14              		.cfi_def_cfa_offset 16
  15              		.cfi_offset 6, -16
  16 0005 4889E5   		movq	%rsp, %rbp
  17              	.LCFI1:
  18              		.cfi_def_cfa_register 6
  19 0008 4883EC30 		subq	$48, %rsp
  20 000c 48897DE8 		movq	%rdi, -24(%rbp)
  21 0010 488975E0 		movq	%rsi, -32(%rbp)
  22 0014 488955D8 		movq	%rdx, -40(%rbp)
  23              		.loc 1 76 1
  24 0018 64488B04 		movq	%fs:40, %rax
  24      25280000 
  24      00
  25 0021 488945F8 		movq	%rax, -8(%rbp)
  26 0025 31C0     		xorl	%eax, %eax
  77:/home/xingli/share/LiteOS_Lab/network/dtls/mbedtls/mbedtls-2.16.2/library/x509_crl.c ****     int ret;
  78:/home/xingli/share/LiteOS_Lab/network/dtls/mbedtls/mbedtls-2.16.2/library/x509_crl.c **** 
  79:/home/xingli/share/LiteOS_Lab/network/dtls/mbedtls/mbedtls-2.16.2/library/x509_crl.c ****     if( ( ret = mbedtls_asn1_get_int( p, end, ver ) ) != 0 )
  27              		.loc 1 79 17
  28 0027 488B55D8 		movq	-40(%rbp), %rdx
  29 002b 488B4DE0 		movq	-32(%rbp), %rcx
  30 002f 488B45E8 		movq	-24(%rbp), %rax
  31 0033 4889CE   		movq	%rcx, %rsi
  32 0036 4889C7   		movq	%rax, %rdi
  33 0039 E8000000 		call	mbedtls_asn1_get_int@PLT
  33      00
GAS LISTING /tmp/ccQRyzdw.s 			page 3


  34 003e 8945F4   		movl	%eax, -12(%rbp)
  35              		.loc 1 79 7
  36 0041 837DF400 		cmpl	$0, -12(%rbp)
  37 0045 7421     		je	.L2
  80:/home/xingli/share/LiteOS_Lab/network/dtls/mbedtls/mbedtls-2.16.2/library/x509_crl.c ****     {
  81:/home/xingli/share/LiteOS_Lab/network/dtls/mbedtls/mbedtls-2.16.2/library/x509_crl.c ****         if( ret == MBEDTLS_ERR_ASN1_UNEXPECTED_TAG )
  38              		.loc 1 81 11
  39 0047 837DF49E 		cmpl	$-98, -12(%rbp)
  40 004b 7511     		jne	.L3
  82:/home/xingli/share/LiteOS_Lab/network/dtls/mbedtls/mbedtls-2.16.2/library/x509_crl.c ****         {
  83:/home/xingli/share/LiteOS_Lab/network/dtls/mbedtls/mbedtls-2.16.2/library/x509_crl.c ****             *ver = 0;
  41              		.loc 1 83 18
  42 004d 488B45D8 		movq	-40(%rbp), %rax
  43 0051 C7000000 		movl	$0, (%rax)
  43      0000
  84:/home/xingli/share/LiteOS_Lab/network/dtls/mbedtls/mbedtls-2.16.2/library/x509_crl.c ****             return( 0 );
  44              		.loc 1 84 19
  45 0057 B8000000 		movl	$0, %eax
  45      00
  46 005c EB0F     		jmp	.L4
  47              	.L3:
  85:/home/xingli/share/LiteOS_Lab/network/dtls/mbedtls/mbedtls-2.16.2/library/x509_crl.c ****         }
  86:/home/xingli/share/LiteOS_Lab/network/dtls/mbedtls/mbedtls-2.16.2/library/x509_crl.c **** 
  87:/home/xingli/share/LiteOS_Lab/network/dtls/mbedtls/mbedtls-2.16.2/library/x509_crl.c ****         return( MBEDTLS_ERR_X509_INVALID_VERSION + ret );
  48              		.loc 1 87 50
  49 005e 8B45F4   		movl	-12(%rbp), %eax
  50 0061 2D002200 		subl	$8704, %eax
  50      00
  51 0066 EB05     		jmp	.L4
  52              	.L2:
  88:/home/xingli/share/LiteOS_Lab/network/dtls/mbedtls/mbedtls-2.16.2/library/x509_crl.c ****     }
  89:/home/xingli/share/LiteOS_Lab/network/dtls/mbedtls/mbedtls-2.16.2/library/x509_crl.c **** 
  90:/home/xingli/share/LiteOS_Lab/network/dtls/mbedtls/mbedtls-2.16.2/library/x509_crl.c ****     return( 0 );
  53              		.loc 1 90 11
  54 0068 B8000000 		movl	$0, %eax
  54      00
  55              	.L4:
  91:/home/xingli/share/LiteOS_Lab/network/dtls/mbedtls/mbedtls-2.16.2/library/x509_crl.c **** }
  56              		.loc 1 91 1
  57 006d 488B4DF8 		movq	-8(%rbp), %rcx
  58 0071 6448330C 		xorq	%fs:40, %rcx
  58      25280000 
  58      00
  59 007a 7405     		je	.L5
  60 007c E8000000 		call	__stack_chk_fail@PLT
  60      00
  61              	.L5:
  62 0081 C9       		leave
  63              	.LCFI2:
  64              		.cfi_def_cfa 7, 8
  65 0082 C3       		ret
  66              		.cfi_endproc
  67              	.LFE16:
  69              		.section	.text.x509_get_crl_ext,"ax",@progbits
  71              	x509_get_crl_ext:
  72              	.LFB17:
  92:/home/xingli/share/LiteOS_Lab/network/dtls/mbedtls/mbedtls-2.16.2/library/x509_crl.c **** 
GAS LISTING /tmp/ccQRyzdw.s 			page 4


  93:/home/xingli/share/LiteOS_Lab/network/dtls/mbedtls/mbedtls-2.16.2/library/x509_crl.c **** /*
  94:/home/xingli/share/LiteOS_Lab/network/dtls/mbedtls/mbedtls-2.16.2/library/x509_crl.c ****  * X.509 CRL v2 extensions
  95:/home/xingli/share/LiteOS_Lab/network/dtls/mbedtls/mbedtls-2.16.2/library/x509_crl.c ****  *
  96:/home/xingli/share/LiteOS_Lab/network/dtls/mbedtls/mbedtls-2.16.2/library/x509_crl.c ****  * We currently don't parse any extension's content, but we do check that the
  97:/home/xingli/share/LiteOS_Lab/network/dtls/mbedtls/mbedtls-2.16.2/library/x509_crl.c ****  * list of extensions is well-formed and abort on critical extensions (that
  98:/home/xingli/share/LiteOS_Lab/network/dtls/mbedtls/mbedtls-2.16.2/library/x509_crl.c ****  * are unsupported as we don't support any extension so far)
  99:/home/xingli/share/LiteOS_Lab/network/dtls/mbedtls/mbedtls-2.16.2/library/x509_crl.c ****  */
 100:/home/xingli/share/LiteOS_Lab/network/dtls/mbedtls/mbedtls-2.16.2/library/x509_crl.c **** static int x509_get_crl_ext( unsigned char **p,
 101:/home/xingli/share/LiteOS_Lab/network/dtls/mbedtls/mbedtls-2.16.2/library/x509_crl.c ****                              const unsigned char *end,
 102:/home/xingli/share/LiteOS_Lab/network/dtls/mbedtls/mbedtls-2.16.2/library/x509_crl.c ****                              mbedtls_x509_buf *ext )
 103:/home/xingli/share/LiteOS_Lab/network/dtls/mbedtls/mbedtls-2.16.2/library/x509_crl.c **** {
  73              		.loc 1 103 1
  74              		.cfi_startproc
  75 0000 F30F1EFA 		endbr64
  76 0004 55       		pushq	%rbp
  77              	.LCFI3:
  78              		.cfi_def_cfa_offset 16
  79              		.cfi_offset 6, -16
  80 0005 4889E5   		movq	%rsp, %rbp
  81              	.LCFI4:
  82              		.cfi_def_cfa_register 6
  83 0008 4883EC40 		subq	$64, %rsp
  84 000c 48897DD8 		movq	%rdi, -40(%rbp)
  85 0010 488975D0 		movq	%rsi, -48(%rbp)
  86 0014 488955C8 		movq	%rdx, -56(%rbp)
  87              		.loc 1 103 1
  88 0018 64488B04 		movq	%fs:40, %rax
  88      25280000 
  88      00
  89 0021 488945F8 		movq	%rax, -8(%rbp)
  90 0025 31C0     		xorl	%eax, %eax
 104:/home/xingli/share/LiteOS_Lab/network/dtls/mbedtls/mbedtls-2.16.2/library/x509_crl.c ****     int ret;
 105:/home/xingli/share/LiteOS_Lab/network/dtls/mbedtls/mbedtls-2.16.2/library/x509_crl.c **** 
 106:/home/xingli/share/LiteOS_Lab/network/dtls/mbedtls/mbedtls-2.16.2/library/x509_crl.c ****     if( *p == end )
  91              		.loc 1 106 9
  92 0027 488B45D8 		movq	-40(%rbp), %rax
  93 002b 488B00   		movq	(%rax), %rax
  94              		.loc 1 106 7
  95 002e 483945D0 		cmpq	%rax, -48(%rbp)
  96 0032 750A     		jne	.L7
 107:/home/xingli/share/LiteOS_Lab/network/dtls/mbedtls/mbedtls-2.16.2/library/x509_crl.c ****         return( 0 );
  97              		.loc 1 107 15
  98 0034 B8000000 		movl	$0, %eax
  98      00
  99 0039 E9920100 		jmp	.L8
  99      00
 100              	.L7:
 108:/home/xingli/share/LiteOS_Lab/network/dtls/mbedtls/mbedtls-2.16.2/library/x509_crl.c **** 
 109:/home/xingli/share/LiteOS_Lab/network/dtls/mbedtls/mbedtls-2.16.2/library/x509_crl.c ****     /*
 110:/home/xingli/share/LiteOS_Lab/network/dtls/mbedtls/mbedtls-2.16.2/library/x509_crl.c ****      * crlExtensions           [0]  EXPLICIT Extensions OPTIONAL
 111:/home/xingli/share/LiteOS_Lab/network/dtls/mbedtls/mbedtls-2.16.2/library/x509_crl.c ****      *                              -- if present, version MUST be v2
 112:/home/xingli/share/LiteOS_Lab/network/dtls/mbedtls/mbedtls-2.16.2/library/x509_crl.c ****      */
 113:/home/xingli/share/LiteOS_Lab/network/dtls/mbedtls/mbedtls-2.16.2/library/x509_crl.c ****     if( ( ret = mbedtls_x509_get_ext( p, end, ext, 0 ) ) != 0 )
 101              		.loc 1 113 17
 102 003e 488B55C8 		movq	-56(%rbp), %rdx
 103 0042 488B75D0 		movq	-48(%rbp), %rsi
 104 0046 488B45D8 		movq	-40(%rbp), %rax
GAS LISTING /tmp/ccQRyzdw.s 			page 5


 105 004a B9000000 		movl	$0, %ecx
 105      00
 106 004f 4889C7   		movq	%rax, %rdi
 107 0052 E8000000 		call	mbedtls_x509_get_ext@PLT
 107      00
 108 0057 8945E4   		movl	%eax, -28(%rbp)
 109              		.loc 1 113 7
 110 005a 837DE400 		cmpl	$0, -28(%rbp)
 111 005e 7408     		je	.L9
 114:/home/xingli/share/LiteOS_Lab/network/dtls/mbedtls/mbedtls-2.16.2/library/x509_crl.c ****         return( ret );
 112              		.loc 1 114 15
 113 0060 8B45E4   		movl	-28(%rbp), %eax
 114 0063 E9680100 		jmp	.L8
 114      00
 115              	.L9:
 115:/home/xingli/share/LiteOS_Lab/network/dtls/mbedtls/mbedtls-2.16.2/library/x509_crl.c **** 
 116:/home/xingli/share/LiteOS_Lab/network/dtls/mbedtls/mbedtls-2.16.2/library/x509_crl.c ****     end = ext->p + ext->len;
 116              		.loc 1 116 14
 117 0068 488B45C8 		movq	-56(%rbp), %rax
 118 006c 488B5010 		movq	16(%rax), %rdx
 119              		.loc 1 116 23
 120 0070 488B45C8 		movq	-56(%rbp), %rax
 121 0074 488B4008 		movq	8(%rax), %rax
 122              		.loc 1 116 9
 123 0078 4801D0   		addq	%rdx, %rax
 124 007b 488945D0 		movq	%rax, -48(%rbp)
 117:/home/xingli/share/LiteOS_Lab/network/dtls/mbedtls/mbedtls-2.16.2/library/x509_crl.c **** 
 118:/home/xingli/share/LiteOS_Lab/network/dtls/mbedtls/mbedtls-2.16.2/library/x509_crl.c ****     while( *p < end )
 125              		.loc 1 118 10
 126 007f E9220100 		jmp	.L10
 126      00
 127              	.L18:
 128              	.LBB2:
 119:/home/xingli/share/LiteOS_Lab/network/dtls/mbedtls/mbedtls-2.16.2/library/x509_crl.c ****     {
 120:/home/xingli/share/LiteOS_Lab/network/dtls/mbedtls/mbedtls-2.16.2/library/x509_crl.c ****         /*
 121:/home/xingli/share/LiteOS_Lab/network/dtls/mbedtls/mbedtls-2.16.2/library/x509_crl.c ****          * Extension  ::=  SEQUENCE  {
 122:/home/xingli/share/LiteOS_Lab/network/dtls/mbedtls/mbedtls-2.16.2/library/x509_crl.c ****          *      extnID      OBJECT IDENTIFIER,
 123:/home/xingli/share/LiteOS_Lab/network/dtls/mbedtls/mbedtls-2.16.2/library/x509_crl.c ****          *      critical    BOOLEAN DEFAULT FALSE,
 124:/home/xingli/share/LiteOS_Lab/network/dtls/mbedtls/mbedtls-2.16.2/library/x509_crl.c ****          *      extnValue   OCTET STRING  }
 125:/home/xingli/share/LiteOS_Lab/network/dtls/mbedtls/mbedtls-2.16.2/library/x509_crl.c ****          */
 126:/home/xingli/share/LiteOS_Lab/network/dtls/mbedtls/mbedtls-2.16.2/library/x509_crl.c ****         int is_critical = 0;
 129              		.loc 1 126 13
 130 0084 C745E000 		movl	$0, -32(%rbp)
 130      000000
 127:/home/xingli/share/LiteOS_Lab/network/dtls/mbedtls/mbedtls-2.16.2/library/x509_crl.c ****         const unsigned char *end_ext_data;
 128:/home/xingli/share/LiteOS_Lab/network/dtls/mbedtls/mbedtls-2.16.2/library/x509_crl.c ****         size_t len;
 129:/home/xingli/share/LiteOS_Lab/network/dtls/mbedtls/mbedtls-2.16.2/library/x509_crl.c **** 
 130:/home/xingli/share/LiteOS_Lab/network/dtls/mbedtls/mbedtls-2.16.2/library/x509_crl.c ****         /* Get enclosing sequence tag */
 131:/home/xingli/share/LiteOS_Lab/network/dtls/mbedtls/mbedtls-2.16.2/library/x509_crl.c ****         if( ( ret = mbedtls_asn1_get_tag( p, end, &len,
 131              		.loc 1 131 21
 132 008b 488D55E8 		leaq	-24(%rbp), %rdx
 133 008f 488B75D0 		movq	-48(%rbp), %rsi
 134 0093 488B45D8 		movq	-40(%rbp), %rax
 135 0097 B9300000 		movl	$48, %ecx
 135      00
 136 009c 4889C7   		movq	%rax, %rdi
 137 009f E8000000 		call	mbedtls_asn1_get_tag@PLT
GAS LISTING /tmp/ccQRyzdw.s 			page 6


 137      00
 138 00a4 8945E4   		movl	%eax, -28(%rbp)
 139              		.loc 1 131 11
 140 00a7 837DE400 		cmpl	$0, -28(%rbp)
 141 00ab 740D     		je	.L11
 132:/home/xingli/share/LiteOS_Lab/network/dtls/mbedtls/mbedtls-2.16.2/library/x509_crl.c ****                 MBEDTLS_ASN1_CONSTRUCTED | MBEDTLS_ASN1_SEQUENCE ) ) != 0 )
 133:/home/xingli/share/LiteOS_Lab/network/dtls/mbedtls/mbedtls-2.16.2/library/x509_crl.c ****             return( MBEDTLS_ERR_X509_INVALID_EXTENSIONS + ret );
 142              		.loc 1 133 57
 143 00ad 8B45E4   		movl	-28(%rbp), %eax
 144 00b0 2D002500 		subl	$9472, %eax
 144      00
 145 00b5 E9160100 		jmp	.L8
 145      00
 146              	.L11:
 134:/home/xingli/share/LiteOS_Lab/network/dtls/mbedtls/mbedtls-2.16.2/library/x509_crl.c **** 
 135:/home/xingli/share/LiteOS_Lab/network/dtls/mbedtls/mbedtls-2.16.2/library/x509_crl.c ****         end_ext_data = *p + len;
 147              		.loc 1 135 24
 148 00ba 488B45D8 		movq	-40(%rbp), %rax
 149 00be 488B10   		movq	(%rax), %rdx
 150              		.loc 1 135 27
 151 00c1 488B45E8 		movq	-24(%rbp), %rax
 152              		.loc 1 135 22
 153 00c5 4801D0   		addq	%rdx, %rax
 154 00c8 488945F0 		movq	%rax, -16(%rbp)
 136:/home/xingli/share/LiteOS_Lab/network/dtls/mbedtls/mbedtls-2.16.2/library/x509_crl.c **** 
 137:/home/xingli/share/LiteOS_Lab/network/dtls/mbedtls/mbedtls-2.16.2/library/x509_crl.c ****         /* Get OID (currently ignored) */
 138:/home/xingli/share/LiteOS_Lab/network/dtls/mbedtls/mbedtls-2.16.2/library/x509_crl.c ****         if( ( ret = mbedtls_asn1_get_tag( p, end_ext_data, &len,
 155              		.loc 1 138 21
 156 00cc 488D55E8 		leaq	-24(%rbp), %rdx
 157 00d0 488B75F0 		movq	-16(%rbp), %rsi
 158 00d4 488B45D8 		movq	-40(%rbp), %rax
 159 00d8 B9060000 		movl	$6, %ecx
 159      00
 160 00dd 4889C7   		movq	%rax, %rdi
 161 00e0 E8000000 		call	mbedtls_asn1_get_tag@PLT
 161      00
 162 00e5 8945E4   		movl	%eax, -28(%rbp)
 163              		.loc 1 138 11
 164 00e8 837DE400 		cmpl	$0, -28(%rbp)
 165 00ec 740D     		je	.L13
 139:/home/xingli/share/LiteOS_Lab/network/dtls/mbedtls/mbedtls-2.16.2/library/x509_crl.c ****                                           MBEDTLS_ASN1_OID ) ) != 0 )
 140:/home/xingli/share/LiteOS_Lab/network/dtls/mbedtls/mbedtls-2.16.2/library/x509_crl.c ****         {
 141:/home/xingli/share/LiteOS_Lab/network/dtls/mbedtls/mbedtls-2.16.2/library/x509_crl.c ****             return( MBEDTLS_ERR_X509_INVALID_EXTENSIONS + ret );
 166              		.loc 1 141 57
 167 00ee 8B45E4   		movl	-28(%rbp), %eax
 168 00f1 2D002500 		subl	$9472, %eax
 168      00
 169 00f6 E9D50000 		jmp	.L8
 169      00
 170              	.L13:
 142:/home/xingli/share/LiteOS_Lab/network/dtls/mbedtls/mbedtls-2.16.2/library/x509_crl.c ****         }
 143:/home/xingli/share/LiteOS_Lab/network/dtls/mbedtls/mbedtls-2.16.2/library/x509_crl.c ****         *p += len;
 171              		.loc 1 143 12
 172 00fb 488B45D8 		movq	-40(%rbp), %rax
 173 00ff 488B10   		movq	(%rax), %rdx
 174 0102 488B45E8 		movq	-24(%rbp), %rax
 175 0106 4801C2   		addq	%rax, %rdx
GAS LISTING /tmp/ccQRyzdw.s 			page 7


 176 0109 488B45D8 		movq	-40(%rbp), %rax
 177 010d 488910   		movq	%rdx, (%rax)
 144:/home/xingli/share/LiteOS_Lab/network/dtls/mbedtls/mbedtls-2.16.2/library/x509_crl.c **** 
 145:/home/xingli/share/LiteOS_Lab/network/dtls/mbedtls/mbedtls-2.16.2/library/x509_crl.c ****         /* Get optional critical */
 146:/home/xingli/share/LiteOS_Lab/network/dtls/mbedtls/mbedtls-2.16.2/library/x509_crl.c ****         if( ( ret = mbedtls_asn1_get_bool( p, end_ext_data,
 178              		.loc 1 146 21
 179 0110 488D55E0 		leaq	-32(%rbp), %rdx
 180 0114 488B4DF0 		movq	-16(%rbp), %rcx
 181 0118 488B45D8 		movq	-40(%rbp), %rax
 182 011c 4889CE   		movq	%rcx, %rsi
 183 011f 4889C7   		movq	%rax, %rdi
 184 0122 E8000000 		call	mbedtls_asn1_get_bool@PLT
 184      00
 185 0127 8945E4   		movl	%eax, -28(%rbp)
 186              		.loc 1 146 11
 187 012a 837DE400 		cmpl	$0, -28(%rbp)
 188 012e 7413     		je	.L14
 147:/home/xingli/share/LiteOS_Lab/network/dtls/mbedtls/mbedtls-2.16.2/library/x509_crl.c ****                                            &is_critical ) ) != 0 &&
 189              		.loc 1 147 66
 190 0130 837DE49E 		cmpl	$-98, -28(%rbp)
 191 0134 740D     		je	.L14
 148:/home/xingli/share/LiteOS_Lab/network/dtls/mbedtls/mbedtls-2.16.2/library/x509_crl.c ****             ( ret != MBEDTLS_ERR_ASN1_UNEXPECTED_TAG ) )
 149:/home/xingli/share/LiteOS_Lab/network/dtls/mbedtls/mbedtls-2.16.2/library/x509_crl.c ****         {
 150:/home/xingli/share/LiteOS_Lab/network/dtls/mbedtls/mbedtls-2.16.2/library/x509_crl.c ****             return( MBEDTLS_ERR_X509_INVALID_EXTENSIONS + ret );
 192              		.loc 1 150 57
 193 0136 8B45E4   		movl	-28(%rbp), %eax
 194 0139 2D002500 		subl	$9472, %eax
 194      00
 195 013e E98D0000 		jmp	.L8
 195      00
 196              	.L14:
 151:/home/xingli/share/LiteOS_Lab/network/dtls/mbedtls/mbedtls-2.16.2/library/x509_crl.c ****         }
 152:/home/xingli/share/LiteOS_Lab/network/dtls/mbedtls/mbedtls-2.16.2/library/x509_crl.c **** 
 153:/home/xingli/share/LiteOS_Lab/network/dtls/mbedtls/mbedtls-2.16.2/library/x509_crl.c ****         /* Data should be octet string type */
 154:/home/xingli/share/LiteOS_Lab/network/dtls/mbedtls/mbedtls-2.16.2/library/x509_crl.c ****         if( ( ret = mbedtls_asn1_get_tag( p, end_ext_data, &len,
 197              		.loc 1 154 21
 198 0143 488D55E8 		leaq	-24(%rbp), %rdx
 199 0147 488B75F0 		movq	-16(%rbp), %rsi
 200 014b 488B45D8 		movq	-40(%rbp), %rax
 201 014f B9040000 		movl	$4, %ecx
 201      00
 202 0154 4889C7   		movq	%rax, %rdi
 203 0157 E8000000 		call	mbedtls_asn1_get_tag@PLT
 203      00
 204 015c 8945E4   		movl	%eax, -28(%rbp)
 205              		.loc 1 154 11
 206 015f 837DE400 		cmpl	$0, -28(%rbp)
 207 0163 740A     		je	.L15
 155:/home/xingli/share/LiteOS_Lab/network/dtls/mbedtls/mbedtls-2.16.2/library/x509_crl.c ****                 MBEDTLS_ASN1_OCTET_STRING ) ) != 0 )
 156:/home/xingli/share/LiteOS_Lab/network/dtls/mbedtls/mbedtls-2.16.2/library/x509_crl.c ****             return( MBEDTLS_ERR_X509_INVALID_EXTENSIONS + ret );
 208              		.loc 1 156 57
 209 0165 8B45E4   		movl	-28(%rbp), %eax
 210 0168 2D002500 		subl	$9472, %eax
 210      00
 211 016d EB61     		jmp	.L8
 212              	.L15:
 157:/home/xingli/share/LiteOS_Lab/network/dtls/mbedtls/mbedtls-2.16.2/library/x509_crl.c **** 
GAS LISTING /tmp/ccQRyzdw.s 			page 8


 158:/home/xingli/share/LiteOS_Lab/network/dtls/mbedtls/mbedtls-2.16.2/library/x509_crl.c ****         /* Ignore data so far and just check its length */
 159:/home/xingli/share/LiteOS_Lab/network/dtls/mbedtls/mbedtls-2.16.2/library/x509_crl.c ****         *p += len;
 213              		.loc 1 159 12
 214 016f 488B45D8 		movq	-40(%rbp), %rax
 215 0173 488B10   		movq	(%rax), %rdx
 216 0176 488B45E8 		movq	-24(%rbp), %rax
 217 017a 4801C2   		addq	%rax, %rdx
 218 017d 488B45D8 		movq	-40(%rbp), %rax
 219 0181 488910   		movq	%rdx, (%rax)
 160:/home/xingli/share/LiteOS_Lab/network/dtls/mbedtls/mbedtls-2.16.2/library/x509_crl.c ****         if( *p != end_ext_data )
 220              		.loc 1 160 13
 221 0184 488B45D8 		movq	-40(%rbp), %rax
 222 0188 488B00   		movq	(%rax), %rax
 223              		.loc 1 160 11
 224 018b 483945F0 		cmpq	%rax, -16(%rbp)
 225 018f 7407     		je	.L16
 161:/home/xingli/share/LiteOS_Lab/network/dtls/mbedtls/mbedtls-2.16.2/library/x509_crl.c ****             return( MBEDTLS_ERR_X509_INVALID_EXTENSIONS +
 226              		.loc 1 161 19
 227 0191 B89ADAFF 		movl	$-9574, %eax
 227      FF
 228 0196 EB38     		jmp	.L8
 229              	.L16:
 162:/home/xingli/share/LiteOS_Lab/network/dtls/mbedtls/mbedtls-2.16.2/library/x509_crl.c ****                     MBEDTLS_ERR_ASN1_LENGTH_MISMATCH );
 163:/home/xingli/share/LiteOS_Lab/network/dtls/mbedtls/mbedtls-2.16.2/library/x509_crl.c **** 
 164:/home/xingli/share/LiteOS_Lab/network/dtls/mbedtls/mbedtls-2.16.2/library/x509_crl.c ****         /* Abort on (unsupported) critical extensions */
 165:/home/xingli/share/LiteOS_Lab/network/dtls/mbedtls/mbedtls-2.16.2/library/x509_crl.c ****         if( is_critical )
 230              		.loc 1 165 13
 231 0198 8B45E0   		movl	-32(%rbp), %eax
 232              		.loc 1 165 11
 233 019b 85C0     		testl	%eax, %eax
 234 019d 7407     		je	.L10
 166:/home/xingli/share/LiteOS_Lab/network/dtls/mbedtls/mbedtls-2.16.2/library/x509_crl.c ****             return( MBEDTLS_ERR_X509_INVALID_EXTENSIONS +
 235              		.loc 1 166 19
 236 019f B89EDAFF 		movl	$-9570, %eax
 236      FF
 237 01a4 EB2A     		jmp	.L8
 238              	.L10:
 239              	.LBE2:
 118:/home/xingli/share/LiteOS_Lab/network/dtls/mbedtls/mbedtls-2.16.2/library/x509_crl.c ****     {
 240              		.loc 1 118 12
 241 01a6 488B45D8 		movq	-40(%rbp), %rax
 242 01aa 488B00   		movq	(%rax), %rax
 118:/home/xingli/share/LiteOS_Lab/network/dtls/mbedtls/mbedtls-2.16.2/library/x509_crl.c ****     {
 243              		.loc 1 118 10
 244 01ad 483945D0 		cmpq	%rax, -48(%rbp)
 245 01b1 0F87CDFE 		ja	.L18
 245      FFFF
 167:/home/xingli/share/LiteOS_Lab/network/dtls/mbedtls/mbedtls-2.16.2/library/x509_crl.c ****                     MBEDTLS_ERR_ASN1_UNEXPECTED_TAG );
 168:/home/xingli/share/LiteOS_Lab/network/dtls/mbedtls/mbedtls-2.16.2/library/x509_crl.c ****     }
 169:/home/xingli/share/LiteOS_Lab/network/dtls/mbedtls/mbedtls-2.16.2/library/x509_crl.c **** 
 170:/home/xingli/share/LiteOS_Lab/network/dtls/mbedtls/mbedtls-2.16.2/library/x509_crl.c ****     if( *p != end )
 246              		.loc 1 170 9
 247 01b7 488B45D8 		movq	-40(%rbp), %rax
 248 01bb 488B00   		movq	(%rax), %rax
 249              		.loc 1 170 7
 250 01be 483945D0 		cmpq	%rax, -48(%rbp)
 251 01c2 7407     		je	.L19
GAS LISTING /tmp/ccQRyzdw.s 			page 9


 171:/home/xingli/share/LiteOS_Lab/network/dtls/mbedtls/mbedtls-2.16.2/library/x509_crl.c ****         return( MBEDTLS_ERR_X509_INVALID_EXTENSIONS +
 252              		.loc 1 171 15
 253 01c4 B89ADAFF 		movl	$-9574, %eax
 253      FF
 254 01c9 EB05     		jmp	.L8
 255              	.L19:
 172:/home/xingli/share/LiteOS_Lab/network/dtls/mbedtls/mbedtls-2.16.2/library/x509_crl.c ****                 MBEDTLS_ERR_ASN1_LENGTH_MISMATCH );
 173:/home/xingli/share/LiteOS_Lab/network/dtls/mbedtls/mbedtls-2.16.2/library/x509_crl.c **** 
 174:/home/xingli/share/LiteOS_Lab/network/dtls/mbedtls/mbedtls-2.16.2/library/x509_crl.c ****     return( 0 );
 256              		.loc 1 174 11
 257 01cb B8000000 		movl	$0, %eax
 257      00
 258              	.L8:
 175:/home/xingli/share/LiteOS_Lab/network/dtls/mbedtls/mbedtls-2.16.2/library/x509_crl.c **** }
 259              		.loc 1 175 1
 260 01d0 488B4DF8 		movq	-8(%rbp), %rcx
 261 01d4 6448330C 		xorq	%fs:40, %rcx
 261      25280000 
 261      00
 262 01dd 7405     		je	.L20
 263 01df E8000000 		call	__stack_chk_fail@PLT
 263      00
 264              	.L20:
 265 01e4 C9       		leave
 266              	.LCFI5:
 267              		.cfi_def_cfa 7, 8
 268 01e5 C3       		ret
 269              		.cfi_endproc
 270              	.LFE17:
 272              		.section	.text.x509_get_crl_entry_ext,"ax",@progbits
 274              	x509_get_crl_entry_ext:
 275              	.LFB18:
 176:/home/xingli/share/LiteOS_Lab/network/dtls/mbedtls/mbedtls-2.16.2/library/x509_crl.c **** 
 177:/home/xingli/share/LiteOS_Lab/network/dtls/mbedtls/mbedtls-2.16.2/library/x509_crl.c **** /*
 178:/home/xingli/share/LiteOS_Lab/network/dtls/mbedtls/mbedtls-2.16.2/library/x509_crl.c ****  * X.509 CRL v2 entry extensions (no extensions parsed yet.)
 179:/home/xingli/share/LiteOS_Lab/network/dtls/mbedtls/mbedtls-2.16.2/library/x509_crl.c ****  */
 180:/home/xingli/share/LiteOS_Lab/network/dtls/mbedtls/mbedtls-2.16.2/library/x509_crl.c **** static int x509_get_crl_entry_ext( unsigned char **p,
 181:/home/xingli/share/LiteOS_Lab/network/dtls/mbedtls/mbedtls-2.16.2/library/x509_crl.c ****                              const unsigned char *end,
 182:/home/xingli/share/LiteOS_Lab/network/dtls/mbedtls/mbedtls-2.16.2/library/x509_crl.c ****                              mbedtls_x509_buf *ext )
 183:/home/xingli/share/LiteOS_Lab/network/dtls/mbedtls/mbedtls-2.16.2/library/x509_crl.c **** {
 276              		.loc 1 183 1
 277              		.cfi_startproc
 278 0000 F30F1EFA 		endbr64
 279 0004 55       		pushq	%rbp
 280              	.LCFI6:
 281              		.cfi_def_cfa_offset 16
 282              		.cfi_offset 6, -16
 283 0005 4889E5   		movq	%rsp, %rbp
 284              	.LCFI7:
 285              		.cfi_def_cfa_register 6
 286 0008 4883EC40 		subq	$64, %rsp
 287 000c 48897DD8 		movq	%rdi, -40(%rbp)
 288 0010 488975D0 		movq	%rsi, -48(%rbp)
 289 0014 488955C8 		movq	%rdx, -56(%rbp)
 290              		.loc 1 183 1
 291 0018 64488B04 		movq	%fs:40, %rax
 291      25280000 
GAS LISTING /tmp/ccQRyzdw.s 			page 10


 291      00
 292 0021 488945F8 		movq	%rax, -8(%rbp)
 293 0025 31C0     		xorl	%eax, %eax
 184:/home/xingli/share/LiteOS_Lab/network/dtls/mbedtls/mbedtls-2.16.2/library/x509_crl.c ****     int ret;
 185:/home/xingli/share/LiteOS_Lab/network/dtls/mbedtls/mbedtls-2.16.2/library/x509_crl.c ****     size_t len = 0;
 294              		.loc 1 185 12
 295 0027 48C745F0 		movq	$0, -16(%rbp)
 295      00000000 
 186:/home/xingli/share/LiteOS_Lab/network/dtls/mbedtls/mbedtls-2.16.2/library/x509_crl.c **** 
 187:/home/xingli/share/LiteOS_Lab/network/dtls/mbedtls/mbedtls-2.16.2/library/x509_crl.c ****     /* OPTIONAL */
 188:/home/xingli/share/LiteOS_Lab/network/dtls/mbedtls/mbedtls-2.16.2/library/x509_crl.c ****     if( end <= *p )
 296              		.loc 1 188 16
 297 002f 488B45D8 		movq	-40(%rbp), %rax
 298 0033 488B00   		movq	(%rax), %rax
 299              		.loc 1 188 7
 300 0036 483945D0 		cmpq	%rax, -48(%rbp)
 301 003a 770A     		ja	.L22
 189:/home/xingli/share/LiteOS_Lab/network/dtls/mbedtls/mbedtls-2.16.2/library/x509_crl.c ****         return( 0 );
 302              		.loc 1 189 15
 303 003c B8000000 		movl	$0, %eax
 303      00
 304 0041 E90D0100 		jmp	.L31
 304      00
 305              	.L22:
 190:/home/xingli/share/LiteOS_Lab/network/dtls/mbedtls/mbedtls-2.16.2/library/x509_crl.c **** 
 191:/home/xingli/share/LiteOS_Lab/network/dtls/mbedtls/mbedtls-2.16.2/library/x509_crl.c ****     ext->tag = **p;
 306              		.loc 1 191 17
 307 0046 488B45D8 		movq	-40(%rbp), %rax
 308 004a 488B00   		movq	(%rax), %rax
 309              		.loc 1 191 16
 310 004d 0FB600   		movzbl	(%rax), %eax
 311 0050 0FB6D0   		movzbl	%al, %edx
 312              		.loc 1 191 14
 313 0053 488B45C8 		movq	-56(%rbp), %rax
 314 0057 8910     		movl	%edx, (%rax)
 192:/home/xingli/share/LiteOS_Lab/network/dtls/mbedtls/mbedtls-2.16.2/library/x509_crl.c ****     ext->p = *p;
 315              		.loc 1 192 14
 316 0059 488B45D8 		movq	-40(%rbp), %rax
 317 005d 488B10   		movq	(%rax), %rdx
 318              		.loc 1 192 12
 319 0060 488B45C8 		movq	-56(%rbp), %rax
 320 0064 48895010 		movq	%rdx, 16(%rax)
 193:/home/xingli/share/LiteOS_Lab/network/dtls/mbedtls/mbedtls-2.16.2/library/x509_crl.c **** 
 194:/home/xingli/share/LiteOS_Lab/network/dtls/mbedtls/mbedtls-2.16.2/library/x509_crl.c ****     /*
 195:/home/xingli/share/LiteOS_Lab/network/dtls/mbedtls/mbedtls-2.16.2/library/x509_crl.c ****      * Get CRL-entry extension sequence header
 196:/home/xingli/share/LiteOS_Lab/network/dtls/mbedtls/mbedtls-2.16.2/library/x509_crl.c ****      * crlEntryExtensions      Extensions OPTIONAL  -- if present, MUST be v2
 197:/home/xingli/share/LiteOS_Lab/network/dtls/mbedtls/mbedtls-2.16.2/library/x509_crl.c ****      */
 198:/home/xingli/share/LiteOS_Lab/network/dtls/mbedtls/mbedtls-2.16.2/library/x509_crl.c ****     if( ( ret = mbedtls_asn1_get_tag( p, end, &ext->len,
 321              		.loc 1 198 17
 322 0068 488B45C8 		movq	-56(%rbp), %rax
 323 006c 488D5008 		leaq	8(%rax), %rdx
 324 0070 488B75D0 		movq	-48(%rbp), %rsi
 325 0074 488B45D8 		movq	-40(%rbp), %rax
 326 0078 B9300000 		movl	$48, %ecx
 326      00
 327 007d 4889C7   		movq	%rax, %rdi
 328 0080 E8000000 		call	mbedtls_asn1_get_tag@PLT
GAS LISTING /tmp/ccQRyzdw.s 			page 11


 328      00
 329 0085 8945EC   		movl	%eax, -20(%rbp)
 330              		.loc 1 198 7
 331 0088 837DEC00 		cmpl	$0, -20(%rbp)
 332 008c 7429     		je	.L24
 199:/home/xingli/share/LiteOS_Lab/network/dtls/mbedtls/mbedtls-2.16.2/library/x509_crl.c ****             MBEDTLS_ASN1_CONSTRUCTED | MBEDTLS_ASN1_SEQUENCE ) ) != 0 )
 200:/home/xingli/share/LiteOS_Lab/network/dtls/mbedtls/mbedtls-2.16.2/library/x509_crl.c ****     {
 201:/home/xingli/share/LiteOS_Lab/network/dtls/mbedtls/mbedtls-2.16.2/library/x509_crl.c ****         if( ret == MBEDTLS_ERR_ASN1_UNEXPECTED_TAG )
 333              		.loc 1 201 11
 334 008e 837DEC9E 		cmpl	$-98, -20(%rbp)
 335 0092 7516     		jne	.L25
 202:/home/xingli/share/LiteOS_Lab/network/dtls/mbedtls/mbedtls-2.16.2/library/x509_crl.c ****         {
 203:/home/xingli/share/LiteOS_Lab/network/dtls/mbedtls/mbedtls-2.16.2/library/x509_crl.c ****             ext->p = NULL;
 336              		.loc 1 203 20
 337 0094 488B45C8 		movq	-56(%rbp), %rax
 338 0098 48C74010 		movq	$0, 16(%rax)
 338      00000000 
 204:/home/xingli/share/LiteOS_Lab/network/dtls/mbedtls/mbedtls-2.16.2/library/x509_crl.c ****             return( 0 );
 339              		.loc 1 204 19
 340 00a0 B8000000 		movl	$0, %eax
 340      00
 341 00a5 E9A90000 		jmp	.L31
 341      00
 342              	.L25:
 205:/home/xingli/share/LiteOS_Lab/network/dtls/mbedtls/mbedtls-2.16.2/library/x509_crl.c ****         }
 206:/home/xingli/share/LiteOS_Lab/network/dtls/mbedtls/mbedtls-2.16.2/library/x509_crl.c ****         return( MBEDTLS_ERR_X509_INVALID_EXTENSIONS + ret );
 343              		.loc 1 206 53
 344 00aa 8B45EC   		movl	-20(%rbp), %eax
 345 00ad 2D002500 		subl	$9472, %eax
 345      00
 346 00b2 E99C0000 		jmp	.L31
 346      00
 347              	.L24:
 207:/home/xingli/share/LiteOS_Lab/network/dtls/mbedtls/mbedtls-2.16.2/library/x509_crl.c ****     }
 208:/home/xingli/share/LiteOS_Lab/network/dtls/mbedtls/mbedtls-2.16.2/library/x509_crl.c **** 
 209:/home/xingli/share/LiteOS_Lab/network/dtls/mbedtls/mbedtls-2.16.2/library/x509_crl.c ****     end = *p + ext->len;
 348              		.loc 1 209 11
 349 00b7 488B45D8 		movq	-40(%rbp), %rax
 350 00bb 488B10   		movq	(%rax), %rdx
 351              		.loc 1 209 19
 352 00be 488B45C8 		movq	-56(%rbp), %rax
 353 00c2 488B4008 		movq	8(%rax), %rax
 354              		.loc 1 209 9
 355 00c6 4801D0   		addq	%rdx, %rax
 356 00c9 488945D0 		movq	%rax, -48(%rbp)
 210:/home/xingli/share/LiteOS_Lab/network/dtls/mbedtls/mbedtls-2.16.2/library/x509_crl.c **** 
 211:/home/xingli/share/LiteOS_Lab/network/dtls/mbedtls/mbedtls-2.16.2/library/x509_crl.c ****     if( end != *p + ext->len )
 357              		.loc 1 211 16
 358 00cd 488B45D8 		movq	-40(%rbp), %rax
 359 00d1 488B10   		movq	(%rax), %rdx
 360              		.loc 1 211 24
 361 00d4 488B45C8 		movq	-56(%rbp), %rax
 362 00d8 488B4008 		movq	8(%rax), %rax
 363              		.loc 1 211 19
 364 00dc 4801D0   		addq	%rdx, %rax
 365              		.loc 1 211 7
 366 00df 483945D0 		cmpq	%rax, -48(%rbp)
GAS LISTING /tmp/ccQRyzdw.s 			page 12


 367 00e3 7448     		je	.L27
 212:/home/xingli/share/LiteOS_Lab/network/dtls/mbedtls/mbedtls-2.16.2/library/x509_crl.c ****         return( MBEDTLS_ERR_X509_INVALID_EXTENSIONS +
 368              		.loc 1 212 15
 369 00e5 B89ADAFF 		movl	$-9574, %eax
 369      FF
 370 00ea EB67     		jmp	.L31
 371              	.L29:
 213:/home/xingli/share/LiteOS_Lab/network/dtls/mbedtls/mbedtls-2.16.2/library/x509_crl.c ****                 MBEDTLS_ERR_ASN1_LENGTH_MISMATCH );
 214:/home/xingli/share/LiteOS_Lab/network/dtls/mbedtls/mbedtls-2.16.2/library/x509_crl.c **** 
 215:/home/xingli/share/LiteOS_Lab/network/dtls/mbedtls/mbedtls-2.16.2/library/x509_crl.c ****     while( *p < end )
 216:/home/xingli/share/LiteOS_Lab/network/dtls/mbedtls/mbedtls-2.16.2/library/x509_crl.c ****     {
 217:/home/xingli/share/LiteOS_Lab/network/dtls/mbedtls/mbedtls-2.16.2/library/x509_crl.c ****         if( ( ret = mbedtls_asn1_get_tag( p, end, &len,
 372              		.loc 1 217 21
 373 00ec 488D55F0 		leaq	-16(%rbp), %rdx
 374 00f0 488B75D0 		movq	-48(%rbp), %rsi
 375 00f4 488B45D8 		movq	-40(%rbp), %rax
 376 00f8 B9300000 		movl	$48, %ecx
 376      00
 377 00fd 4889C7   		movq	%rax, %rdi
 378 0100 E8000000 		call	mbedtls_asn1_get_tag@PLT
 378      00
 379 0105 8945EC   		movl	%eax, -20(%rbp)
 380              		.loc 1 217 11
 381 0108 837DEC00 		cmpl	$0, -20(%rbp)
 382 010c 740A     		je	.L28
 218:/home/xingli/share/LiteOS_Lab/network/dtls/mbedtls/mbedtls-2.16.2/library/x509_crl.c ****                 MBEDTLS_ASN1_CONSTRUCTED | MBEDTLS_ASN1_SEQUENCE ) ) != 0 )
 219:/home/xingli/share/LiteOS_Lab/network/dtls/mbedtls/mbedtls-2.16.2/library/x509_crl.c ****             return( MBEDTLS_ERR_X509_INVALID_EXTENSIONS + ret );
 383              		.loc 1 219 57
 384 010e 8B45EC   		movl	-20(%rbp), %eax
 385 0111 2D002500 		subl	$9472, %eax
 385      00
 386 0116 EB3B     		jmp	.L31
 387              	.L28:
 220:/home/xingli/share/LiteOS_Lab/network/dtls/mbedtls/mbedtls-2.16.2/library/x509_crl.c **** 
 221:/home/xingli/share/LiteOS_Lab/network/dtls/mbedtls/mbedtls-2.16.2/library/x509_crl.c ****         *p += len;
 388              		.loc 1 221 12
 389 0118 488B45D8 		movq	-40(%rbp), %rax
 390 011c 488B10   		movq	(%rax), %rdx
 391 011f 488B45F0 		movq	-16(%rbp), %rax
 392 0123 4801C2   		addq	%rax, %rdx
 393 0126 488B45D8 		movq	-40(%rbp), %rax
 394 012a 488910   		movq	%rdx, (%rax)
 395              	.L27:
 215:/home/xingli/share/LiteOS_Lab/network/dtls/mbedtls/mbedtls-2.16.2/library/x509_crl.c ****     {
 396              		.loc 1 215 12
 397 012d 488B45D8 		movq	-40(%rbp), %rax
 398 0131 488B00   		movq	(%rax), %rax
 215:/home/xingli/share/LiteOS_Lab/network/dtls/mbedtls/mbedtls-2.16.2/library/x509_crl.c ****     {
 399              		.loc 1 215 10
 400 0134 483945D0 		cmpq	%rax, -48(%rbp)
 401 0138 77B2     		ja	.L29
 222:/home/xingli/share/LiteOS_Lab/network/dtls/mbedtls/mbedtls-2.16.2/library/x509_crl.c ****     }
 223:/home/xingli/share/LiteOS_Lab/network/dtls/mbedtls/mbedtls-2.16.2/library/x509_crl.c **** 
 224:/home/xingli/share/LiteOS_Lab/network/dtls/mbedtls/mbedtls-2.16.2/library/x509_crl.c ****     if( *p != end )
 402              		.loc 1 224 9
 403 013a 488B45D8 		movq	-40(%rbp), %rax
 404 013e 488B00   		movq	(%rax), %rax
GAS LISTING /tmp/ccQRyzdw.s 			page 13


 405              		.loc 1 224 7
 406 0141 483945D0 		cmpq	%rax, -48(%rbp)
 407 0145 7407     		je	.L30
 225:/home/xingli/share/LiteOS_Lab/network/dtls/mbedtls/mbedtls-2.16.2/library/x509_crl.c ****         return( MBEDTLS_ERR_X509_INVALID_EXTENSIONS +
 408              		.loc 1 225 15
 409 0147 B89ADAFF 		movl	$-9574, %eax
 409      FF
 410 014c EB05     		jmp	.L31
 411              	.L30:
 226:/home/xingli/share/LiteOS_Lab/network/dtls/mbedtls/mbedtls-2.16.2/library/x509_crl.c ****                 MBEDTLS_ERR_ASN1_LENGTH_MISMATCH );
 227:/home/xingli/share/LiteOS_Lab/network/dtls/mbedtls/mbedtls-2.16.2/library/x509_crl.c **** 
 228:/home/xingli/share/LiteOS_Lab/network/dtls/mbedtls/mbedtls-2.16.2/library/x509_crl.c ****     return( 0 );
 412              		.loc 1 228 11
 413 014e B8000000 		movl	$0, %eax
 413      00
 414              	.L31:
 229:/home/xingli/share/LiteOS_Lab/network/dtls/mbedtls/mbedtls-2.16.2/library/x509_crl.c **** }
 415              		.loc 1 229 1 discriminator 1
 416 0153 488B4DF8 		movq	-8(%rbp), %rcx
 417 0157 6448330C 		xorq	%fs:40, %rcx
 417      25280000 
 417      00
 418 0160 7405     		je	.L32
 419              		.loc 1 229 1 is_stmt 0
 420 0162 E8000000 		call	__stack_chk_fail@PLT
 420      00
 421              	.L32:
 422 0167 C9       		leave
 423              	.LCFI8:
 424              		.cfi_def_cfa 7, 8
 425 0168 C3       		ret
 426              		.cfi_endproc
 427              	.LFE18:
 429              		.section	.text.x509_get_entries,"ax",@progbits
 431              	x509_get_entries:
 432              	.LFB19:
 230:/home/xingli/share/LiteOS_Lab/network/dtls/mbedtls/mbedtls-2.16.2/library/x509_crl.c **** 
 231:/home/xingli/share/LiteOS_Lab/network/dtls/mbedtls/mbedtls-2.16.2/library/x509_crl.c **** /*
 232:/home/xingli/share/LiteOS_Lab/network/dtls/mbedtls/mbedtls-2.16.2/library/x509_crl.c ****  * X.509 CRL Entries
 233:/home/xingli/share/LiteOS_Lab/network/dtls/mbedtls/mbedtls-2.16.2/library/x509_crl.c ****  */
 234:/home/xingli/share/LiteOS_Lab/network/dtls/mbedtls/mbedtls-2.16.2/library/x509_crl.c **** static int x509_get_entries( unsigned char **p,
 235:/home/xingli/share/LiteOS_Lab/network/dtls/mbedtls/mbedtls-2.16.2/library/x509_crl.c ****                              const unsigned char *end,
 236:/home/xingli/share/LiteOS_Lab/network/dtls/mbedtls/mbedtls-2.16.2/library/x509_crl.c ****                              mbedtls_x509_crl_entry *entry )
 237:/home/xingli/share/LiteOS_Lab/network/dtls/mbedtls/mbedtls-2.16.2/library/x509_crl.c **** {
 433              		.loc 1 237 1 is_stmt 1
 434              		.cfi_startproc
 435 0000 F30F1EFA 		endbr64
 436 0004 55       		pushq	%rbp
 437              	.LCFI9:
 438              		.cfi_def_cfa_offset 16
 439              		.cfi_offset 6, -16
 440 0005 4889E5   		movq	%rsp, %rbp
 441              	.LCFI10:
 442              		.cfi_def_cfa_register 6
 443 0008 4883EC50 		subq	$80, %rsp
 444 000c 48897DC8 		movq	%rdi, -56(%rbp)
 445 0010 488975C0 		movq	%rsi, -64(%rbp)
GAS LISTING /tmp/ccQRyzdw.s 			page 14


 446 0014 488955B8 		movq	%rdx, -72(%rbp)
 447              		.loc 1 237 1
 448 0018 64488B04 		movq	%fs:40, %rax
 448      25280000 
 448      00
 449 0021 488945F8 		movq	%rax, -8(%rbp)
 450 0025 31C0     		xorl	%eax, %eax
 238:/home/xingli/share/LiteOS_Lab/network/dtls/mbedtls/mbedtls-2.16.2/library/x509_crl.c ****     int ret;
 239:/home/xingli/share/LiteOS_Lab/network/dtls/mbedtls/mbedtls-2.16.2/library/x509_crl.c ****     size_t entry_len;
 240:/home/xingli/share/LiteOS_Lab/network/dtls/mbedtls/mbedtls-2.16.2/library/x509_crl.c ****     mbedtls_x509_crl_entry *cur_entry = entry;
 451              		.loc 1 240 29
 452 0027 488B45B8 		movq	-72(%rbp), %rax
 453 002b 488945E8 		movq	%rax, -24(%rbp)
 241:/home/xingli/share/LiteOS_Lab/network/dtls/mbedtls/mbedtls-2.16.2/library/x509_crl.c **** 
 242:/home/xingli/share/LiteOS_Lab/network/dtls/mbedtls/mbedtls-2.16.2/library/x509_crl.c ****     if( *p == end )
 454              		.loc 1 242 9
 455 002f 488B45C8 		movq	-56(%rbp), %rax
 456 0033 488B00   		movq	(%rax), %rax
 457              		.loc 1 242 7
 458 0036 483945C0 		cmpq	%rax, -64(%rbp)
 459 003a 750A     		jne	.L34
 243:/home/xingli/share/LiteOS_Lab/network/dtls/mbedtls/mbedtls-2.16.2/library/x509_crl.c ****         return( 0 );
 460              		.loc 1 243 15
 461 003c B8000000 		movl	$0, %eax
 461      00
 462 0041 E9960100 		jmp	.L47
 462      00
 463              	.L34:
 244:/home/xingli/share/LiteOS_Lab/network/dtls/mbedtls/mbedtls-2.16.2/library/x509_crl.c **** 
 245:/home/xingli/share/LiteOS_Lab/network/dtls/mbedtls/mbedtls-2.16.2/library/x509_crl.c ****     if( ( ret = mbedtls_asn1_get_tag( p, end, &entry_len,
 464              		.loc 1 245 17
 465 0046 488D55D8 		leaq	-40(%rbp), %rdx
 466 004a 488B75C0 		movq	-64(%rbp), %rsi
 467 004e 488B45C8 		movq	-56(%rbp), %rax
 468 0052 B9300000 		movl	$48, %ecx
 468      00
 469 0057 4889C7   		movq	%rax, %rdi
 470 005a E8000000 		call	mbedtls_asn1_get_tag@PLT
 470      00
 471 005f 8945D4   		movl	%eax, -44(%rbp)
 472              		.loc 1 245 7
 473 0062 837DD400 		cmpl	$0, -44(%rbp)
 474 0066 7418     		je	.L36
 246:/home/xingli/share/LiteOS_Lab/network/dtls/mbedtls/mbedtls-2.16.2/library/x509_crl.c ****             MBEDTLS_ASN1_SEQUENCE | MBEDTLS_ASN1_CONSTRUCTED ) ) != 0 )
 247:/home/xingli/share/LiteOS_Lab/network/dtls/mbedtls/mbedtls-2.16.2/library/x509_crl.c ****     {
 248:/home/xingli/share/LiteOS_Lab/network/dtls/mbedtls/mbedtls-2.16.2/library/x509_crl.c ****         if( ret == MBEDTLS_ERR_ASN1_UNEXPECTED_TAG )
 475              		.loc 1 248 11
 476 0068 837DD49E 		cmpl	$-98, -44(%rbp)
 477 006c 750A     		jne	.L37
 249:/home/xingli/share/LiteOS_Lab/network/dtls/mbedtls/mbedtls-2.16.2/library/x509_crl.c ****             return( 0 );
 478              		.loc 1 249 19
 479 006e B8000000 		movl	$0, %eax
 479      00
 480 0073 E9640100 		jmp	.L47
 480      00
 481              	.L37:
 250:/home/xingli/share/LiteOS_Lab/network/dtls/mbedtls/mbedtls-2.16.2/library/x509_crl.c **** 
GAS LISTING /tmp/ccQRyzdw.s 			page 15


 251:/home/xingli/share/LiteOS_Lab/network/dtls/mbedtls/mbedtls-2.16.2/library/x509_crl.c ****         return( ret );
 482              		.loc 1 251 15
 483 0078 8B45D4   		movl	-44(%rbp), %eax
 484 007b E95C0100 		jmp	.L47
 484      00
 485              	.L36:
 252:/home/xingli/share/LiteOS_Lab/network/dtls/mbedtls/mbedtls-2.16.2/library/x509_crl.c ****     }
 253:/home/xingli/share/LiteOS_Lab/network/dtls/mbedtls/mbedtls-2.16.2/library/x509_crl.c **** 
 254:/home/xingli/share/LiteOS_Lab/network/dtls/mbedtls/mbedtls-2.16.2/library/x509_crl.c ****     end = *p + entry_len;
 486              		.loc 1 254 11
 487 0080 488B45C8 		movq	-56(%rbp), %rax
 488 0084 488B10   		movq	(%rax), %rdx
 489              		.loc 1 254 14
 490 0087 488B45D8 		movq	-40(%rbp), %rax
 491              		.loc 1 254 9
 492 008b 4801D0   		addq	%rdx, %rax
 493 008e 488945C0 		movq	%rax, -64(%rbp)
 255:/home/xingli/share/LiteOS_Lab/network/dtls/mbedtls/mbedtls-2.16.2/library/x509_crl.c **** 
 256:/home/xingli/share/LiteOS_Lab/network/dtls/mbedtls/mbedtls-2.16.2/library/x509_crl.c ****     while( *p < end )
 494              		.loc 1 256 10
 495 0092 E92F0100 		jmp	.L38
 495      00
 496              	.L46:
 497              	.LBB3:
 257:/home/xingli/share/LiteOS_Lab/network/dtls/mbedtls/mbedtls-2.16.2/library/x509_crl.c ****     {
 258:/home/xingli/share/LiteOS_Lab/network/dtls/mbedtls/mbedtls-2.16.2/library/x509_crl.c ****         size_t len2;
 259:/home/xingli/share/LiteOS_Lab/network/dtls/mbedtls/mbedtls-2.16.2/library/x509_crl.c ****         const unsigned char *end2;
 260:/home/xingli/share/LiteOS_Lab/network/dtls/mbedtls/mbedtls-2.16.2/library/x509_crl.c **** 
 261:/home/xingli/share/LiteOS_Lab/network/dtls/mbedtls/mbedtls-2.16.2/library/x509_crl.c ****         if( ( ret = mbedtls_asn1_get_tag( p, end, &len2,
 498              		.loc 1 261 21
 499 0097 488D55E0 		leaq	-32(%rbp), %rdx
 500 009b 488B75C0 		movq	-64(%rbp), %rsi
 501 009f 488B45C8 		movq	-56(%rbp), %rax
 502 00a3 B9300000 		movl	$48, %ecx
 502      00
 503 00a8 4889C7   		movq	%rax, %rdi
 504 00ab E8000000 		call	mbedtls_asn1_get_tag@PLT
 504      00
 505 00b0 8945D4   		movl	%eax, -44(%rbp)
 506              		.loc 1 261 11
 507 00b3 837DD400 		cmpl	$0, -44(%rbp)
 508 00b7 7408     		je	.L39
 262:/home/xingli/share/LiteOS_Lab/network/dtls/mbedtls/mbedtls-2.16.2/library/x509_crl.c ****                 MBEDTLS_ASN1_SEQUENCE | MBEDTLS_ASN1_CONSTRUCTED ) ) != 0 )
 263:/home/xingli/share/LiteOS_Lab/network/dtls/mbedtls/mbedtls-2.16.2/library/x509_crl.c ****         {
 264:/home/xingli/share/LiteOS_Lab/network/dtls/mbedtls/mbedtls-2.16.2/library/x509_crl.c ****             return( ret );
 509              		.loc 1 264 19
 510 00b9 8B45D4   		movl	-44(%rbp), %eax
 511 00bc E91B0100 		jmp	.L47
 511      00
 512              	.L39:
 265:/home/xingli/share/LiteOS_Lab/network/dtls/mbedtls/mbedtls-2.16.2/library/x509_crl.c ****         }
 266:/home/xingli/share/LiteOS_Lab/network/dtls/mbedtls/mbedtls-2.16.2/library/x509_crl.c **** 
 267:/home/xingli/share/LiteOS_Lab/network/dtls/mbedtls/mbedtls-2.16.2/library/x509_crl.c ****         cur_entry->raw.tag = **p;
 513              		.loc 1 267 31
 514 00c1 488B45C8 		movq	-56(%rbp), %rax
 515 00c5 488B00   		movq	(%rax), %rax
 516              		.loc 1 267 30
GAS LISTING /tmp/ccQRyzdw.s 			page 16


 517 00c8 0FB600   		movzbl	(%rax), %eax
 518 00cb 0FB6D0   		movzbl	%al, %edx
 519              		.loc 1 267 28
 520 00ce 488B45E8 		movq	-24(%rbp), %rax
 521 00d2 8910     		movl	%edx, (%rax)
 268:/home/xingli/share/LiteOS_Lab/network/dtls/mbedtls/mbedtls-2.16.2/library/x509_crl.c ****         cur_entry->raw.p = *p;
 522              		.loc 1 268 28
 523 00d4 488B45C8 		movq	-56(%rbp), %rax
 524 00d8 488B10   		movq	(%rax), %rdx
 525              		.loc 1 268 26
 526 00db 488B45E8 		movq	-24(%rbp), %rax
 527 00df 48895010 		movq	%rdx, 16(%rax)
 269:/home/xingli/share/LiteOS_Lab/network/dtls/mbedtls/mbedtls-2.16.2/library/x509_crl.c ****         cur_entry->raw.len = len2;
 528              		.loc 1 269 28
 529 00e3 488B55E0 		movq	-32(%rbp), %rdx
 530 00e7 488B45E8 		movq	-24(%rbp), %rax
 531 00eb 48895008 		movq	%rdx, 8(%rax)
 270:/home/xingli/share/LiteOS_Lab/network/dtls/mbedtls/mbedtls-2.16.2/library/x509_crl.c ****         end2 = *p + len2;
 532              		.loc 1 270 16
 533 00ef 488B45C8 		movq	-56(%rbp), %rax
 534 00f3 488B10   		movq	(%rax), %rdx
 535              		.loc 1 270 19
 536 00f6 488B45E0 		movq	-32(%rbp), %rax
 537              		.loc 1 270 14
 538 00fa 4801D0   		addq	%rdx, %rax
 539 00fd 488945F0 		movq	%rax, -16(%rbp)
 271:/home/xingli/share/LiteOS_Lab/network/dtls/mbedtls/mbedtls-2.16.2/library/x509_crl.c **** 
 272:/home/xingli/share/LiteOS_Lab/network/dtls/mbedtls/mbedtls-2.16.2/library/x509_crl.c ****         if( ( ret = mbedtls_x509_get_serial( p, end2, &cur_entry->serial ) ) != 0 )
 540              		.loc 1 272 21
 541 0101 488B45E8 		movq	-24(%rbp), %rax
 542 0105 488D5018 		leaq	24(%rax), %rdx
 543 0109 488B4DF0 		movq	-16(%rbp), %rcx
 544 010d 488B45C8 		movq	-56(%rbp), %rax
 545 0111 4889CE   		movq	%rcx, %rsi
 546 0114 4889C7   		movq	%rax, %rdi
 547 0117 E8000000 		call	mbedtls_x509_get_serial@PLT
 547      00
 548 011c 8945D4   		movl	%eax, -44(%rbp)
 549              		.loc 1 272 11
 550 011f 837DD400 		cmpl	$0, -44(%rbp)
 551 0123 7408     		je	.L41
 273:/home/xingli/share/LiteOS_Lab/network/dtls/mbedtls/mbedtls-2.16.2/library/x509_crl.c ****             return( ret );
 552              		.loc 1 273 19
 553 0125 8B45D4   		movl	-44(%rbp), %eax
 554 0128 E9AF0000 		jmp	.L47
 554      00
 555              	.L41:
 274:/home/xingli/share/LiteOS_Lab/network/dtls/mbedtls/mbedtls-2.16.2/library/x509_crl.c **** 
 275:/home/xingli/share/LiteOS_Lab/network/dtls/mbedtls/mbedtls-2.16.2/library/x509_crl.c ****         if( ( ret = mbedtls_x509_get_time( p, end2,
 556              		.loc 1 275 21
 557 012d 488B45E8 		movq	-24(%rbp), %rax
 558 0131 488D5030 		leaq	48(%rax), %rdx
 559 0135 488B4DF0 		movq	-16(%rbp), %rcx
 560 0139 488B45C8 		movq	-56(%rbp), %rax
 561 013d 4889CE   		movq	%rcx, %rsi
 562 0140 4889C7   		movq	%rax, %rdi
 563 0143 E8000000 		call	mbedtls_x509_get_time@PLT
GAS LISTING /tmp/ccQRyzdw.s 			page 17


 563      00
 564 0148 8945D4   		movl	%eax, -44(%rbp)
 565              		.loc 1 275 11
 566 014b 837DD400 		cmpl	$0, -44(%rbp)
 567 014f 7408     		je	.L42
 276:/home/xingli/share/LiteOS_Lab/network/dtls/mbedtls/mbedtls-2.16.2/library/x509_crl.c ****                                    &cur_entry->revocation_date ) ) != 0 )
 277:/home/xingli/share/LiteOS_Lab/network/dtls/mbedtls/mbedtls-2.16.2/library/x509_crl.c ****             return( ret );
 568              		.loc 1 277 19
 569 0151 8B45D4   		movl	-44(%rbp), %eax
 570 0154 E9830000 		jmp	.L47
 570      00
 571              	.L42:
 278:/home/xingli/share/LiteOS_Lab/network/dtls/mbedtls/mbedtls-2.16.2/library/x509_crl.c **** 
 279:/home/xingli/share/LiteOS_Lab/network/dtls/mbedtls/mbedtls-2.16.2/library/x509_crl.c ****         if( ( ret = x509_get_crl_entry_ext( p, end2,
 572              		.loc 1 279 21
 573 0159 488B45E8 		movq	-24(%rbp), %rax
 574 015d 488D5048 		leaq	72(%rax), %rdx
 575 0161 488B4DF0 		movq	-16(%rbp), %rcx
 576 0165 488B45C8 		movq	-56(%rbp), %rax
 577 0169 4889CE   		movq	%rcx, %rsi
 578 016c 4889C7   		movq	%rax, %rdi
 579 016f E8000000 		call	x509_get_crl_entry_ext
 579      00
 580 0174 8945D4   		movl	%eax, -44(%rbp)
 581              		.loc 1 279 11
 582 0177 837DD400 		cmpl	$0, -44(%rbp)
 583 017b 7405     		je	.L43
 280:/home/xingli/share/LiteOS_Lab/network/dtls/mbedtls/mbedtls-2.16.2/library/x509_crl.c ****                                             &cur_entry->entry_ext ) ) != 0 )
 281:/home/xingli/share/LiteOS_Lab/network/dtls/mbedtls/mbedtls-2.16.2/library/x509_crl.c ****             return( ret );
 584              		.loc 1 281 19
 585 017d 8B45D4   		movl	-44(%rbp), %eax
 586 0180 EB5A     		jmp	.L47
 587              	.L43:
 282:/home/xingli/share/LiteOS_Lab/network/dtls/mbedtls/mbedtls-2.16.2/library/x509_crl.c **** 
 283:/home/xingli/share/LiteOS_Lab/network/dtls/mbedtls/mbedtls-2.16.2/library/x509_crl.c ****         if( *p < end )
 588              		.loc 1 283 13
 589 0182 488B45C8 		movq	-56(%rbp), %rax
 590 0186 488B00   		movq	(%rax), %rax
 591              		.loc 1 283 11
 592 0189 483945C0 		cmpq	%rax, -64(%rbp)
 593 018d 7637     		jbe	.L38
 284:/home/xingli/share/LiteOS_Lab/network/dtls/mbedtls/mbedtls-2.16.2/library/x509_crl.c ****         {
 285:/home/xingli/share/LiteOS_Lab/network/dtls/mbedtls/mbedtls-2.16.2/library/x509_crl.c ****             cur_entry->next = mbedtls_calloc( 1, sizeof( mbedtls_x509_crl_entry ) );
 594              		.loc 1 285 31
 595 018f BE680000 		movl	$104, %esi
 595      00
 596 0194 BF010000 		movl	$1, %edi
 596      00
 597 0199 E8000000 		call	mbedtls_calloc@PLT
 597      00
 598              		.loc 1 285 29
 599 019e 488B55E8 		movq	-24(%rbp), %rdx
 600 01a2 48894260 		movq	%rax, 96(%rdx)
 286:/home/xingli/share/LiteOS_Lab/network/dtls/mbedtls/mbedtls-2.16.2/library/x509_crl.c **** 
 287:/home/xingli/share/LiteOS_Lab/network/dtls/mbedtls/mbedtls-2.16.2/library/x509_crl.c ****             if( cur_entry->next == NULL )
 601              		.loc 1 287 26
 602 01a6 488B45E8 		movq	-24(%rbp), %rax
GAS LISTING /tmp/ccQRyzdw.s 			page 18


 603 01aa 488B4060 		movq	96(%rax), %rax
 604              		.loc 1 287 15
 605 01ae 4885C0   		testq	%rax, %rax
 606 01b1 7507     		jne	.L45
 288:/home/xingli/share/LiteOS_Lab/network/dtls/mbedtls/mbedtls-2.16.2/library/x509_crl.c ****                 return( MBEDTLS_ERR_X509_ALLOC_FAILED );
 607              		.loc 1 288 23
 608 01b3 B880D7FF 		movl	$-10368, %eax
 608      FF
 609 01b8 EB22     		jmp	.L47
 610              	.L45:
 289:/home/xingli/share/LiteOS_Lab/network/dtls/mbedtls/mbedtls-2.16.2/library/x509_crl.c **** 
 290:/home/xingli/share/LiteOS_Lab/network/dtls/mbedtls/mbedtls-2.16.2/library/x509_crl.c ****             cur_entry = cur_entry->next;
 611              		.loc 1 290 23
 612 01ba 488B45E8 		movq	-24(%rbp), %rax
 613 01be 488B4060 		movq	96(%rax), %rax
 614 01c2 488945E8 		movq	%rax, -24(%rbp)
 615              	.L38:
 616              	.LBE3:
 256:/home/xingli/share/LiteOS_Lab/network/dtls/mbedtls/mbedtls-2.16.2/library/x509_crl.c ****     {
 617              		.loc 1 256 12
 618 01c6 488B45C8 		movq	-56(%rbp), %rax
 619 01ca 488B00   		movq	(%rax), %rax
 256:/home/xingli/share/LiteOS_Lab/network/dtls/mbedtls/mbedtls-2.16.2/library/x509_crl.c ****     {
 620              		.loc 1 256 10
 621 01cd 483945C0 		cmpq	%rax, -64(%rbp)
 622 01d1 0F87C0FE 		ja	.L46
 622      FFFF
 291:/home/xingli/share/LiteOS_Lab/network/dtls/mbedtls/mbedtls-2.16.2/library/x509_crl.c ****         }
 292:/home/xingli/share/LiteOS_Lab/network/dtls/mbedtls/mbedtls-2.16.2/library/x509_crl.c ****     }
 293:/home/xingli/share/LiteOS_Lab/network/dtls/mbedtls/mbedtls-2.16.2/library/x509_crl.c **** 
 294:/home/xingli/share/LiteOS_Lab/network/dtls/mbedtls/mbedtls-2.16.2/library/x509_crl.c ****     return( 0 );
 623              		.loc 1 294 11
 624 01d7 B8000000 		movl	$0, %eax
 624      00
 625              	.L47:
 295:/home/xingli/share/LiteOS_Lab/network/dtls/mbedtls/mbedtls-2.16.2/library/x509_crl.c **** }
 626              		.loc 1 295 1 discriminator 1
 627 01dc 488B7DF8 		movq	-8(%rbp), %rdi
 628 01e0 6448333C 		xorq	%fs:40, %rdi
 628      25280000 
 628      00
 629 01e9 7405     		je	.L48
 630              		.loc 1 295 1 is_stmt 0
 631 01eb E8000000 		call	__stack_chk_fail@PLT
 631      00
 632              	.L48:
 633 01f0 C9       		leave
 634              	.LCFI11:
 635              		.cfi_def_cfa 7, 8
 636 01f1 C3       		ret
 637              		.cfi_endproc
 638              	.LFE19:
 640              		.section	.text.mbedtls_x509_crl_parse_der,"ax",@progbits
 641              		.globl	mbedtls_x509_crl_parse_der
 643              	mbedtls_x509_crl_parse_der:
 644              	.LFB20:
 296:/home/xingli/share/LiteOS_Lab/network/dtls/mbedtls/mbedtls-2.16.2/library/x509_crl.c **** 
GAS LISTING /tmp/ccQRyzdw.s 			page 19


 297:/home/xingli/share/LiteOS_Lab/network/dtls/mbedtls/mbedtls-2.16.2/library/x509_crl.c **** /*
 298:/home/xingli/share/LiteOS_Lab/network/dtls/mbedtls/mbedtls-2.16.2/library/x509_crl.c ****  * Parse one  CRLs in DER format and append it to the chained list
 299:/home/xingli/share/LiteOS_Lab/network/dtls/mbedtls/mbedtls-2.16.2/library/x509_crl.c ****  */
 300:/home/xingli/share/LiteOS_Lab/network/dtls/mbedtls/mbedtls-2.16.2/library/x509_crl.c **** int mbedtls_x509_crl_parse_der( mbedtls_x509_crl *chain,
 301:/home/xingli/share/LiteOS_Lab/network/dtls/mbedtls/mbedtls-2.16.2/library/x509_crl.c ****                         const unsigned char *buf, size_t buflen )
 302:/home/xingli/share/LiteOS_Lab/network/dtls/mbedtls/mbedtls-2.16.2/library/x509_crl.c **** {
 645              		.loc 1 302 1 is_stmt 1
 646              		.cfi_startproc
 647 0000 F30F1EFA 		endbr64
 648 0004 55       		pushq	%rbp
 649              	.LCFI12:
 650              		.cfi_def_cfa_offset 16
 651              		.cfi_offset 6, -16
 652 0005 4889E5   		movq	%rsp, %rbp
 653              	.LCFI13:
 654              		.cfi_def_cfa_register 6
 655 0008 4881ECB0 		subq	$176, %rsp
 655      000000
 656 000f 4889BD68 		movq	%rdi, -152(%rbp)
 656      FFFFFF
 657 0016 4889B560 		movq	%rsi, -160(%rbp)
 657      FFFFFF
 658 001d 48899558 		movq	%rdx, -168(%rbp)
 658      FFFFFF
 659              		.loc 1 302 1
 660 0024 64488B04 		movq	%fs:40, %rax
 660      25280000 
 660      00
 661 002d 488945F8 		movq	%rax, -8(%rbp)
 662 0031 31C0     		xorl	%eax, %eax
 303:/home/xingli/share/LiteOS_Lab/network/dtls/mbedtls/mbedtls-2.16.2/library/x509_crl.c ****     int ret;
 304:/home/xingli/share/LiteOS_Lab/network/dtls/mbedtls/mbedtls-2.16.2/library/x509_crl.c ****     size_t len;
 305:/home/xingli/share/LiteOS_Lab/network/dtls/mbedtls/mbedtls-2.16.2/library/x509_crl.c ****     unsigned char *p = NULL, *end = NULL;
 663              		.loc 1 305 20
 664 0033 48C74588 		movq	$0, -120(%rbp)
 664      00000000 
 665              		.loc 1 305 31
 666 003b 48C74598 		movq	$0, -104(%rbp)
 666      00000000 
 306:/home/xingli/share/LiteOS_Lab/network/dtls/mbedtls/mbedtls-2.16.2/library/x509_crl.c ****     mbedtls_x509_buf sig_params1, sig_params2, sig_oid2;
 307:/home/xingli/share/LiteOS_Lab/network/dtls/mbedtls/mbedtls-2.16.2/library/x509_crl.c ****     mbedtls_x509_crl *crl = chain;
 667              		.loc 1 307 23
 668 0043 488B8568 		movq	-152(%rbp), %rax
 668      FFFFFF
 669 004a 48894590 		movq	%rax, -112(%rbp)
 308:/home/xingli/share/LiteOS_Lab/network/dtls/mbedtls/mbedtls-2.16.2/library/x509_crl.c **** 
 309:/home/xingli/share/LiteOS_Lab/network/dtls/mbedtls/mbedtls-2.16.2/library/x509_crl.c ****     /*
 310:/home/xingli/share/LiteOS_Lab/network/dtls/mbedtls/mbedtls-2.16.2/library/x509_crl.c ****      * Check for valid input
 311:/home/xingli/share/LiteOS_Lab/network/dtls/mbedtls/mbedtls-2.16.2/library/x509_crl.c ****      */
 312:/home/xingli/share/LiteOS_Lab/network/dtls/mbedtls/mbedtls-2.16.2/library/x509_crl.c ****     if( crl == NULL || buf == NULL )
 670              		.loc 1 312 7
 671 004e 48837D90 		cmpq	$0, -112(%rbp)
 671      00
 672 0053 740A     		je	.L50
 673              		.loc 1 312 21 discriminator 1
 674 0055 4883BD60 		cmpq	$0, -160(%rbp)
 674      FFFFFF00 
GAS LISTING /tmp/ccQRyzdw.s 			page 20


 675 005d 750A     		jne	.L51
 676              	.L50:
 313:/home/xingli/share/LiteOS_Lab/network/dtls/mbedtls/mbedtls-2.16.2/library/x509_crl.c ****         return( MBEDTLS_ERR_X509_BAD_INPUT_DATA );
 677              		.loc 1 313 15
 678 005f B800D8FF 		movl	$-10240, %eax
 678      FF
 679 0064 E99E0600 		jmp	.L80
 679      00
 680              	.L51:
 314:/home/xingli/share/LiteOS_Lab/network/dtls/mbedtls/mbedtls-2.16.2/library/x509_crl.c **** 
 315:/home/xingli/share/LiteOS_Lab/network/dtls/mbedtls/mbedtls-2.16.2/library/x509_crl.c ****     memset( &sig_params1, 0, sizeof( mbedtls_x509_buf ) );
 681              		.loc 1 315 5
 682 0069 488D45A0 		leaq	-96(%rbp), %rax
 683 006d BA180000 		movl	$24, %edx
 683      00
 684 0072 BE000000 		movl	$0, %esi
 684      00
 685 0077 4889C7   		movq	%rax, %rdi
 686 007a E8000000 		call	memset@PLT
 686      00
 316:/home/xingli/share/LiteOS_Lab/network/dtls/mbedtls/mbedtls-2.16.2/library/x509_crl.c ****     memset( &sig_params2, 0, sizeof( mbedtls_x509_buf ) );
 687              		.loc 1 316 5
 688 007f 488D45C0 		leaq	-64(%rbp), %rax
 689 0083 BA180000 		movl	$24, %edx
 689      00
 690 0088 BE000000 		movl	$0, %esi
 690      00
 691 008d 4889C7   		movq	%rax, %rdi
 692 0090 E8000000 		call	memset@PLT
 692      00
 317:/home/xingli/share/LiteOS_Lab/network/dtls/mbedtls/mbedtls-2.16.2/library/x509_crl.c ****     memset( &sig_oid2, 0, sizeof( mbedtls_x509_buf ) );
 693              		.loc 1 317 5
 694 0095 488D45E0 		leaq	-32(%rbp), %rax
 695 0099 BA180000 		movl	$24, %edx
 695      00
 696 009e BE000000 		movl	$0, %esi
 696      00
 697 00a3 4889C7   		movq	%rax, %rdi
 698 00a6 E8000000 		call	memset@PLT
 698      00
 318:/home/xingli/share/LiteOS_Lab/network/dtls/mbedtls/mbedtls-2.16.2/library/x509_crl.c **** 
 319:/home/xingli/share/LiteOS_Lab/network/dtls/mbedtls/mbedtls-2.16.2/library/x509_crl.c ****     /*
 320:/home/xingli/share/LiteOS_Lab/network/dtls/mbedtls/mbedtls-2.16.2/library/x509_crl.c ****      * Add new CRL on the end of the chain if needed.
 321:/home/xingli/share/LiteOS_Lab/network/dtls/mbedtls/mbedtls-2.16.2/library/x509_crl.c ****      */
 322:/home/xingli/share/LiteOS_Lab/network/dtls/mbedtls/mbedtls-2.16.2/library/x509_crl.c ****     while( crl->version != 0 && crl->next != NULL )
 699              		.loc 1 322 10
 700 00ab EB0F     		jmp	.L53
 701              	.L55:
 323:/home/xingli/share/LiteOS_Lab/network/dtls/mbedtls/mbedtls-2.16.2/library/x509_crl.c ****         crl = crl->next;
 702              		.loc 1 323 13
 703 00ad 488B4590 		movq	-112(%rbp), %rax
 704 00b1 488B8098 		movq	408(%rax), %rax
 704      010000
 705 00b8 48894590 		movq	%rax, -112(%rbp)
 706              	.L53:
 322:/home/xingli/share/LiteOS_Lab/network/dtls/mbedtls/mbedtls-2.16.2/library/x509_crl.c ****         crl = crl->next;
 707              		.loc 1 322 15
GAS LISTING /tmp/ccQRyzdw.s 			page 21


 708 00bc 488B4590 		movq	-112(%rbp), %rax
 709 00c0 8B4030   		movl	48(%rax), %eax
 322:/home/xingli/share/LiteOS_Lab/network/dtls/mbedtls/mbedtls-2.16.2/library/x509_crl.c ****         crl = crl->next;
 710              		.loc 1 322 10
 711 00c3 85C0     		testl	%eax, %eax
 712 00c5 7410     		je	.L54
 322:/home/xingli/share/LiteOS_Lab/network/dtls/mbedtls/mbedtls-2.16.2/library/x509_crl.c ****         crl = crl->next;
 713              		.loc 1 322 36 discriminator 1
 714 00c7 488B4590 		movq	-112(%rbp), %rax
 715 00cb 488B8098 		movq	408(%rax), %rax
 715      010000
 322:/home/xingli/share/LiteOS_Lab/network/dtls/mbedtls/mbedtls-2.16.2/library/x509_crl.c ****         crl = crl->next;
 716              		.loc 1 322 30 discriminator 1
 717 00d2 4885C0   		testq	%rax, %rax
 718 00d5 75D6     		jne	.L55
 719              	.L54:
 324:/home/xingli/share/LiteOS_Lab/network/dtls/mbedtls/mbedtls-2.16.2/library/x509_crl.c **** 
 325:/home/xingli/share/LiteOS_Lab/network/dtls/mbedtls/mbedtls-2.16.2/library/x509_crl.c ****     if( crl->version != 0 && crl->next == NULL )
 720              		.loc 1 325 12
 721 00d7 488B4590 		movq	-112(%rbp), %rax
 722 00db 8B4030   		movl	48(%rax), %eax
 723              		.loc 1 325 7
 724 00de 85C0     		testl	%eax, %eax
 725 00e0 7472     		je	.L56
 726              		.loc 1 325 33 discriminator 1
 727 00e2 488B4590 		movq	-112(%rbp), %rax
 728 00e6 488B8098 		movq	408(%rax), %rax
 728      010000
 729              		.loc 1 325 27 discriminator 1
 730 00ed 4885C0   		testq	%rax, %rax
 731 00f0 7562     		jne	.L56
 326:/home/xingli/share/LiteOS_Lab/network/dtls/mbedtls/mbedtls-2.16.2/library/x509_crl.c ****     {
 327:/home/xingli/share/LiteOS_Lab/network/dtls/mbedtls/mbedtls-2.16.2/library/x509_crl.c ****         crl->next = mbedtls_calloc( 1, sizeof( mbedtls_x509_crl ) );
 732              		.loc 1 327 21
 733 00f2 BEA00100 		movl	$416, %esi
 733      00
 734 00f7 BF010000 		movl	$1, %edi
 734      00
 735 00fc E8000000 		call	mbedtls_calloc@PLT
 735      00
 736              		.loc 1 327 19
 737 0101 488B5590 		movq	-112(%rbp), %rdx
 738 0105 48898298 		movq	%rax, 408(%rdx)
 738      010000
 328:/home/xingli/share/LiteOS_Lab/network/dtls/mbedtls/mbedtls-2.16.2/library/x509_crl.c **** 
 329:/home/xingli/share/LiteOS_Lab/network/dtls/mbedtls/mbedtls-2.16.2/library/x509_crl.c ****         if( crl->next == NULL )
 739              		.loc 1 329 16
 740 010c 488B4590 		movq	-112(%rbp), %rax
 741 0110 488B8098 		movq	408(%rax), %rax
 741      010000
 742              		.loc 1 329 11
 743 0117 4885C0   		testq	%rax, %rax
 744 011a 7516     		jne	.L57
 330:/home/xingli/share/LiteOS_Lab/network/dtls/mbedtls/mbedtls-2.16.2/library/x509_crl.c ****         {
 331:/home/xingli/share/LiteOS_Lab/network/dtls/mbedtls/mbedtls-2.16.2/library/x509_crl.c ****             mbedtls_x509_crl_free( crl );
 745              		.loc 1 331 13
 746 011c 488B4590 		movq	-112(%rbp), %rax
GAS LISTING /tmp/ccQRyzdw.s 			page 22


 747 0120 4889C7   		movq	%rax, %rdi
 748 0123 E8000000 		call	mbedtls_x509_crl_free
 748      00
 332:/home/xingli/share/LiteOS_Lab/network/dtls/mbedtls/mbedtls-2.16.2/library/x509_crl.c ****             return( MBEDTLS_ERR_X509_ALLOC_FAILED );
 749              		.loc 1 332 19
 750 0128 B880D7FF 		movl	$-10368, %eax
 750      FF
 751 012d E9D50500 		jmp	.L80
 751      00
 752              	.L57:
 333:/home/xingli/share/LiteOS_Lab/network/dtls/mbedtls/mbedtls-2.16.2/library/x509_crl.c ****         }
 334:/home/xingli/share/LiteOS_Lab/network/dtls/mbedtls/mbedtls-2.16.2/library/x509_crl.c **** 
 335:/home/xingli/share/LiteOS_Lab/network/dtls/mbedtls/mbedtls-2.16.2/library/x509_crl.c ****         mbedtls_x509_crl_init( crl->next );
 753              		.loc 1 335 35
 754 0132 488B4590 		movq	-112(%rbp), %rax
 755 0136 488B8098 		movq	408(%rax), %rax
 755      010000
 756              		.loc 1 335 9
 757 013d 4889C7   		movq	%rax, %rdi
 758 0140 E8000000 		call	mbedtls_x509_crl_init
 758      00
 336:/home/xingli/share/LiteOS_Lab/network/dtls/mbedtls/mbedtls-2.16.2/library/x509_crl.c ****         crl = crl->next;
 759              		.loc 1 336 13
 760 0145 488B4590 		movq	-112(%rbp), %rax
 761 0149 488B8098 		movq	408(%rax), %rax
 761      010000
 762 0150 48894590 		movq	%rax, -112(%rbp)
 763              	.L56:
 337:/home/xingli/share/LiteOS_Lab/network/dtls/mbedtls/mbedtls-2.16.2/library/x509_crl.c ****     }
 338:/home/xingli/share/LiteOS_Lab/network/dtls/mbedtls/mbedtls-2.16.2/library/x509_crl.c **** 
 339:/home/xingli/share/LiteOS_Lab/network/dtls/mbedtls/mbedtls-2.16.2/library/x509_crl.c ****     /*
 340:/home/xingli/share/LiteOS_Lab/network/dtls/mbedtls/mbedtls-2.16.2/library/x509_crl.c ****      * Copy raw DER-encoded CRL
 341:/home/xingli/share/LiteOS_Lab/network/dtls/mbedtls/mbedtls-2.16.2/library/x509_crl.c ****      */
 342:/home/xingli/share/LiteOS_Lab/network/dtls/mbedtls/mbedtls-2.16.2/library/x509_crl.c ****     if( buflen == 0 )
 764              		.loc 1 342 7
 765 0154 4883BD58 		cmpq	$0, -168(%rbp)
 765      FFFFFF00 
 766 015c 750A     		jne	.L58
 343:/home/xingli/share/LiteOS_Lab/network/dtls/mbedtls/mbedtls-2.16.2/library/x509_crl.c ****         return( MBEDTLS_ERR_X509_INVALID_FORMAT );
 767              		.loc 1 343 15
 768 015e B880DEFF 		movl	$-8576, %eax
 768      FF
 769 0163 E99F0500 		jmp	.L80
 769      00
 770              	.L58:
 344:/home/xingli/share/LiteOS_Lab/network/dtls/mbedtls/mbedtls-2.16.2/library/x509_crl.c **** 
 345:/home/xingli/share/LiteOS_Lab/network/dtls/mbedtls/mbedtls-2.16.2/library/x509_crl.c ****     p = mbedtls_calloc( 1, buflen );
 771              		.loc 1 345 9
 772 0168 488B8558 		movq	-168(%rbp), %rax
 772      FFFFFF
 773 016f 4889C6   		movq	%rax, %rsi
 774 0172 BF010000 		movl	$1, %edi
 774      00
 775 0177 E8000000 		call	mbedtls_calloc@PLT
 775      00
 776              		.loc 1 345 7
 777 017c 48894588 		movq	%rax, -120(%rbp)
GAS LISTING /tmp/ccQRyzdw.s 			page 23


 346:/home/xingli/share/LiteOS_Lab/network/dtls/mbedtls/mbedtls-2.16.2/library/x509_crl.c ****     if( p == NULL )
 778              		.loc 1 346 11
 779 0180 488B4588 		movq	-120(%rbp), %rax
 780              		.loc 1 346 7
 781 0184 4885C0   		testq	%rax, %rax
 782 0187 750A     		jne	.L59
 347:/home/xingli/share/LiteOS_Lab/network/dtls/mbedtls/mbedtls-2.16.2/library/x509_crl.c ****         return( MBEDTLS_ERR_X509_ALLOC_FAILED );
 783              		.loc 1 347 15
 784 0189 B880D7FF 		movl	$-10368, %eax
 784      FF
 785 018e E9740500 		jmp	.L80
 785      00
 786              	.L59:
 348:/home/xingli/share/LiteOS_Lab/network/dtls/mbedtls/mbedtls-2.16.2/library/x509_crl.c **** 
 349:/home/xingli/share/LiteOS_Lab/network/dtls/mbedtls/mbedtls-2.16.2/library/x509_crl.c ****     memcpy( p, buf, buflen );
 787              		.loc 1 349 5
 788 0193 488B4588 		movq	-120(%rbp), %rax
 789 0197 488B9558 		movq	-168(%rbp), %rdx
 789      FFFFFF
 790 019e 488B8D60 		movq	-160(%rbp), %rcx
 790      FFFFFF
 791 01a5 4889CE   		movq	%rcx, %rsi
 792 01a8 4889C7   		movq	%rax, %rdi
 793 01ab E8000000 		call	memcpy@PLT
 793      00
 350:/home/xingli/share/LiteOS_Lab/network/dtls/mbedtls/mbedtls-2.16.2/library/x509_crl.c **** 
 351:/home/xingli/share/LiteOS_Lab/network/dtls/mbedtls/mbedtls-2.16.2/library/x509_crl.c ****     crl->raw.p = p;
 794              		.loc 1 351 16
 795 01b0 488B5588 		movq	-120(%rbp), %rdx
 796 01b4 488B4590 		movq	-112(%rbp), %rax
 797 01b8 48895010 		movq	%rdx, 16(%rax)
 352:/home/xingli/share/LiteOS_Lab/network/dtls/mbedtls/mbedtls-2.16.2/library/x509_crl.c ****     crl->raw.len = buflen;
 798              		.loc 1 352 18
 799 01bc 488B4590 		movq	-112(%rbp), %rax
 800 01c0 488B9558 		movq	-168(%rbp), %rdx
 800      FFFFFF
 801 01c7 48895008 		movq	%rdx, 8(%rax)
 353:/home/xingli/share/LiteOS_Lab/network/dtls/mbedtls/mbedtls-2.16.2/library/x509_crl.c **** 
 354:/home/xingli/share/LiteOS_Lab/network/dtls/mbedtls/mbedtls-2.16.2/library/x509_crl.c ****     end = p + buflen;
 802              		.loc 1 354 13
 803 01cb 488B5588 		movq	-120(%rbp), %rdx
 804              		.loc 1 354 9
 805 01cf 488B8558 		movq	-168(%rbp), %rax
 805      FFFFFF
 806 01d6 4801D0   		addq	%rdx, %rax
 807 01d9 48894598 		movq	%rax, -104(%rbp)
 355:/home/xingli/share/LiteOS_Lab/network/dtls/mbedtls/mbedtls-2.16.2/library/x509_crl.c **** 
 356:/home/xingli/share/LiteOS_Lab/network/dtls/mbedtls/mbedtls-2.16.2/library/x509_crl.c ****     /*
 357:/home/xingli/share/LiteOS_Lab/network/dtls/mbedtls/mbedtls-2.16.2/library/x509_crl.c ****      * CertificateList  ::=  SEQUENCE  {
 358:/home/xingli/share/LiteOS_Lab/network/dtls/mbedtls/mbedtls-2.16.2/library/x509_crl.c ****      *      tbsCertList          TBSCertList,
 359:/home/xingli/share/LiteOS_Lab/network/dtls/mbedtls/mbedtls-2.16.2/library/x509_crl.c ****      *      signatureAlgorithm   AlgorithmIdentifier,
 360:/home/xingli/share/LiteOS_Lab/network/dtls/mbedtls/mbedtls-2.16.2/library/x509_crl.c ****      *      signatureValue       BIT STRING  }
 361:/home/xingli/share/LiteOS_Lab/network/dtls/mbedtls/mbedtls-2.16.2/library/x509_crl.c ****      */
 362:/home/xingli/share/LiteOS_Lab/network/dtls/mbedtls/mbedtls-2.16.2/library/x509_crl.c ****     if( ( ret = mbedtls_asn1_get_tag( &p, end, &len,
 808              		.loc 1 362 17
 809 01dd 488D5580 		leaq	-128(%rbp), %rdx
 810 01e1 488B7598 		movq	-104(%rbp), %rsi
GAS LISTING /tmp/ccQRyzdw.s 			page 24


 811 01e5 488D4588 		leaq	-120(%rbp), %rax
 812 01e9 B9300000 		movl	$48, %ecx
 812      00
 813 01ee 4889C7   		movq	%rax, %rdi
 814 01f1 E8000000 		call	mbedtls_asn1_get_tag@PLT
 814      00
 815 01f6 89857CFF 		movl	%eax, -132(%rbp)
 815      FFFF
 816              		.loc 1 362 7
 817 01fc 83BD7CFF 		cmpl	$0, -132(%rbp)
 817      FFFF00
 818 0203 7416     		je	.L60
 363:/home/xingli/share/LiteOS_Lab/network/dtls/mbedtls/mbedtls-2.16.2/library/x509_crl.c ****             MBEDTLS_ASN1_CONSTRUCTED | MBEDTLS_ASN1_SEQUENCE ) ) != 0 )
 364:/home/xingli/share/LiteOS_Lab/network/dtls/mbedtls/mbedtls-2.16.2/library/x509_crl.c ****     {
 365:/home/xingli/share/LiteOS_Lab/network/dtls/mbedtls/mbedtls-2.16.2/library/x509_crl.c ****         mbedtls_x509_crl_free( crl );
 819              		.loc 1 365 9
 820 0205 488B4590 		movq	-112(%rbp), %rax
 821 0209 4889C7   		movq	%rax, %rdi
 822 020c E8000000 		call	mbedtls_x509_crl_free
 822      00
 366:/home/xingli/share/LiteOS_Lab/network/dtls/mbedtls/mbedtls-2.16.2/library/x509_crl.c ****         return( MBEDTLS_ERR_X509_INVALID_FORMAT );
 823              		.loc 1 366 15
 824 0211 B880DEFF 		movl	$-8576, %eax
 824      FF
 825 0216 E9EC0400 		jmp	.L80
 825      00
 826              	.L60:
 367:/home/xingli/share/LiteOS_Lab/network/dtls/mbedtls/mbedtls-2.16.2/library/x509_crl.c ****     }
 368:/home/xingli/share/LiteOS_Lab/network/dtls/mbedtls/mbedtls-2.16.2/library/x509_crl.c **** 
 369:/home/xingli/share/LiteOS_Lab/network/dtls/mbedtls/mbedtls-2.16.2/library/x509_crl.c ****     if( len != (size_t) ( end - p ) )
 827              		.loc 1 369 31
 828 021b 488B4588 		movq	-120(%rbp), %rax
 829 021f 488B5598 		movq	-104(%rbp), %rdx
 830 0223 4829C2   		subq	%rax, %rdx
 831              		.loc 1 369 13
 832 0226 488B4580 		movq	-128(%rbp), %rax
 833              		.loc 1 369 7
 834 022a 4839C2   		cmpq	%rax, %rdx
 835 022d 7416     		je	.L61
 370:/home/xingli/share/LiteOS_Lab/network/dtls/mbedtls/mbedtls-2.16.2/library/x509_crl.c ****     {
 371:/home/xingli/share/LiteOS_Lab/network/dtls/mbedtls/mbedtls-2.16.2/library/x509_crl.c ****         mbedtls_x509_crl_free( crl );
 836              		.loc 1 371 9
 837 022f 488B4590 		movq	-112(%rbp), %rax
 838 0233 4889C7   		movq	%rax, %rdi
 839 0236 E8000000 		call	mbedtls_x509_crl_free
 839      00
 372:/home/xingli/share/LiteOS_Lab/network/dtls/mbedtls/mbedtls-2.16.2/library/x509_crl.c ****         return( MBEDTLS_ERR_X509_INVALID_FORMAT +
 840              		.loc 1 372 15
 841 023b B81ADEFF 		movl	$-8678, %eax
 841      FF
 842 0240 E9C20400 		jmp	.L80
 842      00
 843              	.L61:
 373:/home/xingli/share/LiteOS_Lab/network/dtls/mbedtls/mbedtls-2.16.2/library/x509_crl.c ****                 MBEDTLS_ERR_ASN1_LENGTH_MISMATCH );
 374:/home/xingli/share/LiteOS_Lab/network/dtls/mbedtls/mbedtls-2.16.2/library/x509_crl.c ****     }
 375:/home/xingli/share/LiteOS_Lab/network/dtls/mbedtls/mbedtls-2.16.2/library/x509_crl.c **** 
 376:/home/xingli/share/LiteOS_Lab/network/dtls/mbedtls/mbedtls-2.16.2/library/x509_crl.c ****     /*
GAS LISTING /tmp/ccQRyzdw.s 			page 25


 377:/home/xingli/share/LiteOS_Lab/network/dtls/mbedtls/mbedtls-2.16.2/library/x509_crl.c ****      * TBSCertList  ::=  SEQUENCE  {
 378:/home/xingli/share/LiteOS_Lab/network/dtls/mbedtls/mbedtls-2.16.2/library/x509_crl.c ****      */
 379:/home/xingli/share/LiteOS_Lab/network/dtls/mbedtls/mbedtls-2.16.2/library/x509_crl.c ****     crl->tbs.p = p;
 844              		.loc 1 379 16
 845 0245 488B5588 		movq	-120(%rbp), %rdx
 846 0249 488B4590 		movq	-112(%rbp), %rax
 847 024d 48895028 		movq	%rdx, 40(%rax)
 380:/home/xingli/share/LiteOS_Lab/network/dtls/mbedtls/mbedtls-2.16.2/library/x509_crl.c **** 
 381:/home/xingli/share/LiteOS_Lab/network/dtls/mbedtls/mbedtls-2.16.2/library/x509_crl.c ****     if( ( ret = mbedtls_asn1_get_tag( &p, end, &len,
 848              		.loc 1 381 17
 849 0251 488D5580 		leaq	-128(%rbp), %rdx
 850 0255 488B7598 		movq	-104(%rbp), %rsi
 851 0259 488D4588 		leaq	-120(%rbp), %rax
 852 025d B9300000 		movl	$48, %ecx
 852      00
 853 0262 4889C7   		movq	%rax, %rdi
 854 0265 E8000000 		call	mbedtls_asn1_get_tag@PLT
 854      00
 855 026a 89857CFF 		movl	%eax, -132(%rbp)
 855      FFFF
 856              		.loc 1 381 7
 857 0270 83BD7CFF 		cmpl	$0, -132(%rbp)
 857      FFFF00
 858 0277 741C     		je	.L62
 382:/home/xingli/share/LiteOS_Lab/network/dtls/mbedtls/mbedtls-2.16.2/library/x509_crl.c ****             MBEDTLS_ASN1_CONSTRUCTED | MBEDTLS_ASN1_SEQUENCE ) ) != 0 )
 383:/home/xingli/share/LiteOS_Lab/network/dtls/mbedtls/mbedtls-2.16.2/library/x509_crl.c ****     {
 384:/home/xingli/share/LiteOS_Lab/network/dtls/mbedtls/mbedtls-2.16.2/library/x509_crl.c ****         mbedtls_x509_crl_free( crl );
 859              		.loc 1 384 9
 860 0279 488B4590 		movq	-112(%rbp), %rax
 861 027d 4889C7   		movq	%rax, %rdi
 862 0280 E8000000 		call	mbedtls_x509_crl_free
 862      00
 385:/home/xingli/share/LiteOS_Lab/network/dtls/mbedtls/mbedtls-2.16.2/library/x509_crl.c ****         return( MBEDTLS_ERR_X509_INVALID_FORMAT + ret );
 863              		.loc 1 385 49
 864 0285 8B857CFF 		movl	-132(%rbp), %eax
 864      FFFF
 865 028b 2D802100 		subl	$8576, %eax
 865      00
 866 0290 E9720400 		jmp	.L80
 866      00
 867              	.L62:
 386:/home/xingli/share/LiteOS_Lab/network/dtls/mbedtls/mbedtls-2.16.2/library/x509_crl.c ****     }
 387:/home/xingli/share/LiteOS_Lab/network/dtls/mbedtls/mbedtls-2.16.2/library/x509_crl.c **** 
 388:/home/xingli/share/LiteOS_Lab/network/dtls/mbedtls/mbedtls-2.16.2/library/x509_crl.c ****     end = p + len;
 868              		.loc 1 388 13
 869 0295 488B5588 		movq	-120(%rbp), %rdx
 870 0299 488B4580 		movq	-128(%rbp), %rax
 871              		.loc 1 388 9
 872 029d 4801D0   		addq	%rdx, %rax
 873 02a0 48894598 		movq	%rax, -104(%rbp)
 389:/home/xingli/share/LiteOS_Lab/network/dtls/mbedtls/mbedtls-2.16.2/library/x509_crl.c ****     crl->tbs.len = end - crl->tbs.p;
 874              		.loc 1 389 34
 875 02a4 488B4590 		movq	-112(%rbp), %rax
 876 02a8 488B4028 		movq	40(%rax), %rax
 877              		.loc 1 389 24
 878 02ac 488B5598 		movq	-104(%rbp), %rdx
 879 02b0 4829C2   		subq	%rax, %rdx
GAS LISTING /tmp/ccQRyzdw.s 			page 26


 880 02b3 4889D0   		movq	%rdx, %rax
 881 02b6 4889C2   		movq	%rax, %rdx
 882              		.loc 1 389 18
 883 02b9 488B4590 		movq	-112(%rbp), %rax
 884 02bd 48895020 		movq	%rdx, 32(%rax)
 390:/home/xingli/share/LiteOS_Lab/network/dtls/mbedtls/mbedtls-2.16.2/library/x509_crl.c **** 
 391:/home/xingli/share/LiteOS_Lab/network/dtls/mbedtls/mbedtls-2.16.2/library/x509_crl.c ****     /*
 392:/home/xingli/share/LiteOS_Lab/network/dtls/mbedtls/mbedtls-2.16.2/library/x509_crl.c ****      * Version  ::=  INTEGER  OPTIONAL {  v1(0), v2(1)  }
 393:/home/xingli/share/LiteOS_Lab/network/dtls/mbedtls/mbedtls-2.16.2/library/x509_crl.c ****      *               -- if present, MUST be v2
 394:/home/xingli/share/LiteOS_Lab/network/dtls/mbedtls/mbedtls-2.16.2/library/x509_crl.c ****      *
 395:/home/xingli/share/LiteOS_Lab/network/dtls/mbedtls/mbedtls-2.16.2/library/x509_crl.c ****      * signature            AlgorithmIdentifier
 396:/home/xingli/share/LiteOS_Lab/network/dtls/mbedtls/mbedtls-2.16.2/library/x509_crl.c ****      */
 397:/home/xingli/share/LiteOS_Lab/network/dtls/mbedtls/mbedtls-2.16.2/library/x509_crl.c ****     if( ( ret = x509_crl_get_version( &p, end, &crl->version ) ) != 0 ||
 885              		.loc 1 397 17
 886 02c1 488B4590 		movq	-112(%rbp), %rax
 887 02c5 488D5030 		leaq	48(%rax), %rdx
 888 02c9 488B4D98 		movq	-104(%rbp), %rcx
 889 02cd 488D4588 		leaq	-120(%rbp), %rax
 890 02d1 4889CE   		movq	%rcx, %rsi
 891 02d4 4889C7   		movq	%rax, %rdi
 892 02d7 E8000000 		call	x509_crl_get_version
 892      00
 893 02dc 89857CFF 		movl	%eax, -132(%rbp)
 893      FFFF
 894              		.loc 1 397 7
 895 02e2 83BD7CFF 		cmpl	$0, -132(%rbp)
 895      FFFF00
 896 02e9 7531     		jne	.L63
 398:/home/xingli/share/LiteOS_Lab/network/dtls/mbedtls/mbedtls-2.16.2/library/x509_crl.c ****         ( ret = mbedtls_x509_get_alg( &p, end, &crl->sig_oid, &sig_params1 ) ) != 0 )
 897              		.loc 1 398 17 discriminator 1
 898 02eb 488B4590 		movq	-112(%rbp), %rax
 899 02ef 488D7838 		leaq	56(%rax), %rdi
 900 02f3 488D55A0 		leaq	-96(%rbp), %rdx
 901 02f7 488B7598 		movq	-104(%rbp), %rsi
 902 02fb 488D4588 		leaq	-120(%rbp), %rax
 903 02ff 4889D1   		movq	%rdx, %rcx
 904 0302 4889FA   		movq	%rdi, %rdx
 905 0305 4889C7   		movq	%rax, %rdi
 906 0308 E8000000 		call	mbedtls_x509_get_alg@PLT
 906      00
 907 030d 89857CFF 		movl	%eax, -132(%rbp)
 907      FFFF
 397:/home/xingli/share/LiteOS_Lab/network/dtls/mbedtls/mbedtls-2.16.2/library/x509_crl.c ****         ( ret = mbedtls_x509_get_alg( &p, end, &crl->sig_oid, &sig_params1 ) ) != 0 )
 908              		.loc 1 397 71 discriminator 1
 909 0313 83BD7CFF 		cmpl	$0, -132(%rbp)
 909      FFFF00
 910 031a 7417     		je	.L64
 911              	.L63:
 399:/home/xingli/share/LiteOS_Lab/network/dtls/mbedtls/mbedtls-2.16.2/library/x509_crl.c ****     {
 400:/home/xingli/share/LiteOS_Lab/network/dtls/mbedtls/mbedtls-2.16.2/library/x509_crl.c ****         mbedtls_x509_crl_free( crl );
 912              		.loc 1 400 9
 913 031c 488B4590 		movq	-112(%rbp), %rax
 914 0320 4889C7   		movq	%rax, %rdi
 915 0323 E8000000 		call	mbedtls_x509_crl_free
 915      00
 401:/home/xingli/share/LiteOS_Lab/network/dtls/mbedtls/mbedtls-2.16.2/library/x509_crl.c ****         return( ret );
 916              		.loc 1 401 15
GAS LISTING /tmp/ccQRyzdw.s 			page 27


 917 0328 8B857CFF 		movl	-132(%rbp), %eax
 917      FFFF
 918 032e E9D40300 		jmp	.L80
 918      00
 919              	.L64:
 402:/home/xingli/share/LiteOS_Lab/network/dtls/mbedtls/mbedtls-2.16.2/library/x509_crl.c ****     }
 403:/home/xingli/share/LiteOS_Lab/network/dtls/mbedtls/mbedtls-2.16.2/library/x509_crl.c **** 
 404:/home/xingli/share/LiteOS_Lab/network/dtls/mbedtls/mbedtls-2.16.2/library/x509_crl.c ****     if( crl->version < 0 || crl->version > 1 )
 920              		.loc 1 404 12
 921 0333 488B4590 		movq	-112(%rbp), %rax
 922 0337 8B4030   		movl	48(%rax), %eax
 923              		.loc 1 404 7
 924 033a 85C0     		testl	%eax, %eax
 925 033c 780C     		js	.L65
 926              		.loc 1 404 32 discriminator 1
 927 033e 488B4590 		movq	-112(%rbp), %rax
 928 0342 8B4030   		movl	48(%rax), %eax
 929              		.loc 1 404 26 discriminator 1
 930 0345 83F801   		cmpl	$1, %eax
 931 0348 7E16     		jle	.L66
 932              	.L65:
 405:/home/xingli/share/LiteOS_Lab/network/dtls/mbedtls/mbedtls-2.16.2/library/x509_crl.c ****     {
 406:/home/xingli/share/LiteOS_Lab/network/dtls/mbedtls/mbedtls-2.16.2/library/x509_crl.c ****         mbedtls_x509_crl_free( crl );
 933              		.loc 1 406 9
 934 034a 488B4590 		movq	-112(%rbp), %rax
 935 034e 4889C7   		movq	%rax, %rdi
 936 0351 E8000000 		call	mbedtls_x509_crl_free
 936      00
 407:/home/xingli/share/LiteOS_Lab/network/dtls/mbedtls/mbedtls-2.16.2/library/x509_crl.c ****         return( MBEDTLS_ERR_X509_UNKNOWN_VERSION );
 937              		.loc 1 407 15
 938 0356 B880DAFF 		movl	$-9600, %eax
 938      FF
 939 035b E9A70300 		jmp	.L80
 939      00
 940              	.L66:
 408:/home/xingli/share/LiteOS_Lab/network/dtls/mbedtls/mbedtls-2.16.2/library/x509_crl.c ****     }
 409:/home/xingli/share/LiteOS_Lab/network/dtls/mbedtls/mbedtls-2.16.2/library/x509_crl.c **** 
 410:/home/xingli/share/LiteOS_Lab/network/dtls/mbedtls/mbedtls-2.16.2/library/x509_crl.c ****     crl->version++;
 941              		.loc 1 410 8
 942 0360 488B4590 		movq	-112(%rbp), %rax
 943 0364 8B4030   		movl	48(%rax), %eax
 944              		.loc 1 410 17
 945 0367 8D5001   		leal	1(%rax), %edx
 946 036a 488B4590 		movq	-112(%rbp), %rax
 947 036e 895030   		movl	%edx, 48(%rax)
 411:/home/xingli/share/LiteOS_Lab/network/dtls/mbedtls/mbedtls-2.16.2/library/x509_crl.c **** 
 412:/home/xingli/share/LiteOS_Lab/network/dtls/mbedtls/mbedtls-2.16.2/library/x509_crl.c ****     if( ( ret = mbedtls_x509_get_sig_alg( &crl->sig_oid, &sig_params1,
 948              		.loc 1 412 17
 949 0371 488B4590 		movq	-112(%rbp), %rax
 950 0375 488DB090 		leaq	400(%rax), %rsi
 950      010000
 951 037c 488B4590 		movq	-112(%rbp), %rax
 952 0380 488D888C 		leaq	396(%rax), %rcx
 952      010000
 953 0387 488B4590 		movq	-112(%rbp), %rax
 954 038b 488D9088 		leaq	392(%rax), %rdx
 954      010000
GAS LISTING /tmp/ccQRyzdw.s 			page 28


 955              		.loc 1 412 43
 956 0392 488B4590 		movq	-112(%rbp), %rax
 957 0396 488D7838 		leaq	56(%rax), %rdi
 958              		.loc 1 412 17
 959 039a 488D45A0 		leaq	-96(%rbp), %rax
 960 039e 4989F0   		movq	%rsi, %r8
 961 03a1 4889C6   		movq	%rax, %rsi
 962 03a4 E8000000 		call	mbedtls_x509_get_sig_alg@PLT
 962      00
 963 03a9 89857CFF 		movl	%eax, -132(%rbp)
 963      FFFF
 964              		.loc 1 412 7
 965 03af 83BD7CFF 		cmpl	$0, -132(%rbp)
 965      FFFF00
 966 03b6 7416     		je	.L67
 413:/home/xingli/share/LiteOS_Lab/network/dtls/mbedtls/mbedtls-2.16.2/library/x509_crl.c ****                                   &crl->sig_md, &crl->sig_pk,
 414:/home/xingli/share/LiteOS_Lab/network/dtls/mbedtls/mbedtls-2.16.2/library/x509_crl.c ****                                   &crl->sig_opts ) ) != 0 )
 415:/home/xingli/share/LiteOS_Lab/network/dtls/mbedtls/mbedtls-2.16.2/library/x509_crl.c ****     {
 416:/home/xingli/share/LiteOS_Lab/network/dtls/mbedtls/mbedtls-2.16.2/library/x509_crl.c ****         mbedtls_x509_crl_free( crl );
 967              		.loc 1 416 9
 968 03b8 488B4590 		movq	-112(%rbp), %rax
 969 03bc 4889C7   		movq	%rax, %rdi
 970 03bf E8000000 		call	mbedtls_x509_crl_free
 970      00
 417:/home/xingli/share/LiteOS_Lab/network/dtls/mbedtls/mbedtls-2.16.2/library/x509_crl.c ****         return( MBEDTLS_ERR_X509_UNKNOWN_SIG_ALG );
 971              		.loc 1 417 15
 972 03c4 B800DAFF 		movl	$-9728, %eax
 972      FF
 973 03c9 E9390300 		jmp	.L80
 973      00
 974              	.L67:
 418:/home/xingli/share/LiteOS_Lab/network/dtls/mbedtls/mbedtls-2.16.2/library/x509_crl.c ****     }
 419:/home/xingli/share/LiteOS_Lab/network/dtls/mbedtls/mbedtls-2.16.2/library/x509_crl.c **** 
 420:/home/xingli/share/LiteOS_Lab/network/dtls/mbedtls/mbedtls-2.16.2/library/x509_crl.c ****     /*
 421:/home/xingli/share/LiteOS_Lab/network/dtls/mbedtls/mbedtls-2.16.2/library/x509_crl.c ****      * issuer               Name
 422:/home/xingli/share/LiteOS_Lab/network/dtls/mbedtls/mbedtls-2.16.2/library/x509_crl.c ****      */
 423:/home/xingli/share/LiteOS_Lab/network/dtls/mbedtls/mbedtls-2.16.2/library/x509_crl.c ****     crl->issuer_raw.p = p;
 975              		.loc 1 423 23
 976 03ce 488B5588 		movq	-120(%rbp), %rdx
 977 03d2 488B4590 		movq	-112(%rbp), %rax
 978 03d6 48895060 		movq	%rdx, 96(%rax)
 424:/home/xingli/share/LiteOS_Lab/network/dtls/mbedtls/mbedtls-2.16.2/library/x509_crl.c **** 
 425:/home/xingli/share/LiteOS_Lab/network/dtls/mbedtls/mbedtls-2.16.2/library/x509_crl.c ****     if( ( ret = mbedtls_asn1_get_tag( &p, end, &len,
 979              		.loc 1 425 17
 980 03da 488D5580 		leaq	-128(%rbp), %rdx
 981 03de 488B7598 		movq	-104(%rbp), %rsi
 982 03e2 488D4588 		leaq	-120(%rbp), %rax
 983 03e6 B9300000 		movl	$48, %ecx
 983      00
 984 03eb 4889C7   		movq	%rax, %rdi
 985 03ee E8000000 		call	mbedtls_asn1_get_tag@PLT
 985      00
 986 03f3 89857CFF 		movl	%eax, -132(%rbp)
 986      FFFF
 987              		.loc 1 425 7
 988 03f9 83BD7CFF 		cmpl	$0, -132(%rbp)
 988      FFFF00
GAS LISTING /tmp/ccQRyzdw.s 			page 29


 989 0400 741C     		je	.L68
 426:/home/xingli/share/LiteOS_Lab/network/dtls/mbedtls/mbedtls-2.16.2/library/x509_crl.c ****             MBEDTLS_ASN1_CONSTRUCTED | MBEDTLS_ASN1_SEQUENCE ) ) != 0 )
 427:/home/xingli/share/LiteOS_Lab/network/dtls/mbedtls/mbedtls-2.16.2/library/x509_crl.c ****     {
 428:/home/xingli/share/LiteOS_Lab/network/dtls/mbedtls/mbedtls-2.16.2/library/x509_crl.c ****         mbedtls_x509_crl_free( crl );
 990              		.loc 1 428 9
 991 0402 488B4590 		movq	-112(%rbp), %rax
 992 0406 4889C7   		movq	%rax, %rdi
 993 0409 E8000000 		call	mbedtls_x509_crl_free
 993      00
 429:/home/xingli/share/LiteOS_Lab/network/dtls/mbedtls/mbedtls-2.16.2/library/x509_crl.c ****         return( MBEDTLS_ERR_X509_INVALID_FORMAT + ret );
 994              		.loc 1 429 49
 995 040e 8B857CFF 		movl	-132(%rbp), %eax
 995      FFFF
 996 0414 2D802100 		subl	$8576, %eax
 996      00
 997 0419 E9E90200 		jmp	.L80
 997      00
 998              	.L68:
 430:/home/xingli/share/LiteOS_Lab/network/dtls/mbedtls/mbedtls-2.16.2/library/x509_crl.c ****     }
 431:/home/xingli/share/LiteOS_Lab/network/dtls/mbedtls/mbedtls-2.16.2/library/x509_crl.c **** 
 432:/home/xingli/share/LiteOS_Lab/network/dtls/mbedtls/mbedtls-2.16.2/library/x509_crl.c ****     if( ( ret = mbedtls_x509_get_name( &p, p + len, &crl->issuer ) ) != 0 )
 999              		.loc 1 432 17
 1000 041e 488B4590 		movq	-112(%rbp), %rax
 1001 0422 488D5068 		leaq	104(%rax), %rdx
 1002 0426 488B4D88 		movq	-120(%rbp), %rcx
 1003 042a 488B4580 		movq	-128(%rbp), %rax
 1004              		.loc 1 432 46
 1005 042e 4801C1   		addq	%rax, %rcx
 1006              		.loc 1 432 17
 1007 0431 488D4588 		leaq	-120(%rbp), %rax
 1008 0435 4889CE   		movq	%rcx, %rsi
 1009 0438 4889C7   		movq	%rax, %rdi
 1010 043b E8000000 		call	mbedtls_x509_get_name@PLT
 1010      00
 1011 0440 89857CFF 		movl	%eax, -132(%rbp)
 1011      FFFF
 1012              		.loc 1 432 7
 1013 0446 83BD7CFF 		cmpl	$0, -132(%rbp)
 1013      FFFF00
 1014 044d 7417     		je	.L69
 433:/home/xingli/share/LiteOS_Lab/network/dtls/mbedtls/mbedtls-2.16.2/library/x509_crl.c ****     {
 434:/home/xingli/share/LiteOS_Lab/network/dtls/mbedtls/mbedtls-2.16.2/library/x509_crl.c ****         mbedtls_x509_crl_free( crl );
 1015              		.loc 1 434 9
 1016 044f 488B4590 		movq	-112(%rbp), %rax
 1017 0453 4889C7   		movq	%rax, %rdi
 1018 0456 E8000000 		call	mbedtls_x509_crl_free
 1018      00
 435:/home/xingli/share/LiteOS_Lab/network/dtls/mbedtls/mbedtls-2.16.2/library/x509_crl.c ****         return( ret );
 1019              		.loc 1 435 15
 1020 045b 8B857CFF 		movl	-132(%rbp), %eax
 1020      FFFF
 1021 0461 E9A10200 		jmp	.L80
 1021      00
 1022              	.L69:
 436:/home/xingli/share/LiteOS_Lab/network/dtls/mbedtls/mbedtls-2.16.2/library/x509_crl.c ****     }
 437:/home/xingli/share/LiteOS_Lab/network/dtls/mbedtls/mbedtls-2.16.2/library/x509_crl.c **** 
 438:/home/xingli/share/LiteOS_Lab/network/dtls/mbedtls/mbedtls-2.16.2/library/x509_crl.c ****     crl->issuer_raw.len = p - crl->issuer_raw.p;
GAS LISTING /tmp/ccQRyzdw.s 			page 30


 1023              		.loc 1 438 29
 1024 0466 488B5588 		movq	-120(%rbp), %rdx
 1025              		.loc 1 438 46
 1026 046a 488B4590 		movq	-112(%rbp), %rax
 1027 046e 488B4060 		movq	96(%rax), %rax
 1028              		.loc 1 438 29
 1029 0472 4829C2   		subq	%rax, %rdx
 1030 0475 4889D0   		movq	%rdx, %rax
 1031 0478 4889C2   		movq	%rax, %rdx
 1032              		.loc 1 438 25
 1033 047b 488B4590 		movq	-112(%rbp), %rax
 1034 047f 48895058 		movq	%rdx, 88(%rax)
 439:/home/xingli/share/LiteOS_Lab/network/dtls/mbedtls/mbedtls-2.16.2/library/x509_crl.c **** 
 440:/home/xingli/share/LiteOS_Lab/network/dtls/mbedtls/mbedtls-2.16.2/library/x509_crl.c ****     /*
 441:/home/xingli/share/LiteOS_Lab/network/dtls/mbedtls/mbedtls-2.16.2/library/x509_crl.c ****      * thisUpdate          Time
 442:/home/xingli/share/LiteOS_Lab/network/dtls/mbedtls/mbedtls-2.16.2/library/x509_crl.c ****      * nextUpdate          Time OPTIONAL
 443:/home/xingli/share/LiteOS_Lab/network/dtls/mbedtls/mbedtls-2.16.2/library/x509_crl.c ****      */
 444:/home/xingli/share/LiteOS_Lab/network/dtls/mbedtls/mbedtls-2.16.2/library/x509_crl.c ****     if( ( ret = mbedtls_x509_get_time( &p, end, &crl->this_update ) ) != 0 )
 1035              		.loc 1 444 17
 1036 0483 488B4590 		movq	-112(%rbp), %rax
 1037 0487 488D90A8 		leaq	168(%rax), %rdx
 1037      000000
 1038 048e 488B4D98 		movq	-104(%rbp), %rcx
 1039 0492 488D4588 		leaq	-120(%rbp), %rax
 1040 0496 4889CE   		movq	%rcx, %rsi
 1041 0499 4889C7   		movq	%rax, %rdi
 1042 049c E8000000 		call	mbedtls_x509_get_time@PLT
 1042      00
 1043 04a1 89857CFF 		movl	%eax, -132(%rbp)
 1043      FFFF
 1044              		.loc 1 444 7
 1045 04a7 83BD7CFF 		cmpl	$0, -132(%rbp)
 1045      FFFF00
 1046 04ae 7417     		je	.L70
 445:/home/xingli/share/LiteOS_Lab/network/dtls/mbedtls/mbedtls-2.16.2/library/x509_crl.c ****     {
 446:/home/xingli/share/LiteOS_Lab/network/dtls/mbedtls/mbedtls-2.16.2/library/x509_crl.c ****         mbedtls_x509_crl_free( crl );
 1047              		.loc 1 446 9
 1048 04b0 488B4590 		movq	-112(%rbp), %rax
 1049 04b4 4889C7   		movq	%rax, %rdi
 1050 04b7 E8000000 		call	mbedtls_x509_crl_free
 1050      00
 447:/home/xingli/share/LiteOS_Lab/network/dtls/mbedtls/mbedtls-2.16.2/library/x509_crl.c ****         return( ret );
 1051              		.loc 1 447 15
 1052 04bc 8B857CFF 		movl	-132(%rbp), %eax
 1052      FFFF
 1053 04c2 E9400200 		jmp	.L80
 1053      00
 1054              	.L70:
 448:/home/xingli/share/LiteOS_Lab/network/dtls/mbedtls/mbedtls-2.16.2/library/x509_crl.c ****     }
 449:/home/xingli/share/LiteOS_Lab/network/dtls/mbedtls/mbedtls-2.16.2/library/x509_crl.c **** 
 450:/home/xingli/share/LiteOS_Lab/network/dtls/mbedtls/mbedtls-2.16.2/library/x509_crl.c ****     if( ( ret = mbedtls_x509_get_time( &p, end, &crl->next_update ) ) != 0 )
 1055              		.loc 1 450 17
 1056 04c7 488B4590 		movq	-112(%rbp), %rax
 1057 04cb 488D90C0 		leaq	192(%rax), %rdx
 1057      000000
 1058 04d2 488B4D98 		movq	-104(%rbp), %rcx
 1059 04d6 488D4588 		leaq	-120(%rbp), %rax
GAS LISTING /tmp/ccQRyzdw.s 			page 31


 1060 04da 4889CE   		movq	%rcx, %rsi
 1061 04dd 4889C7   		movq	%rax, %rdi
 1062 04e0 E8000000 		call	mbedtls_x509_get_time@PLT
 1062      00
 1063 04e5 89857CFF 		movl	%eax, -132(%rbp)
 1063      FFFF
 1064              		.loc 1 450 7
 1065 04eb 83BD7CFF 		cmpl	$0, -132(%rbp)
 1065      FFFF00
 1066 04f2 742F     		je	.L71
 451:/home/xingli/share/LiteOS_Lab/network/dtls/mbedtls/mbedtls-2.16.2/library/x509_crl.c ****     {
 452:/home/xingli/share/LiteOS_Lab/network/dtls/mbedtls/mbedtls-2.16.2/library/x509_crl.c ****         if( ret != ( MBEDTLS_ERR_X509_INVALID_DATE +
 1067              		.loc 1 452 11
 1068 04f4 81BD7CFF 		cmpl	$-9314, -132(%rbp)
 1068      FFFF9EDB 
 1068      FFFF
 1069 04fe 7423     		je	.L71
 453:/home/xingli/share/LiteOS_Lab/network/dtls/mbedtls/mbedtls-2.16.2/library/x509_crl.c ****                         MBEDTLS_ERR_ASN1_UNEXPECTED_TAG ) &&
 1070              		.loc 1 453 59
 1071 0500 81BD7CFF 		cmpl	$-9312, -132(%rbp)
 1071      FFFFA0DB 
 1071      FFFF
 1072 050a 7417     		je	.L71
 454:/home/xingli/share/LiteOS_Lab/network/dtls/mbedtls/mbedtls-2.16.2/library/x509_crl.c ****             ret != ( MBEDTLS_ERR_X509_INVALID_DATE +
 455:/home/xingli/share/LiteOS_Lab/network/dtls/mbedtls/mbedtls-2.16.2/library/x509_crl.c ****                         MBEDTLS_ERR_ASN1_OUT_OF_DATA ) )
 456:/home/xingli/share/LiteOS_Lab/network/dtls/mbedtls/mbedtls-2.16.2/library/x509_crl.c ****         {
 457:/home/xingli/share/LiteOS_Lab/network/dtls/mbedtls/mbedtls-2.16.2/library/x509_crl.c ****             mbedtls_x509_crl_free( crl );
 1073              		.loc 1 457 13
 1074 050c 488B4590 		movq	-112(%rbp), %rax
 1075 0510 4889C7   		movq	%rax, %rdi
 1076 0513 E8000000 		call	mbedtls_x509_crl_free
 1076      00
 458:/home/xingli/share/LiteOS_Lab/network/dtls/mbedtls/mbedtls-2.16.2/library/x509_crl.c ****             return( ret );
 1077              		.loc 1 458 19
 1078 0518 8B857CFF 		movl	-132(%rbp), %eax
 1078      FFFF
 1079 051e E9E40100 		jmp	.L80
 1079      00
 1080              	.L71:
 459:/home/xingli/share/LiteOS_Lab/network/dtls/mbedtls/mbedtls-2.16.2/library/x509_crl.c ****         }
 460:/home/xingli/share/LiteOS_Lab/network/dtls/mbedtls/mbedtls-2.16.2/library/x509_crl.c ****     }
 461:/home/xingli/share/LiteOS_Lab/network/dtls/mbedtls/mbedtls-2.16.2/library/x509_crl.c **** 
 462:/home/xingli/share/LiteOS_Lab/network/dtls/mbedtls/mbedtls-2.16.2/library/x509_crl.c ****     /*
 463:/home/xingli/share/LiteOS_Lab/network/dtls/mbedtls/mbedtls-2.16.2/library/x509_crl.c ****      * revokedCertificates    SEQUENCE OF SEQUENCE   {
 464:/home/xingli/share/LiteOS_Lab/network/dtls/mbedtls/mbedtls-2.16.2/library/x509_crl.c ****      *      userCertificate        CertificateSerialNumber,
 465:/home/xingli/share/LiteOS_Lab/network/dtls/mbedtls/mbedtls-2.16.2/library/x509_crl.c ****      *      revocationDate         Time,
 466:/home/xingli/share/LiteOS_Lab/network/dtls/mbedtls/mbedtls-2.16.2/library/x509_crl.c ****      *      crlEntryExtensions     Extensions OPTIONAL
 467:/home/xingli/share/LiteOS_Lab/network/dtls/mbedtls/mbedtls-2.16.2/library/x509_crl.c ****      *                                   -- if present, MUST be v2
 468:/home/xingli/share/LiteOS_Lab/network/dtls/mbedtls/mbedtls-2.16.2/library/x509_crl.c ****      *                        } OPTIONAL
 469:/home/xingli/share/LiteOS_Lab/network/dtls/mbedtls/mbedtls-2.16.2/library/x509_crl.c ****      */
 470:/home/xingli/share/LiteOS_Lab/network/dtls/mbedtls/mbedtls-2.16.2/library/x509_crl.c ****     if( ( ret = x509_get_entries( &p, end, &crl->entry ) ) != 0 )
 1081              		.loc 1 470 17
 1082 0523 488B4590 		movq	-112(%rbp), %rax
 1083 0527 488D90D8 		leaq	216(%rax), %rdx
 1083      000000
 1084 052e 488B4D98 		movq	-104(%rbp), %rcx
 1085 0532 488D4588 		leaq	-120(%rbp), %rax
GAS LISTING /tmp/ccQRyzdw.s 			page 32


 1086 0536 4889CE   		movq	%rcx, %rsi
 1087 0539 4889C7   		movq	%rax, %rdi
 1088 053c E8000000 		call	x509_get_entries
 1088      00
 1089 0541 89857CFF 		movl	%eax, -132(%rbp)
 1089      FFFF
 1090              		.loc 1 470 7
 1091 0547 83BD7CFF 		cmpl	$0, -132(%rbp)
 1091      FFFF00
 1092 054e 7417     		je	.L72
 471:/home/xingli/share/LiteOS_Lab/network/dtls/mbedtls/mbedtls-2.16.2/library/x509_crl.c ****     {
 472:/home/xingli/share/LiteOS_Lab/network/dtls/mbedtls/mbedtls-2.16.2/library/x509_crl.c ****         mbedtls_x509_crl_free( crl );
 1093              		.loc 1 472 9
 1094 0550 488B4590 		movq	-112(%rbp), %rax
 1095 0554 4889C7   		movq	%rax, %rdi
 1096 0557 E8000000 		call	mbedtls_x509_crl_free
 1096      00
 473:/home/xingli/share/LiteOS_Lab/network/dtls/mbedtls/mbedtls-2.16.2/library/x509_crl.c ****         return( ret );
 1097              		.loc 1 473 15
 1098 055c 8B857CFF 		movl	-132(%rbp), %eax
 1098      FFFF
 1099 0562 E9A00100 		jmp	.L80
 1099      00
 1100              	.L72:
 474:/home/xingli/share/LiteOS_Lab/network/dtls/mbedtls/mbedtls-2.16.2/library/x509_crl.c ****     }
 475:/home/xingli/share/LiteOS_Lab/network/dtls/mbedtls/mbedtls-2.16.2/library/x509_crl.c **** 
 476:/home/xingli/share/LiteOS_Lab/network/dtls/mbedtls/mbedtls-2.16.2/library/x509_crl.c ****     /*
 477:/home/xingli/share/LiteOS_Lab/network/dtls/mbedtls/mbedtls-2.16.2/library/x509_crl.c ****      * crlExtensions          EXPLICIT Extensions OPTIONAL
 478:/home/xingli/share/LiteOS_Lab/network/dtls/mbedtls/mbedtls-2.16.2/library/x509_crl.c ****      *                              -- if present, MUST be v2
 479:/home/xingli/share/LiteOS_Lab/network/dtls/mbedtls/mbedtls-2.16.2/library/x509_crl.c ****      */
 480:/home/xingli/share/LiteOS_Lab/network/dtls/mbedtls/mbedtls-2.16.2/library/x509_crl.c ****     if( crl->version == 2 )
 1101              		.loc 1 480 12
 1102 0567 488B4590 		movq	-112(%rbp), %rax
 1103 056b 8B4030   		movl	48(%rax), %eax
 1104              		.loc 1 480 7
 1105 056e 83F802   		cmpl	$2, %eax
 1106 0571 7544     		jne	.L73
 481:/home/xingli/share/LiteOS_Lab/network/dtls/mbedtls/mbedtls-2.16.2/library/x509_crl.c ****     {
 482:/home/xingli/share/LiteOS_Lab/network/dtls/mbedtls/mbedtls-2.16.2/library/x509_crl.c ****         ret = x509_get_crl_ext( &p, end, &crl->crl_ext );
 1107              		.loc 1 482 15
 1108 0573 488B4590 		movq	-112(%rbp), %rax
 1109 0577 488D9040 		leaq	320(%rax), %rdx
 1109      010000
 1110 057e 488B4D98 		movq	-104(%rbp), %rcx
 1111 0582 488D4588 		leaq	-120(%rbp), %rax
 1112 0586 4889CE   		movq	%rcx, %rsi
 1113 0589 4889C7   		movq	%rax, %rdi
 1114 058c E8000000 		call	x509_get_crl_ext
 1114      00
 1115 0591 89857CFF 		movl	%eax, -132(%rbp)
 1115      FFFF
 483:/home/xingli/share/LiteOS_Lab/network/dtls/mbedtls/mbedtls-2.16.2/library/x509_crl.c **** 
 484:/home/xingli/share/LiteOS_Lab/network/dtls/mbedtls/mbedtls-2.16.2/library/x509_crl.c ****         if( ret != 0 )
 1116              		.loc 1 484 11
 1117 0597 83BD7CFF 		cmpl	$0, -132(%rbp)
 1117      FFFF00
 1118 059e 7417     		je	.L73
GAS LISTING /tmp/ccQRyzdw.s 			page 33


 485:/home/xingli/share/LiteOS_Lab/network/dtls/mbedtls/mbedtls-2.16.2/library/x509_crl.c ****         {
 486:/home/xingli/share/LiteOS_Lab/network/dtls/mbedtls/mbedtls-2.16.2/library/x509_crl.c ****             mbedtls_x509_crl_free( crl );
 1119              		.loc 1 486 13
 1120 05a0 488B4590 		movq	-112(%rbp), %rax
 1121 05a4 4889C7   		movq	%rax, %rdi
 1122 05a7 E8000000 		call	mbedtls_x509_crl_free
 1122      00
 487:/home/xingli/share/LiteOS_Lab/network/dtls/mbedtls/mbedtls-2.16.2/library/x509_crl.c ****             return( ret );
 1123              		.loc 1 487 19
 1124 05ac 8B857CFF 		movl	-132(%rbp), %eax
 1124      FFFF
 1125 05b2 E9500100 		jmp	.L80
 1125      00
 1126              	.L73:
 488:/home/xingli/share/LiteOS_Lab/network/dtls/mbedtls/mbedtls-2.16.2/library/x509_crl.c ****         }
 489:/home/xingli/share/LiteOS_Lab/network/dtls/mbedtls/mbedtls-2.16.2/library/x509_crl.c ****     }
 490:/home/xingli/share/LiteOS_Lab/network/dtls/mbedtls/mbedtls-2.16.2/library/x509_crl.c **** 
 491:/home/xingli/share/LiteOS_Lab/network/dtls/mbedtls/mbedtls-2.16.2/library/x509_crl.c ****     if( p != end )
 1127              		.loc 1 491 11
 1128 05b7 488B4588 		movq	-120(%rbp), %rax
 1129              		.loc 1 491 7
 1130 05bb 48394598 		cmpq	%rax, -104(%rbp)
 1131 05bf 7416     		je	.L74
 492:/home/xingli/share/LiteOS_Lab/network/dtls/mbedtls/mbedtls-2.16.2/library/x509_crl.c ****     {
 493:/home/xingli/share/LiteOS_Lab/network/dtls/mbedtls/mbedtls-2.16.2/library/x509_crl.c ****         mbedtls_x509_crl_free( crl );
 1132              		.loc 1 493 9
 1133 05c1 488B4590 		movq	-112(%rbp), %rax
 1134 05c5 4889C7   		movq	%rax, %rdi
 1135 05c8 E8000000 		call	mbedtls_x509_crl_free
 1135      00
 494:/home/xingli/share/LiteOS_Lab/network/dtls/mbedtls/mbedtls-2.16.2/library/x509_crl.c ****         return( MBEDTLS_ERR_X509_INVALID_FORMAT +
 1136              		.loc 1 494 15
 1137 05cd B81ADEFF 		movl	$-8678, %eax
 1137      FF
 1138 05d2 E9300100 		jmp	.L80
 1138      00
 1139              	.L74:
 495:/home/xingli/share/LiteOS_Lab/network/dtls/mbedtls/mbedtls-2.16.2/library/x509_crl.c ****                 MBEDTLS_ERR_ASN1_LENGTH_MISMATCH );
 496:/home/xingli/share/LiteOS_Lab/network/dtls/mbedtls/mbedtls-2.16.2/library/x509_crl.c ****     }
 497:/home/xingli/share/LiteOS_Lab/network/dtls/mbedtls/mbedtls-2.16.2/library/x509_crl.c **** 
 498:/home/xingli/share/LiteOS_Lab/network/dtls/mbedtls/mbedtls-2.16.2/library/x509_crl.c ****     end = crl->raw.p + crl->raw.len;
 1140              		.loc 1 498 19
 1141 05d7 488B4590 		movq	-112(%rbp), %rax
 1142 05db 488B5010 		movq	16(%rax), %rdx
 1143              		.loc 1 498 32
 1144 05df 488B4590 		movq	-112(%rbp), %rax
 1145 05e3 488B4008 		movq	8(%rax), %rax
 1146              		.loc 1 498 9
 1147 05e7 4801D0   		addq	%rdx, %rax
 1148 05ea 48894598 		movq	%rax, -104(%rbp)
 499:/home/xingli/share/LiteOS_Lab/network/dtls/mbedtls/mbedtls-2.16.2/library/x509_crl.c **** 
 500:/home/xingli/share/LiteOS_Lab/network/dtls/mbedtls/mbedtls-2.16.2/library/x509_crl.c ****     /*
 501:/home/xingli/share/LiteOS_Lab/network/dtls/mbedtls/mbedtls-2.16.2/library/x509_crl.c ****      *  signatureAlgorithm   AlgorithmIdentifier,
 502:/home/xingli/share/LiteOS_Lab/network/dtls/mbedtls/mbedtls-2.16.2/library/x509_crl.c ****      *  signatureValue       BIT STRING
 503:/home/xingli/share/LiteOS_Lab/network/dtls/mbedtls/mbedtls-2.16.2/library/x509_crl.c ****      */
 504:/home/xingli/share/LiteOS_Lab/network/dtls/mbedtls/mbedtls-2.16.2/library/x509_crl.c ****     if( ( ret = mbedtls_x509_get_alg( &p, end, &sig_oid2, &sig_params2 ) ) != 0 )
 1149              		.loc 1 504 17
GAS LISTING /tmp/ccQRyzdw.s 			page 34


 1150 05ee 488D4DC0 		leaq	-64(%rbp), %rcx
 1151 05f2 488D55E0 		leaq	-32(%rbp), %rdx
 1152 05f6 488B7598 		movq	-104(%rbp), %rsi
 1153 05fa 488D4588 		leaq	-120(%rbp), %rax
 1154 05fe 4889C7   		movq	%rax, %rdi
 1155 0601 E8000000 		call	mbedtls_x509_get_alg@PLT
 1155      00
 1156 0606 89857CFF 		movl	%eax, -132(%rbp)
 1156      FFFF
 1157              		.loc 1 504 7
 1158 060c 83BD7CFF 		cmpl	$0, -132(%rbp)
 1158      FFFF00
 1159 0613 7417     		je	.L75
 505:/home/xingli/share/LiteOS_Lab/network/dtls/mbedtls/mbedtls-2.16.2/library/x509_crl.c ****     {
 506:/home/xingli/share/LiteOS_Lab/network/dtls/mbedtls/mbedtls-2.16.2/library/x509_crl.c ****         mbedtls_x509_crl_free( crl );
 1160              		.loc 1 506 9
 1161 0615 488B4590 		movq	-112(%rbp), %rax
 1162 0619 4889C7   		movq	%rax, %rdi
 1163 061c E8000000 		call	mbedtls_x509_crl_free
 1163      00
 507:/home/xingli/share/LiteOS_Lab/network/dtls/mbedtls/mbedtls-2.16.2/library/x509_crl.c ****         return( ret );
 1164              		.loc 1 507 15
 1165 0621 8B857CFF 		movl	-132(%rbp), %eax
 1165      FFFF
 1166 0627 E9DB0000 		jmp	.L80
 1166      00
 1167              	.L75:
 508:/home/xingli/share/LiteOS_Lab/network/dtls/mbedtls/mbedtls-2.16.2/library/x509_crl.c ****     }
 509:/home/xingli/share/LiteOS_Lab/network/dtls/mbedtls/mbedtls-2.16.2/library/x509_crl.c **** 
 510:/home/xingli/share/LiteOS_Lab/network/dtls/mbedtls/mbedtls-2.16.2/library/x509_crl.c ****     if( crl->sig_oid.len != sig_oid2.len ||
 1168              		.loc 1 510 21
 1169 062c 488B4590 		movq	-112(%rbp), %rax
 1170 0630 488B5040 		movq	64(%rax), %rdx
 1171              		.loc 1 510 37
 1172 0634 488B45E8 		movq	-24(%rbp), %rax
 1173              		.loc 1 510 7
 1174 0638 4839C2   		cmpq	%rax, %rdx
 1175 063b 7554     		jne	.L76
 511:/home/xingli/share/LiteOS_Lab/network/dtls/mbedtls/mbedtls-2.16.2/library/x509_crl.c ****         memcmp( crl->sig_oid.p, sig_oid2.p, crl->sig_oid.len ) != 0 ||
 1176              		.loc 1 511 9 discriminator 1
 1177 063d 488B4590 		movq	-112(%rbp), %rax
 1178 0641 488B5040 		movq	64(%rax), %rdx
 1179              		.loc 1 511 41 discriminator 1
 1180 0645 488B4DF0 		movq	-16(%rbp), %rcx
 1181              		.loc 1 511 29 discriminator 1
 1182 0649 488B4590 		movq	-112(%rbp), %rax
 1183 064d 488B4048 		movq	72(%rax), %rax
 1184              		.loc 1 511 9 discriminator 1
 1185 0651 4889CE   		movq	%rcx, %rsi
 1186 0654 4889C7   		movq	%rax, %rdi
 1187 0657 E8000000 		call	memcmp@PLT
 1187      00
 510:/home/xingli/share/LiteOS_Lab/network/dtls/mbedtls/mbedtls-2.16.2/library/x509_crl.c ****         memcmp( crl->sig_oid.p, sig_oid2.p, crl->sig_oid.len ) != 0 ||
 1188              		.loc 1 510 42 discriminator 1
 1189 065c 85C0     		testl	%eax, %eax
 1190 065e 7531     		jne	.L76
 512:/home/xingli/share/LiteOS_Lab/network/dtls/mbedtls/mbedtls-2.16.2/library/x509_crl.c ****         sig_params1.len != sig_params2.len ||
GAS LISTING /tmp/ccQRyzdw.s 			page 35


 1191              		.loc 1 512 20
 1192 0660 488B55A8 		movq	-88(%rbp), %rdx
 1193              		.loc 1 512 39
 1194 0664 488B45C8 		movq	-56(%rbp), %rax
 511:/home/xingli/share/LiteOS_Lab/network/dtls/mbedtls/mbedtls-2.16.2/library/x509_crl.c ****         memcmp( crl->sig_oid.p, sig_oid2.p, crl->sig_oid.len ) != 0 ||
 1195              		.loc 1 511 69
 1196 0668 4839C2   		cmpq	%rax, %rdx
 1197 066b 7524     		jne	.L76
 513:/home/xingli/share/LiteOS_Lab/network/dtls/mbedtls/mbedtls-2.16.2/library/x509_crl.c ****         ( sig_params1.len != 0 &&
 1198              		.loc 1 513 22
 1199 066d 488B45A8 		movq	-88(%rbp), %rax
 512:/home/xingli/share/LiteOS_Lab/network/dtls/mbedtls/mbedtls-2.16.2/library/x509_crl.c ****         sig_params1.len != sig_params2.len ||
 1200              		.loc 1 512 44
 1201 0671 4885C0   		testq	%rax, %rax
 1202 0674 742E     		je	.L77
 514:/home/xingli/share/LiteOS_Lab/network/dtls/mbedtls/mbedtls-2.16.2/library/x509_crl.c ****           memcmp( sig_params1.p, sig_params2.p, sig_params1.len ) != 0 ) )
 1203              		.loc 1 514 11
 1204 0676 488B55A8 		movq	-88(%rbp), %rdx
 1205              		.loc 1 514 45
 1206 067a 488B4DD0 		movq	-48(%rbp), %rcx
 1207              		.loc 1 514 30
 1208 067e 488B45B0 		movq	-80(%rbp), %rax
 1209              		.loc 1 514 11
 1210 0682 4889CE   		movq	%rcx, %rsi
 1211 0685 4889C7   		movq	%rax, %rdi
 1212 0688 E8000000 		call	memcmp@PLT
 1212      00
 513:/home/xingli/share/LiteOS_Lab/network/dtls/mbedtls/mbedtls-2.16.2/library/x509_crl.c ****         ( sig_params1.len != 0 &&
 1213              		.loc 1 513 32
 1214 068d 85C0     		testl	%eax, %eax
 1215 068f 7413     		je	.L77
 1216              	.L76:
 515:/home/xingli/share/LiteOS_Lab/network/dtls/mbedtls/mbedtls-2.16.2/library/x509_crl.c ****     {
 516:/home/xingli/share/LiteOS_Lab/network/dtls/mbedtls/mbedtls-2.16.2/library/x509_crl.c ****         mbedtls_x509_crl_free( crl );
 1217              		.loc 1 516 9
 1218 0691 488B4590 		movq	-112(%rbp), %rax
 1219 0695 4889C7   		movq	%rax, %rdi
 1220 0698 E8000000 		call	mbedtls_x509_crl_free
 1220      00
 517:/home/xingli/share/LiteOS_Lab/network/dtls/mbedtls/mbedtls-2.16.2/library/x509_crl.c ****         return( MBEDTLS_ERR_X509_SIG_MISMATCH );
 1221              		.loc 1 517 15
 1222 069d B880D9FF 		movl	$-9856, %eax
 1222      FF
 1223 06a2 EB63     		jmp	.L80
 1224              	.L77:
 518:/home/xingli/share/LiteOS_Lab/network/dtls/mbedtls/mbedtls-2.16.2/library/x509_crl.c ****     }
 519:/home/xingli/share/LiteOS_Lab/network/dtls/mbedtls/mbedtls-2.16.2/library/x509_crl.c **** 
 520:/home/xingli/share/LiteOS_Lab/network/dtls/mbedtls/mbedtls-2.16.2/library/x509_crl.c ****     if( ( ret = mbedtls_x509_get_sig( &p, end, &crl->sig ) ) != 0 )
 1225              		.loc 1 520 17
 1226 06a4 488B4590 		movq	-112(%rbp), %rax
 1227 06a8 488D9070 		leaq	368(%rax), %rdx
 1227      010000
 1228 06af 488B4D98 		movq	-104(%rbp), %rcx
 1229 06b3 488D4588 		leaq	-120(%rbp), %rax
 1230 06b7 4889CE   		movq	%rcx, %rsi
 1231 06ba 4889C7   		movq	%rax, %rdi
 1232 06bd E8000000 		call	mbedtls_x509_get_sig@PLT
GAS LISTING /tmp/ccQRyzdw.s 			page 36


 1232      00
 1233 06c2 89857CFF 		movl	%eax, -132(%rbp)
 1233      FFFF
 1234              		.loc 1 520 7
 1235 06c8 83BD7CFF 		cmpl	$0, -132(%rbp)
 1235      FFFF00
 1236 06cf 7414     		je	.L78
 521:/home/xingli/share/LiteOS_Lab/network/dtls/mbedtls/mbedtls-2.16.2/library/x509_crl.c ****     {
 522:/home/xingli/share/LiteOS_Lab/network/dtls/mbedtls/mbedtls-2.16.2/library/x509_crl.c ****         mbedtls_x509_crl_free( crl );
 1237              		.loc 1 522 9
 1238 06d1 488B4590 		movq	-112(%rbp), %rax
 1239 06d5 4889C7   		movq	%rax, %rdi
 1240 06d8 E8000000 		call	mbedtls_x509_crl_free
 1240      00
 523:/home/xingli/share/LiteOS_Lab/network/dtls/mbedtls/mbedtls-2.16.2/library/x509_crl.c ****         return( ret );
 1241              		.loc 1 523 15
 1242 06dd 8B857CFF 		movl	-132(%rbp), %eax
 1242      FFFF
 1243 06e3 EB22     		jmp	.L80
 1244              	.L78:
 524:/home/xingli/share/LiteOS_Lab/network/dtls/mbedtls/mbedtls-2.16.2/library/x509_crl.c ****     }
 525:/home/xingli/share/LiteOS_Lab/network/dtls/mbedtls/mbedtls-2.16.2/library/x509_crl.c **** 
 526:/home/xingli/share/LiteOS_Lab/network/dtls/mbedtls/mbedtls-2.16.2/library/x509_crl.c ****     if( p != end )
 1245              		.loc 1 526 11
 1246 06e5 488B4588 		movq	-120(%rbp), %rax
 1247              		.loc 1 526 7
 1248 06e9 48394598 		cmpq	%rax, -104(%rbp)
 1249 06ed 7413     		je	.L79
 527:/home/xingli/share/LiteOS_Lab/network/dtls/mbedtls/mbedtls-2.16.2/library/x509_crl.c ****     {
 528:/home/xingli/share/LiteOS_Lab/network/dtls/mbedtls/mbedtls-2.16.2/library/x509_crl.c ****         mbedtls_x509_crl_free( crl );
 1250              		.loc 1 528 9
 1251 06ef 488B4590 		movq	-112(%rbp), %rax
 1252 06f3 4889C7   		movq	%rax, %rdi
 1253 06f6 E8000000 		call	mbedtls_x509_crl_free
 1253      00
 529:/home/xingli/share/LiteOS_Lab/network/dtls/mbedtls/mbedtls-2.16.2/library/x509_crl.c ****         return( MBEDTLS_ERR_X509_INVALID_FORMAT +
 1254              		.loc 1 529 15
 1255 06fb B81ADEFF 		movl	$-8678, %eax
 1255      FF
 1256 0700 EB05     		jmp	.L80
 1257              	.L79:
 530:/home/xingli/share/LiteOS_Lab/network/dtls/mbedtls/mbedtls-2.16.2/library/x509_crl.c ****                 MBEDTLS_ERR_ASN1_LENGTH_MISMATCH );
 531:/home/xingli/share/LiteOS_Lab/network/dtls/mbedtls/mbedtls-2.16.2/library/x509_crl.c ****     }
 532:/home/xingli/share/LiteOS_Lab/network/dtls/mbedtls/mbedtls-2.16.2/library/x509_crl.c **** 
 533:/home/xingli/share/LiteOS_Lab/network/dtls/mbedtls/mbedtls-2.16.2/library/x509_crl.c ****     return( 0 );
 1258              		.loc 1 533 11
 1259 0702 B8000000 		movl	$0, %eax
 1259      00
 1260              	.L80:
 534:/home/xingli/share/LiteOS_Lab/network/dtls/mbedtls/mbedtls-2.16.2/library/x509_crl.c **** }
 1261              		.loc 1 534 1 discriminator 1
 1262 0707 488B4DF8 		movq	-8(%rbp), %rcx
 1263 070b 6448330C 		xorq	%fs:40, %rcx
 1263      25280000 
 1263      00
 1264 0714 7405     		je	.L81
 1265              		.loc 1 534 1 is_stmt 0
GAS LISTING /tmp/ccQRyzdw.s 			page 37


 1266 0716 E8000000 		call	__stack_chk_fail@PLT
 1266      00
 1267              	.L81:
 1268 071b C9       		leave
 1269              	.LCFI14:
 1270              		.cfi_def_cfa 7, 8
 1271 071c C3       		ret
 1272              		.cfi_endproc
 1273              	.LFE20:
 1275              		.section	.rodata
 1276              	.LC0:
 1277 0000 2D2D2D2D 		.string	"-----END X509 CRL-----"
 1277      2D454E44 
 1277      20583530 
 1277      39204352 
 1277      4C2D2D2D 
 1278              	.LC1:
 1279 0017 2D2D2D2D 		.string	"-----BEGIN X509 CRL-----"
 1279      2D424547 
 1279      494E2058 
 1279      35303920 
 1279      43524C2D 
 1280              		.section	.text.mbedtls_x509_crl_parse,"ax",@progbits
 1281              		.globl	mbedtls_x509_crl_parse
 1283              	mbedtls_x509_crl_parse:
 1284              	.LFB21:
 535:/home/xingli/share/LiteOS_Lab/network/dtls/mbedtls/mbedtls-2.16.2/library/x509_crl.c **** 
 536:/home/xingli/share/LiteOS_Lab/network/dtls/mbedtls/mbedtls-2.16.2/library/x509_crl.c **** /*
 537:/home/xingli/share/LiteOS_Lab/network/dtls/mbedtls/mbedtls-2.16.2/library/x509_crl.c ****  * Parse one or more CRLs and add them to the chained list
 538:/home/xingli/share/LiteOS_Lab/network/dtls/mbedtls/mbedtls-2.16.2/library/x509_crl.c ****  */
 539:/home/xingli/share/LiteOS_Lab/network/dtls/mbedtls/mbedtls-2.16.2/library/x509_crl.c **** int mbedtls_x509_crl_parse( mbedtls_x509_crl *chain, const unsigned char *buf, size_t buflen )
 540:/home/xingli/share/LiteOS_Lab/network/dtls/mbedtls/mbedtls-2.16.2/library/x509_crl.c **** {
 1285              		.loc 1 540 1 is_stmt 1
 1286              		.cfi_startproc
 1287 0000 F30F1EFA 		endbr64
 1288 0004 55       		pushq	%rbp
 1289              	.LCFI15:
 1290              		.cfi_def_cfa_offset 16
 1291              		.cfi_offset 6, -16
 1292 0005 4889E5   		movq	%rsp, %rbp
 1293              	.LCFI16:
 1294              		.cfi_def_cfa_register 6
 1295 0008 4883EC50 		subq	$80, %rsp
 1296 000c 48897DC8 		movq	%rdi, -56(%rbp)
 1297 0010 488975C0 		movq	%rsi, -64(%rbp)
 1298 0014 488955B8 		movq	%rdx, -72(%rbp)
 1299              		.loc 1 540 1
 1300 0018 64488B04 		movq	%fs:40, %rax
 1300      25280000 
 1300      00
 1301 0021 488945F8 		movq	%rax, -8(%rbp)
 1302 0025 31C0     		xorl	%eax, %eax
 541:/home/xingli/share/LiteOS_Lab/network/dtls/mbedtls/mbedtls-2.16.2/library/x509_crl.c **** #if defined(MBEDTLS_PEM_PARSE_C)
 542:/home/xingli/share/LiteOS_Lab/network/dtls/mbedtls/mbedtls-2.16.2/library/x509_crl.c ****     int ret;
 543:/home/xingli/share/LiteOS_Lab/network/dtls/mbedtls/mbedtls-2.16.2/library/x509_crl.c ****     size_t use_len;
 544:/home/xingli/share/LiteOS_Lab/network/dtls/mbedtls/mbedtls-2.16.2/library/x509_crl.c ****     mbedtls_pem_context pem;
 545:/home/xingli/share/LiteOS_Lab/network/dtls/mbedtls/mbedtls-2.16.2/library/x509_crl.c ****     int is_pem = 0;
GAS LISTING /tmp/ccQRyzdw.s 			page 38


 1303              		.loc 1 545 9
 1304 0027 C745D400 		movl	$0, -44(%rbp)
 1304      000000
 546:/home/xingli/share/LiteOS_Lab/network/dtls/mbedtls/mbedtls-2.16.2/library/x509_crl.c **** 
 547:/home/xingli/share/LiteOS_Lab/network/dtls/mbedtls/mbedtls-2.16.2/library/x509_crl.c ****     if( chain == NULL || buf == NULL )
 1305              		.loc 1 547 7
 1306 002e 48837DC8 		cmpq	$0, -56(%rbp)
 1306      00
 1307 0033 7407     		je	.L83
 1308              		.loc 1 547 23 discriminator 1
 1309 0035 48837DC0 		cmpq	$0, -64(%rbp)
 1309      00
 1310 003a 750A     		jne	.L84
 1311              	.L83:
 548:/home/xingli/share/LiteOS_Lab/network/dtls/mbedtls/mbedtls-2.16.2/library/x509_crl.c ****         return( MBEDTLS_ERR_X509_BAD_INPUT_DATA );
 1312              		.loc 1 548 15
 1313 003c B800D8FF 		movl	$-10240, %eax
 1313      FF
 1314 0041 E9150100 		jmp	.L93
 1314      00
 1315              	.L84:
 549:/home/xingli/share/LiteOS_Lab/network/dtls/mbedtls/mbedtls-2.16.2/library/x509_crl.c **** 
 550:/home/xingli/share/LiteOS_Lab/network/dtls/mbedtls/mbedtls-2.16.2/library/x509_crl.c ****     do
 551:/home/xingli/share/LiteOS_Lab/network/dtls/mbedtls/mbedtls-2.16.2/library/x509_crl.c ****     {
 552:/home/xingli/share/LiteOS_Lab/network/dtls/mbedtls/mbedtls-2.16.2/library/x509_crl.c ****         mbedtls_pem_init( &pem );
 1316              		.loc 1 552 9
 1317 0046 488D45E0 		leaq	-32(%rbp), %rax
 1318 004a 4889C7   		movq	%rax, %rdi
 1319 004d E8000000 		call	mbedtls_pem_init@PLT
 1319      00
 553:/home/xingli/share/LiteOS_Lab/network/dtls/mbedtls/mbedtls-2.16.2/library/x509_crl.c **** 
 554:/home/xingli/share/LiteOS_Lab/network/dtls/mbedtls/mbedtls-2.16.2/library/x509_crl.c ****         // Avoid calling mbedtls_pem_read_buffer() on non-null-terminated
 555:/home/xingli/share/LiteOS_Lab/network/dtls/mbedtls/mbedtls-2.16.2/library/x509_crl.c ****         // string
 556:/home/xingli/share/LiteOS_Lab/network/dtls/mbedtls/mbedtls-2.16.2/library/x509_crl.c ****         if( buflen == 0 || buf[buflen - 1] != '\0' )
 1320              		.loc 1 556 11
 1321 0052 48837DB8 		cmpq	$0, -72(%rbp)
 1321      00
 1322 0057 7416     		je	.L86
 1323              		.loc 1 556 31 discriminator 1
 1324 0059 488B45B8 		movq	-72(%rbp), %rax
 1325 005d 488D50FF 		leaq	-1(%rax), %rdx
 1326 0061 488B45C0 		movq	-64(%rbp), %rax
 1327 0065 4801D0   		addq	%rdx, %rax
 1328 0068 0FB600   		movzbl	(%rax), %eax
 1329              		.loc 1 556 25 discriminator 1
 1330 006b 84C0     		testb	%al, %al
 1331 006d 7409     		je	.L87
 1332              	.L86:
 557:/home/xingli/share/LiteOS_Lab/network/dtls/mbedtls/mbedtls-2.16.2/library/x509_crl.c ****             ret = MBEDTLS_ERR_PEM_NO_HEADER_FOOTER_PRESENT;
 1333              		.loc 1 557 17
 1334 006f C745D080 		movl	$-4224, -48(%rbp)
 1334      EFFFFF
 1335 0076 EB3D     		jmp	.L88
 1336              	.L87:
 558:/home/xingli/share/LiteOS_Lab/network/dtls/mbedtls/mbedtls-2.16.2/library/x509_crl.c ****         else
 559:/home/xingli/share/LiteOS_Lab/network/dtls/mbedtls/mbedtls-2.16.2/library/x509_crl.c ****             ret = mbedtls_pem_read_buffer( &pem,
 1337              		.loc 1 559 19
GAS LISTING /tmp/ccQRyzdw.s 			page 39


 1338 0078 488B55C0 		movq	-64(%rbp), %rdx
 1339 007c 488D45E0 		leaq	-32(%rbp), %rax
 1340 0080 4883EC08 		subq	$8, %rsp
 1341 0084 488D4DD8 		leaq	-40(%rbp), %rcx
 1342 0088 51       		pushq	%rcx
 1343 0089 41B90000 		movl	$0, %r9d
 1343      0000
 1344 008f 41B80000 		movl	$0, %r8d
 1344      0000
 1345 0095 4889D1   		movq	%rdx, %rcx
 1346 0098 488D1500 		leaq	.LC0(%rip), %rdx
 1346      000000
 1347 009f 488D3500 		leaq	.LC1(%rip), %rsi
 1347      000000
 1348 00a6 4889C7   		movq	%rax, %rdi
 1349 00a9 E8000000 		call	mbedtls_pem_read_buffer@PLT
 1349      00
 1350 00ae 4883C410 		addq	$16, %rsp
 1351 00b2 8945D0   		movl	%eax, -48(%rbp)
 1352              	.L88:
 560:/home/xingli/share/LiteOS_Lab/network/dtls/mbedtls/mbedtls-2.16.2/library/x509_crl.c ****                                            "-----BEGIN X509 CRL-----",
 561:/home/xingli/share/LiteOS_Lab/network/dtls/mbedtls/mbedtls-2.16.2/library/x509_crl.c ****                                            "-----END X509 CRL-----",
 562:/home/xingli/share/LiteOS_Lab/network/dtls/mbedtls/mbedtls-2.16.2/library/x509_crl.c ****                                             buf, NULL, 0, &use_len );
 563:/home/xingli/share/LiteOS_Lab/network/dtls/mbedtls/mbedtls-2.16.2/library/x509_crl.c **** 
 564:/home/xingli/share/LiteOS_Lab/network/dtls/mbedtls/mbedtls-2.16.2/library/x509_crl.c ****         if( ret == 0 )
 1353              		.loc 1 564 11
 1354 00b5 837DD000 		cmpl	$0, -48(%rbp)
 1355 00b9 7548     		jne	.L89
 565:/home/xingli/share/LiteOS_Lab/network/dtls/mbedtls/mbedtls-2.16.2/library/x509_crl.c ****         {
 566:/home/xingli/share/LiteOS_Lab/network/dtls/mbedtls/mbedtls-2.16.2/library/x509_crl.c ****             /*
 567:/home/xingli/share/LiteOS_Lab/network/dtls/mbedtls/mbedtls-2.16.2/library/x509_crl.c ****              * Was PEM encoded
 568:/home/xingli/share/LiteOS_Lab/network/dtls/mbedtls/mbedtls-2.16.2/library/x509_crl.c ****              */
 569:/home/xingli/share/LiteOS_Lab/network/dtls/mbedtls/mbedtls-2.16.2/library/x509_crl.c ****             is_pem = 1;
 1356              		.loc 1 569 20
 1357 00bb C745D401 		movl	$1, -44(%rbp)
 1357      000000
 570:/home/xingli/share/LiteOS_Lab/network/dtls/mbedtls/mbedtls-2.16.2/library/x509_crl.c **** 
 571:/home/xingli/share/LiteOS_Lab/network/dtls/mbedtls/mbedtls-2.16.2/library/x509_crl.c ****             buflen -= use_len;
 1358              		.loc 1 571 20
 1359 00c2 488B45D8 		movq	-40(%rbp), %rax
 1360 00c6 482945B8 		subq	%rax, -72(%rbp)
 572:/home/xingli/share/LiteOS_Lab/network/dtls/mbedtls/mbedtls-2.16.2/library/x509_crl.c ****             buf += use_len;
 1361              		.loc 1 572 17
 1362 00ca 488B45D8 		movq	-40(%rbp), %rax
 1363 00ce 480145C0 		addq	%rax, -64(%rbp)
 573:/home/xingli/share/LiteOS_Lab/network/dtls/mbedtls/mbedtls-2.16.2/library/x509_crl.c **** 
 574:/home/xingli/share/LiteOS_Lab/network/dtls/mbedtls/mbedtls-2.16.2/library/x509_crl.c ****             if( ( ret = mbedtls_x509_crl_parse_der( chain,
 1364              		.loc 1 574 25
 1365 00d2 488B55E8 		movq	-24(%rbp), %rdx
 575:/home/xingli/share/LiteOS_Lab/network/dtls/mbedtls/mbedtls-2.16.2/library/x509_crl.c ****                                             pem.buf, pem.buflen ) ) != 0 )
 1366              		.loc 1 575 48
 1367 00d6 488B4DE0 		movq	-32(%rbp), %rcx
 574:/home/xingli/share/LiteOS_Lab/network/dtls/mbedtls/mbedtls-2.16.2/library/x509_crl.c ****                                             pem.buf, pem.buflen ) ) != 0 )
 1368              		.loc 1 574 25
 1369 00da 488B45C8 		movq	-56(%rbp), %rax
 1370 00de 4889CE   		movq	%rcx, %rsi
 1371 00e1 4889C7   		movq	%rax, %rdi
GAS LISTING /tmp/ccQRyzdw.s 			page 40


 1372 00e4 E8000000 		call	mbedtls_x509_crl_parse_der
 1372      00
 1373 00e9 8945D0   		movl	%eax, -48(%rbp)
 574:/home/xingli/share/LiteOS_Lab/network/dtls/mbedtls/mbedtls-2.16.2/library/x509_crl.c ****                                             pem.buf, pem.buflen ) ) != 0 )
 1374              		.loc 1 574 15
 1375 00ec 837DD000 		cmpl	$0, -48(%rbp)
 1376 00f0 7428     		je	.L90
 576:/home/xingli/share/LiteOS_Lab/network/dtls/mbedtls/mbedtls-2.16.2/library/x509_crl.c ****             {
 577:/home/xingli/share/LiteOS_Lab/network/dtls/mbedtls/mbedtls-2.16.2/library/x509_crl.c ****                 mbedtls_pem_free( &pem );
 1377              		.loc 1 577 17
 1378 00f2 488D45E0 		leaq	-32(%rbp), %rax
 1379 00f6 4889C7   		movq	%rax, %rdi
 1380 00f9 E8000000 		call	mbedtls_pem_free@PLT
 1380      00
 578:/home/xingli/share/LiteOS_Lab/network/dtls/mbedtls/mbedtls-2.16.2/library/x509_crl.c ****                 return( ret );
 1381              		.loc 1 578 23
 1382 00fe 8B45D0   		movl	-48(%rbp), %eax
 1383 0101 EB58     		jmp	.L93
 1384              	.L89:
 579:/home/xingli/share/LiteOS_Lab/network/dtls/mbedtls/mbedtls-2.16.2/library/x509_crl.c ****             }
 580:/home/xingli/share/LiteOS_Lab/network/dtls/mbedtls/mbedtls-2.16.2/library/x509_crl.c ****         }
 581:/home/xingli/share/LiteOS_Lab/network/dtls/mbedtls/mbedtls-2.16.2/library/x509_crl.c ****         else if( is_pem )
 1385              		.loc 1 581 16
 1386 0103 837DD400 		cmpl	$0, -44(%rbp)
 1387 0107 7411     		je	.L90
 582:/home/xingli/share/LiteOS_Lab/network/dtls/mbedtls/mbedtls-2.16.2/library/x509_crl.c ****         {
 583:/home/xingli/share/LiteOS_Lab/network/dtls/mbedtls/mbedtls-2.16.2/library/x509_crl.c ****             mbedtls_pem_free( &pem );
 1388              		.loc 1 583 13
 1389 0109 488D45E0 		leaq	-32(%rbp), %rax
 1390 010d 4889C7   		movq	%rax, %rdi
 1391 0110 E8000000 		call	mbedtls_pem_free@PLT
 1391      00
 584:/home/xingli/share/LiteOS_Lab/network/dtls/mbedtls/mbedtls-2.16.2/library/x509_crl.c ****             return( ret );
 1392              		.loc 1 584 19
 1393 0115 8B45D0   		movl	-48(%rbp), %eax
 1394 0118 EB41     		jmp	.L93
 1395              	.L90:
 585:/home/xingli/share/LiteOS_Lab/network/dtls/mbedtls/mbedtls-2.16.2/library/x509_crl.c ****         }
 586:/home/xingli/share/LiteOS_Lab/network/dtls/mbedtls/mbedtls-2.16.2/library/x509_crl.c **** 
 587:/home/xingli/share/LiteOS_Lab/network/dtls/mbedtls/mbedtls-2.16.2/library/x509_crl.c ****         mbedtls_pem_free( &pem );
 1396              		.loc 1 587 9
 1397 011a 488D45E0 		leaq	-32(%rbp), %rax
 1398 011e 4889C7   		movq	%rax, %rdi
 1399 0121 E8000000 		call	mbedtls_pem_free@PLT
 1399      00
 588:/home/xingli/share/LiteOS_Lab/network/dtls/mbedtls/mbedtls-2.16.2/library/x509_crl.c ****     }
 589:/home/xingli/share/LiteOS_Lab/network/dtls/mbedtls/mbedtls-2.16.2/library/x509_crl.c ****     /* In the PEM case, buflen is 1 at the end, for the terminated NULL byte.
 590:/home/xingli/share/LiteOS_Lab/network/dtls/mbedtls/mbedtls-2.16.2/library/x509_crl.c ****      * And a valid CRL cannot be less than 1 byte anyway. */
 591:/home/xingli/share/LiteOS_Lab/network/dtls/mbedtls/mbedtls-2.16.2/library/x509_crl.c ****     while( is_pem && buflen > 1 );
 1400              		.loc 1 591 5
 1401 0126 837DD400 		cmpl	$0, -44(%rbp)
 1402 012a 740B     		je	.L91
 1403              		.loc 1 591 19 discriminator 1
 1404 012c 48837DB8 		cmpq	$1, -72(%rbp)
 1404      01
 1405 0131 0F870FFF 		ja	.L84
 1405      FFFF
GAS LISTING /tmp/ccQRyzdw.s 			page 41


 1406              	.L91:
 592:/home/xingli/share/LiteOS_Lab/network/dtls/mbedtls/mbedtls-2.16.2/library/x509_crl.c **** 
 593:/home/xingli/share/LiteOS_Lab/network/dtls/mbedtls/mbedtls-2.16.2/library/x509_crl.c ****     if( is_pem )
 1407              		.loc 1 593 7
 1408 0137 837DD400 		cmpl	$0, -44(%rbp)
 1409 013b 7407     		je	.L92
 594:/home/xingli/share/LiteOS_Lab/network/dtls/mbedtls/mbedtls-2.16.2/library/x509_crl.c ****         return( 0 );
 1410              		.loc 1 594 15
 1411 013d B8000000 		movl	$0, %eax
 1411      00
 1412 0142 EB17     		jmp	.L93
 1413              	.L92:
 595:/home/xingli/share/LiteOS_Lab/network/dtls/mbedtls/mbedtls-2.16.2/library/x509_crl.c ****     else
 596:/home/xingli/share/LiteOS_Lab/network/dtls/mbedtls/mbedtls-2.16.2/library/x509_crl.c **** #endif /* MBEDTLS_PEM_PARSE_C */
 597:/home/xingli/share/LiteOS_Lab/network/dtls/mbedtls/mbedtls-2.16.2/library/x509_crl.c ****         return( mbedtls_x509_crl_parse_der( chain, buf, buflen ) );
 1414              		.loc 1 597 17
 1415 0144 488B55B8 		movq	-72(%rbp), %rdx
 1416 0148 488B4DC0 		movq	-64(%rbp), %rcx
 1417 014c 488B45C8 		movq	-56(%rbp), %rax
 1418 0150 4889CE   		movq	%rcx, %rsi
 1419 0153 4889C7   		movq	%rax, %rdi
 1420 0156 E8000000 		call	mbedtls_x509_crl_parse_der
 1420      00
 1421              	.L93:
 598:/home/xingli/share/LiteOS_Lab/network/dtls/mbedtls/mbedtls-2.16.2/library/x509_crl.c **** }
 1422              		.loc 1 598 1 discriminator 1
 1423 015b 488B75F8 		movq	-8(%rbp), %rsi
 1424 015f 64483334 		xorq	%fs:40, %rsi
 1424      25280000 
 1424      00
 1425 0168 7405     		je	.L94
 1426              		.loc 1 598 1 is_stmt 0
 1427 016a E8000000 		call	__stack_chk_fail@PLT
 1427      00
 1428              	.L94:
 1429 016f C9       		leave
 1430              	.LCFI17:
 1431              		.cfi_def_cfa 7, 8
 1432 0170 C3       		ret
 1433              		.cfi_endproc
 1434              	.LFE21:
 1436              		.section	.rodata
 1437              	.LC2:
 1438 0030 25734352 		.string	"%sCRL version   : %d"
 1438      4C207665 
 1438      7273696F 
 1438      6E202020 
 1438      3A202564 
 1439              	.LC3:
 1440 0045 0A257369 		.string	"\n%sissuer name   : "
 1440      73737565 
 1440      72206E61 
 1440      6D652020 
 1440      203A2000 
 1441 0059 00000000 		.align 8
 1441      000000
 1442              	.LC4:
GAS LISTING /tmp/ccQRyzdw.s 			page 42


 1443 0060 0A257374 		.string	"\n%sthis update   : %04d-%02d-%02d %02d:%02d:%02d"
 1443      68697320 
 1443      75706461 
 1443      74652020 
 1443      203A2025 
 1444 0091 00000000 		.align 8
 1444      000000
 1445              	.LC5:
 1446 0098 0A25736E 		.string	"\n%snext update   : %04d-%02d-%02d %02d:%02d:%02d"
 1446      65787420 
 1446      75706461 
 1446      74652020 
 1446      203A2025 
 1447              	.LC6:
 1448 00c9 0A257352 		.string	"\n%sRevoked certificates:"
 1448      65766F6B 
 1448      65642063 
 1448      65727469 
 1448      66696361 
 1449              	.LC7:
 1450 00e2 0A257373 		.string	"\n%sserial number: "
 1450      65726961 
 1450      6C206E75 
 1450      6D626572 
 1450      3A2000
 1451 00f5 000000   		.align 8
 1452              	.LC8:
 1453 00f8 20726576 		.string	" revocation date: %04d-%02d-%02d %02d:%02d:%02d"
 1453      6F636174 
 1453      696F6E20 
 1453      64617465 
 1453      3A202530 
 1454              	.LC9:
 1455 0128 0A257373 		.string	"\n%ssigned using  : "
 1455      69676E65 
 1455      64207573 
 1455      696E6720 
 1455      203A2000 
 1456              	.LC10:
 1457 013c 0A00     		.string	"\n"
 1458              		.section	.text.mbedtls_x509_crl_info,"ax",@progbits
 1459              		.globl	mbedtls_x509_crl_info
 1461              	mbedtls_x509_crl_info:
 1462              	.LFB22:
 599:/home/xingli/share/LiteOS_Lab/network/dtls/mbedtls/mbedtls-2.16.2/library/x509_crl.c **** 
 600:/home/xingli/share/LiteOS_Lab/network/dtls/mbedtls/mbedtls-2.16.2/library/x509_crl.c **** #if defined(MBEDTLS_FS_IO)
 601:/home/xingli/share/LiteOS_Lab/network/dtls/mbedtls/mbedtls-2.16.2/library/x509_crl.c **** /*
 602:/home/xingli/share/LiteOS_Lab/network/dtls/mbedtls/mbedtls-2.16.2/library/x509_crl.c ****  * Load one or more CRLs and add them to the chained list
 603:/home/xingli/share/LiteOS_Lab/network/dtls/mbedtls/mbedtls-2.16.2/library/x509_crl.c ****  */
 604:/home/xingli/share/LiteOS_Lab/network/dtls/mbedtls/mbedtls-2.16.2/library/x509_crl.c **** int mbedtls_x509_crl_parse_file( mbedtls_x509_crl *chain, const char *path )
 605:/home/xingli/share/LiteOS_Lab/network/dtls/mbedtls/mbedtls-2.16.2/library/x509_crl.c **** {
 606:/home/xingli/share/LiteOS_Lab/network/dtls/mbedtls/mbedtls-2.16.2/library/x509_crl.c ****     int ret;
 607:/home/xingli/share/LiteOS_Lab/network/dtls/mbedtls/mbedtls-2.16.2/library/x509_crl.c ****     size_t n;
 608:/home/xingli/share/LiteOS_Lab/network/dtls/mbedtls/mbedtls-2.16.2/library/x509_crl.c ****     unsigned char *buf;
 609:/home/xingli/share/LiteOS_Lab/network/dtls/mbedtls/mbedtls-2.16.2/library/x509_crl.c **** 
 610:/home/xingli/share/LiteOS_Lab/network/dtls/mbedtls/mbedtls-2.16.2/library/x509_crl.c ****     if( ( ret = mbedtls_pk_load_file( path, &buf, &n ) ) != 0 )
 611:/home/xingli/share/LiteOS_Lab/network/dtls/mbedtls/mbedtls-2.16.2/library/x509_crl.c ****         return( ret );
GAS LISTING /tmp/ccQRyzdw.s 			page 43


 612:/home/xingli/share/LiteOS_Lab/network/dtls/mbedtls/mbedtls-2.16.2/library/x509_crl.c **** 
 613:/home/xingli/share/LiteOS_Lab/network/dtls/mbedtls/mbedtls-2.16.2/library/x509_crl.c ****     ret = mbedtls_x509_crl_parse( chain, buf, n );
 614:/home/xingli/share/LiteOS_Lab/network/dtls/mbedtls/mbedtls-2.16.2/library/x509_crl.c **** 
 615:/home/xingli/share/LiteOS_Lab/network/dtls/mbedtls/mbedtls-2.16.2/library/x509_crl.c ****     mbedtls_platform_zeroize( buf, n );
 616:/home/xingli/share/LiteOS_Lab/network/dtls/mbedtls/mbedtls-2.16.2/library/x509_crl.c ****     mbedtls_free( buf );
 617:/home/xingli/share/LiteOS_Lab/network/dtls/mbedtls/mbedtls-2.16.2/library/x509_crl.c **** 
 618:/home/xingli/share/LiteOS_Lab/network/dtls/mbedtls/mbedtls-2.16.2/library/x509_crl.c ****     return( ret );
 619:/home/xingli/share/LiteOS_Lab/network/dtls/mbedtls/mbedtls-2.16.2/library/x509_crl.c **** }
 620:/home/xingli/share/LiteOS_Lab/network/dtls/mbedtls/mbedtls-2.16.2/library/x509_crl.c **** #endif /* MBEDTLS_FS_IO */
 621:/home/xingli/share/LiteOS_Lab/network/dtls/mbedtls/mbedtls-2.16.2/library/x509_crl.c **** 
 622:/home/xingli/share/LiteOS_Lab/network/dtls/mbedtls/mbedtls-2.16.2/library/x509_crl.c **** /*
 623:/home/xingli/share/LiteOS_Lab/network/dtls/mbedtls/mbedtls-2.16.2/library/x509_crl.c ****  * Return an informational string about the certificate.
 624:/home/xingli/share/LiteOS_Lab/network/dtls/mbedtls/mbedtls-2.16.2/library/x509_crl.c ****  */
 625:/home/xingli/share/LiteOS_Lab/network/dtls/mbedtls/mbedtls-2.16.2/library/x509_crl.c **** #define BEFORE_COLON    14
 626:/home/xingli/share/LiteOS_Lab/network/dtls/mbedtls/mbedtls-2.16.2/library/x509_crl.c **** #define BC              "14"
 627:/home/xingli/share/LiteOS_Lab/network/dtls/mbedtls/mbedtls-2.16.2/library/x509_crl.c **** /*
 628:/home/xingli/share/LiteOS_Lab/network/dtls/mbedtls/mbedtls-2.16.2/library/x509_crl.c ****  * Return an informational string about the CRL.
 629:/home/xingli/share/LiteOS_Lab/network/dtls/mbedtls/mbedtls-2.16.2/library/x509_crl.c ****  */
 630:/home/xingli/share/LiteOS_Lab/network/dtls/mbedtls/mbedtls-2.16.2/library/x509_crl.c **** int mbedtls_x509_crl_info( char *buf, size_t size, const char *prefix,
 631:/home/xingli/share/LiteOS_Lab/network/dtls/mbedtls/mbedtls-2.16.2/library/x509_crl.c ****                    const mbedtls_x509_crl *crl )
 632:/home/xingli/share/LiteOS_Lab/network/dtls/mbedtls/mbedtls-2.16.2/library/x509_crl.c **** {
 1463              		.loc 1 632 1 is_stmt 1
 1464              		.cfi_startproc
 1465 0000 F30F1EFA 		endbr64
 1466 0004 55       		pushq	%rbp
 1467              	.LCFI18:
 1468              		.cfi_def_cfa_offset 16
 1469              		.cfi_offset 6, -16
 1470 0005 4889E5   		movq	%rsp, %rbp
 1471              	.LCFI19:
 1472              		.cfi_def_cfa_register 6
 1473 0008 53       		pushq	%rbx
 1474 0009 4883EC58 		subq	$88, %rsp
 1475              		.cfi_offset 3, -24
 1476 000d 48897DB8 		movq	%rdi, -72(%rbp)
 1477 0011 488975B0 		movq	%rsi, -80(%rbp)
 1478 0015 488955A8 		movq	%rdx, -88(%rbp)
 1479 0019 48894DA0 		movq	%rcx, -96(%rbp)
 1480              		.loc 1 632 1
 1481 001d 64488B04 		movq	%fs:40, %rax
 1481      25280000 
 1481      00
 1482 0026 488945E8 		movq	%rax, -24(%rbp)
 1483 002a 31C0     		xorl	%eax, %eax
 633:/home/xingli/share/LiteOS_Lab/network/dtls/mbedtls/mbedtls-2.16.2/library/x509_crl.c ****     int ret;
 634:/home/xingli/share/LiteOS_Lab/network/dtls/mbedtls/mbedtls-2.16.2/library/x509_crl.c ****     size_t n;
 635:/home/xingli/share/LiteOS_Lab/network/dtls/mbedtls/mbedtls-2.16.2/library/x509_crl.c ****     char *p;
 636:/home/xingli/share/LiteOS_Lab/network/dtls/mbedtls/mbedtls-2.16.2/library/x509_crl.c ****     const mbedtls_x509_crl_entry *entry;
 637:/home/xingli/share/LiteOS_Lab/network/dtls/mbedtls/mbedtls-2.16.2/library/x509_crl.c **** 
 638:/home/xingli/share/LiteOS_Lab/network/dtls/mbedtls/mbedtls-2.16.2/library/x509_crl.c ****     p = buf;
 1484              		.loc 1 638 7
 1485 002c 488B45B8 		movq	-72(%rbp), %rax
 1486 0030 488945D8 		movq	%rax, -40(%rbp)
 639:/home/xingli/share/LiteOS_Lab/network/dtls/mbedtls/mbedtls-2.16.2/library/x509_crl.c ****     n = size;
 1487              		.loc 1 639 7
 1488 0034 488B45B0 		movq	-80(%rbp), %rax
 1489 0038 488945D0 		movq	%rax, -48(%rbp)
GAS LISTING /tmp/ccQRyzdw.s 			page 44


 640:/home/xingli/share/LiteOS_Lab/network/dtls/mbedtls/mbedtls-2.16.2/library/x509_crl.c **** 
 641:/home/xingli/share/LiteOS_Lab/network/dtls/mbedtls/mbedtls-2.16.2/library/x509_crl.c ****     ret = mbedtls_snprintf( p, n, "%sCRL version   : %d",
 1490              		.loc 1 641 11
 1491 003c 4C8B0D00 		movq	mbedtls_snprintf(%rip), %r9
 1491      000000
 1492 0043 488B45A0 		movq	-96(%rbp), %rax
 1493 0047 8B4830   		movl	48(%rax), %ecx
 1494 004a 488B55A8 		movq	-88(%rbp), %rdx
 1495 004e 488B75D0 		movq	-48(%rbp), %rsi
 1496 0052 488B45D8 		movq	-40(%rbp), %rax
 1497 0056 4189C8   		movl	%ecx, %r8d
 1498 0059 4889D1   		movq	%rdx, %rcx
 1499 005c 488D1500 		leaq	.LC2(%rip), %rdx
 1499      000000
 1500 0063 4889C7   		movq	%rax, %rdi
 1501 0066 B8000000 		movl	$0, %eax
 1501      00
 1502 006b 41FFD1   		call	*%r9
 1503              	.LVL0:
 1504 006e 8945CC   		movl	%eax, -52(%rbp)
 642:/home/xingli/share/LiteOS_Lab/network/dtls/mbedtls/mbedtls-2.16.2/library/x509_crl.c ****                                prefix, crl->version );
 643:/home/xingli/share/LiteOS_Lab/network/dtls/mbedtls/mbedtls-2.16.2/library/x509_crl.c ****     MBEDTLS_X509_SAFE_SNPRINTF;
 1505              		.loc 1 643 5
 1506 0071 837DCC00 		cmpl	$0, -52(%rbp)
 1507 0075 780B     		js	.L96
 1508              		.loc 1 643 5 is_stmt 0 discriminator 2
 1509 0077 8B45CC   		movl	-52(%rbp), %eax
 1510 007a 4898     		cltq
 1511 007c 483945D0 		cmpq	%rax, -48(%rbp)
 1512 0080 770A     		ja	.L97
 1513              	.L96:
 1514              		.loc 1 643 5 discriminator 3
 1515 0082 B880D6FF 		movl	$-10624, %eax
 1515      FF
 1516 0087 E9EA0400 		jmp	.L98
 1516      00
 1517              	.L97:
 1518              		.loc 1 643 5 discriminator 4
 1519 008c 8B45CC   		movl	-52(%rbp), %eax
 1520 008f 4898     		cltq
 1521 0091 482945D0 		subq	%rax, -48(%rbp)
 1522 0095 8B45CC   		movl	-52(%rbp), %eax
 1523 0098 4898     		cltq
 1524 009a 480145D8 		addq	%rax, -40(%rbp)
 644:/home/xingli/share/LiteOS_Lab/network/dtls/mbedtls/mbedtls-2.16.2/library/x509_crl.c **** 
 645:/home/xingli/share/LiteOS_Lab/network/dtls/mbedtls/mbedtls-2.16.2/library/x509_crl.c ****     ret = mbedtls_snprintf( p, n, "\n%sissuer name   : ", prefix );
 1525              		.loc 1 645 11 is_stmt 1 discriminator 4
 1526 009e 4C8B0500 		movq	mbedtls_snprintf(%rip), %r8
 1526      000000
 1527 00a5 488B55A8 		movq	-88(%rbp), %rdx
 1528 00a9 488B75D0 		movq	-48(%rbp), %rsi
 1529 00ad 488B45D8 		movq	-40(%rbp), %rax
 1530 00b1 4889D1   		movq	%rdx, %rcx
 1531 00b4 488D1500 		leaq	.LC3(%rip), %rdx
 1531      000000
 1532 00bb 4889C7   		movq	%rax, %rdi
 1533 00be B8000000 		movl	$0, %eax
GAS LISTING /tmp/ccQRyzdw.s 			page 45


 1533      00
 1534 00c3 41FFD0   		call	*%r8
 1535              	.LVL1:
 1536 00c6 8945CC   		movl	%eax, -52(%rbp)
 646:/home/xingli/share/LiteOS_Lab/network/dtls/mbedtls/mbedtls-2.16.2/library/x509_crl.c ****     MBEDTLS_X509_SAFE_SNPRINTF;
 1537              		.loc 1 646 5 discriminator 4
 1538 00c9 837DCC00 		cmpl	$0, -52(%rbp)
 1539 00cd 780B     		js	.L99
 1540              		.loc 1 646 5 is_stmt 0 discriminator 2
 1541 00cf 8B45CC   		movl	-52(%rbp), %eax
 1542 00d2 4898     		cltq
 1543 00d4 483945D0 		cmpq	%rax, -48(%rbp)
 1544 00d8 770A     		ja	.L100
 1545              	.L99:
 1546              		.loc 1 646 5 discriminator 3
 1547 00da B880D6FF 		movl	$-10624, %eax
 1547      FF
 1548 00df E9920400 		jmp	.L98
 1548      00
 1549              	.L100:
 1550              		.loc 1 646 5 discriminator 4
 1551 00e4 8B45CC   		movl	-52(%rbp), %eax
 1552 00e7 4898     		cltq
 1553 00e9 482945D0 		subq	%rax, -48(%rbp)
 1554 00ed 8B45CC   		movl	-52(%rbp), %eax
 1555 00f0 4898     		cltq
 1556 00f2 480145D8 		addq	%rax, -40(%rbp)
 647:/home/xingli/share/LiteOS_Lab/network/dtls/mbedtls/mbedtls-2.16.2/library/x509_crl.c ****     ret = mbedtls_x509_dn_gets( p, n, &crl->issuer );
 1557              		.loc 1 647 11 is_stmt 1 discriminator 4
 1558 00f6 488B45A0 		movq	-96(%rbp), %rax
 1559 00fa 488D5068 		leaq	104(%rax), %rdx
 1560 00fe 488B4DD0 		movq	-48(%rbp), %rcx
 1561 0102 488B45D8 		movq	-40(%rbp), %rax
 1562 0106 4889CE   		movq	%rcx, %rsi
 1563 0109 4889C7   		movq	%rax, %rdi
 1564 010c E8000000 		call	mbedtls_x509_dn_gets@PLT
 1564      00
 1565 0111 8945CC   		movl	%eax, -52(%rbp)
 648:/home/xingli/share/LiteOS_Lab/network/dtls/mbedtls/mbedtls-2.16.2/library/x509_crl.c ****     MBEDTLS_X509_SAFE_SNPRINTF;
 1566              		.loc 1 648 5 discriminator 4
 1567 0114 837DCC00 		cmpl	$0, -52(%rbp)
 1568 0118 780B     		js	.L101
 1569              		.loc 1 648 5 is_stmt 0 discriminator 2
 1570 011a 8B45CC   		movl	-52(%rbp), %eax
 1571 011d 4898     		cltq
 1572 011f 483945D0 		cmpq	%rax, -48(%rbp)
 1573 0123 770A     		ja	.L102
 1574              	.L101:
 1575              		.loc 1 648 5 discriminator 3
 1576 0125 B880D6FF 		movl	$-10624, %eax
 1576      FF
 1577 012a E9470400 		jmp	.L98
 1577      00
 1578              	.L102:
 1579              		.loc 1 648 5 discriminator 4
 1580 012f 8B45CC   		movl	-52(%rbp), %eax
 1581 0132 4898     		cltq
GAS LISTING /tmp/ccQRyzdw.s 			page 46


 1582 0134 482945D0 		subq	%rax, -48(%rbp)
 1583 0138 8B45CC   		movl	-52(%rbp), %eax
 1584 013b 4898     		cltq
 1585 013d 480145D8 		addq	%rax, -40(%rbp)
 649:/home/xingli/share/LiteOS_Lab/network/dtls/mbedtls/mbedtls-2.16.2/library/x509_crl.c **** 
 650:/home/xingli/share/LiteOS_Lab/network/dtls/mbedtls/mbedtls-2.16.2/library/x509_crl.c ****     ret = mbedtls_snprintf( p, n, "\n%sthis update   : " \
 1586              		.loc 1 650 11 is_stmt 1 discriminator 4
 1587 0141 4C8B1500 		movq	mbedtls_snprintf(%rip), %r10
 1587      000000
 1588 0148 488B45A0 		movq	-96(%rbp), %rax
 1589 014c 448B88BC 		movl	188(%rax), %r9d
 1589      000000
 1590 0153 488B45A0 		movq	-96(%rbp), %rax
 1591 0157 448B80B8 		movl	184(%rax), %r8d
 1591      000000
 1592 015e 488B45A0 		movq	-96(%rbp), %rax
 1593 0162 8BB8B400 		movl	180(%rax), %edi
 1593      0000
 1594 0168 488B45A0 		movq	-96(%rbp), %rax
 1595 016c 8B88B000 		movl	176(%rax), %ecx
 1595      0000
 1596 0172 488B45A0 		movq	-96(%rbp), %rax
 1597 0176 8B98AC00 		movl	172(%rax), %ebx
 1597      0000
 1598 017c 488B45A0 		movq	-96(%rbp), %rax
 1599 0180 448B98A8 		movl	168(%rax), %r11d
 1599      000000
 1600 0187 488B55A8 		movq	-88(%rbp), %rdx
 1601 018b 488B75D0 		movq	-48(%rbp), %rsi
 1602 018f 488B45D8 		movq	-40(%rbp), %rax
 1603 0193 4151     		pushq	%r9
 1604 0195 4150     		pushq	%r8
 1605 0197 57       		pushq	%rdi
 1606 0198 51       		pushq	%rcx
 1607 0199 4189D9   		movl	%ebx, %r9d
 1608 019c 4589D8   		movl	%r11d, %r8d
 1609 019f 4889D1   		movq	%rdx, %rcx
 1610 01a2 488D1500 		leaq	.LC4(%rip), %rdx
 1610      000000
 1611 01a9 4889C7   		movq	%rax, %rdi
 1612 01ac B8000000 		movl	$0, %eax
 1612      00
 1613 01b1 41FFD2   		call	*%r10
 1614              	.LVL2:
 1615 01b4 4883C420 		addq	$32, %rsp
 1616 01b8 8945CC   		movl	%eax, -52(%rbp)
 651:/home/xingli/share/LiteOS_Lab/network/dtls/mbedtls/mbedtls-2.16.2/library/x509_crl.c ****                    "%04d-%02d-%02d %02d:%02d:%02d", prefix,
 652:/home/xingli/share/LiteOS_Lab/network/dtls/mbedtls/mbedtls-2.16.2/library/x509_crl.c ****                    crl->this_update.year, crl->this_update.mon,
 653:/home/xingli/share/LiteOS_Lab/network/dtls/mbedtls/mbedtls-2.16.2/library/x509_crl.c ****                    crl->this_update.day,  crl->this_update.hour,
 654:/home/xingli/share/LiteOS_Lab/network/dtls/mbedtls/mbedtls-2.16.2/library/x509_crl.c ****                    crl->this_update.min,  crl->this_update.sec );
 655:/home/xingli/share/LiteOS_Lab/network/dtls/mbedtls/mbedtls-2.16.2/library/x509_crl.c ****     MBEDTLS_X509_SAFE_SNPRINTF;
 1617              		.loc 1 655 5 discriminator 4
 1618 01bb 837DCC00 		cmpl	$0, -52(%rbp)
 1619 01bf 780B     		js	.L103
 1620              		.loc 1 655 5 is_stmt 0 discriminator 2
 1621 01c1 8B45CC   		movl	-52(%rbp), %eax
 1622 01c4 4898     		cltq
GAS LISTING /tmp/ccQRyzdw.s 			page 47


 1623 01c6 483945D0 		cmpq	%rax, -48(%rbp)
 1624 01ca 770A     		ja	.L104
 1625              	.L103:
 1626              		.loc 1 655 5 discriminator 3
 1627 01cc B880D6FF 		movl	$-10624, %eax
 1627      FF
 1628 01d1 E9A00300 		jmp	.L98
 1628      00
 1629              	.L104:
 1630              		.loc 1 655 5 discriminator 4
 1631 01d6 8B45CC   		movl	-52(%rbp), %eax
 1632 01d9 4898     		cltq
 1633 01db 482945D0 		subq	%rax, -48(%rbp)
 1634 01df 8B45CC   		movl	-52(%rbp), %eax
 1635 01e2 4898     		cltq
 1636 01e4 480145D8 		addq	%rax, -40(%rbp)
 656:/home/xingli/share/LiteOS_Lab/network/dtls/mbedtls/mbedtls-2.16.2/library/x509_crl.c **** 
 657:/home/xingli/share/LiteOS_Lab/network/dtls/mbedtls/mbedtls-2.16.2/library/x509_crl.c ****     ret = mbedtls_snprintf( p, n, "\n%snext update   : " \
 1637              		.loc 1 657 11 is_stmt 1 discriminator 4
 1638 01e8 4C8B1500 		movq	mbedtls_snprintf(%rip), %r10
 1638      000000
 1639 01ef 488B45A0 		movq	-96(%rbp), %rax
 1640 01f3 448B88D4 		movl	212(%rax), %r9d
 1640      000000
 1641 01fa 488B45A0 		movq	-96(%rbp), %rax
 1642 01fe 448B80D0 		movl	208(%rax), %r8d
 1642      000000
 1643 0205 488B45A0 		movq	-96(%rbp), %rax
 1644 0209 8BB8CC00 		movl	204(%rax), %edi
 1644      0000
 1645 020f 488B45A0 		movq	-96(%rbp), %rax
 1646 0213 8B88C800 		movl	200(%rax), %ecx
 1646      0000
 1647 0219 488B45A0 		movq	-96(%rbp), %rax
 1648 021d 8B98C400 		movl	196(%rax), %ebx
 1648      0000
 1649 0223 488B45A0 		movq	-96(%rbp), %rax
 1650 0227 448B98C0 		movl	192(%rax), %r11d
 1650      000000
 1651 022e 488B55A8 		movq	-88(%rbp), %rdx
 1652 0232 488B75D0 		movq	-48(%rbp), %rsi
 1653 0236 488B45D8 		movq	-40(%rbp), %rax
 1654 023a 4151     		pushq	%r9
 1655 023c 4150     		pushq	%r8
 1656 023e 57       		pushq	%rdi
 1657 023f 51       		pushq	%rcx
 1658 0240 4189D9   		movl	%ebx, %r9d
 1659 0243 4589D8   		movl	%r11d, %r8d
 1660 0246 4889D1   		movq	%rdx, %rcx
 1661 0249 488D1500 		leaq	.LC5(%rip), %rdx
 1661      000000
 1662 0250 4889C7   		movq	%rax, %rdi
 1663 0253 B8000000 		movl	$0, %eax
 1663      00
 1664 0258 41FFD2   		call	*%r10
 1665              	.LVL3:
 1666 025b 4883C420 		addq	$32, %rsp
GAS LISTING /tmp/ccQRyzdw.s 			page 48


 1667 025f 8945CC   		movl	%eax, -52(%rbp)
 658:/home/xingli/share/LiteOS_Lab/network/dtls/mbedtls/mbedtls-2.16.2/library/x509_crl.c ****                    "%04d-%02d-%02d %02d:%02d:%02d", prefix,
 659:/home/xingli/share/LiteOS_Lab/network/dtls/mbedtls/mbedtls-2.16.2/library/x509_crl.c ****                    crl->next_update.year, crl->next_update.mon,
 660:/home/xingli/share/LiteOS_Lab/network/dtls/mbedtls/mbedtls-2.16.2/library/x509_crl.c ****                    crl->next_update.day,  crl->next_update.hour,
 661:/home/xingli/share/LiteOS_Lab/network/dtls/mbedtls/mbedtls-2.16.2/library/x509_crl.c ****                    crl->next_update.min,  crl->next_update.sec );
 662:/home/xingli/share/LiteOS_Lab/network/dtls/mbedtls/mbedtls-2.16.2/library/x509_crl.c ****     MBEDTLS_X509_SAFE_SNPRINTF;
 1668              		.loc 1 662 5 discriminator 4
 1669 0262 837DCC00 		cmpl	$0, -52(%rbp)
 1670 0266 780B     		js	.L105
 1671              		.loc 1 662 5 is_stmt 0 discriminator 2
 1672 0268 8B45CC   		movl	-52(%rbp), %eax
 1673 026b 4898     		cltq
 1674 026d 483945D0 		cmpq	%rax, -48(%rbp)
 1675 0271 770A     		ja	.L106
 1676              	.L105:
 1677              		.loc 1 662 5 discriminator 3
 1678 0273 B880D6FF 		movl	$-10624, %eax
 1678      FF
 1679 0278 E9F90200 		jmp	.L98
 1679      00
 1680              	.L106:
 1681              		.loc 1 662 5 discriminator 4
 1682 027d 8B45CC   		movl	-52(%rbp), %eax
 1683 0280 4898     		cltq
 1684 0282 482945D0 		subq	%rax, -48(%rbp)
 1685 0286 8B45CC   		movl	-52(%rbp), %eax
 1686 0289 4898     		cltq
 1687 028b 480145D8 		addq	%rax, -40(%rbp)
 663:/home/xingli/share/LiteOS_Lab/network/dtls/mbedtls/mbedtls-2.16.2/library/x509_crl.c **** 
 664:/home/xingli/share/LiteOS_Lab/network/dtls/mbedtls/mbedtls-2.16.2/library/x509_crl.c ****     entry = &crl->entry;
 1688              		.loc 1 664 11 is_stmt 1 discriminator 4
 1689 028f 488B45A0 		movq	-96(%rbp), %rax
 1690 0293 4805D800 		addq	$216, %rax
 1690      0000
 1691 0299 488945E0 		movq	%rax, -32(%rbp)
 665:/home/xingli/share/LiteOS_Lab/network/dtls/mbedtls/mbedtls-2.16.2/library/x509_crl.c **** 
 666:/home/xingli/share/LiteOS_Lab/network/dtls/mbedtls/mbedtls-2.16.2/library/x509_crl.c ****     ret = mbedtls_snprintf( p, n, "\n%sRevoked certificates:",
 1692              		.loc 1 666 11 discriminator 4
 1693 029d 4C8B0500 		movq	mbedtls_snprintf(%rip), %r8
 1693      000000
 1694 02a4 488B55A8 		movq	-88(%rbp), %rdx
 1695 02a8 488B75D0 		movq	-48(%rbp), %rsi
 1696 02ac 488B45D8 		movq	-40(%rbp), %rax
 1697 02b0 4889D1   		movq	%rdx, %rcx
 1698 02b3 488D1500 		leaq	.LC6(%rip), %rdx
 1698      000000
 1699 02ba 4889C7   		movq	%rax, %rdi
 1700 02bd B8000000 		movl	$0, %eax
 1700      00
 1701 02c2 41FFD0   		call	*%r8
 1702              	.LVL4:
 1703 02c5 8945CC   		movl	%eax, -52(%rbp)
 667:/home/xingli/share/LiteOS_Lab/network/dtls/mbedtls/mbedtls-2.16.2/library/x509_crl.c ****                                prefix );
 668:/home/xingli/share/LiteOS_Lab/network/dtls/mbedtls/mbedtls-2.16.2/library/x509_crl.c ****     MBEDTLS_X509_SAFE_SNPRINTF;
 1704              		.loc 1 668 5 discriminator 4
 1705 02c8 837DCC00 		cmpl	$0, -52(%rbp)
 1706 02cc 780B     		js	.L107
GAS LISTING /tmp/ccQRyzdw.s 			page 49


 1707              		.loc 1 668 5 is_stmt 0 discriminator 2
 1708 02ce 8B45CC   		movl	-52(%rbp), %eax
 1709 02d1 4898     		cltq
 1710 02d3 483945D0 		cmpq	%rax, -48(%rbp)
 1711 02d7 770A     		ja	.L108
 1712              	.L107:
 1713              		.loc 1 668 5 discriminator 3
 1714 02d9 B880D6FF 		movl	$-10624, %eax
 1714      FF
 1715 02de E9930200 		jmp	.L98
 1715      00
 1716              	.L108:
 1717              		.loc 1 668 5 discriminator 4
 1718 02e3 8B45CC   		movl	-52(%rbp), %eax
 1719 02e6 4898     		cltq
 1720 02e8 482945D0 		subq	%rax, -48(%rbp)
 1721 02ec 8B45CC   		movl	-52(%rbp), %eax
 1722 02ef 4898     		cltq
 1723 02f1 480145D8 		addq	%rax, -40(%rbp)
 669:/home/xingli/share/LiteOS_Lab/network/dtls/mbedtls/mbedtls-2.16.2/library/x509_crl.c **** 
 670:/home/xingli/share/LiteOS_Lab/network/dtls/mbedtls/mbedtls-2.16.2/library/x509_crl.c ****     while( entry != NULL && entry->raw.len != 0 )
 1724              		.loc 1 670 10 is_stmt 1 discriminator 4
 1725 02f5 E93E0100 		jmp	.L109
 1725      00
 1726              	.L117:
 671:/home/xingli/share/LiteOS_Lab/network/dtls/mbedtls/mbedtls-2.16.2/library/x509_crl.c ****     {
 672:/home/xingli/share/LiteOS_Lab/network/dtls/mbedtls/mbedtls-2.16.2/library/x509_crl.c ****         ret = mbedtls_snprintf( p, n, "\n%sserial number: ",
 1727              		.loc 1 672 15
 1728 02fa 4C8B0500 		movq	mbedtls_snprintf(%rip), %r8
 1728      000000
 1729 0301 488B55A8 		movq	-88(%rbp), %rdx
 1730 0305 488B75D0 		movq	-48(%rbp), %rsi
 1731 0309 488B45D8 		movq	-40(%rbp), %rax
 1732 030d 4889D1   		movq	%rdx, %rcx
 1733 0310 488D1500 		leaq	.LC7(%rip), %rdx
 1733      000000
 1734 0317 4889C7   		movq	%rax, %rdi
 1735 031a B8000000 		movl	$0, %eax
 1735      00
 1736 031f 41FFD0   		call	*%r8
 1737              	.LVL5:
 1738 0322 8945CC   		movl	%eax, -52(%rbp)
 673:/home/xingli/share/LiteOS_Lab/network/dtls/mbedtls/mbedtls-2.16.2/library/x509_crl.c ****                                prefix );
 674:/home/xingli/share/LiteOS_Lab/network/dtls/mbedtls/mbedtls-2.16.2/library/x509_crl.c ****         MBEDTLS_X509_SAFE_SNPRINTF;
 1739              		.loc 1 674 9
 1740 0325 837DCC00 		cmpl	$0, -52(%rbp)
 1741 0329 780B     		js	.L110
 1742              		.loc 1 674 9 is_stmt 0 discriminator 2
 1743 032b 8B45CC   		movl	-52(%rbp), %eax
 1744 032e 4898     		cltq
 1745 0330 483945D0 		cmpq	%rax, -48(%rbp)
 1746 0334 770A     		ja	.L111
 1747              	.L110:
 1748              		.loc 1 674 9 discriminator 3
 1749 0336 B880D6FF 		movl	$-10624, %eax
 1749      FF
 1750 033b E9360200 		jmp	.L98
GAS LISTING /tmp/ccQRyzdw.s 			page 50


 1750      00
 1751              	.L111:
 1752              		.loc 1 674 9 discriminator 4
 1753 0340 8B45CC   		movl	-52(%rbp), %eax
 1754 0343 4898     		cltq
 1755 0345 482945D0 		subq	%rax, -48(%rbp)
 1756 0349 8B45CC   		movl	-52(%rbp), %eax
 1757 034c 4898     		cltq
 1758 034e 480145D8 		addq	%rax, -40(%rbp)
 675:/home/xingli/share/LiteOS_Lab/network/dtls/mbedtls/mbedtls-2.16.2/library/x509_crl.c **** 
 676:/home/xingli/share/LiteOS_Lab/network/dtls/mbedtls/mbedtls-2.16.2/library/x509_crl.c ****         ret = mbedtls_x509_serial_gets( p, n, &entry->serial );
 1759              		.loc 1 676 15 is_stmt 1 discriminator 4
 1760 0352 488B45E0 		movq	-32(%rbp), %rax
 1761 0356 488D5018 		leaq	24(%rax), %rdx
 1762 035a 488B4DD0 		movq	-48(%rbp), %rcx
 1763 035e 488B45D8 		movq	-40(%rbp), %rax
 1764 0362 4889CE   		movq	%rcx, %rsi
 1765 0365 4889C7   		movq	%rax, %rdi
 1766 0368 E8000000 		call	mbedtls_x509_serial_gets@PLT
 1766      00
 1767 036d 8945CC   		movl	%eax, -52(%rbp)
 677:/home/xingli/share/LiteOS_Lab/network/dtls/mbedtls/mbedtls-2.16.2/library/x509_crl.c ****         MBEDTLS_X509_SAFE_SNPRINTF;
 1768              		.loc 1 677 9 discriminator 4
 1769 0370 837DCC00 		cmpl	$0, -52(%rbp)
 1770 0374 780B     		js	.L112
 1771              		.loc 1 677 9 is_stmt 0 discriminator 2
 1772 0376 8B45CC   		movl	-52(%rbp), %eax
 1773 0379 4898     		cltq
 1774 037b 483945D0 		cmpq	%rax, -48(%rbp)
 1775 037f 770A     		ja	.L113
 1776              	.L112:
 1777              		.loc 1 677 9 discriminator 3
 1778 0381 B880D6FF 		movl	$-10624, %eax
 1778      FF
 1779 0386 E9EB0100 		jmp	.L98
 1779      00
 1780              	.L113:
 1781              		.loc 1 677 9 discriminator 4
 1782 038b 8B45CC   		movl	-52(%rbp), %eax
 1783 038e 4898     		cltq
 1784 0390 482945D0 		subq	%rax, -48(%rbp)
 1785 0394 8B45CC   		movl	-52(%rbp), %eax
 1786 0397 4898     		cltq
 1787 0399 480145D8 		addq	%rax, -40(%rbp)
 678:/home/xingli/share/LiteOS_Lab/network/dtls/mbedtls/mbedtls-2.16.2/library/x509_crl.c **** 
 679:/home/xingli/share/LiteOS_Lab/network/dtls/mbedtls/mbedtls-2.16.2/library/x509_crl.c ****         ret = mbedtls_snprintf( p, n, " revocation date: " \
 1788              		.loc 1 679 15 is_stmt 1 discriminator 4
 1789 039d 4C8B1500 		movq	mbedtls_snprintf(%rip), %r10
 1789      000000
 1790 03a4 488B45E0 		movq	-32(%rbp), %rax
 1791 03a8 448B4044 		movl	68(%rax), %r8d
 1792 03ac 488B45E0 		movq	-32(%rbp), %rax
 1793 03b0 8B7840   		movl	64(%rax), %edi
 1794 03b3 488B45E0 		movq	-32(%rbp), %rax
 1795 03b7 8B483C   		movl	60(%rax), %ecx
 1796 03ba 488B45E0 		movq	-32(%rbp), %rax
 1797 03be 448B4838 		movl	56(%rax), %r9d
GAS LISTING /tmp/ccQRyzdw.s 			page 51


 1798 03c2 488B45E0 		movq	-32(%rbp), %rax
 1799 03c6 448B5834 		movl	52(%rax), %r11d
 1800 03ca 488B45E0 		movq	-32(%rbp), %rax
 1801 03ce 8B5030   		movl	48(%rax), %edx
 1802 03d1 488B75D0 		movq	-48(%rbp), %rsi
 1803 03d5 488B45D8 		movq	-40(%rbp), %rax
 1804 03d9 4883EC08 		subq	$8, %rsp
 1805 03dd 4150     		pushq	%r8
 1806 03df 57       		pushq	%rdi
 1807 03e0 51       		pushq	%rcx
 1808 03e1 4589D8   		movl	%r11d, %r8d
 1809 03e4 89D1     		movl	%edx, %ecx
 1810 03e6 488D1500 		leaq	.LC8(%rip), %rdx
 1810      000000
 1811 03ed 4889C7   		movq	%rax, %rdi
 1812 03f0 B8000000 		movl	$0, %eax
 1812      00
 1813 03f5 41FFD2   		call	*%r10
 1814              	.LVL6:
 1815 03f8 4883C420 		addq	$32, %rsp
 1816 03fc 8945CC   		movl	%eax, -52(%rbp)
 680:/home/xingli/share/LiteOS_Lab/network/dtls/mbedtls/mbedtls-2.16.2/library/x509_crl.c ****                    "%04d-%02d-%02d %02d:%02d:%02d",
 681:/home/xingli/share/LiteOS_Lab/network/dtls/mbedtls/mbedtls-2.16.2/library/x509_crl.c ****                    entry->revocation_date.year, entry->revocation_date.mon,
 682:/home/xingli/share/LiteOS_Lab/network/dtls/mbedtls/mbedtls-2.16.2/library/x509_crl.c ****                    entry->revocation_date.day,  entry->revocation_date.hour,
 683:/home/xingli/share/LiteOS_Lab/network/dtls/mbedtls/mbedtls-2.16.2/library/x509_crl.c ****                    entry->revocation_date.min,  entry->revocation_date.sec );
 684:/home/xingli/share/LiteOS_Lab/network/dtls/mbedtls/mbedtls-2.16.2/library/x509_crl.c ****         MBEDTLS_X509_SAFE_SNPRINTF;
 1817              		.loc 1 684 9 discriminator 4
 1818 03ff 837DCC00 		cmpl	$0, -52(%rbp)
 1819 0403 780B     		js	.L114
 1820              		.loc 1 684 9 is_stmt 0 discriminator 2
 1821 0405 8B45CC   		movl	-52(%rbp), %eax
 1822 0408 4898     		cltq
 1823 040a 483945D0 		cmpq	%rax, -48(%rbp)
 1824 040e 770A     		ja	.L115
 1825              	.L114:
 1826              		.loc 1 684 9 discriminator 3
 1827 0410 B880D6FF 		movl	$-10624, %eax
 1827      FF
 1828 0415 E95C0100 		jmp	.L98
 1828      00
 1829              	.L115:
 1830              		.loc 1 684 9 discriminator 4
 1831 041a 8B45CC   		movl	-52(%rbp), %eax
 1832 041d 4898     		cltq
 1833 041f 482945D0 		subq	%rax, -48(%rbp)
 1834 0423 8B45CC   		movl	-52(%rbp), %eax
 1835 0426 4898     		cltq
 1836 0428 480145D8 		addq	%rax, -40(%rbp)
 685:/home/xingli/share/LiteOS_Lab/network/dtls/mbedtls/mbedtls-2.16.2/library/x509_crl.c **** 
 686:/home/xingli/share/LiteOS_Lab/network/dtls/mbedtls/mbedtls-2.16.2/library/x509_crl.c ****         entry = entry->next;
 1837              		.loc 1 686 15 is_stmt 1 discriminator 4
 1838 042c 488B45E0 		movq	-32(%rbp), %rax
 1839 0430 488B4060 		movq	96(%rax), %rax
 1840 0434 488945E0 		movq	%rax, -32(%rbp)
 1841              	.L109:
 670:/home/xingli/share/LiteOS_Lab/network/dtls/mbedtls/mbedtls-2.16.2/library/x509_crl.c ****     {
 1842              		.loc 1 670 10
GAS LISTING /tmp/ccQRyzdw.s 			page 52


 1843 0438 48837DE0 		cmpq	$0, -32(%rbp)
 1843      00
 1844 043d 7411     		je	.L116
 670:/home/xingli/share/LiteOS_Lab/network/dtls/mbedtls/mbedtls-2.16.2/library/x509_crl.c ****     {
 1845              		.loc 1 670 39 discriminator 1
 1846 043f 488B45E0 		movq	-32(%rbp), %rax
 1847 0443 488B4008 		movq	8(%rax), %rax
 670:/home/xingli/share/LiteOS_Lab/network/dtls/mbedtls/mbedtls-2.16.2/library/x509_crl.c ****     {
 1848              		.loc 1 670 26 discriminator 1
 1849 0447 4885C0   		testq	%rax, %rax
 1850 044a 0F85AAFE 		jne	.L117
 1850      FFFF
 1851              	.L116:
 687:/home/xingli/share/LiteOS_Lab/network/dtls/mbedtls/mbedtls-2.16.2/library/x509_crl.c ****     }
 688:/home/xingli/share/LiteOS_Lab/network/dtls/mbedtls/mbedtls-2.16.2/library/x509_crl.c **** 
 689:/home/xingli/share/LiteOS_Lab/network/dtls/mbedtls/mbedtls-2.16.2/library/x509_crl.c ****     ret = mbedtls_snprintf( p, n, "\n%ssigned using  : ", prefix );
 1852              		.loc 1 689 11
 1853 0450 4C8B0500 		movq	mbedtls_snprintf(%rip), %r8
 1853      000000
 1854 0457 488B55A8 		movq	-88(%rbp), %rdx
 1855 045b 488B75D0 		movq	-48(%rbp), %rsi
 1856 045f 488B45D8 		movq	-40(%rbp), %rax
 1857 0463 4889D1   		movq	%rdx, %rcx
 1858 0466 488D1500 		leaq	.LC9(%rip), %rdx
 1858      000000
 1859 046d 4889C7   		movq	%rax, %rdi
 1860 0470 B8000000 		movl	$0, %eax
 1860      00
 1861 0475 41FFD0   		call	*%r8
 1862              	.LVL7:
 1863 0478 8945CC   		movl	%eax, -52(%rbp)
 690:/home/xingli/share/LiteOS_Lab/network/dtls/mbedtls/mbedtls-2.16.2/library/x509_crl.c ****     MBEDTLS_X509_SAFE_SNPRINTF;
 1864              		.loc 1 690 5
 1865 047b 837DCC00 		cmpl	$0, -52(%rbp)
 1866 047f 780B     		js	.L118
 1867              		.loc 1 690 5 is_stmt 0 discriminator 2
 1868 0481 8B45CC   		movl	-52(%rbp), %eax
 1869 0484 4898     		cltq
 1870 0486 483945D0 		cmpq	%rax, -48(%rbp)
 1871 048a 770A     		ja	.L119
 1872              	.L118:
 1873              		.loc 1 690 5 discriminator 3
 1874 048c B880D6FF 		movl	$-10624, %eax
 1874      FF
 1875 0491 E9E00000 		jmp	.L98
 1875      00
 1876              	.L119:
 1877              		.loc 1 690 5 discriminator 4
 1878 0496 8B45CC   		movl	-52(%rbp), %eax
 1879 0499 4898     		cltq
 1880 049b 482945D0 		subq	%rax, -48(%rbp)
 1881 049f 8B45CC   		movl	-52(%rbp), %eax
 1882 04a2 4898     		cltq
 1883 04a4 480145D8 		addq	%rax, -40(%rbp)
 691:/home/xingli/share/LiteOS_Lab/network/dtls/mbedtls/mbedtls-2.16.2/library/x509_crl.c **** 
 692:/home/xingli/share/LiteOS_Lab/network/dtls/mbedtls/mbedtls-2.16.2/library/x509_crl.c ****     ret = mbedtls_x509_sig_alg_gets( p, n, &crl->sig_oid, crl->sig_pk, crl->sig_md,
 693:/home/xingli/share/LiteOS_Lab/network/dtls/mbedtls/mbedtls-2.16.2/library/x509_crl.c ****                              crl->sig_opts );
GAS LISTING /tmp/ccQRyzdw.s 			page 53


 1884              		.loc 1 693 33 is_stmt 1 discriminator 4
 1885 04a8 488B45A0 		movq	-96(%rbp), %rax
 1886 04ac 4C8B8090 		movq	400(%rax), %r8
 1886      010000
 692:/home/xingli/share/LiteOS_Lab/network/dtls/mbedtls/mbedtls-2.16.2/library/x509_crl.c ****                              crl->sig_opts );
 1887              		.loc 1 692 11 discriminator 4
 1888 04b3 488B45A0 		movq	-96(%rbp), %rax
 1889 04b7 8B888801 		movl	392(%rax), %ecx
 1889      0000
 1890 04bd 488B45A0 		movq	-96(%rbp), %rax
 1891 04c1 8B908C01 		movl	396(%rax), %edx
 1891      0000
 1892 04c7 488B45A0 		movq	-96(%rbp), %rax
 1893 04cb 488D7838 		leaq	56(%rax), %rdi
 1894 04cf 488B75D0 		movq	-48(%rbp), %rsi
 1895 04d3 488B45D8 		movq	-40(%rbp), %rax
 1896 04d7 4D89C1   		movq	%r8, %r9
 1897 04da 4189C8   		movl	%ecx, %r8d
 1898 04dd 89D1     		movl	%edx, %ecx
 1899 04df 4889FA   		movq	%rdi, %rdx
 1900 04e2 4889C7   		movq	%rax, %rdi
 1901 04e5 E8000000 		call	mbedtls_x509_sig_alg_gets@PLT
 1901      00
 1902 04ea 8945CC   		movl	%eax, -52(%rbp)
 694:/home/xingli/share/LiteOS_Lab/network/dtls/mbedtls/mbedtls-2.16.2/library/x509_crl.c ****     MBEDTLS_X509_SAFE_SNPRINTF;
 1903              		.loc 1 694 5 discriminator 4
 1904 04ed 837DCC00 		cmpl	$0, -52(%rbp)
 1905 04f1 780B     		js	.L120
 1906              		.loc 1 694 5 is_stmt 0 discriminator 2
 1907 04f3 8B45CC   		movl	-52(%rbp), %eax
 1908 04f6 4898     		cltq
 1909 04f8 483945D0 		cmpq	%rax, -48(%rbp)
 1910 04fc 7707     		ja	.L121
 1911              	.L120:
 1912              		.loc 1 694 5 discriminator 3
 1913 04fe B880D6FF 		movl	$-10624, %eax
 1913      FF
 1914 0503 EB71     		jmp	.L98
 1915              	.L121:
 1916              		.loc 1 694 5 discriminator 4
 1917 0505 8B45CC   		movl	-52(%rbp), %eax
 1918 0508 4898     		cltq
 1919 050a 482945D0 		subq	%rax, -48(%rbp)
 1920 050e 8B45CC   		movl	-52(%rbp), %eax
 1921 0511 4898     		cltq
 1922 0513 480145D8 		addq	%rax, -40(%rbp)
 695:/home/xingli/share/LiteOS_Lab/network/dtls/mbedtls/mbedtls-2.16.2/library/x509_crl.c **** 
 696:/home/xingli/share/LiteOS_Lab/network/dtls/mbedtls/mbedtls-2.16.2/library/x509_crl.c ****     ret = mbedtls_snprintf( p, n, "\n" );
 1923              		.loc 1 696 11 is_stmt 1 discriminator 4
 1924 0517 4C8B0500 		movq	mbedtls_snprintf(%rip), %r8
 1924      000000
 1925 051e 488B4DD0 		movq	-48(%rbp), %rcx
 1926 0522 488B45D8 		movq	-40(%rbp), %rax
 1927 0526 488D1500 		leaq	.LC10(%rip), %rdx
 1927      000000
 1928 052d 4889CE   		movq	%rcx, %rsi
 1929 0530 4889C7   		movq	%rax, %rdi
GAS LISTING /tmp/ccQRyzdw.s 			page 54


 1930 0533 B8000000 		movl	$0, %eax
 1930      00
 1931 0538 41FFD0   		call	*%r8
 1932              	.LVL8:
 1933 053b 8945CC   		movl	%eax, -52(%rbp)
 697:/home/xingli/share/LiteOS_Lab/network/dtls/mbedtls/mbedtls-2.16.2/library/x509_crl.c ****     MBEDTLS_X509_SAFE_SNPRINTF;
 1934              		.loc 1 697 5 discriminator 4
 1935 053e 837DCC00 		cmpl	$0, -52(%rbp)
 1936 0542 780B     		js	.L122
 1937              		.loc 1 697 5 is_stmt 0 discriminator 2
 1938 0544 8B45CC   		movl	-52(%rbp), %eax
 1939 0547 4898     		cltq
 1940 0549 483945D0 		cmpq	%rax, -48(%rbp)
 1941 054d 7707     		ja	.L123
 1942              	.L122:
 1943              		.loc 1 697 5 discriminator 3
 1944 054f B880D6FF 		movl	$-10624, %eax
 1944      FF
 1945 0554 EB20     		jmp	.L98
 1946              	.L123:
 1947              		.loc 1 697 5 discriminator 4
 1948 0556 8B45CC   		movl	-52(%rbp), %eax
 1949 0559 4898     		cltq
 1950 055b 482945D0 		subq	%rax, -48(%rbp)
 1951 055f 8B45CC   		movl	-52(%rbp), %eax
 1952 0562 4898     		cltq
 1953 0564 480145D8 		addq	%rax, -40(%rbp)
 698:/home/xingli/share/LiteOS_Lab/network/dtls/mbedtls/mbedtls-2.16.2/library/x509_crl.c **** 
 699:/home/xingli/share/LiteOS_Lab/network/dtls/mbedtls/mbedtls-2.16.2/library/x509_crl.c ****     return( (int) ( size - n ) );
 1954              		.loc 1 699 26 is_stmt 1 discriminator 4
 1955 0568 488B45B0 		movq	-80(%rbp), %rax
 1956 056c 89C2     		movl	%eax, %edx
 1957 056e 488B45D0 		movq	-48(%rbp), %rax
 1958 0572 29C2     		subl	%eax, %edx
 1959 0574 89D0     		movl	%edx, %eax
 1960              	.L98:
 700:/home/xingli/share/LiteOS_Lab/network/dtls/mbedtls/mbedtls-2.16.2/library/x509_crl.c **** }
 1961              		.loc 1 700 1
 1962 0576 488B5DE8 		movq	-24(%rbp), %rbx
 1963 057a 6448331C 		xorq	%fs:40, %rbx
 1963      25280000 
 1963      00
 1964 0583 7405     		je	.L124
 1965 0585 E8000000 		call	__stack_chk_fail@PLT
 1965      00
 1966              	.L124:
 1967 058a 488B5DF8 		movq	-8(%rbp), %rbx
 1968 058e C9       		leave
 1969              	.LCFI20:
 1970              		.cfi_def_cfa 7, 8
 1971 058f C3       		ret
 1972              		.cfi_endproc
 1973              	.LFE22:
 1975              		.section	.text.mbedtls_x509_crl_init,"ax",@progbits
 1976              		.globl	mbedtls_x509_crl_init
 1978              	mbedtls_x509_crl_init:
 1979              	.LFB23:
GAS LISTING /tmp/ccQRyzdw.s 			page 55


 701:/home/xingli/share/LiteOS_Lab/network/dtls/mbedtls/mbedtls-2.16.2/library/x509_crl.c **** 
 702:/home/xingli/share/LiteOS_Lab/network/dtls/mbedtls/mbedtls-2.16.2/library/x509_crl.c **** /*
 703:/home/xingli/share/LiteOS_Lab/network/dtls/mbedtls/mbedtls-2.16.2/library/x509_crl.c ****  * Initialize a CRL chain
 704:/home/xingli/share/LiteOS_Lab/network/dtls/mbedtls/mbedtls-2.16.2/library/x509_crl.c ****  */
 705:/home/xingli/share/LiteOS_Lab/network/dtls/mbedtls/mbedtls-2.16.2/library/x509_crl.c **** void mbedtls_x509_crl_init( mbedtls_x509_crl *crl )
 706:/home/xingli/share/LiteOS_Lab/network/dtls/mbedtls/mbedtls-2.16.2/library/x509_crl.c **** {
 1980              		.loc 1 706 1
 1981              		.cfi_startproc
 1982 0000 F30F1EFA 		endbr64
 1983 0004 55       		pushq	%rbp
 1984              	.LCFI21:
 1985              		.cfi_def_cfa_offset 16
 1986              		.cfi_offset 6, -16
 1987 0005 4889E5   		movq	%rsp, %rbp
 1988              	.LCFI22:
 1989              		.cfi_def_cfa_register 6
 1990 0008 4883EC20 		subq	$32, %rsp
 1991 000c 48897DE8 		movq	%rdi, -24(%rbp)
 1992              		.loc 1 706 1
 1993 0010 64488B04 		movq	%fs:40, %rax
 1993      25280000 
 1993      00
 1994 0019 488945F8 		movq	%rax, -8(%rbp)
 1995 001d 31C0     		xorl	%eax, %eax
 707:/home/xingli/share/LiteOS_Lab/network/dtls/mbedtls/mbedtls-2.16.2/library/x509_crl.c ****     memset( crl, 0, sizeof(mbedtls_x509_crl) );
 1996              		.loc 1 707 5
 1997 001f 488B45E8 		movq	-24(%rbp), %rax
 1998 0023 BAA00100 		movl	$416, %edx
 1998      00
 1999 0028 BE000000 		movl	$0, %esi
 1999      00
 2000 002d 4889C7   		movq	%rax, %rdi
 2001 0030 E8000000 		call	memset@PLT
 2001      00
 708:/home/xingli/share/LiteOS_Lab/network/dtls/mbedtls/mbedtls-2.16.2/library/x509_crl.c **** }
 2002              		.loc 1 708 1
 2003 0035 90       		nop
 2004 0036 488B45F8 		movq	-8(%rbp), %rax
 2005 003a 64483304 		xorq	%fs:40, %rax
 2005      25280000 
 2005      00
 2006 0043 7405     		je	.L126
 2007 0045 E8000000 		call	__stack_chk_fail@PLT
 2007      00
 2008              	.L126:
 2009 004a C9       		leave
 2010              	.LCFI23:
 2011              		.cfi_def_cfa 7, 8
 2012 004b C3       		ret
 2013              		.cfi_endproc
 2014              	.LFE23:
 2016              		.section	.text.mbedtls_x509_crl_free,"ax",@progbits
 2017              		.globl	mbedtls_x509_crl_free
 2019              	mbedtls_x509_crl_free:
 2020              	.LFB24:
 709:/home/xingli/share/LiteOS_Lab/network/dtls/mbedtls/mbedtls-2.16.2/library/x509_crl.c **** 
 710:/home/xingli/share/LiteOS_Lab/network/dtls/mbedtls/mbedtls-2.16.2/library/x509_crl.c **** /*
GAS LISTING /tmp/ccQRyzdw.s 			page 56


 711:/home/xingli/share/LiteOS_Lab/network/dtls/mbedtls/mbedtls-2.16.2/library/x509_crl.c ****  * Unallocate all CRL data
 712:/home/xingli/share/LiteOS_Lab/network/dtls/mbedtls/mbedtls-2.16.2/library/x509_crl.c ****  */
 713:/home/xingli/share/LiteOS_Lab/network/dtls/mbedtls/mbedtls-2.16.2/library/x509_crl.c **** void mbedtls_x509_crl_free( mbedtls_x509_crl *crl )
 714:/home/xingli/share/LiteOS_Lab/network/dtls/mbedtls/mbedtls-2.16.2/library/x509_crl.c **** {
 2021              		.loc 1 714 1
 2022              		.cfi_startproc
 2023 0000 F30F1EFA 		endbr64
 2024 0004 55       		pushq	%rbp
 2025              	.LCFI24:
 2026              		.cfi_def_cfa_offset 16
 2027              		.cfi_offset 6, -16
 2028 0005 4889E5   		movq	%rsp, %rbp
 2029              	.LCFI25:
 2030              		.cfi_def_cfa_register 6
 2031 0008 4883EC50 		subq	$80, %rsp
 2032 000c 48897DB8 		movq	%rdi, -72(%rbp)
 2033              		.loc 1 714 1
 2034 0010 64488B04 		movq	%fs:40, %rax
 2034      25280000 
 2034      00
 2035 0019 488945F8 		movq	%rax, -8(%rbp)
 2036 001d 31C0     		xorl	%eax, %eax
 715:/home/xingli/share/LiteOS_Lab/network/dtls/mbedtls/mbedtls-2.16.2/library/x509_crl.c ****     mbedtls_x509_crl *crl_cur = crl;
 2037              		.loc 1 715 23
 2038 001f 488B45B8 		movq	-72(%rbp), %rax
 2039 0023 488945C8 		movq	%rax, -56(%rbp)
 716:/home/xingli/share/LiteOS_Lab/network/dtls/mbedtls/mbedtls-2.16.2/library/x509_crl.c ****     mbedtls_x509_crl *crl_prv;
 717:/home/xingli/share/LiteOS_Lab/network/dtls/mbedtls/mbedtls-2.16.2/library/x509_crl.c ****     mbedtls_x509_name *name_cur;
 718:/home/xingli/share/LiteOS_Lab/network/dtls/mbedtls/mbedtls-2.16.2/library/x509_crl.c ****     mbedtls_x509_name *name_prv;
 719:/home/xingli/share/LiteOS_Lab/network/dtls/mbedtls/mbedtls-2.16.2/library/x509_crl.c ****     mbedtls_x509_crl_entry *entry_cur;
 720:/home/xingli/share/LiteOS_Lab/network/dtls/mbedtls/mbedtls-2.16.2/library/x509_crl.c ****     mbedtls_x509_crl_entry *entry_prv;
 721:/home/xingli/share/LiteOS_Lab/network/dtls/mbedtls/mbedtls-2.16.2/library/x509_crl.c **** 
 722:/home/xingli/share/LiteOS_Lab/network/dtls/mbedtls/mbedtls-2.16.2/library/x509_crl.c ****     if( crl == NULL )
 2040              		.loc 1 722 7
 2041 0027 48837DB8 		cmpq	$0, -72(%rbp)
 2041      00
 2042 002c 0F844601 		je	.L138
 2042      0000
 2043              	.L128:
 723:/home/xingli/share/LiteOS_Lab/network/dtls/mbedtls/mbedtls-2.16.2/library/x509_crl.c ****         return;
 724:/home/xingli/share/LiteOS_Lab/network/dtls/mbedtls/mbedtls-2.16.2/library/x509_crl.c **** 
 725:/home/xingli/share/LiteOS_Lab/network/dtls/mbedtls/mbedtls-2.16.2/library/x509_crl.c ****     do
 726:/home/xingli/share/LiteOS_Lab/network/dtls/mbedtls/mbedtls-2.16.2/library/x509_crl.c ****     {
 727:/home/xingli/share/LiteOS_Lab/network/dtls/mbedtls/mbedtls-2.16.2/library/x509_crl.c **** #if defined(MBEDTLS_X509_RSASSA_PSS_SUPPORT)
 728:/home/xingli/share/LiteOS_Lab/network/dtls/mbedtls/mbedtls-2.16.2/library/x509_crl.c ****         mbedtls_free( crl_cur->sig_opts );
 2044              		.loc 1 728 9
 2045 0032 488B45C8 		movq	-56(%rbp), %rax
 2046 0036 488B8090 		movq	400(%rax), %rax
 2046      010000
 2047 003d 4889C7   		movq	%rax, %rdi
 2048 0040 E8000000 		call	mbedtls_free@PLT
 2048      00
 729:/home/xingli/share/LiteOS_Lab/network/dtls/mbedtls/mbedtls-2.16.2/library/x509_crl.c **** #endif
 730:/home/xingli/share/LiteOS_Lab/network/dtls/mbedtls/mbedtls-2.16.2/library/x509_crl.c **** 
 731:/home/xingli/share/LiteOS_Lab/network/dtls/mbedtls/mbedtls-2.16.2/library/x509_crl.c ****         name_cur = crl_cur->issuer.next;
 2049              		.loc 1 731 18
 2050 0045 488B45C8 		movq	-56(%rbp), %rax
GAS LISTING /tmp/ccQRyzdw.s 			page 57


 2051 0049 488B8098 		movq	152(%rax), %rax
 2051      000000
 2052 0050 488945D0 		movq	%rax, -48(%rbp)
 732:/home/xingli/share/LiteOS_Lab/network/dtls/mbedtls/mbedtls-2.16.2/library/x509_crl.c ****         while( name_cur != NULL )
 2053              		.loc 1 732 14
 2054 0054 EB31     		jmp	.L130
 2055              	.L131:
 733:/home/xingli/share/LiteOS_Lab/network/dtls/mbedtls/mbedtls-2.16.2/library/x509_crl.c ****         {
 734:/home/xingli/share/LiteOS_Lab/network/dtls/mbedtls/mbedtls-2.16.2/library/x509_crl.c ****             name_prv = name_cur;
 2056              		.loc 1 734 22
 2057 0056 488B45D0 		movq	-48(%rbp), %rax
 2058 005a 488945F0 		movq	%rax, -16(%rbp)
 735:/home/xingli/share/LiteOS_Lab/network/dtls/mbedtls/mbedtls-2.16.2/library/x509_crl.c ****             name_cur = name_cur->next;
 2059              		.loc 1 735 22
 2060 005e 488B45D0 		movq	-48(%rbp), %rax
 2061 0062 488B4030 		movq	48(%rax), %rax
 2062 0066 488945D0 		movq	%rax, -48(%rbp)
 736:/home/xingli/share/LiteOS_Lab/network/dtls/mbedtls/mbedtls-2.16.2/library/x509_crl.c ****             mbedtls_platform_zeroize( name_prv, sizeof( mbedtls_x509_name ) );
 2063              		.loc 1 736 13
 2064 006a 488B45F0 		movq	-16(%rbp), %rax
 2065 006e BE400000 		movl	$64, %esi
 2065      00
 2066 0073 4889C7   		movq	%rax, %rdi
 2067 0076 E8000000 		call	mbedtls_platform_zeroize@PLT
 2067      00
 737:/home/xingli/share/LiteOS_Lab/network/dtls/mbedtls/mbedtls-2.16.2/library/x509_crl.c ****             mbedtls_free( name_prv );
 2068              		.loc 1 737 13
 2069 007b 488B45F0 		movq	-16(%rbp), %rax
 2070 007f 4889C7   		movq	%rax, %rdi
 2071 0082 E8000000 		call	mbedtls_free@PLT
 2071      00
 2072              	.L130:
 732:/home/xingli/share/LiteOS_Lab/network/dtls/mbedtls/mbedtls-2.16.2/library/x509_crl.c ****         {
 2073              		.loc 1 732 14
 2074 0087 48837DD0 		cmpq	$0, -48(%rbp)
 2074      00
 2075 008c 75C8     		jne	.L131
 738:/home/xingli/share/LiteOS_Lab/network/dtls/mbedtls/mbedtls-2.16.2/library/x509_crl.c ****         }
 739:/home/xingli/share/LiteOS_Lab/network/dtls/mbedtls/mbedtls-2.16.2/library/x509_crl.c **** 
 740:/home/xingli/share/LiteOS_Lab/network/dtls/mbedtls/mbedtls-2.16.2/library/x509_crl.c ****         entry_cur = crl_cur->entry.next;
 2076              		.loc 1 740 19
 2077 008e 488B45C8 		movq	-56(%rbp), %rax
 2078 0092 488B8038 		movq	312(%rax), %rax
 2078      010000
 2079 0099 488945D8 		movq	%rax, -40(%rbp)
 741:/home/xingli/share/LiteOS_Lab/network/dtls/mbedtls/mbedtls-2.16.2/library/x509_crl.c ****         while( entry_cur != NULL )
 2080              		.loc 1 741 14
 2081 009d EB31     		jmp	.L132
 2082              	.L133:
 742:/home/xingli/share/LiteOS_Lab/network/dtls/mbedtls/mbedtls-2.16.2/library/x509_crl.c ****         {
 743:/home/xingli/share/LiteOS_Lab/network/dtls/mbedtls/mbedtls-2.16.2/library/x509_crl.c ****             entry_prv = entry_cur;
 2083              		.loc 1 743 23
 2084 009f 488B45D8 		movq	-40(%rbp), %rax
 2085 00a3 488945E8 		movq	%rax, -24(%rbp)
 744:/home/xingli/share/LiteOS_Lab/network/dtls/mbedtls/mbedtls-2.16.2/library/x509_crl.c ****             entry_cur = entry_cur->next;
 2086              		.loc 1 744 23
 2087 00a7 488B45D8 		movq	-40(%rbp), %rax
GAS LISTING /tmp/ccQRyzdw.s 			page 58


 2088 00ab 488B4060 		movq	96(%rax), %rax
 2089 00af 488945D8 		movq	%rax, -40(%rbp)
 745:/home/xingli/share/LiteOS_Lab/network/dtls/mbedtls/mbedtls-2.16.2/library/x509_crl.c ****             mbedtls_platform_zeroize( entry_prv,
 2090              		.loc 1 745 13
 2091 00b3 488B45E8 		movq	-24(%rbp), %rax
 2092 00b7 BE680000 		movl	$104, %esi
 2092      00
 2093 00bc 4889C7   		movq	%rax, %rdi
 2094 00bf E8000000 		call	mbedtls_platform_zeroize@PLT
 2094      00
 746:/home/xingli/share/LiteOS_Lab/network/dtls/mbedtls/mbedtls-2.16.2/library/x509_crl.c ****                                       sizeof( mbedtls_x509_crl_entry ) );
 747:/home/xingli/share/LiteOS_Lab/network/dtls/mbedtls/mbedtls-2.16.2/library/x509_crl.c ****             mbedtls_free( entry_prv );
 2095              		.loc 1 747 13
 2096 00c4 488B45E8 		movq	-24(%rbp), %rax
 2097 00c8 4889C7   		movq	%rax, %rdi
 2098 00cb E8000000 		call	mbedtls_free@PLT
 2098      00
 2099              	.L132:
 741:/home/xingli/share/LiteOS_Lab/network/dtls/mbedtls/mbedtls-2.16.2/library/x509_crl.c ****         {
 2100              		.loc 1 741 14
 2101 00d0 48837DD8 		cmpq	$0, -40(%rbp)
 2101      00
 2102 00d5 75C8     		jne	.L133
 748:/home/xingli/share/LiteOS_Lab/network/dtls/mbedtls/mbedtls-2.16.2/library/x509_crl.c ****         }
 749:/home/xingli/share/LiteOS_Lab/network/dtls/mbedtls/mbedtls-2.16.2/library/x509_crl.c **** 
 750:/home/xingli/share/LiteOS_Lab/network/dtls/mbedtls/mbedtls-2.16.2/library/x509_crl.c ****         if( crl_cur->raw.p != NULL )
 2103              		.loc 1 750 25
 2104 00d7 488B45C8 		movq	-56(%rbp), %rax
 2105 00db 488B4010 		movq	16(%rax), %rax
 2106              		.loc 1 750 11
 2107 00df 4885C0   		testq	%rax, %rax
 2108 00e2 742B     		je	.L134
 751:/home/xingli/share/LiteOS_Lab/network/dtls/mbedtls/mbedtls-2.16.2/library/x509_crl.c ****         {
 752:/home/xingli/share/LiteOS_Lab/network/dtls/mbedtls/mbedtls-2.16.2/library/x509_crl.c ****             mbedtls_platform_zeroize( crl_cur->raw.p, crl_cur->raw.len );
 2109              		.loc 1 752 13
 2110 00e4 488B45C8 		movq	-56(%rbp), %rax
 2111 00e8 488B5008 		movq	8(%rax), %rdx
 2112              		.loc 1 752 51
 2113 00ec 488B45C8 		movq	-56(%rbp), %rax
 2114 00f0 488B4010 		movq	16(%rax), %rax
 2115              		.loc 1 752 13
 2116 00f4 4889D6   		movq	%rdx, %rsi
 2117 00f7 4889C7   		movq	%rax, %rdi
 2118 00fa E8000000 		call	mbedtls_platform_zeroize@PLT
 2118      00
 753:/home/xingli/share/LiteOS_Lab/network/dtls/mbedtls/mbedtls-2.16.2/library/x509_crl.c ****             mbedtls_free( crl_cur->raw.p );
 2119              		.loc 1 753 39
 2120 00ff 488B45C8 		movq	-56(%rbp), %rax
 2121 0103 488B4010 		movq	16(%rax), %rax
 2122              		.loc 1 753 13
 2123 0107 4889C7   		movq	%rax, %rdi
 2124 010a E8000000 		call	mbedtls_free@PLT
 2124      00
 2125              	.L134:
 754:/home/xingli/share/LiteOS_Lab/network/dtls/mbedtls/mbedtls-2.16.2/library/x509_crl.c ****         }
 755:/home/xingli/share/LiteOS_Lab/network/dtls/mbedtls/mbedtls-2.16.2/library/x509_crl.c **** 
 756:/home/xingli/share/LiteOS_Lab/network/dtls/mbedtls/mbedtls-2.16.2/library/x509_crl.c ****         crl_cur = crl_cur->next;
GAS LISTING /tmp/ccQRyzdw.s 			page 59


 2126              		.loc 1 756 17
 2127 010f 488B45C8 		movq	-56(%rbp), %rax
 2128 0113 488B8098 		movq	408(%rax), %rax
 2128      010000
 2129 011a 488945C8 		movq	%rax, -56(%rbp)
 757:/home/xingli/share/LiteOS_Lab/network/dtls/mbedtls/mbedtls-2.16.2/library/x509_crl.c ****     }
 758:/home/xingli/share/LiteOS_Lab/network/dtls/mbedtls/mbedtls-2.16.2/library/x509_crl.c ****     while( crl_cur != NULL );
 2130              		.loc 1 758 5
 2131 011e 48837DC8 		cmpq	$0, -56(%rbp)
 2131      00
 2132 0123 0F8509FF 		jne	.L128
 2132      FFFF
 759:/home/xingli/share/LiteOS_Lab/network/dtls/mbedtls/mbedtls-2.16.2/library/x509_crl.c **** 
 760:/home/xingli/share/LiteOS_Lab/network/dtls/mbedtls/mbedtls-2.16.2/library/x509_crl.c ****     crl_cur = crl;
 2133              		.loc 1 760 13
 2134 0129 488B45B8 		movq	-72(%rbp), %rax
 2135 012d 488945C8 		movq	%rax, -56(%rbp)
 2136              	.L136:
 761:/home/xingli/share/LiteOS_Lab/network/dtls/mbedtls/mbedtls-2.16.2/library/x509_crl.c ****     do
 762:/home/xingli/share/LiteOS_Lab/network/dtls/mbedtls/mbedtls-2.16.2/library/x509_crl.c ****     {
 763:/home/xingli/share/LiteOS_Lab/network/dtls/mbedtls/mbedtls-2.16.2/library/x509_crl.c ****         crl_prv = crl_cur;
 2137              		.loc 1 763 17
 2138 0131 488B45C8 		movq	-56(%rbp), %rax
 2139 0135 488945E0 		movq	%rax, -32(%rbp)
 764:/home/xingli/share/LiteOS_Lab/network/dtls/mbedtls/mbedtls-2.16.2/library/x509_crl.c ****         crl_cur = crl_cur->next;
 2140              		.loc 1 764 17
 2141 0139 488B45C8 		movq	-56(%rbp), %rax
 2142 013d 488B8098 		movq	408(%rax), %rax
 2142      010000
 2143 0144 488945C8 		movq	%rax, -56(%rbp)
 765:/home/xingli/share/LiteOS_Lab/network/dtls/mbedtls/mbedtls-2.16.2/library/x509_crl.c **** 
 766:/home/xingli/share/LiteOS_Lab/network/dtls/mbedtls/mbedtls-2.16.2/library/x509_crl.c ****         mbedtls_platform_zeroize( crl_prv, sizeof( mbedtls_x509_crl ) );
 2144              		.loc 1 766 9
 2145 0148 488B45E0 		movq	-32(%rbp), %rax
 2146 014c BEA00100 		movl	$416, %esi
 2146      00
 2147 0151 4889C7   		movq	%rax, %rdi
 2148 0154 E8000000 		call	mbedtls_platform_zeroize@PLT
 2148      00
 767:/home/xingli/share/LiteOS_Lab/network/dtls/mbedtls/mbedtls-2.16.2/library/x509_crl.c ****         if( crl_prv != crl )
 2149              		.loc 1 767 11
 2150 0159 488B45E0 		movq	-32(%rbp), %rax
 2151 015d 483B45B8 		cmpq	-72(%rbp), %rax
 2152 0161 740C     		je	.L135
 768:/home/xingli/share/LiteOS_Lab/network/dtls/mbedtls/mbedtls-2.16.2/library/x509_crl.c ****             mbedtls_free( crl_prv );
 2153              		.loc 1 768 13
 2154 0163 488B45E0 		movq	-32(%rbp), %rax
 2155 0167 4889C7   		movq	%rax, %rdi
 2156 016a E8000000 		call	mbedtls_free@PLT
 2156      00
 2157              	.L135:
 769:/home/xingli/share/LiteOS_Lab/network/dtls/mbedtls/mbedtls-2.16.2/library/x509_crl.c ****     }
 770:/home/xingli/share/LiteOS_Lab/network/dtls/mbedtls/mbedtls-2.16.2/library/x509_crl.c ****     while( crl_cur != NULL );
 2158              		.loc 1 770 5
 2159 016f 48837DC8 		cmpq	$0, -56(%rbp)
 2159      00
 2160 0174 75BB     		jne	.L136
GAS LISTING /tmp/ccQRyzdw.s 			page 60


 2161 0176 EB01     		jmp	.L127
 2162              	.L138:
 723:/home/xingli/share/LiteOS_Lab/network/dtls/mbedtls/mbedtls-2.16.2/library/x509_crl.c **** 
 2163              		.loc 1 723 9
 2164 0178 90       		nop
 2165              	.L127:
 771:/home/xingli/share/LiteOS_Lab/network/dtls/mbedtls/mbedtls-2.16.2/library/x509_crl.c **** }
 2166              		.loc 1 771 1
 2167 0179 488B45F8 		movq	-8(%rbp), %rax
 2168 017d 64483304 		xorq	%fs:40, %rax
 2168      25280000 
 2168      00
 2169 0186 7405     		je	.L137
 2170 0188 E8000000 		call	__stack_chk_fail@PLT
 2170      00
 2171              	.L137:
 2172 018d C9       		leave
 2173              	.LCFI26:
 2174              		.cfi_def_cfa 7, 8
 2175 018e C3       		ret
 2176              		.cfi_endproc
 2177              	.LFE24:
 2179              		.text
 2180              	.Letext0:
 2181              		.file 2 "/usr/lib/gcc/x86_64-linux-gnu/9/include/stddef.h"
 2182              		.file 3 "/usr/include/x86_64-linux-gnu/bits/types.h"
 2183              		.file 4 "/home/xingli/share/LiteOS_Lab/network/dtls/mbedtls/mbedtls-2.16.2/include/mbedtls/asn1.h"
 2184              		.file 5 "/home/xingli/share/LiteOS_Lab/network/dtls/mbedtls/mbedtls-2.16.2/include/mbedtls/md.h"
 2185              		.file 6 "/home/xingli/share/LiteOS_Lab/network/dtls/mbedtls/mbedtls-2.16.2/include/mbedtls/pk.h"
 2186              		.file 7 "/home/xingli/share/LiteOS_Lab/network/dtls/mbedtls/mbedtls-2.16.2/include/mbedtls/x509.h"
 2187              		.file 8 "/home/xingli/share/LiteOS_Lab/network/dtls/mbedtls/mbedtls-2.16.2/include/mbedtls/x509_cr
 2188              		.file 9 "/home/xingli/share/LiteOS_Lab/network/dtls/mbedtls/mbedtls-2.16.2/include/mbedtls/pem.h"
 2189              		.file 10 "/usr/include/x86_64-linux-gnu/bits/types/struct_FILE.h"
 2190              		.file 11 "/usr/include/x86_64-linux-gnu/bits/types/FILE.h"
 2191              		.file 12 "/usr/include/stdio.h"
 2192              		.file 13 "/usr/include/x86_64-linux-gnu/bits/sys_errlist.h"
 2193              		.file 14 "/usr/include/time.h"
 2194              		.file 15 "/home/xingli/share/LiteOS_Lab/network/dtls/mbedtls/mbedtls-2.16.2/include/mbedtls/platfo
 5006              		.section	.note.gnu.property,"a"
 5007              		.align 8
 5008 0000 04000000 		.long	 1f - 0f
 5009 0004 10000000 		.long	 4f - 1f
 5010 0008 05000000 		.long	 5
 5011              	0:
 5012 000c 474E5500 		.string	 "GNU"
 5013              	1:
 5014              		.align 8
 5015 0010 020000C0 		.long	 0xc0000002
 5016 0014 04000000 		.long	 3f - 2f
 5017              	2:
 5018 0018 03000000 		.long	 0x3
 5019              	3:
 5020 001c 00000000 		.align 8
 5021              	4:
GAS LISTING /tmp/ccQRyzdw.s 			page 61

