GAS LISTING /tmp/ccSBA2df.s 			page 1


   1              		.file	"x509write_csr.c"
   2              		.text
   3              	.Ltext0:
   4              		.section	.text.mbedtls_x509write_csr_init,"ax",@progbits
   5              		.globl	mbedtls_x509write_csr_init
   7              	mbedtls_x509write_csr_init:
   8              	.LFB16:
   9              		.file 1 "/home/xingli/share/LiteOS_Lab/network/dtls/mbedtls/mbedtls-2.16.2/library/x509write_csr.c
   1:/home/xingli/share/LiteOS_Lab/network/dtls/mbedtls/mbedtls-2.16.2/library/x509write_csr.c **** /*
   2:/home/xingli/share/LiteOS_Lab/network/dtls/mbedtls/mbedtls-2.16.2/library/x509write_csr.c ****  *  X.509 Certificate Signing Request writing
   3:/home/xingli/share/LiteOS_Lab/network/dtls/mbedtls/mbedtls-2.16.2/library/x509write_csr.c ****  *
   4:/home/xingli/share/LiteOS_Lab/network/dtls/mbedtls/mbedtls-2.16.2/library/x509write_csr.c ****  *  Copyright (C) 2006-2015, ARM Limited, All Rights Reserved
   5:/home/xingli/share/LiteOS_Lab/network/dtls/mbedtls/mbedtls-2.16.2/library/x509write_csr.c ****  *  SPDX-License-Identifier: Apache-2.0
   6:/home/xingli/share/LiteOS_Lab/network/dtls/mbedtls/mbedtls-2.16.2/library/x509write_csr.c ****  *
   7:/home/xingli/share/LiteOS_Lab/network/dtls/mbedtls/mbedtls-2.16.2/library/x509write_csr.c ****  *  Licensed under the Apache License, Version 2.0 (the "License"); you may
   8:/home/xingli/share/LiteOS_Lab/network/dtls/mbedtls/mbedtls-2.16.2/library/x509write_csr.c ****  *  not use this file except in compliance with the License.
   9:/home/xingli/share/LiteOS_Lab/network/dtls/mbedtls/mbedtls-2.16.2/library/x509write_csr.c ****  *  You may obtain a copy of the License at
  10:/home/xingli/share/LiteOS_Lab/network/dtls/mbedtls/mbedtls-2.16.2/library/x509write_csr.c ****  *
  11:/home/xingli/share/LiteOS_Lab/network/dtls/mbedtls/mbedtls-2.16.2/library/x509write_csr.c ****  *  http://www.apache.org/licenses/LICENSE-2.0
  12:/home/xingli/share/LiteOS_Lab/network/dtls/mbedtls/mbedtls-2.16.2/library/x509write_csr.c ****  *
  13:/home/xingli/share/LiteOS_Lab/network/dtls/mbedtls/mbedtls-2.16.2/library/x509write_csr.c ****  *  Unless required by applicable law or agreed to in writing, software
  14:/home/xingli/share/LiteOS_Lab/network/dtls/mbedtls/mbedtls-2.16.2/library/x509write_csr.c ****  *  distributed under the License is distributed on an "AS IS" BASIS, WITHOUT
  15:/home/xingli/share/LiteOS_Lab/network/dtls/mbedtls/mbedtls-2.16.2/library/x509write_csr.c ****  *  WARRANTIES OR CONDITIONS OF ANY KIND, either express or implied.
  16:/home/xingli/share/LiteOS_Lab/network/dtls/mbedtls/mbedtls-2.16.2/library/x509write_csr.c ****  *  See the License for the specific language governing permissions and
  17:/home/xingli/share/LiteOS_Lab/network/dtls/mbedtls/mbedtls-2.16.2/library/x509write_csr.c ****  *  limitations under the License.
  18:/home/xingli/share/LiteOS_Lab/network/dtls/mbedtls/mbedtls-2.16.2/library/x509write_csr.c ****  *
  19:/home/xingli/share/LiteOS_Lab/network/dtls/mbedtls/mbedtls-2.16.2/library/x509write_csr.c ****  *  This file is part of mbed TLS (https://tls.mbed.org)
  20:/home/xingli/share/LiteOS_Lab/network/dtls/mbedtls/mbedtls-2.16.2/library/x509write_csr.c ****  */
  21:/home/xingli/share/LiteOS_Lab/network/dtls/mbedtls/mbedtls-2.16.2/library/x509write_csr.c **** /*
  22:/home/xingli/share/LiteOS_Lab/network/dtls/mbedtls/mbedtls-2.16.2/library/x509write_csr.c ****  * References:
  23:/home/xingli/share/LiteOS_Lab/network/dtls/mbedtls/mbedtls-2.16.2/library/x509write_csr.c ****  * - CSRs: PKCS#10 v1.7 aka RFC 2986
  24:/home/xingli/share/LiteOS_Lab/network/dtls/mbedtls/mbedtls-2.16.2/library/x509write_csr.c ****  * - attributes: PKCS#9 v2.0 aka RFC 2985
  25:/home/xingli/share/LiteOS_Lab/network/dtls/mbedtls/mbedtls-2.16.2/library/x509write_csr.c ****  */
  26:/home/xingli/share/LiteOS_Lab/network/dtls/mbedtls/mbedtls-2.16.2/library/x509write_csr.c **** 
  27:/home/xingli/share/LiteOS_Lab/network/dtls/mbedtls/mbedtls-2.16.2/library/x509write_csr.c **** #if !defined(MBEDTLS_CONFIG_FILE)
  28:/home/xingli/share/LiteOS_Lab/network/dtls/mbedtls/mbedtls-2.16.2/library/x509write_csr.c **** #include "mbedtls/config.h"
  29:/home/xingli/share/LiteOS_Lab/network/dtls/mbedtls/mbedtls-2.16.2/library/x509write_csr.c **** #else
  30:/home/xingli/share/LiteOS_Lab/network/dtls/mbedtls/mbedtls-2.16.2/library/x509write_csr.c **** #include MBEDTLS_CONFIG_FILE
  31:/home/xingli/share/LiteOS_Lab/network/dtls/mbedtls/mbedtls-2.16.2/library/x509write_csr.c **** #endif
  32:/home/xingli/share/LiteOS_Lab/network/dtls/mbedtls/mbedtls-2.16.2/library/x509write_csr.c **** 
  33:/home/xingli/share/LiteOS_Lab/network/dtls/mbedtls/mbedtls-2.16.2/library/x509write_csr.c **** #if defined(MBEDTLS_X509_CSR_WRITE_C)
  34:/home/xingli/share/LiteOS_Lab/network/dtls/mbedtls/mbedtls-2.16.2/library/x509write_csr.c **** 
  35:/home/xingli/share/LiteOS_Lab/network/dtls/mbedtls/mbedtls-2.16.2/library/x509write_csr.c **** #include "mbedtls/x509_csr.h"
  36:/home/xingli/share/LiteOS_Lab/network/dtls/mbedtls/mbedtls-2.16.2/library/x509write_csr.c **** #include "mbedtls/oid.h"
  37:/home/xingli/share/LiteOS_Lab/network/dtls/mbedtls/mbedtls-2.16.2/library/x509write_csr.c **** #include "mbedtls/asn1write.h"
  38:/home/xingli/share/LiteOS_Lab/network/dtls/mbedtls/mbedtls-2.16.2/library/x509write_csr.c **** #include "mbedtls/platform_util.h"
  39:/home/xingli/share/LiteOS_Lab/network/dtls/mbedtls/mbedtls-2.16.2/library/x509write_csr.c **** 
  40:/home/xingli/share/LiteOS_Lab/network/dtls/mbedtls/mbedtls-2.16.2/library/x509write_csr.c **** #include <string.h>
  41:/home/xingli/share/LiteOS_Lab/network/dtls/mbedtls/mbedtls-2.16.2/library/x509write_csr.c **** #include <stdlib.h>
  42:/home/xingli/share/LiteOS_Lab/network/dtls/mbedtls/mbedtls-2.16.2/library/x509write_csr.c **** 
  43:/home/xingli/share/LiteOS_Lab/network/dtls/mbedtls/mbedtls-2.16.2/library/x509write_csr.c **** #if defined(MBEDTLS_PEM_WRITE_C)
  44:/home/xingli/share/LiteOS_Lab/network/dtls/mbedtls/mbedtls-2.16.2/library/x509write_csr.c **** #include "mbedtls/pem.h"
  45:/home/xingli/share/LiteOS_Lab/network/dtls/mbedtls/mbedtls-2.16.2/library/x509write_csr.c **** #endif
  46:/home/xingli/share/LiteOS_Lab/network/dtls/mbedtls/mbedtls-2.16.2/library/x509write_csr.c **** 
  47:/home/xingli/share/LiteOS_Lab/network/dtls/mbedtls/mbedtls-2.16.2/library/x509write_csr.c **** void mbedtls_x509write_csr_init( mbedtls_x509write_csr *ctx )
  48:/home/xingli/share/LiteOS_Lab/network/dtls/mbedtls/mbedtls-2.16.2/library/x509write_csr.c **** {
  10              		.loc 1 48 1
GAS LISTING /tmp/ccSBA2df.s 			page 2


  11              		.cfi_startproc
  12 0000 F30F1EFA 		endbr64
  13 0004 55       		pushq	%rbp
  14              	.LCFI0:
  15              		.cfi_def_cfa_offset 16
  16              		.cfi_offset 6, -16
  17 0005 4889E5   		movq	%rsp, %rbp
  18              	.LCFI1:
  19              		.cfi_def_cfa_register 6
  20 0008 4883EC20 		subq	$32, %rsp
  21 000c 48897DE8 		movq	%rdi, -24(%rbp)
  22              		.loc 1 48 1
  23 0010 64488B04 		movq	%fs:40, %rax
  23      25280000 
  23      00
  24 0019 488945F8 		movq	%rax, -8(%rbp)
  25 001d 31C0     		xorl	%eax, %eax
  49:/home/xingli/share/LiteOS_Lab/network/dtls/mbedtls/mbedtls-2.16.2/library/x509write_csr.c ****     memset( ctx, 0, sizeof( mbedtls_x509write_csr ) );
  26              		.loc 1 49 5
  27 001f 488B45E8 		movq	-24(%rbp), %rax
  28 0023 BA200000 		movl	$32, %edx
  28      00
  29 0028 BE000000 		movl	$0, %esi
  29      00
  30 002d 4889C7   		movq	%rax, %rdi
  31 0030 E8000000 		call	memset@PLT
  31      00
  50:/home/xingli/share/LiteOS_Lab/network/dtls/mbedtls/mbedtls-2.16.2/library/x509write_csr.c **** }
  32              		.loc 1 50 1
  33 0035 90       		nop
  34 0036 488B45F8 		movq	-8(%rbp), %rax
  35 003a 64483304 		xorq	%fs:40, %rax
  35      25280000 
  35      00
  36 0043 7405     		je	.L2
  37 0045 E8000000 		call	__stack_chk_fail@PLT
  37      00
  38              	.L2:
  39 004a C9       		leave
  40              	.LCFI2:
  41              		.cfi_def_cfa 7, 8
  42 004b C3       		ret
  43              		.cfi_endproc
  44              	.LFE16:
  46              		.section	.text.mbedtls_x509write_csr_free,"ax",@progbits
  47              		.globl	mbedtls_x509write_csr_free
  49              	mbedtls_x509write_csr_free:
  50              	.LFB17:
  51:/home/xingli/share/LiteOS_Lab/network/dtls/mbedtls/mbedtls-2.16.2/library/x509write_csr.c **** 
  52:/home/xingli/share/LiteOS_Lab/network/dtls/mbedtls/mbedtls-2.16.2/library/x509write_csr.c **** void mbedtls_x509write_csr_free( mbedtls_x509write_csr *ctx )
  53:/home/xingli/share/LiteOS_Lab/network/dtls/mbedtls/mbedtls-2.16.2/library/x509write_csr.c **** {
  51              		.loc 1 53 1
  52              		.cfi_startproc
  53 0000 F30F1EFA 		endbr64
  54 0004 55       		pushq	%rbp
  55              	.LCFI3:
  56              		.cfi_def_cfa_offset 16
GAS LISTING /tmp/ccSBA2df.s 			page 3


  57              		.cfi_offset 6, -16
  58 0005 4889E5   		movq	%rsp, %rbp
  59              	.LCFI4:
  60              		.cfi_def_cfa_register 6
  61 0008 4883EC20 		subq	$32, %rsp
  62 000c 48897DE8 		movq	%rdi, -24(%rbp)
  63              		.loc 1 53 1
  64 0010 64488B04 		movq	%fs:40, %rax
  64      25280000 
  64      00
  65 0019 488945F8 		movq	%rax, -8(%rbp)
  66 001d 31C0     		xorl	%eax, %eax
  54:/home/xingli/share/LiteOS_Lab/network/dtls/mbedtls/mbedtls-2.16.2/library/x509write_csr.c ****     mbedtls_asn1_free_named_data_list( &ctx->subject );
  67              		.loc 1 54 5
  68 001f 488B45E8 		movq	-24(%rbp), %rax
  69 0023 4883C008 		addq	$8, %rax
  70 0027 4889C7   		movq	%rax, %rdi
  71 002a E8000000 		call	mbedtls_asn1_free_named_data_list@PLT
  71      00
  55:/home/xingli/share/LiteOS_Lab/network/dtls/mbedtls/mbedtls-2.16.2/library/x509write_csr.c ****     mbedtls_asn1_free_named_data_list( &ctx->extensions );
  72              		.loc 1 55 5
  73 002f 488B45E8 		movq	-24(%rbp), %rax
  74 0033 4883C018 		addq	$24, %rax
  75 0037 4889C7   		movq	%rax, %rdi
  76 003a E8000000 		call	mbedtls_asn1_free_named_data_list@PLT
  76      00
  56:/home/xingli/share/LiteOS_Lab/network/dtls/mbedtls/mbedtls-2.16.2/library/x509write_csr.c **** 
  57:/home/xingli/share/LiteOS_Lab/network/dtls/mbedtls/mbedtls-2.16.2/library/x509write_csr.c ****     mbedtls_platform_zeroize( ctx, sizeof( mbedtls_x509write_csr ) );
  77              		.loc 1 57 5
  78 003f 488B45E8 		movq	-24(%rbp), %rax
  79 0043 BE200000 		movl	$32, %esi
  79      00
  80 0048 4889C7   		movq	%rax, %rdi
  81 004b E8000000 		call	mbedtls_platform_zeroize@PLT
  81      00
  58:/home/xingli/share/LiteOS_Lab/network/dtls/mbedtls/mbedtls-2.16.2/library/x509write_csr.c **** }
  82              		.loc 1 58 1
  83 0050 90       		nop
  84 0051 488B45F8 		movq	-8(%rbp), %rax
  85 0055 64483304 		xorq	%fs:40, %rax
  85      25280000 
  85      00
  86 005e 7405     		je	.L4
  87 0060 E8000000 		call	__stack_chk_fail@PLT
  87      00
  88              	.L4:
  89 0065 C9       		leave
  90              	.LCFI5:
  91              		.cfi_def_cfa 7, 8
  92 0066 C3       		ret
  93              		.cfi_endproc
  94              	.LFE17:
  96              		.section	.text.mbedtls_x509write_csr_set_md_alg,"ax",@progbits
  97              		.globl	mbedtls_x509write_csr_set_md_alg
  99              	mbedtls_x509write_csr_set_md_alg:
 100              	.LFB18:
  59:/home/xingli/share/LiteOS_Lab/network/dtls/mbedtls/mbedtls-2.16.2/library/x509write_csr.c **** 
GAS LISTING /tmp/ccSBA2df.s 			page 4


  60:/home/xingli/share/LiteOS_Lab/network/dtls/mbedtls/mbedtls-2.16.2/library/x509write_csr.c **** void mbedtls_x509write_csr_set_md_alg( mbedtls_x509write_csr *ctx, mbedtls_md_type_t md_alg )
  61:/home/xingli/share/LiteOS_Lab/network/dtls/mbedtls/mbedtls-2.16.2/library/x509write_csr.c **** {
 101              		.loc 1 61 1
 102              		.cfi_startproc
 103 0000 F30F1EFA 		endbr64
 104 0004 55       		pushq	%rbp
 105              	.LCFI6:
 106              		.cfi_def_cfa_offset 16
 107              		.cfi_offset 6, -16
 108 0005 4889E5   		movq	%rsp, %rbp
 109              	.LCFI7:
 110              		.cfi_def_cfa_register 6
 111 0008 4883EC20 		subq	$32, %rsp
 112 000c 48897DE8 		movq	%rdi, -24(%rbp)
 113 0010 8975E4   		movl	%esi, -28(%rbp)
 114              		.loc 1 61 1
 115 0013 64488B04 		movq	%fs:40, %rax
 115      25280000 
 115      00
 116 001c 488945F8 		movq	%rax, -8(%rbp)
 117 0020 31C0     		xorl	%eax, %eax
  62:/home/xingli/share/LiteOS_Lab/network/dtls/mbedtls/mbedtls-2.16.2/library/x509write_csr.c ****     ctx->md_alg = md_alg;
 118              		.loc 1 62 17
 119 0022 488B45E8 		movq	-24(%rbp), %rax
 120 0026 8B55E4   		movl	-28(%rbp), %edx
 121 0029 895010   		movl	%edx, 16(%rax)
  63:/home/xingli/share/LiteOS_Lab/network/dtls/mbedtls/mbedtls-2.16.2/library/x509write_csr.c **** }
 122              		.loc 1 63 1
 123 002c 90       		nop
 124 002d 488B45F8 		movq	-8(%rbp), %rax
 125 0031 64483304 		xorq	%fs:40, %rax
 125      25280000 
 125      00
 126 003a 7405     		je	.L6
 127 003c E8000000 		call	__stack_chk_fail@PLT
 127      00
 128              	.L6:
 129 0041 C9       		leave
 130              	.LCFI8:
 131              		.cfi_def_cfa 7, 8
 132 0042 C3       		ret
 133              		.cfi_endproc
 134              	.LFE18:
 136              		.section	.text.mbedtls_x509write_csr_set_key,"ax",@progbits
 137              		.globl	mbedtls_x509write_csr_set_key
 139              	mbedtls_x509write_csr_set_key:
 140              	.LFB19:
  64:/home/xingli/share/LiteOS_Lab/network/dtls/mbedtls/mbedtls-2.16.2/library/x509write_csr.c **** 
  65:/home/xingli/share/LiteOS_Lab/network/dtls/mbedtls/mbedtls-2.16.2/library/x509write_csr.c **** void mbedtls_x509write_csr_set_key( mbedtls_x509write_csr *ctx, mbedtls_pk_context *key )
  66:/home/xingli/share/LiteOS_Lab/network/dtls/mbedtls/mbedtls-2.16.2/library/x509write_csr.c **** {
 141              		.loc 1 66 1
 142              		.cfi_startproc
 143 0000 F30F1EFA 		endbr64
 144 0004 55       		pushq	%rbp
 145              	.LCFI9:
 146              		.cfi_def_cfa_offset 16
 147              		.cfi_offset 6, -16
GAS LISTING /tmp/ccSBA2df.s 			page 5


 148 0005 4889E5   		movq	%rsp, %rbp
 149              	.LCFI10:
 150              		.cfi_def_cfa_register 6
 151 0008 4883EC20 		subq	$32, %rsp
 152 000c 48897DE8 		movq	%rdi, -24(%rbp)
 153 0010 488975E0 		movq	%rsi, -32(%rbp)
 154              		.loc 1 66 1
 155 0014 64488B04 		movq	%fs:40, %rax
 155      25280000 
 155      00
 156 001d 488945F8 		movq	%rax, -8(%rbp)
 157 0021 31C0     		xorl	%eax, %eax
  67:/home/xingli/share/LiteOS_Lab/network/dtls/mbedtls/mbedtls-2.16.2/library/x509write_csr.c ****     ctx->key = key;
 158              		.loc 1 67 14
 159 0023 488B45E8 		movq	-24(%rbp), %rax
 160 0027 488B55E0 		movq	-32(%rbp), %rdx
 161 002b 488910   		movq	%rdx, (%rax)
  68:/home/xingli/share/LiteOS_Lab/network/dtls/mbedtls/mbedtls-2.16.2/library/x509write_csr.c **** }
 162              		.loc 1 68 1
 163 002e 90       		nop
 164 002f 488B45F8 		movq	-8(%rbp), %rax
 165 0033 64483304 		xorq	%fs:40, %rax
 165      25280000 
 165      00
 166 003c 7405     		je	.L8
 167 003e E8000000 		call	__stack_chk_fail@PLT
 167      00
 168              	.L8:
 169 0043 C9       		leave
 170              	.LCFI11:
 171              		.cfi_def_cfa 7, 8
 172 0044 C3       		ret
 173              		.cfi_endproc
 174              	.LFE19:
 176              		.section	.text.mbedtls_x509write_csr_set_subject_name,"ax",@progbits
 177              		.globl	mbedtls_x509write_csr_set_subject_name
 179              	mbedtls_x509write_csr_set_subject_name:
 180              	.LFB20:
  69:/home/xingli/share/LiteOS_Lab/network/dtls/mbedtls/mbedtls-2.16.2/library/x509write_csr.c **** 
  70:/home/xingli/share/LiteOS_Lab/network/dtls/mbedtls/mbedtls-2.16.2/library/x509write_csr.c **** int mbedtls_x509write_csr_set_subject_name( mbedtls_x509write_csr *ctx,
  71:/home/xingli/share/LiteOS_Lab/network/dtls/mbedtls/mbedtls-2.16.2/library/x509write_csr.c ****                                     const char *subject_name )
  72:/home/xingli/share/LiteOS_Lab/network/dtls/mbedtls/mbedtls-2.16.2/library/x509write_csr.c **** {
 181              		.loc 1 72 1
 182              		.cfi_startproc
 183 0000 F30F1EFA 		endbr64
 184 0004 55       		pushq	%rbp
 185              	.LCFI12:
 186              		.cfi_def_cfa_offset 16
 187              		.cfi_offset 6, -16
 188 0005 4889E5   		movq	%rsp, %rbp
 189              	.LCFI13:
 190              		.cfi_def_cfa_register 6
 191 0008 4883EC20 		subq	$32, %rsp
 192 000c 48897DE8 		movq	%rdi, -24(%rbp)
 193 0010 488975E0 		movq	%rsi, -32(%rbp)
 194              		.loc 1 72 1
 195 0014 64488B04 		movq	%fs:40, %rax
GAS LISTING /tmp/ccSBA2df.s 			page 6


 195      25280000 
 195      00
 196 001d 488945F8 		movq	%rax, -8(%rbp)
 197 0021 31C0     		xorl	%eax, %eax
  73:/home/xingli/share/LiteOS_Lab/network/dtls/mbedtls/mbedtls-2.16.2/library/x509write_csr.c ****     return mbedtls_x509_string_to_names( &ctx->subject, subject_name );
 198              		.loc 1 73 12
 199 0023 488B45E8 		movq	-24(%rbp), %rax
 200 0027 488D5008 		leaq	8(%rax), %rdx
 201 002b 488B45E0 		movq	-32(%rbp), %rax
 202 002f 4889C6   		movq	%rax, %rsi
 203 0032 4889D7   		movq	%rdx, %rdi
 204 0035 E8000000 		call	mbedtls_x509_string_to_names@PLT
 204      00
  74:/home/xingli/share/LiteOS_Lab/network/dtls/mbedtls/mbedtls-2.16.2/library/x509write_csr.c **** }
 205              		.loc 1 74 1
 206 003a 488B4DF8 		movq	-8(%rbp), %rcx
 207 003e 6448330C 		xorq	%fs:40, %rcx
 207      25280000 
 207      00
 208 0047 7405     		je	.L11
 209 0049 E8000000 		call	__stack_chk_fail@PLT
 209      00
 210              	.L11:
 211 004e C9       		leave
 212              	.LCFI14:
 213              		.cfi_def_cfa 7, 8
 214 004f C3       		ret
 215              		.cfi_endproc
 216              	.LFE20:
 218              		.section	.text.mbedtls_x509write_csr_set_extension,"ax",@progbits
 219              		.globl	mbedtls_x509write_csr_set_extension
 221              	mbedtls_x509write_csr_set_extension:
 222              	.LFB21:
  75:/home/xingli/share/LiteOS_Lab/network/dtls/mbedtls/mbedtls-2.16.2/library/x509write_csr.c **** 
  76:/home/xingli/share/LiteOS_Lab/network/dtls/mbedtls/mbedtls-2.16.2/library/x509write_csr.c **** int mbedtls_x509write_csr_set_extension( mbedtls_x509write_csr *ctx,
  77:/home/xingli/share/LiteOS_Lab/network/dtls/mbedtls/mbedtls-2.16.2/library/x509write_csr.c ****                                  const char *oid, size_t oid_len,
  78:/home/xingli/share/LiteOS_Lab/network/dtls/mbedtls/mbedtls-2.16.2/library/x509write_csr.c ****                                  const unsigned char *val, size_t val_len )
  79:/home/xingli/share/LiteOS_Lab/network/dtls/mbedtls/mbedtls-2.16.2/library/x509write_csr.c **** {
 223              		.loc 1 79 1
 224              		.cfi_startproc
 225 0000 F30F1EFA 		endbr64
 226 0004 55       		pushq	%rbp
 227              	.LCFI15:
 228              		.cfi_def_cfa_offset 16
 229              		.cfi_offset 6, -16
 230 0005 4889E5   		movq	%rsp, %rbp
 231              	.LCFI16:
 232              		.cfi_def_cfa_register 6
 233 0008 4883EC40 		subq	$64, %rsp
 234 000c 48897DE8 		movq	%rdi, -24(%rbp)
 235 0010 488975E0 		movq	%rsi, -32(%rbp)
 236 0014 488955D8 		movq	%rdx, -40(%rbp)
 237 0018 48894DD0 		movq	%rcx, -48(%rbp)
 238 001c 4C8945C8 		movq	%r8, -56(%rbp)
 239              		.loc 1 79 1
 240 0020 64488B04 		movq	%fs:40, %rax
 240      25280000 
GAS LISTING /tmp/ccSBA2df.s 			page 7


 240      00
 241 0029 488945F8 		movq	%rax, -8(%rbp)
 242 002d 31C0     		xorl	%eax, %eax
  80:/home/xingli/share/LiteOS_Lab/network/dtls/mbedtls/mbedtls-2.16.2/library/x509write_csr.c ****     return mbedtls_x509_set_extension( &ctx->extensions, oid, oid_len,
 243              		.loc 1 80 12
 244 002f 488B45E8 		movq	-24(%rbp), %rax
 245 0033 488D7818 		leaq	24(%rax), %rdi
 246 0037 488B75C8 		movq	-56(%rbp), %rsi
 247 003b 488B4DD0 		movq	-48(%rbp), %rcx
 248 003f 488B55D8 		movq	-40(%rbp), %rdx
 249 0043 488B45E0 		movq	-32(%rbp), %rax
 250 0047 4989F1   		movq	%rsi, %r9
 251 004a 4989C8   		movq	%rcx, %r8
 252 004d B9000000 		movl	$0, %ecx
 252      00
 253 0052 4889C6   		movq	%rax, %rsi
 254 0055 E8000000 		call	mbedtls_x509_set_extension@PLT
 254      00
  81:/home/xingli/share/LiteOS_Lab/network/dtls/mbedtls/mbedtls-2.16.2/library/x509write_csr.c ****                                0, val, val_len );
  82:/home/xingli/share/LiteOS_Lab/network/dtls/mbedtls/mbedtls-2.16.2/library/x509write_csr.c **** }
 255              		.loc 1 82 1
 256 005a 488B55F8 		movq	-8(%rbp), %rdx
 257 005e 64483314 		xorq	%fs:40, %rdx
 257      25280000 
 257      00
 258 0067 7405     		je	.L14
 259 0069 E8000000 		call	__stack_chk_fail@PLT
 259      00
 260              	.L14:
 261 006e C9       		leave
 262              	.LCFI17:
 263              		.cfi_def_cfa 7, 8
 264 006f C3       		ret
 265              		.cfi_endproc
 266              	.LFE21:
 268              		.section	.text.csr_get_unused_bits_for_named_bitstring,"ax",@progbits
 270              	csr_get_unused_bits_for_named_bitstring:
 271              	.LFB22:
  83:/home/xingli/share/LiteOS_Lab/network/dtls/mbedtls/mbedtls-2.16.2/library/x509write_csr.c **** 
  84:/home/xingli/share/LiteOS_Lab/network/dtls/mbedtls/mbedtls-2.16.2/library/x509write_csr.c **** static size_t csr_get_unused_bits_for_named_bitstring( unsigned char bitstring,
  85:/home/xingli/share/LiteOS_Lab/network/dtls/mbedtls/mbedtls-2.16.2/library/x509write_csr.c ****                                                        size_t bit_offset )
  86:/home/xingli/share/LiteOS_Lab/network/dtls/mbedtls/mbedtls-2.16.2/library/x509write_csr.c **** {
 272              		.loc 1 86 1
 273              		.cfi_startproc
 274 0000 F30F1EFA 		endbr64
 275 0004 55       		pushq	%rbp
 276              	.LCFI18:
 277              		.cfi_def_cfa_offset 16
 278              		.cfi_offset 6, -16
 279 0005 4889E5   		movq	%rsp, %rbp
 280              	.LCFI19:
 281              		.cfi_def_cfa_register 6
 282 0008 4883EC20 		subq	$32, %rsp
 283 000c 89F8     		movl	%edi, %eax
 284 000e 488975E0 		movq	%rsi, -32(%rbp)
 285 0012 8845EC   		movb	%al, -20(%rbp)
 286              		.loc 1 86 1
GAS LISTING /tmp/ccSBA2df.s 			page 8


 287 0015 64488B04 		movq	%fs:40, %rax
 287      25280000 
 287      00
 288 001e 488945F8 		movq	%rax, -8(%rbp)
 289 0022 31C0     		xorl	%eax, %eax
  87:/home/xingli/share/LiteOS_Lab/network/dtls/mbedtls/mbedtls-2.16.2/library/x509write_csr.c ****     size_t unused_bits;
  88:/home/xingli/share/LiteOS_Lab/network/dtls/mbedtls/mbedtls-2.16.2/library/x509write_csr.c **** 
  89:/home/xingli/share/LiteOS_Lab/network/dtls/mbedtls/mbedtls-2.16.2/library/x509write_csr.c ****      /* Count the unused bits removing trailing 0s */
  90:/home/xingli/share/LiteOS_Lab/network/dtls/mbedtls/mbedtls-2.16.2/library/x509write_csr.c ****     for( unused_bits = bit_offset; unused_bits < 8; unused_bits++ )
 290              		.loc 1 90 22
 291 0024 488B45E0 		movq	-32(%rbp), %rax
 292 0028 488945F0 		movq	%rax, -16(%rbp)
 293              		.loc 1 90 5
 294 002c EB18     		jmp	.L16
 295              	.L19:
  91:/home/xingli/share/LiteOS_Lab/network/dtls/mbedtls/mbedtls-2.16.2/library/x509write_csr.c ****         if( ( ( bitstring >> unused_bits ) & 0x1 ) != 0 )
 296              		.loc 1 91 27
 297 002e 0FB645EC 		movzbl	-20(%rbp), %eax
 298 0032 488B55F0 		movq	-16(%rbp), %rdx
 299 0036 89D1     		movl	%edx, %ecx
 300 0038 D3F8     		sarl	%cl, %eax
 301              		.loc 1 91 44
 302 003a 83E001   		andl	$1, %eax
 303              		.loc 1 91 11
 304 003d 85C0     		testl	%eax, %eax
 305 003f 750E     		jne	.L22
  90:/home/xingli/share/LiteOS_Lab/network/dtls/mbedtls/mbedtls-2.16.2/library/x509write_csr.c ****         if( ( ( bitstring >> unused_bits ) & 0x1 ) != 0 )
 306              		.loc 1 90 64 discriminator 2
 307 0041 488345F0 		addq	$1, -16(%rbp)
 307      01
 308              	.L16:
  90:/home/xingli/share/LiteOS_Lab/network/dtls/mbedtls/mbedtls-2.16.2/library/x509write_csr.c ****         if( ( ( bitstring >> unused_bits ) & 0x1 ) != 0 )
 309              		.loc 1 90 5 discriminator 1
 310 0046 48837DF0 		cmpq	$7, -16(%rbp)
 310      07
 311 004b 76E1     		jbe	.L19
 312 004d EB01     		jmp	.L18
 313              	.L22:
  92:/home/xingli/share/LiteOS_Lab/network/dtls/mbedtls/mbedtls-2.16.2/library/x509write_csr.c ****             break;
 314              		.loc 1 92 13
 315 004f 90       		nop
 316              	.L18:
  93:/home/xingli/share/LiteOS_Lab/network/dtls/mbedtls/mbedtls-2.16.2/library/x509write_csr.c **** 
  94:/home/xingli/share/LiteOS_Lab/network/dtls/mbedtls/mbedtls-2.16.2/library/x509write_csr.c ****      return( unused_bits );
 317              		.loc 1 94 12
 318 0050 488B45F0 		movq	-16(%rbp), %rax
  95:/home/xingli/share/LiteOS_Lab/network/dtls/mbedtls/mbedtls-2.16.2/library/x509write_csr.c **** }
 319              		.loc 1 95 1
 320 0054 488B75F8 		movq	-8(%rbp), %rsi
 321 0058 64483334 		xorq	%fs:40, %rsi
 321      25280000 
 321      00
 322 0061 7405     		je	.L21
 323 0063 E8000000 		call	__stack_chk_fail@PLT
 323      00
 324              	.L21:
 325 0068 C9       		leave
GAS LISTING /tmp/ccSBA2df.s 			page 9


 326              	.LCFI20:
 327              		.cfi_def_cfa 7, 8
 328 0069 C3       		ret
 329              		.cfi_endproc
 330              	.LFE22:
 332              		.section	.rodata
 333              	.LC0:
 334 0000 551D0F00 		.string	"U\035\017"
 335              		.section	.text.mbedtls_x509write_csr_set_key_usage,"ax",@progbits
 336              		.globl	mbedtls_x509write_csr_set_key_usage
 338              	mbedtls_x509write_csr_set_key_usage:
 339              	.LFB23:
  96:/home/xingli/share/LiteOS_Lab/network/dtls/mbedtls/mbedtls-2.16.2/library/x509write_csr.c **** 
  97:/home/xingli/share/LiteOS_Lab/network/dtls/mbedtls/mbedtls-2.16.2/library/x509write_csr.c **** int mbedtls_x509write_csr_set_key_usage( mbedtls_x509write_csr *ctx, unsigned char key_usage )
  98:/home/xingli/share/LiteOS_Lab/network/dtls/mbedtls/mbedtls-2.16.2/library/x509write_csr.c **** {
 340              		.loc 1 98 1
 341              		.cfi_startproc
 342 0000 F30F1EFA 		endbr64
 343 0004 55       		pushq	%rbp
 344              	.LCFI21:
 345              		.cfi_def_cfa_offset 16
 346              		.cfi_offset 6, -16
 347 0005 4889E5   		movq	%rsp, %rbp
 348              	.LCFI22:
 349              		.cfi_def_cfa_register 6
 350 0008 4883EC40 		subq	$64, %rsp
 351 000c 48897DC8 		movq	%rdi, -56(%rbp)
 352 0010 89F0     		movl	%esi, %eax
 353 0012 8845C4   		movb	%al, -60(%rbp)
 354              		.loc 1 98 1
 355 0015 64488B04 		movq	%fs:40, %rax
 355      25280000 
 355      00
 356 001e 488945F8 		movq	%rax, -8(%rbp)
 357 0022 31C0     		xorl	%eax, %eax
  99:/home/xingli/share/LiteOS_Lab/network/dtls/mbedtls/mbedtls-2.16.2/library/x509write_csr.c ****     unsigned char buf[4];
 100:/home/xingli/share/LiteOS_Lab/network/dtls/mbedtls/mbedtls-2.16.2/library/x509write_csr.c ****     unsigned char *c;
 101:/home/xingli/share/LiteOS_Lab/network/dtls/mbedtls/mbedtls-2.16.2/library/x509write_csr.c ****     size_t unused_bits;
 102:/home/xingli/share/LiteOS_Lab/network/dtls/mbedtls/mbedtls-2.16.2/library/x509write_csr.c ****     int ret;
 103:/home/xingli/share/LiteOS_Lab/network/dtls/mbedtls/mbedtls-2.16.2/library/x509write_csr.c **** 
 104:/home/xingli/share/LiteOS_Lab/network/dtls/mbedtls/mbedtls-2.16.2/library/x509write_csr.c ****     c = buf + 4;
 358              		.loc 1 104 13
 359 0024 488D45F4 		leaq	-12(%rbp), %rax
 360 0028 4883C004 		addq	$4, %rax
 361              		.loc 1 104 7
 362 002c 488945E0 		movq	%rax, -32(%rbp)
 105:/home/xingli/share/LiteOS_Lab/network/dtls/mbedtls/mbedtls-2.16.2/library/x509write_csr.c **** 
 106:/home/xingli/share/LiteOS_Lab/network/dtls/mbedtls/mbedtls-2.16.2/library/x509write_csr.c ****     unused_bits = csr_get_unused_bits_for_named_bitstring( key_usage, 0 );
 363              		.loc 1 106 19
 364 0030 0FB645C4 		movzbl	-60(%rbp), %eax
 365 0034 0FB6C0   		movzbl	%al, %eax
 366 0037 BE000000 		movl	$0, %esi
 366      00
 367 003c 89C7     		movl	%eax, %edi
 368 003e E8000000 		call	csr_get_unused_bits_for_named_bitstring
 368      00
 369 0043 488945E8 		movq	%rax, -24(%rbp)
GAS LISTING /tmp/ccSBA2df.s 			page 10


 107:/home/xingli/share/LiteOS_Lab/network/dtls/mbedtls/mbedtls-2.16.2/library/x509write_csr.c ****     ret = mbedtls_asn1_write_bitstring( &c, buf, &key_usage, 8 - unused_bits );
 370              		.loc 1 107 11
 371 0047 B8080000 		movl	$8, %eax
 371      00
 372 004c 482B45E8 		subq	-24(%rbp), %rax
 373 0050 4889C1   		movq	%rax, %rcx
 374 0053 488D55C4 		leaq	-60(%rbp), %rdx
 375 0057 488D75F4 		leaq	-12(%rbp), %rsi
 376 005b 488D45E0 		leaq	-32(%rbp), %rax
 377 005f 4889C7   		movq	%rax, %rdi
 378 0062 E8000000 		call	mbedtls_asn1_write_bitstring@PLT
 378      00
 379 0067 8945DC   		movl	%eax, -36(%rbp)
 108:/home/xingli/share/LiteOS_Lab/network/dtls/mbedtls/mbedtls-2.16.2/library/x509write_csr.c **** 
 109:/home/xingli/share/LiteOS_Lab/network/dtls/mbedtls/mbedtls-2.16.2/library/x509write_csr.c ****     if( ret < 0 )
 380              		.loc 1 109 7
 381 006a 837DDC00 		cmpl	$0, -36(%rbp)
 382 006e 7905     		jns	.L24
 110:/home/xingli/share/LiteOS_Lab/network/dtls/mbedtls/mbedtls-2.16.2/library/x509write_csr.c ****         return( ret );
 383              		.loc 1 110 15
 384 0070 8B45DC   		movl	-36(%rbp), %eax
 385 0073 EB4E     		jmp	.L29
 386              	.L24:
 111:/home/xingli/share/LiteOS_Lab/network/dtls/mbedtls/mbedtls-2.16.2/library/x509write_csr.c ****     else if( ret < 3 || ret > 4 )
 387              		.loc 1 111 12
 388 0075 837DDC02 		cmpl	$2, -36(%rbp)
 389 0079 7E06     		jle	.L26
 390              		.loc 1 111 22 discriminator 1
 391 007b 837DDC04 		cmpl	$4, -36(%rbp)
 392 007f 7E07     		jle	.L27
 393              	.L26:
 112:/home/xingli/share/LiteOS_Lab/network/dtls/mbedtls/mbedtls-2.16.2/library/x509write_csr.c ****         return( MBEDTLS_ERR_X509_INVALID_FORMAT );
 394              		.loc 1 112 15
 395 0081 B880DEFF 		movl	$-8576, %eax
 395      FF
 396 0086 EB3B     		jmp	.L29
 397              	.L27:
 113:/home/xingli/share/LiteOS_Lab/network/dtls/mbedtls/mbedtls-2.16.2/library/x509write_csr.c **** 
 114:/home/xingli/share/LiteOS_Lab/network/dtls/mbedtls/mbedtls-2.16.2/library/x509write_csr.c ****     ret = mbedtls_x509write_csr_set_extension( ctx, MBEDTLS_OID_KEY_USAGE,
 398              		.loc 1 114 11
 399 0088 8B45DC   		movl	-36(%rbp), %eax
 400 008b 4863C8   		movslq	%eax, %rcx
 401 008e 488B55E0 		movq	-32(%rbp), %rdx
 402 0092 488B45C8 		movq	-56(%rbp), %rax
 403 0096 4989C8   		movq	%rcx, %r8
 404 0099 4889D1   		movq	%rdx, %rcx
 405 009c BA030000 		movl	$3, %edx
 405      00
 406 00a1 488D3500 		leaq	.LC0(%rip), %rsi
 406      000000
 407 00a8 4889C7   		movq	%rax, %rdi
 408 00ab E8000000 		call	mbedtls_x509write_csr_set_extension
 408      00
 409 00b0 8945DC   		movl	%eax, -36(%rbp)
 115:/home/xingli/share/LiteOS_Lab/network/dtls/mbedtls/mbedtls-2.16.2/library/x509write_csr.c ****                                        MBEDTLS_OID_SIZE( MBEDTLS_OID_KEY_USAGE ),
 116:/home/xingli/share/LiteOS_Lab/network/dtls/mbedtls/mbedtls-2.16.2/library/x509write_csr.c ****                                        c, (size_t)ret );
 117:/home/xingli/share/LiteOS_Lab/network/dtls/mbedtls/mbedtls-2.16.2/library/x509write_csr.c ****     if( ret != 0 )
GAS LISTING /tmp/ccSBA2df.s 			page 11


 410              		.loc 1 117 7
 411 00b3 837DDC00 		cmpl	$0, -36(%rbp)
 412 00b7 7405     		je	.L28
 118:/home/xingli/share/LiteOS_Lab/network/dtls/mbedtls/mbedtls-2.16.2/library/x509write_csr.c ****         return( ret );
 413              		.loc 1 118 15
 414 00b9 8B45DC   		movl	-36(%rbp), %eax
 415 00bc EB05     		jmp	.L29
 416              	.L28:
 119:/home/xingli/share/LiteOS_Lab/network/dtls/mbedtls/mbedtls-2.16.2/library/x509write_csr.c **** 
 120:/home/xingli/share/LiteOS_Lab/network/dtls/mbedtls/mbedtls-2.16.2/library/x509write_csr.c ****     return( 0 );
 417              		.loc 1 120 11
 418 00be B8000000 		movl	$0, %eax
 418      00
 419              	.L29:
 121:/home/xingli/share/LiteOS_Lab/network/dtls/mbedtls/mbedtls-2.16.2/library/x509write_csr.c **** }
 420              		.loc 1 121 1 discriminator 1
 421 00c3 488B7DF8 		movq	-8(%rbp), %rdi
 422 00c7 6448333C 		xorq	%fs:40, %rdi
 422      25280000 
 422      00
 423 00d0 7405     		je	.L30
 424              		.loc 1 121 1 is_stmt 0
 425 00d2 E8000000 		call	__stack_chk_fail@PLT
 425      00
 426              	.L30:
 427 00d7 C9       		leave
 428              	.LCFI23:
 429              		.cfi_def_cfa 7, 8
 430 00d8 C3       		ret
 431              		.cfi_endproc
 432              	.LFE23:
 434              		.section	.rodata
 435              	.LC1:
 436 0004 60864801 		.string	"`\206H\001\206\370B\001\001"
 436      86F84201 
 436      0100
 437              		.section	.text.mbedtls_x509write_csr_set_ns_cert_type,"ax",@progbits
 438              		.globl	mbedtls_x509write_csr_set_ns_cert_type
 440              	mbedtls_x509write_csr_set_ns_cert_type:
 441              	.LFB24:
 122:/home/xingli/share/LiteOS_Lab/network/dtls/mbedtls/mbedtls-2.16.2/library/x509write_csr.c **** 
 123:/home/xingli/share/LiteOS_Lab/network/dtls/mbedtls/mbedtls-2.16.2/library/x509write_csr.c **** int mbedtls_x509write_csr_set_ns_cert_type( mbedtls_x509write_csr *ctx,
 124:/home/xingli/share/LiteOS_Lab/network/dtls/mbedtls/mbedtls-2.16.2/library/x509write_csr.c ****                                     unsigned char ns_cert_type )
 125:/home/xingli/share/LiteOS_Lab/network/dtls/mbedtls/mbedtls-2.16.2/library/x509write_csr.c **** {
 442              		.loc 1 125 1 is_stmt 1
 443              		.cfi_startproc
 444 0000 F30F1EFA 		endbr64
 445 0004 55       		pushq	%rbp
 446              	.LCFI24:
 447              		.cfi_def_cfa_offset 16
 448              		.cfi_offset 6, -16
 449 0005 4889E5   		movq	%rsp, %rbp
 450              	.LCFI25:
 451              		.cfi_def_cfa_register 6
 452 0008 4883EC40 		subq	$64, %rsp
 453 000c 48897DC8 		movq	%rdi, -56(%rbp)
 454 0010 89F0     		movl	%esi, %eax
GAS LISTING /tmp/ccSBA2df.s 			page 12


 455 0012 8845C4   		movb	%al, -60(%rbp)
 456              		.loc 1 125 1
 457 0015 64488B04 		movq	%fs:40, %rax
 457      25280000 
 457      00
 458 001e 488945F8 		movq	%rax, -8(%rbp)
 459 0022 31C0     		xorl	%eax, %eax
 126:/home/xingli/share/LiteOS_Lab/network/dtls/mbedtls/mbedtls-2.16.2/library/x509write_csr.c ****     unsigned char buf[4];
 127:/home/xingli/share/LiteOS_Lab/network/dtls/mbedtls/mbedtls-2.16.2/library/x509write_csr.c ****     unsigned char *c;
 128:/home/xingli/share/LiteOS_Lab/network/dtls/mbedtls/mbedtls-2.16.2/library/x509write_csr.c ****     size_t unused_bits;
 129:/home/xingli/share/LiteOS_Lab/network/dtls/mbedtls/mbedtls-2.16.2/library/x509write_csr.c ****     int ret;
 130:/home/xingli/share/LiteOS_Lab/network/dtls/mbedtls/mbedtls-2.16.2/library/x509write_csr.c **** 
 131:/home/xingli/share/LiteOS_Lab/network/dtls/mbedtls/mbedtls-2.16.2/library/x509write_csr.c ****     c = buf + 4;
 460              		.loc 1 131 13
 461 0024 488D45F4 		leaq	-12(%rbp), %rax
 462 0028 4883C004 		addq	$4, %rax
 463              		.loc 1 131 7
 464 002c 488945E0 		movq	%rax, -32(%rbp)
 132:/home/xingli/share/LiteOS_Lab/network/dtls/mbedtls/mbedtls-2.16.2/library/x509write_csr.c **** 
 133:/home/xingli/share/LiteOS_Lab/network/dtls/mbedtls/mbedtls-2.16.2/library/x509write_csr.c ****     unused_bits = csr_get_unused_bits_for_named_bitstring( ns_cert_type, 0 );
 465              		.loc 1 133 19
 466 0030 0FB645C4 		movzbl	-60(%rbp), %eax
 467 0034 0FB6C0   		movzbl	%al, %eax
 468 0037 BE000000 		movl	$0, %esi
 468      00
 469 003c 89C7     		movl	%eax, %edi
 470 003e E8000000 		call	csr_get_unused_bits_for_named_bitstring
 470      00
 471 0043 488945E8 		movq	%rax, -24(%rbp)
 134:/home/xingli/share/LiteOS_Lab/network/dtls/mbedtls/mbedtls-2.16.2/library/x509write_csr.c ****     ret = mbedtls_asn1_write_bitstring( &c,
 472              		.loc 1 134 11
 473 0047 B8080000 		movl	$8, %eax
 473      00
 474 004c 482B45E8 		subq	-24(%rbp), %rax
 475 0050 4889C1   		movq	%rax, %rcx
 476 0053 488D55C4 		leaq	-60(%rbp), %rdx
 477 0057 488D75F4 		leaq	-12(%rbp), %rsi
 478 005b 488D45E0 		leaq	-32(%rbp), %rax
 479 005f 4889C7   		movq	%rax, %rdi
 480 0062 E8000000 		call	mbedtls_asn1_write_bitstring@PLT
 480      00
 481 0067 8945DC   		movl	%eax, -36(%rbp)
 135:/home/xingli/share/LiteOS_Lab/network/dtls/mbedtls/mbedtls-2.16.2/library/x509write_csr.c ****                                         buf,
 136:/home/xingli/share/LiteOS_Lab/network/dtls/mbedtls/mbedtls-2.16.2/library/x509write_csr.c ****                                         &ns_cert_type,
 137:/home/xingli/share/LiteOS_Lab/network/dtls/mbedtls/mbedtls-2.16.2/library/x509write_csr.c ****                                         8 - unused_bits );
 138:/home/xingli/share/LiteOS_Lab/network/dtls/mbedtls/mbedtls-2.16.2/library/x509write_csr.c **** 
 139:/home/xingli/share/LiteOS_Lab/network/dtls/mbedtls/mbedtls-2.16.2/library/x509write_csr.c ****     if( ret < 0 )
 482              		.loc 1 139 7
 483 006a 837DDC00 		cmpl	$0, -36(%rbp)
 484 006e 7905     		jns	.L32
 140:/home/xingli/share/LiteOS_Lab/network/dtls/mbedtls/mbedtls-2.16.2/library/x509write_csr.c ****         return( ret );
 485              		.loc 1 140 15
 486 0070 8B45DC   		movl	-36(%rbp), %eax
 487 0073 EB4C     		jmp	.L37
 488              	.L32:
 141:/home/xingli/share/LiteOS_Lab/network/dtls/mbedtls/mbedtls-2.16.2/library/x509write_csr.c ****     else if( ret < 3 || ret > 4 )
 489              		.loc 1 141 12
GAS LISTING /tmp/ccSBA2df.s 			page 13


 490 0075 837DDC02 		cmpl	$2, -36(%rbp)
 491 0079 7E06     		jle	.L34
 492              		.loc 1 141 22 discriminator 1
 493 007b 837DDC04 		cmpl	$4, -36(%rbp)
 494 007f 7E05     		jle	.L35
 495              	.L34:
 142:/home/xingli/share/LiteOS_Lab/network/dtls/mbedtls/mbedtls-2.16.2/library/x509write_csr.c ****         return( ret );
 496              		.loc 1 142 15
 497 0081 8B45DC   		movl	-36(%rbp), %eax
 498 0084 EB3B     		jmp	.L37
 499              	.L35:
 143:/home/xingli/share/LiteOS_Lab/network/dtls/mbedtls/mbedtls-2.16.2/library/x509write_csr.c **** 
 144:/home/xingli/share/LiteOS_Lab/network/dtls/mbedtls/mbedtls-2.16.2/library/x509write_csr.c ****     ret = mbedtls_x509write_csr_set_extension( ctx, MBEDTLS_OID_NS_CERT_TYPE,
 500              		.loc 1 144 11
 501 0086 8B45DC   		movl	-36(%rbp), %eax
 502 0089 4863C8   		movslq	%eax, %rcx
 503 008c 488B55E0 		movq	-32(%rbp), %rdx
 504 0090 488B45C8 		movq	-56(%rbp), %rax
 505 0094 4989C8   		movq	%rcx, %r8
 506 0097 4889D1   		movq	%rdx, %rcx
 507 009a BA090000 		movl	$9, %edx
 507      00
 508 009f 488D3500 		leaq	.LC1(%rip), %rsi
 508      000000
 509 00a6 4889C7   		movq	%rax, %rdi
 510 00a9 E8000000 		call	mbedtls_x509write_csr_set_extension
 510      00
 511 00ae 8945DC   		movl	%eax, -36(%rbp)
 145:/home/xingli/share/LiteOS_Lab/network/dtls/mbedtls/mbedtls-2.16.2/library/x509write_csr.c ****                                        MBEDTLS_OID_SIZE( MBEDTLS_OID_NS_CERT_TYPE ),
 146:/home/xingli/share/LiteOS_Lab/network/dtls/mbedtls/mbedtls-2.16.2/library/x509write_csr.c ****                                        c, (size_t)ret );
 147:/home/xingli/share/LiteOS_Lab/network/dtls/mbedtls/mbedtls-2.16.2/library/x509write_csr.c ****     if( ret != 0 )
 512              		.loc 1 147 7
 513 00b1 837DDC00 		cmpl	$0, -36(%rbp)
 514 00b5 7405     		je	.L36
 148:/home/xingli/share/LiteOS_Lab/network/dtls/mbedtls/mbedtls-2.16.2/library/x509write_csr.c ****         return( ret );
 515              		.loc 1 148 15
 516 00b7 8B45DC   		movl	-36(%rbp), %eax
 517 00ba EB05     		jmp	.L37
 518              	.L36:
 149:/home/xingli/share/LiteOS_Lab/network/dtls/mbedtls/mbedtls-2.16.2/library/x509write_csr.c **** 
 150:/home/xingli/share/LiteOS_Lab/network/dtls/mbedtls/mbedtls-2.16.2/library/x509write_csr.c ****     return( 0 );
 519              		.loc 1 150 11
 520 00bc B8000000 		movl	$0, %eax
 520      00
 521              	.L37:
 151:/home/xingli/share/LiteOS_Lab/network/dtls/mbedtls/mbedtls-2.16.2/library/x509write_csr.c **** }
 522              		.loc 1 151 1 discriminator 1
 523 00c1 488B7DF8 		movq	-8(%rbp), %rdi
 524 00c5 6448333C 		xorq	%fs:40, %rdi
 524      25280000 
 524      00
 525 00ce 7405     		je	.L38
 526              		.loc 1 151 1 is_stmt 0
 527 00d0 E8000000 		call	__stack_chk_fail@PLT
 527      00
 528              	.L38:
 529 00d5 C9       		leave
GAS LISTING /tmp/ccSBA2df.s 			page 14


 530              	.LCFI26:
 531              		.cfi_def_cfa 7, 8
 532 00d6 C3       		ret
 533              		.cfi_endproc
 534              	.LFE24:
 536              		.section	.rodata
 537              	.LC2:
 538 000e 2A864886 		.string	"*\206H\206\367\r\001\t\016"
 538      F70D0109 
 538      0E00
 539              		.section	.text.mbedtls_x509write_csr_der,"ax",@progbits
 540              		.globl	mbedtls_x509write_csr_der
 542              	mbedtls_x509write_csr_der:
 543              	.LFB25:
 152:/home/xingli/share/LiteOS_Lab/network/dtls/mbedtls/mbedtls-2.16.2/library/x509write_csr.c **** 
 153:/home/xingli/share/LiteOS_Lab/network/dtls/mbedtls/mbedtls-2.16.2/library/x509write_csr.c **** int mbedtls_x509write_csr_der( mbedtls_x509write_csr *ctx, unsigned char *buf, size_t size,
 154:/home/xingli/share/LiteOS_Lab/network/dtls/mbedtls/mbedtls-2.16.2/library/x509write_csr.c ****                        int (*f_rng)(void *, unsigned char *, size_t),
 155:/home/xingli/share/LiteOS_Lab/network/dtls/mbedtls/mbedtls-2.16.2/library/x509write_csr.c ****                        void *p_rng )
 156:/home/xingli/share/LiteOS_Lab/network/dtls/mbedtls/mbedtls-2.16.2/library/x509write_csr.c **** {
 544              		.loc 1 156 1 is_stmt 1
 545              		.cfi_startproc
 546 0000 F30F1EFA 		endbr64
 547 0004 55       		pushq	%rbp
 548              	.LCFI27:
 549              		.cfi_def_cfa_offset 16
 550              		.cfi_offset 6, -16
 551 0005 4889E5   		movq	%rsp, %rbp
 552              	.LCFI28:
 553              		.cfi_def_cfa_register 6
 554 0008 53       		pushq	%rbx
 555 0009 4881ECD8 		subq	$3288, %rsp
 555      0C0000
 556              		.cfi_offset 3, -24
 557 0010 4889BD48 		movq	%rdi, -3256(%rbp)
 557      F3FFFF
 558 0017 4889B540 		movq	%rsi, -3264(%rbp)
 558      F3FFFF
 559 001e 48899538 		movq	%rdx, -3272(%rbp)
 559      F3FFFF
 560 0025 48898D30 		movq	%rcx, -3280(%rbp)
 560      F3FFFF
 561 002c 4C898528 		movq	%r8, -3288(%rbp)
 561      F3FFFF
 562              		.loc 1 156 1
 563 0033 64488B04 		movq	%fs:40, %rax
 563      25280000 
 563      00
 564 003c 488945E8 		movq	%rax, -24(%rbp)
 565 0040 31C0     		xorl	%eax, %eax
 157:/home/xingli/share/LiteOS_Lab/network/dtls/mbedtls/mbedtls-2.16.2/library/x509write_csr.c ****     int ret;
 158:/home/xingli/share/LiteOS_Lab/network/dtls/mbedtls/mbedtls-2.16.2/library/x509write_csr.c ****     const char *sig_oid;
 159:/home/xingli/share/LiteOS_Lab/network/dtls/mbedtls/mbedtls-2.16.2/library/x509write_csr.c ****     size_t sig_oid_len = 0;
 566              		.loc 1 159 12
 567 0042 48C78568 		movq	$0, -3224(%rbp)
 567      F3FFFF00 
 567      000000
 160:/home/xingli/share/LiteOS_Lab/network/dtls/mbedtls/mbedtls-2.16.2/library/x509write_csr.c ****     unsigned char *c, *c2;
GAS LISTING /tmp/ccSBA2df.s 			page 15


 161:/home/xingli/share/LiteOS_Lab/network/dtls/mbedtls/mbedtls-2.16.2/library/x509write_csr.c ****     unsigned char hash[64];
 162:/home/xingli/share/LiteOS_Lab/network/dtls/mbedtls/mbedtls-2.16.2/library/x509write_csr.c ****     unsigned char sig[MBEDTLS_MPI_MAX_SIZE];
 163:/home/xingli/share/LiteOS_Lab/network/dtls/mbedtls/mbedtls-2.16.2/library/x509write_csr.c ****     unsigned char tmp_buf[2048];
 164:/home/xingli/share/LiteOS_Lab/network/dtls/mbedtls/mbedtls-2.16.2/library/x509write_csr.c ****     size_t pub_len = 0, sig_and_oid_len = 0, sig_len;
 568              		.loc 1 164 12
 569 004d 48C78590 		movq	$0, -3184(%rbp)
 569      F3FFFF00 
 569      000000
 570              		.loc 1 164 25
 571 0058 48C78598 		movq	$0, -3176(%rbp)
 571      F3FFFF00 
 571      000000
 165:/home/xingli/share/LiteOS_Lab/network/dtls/mbedtls/mbedtls-2.16.2/library/x509write_csr.c ****     size_t len = 0;
 572              		.loc 1 165 12
 573 0063 48C78588 		movq	$0, -3192(%rbp)
 573      F3FFFF00 
 573      000000
 166:/home/xingli/share/LiteOS_Lab/network/dtls/mbedtls/mbedtls-2.16.2/library/x509write_csr.c ****     mbedtls_pk_type_t pk_alg;
 167:/home/xingli/share/LiteOS_Lab/network/dtls/mbedtls/mbedtls-2.16.2/library/x509write_csr.c **** 
 168:/home/xingli/share/LiteOS_Lab/network/dtls/mbedtls/mbedtls-2.16.2/library/x509write_csr.c ****     /*
 169:/home/xingli/share/LiteOS_Lab/network/dtls/mbedtls/mbedtls-2.16.2/library/x509write_csr.c ****      * Prepare data to be signed in tmp_buf
 170:/home/xingli/share/LiteOS_Lab/network/dtls/mbedtls/mbedtls-2.16.2/library/x509write_csr.c ****      */
 171:/home/xingli/share/LiteOS_Lab/network/dtls/mbedtls/mbedtls-2.16.2/library/x509write_csr.c ****     c = tmp_buf + sizeof( tmp_buf );
 574              		.loc 1 171 17
 575 006e 488D85E0 		leaq	-2080(%rbp), %rax
 575      F7FFFF
 576 0075 48050008 		addq	$2048, %rax
 576      0000
 577              		.loc 1 171 7
 578 007b 48898570 		movq	%rax, -3216(%rbp)
 578      F3FFFF
 172:/home/xingli/share/LiteOS_Lab/network/dtls/mbedtls/mbedtls-2.16.2/library/x509write_csr.c **** 
 173:/home/xingli/share/LiteOS_Lab/network/dtls/mbedtls/mbedtls-2.16.2/library/x509write_csr.c ****     MBEDTLS_ASN1_CHK_ADD( len, mbedtls_x509_write_extensions( &c, tmp_buf, ctx->extensions ) );
 579              		.loc 1 173 5
 580 0082 488B8548 		movq	-3256(%rbp), %rax
 580      F3FFFF
 581 0089 488B5018 		movq	24(%rax), %rdx
 582 008d 488D8DE0 		leaq	-2080(%rbp), %rcx
 582      F7FFFF
 583 0094 488D8570 		leaq	-3216(%rbp), %rax
 583      F3FFFF
 584 009b 4889CE   		movq	%rcx, %rsi
 585 009e 4889C7   		movq	%rax, %rdi
 586 00a1 E8000000 		call	mbedtls_x509_write_extensions@PLT
 586      00
 587 00a6 89855CF3 		movl	%eax, -3236(%rbp)
 587      FFFF
 588 00ac 83BD5CF3 		cmpl	$0, -3236(%rbp)
 588      FFFF00
 589 00b3 790B     		jns	.L40
 590              		.loc 1 173 5 is_stmt 0 discriminator 1
 591 00b5 8B855CF3 		movl	-3236(%rbp), %eax
 591      FFFF
 592 00bb E9F90600 		jmp	.L66
 592      00
 593              	.L40:
 594              		.loc 1 173 5 discriminator 2
GAS LISTING /tmp/ccSBA2df.s 			page 16


 595 00c0 8B855CF3 		movl	-3236(%rbp), %eax
 595      FFFF
 596 00c6 4898     		cltq
 597 00c8 48018588 		addq	%rax, -3192(%rbp)
 597      F3FFFF
 174:/home/xingli/share/LiteOS_Lab/network/dtls/mbedtls/mbedtls-2.16.2/library/x509write_csr.c **** 
 175:/home/xingli/share/LiteOS_Lab/network/dtls/mbedtls/mbedtls-2.16.2/library/x509write_csr.c ****     if( len )
 598              		.loc 1 175 7 is_stmt 1 discriminator 2
 599 00cf 4883BD88 		cmpq	$0, -3192(%rbp)
 599      F3FFFF00 
 600 00d7 0F84FB01 		je	.L42
 600      0000
 176:/home/xingli/share/LiteOS_Lab/network/dtls/mbedtls/mbedtls-2.16.2/library/x509write_csr.c ****     {
 177:/home/xingli/share/LiteOS_Lab/network/dtls/mbedtls/mbedtls-2.16.2/library/x509write_csr.c ****         MBEDTLS_ASN1_CHK_ADD( len, mbedtls_asn1_write_len( &c, tmp_buf, len ) );
 601              		.loc 1 177 9
 602 00dd 488B9588 		movq	-3192(%rbp), %rdx
 602      F3FFFF
 603 00e4 488D8DE0 		leaq	-2080(%rbp), %rcx
 603      F7FFFF
 604 00eb 488D8570 		leaq	-3216(%rbp), %rax
 604      F3FFFF
 605 00f2 4889CE   		movq	%rcx, %rsi
 606 00f5 4889C7   		movq	%rax, %rdi
 607 00f8 E8000000 		call	mbedtls_asn1_write_len@PLT
 607      00
 608 00fd 89855CF3 		movl	%eax, -3236(%rbp)
 608      FFFF
 609 0103 83BD5CF3 		cmpl	$0, -3236(%rbp)
 609      FFFF00
 610 010a 790B     		jns	.L43
 611              		.loc 1 177 9 is_stmt 0 discriminator 1
 612 010c 8B855CF3 		movl	-3236(%rbp), %eax
 612      FFFF
 613 0112 E9A20600 		jmp	.L66
 613      00
 614              	.L43:
 615              		.loc 1 177 9 discriminator 2
 616 0117 8B855CF3 		movl	-3236(%rbp), %eax
 616      FFFF
 617 011d 4898     		cltq
 618 011f 48018588 		addq	%rax, -3192(%rbp)
 618      F3FFFF
 178:/home/xingli/share/LiteOS_Lab/network/dtls/mbedtls/mbedtls-2.16.2/library/x509write_csr.c ****         MBEDTLS_ASN1_CHK_ADD( len, mbedtls_asn1_write_tag( &c, tmp_buf, MBEDTLS_ASN1_CONSTRUCTED |
 619              		.loc 1 178 9 is_stmt 1 discriminator 2
 620 0126 488D8DE0 		leaq	-2080(%rbp), %rcx
 620      F7FFFF
 621 012d 488D8570 		leaq	-3216(%rbp), %rax
 621      F3FFFF
 622 0134 BA300000 		movl	$48, %edx
 622      00
 623 0139 4889CE   		movq	%rcx, %rsi
 624 013c 4889C7   		movq	%rax, %rdi
 625 013f E8000000 		call	mbedtls_asn1_write_tag@PLT
 625      00
 626 0144 89855CF3 		movl	%eax, -3236(%rbp)
 626      FFFF
 627 014a 83BD5CF3 		cmpl	$0, -3236(%rbp)
GAS LISTING /tmp/ccSBA2df.s 			page 17


 627      FFFF00
 628 0151 790B     		jns	.L44
 629              		.loc 1 178 9 is_stmt 0 discriminator 1
 630 0153 8B855CF3 		movl	-3236(%rbp), %eax
 630      FFFF
 631 0159 E95B0600 		jmp	.L66
 631      00
 632              	.L44:
 633              		.loc 1 178 9 discriminator 2
 634 015e 8B855CF3 		movl	-3236(%rbp), %eax
 634      FFFF
 635 0164 4898     		cltq
 636 0166 48018588 		addq	%rax, -3192(%rbp)
 636      F3FFFF
 179:/home/xingli/share/LiteOS_Lab/network/dtls/mbedtls/mbedtls-2.16.2/library/x509write_csr.c ****                                                         MBEDTLS_ASN1_SEQUENCE ) );
 180:/home/xingli/share/LiteOS_Lab/network/dtls/mbedtls/mbedtls-2.16.2/library/x509write_csr.c **** 
 181:/home/xingli/share/LiteOS_Lab/network/dtls/mbedtls/mbedtls-2.16.2/library/x509write_csr.c ****         MBEDTLS_ASN1_CHK_ADD( len, mbedtls_asn1_write_len( &c, tmp_buf, len ) );
 637              		.loc 1 181 9 is_stmt 1 discriminator 2
 638 016d 488B9588 		movq	-3192(%rbp), %rdx
 638      F3FFFF
 639 0174 488D8DE0 		leaq	-2080(%rbp), %rcx
 639      F7FFFF
 640 017b 488D8570 		leaq	-3216(%rbp), %rax
 640      F3FFFF
 641 0182 4889CE   		movq	%rcx, %rsi
 642 0185 4889C7   		movq	%rax, %rdi
 643 0188 E8000000 		call	mbedtls_asn1_write_len@PLT
 643      00
 644 018d 89855CF3 		movl	%eax, -3236(%rbp)
 644      FFFF
 645 0193 83BD5CF3 		cmpl	$0, -3236(%rbp)
 645      FFFF00
 646 019a 790B     		jns	.L45
 647              		.loc 1 181 9 is_stmt 0 discriminator 1
 648 019c 8B855CF3 		movl	-3236(%rbp), %eax
 648      FFFF
 649 01a2 E9120600 		jmp	.L66
 649      00
 650              	.L45:
 651              		.loc 1 181 9 discriminator 2
 652 01a7 8B855CF3 		movl	-3236(%rbp), %eax
 652      FFFF
 653 01ad 4898     		cltq
 654 01af 48018588 		addq	%rax, -3192(%rbp)
 654      F3FFFF
 182:/home/xingli/share/LiteOS_Lab/network/dtls/mbedtls/mbedtls-2.16.2/library/x509write_csr.c ****         MBEDTLS_ASN1_CHK_ADD( len, mbedtls_asn1_write_tag( &c, tmp_buf, MBEDTLS_ASN1_CONSTRUCTED |
 655              		.loc 1 182 9 is_stmt 1 discriminator 2
 656 01b6 488D8DE0 		leaq	-2080(%rbp), %rcx
 656      F7FFFF
 657 01bd 488D8570 		leaq	-3216(%rbp), %rax
 657      F3FFFF
 658 01c4 BA310000 		movl	$49, %edx
 658      00
 659 01c9 4889CE   		movq	%rcx, %rsi
 660 01cc 4889C7   		movq	%rax, %rdi
 661 01cf E8000000 		call	mbedtls_asn1_write_tag@PLT
 661      00
GAS LISTING /tmp/ccSBA2df.s 			page 18


 662 01d4 89855CF3 		movl	%eax, -3236(%rbp)
 662      FFFF
 663 01da 83BD5CF3 		cmpl	$0, -3236(%rbp)
 663      FFFF00
 664 01e1 790B     		jns	.L46
 665              		.loc 1 182 9 is_stmt 0 discriminator 1
 666 01e3 8B855CF3 		movl	-3236(%rbp), %eax
 666      FFFF
 667 01e9 E9CB0500 		jmp	.L66
 667      00
 668              	.L46:
 669              		.loc 1 182 9 discriminator 2
 670 01ee 8B855CF3 		movl	-3236(%rbp), %eax
 670      FFFF
 671 01f4 4898     		cltq
 672 01f6 48018588 		addq	%rax, -3192(%rbp)
 672      F3FFFF
 183:/home/xingli/share/LiteOS_Lab/network/dtls/mbedtls/mbedtls-2.16.2/library/x509write_csr.c ****                                                         MBEDTLS_ASN1_SET ) );
 184:/home/xingli/share/LiteOS_Lab/network/dtls/mbedtls/mbedtls-2.16.2/library/x509write_csr.c **** 
 185:/home/xingli/share/LiteOS_Lab/network/dtls/mbedtls/mbedtls-2.16.2/library/x509write_csr.c ****         MBEDTLS_ASN1_CHK_ADD( len, mbedtls_asn1_write_oid( &c, tmp_buf, MBEDTLS_OID_PKCS9_CSR_EXT_R
 673              		.loc 1 185 9 is_stmt 1 discriminator 2
 674 01fd 488DB5E0 		leaq	-2080(%rbp), %rsi
 674      F7FFFF
 675 0204 488D8570 		leaq	-3216(%rbp), %rax
 675      F3FFFF
 676 020b B9090000 		movl	$9, %ecx
 676      00
 677 0210 488D1500 		leaq	.LC2(%rip), %rdx
 677      000000
 678 0217 4889C7   		movq	%rax, %rdi
 679 021a E8000000 		call	mbedtls_asn1_write_oid@PLT
 679      00
 680 021f 89855CF3 		movl	%eax, -3236(%rbp)
 680      FFFF
 681 0225 83BD5CF3 		cmpl	$0, -3236(%rbp)
 681      FFFF00
 682 022c 790B     		jns	.L47
 683              		.loc 1 185 9 is_stmt 0 discriminator 1
 684 022e 8B855CF3 		movl	-3236(%rbp), %eax
 684      FFFF
 685 0234 E9800500 		jmp	.L66
 685      00
 686              	.L47:
 687              		.loc 1 185 9 discriminator 2
 688 0239 8B855CF3 		movl	-3236(%rbp), %eax
 688      FFFF
 689 023f 4898     		cltq
 690 0241 48018588 		addq	%rax, -3192(%rbp)
 690      F3FFFF
 186:/home/xingli/share/LiteOS_Lab/network/dtls/mbedtls/mbedtls-2.16.2/library/x509write_csr.c ****                                           MBEDTLS_OID_SIZE( MBEDTLS_OID_PKCS9_CSR_EXT_REQ ) ) );
 187:/home/xingli/share/LiteOS_Lab/network/dtls/mbedtls/mbedtls-2.16.2/library/x509write_csr.c **** 
 188:/home/xingli/share/LiteOS_Lab/network/dtls/mbedtls/mbedtls-2.16.2/library/x509write_csr.c ****         MBEDTLS_ASN1_CHK_ADD( len, mbedtls_asn1_write_len( &c, tmp_buf, len ) );
 691              		.loc 1 188 9 is_stmt 1 discriminator 2
 692 0248 488B9588 		movq	-3192(%rbp), %rdx
 692      F3FFFF
 693 024f 488D8DE0 		leaq	-2080(%rbp), %rcx
 693      F7FFFF
GAS LISTING /tmp/ccSBA2df.s 			page 19


 694 0256 488D8570 		leaq	-3216(%rbp), %rax
 694      F3FFFF
 695 025d 4889CE   		movq	%rcx, %rsi
 696 0260 4889C7   		movq	%rax, %rdi
 697 0263 E8000000 		call	mbedtls_asn1_write_len@PLT
 697      00
 698 0268 89855CF3 		movl	%eax, -3236(%rbp)
 698      FFFF
 699 026e 83BD5CF3 		cmpl	$0, -3236(%rbp)
 699      FFFF00
 700 0275 790B     		jns	.L48
 701              		.loc 1 188 9 is_stmt 0 discriminator 1
 702 0277 8B855CF3 		movl	-3236(%rbp), %eax
 702      FFFF
 703 027d E9370500 		jmp	.L66
 703      00
 704              	.L48:
 705              		.loc 1 188 9 discriminator 2
 706 0282 8B855CF3 		movl	-3236(%rbp), %eax
 706      FFFF
 707 0288 4898     		cltq
 708 028a 48018588 		addq	%rax, -3192(%rbp)
 708      F3FFFF
 189:/home/xingli/share/LiteOS_Lab/network/dtls/mbedtls/mbedtls-2.16.2/library/x509write_csr.c ****         MBEDTLS_ASN1_CHK_ADD( len, mbedtls_asn1_write_tag( &c, tmp_buf, MBEDTLS_ASN1_CONSTRUCTED |
 709              		.loc 1 189 9 is_stmt 1 discriminator 2
 710 0291 488D8DE0 		leaq	-2080(%rbp), %rcx
 710      F7FFFF
 711 0298 488D8570 		leaq	-3216(%rbp), %rax
 711      F3FFFF
 712 029f BA300000 		movl	$48, %edx
 712      00
 713 02a4 4889CE   		movq	%rcx, %rsi
 714 02a7 4889C7   		movq	%rax, %rdi
 715 02aa E8000000 		call	mbedtls_asn1_write_tag@PLT
 715      00
 716 02af 89855CF3 		movl	%eax, -3236(%rbp)
 716      FFFF
 717 02b5 83BD5CF3 		cmpl	$0, -3236(%rbp)
 717      FFFF00
 718 02bc 790B     		jns	.L49
 719              		.loc 1 189 9 is_stmt 0 discriminator 1
 720 02be 8B855CF3 		movl	-3236(%rbp), %eax
 720      FFFF
 721 02c4 E9F00400 		jmp	.L66
 721      00
 722              	.L49:
 723              		.loc 1 189 9 discriminator 2
 724 02c9 8B855CF3 		movl	-3236(%rbp), %eax
 724      FFFF
 725 02cf 4898     		cltq
 726 02d1 48018588 		addq	%rax, -3192(%rbp)
 726      F3FFFF
 727              	.L42:
 190:/home/xingli/share/LiteOS_Lab/network/dtls/mbedtls/mbedtls-2.16.2/library/x509write_csr.c ****                                                         MBEDTLS_ASN1_SEQUENCE ) );
 191:/home/xingli/share/LiteOS_Lab/network/dtls/mbedtls/mbedtls-2.16.2/library/x509write_csr.c ****     }
 192:/home/xingli/share/LiteOS_Lab/network/dtls/mbedtls/mbedtls-2.16.2/library/x509write_csr.c **** 
 193:/home/xingli/share/LiteOS_Lab/network/dtls/mbedtls/mbedtls-2.16.2/library/x509write_csr.c ****     MBEDTLS_ASN1_CHK_ADD( len, mbedtls_asn1_write_len( &c, tmp_buf, len ) );
GAS LISTING /tmp/ccSBA2df.s 			page 20


 728              		.loc 1 193 5 is_stmt 1
 729 02d8 488B9588 		movq	-3192(%rbp), %rdx
 729      F3FFFF
 730 02df 488D8DE0 		leaq	-2080(%rbp), %rcx
 730      F7FFFF
 731 02e6 488D8570 		leaq	-3216(%rbp), %rax
 731      F3FFFF
 732 02ed 4889CE   		movq	%rcx, %rsi
 733 02f0 4889C7   		movq	%rax, %rdi
 734 02f3 E8000000 		call	mbedtls_asn1_write_len@PLT
 734      00
 735 02f8 89855CF3 		movl	%eax, -3236(%rbp)
 735      FFFF
 736 02fe 83BD5CF3 		cmpl	$0, -3236(%rbp)
 736      FFFF00
 737 0305 790B     		jns	.L50
 738              		.loc 1 193 5 is_stmt 0 discriminator 1
 739 0307 8B855CF3 		movl	-3236(%rbp), %eax
 739      FFFF
 740 030d E9A70400 		jmp	.L66
 740      00
 741              	.L50:
 742              		.loc 1 193 5 discriminator 2
 743 0312 8B855CF3 		movl	-3236(%rbp), %eax
 743      FFFF
 744 0318 4898     		cltq
 745 031a 48018588 		addq	%rax, -3192(%rbp)
 745      F3FFFF
 194:/home/xingli/share/LiteOS_Lab/network/dtls/mbedtls/mbedtls-2.16.2/library/x509write_csr.c ****     MBEDTLS_ASN1_CHK_ADD( len, mbedtls_asn1_write_tag( &c, tmp_buf, MBEDTLS_ASN1_CONSTRUCTED |
 746              		.loc 1 194 5 is_stmt 1 discriminator 2
 747 0321 488D8DE0 		leaq	-2080(%rbp), %rcx
 747      F7FFFF
 748 0328 488D8570 		leaq	-3216(%rbp), %rax
 748      F3FFFF
 749 032f BAA00000 		movl	$160, %edx
 749      00
 750 0334 4889CE   		movq	%rcx, %rsi
 751 0337 4889C7   		movq	%rax, %rdi
 752 033a E8000000 		call	mbedtls_asn1_write_tag@PLT
 752      00
 753 033f 89855CF3 		movl	%eax, -3236(%rbp)
 753      FFFF
 754 0345 83BD5CF3 		cmpl	$0, -3236(%rbp)
 754      FFFF00
 755 034c 790B     		jns	.L51
 756              		.loc 1 194 5 is_stmt 0 discriminator 1
 757 034e 8B855CF3 		movl	-3236(%rbp), %eax
 757      FFFF
 758 0354 E9600400 		jmp	.L66
 758      00
 759              	.L51:
 760              		.loc 1 194 5 discriminator 2
 761 0359 8B855CF3 		movl	-3236(%rbp), %eax
 761      FFFF
 762 035f 4898     		cltq
 763 0361 48018588 		addq	%rax, -3192(%rbp)
 763      F3FFFF
GAS LISTING /tmp/ccSBA2df.s 			page 21


 195:/home/xingli/share/LiteOS_Lab/network/dtls/mbedtls/mbedtls-2.16.2/library/x509write_csr.c ****                                                     MBEDTLS_ASN1_CONTEXT_SPECIFIC ) );
 196:/home/xingli/share/LiteOS_Lab/network/dtls/mbedtls/mbedtls-2.16.2/library/x509write_csr.c **** 
 197:/home/xingli/share/LiteOS_Lab/network/dtls/mbedtls/mbedtls-2.16.2/library/x509write_csr.c ****     MBEDTLS_ASN1_CHK_ADD( pub_len, mbedtls_pk_write_pubkey_der( ctx->key,
 764              		.loc 1 197 5 is_stmt 1 discriminator 2
 765 0368 488B9570 		movq	-3216(%rbp), %rdx
 765      F3FFFF
 766 036f 488D85E0 		leaq	-2080(%rbp), %rax
 766      F7FFFF
 767 0376 4829C2   		subq	%rax, %rdx
 768 0379 4889D0   		movq	%rdx, %rax
 769 037c 4889C2   		movq	%rax, %rdx
 770 037f 488B8548 		movq	-3256(%rbp), %rax
 770      F3FFFF
 771 0386 488B00   		movq	(%rax), %rax
 772 0389 488D8DE0 		leaq	-2080(%rbp), %rcx
 772      F7FFFF
 773 0390 4889CE   		movq	%rcx, %rsi
 774 0393 4889C7   		movq	%rax, %rdi
 775 0396 E8000000 		call	mbedtls_pk_write_pubkey_der@PLT
 775      00
 776 039b 89855CF3 		movl	%eax, -3236(%rbp)
 776      FFFF
 777 03a1 83BD5CF3 		cmpl	$0, -3236(%rbp)
 777      FFFF00
 778 03a8 790B     		jns	.L52
 779              		.loc 1 197 5 is_stmt 0 discriminator 1
 780 03aa 8B855CF3 		movl	-3236(%rbp), %eax
 780      FFFF
 781 03b0 E9040400 		jmp	.L66
 781      00
 782              	.L52:
 783              		.loc 1 197 5 discriminator 2
 784 03b5 8B855CF3 		movl	-3236(%rbp), %eax
 784      FFFF
 785 03bb 4898     		cltq
 786 03bd 48018590 		addq	%rax, -3184(%rbp)
 786      F3FFFF
 198:/home/xingli/share/LiteOS_Lab/network/dtls/mbedtls/mbedtls-2.16.2/library/x509write_csr.c ****                                                 tmp_buf, c - tmp_buf ) );
 199:/home/xingli/share/LiteOS_Lab/network/dtls/mbedtls/mbedtls-2.16.2/library/x509write_csr.c ****     c -= pub_len;
 787              		.loc 1 199 7 is_stmt 1 discriminator 2
 788 03c4 488B8570 		movq	-3216(%rbp), %rax
 788      F3FFFF
 789 03cb 488B9590 		movq	-3184(%rbp), %rdx
 789      F3FFFF
 790 03d2 48F7DA   		negq	%rdx
 791 03d5 4801D0   		addq	%rdx, %rax
 792 03d8 48898570 		movq	%rax, -3216(%rbp)
 792      F3FFFF
 200:/home/xingli/share/LiteOS_Lab/network/dtls/mbedtls/mbedtls-2.16.2/library/x509write_csr.c ****     len += pub_len;
 793              		.loc 1 200 9 discriminator 2
 794 03df 488B8590 		movq	-3184(%rbp), %rax
 794      F3FFFF
 795 03e6 48018588 		addq	%rax, -3192(%rbp)
 795      F3FFFF
 201:/home/xingli/share/LiteOS_Lab/network/dtls/mbedtls/mbedtls-2.16.2/library/x509write_csr.c **** 
 202:/home/xingli/share/LiteOS_Lab/network/dtls/mbedtls/mbedtls-2.16.2/library/x509write_csr.c ****     /*
 203:/home/xingli/share/LiteOS_Lab/network/dtls/mbedtls/mbedtls-2.16.2/library/x509write_csr.c ****      *  Subject  ::=  Name
GAS LISTING /tmp/ccSBA2df.s 			page 22


 204:/home/xingli/share/LiteOS_Lab/network/dtls/mbedtls/mbedtls-2.16.2/library/x509write_csr.c ****      */
 205:/home/xingli/share/LiteOS_Lab/network/dtls/mbedtls/mbedtls-2.16.2/library/x509write_csr.c ****     MBEDTLS_ASN1_CHK_ADD( len, mbedtls_x509_write_names( &c, tmp_buf, ctx->subject ) );
 796              		.loc 1 205 5 discriminator 2
 797 03ed 488B8548 		movq	-3256(%rbp), %rax
 797      F3FFFF
 798 03f4 488B5008 		movq	8(%rax), %rdx
 799 03f8 488D8DE0 		leaq	-2080(%rbp), %rcx
 799      F7FFFF
 800 03ff 488D8570 		leaq	-3216(%rbp), %rax
 800      F3FFFF
 801 0406 4889CE   		movq	%rcx, %rsi
 802 0409 4889C7   		movq	%rax, %rdi
 803 040c E8000000 		call	mbedtls_x509_write_names@PLT
 803      00
 804 0411 89855CF3 		movl	%eax, -3236(%rbp)
 804      FFFF
 805 0417 83BD5CF3 		cmpl	$0, -3236(%rbp)
 805      FFFF00
 806 041e 790B     		jns	.L53
 807              		.loc 1 205 5 is_stmt 0 discriminator 1
 808 0420 8B855CF3 		movl	-3236(%rbp), %eax
 808      FFFF
 809 0426 E98E0300 		jmp	.L66
 809      00
 810              	.L53:
 811              		.loc 1 205 5 discriminator 2
 812 042b 8B855CF3 		movl	-3236(%rbp), %eax
 812      FFFF
 813 0431 4898     		cltq
 814 0433 48018588 		addq	%rax, -3192(%rbp)
 814      F3FFFF
 206:/home/xingli/share/LiteOS_Lab/network/dtls/mbedtls/mbedtls-2.16.2/library/x509write_csr.c **** 
 207:/home/xingli/share/LiteOS_Lab/network/dtls/mbedtls/mbedtls-2.16.2/library/x509write_csr.c ****     /*
 208:/home/xingli/share/LiteOS_Lab/network/dtls/mbedtls/mbedtls-2.16.2/library/x509write_csr.c ****      *  Version  ::=  INTEGER  {  v1(0), v2(1), v3(2)  }
 209:/home/xingli/share/LiteOS_Lab/network/dtls/mbedtls/mbedtls-2.16.2/library/x509write_csr.c ****      */
 210:/home/xingli/share/LiteOS_Lab/network/dtls/mbedtls/mbedtls-2.16.2/library/x509write_csr.c ****     MBEDTLS_ASN1_CHK_ADD( len, mbedtls_asn1_write_int( &c, tmp_buf, 0 ) );
 815              		.loc 1 210 5 is_stmt 1 discriminator 2
 816 043a 488D8DE0 		leaq	-2080(%rbp), %rcx
 816      F7FFFF
 817 0441 488D8570 		leaq	-3216(%rbp), %rax
 817      F3FFFF
 818 0448 BA000000 		movl	$0, %edx
 818      00
 819 044d 4889CE   		movq	%rcx, %rsi
 820 0450 4889C7   		movq	%rax, %rdi
 821 0453 E8000000 		call	mbedtls_asn1_write_int@PLT
 821      00
 822 0458 89855CF3 		movl	%eax, -3236(%rbp)
 822      FFFF
 823 045e 83BD5CF3 		cmpl	$0, -3236(%rbp)
 823      FFFF00
 824 0465 790B     		jns	.L54
 825              		.loc 1 210 5 is_stmt 0 discriminator 1
 826 0467 8B855CF3 		movl	-3236(%rbp), %eax
 826      FFFF
 827 046d E9470300 		jmp	.L66
 827      00
GAS LISTING /tmp/ccSBA2df.s 			page 23


 828              	.L54:
 829              		.loc 1 210 5 discriminator 2
 830 0472 8B855CF3 		movl	-3236(%rbp), %eax
 830      FFFF
 831 0478 4898     		cltq
 832 047a 48018588 		addq	%rax, -3192(%rbp)
 832      F3FFFF
 211:/home/xingli/share/LiteOS_Lab/network/dtls/mbedtls/mbedtls-2.16.2/library/x509write_csr.c **** 
 212:/home/xingli/share/LiteOS_Lab/network/dtls/mbedtls/mbedtls-2.16.2/library/x509write_csr.c ****     MBEDTLS_ASN1_CHK_ADD( len, mbedtls_asn1_write_len( &c, tmp_buf, len ) );
 833              		.loc 1 212 5 is_stmt 1 discriminator 2
 834 0481 488B9588 		movq	-3192(%rbp), %rdx
 834      F3FFFF
 835 0488 488D8DE0 		leaq	-2080(%rbp), %rcx
 835      F7FFFF
 836 048f 488D8570 		leaq	-3216(%rbp), %rax
 836      F3FFFF
 837 0496 4889CE   		movq	%rcx, %rsi
 838 0499 4889C7   		movq	%rax, %rdi
 839 049c E8000000 		call	mbedtls_asn1_write_len@PLT
 839      00
 840 04a1 89855CF3 		movl	%eax, -3236(%rbp)
 840      FFFF
 841 04a7 83BD5CF3 		cmpl	$0, -3236(%rbp)
 841      FFFF00
 842 04ae 790B     		jns	.L55
 843              		.loc 1 212 5 is_stmt 0 discriminator 1
 844 04b0 8B855CF3 		movl	-3236(%rbp), %eax
 844      FFFF
 845 04b6 E9FE0200 		jmp	.L66
 845      00
 846              	.L55:
 847              		.loc 1 212 5 discriminator 2
 848 04bb 8B855CF3 		movl	-3236(%rbp), %eax
 848      FFFF
 849 04c1 4898     		cltq
 850 04c3 48018588 		addq	%rax, -3192(%rbp)
 850      F3FFFF
 213:/home/xingli/share/LiteOS_Lab/network/dtls/mbedtls/mbedtls-2.16.2/library/x509write_csr.c ****     MBEDTLS_ASN1_CHK_ADD( len, mbedtls_asn1_write_tag( &c, tmp_buf, MBEDTLS_ASN1_CONSTRUCTED |
 851              		.loc 1 213 5 is_stmt 1 discriminator 2
 852 04ca 488D8DE0 		leaq	-2080(%rbp), %rcx
 852      F7FFFF
 853 04d1 488D8570 		leaq	-3216(%rbp), %rax
 853      F3FFFF
 854 04d8 BA300000 		movl	$48, %edx
 854      00
 855 04dd 4889CE   		movq	%rcx, %rsi
 856 04e0 4889C7   		movq	%rax, %rdi
 857 04e3 E8000000 		call	mbedtls_asn1_write_tag@PLT
 857      00
 858 04e8 89855CF3 		movl	%eax, -3236(%rbp)
 858      FFFF
 859 04ee 83BD5CF3 		cmpl	$0, -3236(%rbp)
 859      FFFF00
 860 04f5 790B     		jns	.L56
 861              		.loc 1 213 5 is_stmt 0 discriminator 1
 862 04f7 8B855CF3 		movl	-3236(%rbp), %eax
 862      FFFF
GAS LISTING /tmp/ccSBA2df.s 			page 24


 863 04fd E9B70200 		jmp	.L66
 863      00
 864              	.L56:
 865              		.loc 1 213 5 discriminator 2
 866 0502 8B855CF3 		movl	-3236(%rbp), %eax
 866      FFFF
 867 0508 4898     		cltq
 868 050a 48018588 		addq	%rax, -3192(%rbp)
 868      F3FFFF
 214:/home/xingli/share/LiteOS_Lab/network/dtls/mbedtls/mbedtls-2.16.2/library/x509write_csr.c ****                                                     MBEDTLS_ASN1_SEQUENCE ) );
 215:/home/xingli/share/LiteOS_Lab/network/dtls/mbedtls/mbedtls-2.16.2/library/x509write_csr.c **** 
 216:/home/xingli/share/LiteOS_Lab/network/dtls/mbedtls/mbedtls-2.16.2/library/x509write_csr.c ****     /*
 217:/home/xingli/share/LiteOS_Lab/network/dtls/mbedtls/mbedtls-2.16.2/library/x509write_csr.c ****      * Prepare signature
 218:/home/xingli/share/LiteOS_Lab/network/dtls/mbedtls/mbedtls-2.16.2/library/x509write_csr.c ****      */
 219:/home/xingli/share/LiteOS_Lab/network/dtls/mbedtls/mbedtls-2.16.2/library/x509write_csr.c ****     mbedtls_md( mbedtls_md_info_from_type( ctx->md_alg ), c, len, hash );
 869              		.loc 1 219 5 is_stmt 1 discriminator 2
 870 0511 488B9D70 		movq	-3216(%rbp), %rbx
 870      F3FFFF
 871 0518 488B8548 		movq	-3256(%rbp), %rax
 871      F3FFFF
 872 051f 8B4010   		movl	16(%rax), %eax
 873 0522 89C7     		movl	%eax, %edi
 874 0524 E8000000 		call	mbedtls_md_info_from_type@PLT
 874      00
 875 0529 4889C7   		movq	%rax, %rdi
 876 052c 488D95A0 		leaq	-3168(%rbp), %rdx
 876      F3FFFF
 877 0533 488B8588 		movq	-3192(%rbp), %rax
 877      F3FFFF
 878 053a 4889D1   		movq	%rdx, %rcx
 879 053d 4889C2   		movq	%rax, %rdx
 880 0540 4889DE   		movq	%rbx, %rsi
 881 0543 E8000000 		call	mbedtls_md@PLT
 881      00
 220:/home/xingli/share/LiteOS_Lab/network/dtls/mbedtls/mbedtls-2.16.2/library/x509write_csr.c **** 
 221:/home/xingli/share/LiteOS_Lab/network/dtls/mbedtls/mbedtls-2.16.2/library/x509write_csr.c ****     if( ( ret = mbedtls_pk_sign( ctx->key, ctx->md_alg, hash, 0, sig, &sig_len,
 882              		.loc 1 221 17 discriminator 2
 883 0548 488B8548 		movq	-3256(%rbp), %rax
 883      F3FFFF
 884 054f 8B7010   		movl	16(%rax), %esi
 885 0552 488B8548 		movq	-3256(%rbp), %rax
 885      F3FFFF
 886 0559 488B00   		movq	(%rax), %rax
 887 055c 488DBD80 		leaq	-3200(%rbp), %rdi
 887      F3FFFF
 888 0563 488D8DE0 		leaq	-3104(%rbp), %rcx
 888      F3FFFF
 889 056a 488D95A0 		leaq	-3168(%rbp), %rdx
 889      F3FFFF
 890 0571 FFB528F3 		pushq	-3288(%rbp)
 890      FFFF
 891 0577 FFB530F3 		pushq	-3280(%rbp)
 891      FFFF
 892 057d 4989F9   		movq	%rdi, %r9
 893 0580 4989C8   		movq	%rcx, %r8
 894 0583 B9000000 		movl	$0, %ecx
 894      00
GAS LISTING /tmp/ccSBA2df.s 			page 25


 895 0588 4889C7   		movq	%rax, %rdi
 896 058b E8000000 		call	mbedtls_pk_sign@PLT
 896      00
 897 0590 4883C410 		addq	$16, %rsp
 898 0594 89855CF3 		movl	%eax, -3236(%rbp)
 898      FFFF
 899              		.loc 1 221 7 discriminator 2
 900 059a 83BD5CF3 		cmpl	$0, -3236(%rbp)
 900      FFFF00
 901 05a1 740B     		je	.L57
 222:/home/xingli/share/LiteOS_Lab/network/dtls/mbedtls/mbedtls-2.16.2/library/x509write_csr.c ****                                  f_rng, p_rng ) ) != 0 )
 223:/home/xingli/share/LiteOS_Lab/network/dtls/mbedtls/mbedtls-2.16.2/library/x509write_csr.c ****     {
 224:/home/xingli/share/LiteOS_Lab/network/dtls/mbedtls/mbedtls-2.16.2/library/x509write_csr.c ****         return( ret );
 902              		.loc 1 224 15
 903 05a3 8B855CF3 		movl	-3236(%rbp), %eax
 903      FFFF
 904 05a9 E90B0200 		jmp	.L66
 904      00
 905              	.L57:
 225:/home/xingli/share/LiteOS_Lab/network/dtls/mbedtls/mbedtls-2.16.2/library/x509write_csr.c ****     }
 226:/home/xingli/share/LiteOS_Lab/network/dtls/mbedtls/mbedtls-2.16.2/library/x509write_csr.c **** 
 227:/home/xingli/share/LiteOS_Lab/network/dtls/mbedtls/mbedtls-2.16.2/library/x509write_csr.c ****     if( mbedtls_pk_can_do( ctx->key, MBEDTLS_PK_RSA ) )
 906              		.loc 1 227 31
 907 05ae 488B8548 		movq	-3256(%rbp), %rax
 907      F3FFFF
 908 05b5 488B00   		movq	(%rax), %rax
 909              		.loc 1 227 9
 910 05b8 BE010000 		movl	$1, %esi
 910      00
 911 05bd 4889C7   		movq	%rax, %rdi
 912 05c0 E8000000 		call	mbedtls_pk_can_do@PLT
 912      00
 913              		.loc 1 227 7
 914 05c5 85C0     		testl	%eax, %eax
 915 05c7 740C     		je	.L58
 228:/home/xingli/share/LiteOS_Lab/network/dtls/mbedtls/mbedtls-2.16.2/library/x509write_csr.c ****         pk_alg = MBEDTLS_PK_RSA;
 916              		.loc 1 228 16
 917 05c9 C78558F3 		movl	$1, -3240(%rbp)
 917      FFFF0100 
 917      0000
 918 05d3 EB31     		jmp	.L59
 919              	.L58:
 229:/home/xingli/share/LiteOS_Lab/network/dtls/mbedtls/mbedtls-2.16.2/library/x509write_csr.c ****     else if( mbedtls_pk_can_do( ctx->key, MBEDTLS_PK_ECDSA ) )
 920              		.loc 1 229 36
 921 05d5 488B8548 		movq	-3256(%rbp), %rax
 921      F3FFFF
 922 05dc 488B00   		movq	(%rax), %rax
 923              		.loc 1 229 14
 924 05df BE040000 		movl	$4, %esi
 924      00
 925 05e4 4889C7   		movq	%rax, %rdi
 926 05e7 E8000000 		call	mbedtls_pk_can_do@PLT
 926      00
 927              		.loc 1 229 12
 928 05ec 85C0     		testl	%eax, %eax
 929 05ee 740C     		je	.L60
 230:/home/xingli/share/LiteOS_Lab/network/dtls/mbedtls/mbedtls-2.16.2/library/x509write_csr.c ****         pk_alg = MBEDTLS_PK_ECDSA;
GAS LISTING /tmp/ccSBA2df.s 			page 26


 930              		.loc 1 230 16
 931 05f0 C78558F3 		movl	$4, -3240(%rbp)
 931      FFFF0400 
 931      0000
 932 05fa EB0A     		jmp	.L59
 933              	.L60:
 231:/home/xingli/share/LiteOS_Lab/network/dtls/mbedtls/mbedtls-2.16.2/library/x509write_csr.c ****     else
 232:/home/xingli/share/LiteOS_Lab/network/dtls/mbedtls/mbedtls-2.16.2/library/x509write_csr.c ****         return( MBEDTLS_ERR_X509_INVALID_ALG );
 934              		.loc 1 232 15
 935 05fc B800DDFF 		movl	$-8960, %eax
 935      FF
 936 0601 E9B30100 		jmp	.L66
 936      00
 937              	.L59:
 233:/home/xingli/share/LiteOS_Lab/network/dtls/mbedtls/mbedtls-2.16.2/library/x509write_csr.c **** 
 234:/home/xingli/share/LiteOS_Lab/network/dtls/mbedtls/mbedtls-2.16.2/library/x509write_csr.c ****     if( ( ret = mbedtls_oid_get_oid_by_sig_alg( pk_alg, ctx->md_alg,
 938              		.loc 1 234 17
 939 0606 488B8548 		movq	-3256(%rbp), %rax
 939      F3FFFF
 940 060d 8B7010   		movl	16(%rax), %esi
 941 0610 488D8D68 		leaq	-3224(%rbp), %rcx
 941      F3FFFF
 942 0617 488D9560 		leaq	-3232(%rbp), %rdx
 942      F3FFFF
 943 061e 8B8558F3 		movl	-3240(%rbp), %eax
 943      FFFF
 944 0624 89C7     		movl	%eax, %edi
 945 0626 E8000000 		call	mbedtls_oid_get_oid_by_sig_alg@PLT
 945      00
 946 062b 89855CF3 		movl	%eax, -3236(%rbp)
 946      FFFF
 947              		.loc 1 234 7
 948 0631 83BD5CF3 		cmpl	$0, -3236(%rbp)
 948      FFFF00
 949 0638 740B     		je	.L61
 235:/home/xingli/share/LiteOS_Lab/network/dtls/mbedtls/mbedtls-2.16.2/library/x509write_csr.c ****                                                 &sig_oid, &sig_oid_len ) ) != 0 )
 236:/home/xingli/share/LiteOS_Lab/network/dtls/mbedtls/mbedtls-2.16.2/library/x509write_csr.c ****     {
 237:/home/xingli/share/LiteOS_Lab/network/dtls/mbedtls/mbedtls-2.16.2/library/x509write_csr.c ****         return( ret );
 950              		.loc 1 237 15
 951 063a 8B855CF3 		movl	-3236(%rbp), %eax
 951      FFFF
 952 0640 E9740100 		jmp	.L66
 952      00
 953              	.L61:
 238:/home/xingli/share/LiteOS_Lab/network/dtls/mbedtls/mbedtls-2.16.2/library/x509write_csr.c ****     }
 239:/home/xingli/share/LiteOS_Lab/network/dtls/mbedtls/mbedtls-2.16.2/library/x509write_csr.c **** 
 240:/home/xingli/share/LiteOS_Lab/network/dtls/mbedtls/mbedtls-2.16.2/library/x509write_csr.c ****     /*
 241:/home/xingli/share/LiteOS_Lab/network/dtls/mbedtls/mbedtls-2.16.2/library/x509write_csr.c ****      * Write data to output buffer
 242:/home/xingli/share/LiteOS_Lab/network/dtls/mbedtls/mbedtls-2.16.2/library/x509write_csr.c ****      */
 243:/home/xingli/share/LiteOS_Lab/network/dtls/mbedtls/mbedtls-2.16.2/library/x509write_csr.c ****     c2 = buf + size;
 954              		.loc 1 243 14
 955 0645 488B9540 		movq	-3264(%rbp), %rdx
 955      F3FFFF
 956 064c 488B8538 		movq	-3272(%rbp), %rax
 956      F3FFFF
 957 0653 4801D0   		addq	%rdx, %rax
 958              		.loc 1 243 8
GAS LISTING /tmp/ccSBA2df.s 			page 27


 959 0656 48898578 		movq	%rax, -3208(%rbp)
 959      F3FFFF
 244:/home/xingli/share/LiteOS_Lab/network/dtls/mbedtls/mbedtls-2.16.2/library/x509write_csr.c ****     MBEDTLS_ASN1_CHK_ADD( sig_and_oid_len, mbedtls_x509_write_sig( &c2, buf,
 960              		.loc 1 244 5
 961 065d 4C8B8580 		movq	-3200(%rbp), %r8
 961      F3FFFF
 962 0664 488B8D68 		movq	-3224(%rbp), %rcx
 962      F3FFFF
 963 066b 488B9560 		movq	-3232(%rbp), %rdx
 963      F3FFFF
 964 0672 488DBDE0 		leaq	-3104(%rbp), %rdi
 964      F3FFFF
 965 0679 488BB540 		movq	-3264(%rbp), %rsi
 965      F3FFFF
 966 0680 488D8578 		leaq	-3208(%rbp), %rax
 966      F3FFFF
 967 0687 4D89C1   		movq	%r8, %r9
 968 068a 4989F8   		movq	%rdi, %r8
 969 068d 4889C7   		movq	%rax, %rdi
 970 0690 E8000000 		call	mbedtls_x509_write_sig@PLT
 970      00
 971 0695 89855CF3 		movl	%eax, -3236(%rbp)
 971      FFFF
 972 069b 83BD5CF3 		cmpl	$0, -3236(%rbp)
 972      FFFF00
 973 06a2 790B     		jns	.L62
 974              		.loc 1 244 5 is_stmt 0 discriminator 1
 975 06a4 8B855CF3 		movl	-3236(%rbp), %eax
 975      FFFF
 976 06aa E90A0100 		jmp	.L66
 976      00
 977              	.L62:
 978              		.loc 1 244 5 discriminator 2
 979 06af 8B855CF3 		movl	-3236(%rbp), %eax
 979      FFFF
 980 06b5 4898     		cltq
 981 06b7 48018598 		addq	%rax, -3176(%rbp)
 981      F3FFFF
 245:/home/xingli/share/LiteOS_Lab/network/dtls/mbedtls/mbedtls-2.16.2/library/x509write_csr.c ****                                         sig_oid, sig_oid_len, sig, sig_len ) );
 246:/home/xingli/share/LiteOS_Lab/network/dtls/mbedtls/mbedtls-2.16.2/library/x509write_csr.c **** 
 247:/home/xingli/share/LiteOS_Lab/network/dtls/mbedtls/mbedtls-2.16.2/library/x509write_csr.c ****     if( len > (size_t)( c2 - buf ) )
 982              		.loc 1 247 28 is_stmt 1 discriminator 2
 983 06be 488B8578 		movq	-3208(%rbp), %rax
 983      F3FFFF
 984 06c5 482B8540 		subq	-3264(%rbp), %rax
 984      F3FFFF
 985              		.loc 1 247 7 discriminator 2
 986 06cc 48398588 		cmpq	%rax, -3192(%rbp)
 986      F3FFFF
 987 06d3 760A     		jbe	.L63
 248:/home/xingli/share/LiteOS_Lab/network/dtls/mbedtls/mbedtls-2.16.2/library/x509write_csr.c ****         return( MBEDTLS_ERR_ASN1_BUF_TOO_SMALL );
 988              		.loc 1 248 15
 989 06d5 B894FFFF 		movl	$-108, %eax
 989      FF
 990 06da E9DA0000 		jmp	.L66
 990      00
 991              	.L63:
GAS LISTING /tmp/ccSBA2df.s 			page 28


 249:/home/xingli/share/LiteOS_Lab/network/dtls/mbedtls/mbedtls-2.16.2/library/x509write_csr.c **** 
 250:/home/xingli/share/LiteOS_Lab/network/dtls/mbedtls/mbedtls-2.16.2/library/x509write_csr.c ****     c2 -= len;
 992              		.loc 1 250 8
 993 06df 488B8578 		movq	-3208(%rbp), %rax
 993      F3FFFF
 994 06e6 488B9588 		movq	-3192(%rbp), %rdx
 994      F3FFFF
 995 06ed 48F7DA   		negq	%rdx
 996 06f0 4801D0   		addq	%rdx, %rax
 997 06f3 48898578 		movq	%rax, -3208(%rbp)
 997      F3FFFF
 251:/home/xingli/share/LiteOS_Lab/network/dtls/mbedtls/mbedtls-2.16.2/library/x509write_csr.c ****     memcpy( c2, c, len );
 998              		.loc 1 251 5
 999 06fa 488B8D70 		movq	-3216(%rbp), %rcx
 999      F3FFFF
 1000 0701 488B8578 		movq	-3208(%rbp), %rax
 1000      F3FFFF
 1001 0708 488B9588 		movq	-3192(%rbp), %rdx
 1001      F3FFFF
 1002 070f 4889CE   		movq	%rcx, %rsi
 1003 0712 4889C7   		movq	%rax, %rdi
 1004 0715 E8000000 		call	memcpy@PLT
 1004      00
 252:/home/xingli/share/LiteOS_Lab/network/dtls/mbedtls/mbedtls-2.16.2/library/x509write_csr.c **** 
 253:/home/xingli/share/LiteOS_Lab/network/dtls/mbedtls/mbedtls-2.16.2/library/x509write_csr.c ****     len += sig_and_oid_len;
 1005              		.loc 1 253 9
 1006 071a 488B8598 		movq	-3176(%rbp), %rax
 1006      F3FFFF
 1007 0721 48018588 		addq	%rax, -3192(%rbp)
 1007      F3FFFF
 254:/home/xingli/share/LiteOS_Lab/network/dtls/mbedtls/mbedtls-2.16.2/library/x509write_csr.c ****     MBEDTLS_ASN1_CHK_ADD( len, mbedtls_asn1_write_len( &c2, buf, len ) );
 1008              		.loc 1 254 5
 1009 0728 488B9588 		movq	-3192(%rbp), %rdx
 1009      F3FFFF
 1010 072f 488B8D40 		movq	-3264(%rbp), %rcx
 1010      F3FFFF
 1011 0736 488D8578 		leaq	-3208(%rbp), %rax
 1011      F3FFFF
 1012 073d 4889CE   		movq	%rcx, %rsi
 1013 0740 4889C7   		movq	%rax, %rdi
 1014 0743 E8000000 		call	mbedtls_asn1_write_len@PLT
 1014      00
 1015 0748 89855CF3 		movl	%eax, -3236(%rbp)
 1015      FFFF
 1016 074e 83BD5CF3 		cmpl	$0, -3236(%rbp)
 1016      FFFF00
 1017 0755 7908     		jns	.L64
 1018              		.loc 1 254 5 is_stmt 0 discriminator 1
 1019 0757 8B855CF3 		movl	-3236(%rbp), %eax
 1019      FFFF
 1020 075d EB5A     		jmp	.L66
 1021              	.L64:
 1022              		.loc 1 254 5 discriminator 2
 1023 075f 8B855CF3 		movl	-3236(%rbp), %eax
 1023      FFFF
 1024 0765 4898     		cltq
 1025 0767 48018588 		addq	%rax, -3192(%rbp)
GAS LISTING /tmp/ccSBA2df.s 			page 29


 1025      F3FFFF
 255:/home/xingli/share/LiteOS_Lab/network/dtls/mbedtls/mbedtls-2.16.2/library/x509write_csr.c ****     MBEDTLS_ASN1_CHK_ADD( len, mbedtls_asn1_write_tag( &c2, buf, MBEDTLS_ASN1_CONSTRUCTED |
 1026              		.loc 1 255 5 is_stmt 1 discriminator 2
 1027 076e 488B8D40 		movq	-3264(%rbp), %rcx
 1027      F3FFFF
 1028 0775 488D8578 		leaq	-3208(%rbp), %rax
 1028      F3FFFF
 1029 077c BA300000 		movl	$48, %edx
 1029      00
 1030 0781 4889CE   		movq	%rcx, %rsi
 1031 0784 4889C7   		movq	%rax, %rdi
 1032 0787 E8000000 		call	mbedtls_asn1_write_tag@PLT
 1032      00
 1033 078c 89855CF3 		movl	%eax, -3236(%rbp)
 1033      FFFF
 1034 0792 83BD5CF3 		cmpl	$0, -3236(%rbp)
 1034      FFFF00
 1035 0799 7908     		jns	.L65
 1036              		.loc 1 255 5 is_stmt 0 discriminator 1
 1037 079b 8B855CF3 		movl	-3236(%rbp), %eax
 1037      FFFF
 1038 07a1 EB16     		jmp	.L66
 1039              	.L65:
 1040              		.loc 1 255 5 discriminator 2
 1041 07a3 8B855CF3 		movl	-3236(%rbp), %eax
 1041      FFFF
 1042 07a9 4898     		cltq
 1043 07ab 48018588 		addq	%rax, -3192(%rbp)
 1043      F3FFFF
 256:/home/xingli/share/LiteOS_Lab/network/dtls/mbedtls/mbedtls-2.16.2/library/x509write_csr.c ****                                                  MBEDTLS_ASN1_SEQUENCE ) );
 257:/home/xingli/share/LiteOS_Lab/network/dtls/mbedtls/mbedtls-2.16.2/library/x509write_csr.c **** 
 258:/home/xingli/share/LiteOS_Lab/network/dtls/mbedtls/mbedtls-2.16.2/library/x509write_csr.c ****     return( (int) len );
 1044              		.loc 1 258 13 is_stmt 1 discriminator 2
 1045 07b2 488B8588 		movq	-3192(%rbp), %rax
 1045      F3FFFF
 1046              	.L66:
 259:/home/xingli/share/LiteOS_Lab/network/dtls/mbedtls/mbedtls-2.16.2/library/x509write_csr.c **** }
 1047              		.loc 1 259 1 discriminator 1
 1048 07b9 488B5DE8 		movq	-24(%rbp), %rbx
 1049 07bd 6448331C 		xorq	%fs:40, %rbx
 1049      25280000 
 1049      00
 1050 07c6 7405     		je	.L67
 1051              		.loc 1 259 1 is_stmt 0
 1052 07c8 E8000000 		call	__stack_chk_fail@PLT
 1052      00
 1053              	.L67:
 1054 07cd 488B5DF8 		movq	-8(%rbp), %rbx
 1055 07d1 C9       		leave
 1056              	.LCFI29:
 1057              		.cfi_def_cfa 7, 8
 1058 07d2 C3       		ret
 1059              		.cfi_endproc
 1060              	.LFE25:
 1062              		.section	.rodata
 1063              		.align 8
 1064              	.LC3:
GAS LISTING /tmp/ccSBA2df.s 			page 30


 1065 0018 2D2D2D2D 		.string	"-----END CERTIFICATE REQUEST-----\n"
 1065      2D454E44 
 1065      20434552 
 1065      54494649 
 1065      43415445 
 1066 003b 00000000 		.align 8
 1066      00
 1067              	.LC4:
 1068 0040 2D2D2D2D 		.string	"-----BEGIN CERTIFICATE REQUEST-----\n"
 1068      2D424547 
 1068      494E2043 
 1068      45525449 
 1068      46494341 
 1069              		.section	.text.mbedtls_x509write_csr_pem,"ax",@progbits
 1070              		.globl	mbedtls_x509write_csr_pem
 1072              	mbedtls_x509write_csr_pem:
 1073              	.LFB26:
 260:/home/xingli/share/LiteOS_Lab/network/dtls/mbedtls/mbedtls-2.16.2/library/x509write_csr.c **** 
 261:/home/xingli/share/LiteOS_Lab/network/dtls/mbedtls/mbedtls-2.16.2/library/x509write_csr.c **** #define PEM_BEGIN_CSR           "-----BEGIN CERTIFICATE REQUEST-----\n"
 262:/home/xingli/share/LiteOS_Lab/network/dtls/mbedtls/mbedtls-2.16.2/library/x509write_csr.c **** #define PEM_END_CSR             "-----END CERTIFICATE REQUEST-----\n"
 263:/home/xingli/share/LiteOS_Lab/network/dtls/mbedtls/mbedtls-2.16.2/library/x509write_csr.c **** 
 264:/home/xingli/share/LiteOS_Lab/network/dtls/mbedtls/mbedtls-2.16.2/library/x509write_csr.c **** #if defined(MBEDTLS_PEM_WRITE_C)
 265:/home/xingli/share/LiteOS_Lab/network/dtls/mbedtls/mbedtls-2.16.2/library/x509write_csr.c **** int mbedtls_x509write_csr_pem( mbedtls_x509write_csr *ctx, unsigned char *buf, size_t size,
 266:/home/xingli/share/LiteOS_Lab/network/dtls/mbedtls/mbedtls-2.16.2/library/x509write_csr.c ****                        int (*f_rng)(void *, unsigned char *, size_t),
 267:/home/xingli/share/LiteOS_Lab/network/dtls/mbedtls/mbedtls-2.16.2/library/x509write_csr.c ****                        void *p_rng )
 268:/home/xingli/share/LiteOS_Lab/network/dtls/mbedtls/mbedtls-2.16.2/library/x509write_csr.c **** {
 1074              		.loc 1 268 1 is_stmt 1
 1075              		.cfi_startproc
 1076 0000 F30F1EFA 		endbr64
 1077 0004 55       		pushq	%rbp
 1078              	.LCFI30:
 1079              		.cfi_def_cfa_offset 16
 1080              		.cfi_offset 6, -16
 1081 0005 4889E5   		movq	%rsp, %rbp
 1082              	.LCFI31:
 1083              		.cfi_def_cfa_register 6
 1084 0008 4881EC00 		subq	$4096, %rsp
 1084      100000
 1085 000f 48830C24 		orq	$0, (%rsp)
 1085      00
 1086 0014 4883EC50 		subq	$80, %rsp
 1087 0018 4889BDD8 		movq	%rdi, -4136(%rbp)
 1087      EFFFFF
 1088 001f 4889B5D0 		movq	%rsi, -4144(%rbp)
 1088      EFFFFF
 1089 0026 488995C8 		movq	%rdx, -4152(%rbp)
 1089      EFFFFF
 1090 002d 48898DC0 		movq	%rcx, -4160(%rbp)
 1090      EFFFFF
 1091 0034 4C8985B8 		movq	%r8, -4168(%rbp)
 1091      EFFFFF
 1092              		.loc 1 268 1
 1093 003b 64488B04 		movq	%fs:40, %rax
 1093      25280000 
 1093      00
 1094 0044 488945F8 		movq	%rax, -8(%rbp)
 1095 0048 31C0     		xorl	%eax, %eax
GAS LISTING /tmp/ccSBA2df.s 			page 31


 269:/home/xingli/share/LiteOS_Lab/network/dtls/mbedtls/mbedtls-2.16.2/library/x509write_csr.c ****     int ret;
 270:/home/xingli/share/LiteOS_Lab/network/dtls/mbedtls/mbedtls-2.16.2/library/x509write_csr.c ****     unsigned char output_buf[4096];
 271:/home/xingli/share/LiteOS_Lab/network/dtls/mbedtls/mbedtls-2.16.2/library/x509write_csr.c ****     size_t olen = 0;
 1096              		.loc 1 271 12
 1097 004a 48C785E8 		movq	$0, -4120(%rbp)
 1097      EFFFFF00 
 1097      000000
 272:/home/xingli/share/LiteOS_Lab/network/dtls/mbedtls/mbedtls-2.16.2/library/x509write_csr.c **** 
 273:/home/xingli/share/LiteOS_Lab/network/dtls/mbedtls/mbedtls-2.16.2/library/x509write_csr.c ****     if( ( ret = mbedtls_x509write_csr_der( ctx, output_buf, sizeof(output_buf),
 1098              		.loc 1 273 17
 1099 0055 488B8DB8 		movq	-4168(%rbp), %rcx
 1099      EFFFFF
 1100 005c 488B95C0 		movq	-4160(%rbp), %rdx
 1100      EFFFFF
 1101 0063 488DB5F0 		leaq	-4112(%rbp), %rsi
 1101      EFFFFF
 1102 006a 488B85D8 		movq	-4136(%rbp), %rax
 1102      EFFFFF
 1103 0071 4989C8   		movq	%rcx, %r8
 1104 0074 4889D1   		movq	%rdx, %rcx
 1105 0077 BA001000 		movl	$4096, %edx
 1105      00
 1106 007c 4889C7   		movq	%rax, %rdi
 1107 007f E8000000 		call	mbedtls_x509write_csr_der
 1107      00
 1108 0084 8985E4EF 		movl	%eax, -4124(%rbp)
 1108      FFFF
 1109              		.loc 1 273 7
 1110 008a 83BDE4EF 		cmpl	$0, -4124(%rbp)
 1110      FFFF00
 1111 0091 7908     		jns	.L69
 274:/home/xingli/share/LiteOS_Lab/network/dtls/mbedtls/mbedtls-2.16.2/library/x509write_csr.c ****                                    f_rng, p_rng ) ) < 0 )
 275:/home/xingli/share/LiteOS_Lab/network/dtls/mbedtls/mbedtls-2.16.2/library/x509write_csr.c ****     {
 276:/home/xingli/share/LiteOS_Lab/network/dtls/mbedtls/mbedtls-2.16.2/library/x509write_csr.c ****         return( ret );
 1112              		.loc 1 276 15
 1113 0093 8B85E4EF 		movl	-4124(%rbp), %eax
 1113      FFFF
 1114 0099 EB79     		jmp	.L72
 1115              	.L69:
 277:/home/xingli/share/LiteOS_Lab/network/dtls/mbedtls/mbedtls-2.16.2/library/x509write_csr.c ****     }
 278:/home/xingli/share/LiteOS_Lab/network/dtls/mbedtls/mbedtls-2.16.2/library/x509write_csr.c **** 
 279:/home/xingli/share/LiteOS_Lab/network/dtls/mbedtls/mbedtls-2.16.2/library/x509write_csr.c ****     if( ( ret = mbedtls_pem_write_buffer( PEM_BEGIN_CSR, PEM_END_CSR,
 1116              		.loc 1 279 17
 1117 009b 8B85E4EF 		movl	-4124(%rbp), %eax
 1117      FFFF
 1118 00a1 4898     		cltq
 280:/home/xingli/share/LiteOS_Lab/network/dtls/mbedtls/mbedtls-2.16.2/library/x509write_csr.c ****                                   output_buf + sizeof(output_buf) - ret,
 1119              		.loc 1 280 67
 1120 00a3 8B95E4EF 		movl	-4124(%rbp), %edx
 1120      FFFF
 1121 00a9 4863D2   		movslq	%edx, %rdx
 1122 00ac B9001000 		movl	$4096, %ecx
 1122      00
 1123 00b1 4829D1   		subq	%rdx, %rcx
 279:/home/xingli/share/LiteOS_Lab/network/dtls/mbedtls/mbedtls-2.16.2/library/x509write_csr.c ****                                   output_buf + sizeof(output_buf) - ret,
 1124              		.loc 1 279 17
 1125 00b4 488D95F0 		leaq	-4112(%rbp), %rdx
GAS LISTING /tmp/ccSBA2df.s 			page 32


 1125      EFFFFF
 1126 00bb 4801CA   		addq	%rcx, %rdx
 1127 00be 488BBDC8 		movq	-4152(%rbp), %rdi
 1127      EFFFFF
 1128 00c5 488BB5D0 		movq	-4144(%rbp), %rsi
 1128      EFFFFF
 1129 00cc 4883EC08 		subq	$8, %rsp
 1130 00d0 488D8DE8 		leaq	-4120(%rbp), %rcx
 1130      EFFFFF
 1131 00d7 51       		pushq	%rcx
 1132 00d8 4989F9   		movq	%rdi, %r9
 1133 00db 4989F0   		movq	%rsi, %r8
 1134 00de 4889C1   		movq	%rax, %rcx
 1135 00e1 488D3500 		leaq	.LC3(%rip), %rsi
 1135      000000
 1136 00e8 488D3D00 		leaq	.LC4(%rip), %rdi
 1136      000000
 1137 00ef E8000000 		call	mbedtls_pem_write_buffer@PLT
 1137      00
 1138 00f4 4883C410 		addq	$16, %rsp
 1139 00f8 8985E4EF 		movl	%eax, -4124(%rbp)
 1139      FFFF
 279:/home/xingli/share/LiteOS_Lab/network/dtls/mbedtls/mbedtls-2.16.2/library/x509write_csr.c ****                                   output_buf + sizeof(output_buf) - ret,
 1140              		.loc 1 279 7
 1141 00fe 83BDE4EF 		cmpl	$0, -4124(%rbp)
 1141      FFFF00
 1142 0105 7408     		je	.L71
 281:/home/xingli/share/LiteOS_Lab/network/dtls/mbedtls/mbedtls-2.16.2/library/x509write_csr.c ****                                   ret, buf, size, &olen ) ) != 0 )
 282:/home/xingli/share/LiteOS_Lab/network/dtls/mbedtls/mbedtls-2.16.2/library/x509write_csr.c ****     {
 283:/home/xingli/share/LiteOS_Lab/network/dtls/mbedtls/mbedtls-2.16.2/library/x509write_csr.c ****         return( ret );
 1143              		.loc 1 283 15
 1144 0107 8B85E4EF 		movl	-4124(%rbp), %eax
 1144      FFFF
 1145 010d EB05     		jmp	.L72
 1146              	.L71:
 284:/home/xingli/share/LiteOS_Lab/network/dtls/mbedtls/mbedtls-2.16.2/library/x509write_csr.c ****     }
 285:/home/xingli/share/LiteOS_Lab/network/dtls/mbedtls/mbedtls-2.16.2/library/x509write_csr.c **** 
 286:/home/xingli/share/LiteOS_Lab/network/dtls/mbedtls/mbedtls-2.16.2/library/x509write_csr.c ****     return( 0 );
 1147              		.loc 1 286 11
 1148 010f B8000000 		movl	$0, %eax
 1148      00
 1149              	.L72:
 287:/home/xingli/share/LiteOS_Lab/network/dtls/mbedtls/mbedtls-2.16.2/library/x509write_csr.c **** }
 1150              		.loc 1 287 1 discriminator 1
 1151 0114 488B7DF8 		movq	-8(%rbp), %rdi
 1152 0118 6448333C 		xorq	%fs:40, %rdi
 1152      25280000 
 1152      00
 1153 0121 7405     		je	.L73
 1154              		.loc 1 287 1 is_stmt 0
 1155 0123 E8000000 		call	__stack_chk_fail@PLT
 1155      00
 1156              	.L73:
 1157 0128 C9       		leave
 1158              	.LCFI32:
 1159              		.cfi_def_cfa 7, 8
 1160 0129 C3       		ret
GAS LISTING /tmp/ccSBA2df.s 			page 33


 1161              		.cfi_endproc
 1162              	.LFE26:
 1164              		.text
 1165              	.Letext0:
 1166              		.file 2 "/home/xingli/share/LiteOS_Lab/network/dtls/mbedtls/mbedtls-2.16.2/include/mbedtls/asn1.h"
 1167              		.file 3 "/usr/lib/gcc/x86_64-linux-gnu/9/include/stddef.h"
 1168              		.file 4 "/home/xingli/share/LiteOS_Lab/network/dtls/mbedtls/mbedtls-2.16.2/include/mbedtls/md.h"
 1169              		.file 5 "/home/xingli/share/LiteOS_Lab/network/dtls/mbedtls/mbedtls-2.16.2/include/mbedtls/pk.h"
 1170              		.file 6 "/home/xingli/share/LiteOS_Lab/network/dtls/mbedtls/mbedtls-2.16.2/include/mbedtls/x509_cs
 3189              		.section	.note.gnu.property,"a"
 3190              		.align 8
 3191 0000 04000000 		.long	 1f - 0f
 3192 0004 10000000 		.long	 4f - 1f
 3193 0008 05000000 		.long	 5
 3194              	0:
 3195 000c 474E5500 		.string	 "GNU"
 3196              	1:
 3197              		.align 8
 3198 0010 020000C0 		.long	 0xc0000002
 3199 0014 04000000 		.long	 3f - 2f
 3200              	2:
 3201 0018 03000000 		.long	 0x3
 3202              	3:
 3203 001c 00000000 		.align 8
 3204              	4:
GAS LISTING /tmp/ccSBA2df.s 			page 34


DEFINED SYMBOLS
                            *ABS*:0000000000000000 x509write_csr.c
     /tmp/ccSBA2df.s:7      .text.mbedtls_x509write_csr_init:0000000000000000 mbedtls_x509write_csr_init
     /tmp/ccSBA2df.s:49     .text.mbedtls_x509write_csr_free:0000000000000000 mbedtls_x509write_csr_free
     /tmp/ccSBA2df.s:99     .text.mbedtls_x509write_csr_set_md_alg:0000000000000000 mbedtls_x509write_csr_set_md_alg
     /tmp/ccSBA2df.s:139    .text.mbedtls_x509write_csr_set_key:0000000000000000 mbedtls_x509write_csr_set_key
     /tmp/ccSBA2df.s:179    .text.mbedtls_x509write_csr_set_subject_name:0000000000000000 mbedtls_x509write_csr_set_subject_name
     /tmp/ccSBA2df.s:221    .text.mbedtls_x509write_csr_set_extension:0000000000000000 mbedtls_x509write_csr_set_extension
     /tmp/ccSBA2df.s:270    .text.csr_get_unused_bits_for_named_bitstring:0000000000000000 csr_get_unused_bits_for_named_bitstring
     /tmp/ccSBA2df.s:338    .text.mbedtls_x509write_csr_set_key_usage:0000000000000000 mbedtls_x509write_csr_set_key_usage
     /tmp/ccSBA2df.s:440    .text.mbedtls_x509write_csr_set_ns_cert_type:0000000000000000 mbedtls_x509write_csr_set_ns_cert_type
     /tmp/ccSBA2df.s:542    .text.mbedtls_x509write_csr_der:0000000000000000 mbedtls_x509write_csr_der
     /tmp/ccSBA2df.s:1072   .text.mbedtls_x509write_csr_pem:0000000000000000 mbedtls_x509write_csr_pem

UNDEFINED SYMBOLS
_GLOBAL_OFFSET_TABLE_
memset
__stack_chk_fail
mbedtls_asn1_free_named_data_list
mbedtls_platform_zeroize
mbedtls_x509_string_to_names
mbedtls_x509_set_extension
mbedtls_asn1_write_bitstring
mbedtls_x509_write_extensions
mbedtls_asn1_write_len
mbedtls_asn1_write_tag
mbedtls_asn1_write_oid
mbedtls_pk_write_pubkey_der
mbedtls_x509_write_names
mbedtls_asn1_write_int
mbedtls_md_info_from_type
mbedtls_md
mbedtls_pk_sign
mbedtls_pk_can_do
mbedtls_oid_get_oid_by_sig_alg
mbedtls_x509_write_sig
memcpy
mbedtls_pem_write_buffer
