GAS LISTING /tmp/ccL8LWq1.s 			page 1


   1              		.file	"x509.c"
   2              		.text
   3              	.Ltext0:
   4              		.section	.text.mbedtls_x509_get_serial,"ax",@progbits
   5              		.globl	mbedtls_x509_get_serial
   7              	mbedtls_x509_get_serial:
   8              	.LFB16:
   9              		.file 1 "/home/xingli/share/LiteOS_Lab/network/dtls/mbedtls/mbedtls-2.16.2/library/x509.c"
   1:/home/xingli/share/LiteOS_Lab/network/dtls/mbedtls/mbedtls-2.16.2/library/x509.c **** /*
   2:/home/xingli/share/LiteOS_Lab/network/dtls/mbedtls/mbedtls-2.16.2/library/x509.c ****  *  X.509 common functions for parsing and verification
   3:/home/xingli/share/LiteOS_Lab/network/dtls/mbedtls/mbedtls-2.16.2/library/x509.c ****  *
   4:/home/xingli/share/LiteOS_Lab/network/dtls/mbedtls/mbedtls-2.16.2/library/x509.c ****  *  Copyright (C) 2006-2015, ARM Limited, All Rights Reserved
   5:/home/xingli/share/LiteOS_Lab/network/dtls/mbedtls/mbedtls-2.16.2/library/x509.c ****  *  SPDX-License-Identifier: Apache-2.0
   6:/home/xingli/share/LiteOS_Lab/network/dtls/mbedtls/mbedtls-2.16.2/library/x509.c ****  *
   7:/home/xingli/share/LiteOS_Lab/network/dtls/mbedtls/mbedtls-2.16.2/library/x509.c ****  *  Licensed under the Apache License, Version 2.0 (the "License"); you may
   8:/home/xingli/share/LiteOS_Lab/network/dtls/mbedtls/mbedtls-2.16.2/library/x509.c ****  *  not use this file except in compliance with the License.
   9:/home/xingli/share/LiteOS_Lab/network/dtls/mbedtls/mbedtls-2.16.2/library/x509.c ****  *  You may obtain a copy of the License at
  10:/home/xingli/share/LiteOS_Lab/network/dtls/mbedtls/mbedtls-2.16.2/library/x509.c ****  *
  11:/home/xingli/share/LiteOS_Lab/network/dtls/mbedtls/mbedtls-2.16.2/library/x509.c ****  *  http://www.apache.org/licenses/LICENSE-2.0
  12:/home/xingli/share/LiteOS_Lab/network/dtls/mbedtls/mbedtls-2.16.2/library/x509.c ****  *
  13:/home/xingli/share/LiteOS_Lab/network/dtls/mbedtls/mbedtls-2.16.2/library/x509.c ****  *  Unless required by applicable law or agreed to in writing, software
  14:/home/xingli/share/LiteOS_Lab/network/dtls/mbedtls/mbedtls-2.16.2/library/x509.c ****  *  distributed under the License is distributed on an "AS IS" BASIS, WITHOUT
  15:/home/xingli/share/LiteOS_Lab/network/dtls/mbedtls/mbedtls-2.16.2/library/x509.c ****  *  WARRANTIES OR CONDITIONS OF ANY KIND, either express or implied.
  16:/home/xingli/share/LiteOS_Lab/network/dtls/mbedtls/mbedtls-2.16.2/library/x509.c ****  *  See the License for the specific language governing permissions and
  17:/home/xingli/share/LiteOS_Lab/network/dtls/mbedtls/mbedtls-2.16.2/library/x509.c ****  *  limitations under the License.
  18:/home/xingli/share/LiteOS_Lab/network/dtls/mbedtls/mbedtls-2.16.2/library/x509.c ****  *
  19:/home/xingli/share/LiteOS_Lab/network/dtls/mbedtls/mbedtls-2.16.2/library/x509.c ****  *  This file is part of mbed TLS (https://tls.mbed.org)
  20:/home/xingli/share/LiteOS_Lab/network/dtls/mbedtls/mbedtls-2.16.2/library/x509.c ****  */
  21:/home/xingli/share/LiteOS_Lab/network/dtls/mbedtls/mbedtls-2.16.2/library/x509.c **** /*
  22:/home/xingli/share/LiteOS_Lab/network/dtls/mbedtls/mbedtls-2.16.2/library/x509.c ****  *  The ITU-T X.509 standard defines a certificate format for PKI.
  23:/home/xingli/share/LiteOS_Lab/network/dtls/mbedtls/mbedtls-2.16.2/library/x509.c ****  *
  24:/home/xingli/share/LiteOS_Lab/network/dtls/mbedtls/mbedtls-2.16.2/library/x509.c ****  *  http://www.ietf.org/rfc/rfc5280.txt (Certificates and CRLs)
  25:/home/xingli/share/LiteOS_Lab/network/dtls/mbedtls/mbedtls-2.16.2/library/x509.c ****  *  http://www.ietf.org/rfc/rfc3279.txt (Alg IDs for CRLs)
  26:/home/xingli/share/LiteOS_Lab/network/dtls/mbedtls/mbedtls-2.16.2/library/x509.c ****  *  http://www.ietf.org/rfc/rfc2986.txt (CSRs, aka PKCS#10)
  27:/home/xingli/share/LiteOS_Lab/network/dtls/mbedtls/mbedtls-2.16.2/library/x509.c ****  *
  28:/home/xingli/share/LiteOS_Lab/network/dtls/mbedtls/mbedtls-2.16.2/library/x509.c ****  *  http://www.itu.int/ITU-T/studygroups/com17/languages/X.680-0207.pdf
  29:/home/xingli/share/LiteOS_Lab/network/dtls/mbedtls/mbedtls-2.16.2/library/x509.c ****  *  http://www.itu.int/ITU-T/studygroups/com17/languages/X.690-0207.pdf
  30:/home/xingli/share/LiteOS_Lab/network/dtls/mbedtls/mbedtls-2.16.2/library/x509.c ****  */
  31:/home/xingli/share/LiteOS_Lab/network/dtls/mbedtls/mbedtls-2.16.2/library/x509.c **** 
  32:/home/xingli/share/LiteOS_Lab/network/dtls/mbedtls/mbedtls-2.16.2/library/x509.c **** #if !defined(MBEDTLS_CONFIG_FILE)
  33:/home/xingli/share/LiteOS_Lab/network/dtls/mbedtls/mbedtls-2.16.2/library/x509.c **** #include "mbedtls/config.h"
  34:/home/xingli/share/LiteOS_Lab/network/dtls/mbedtls/mbedtls-2.16.2/library/x509.c **** #else
  35:/home/xingli/share/LiteOS_Lab/network/dtls/mbedtls/mbedtls-2.16.2/library/x509.c **** #include MBEDTLS_CONFIG_FILE
  36:/home/xingli/share/LiteOS_Lab/network/dtls/mbedtls/mbedtls-2.16.2/library/x509.c **** #endif
  37:/home/xingli/share/LiteOS_Lab/network/dtls/mbedtls/mbedtls-2.16.2/library/x509.c **** 
  38:/home/xingli/share/LiteOS_Lab/network/dtls/mbedtls/mbedtls-2.16.2/library/x509.c **** #if defined(MBEDTLS_X509_USE_C)
  39:/home/xingli/share/LiteOS_Lab/network/dtls/mbedtls/mbedtls-2.16.2/library/x509.c **** 
  40:/home/xingli/share/LiteOS_Lab/network/dtls/mbedtls/mbedtls-2.16.2/library/x509.c **** #include "mbedtls/x509.h"
  41:/home/xingli/share/LiteOS_Lab/network/dtls/mbedtls/mbedtls-2.16.2/library/x509.c **** #include "mbedtls/asn1.h"
  42:/home/xingli/share/LiteOS_Lab/network/dtls/mbedtls/mbedtls-2.16.2/library/x509.c **** #include "mbedtls/oid.h"
  43:/home/xingli/share/LiteOS_Lab/network/dtls/mbedtls/mbedtls-2.16.2/library/x509.c **** 
  44:/home/xingli/share/LiteOS_Lab/network/dtls/mbedtls/mbedtls-2.16.2/library/x509.c **** #include <stdio.h>
  45:/home/xingli/share/LiteOS_Lab/network/dtls/mbedtls/mbedtls-2.16.2/library/x509.c **** #include <string.h>
  46:/home/xingli/share/LiteOS_Lab/network/dtls/mbedtls/mbedtls-2.16.2/library/x509.c **** 
  47:/home/xingli/share/LiteOS_Lab/network/dtls/mbedtls/mbedtls-2.16.2/library/x509.c **** #if defined(MBEDTLS_PEM_PARSE_C)
  48:/home/xingli/share/LiteOS_Lab/network/dtls/mbedtls/mbedtls-2.16.2/library/x509.c **** #include "mbedtls/pem.h"
  49:/home/xingli/share/LiteOS_Lab/network/dtls/mbedtls/mbedtls-2.16.2/library/x509.c **** #endif
GAS LISTING /tmp/ccL8LWq1.s 			page 2


  50:/home/xingli/share/LiteOS_Lab/network/dtls/mbedtls/mbedtls-2.16.2/library/x509.c **** 
  51:/home/xingli/share/LiteOS_Lab/network/dtls/mbedtls/mbedtls-2.16.2/library/x509.c **** #if defined(MBEDTLS_PLATFORM_C)
  52:/home/xingli/share/LiteOS_Lab/network/dtls/mbedtls/mbedtls-2.16.2/library/x509.c **** #include "mbedtls/platform.h"
  53:/home/xingli/share/LiteOS_Lab/network/dtls/mbedtls/mbedtls-2.16.2/library/x509.c **** #else
  54:/home/xingli/share/LiteOS_Lab/network/dtls/mbedtls/mbedtls-2.16.2/library/x509.c **** #include <stdio.h>
  55:/home/xingli/share/LiteOS_Lab/network/dtls/mbedtls/mbedtls-2.16.2/library/x509.c **** #include <stdlib.h>
  56:/home/xingli/share/LiteOS_Lab/network/dtls/mbedtls/mbedtls-2.16.2/library/x509.c **** #define mbedtls_free      free
  57:/home/xingli/share/LiteOS_Lab/network/dtls/mbedtls/mbedtls-2.16.2/library/x509.c **** #define mbedtls_calloc    calloc
  58:/home/xingli/share/LiteOS_Lab/network/dtls/mbedtls/mbedtls-2.16.2/library/x509.c **** #define mbedtls_printf    printf
  59:/home/xingli/share/LiteOS_Lab/network/dtls/mbedtls/mbedtls-2.16.2/library/x509.c **** #define mbedtls_snprintf  snprintf
  60:/home/xingli/share/LiteOS_Lab/network/dtls/mbedtls/mbedtls-2.16.2/library/x509.c **** #endif
  61:/home/xingli/share/LiteOS_Lab/network/dtls/mbedtls/mbedtls-2.16.2/library/x509.c **** 
  62:/home/xingli/share/LiteOS_Lab/network/dtls/mbedtls/mbedtls-2.16.2/library/x509.c **** #if defined(MBEDTLS_HAVE_TIME)
  63:/home/xingli/share/LiteOS_Lab/network/dtls/mbedtls/mbedtls-2.16.2/library/x509.c **** #include "mbedtls/platform_time.h"
  64:/home/xingli/share/LiteOS_Lab/network/dtls/mbedtls/mbedtls-2.16.2/library/x509.c **** #endif
  65:/home/xingli/share/LiteOS_Lab/network/dtls/mbedtls/mbedtls-2.16.2/library/x509.c **** #if defined(MBEDTLS_HAVE_TIME_DATE)
  66:/home/xingli/share/LiteOS_Lab/network/dtls/mbedtls/mbedtls-2.16.2/library/x509.c **** #include "mbedtls/platform_util.h"
  67:/home/xingli/share/LiteOS_Lab/network/dtls/mbedtls/mbedtls-2.16.2/library/x509.c **** #include <time.h>
  68:/home/xingli/share/LiteOS_Lab/network/dtls/mbedtls/mbedtls-2.16.2/library/x509.c **** #endif
  69:/home/xingli/share/LiteOS_Lab/network/dtls/mbedtls/mbedtls-2.16.2/library/x509.c **** 
  70:/home/xingli/share/LiteOS_Lab/network/dtls/mbedtls/mbedtls-2.16.2/library/x509.c **** #define CHECK(code) if( ( ret = ( code ) ) != 0 ){ return( ret ); }
  71:/home/xingli/share/LiteOS_Lab/network/dtls/mbedtls/mbedtls-2.16.2/library/x509.c **** #define CHECK_RANGE(min, max, val)                      \
  72:/home/xingli/share/LiteOS_Lab/network/dtls/mbedtls/mbedtls-2.16.2/library/x509.c ****     do                                                  \
  73:/home/xingli/share/LiteOS_Lab/network/dtls/mbedtls/mbedtls-2.16.2/library/x509.c ****     {                                                   \
  74:/home/xingli/share/LiteOS_Lab/network/dtls/mbedtls/mbedtls-2.16.2/library/x509.c ****         if( ( val ) < ( min ) || ( val ) > ( max ) )    \
  75:/home/xingli/share/LiteOS_Lab/network/dtls/mbedtls/mbedtls-2.16.2/library/x509.c ****         {                                               \
  76:/home/xingli/share/LiteOS_Lab/network/dtls/mbedtls/mbedtls-2.16.2/library/x509.c ****             return( ret );                              \
  77:/home/xingli/share/LiteOS_Lab/network/dtls/mbedtls/mbedtls-2.16.2/library/x509.c ****         }                                               \
  78:/home/xingli/share/LiteOS_Lab/network/dtls/mbedtls/mbedtls-2.16.2/library/x509.c ****     } while( 0 )
  79:/home/xingli/share/LiteOS_Lab/network/dtls/mbedtls/mbedtls-2.16.2/library/x509.c **** 
  80:/home/xingli/share/LiteOS_Lab/network/dtls/mbedtls/mbedtls-2.16.2/library/x509.c **** /*
  81:/home/xingli/share/LiteOS_Lab/network/dtls/mbedtls/mbedtls-2.16.2/library/x509.c ****  *  CertificateSerialNumber  ::=  INTEGER
  82:/home/xingli/share/LiteOS_Lab/network/dtls/mbedtls/mbedtls-2.16.2/library/x509.c ****  */
  83:/home/xingli/share/LiteOS_Lab/network/dtls/mbedtls/mbedtls-2.16.2/library/x509.c **** int mbedtls_x509_get_serial( unsigned char **p, const unsigned char *end,
  84:/home/xingli/share/LiteOS_Lab/network/dtls/mbedtls/mbedtls-2.16.2/library/x509.c ****                      mbedtls_x509_buf *serial )
  85:/home/xingli/share/LiteOS_Lab/network/dtls/mbedtls/mbedtls-2.16.2/library/x509.c **** {
  10              		.loc 1 85 1
  11              		.cfi_startproc
  12 0000 F30F1EFA 		endbr64
  13 0004 55       		pushq	%rbp
  14              	.LCFI0:
  15              		.cfi_def_cfa_offset 16
  16              		.cfi_offset 6, -16
  17 0005 4889E5   		movq	%rsp, %rbp
  18              	.LCFI1:
  19              		.cfi_def_cfa_register 6
  20 0008 4883EC30 		subq	$48, %rsp
  21 000c 48897DE8 		movq	%rdi, -24(%rbp)
  22 0010 488975E0 		movq	%rsi, -32(%rbp)
  23 0014 488955D8 		movq	%rdx, -40(%rbp)
  24              		.loc 1 85 1
  25 0018 64488B04 		movq	%fs:40, %rax
  25      25280000 
  25      00
  26 0021 488945F8 		movq	%rax, -8(%rbp)
  27 0025 31C0     		xorl	%eax, %eax
  86:/home/xingli/share/LiteOS_Lab/network/dtls/mbedtls/mbedtls-2.16.2/library/x509.c ****     int ret;
GAS LISTING /tmp/ccL8LWq1.s 			page 3


  87:/home/xingli/share/LiteOS_Lab/network/dtls/mbedtls/mbedtls-2.16.2/library/x509.c **** 
  88:/home/xingli/share/LiteOS_Lab/network/dtls/mbedtls/mbedtls-2.16.2/library/x509.c ****     if( ( end - *p ) < 1 )
  28              		.loc 1 88 17
  29 0027 488B45E8 		movq	-24(%rbp), %rax
  30 002b 488B00   		movq	(%rax), %rax
  31              		.loc 1 88 15
  32 002e 488B55E0 		movq	-32(%rbp), %rdx
  33 0032 4829C2   		subq	%rax, %rdx
  34 0035 4889D0   		movq	%rdx, %rax
  35              		.loc 1 88 7
  36 0038 4885C0   		testq	%rax, %rax
  37 003b 7F0A     		jg	.L2
  89:/home/xingli/share/LiteOS_Lab/network/dtls/mbedtls/mbedtls-2.16.2/library/x509.c ****         return( MBEDTLS_ERR_X509_INVALID_SERIAL +
  38              		.loc 1 89 15
  39 003d B820DDFF 		movl	$-8928, %eax
  39      FF
  40 0042 E99C0000 		jmp	.L3
  40      00
  41              	.L2:
  90:/home/xingli/share/LiteOS_Lab/network/dtls/mbedtls/mbedtls-2.16.2/library/x509.c ****                 MBEDTLS_ERR_ASN1_OUT_OF_DATA );
  91:/home/xingli/share/LiteOS_Lab/network/dtls/mbedtls/mbedtls-2.16.2/library/x509.c **** 
  92:/home/xingli/share/LiteOS_Lab/network/dtls/mbedtls/mbedtls-2.16.2/library/x509.c ****     if( **p != ( MBEDTLS_ASN1_CONTEXT_SPECIFIC | MBEDTLS_ASN1_PRIMITIVE | 2 ) &&
  42              		.loc 1 92 10
  43 0047 488B45E8 		movq	-24(%rbp), %rax
  44 004b 488B00   		movq	(%rax), %rax
  45              		.loc 1 92 9
  46 004e 0FB600   		movzbl	(%rax), %eax
  47              		.loc 1 92 7
  48 0051 3C82     		cmpb	$-126, %al
  49 0053 7415     		je	.L4
  93:/home/xingli/share/LiteOS_Lab/network/dtls/mbedtls/mbedtls-2.16.2/library/x509.c ****         **p !=   MBEDTLS_ASN1_INTEGER )
  50              		.loc 1 93 10 discriminator 1
  51 0055 488B45E8 		movq	-24(%rbp), %rax
  52 0059 488B00   		movq	(%rax), %rax
  53              		.loc 1 93 9 discriminator 1
  54 005c 0FB600   		movzbl	(%rax), %eax
  92:/home/xingli/share/LiteOS_Lab/network/dtls/mbedtls/mbedtls-2.16.2/library/x509.c ****         **p !=   MBEDTLS_ASN1_INTEGER )
  55              		.loc 1 92 79 discriminator 1
  56 005f 3C02     		cmpb	$2, %al
  57 0061 7407     		je	.L4
  94:/home/xingli/share/LiteOS_Lab/network/dtls/mbedtls/mbedtls-2.16.2/library/x509.c ****         return( MBEDTLS_ERR_X509_INVALID_SERIAL +
  58              		.loc 1 94 15
  59 0063 B81EDDFF 		movl	$-8930, %eax
  59      FF
  60 0068 EB79     		jmp	.L3
  61              	.L4:
  95:/home/xingli/share/LiteOS_Lab/network/dtls/mbedtls/mbedtls-2.16.2/library/x509.c ****                 MBEDTLS_ERR_ASN1_UNEXPECTED_TAG );
  96:/home/xingli/share/LiteOS_Lab/network/dtls/mbedtls/mbedtls-2.16.2/library/x509.c **** 
  97:/home/xingli/share/LiteOS_Lab/network/dtls/mbedtls/mbedtls-2.16.2/library/x509.c ****     serial->tag = *(*p)++;
  62              		.loc 1 97 21
  63 006a 488B45E8 		movq	-24(%rbp), %rax
  64 006e 488B00   		movq	(%rax), %rax
  65              		.loc 1 97 24
  66 0071 488D4801 		leaq	1(%rax), %rcx
  67 0075 488B55E8 		movq	-24(%rbp), %rdx
  68 0079 48890A   		movq	%rcx, (%rdx)
  69              		.loc 1 97 19
GAS LISTING /tmp/ccL8LWq1.s 			page 4


  70 007c 0FB600   		movzbl	(%rax), %eax
  71 007f 0FB6D0   		movzbl	%al, %edx
  72              		.loc 1 97 17
  73 0082 488B45D8 		movq	-40(%rbp), %rax
  74 0086 8910     		movl	%edx, (%rax)
  98:/home/xingli/share/LiteOS_Lab/network/dtls/mbedtls/mbedtls-2.16.2/library/x509.c **** 
  99:/home/xingli/share/LiteOS_Lab/network/dtls/mbedtls/mbedtls-2.16.2/library/x509.c ****     if( ( ret = mbedtls_asn1_get_len( p, end, &serial->len ) ) != 0 )
  75              		.loc 1 99 17
  76 0088 488B45D8 		movq	-40(%rbp), %rax
  77 008c 488D5008 		leaq	8(%rax), %rdx
  78 0090 488B4DE0 		movq	-32(%rbp), %rcx
  79 0094 488B45E8 		movq	-24(%rbp), %rax
  80 0098 4889CE   		movq	%rcx, %rsi
  81 009b 4889C7   		movq	%rax, %rdi
  82 009e E8000000 		call	mbedtls_asn1_get_len@PLT
  82      00
  83 00a3 8945F4   		movl	%eax, -12(%rbp)
  84              		.loc 1 99 7
  85 00a6 837DF400 		cmpl	$0, -12(%rbp)
  86 00aa 740A     		je	.L5
 100:/home/xingli/share/LiteOS_Lab/network/dtls/mbedtls/mbedtls-2.16.2/library/x509.c ****         return( MBEDTLS_ERR_X509_INVALID_SERIAL + ret );
  87              		.loc 1 100 49
  88 00ac 8B45F4   		movl	-12(%rbp), %eax
  89 00af 2D802200 		subl	$8832, %eax
  89      00
  90 00b4 EB2D     		jmp	.L3
  91              	.L5:
 101:/home/xingli/share/LiteOS_Lab/network/dtls/mbedtls/mbedtls-2.16.2/library/x509.c **** 
 102:/home/xingli/share/LiteOS_Lab/network/dtls/mbedtls/mbedtls-2.16.2/library/x509.c ****     serial->p = *p;
  92              		.loc 1 102 17
  93 00b6 488B45E8 		movq	-24(%rbp), %rax
  94 00ba 488B10   		movq	(%rax), %rdx
  95              		.loc 1 102 15
  96 00bd 488B45D8 		movq	-40(%rbp), %rax
  97 00c1 48895010 		movq	%rdx, 16(%rax)
 103:/home/xingli/share/LiteOS_Lab/network/dtls/mbedtls/mbedtls-2.16.2/library/x509.c ****     *p += serial->len;
  98              		.loc 1 103 8
  99 00c5 488B45E8 		movq	-24(%rbp), %rax
 100 00c9 488B10   		movq	(%rax), %rdx
 101              		.loc 1 103 17
 102 00cc 488B45D8 		movq	-40(%rbp), %rax
 103 00d0 488B4008 		movq	8(%rax), %rax
 104              		.loc 1 103 8
 105 00d4 4801C2   		addq	%rax, %rdx
 106 00d7 488B45E8 		movq	-24(%rbp), %rax
 107 00db 488910   		movq	%rdx, (%rax)
 104:/home/xingli/share/LiteOS_Lab/network/dtls/mbedtls/mbedtls-2.16.2/library/x509.c **** 
 105:/home/xingli/share/LiteOS_Lab/network/dtls/mbedtls/mbedtls-2.16.2/library/x509.c ****     return( 0 );
 108              		.loc 1 105 11
 109 00de B8000000 		movl	$0, %eax
 109      00
 110              	.L3:
 106:/home/xingli/share/LiteOS_Lab/network/dtls/mbedtls/mbedtls-2.16.2/library/x509.c **** }
 111              		.loc 1 106 1
 112 00e3 488B75F8 		movq	-8(%rbp), %rsi
 113 00e7 64483334 		xorq	%fs:40, %rsi
 113      25280000 
GAS LISTING /tmp/ccL8LWq1.s 			page 5


 113      00
 114 00f0 7405     		je	.L6
 115 00f2 E8000000 		call	__stack_chk_fail@PLT
 115      00
 116              	.L6:
 117 00f7 C9       		leave
 118              	.LCFI2:
 119              		.cfi_def_cfa 7, 8
 120 00f8 C3       		ret
 121              		.cfi_endproc
 122              	.LFE16:
 124              		.section	.text.mbedtls_x509_get_alg_null,"ax",@progbits
 125              		.globl	mbedtls_x509_get_alg_null
 127              	mbedtls_x509_get_alg_null:
 128              	.LFB17:
 107:/home/xingli/share/LiteOS_Lab/network/dtls/mbedtls/mbedtls-2.16.2/library/x509.c **** 
 108:/home/xingli/share/LiteOS_Lab/network/dtls/mbedtls/mbedtls-2.16.2/library/x509.c **** /* Get an algorithm identifier without parameters (eg for signatures)
 109:/home/xingli/share/LiteOS_Lab/network/dtls/mbedtls/mbedtls-2.16.2/library/x509.c ****  *
 110:/home/xingli/share/LiteOS_Lab/network/dtls/mbedtls/mbedtls-2.16.2/library/x509.c ****  *  AlgorithmIdentifier  ::=  SEQUENCE  {
 111:/home/xingli/share/LiteOS_Lab/network/dtls/mbedtls/mbedtls-2.16.2/library/x509.c ****  *       algorithm               OBJECT IDENTIFIER,
 112:/home/xingli/share/LiteOS_Lab/network/dtls/mbedtls/mbedtls-2.16.2/library/x509.c ****  *       parameters              ANY DEFINED BY algorithm OPTIONAL  }
 113:/home/xingli/share/LiteOS_Lab/network/dtls/mbedtls/mbedtls-2.16.2/library/x509.c ****  */
 114:/home/xingli/share/LiteOS_Lab/network/dtls/mbedtls/mbedtls-2.16.2/library/x509.c **** int mbedtls_x509_get_alg_null( unsigned char **p, const unsigned char *end,
 115:/home/xingli/share/LiteOS_Lab/network/dtls/mbedtls/mbedtls-2.16.2/library/x509.c ****                        mbedtls_x509_buf *alg )
 116:/home/xingli/share/LiteOS_Lab/network/dtls/mbedtls/mbedtls-2.16.2/library/x509.c **** {
 129              		.loc 1 116 1
 130              		.cfi_startproc
 131 0000 F30F1EFA 		endbr64
 132 0004 55       		pushq	%rbp
 133              	.LCFI3:
 134              		.cfi_def_cfa_offset 16
 135              		.cfi_offset 6, -16
 136 0005 4889E5   		movq	%rsp, %rbp
 137              	.LCFI4:
 138              		.cfi_def_cfa_register 6
 139 0008 4883EC30 		subq	$48, %rsp
 140 000c 48897DE8 		movq	%rdi, -24(%rbp)
 141 0010 488975E0 		movq	%rsi, -32(%rbp)
 142 0014 488955D8 		movq	%rdx, -40(%rbp)
 143              		.loc 1 116 1
 144 0018 64488B04 		movq	%fs:40, %rax
 144      25280000 
 144      00
 145 0021 488945F8 		movq	%rax, -8(%rbp)
 146 0025 31C0     		xorl	%eax, %eax
 117:/home/xingli/share/LiteOS_Lab/network/dtls/mbedtls/mbedtls-2.16.2/library/x509.c ****     int ret;
 118:/home/xingli/share/LiteOS_Lab/network/dtls/mbedtls/mbedtls-2.16.2/library/x509.c **** 
 119:/home/xingli/share/LiteOS_Lab/network/dtls/mbedtls/mbedtls-2.16.2/library/x509.c ****     if( ( ret = mbedtls_asn1_get_alg_null( p, end, alg ) ) != 0 )
 147              		.loc 1 119 17
 148 0027 488B55D8 		movq	-40(%rbp), %rdx
 149 002b 488B4DE0 		movq	-32(%rbp), %rcx
 150 002f 488B45E8 		movq	-24(%rbp), %rax
 151 0033 4889CE   		movq	%rcx, %rsi
 152 0036 4889C7   		movq	%rax, %rdi
 153 0039 E8000000 		call	mbedtls_asn1_get_alg_null@PLT
 153      00
 154 003e 8945F4   		movl	%eax, -12(%rbp)
GAS LISTING /tmp/ccL8LWq1.s 			page 6


 155              		.loc 1 119 7
 156 0041 837DF400 		cmpl	$0, -12(%rbp)
 157 0045 740A     		je	.L8
 120:/home/xingli/share/LiteOS_Lab/network/dtls/mbedtls/mbedtls-2.16.2/library/x509.c ****         return( MBEDTLS_ERR_X509_INVALID_ALG + ret );
 158              		.loc 1 120 46
 159 0047 8B45F4   		movl	-12(%rbp), %eax
 160 004a 2D002300 		subl	$8960, %eax
 160      00
 161 004f EB05     		jmp	.L9
 162              	.L8:
 121:/home/xingli/share/LiteOS_Lab/network/dtls/mbedtls/mbedtls-2.16.2/library/x509.c **** 
 122:/home/xingli/share/LiteOS_Lab/network/dtls/mbedtls/mbedtls-2.16.2/library/x509.c ****     return( 0 );
 163              		.loc 1 122 11
 164 0051 B8000000 		movl	$0, %eax
 164      00
 165              	.L9:
 123:/home/xingli/share/LiteOS_Lab/network/dtls/mbedtls/mbedtls-2.16.2/library/x509.c **** }
 166              		.loc 1 123 1
 167 0056 488B4DF8 		movq	-8(%rbp), %rcx
 168 005a 6448330C 		xorq	%fs:40, %rcx
 168      25280000 
 168      00
 169 0063 7405     		je	.L10
 170 0065 E8000000 		call	__stack_chk_fail@PLT
 170      00
 171              	.L10:
 172 006a C9       		leave
 173              	.LCFI5:
 174              		.cfi_def_cfa 7, 8
 175 006b C3       		ret
 176              		.cfi_endproc
 177              	.LFE17:
 179              		.section	.text.mbedtls_x509_get_alg,"ax",@progbits
 180              		.globl	mbedtls_x509_get_alg
 182              	mbedtls_x509_get_alg:
 183              	.LFB18:
 124:/home/xingli/share/LiteOS_Lab/network/dtls/mbedtls/mbedtls-2.16.2/library/x509.c **** 
 125:/home/xingli/share/LiteOS_Lab/network/dtls/mbedtls/mbedtls-2.16.2/library/x509.c **** /*
 126:/home/xingli/share/LiteOS_Lab/network/dtls/mbedtls/mbedtls-2.16.2/library/x509.c ****  * Parse an algorithm identifier with (optional) paramaters
 127:/home/xingli/share/LiteOS_Lab/network/dtls/mbedtls/mbedtls-2.16.2/library/x509.c ****  */
 128:/home/xingli/share/LiteOS_Lab/network/dtls/mbedtls/mbedtls-2.16.2/library/x509.c **** int mbedtls_x509_get_alg( unsigned char **p, const unsigned char *end,
 129:/home/xingli/share/LiteOS_Lab/network/dtls/mbedtls/mbedtls-2.16.2/library/x509.c ****                   mbedtls_x509_buf *alg, mbedtls_x509_buf *params )
 130:/home/xingli/share/LiteOS_Lab/network/dtls/mbedtls/mbedtls-2.16.2/library/x509.c **** {
 184              		.loc 1 130 1
 185              		.cfi_startproc
 186 0000 F30F1EFA 		endbr64
 187 0004 55       		pushq	%rbp
 188              	.LCFI6:
 189              		.cfi_def_cfa_offset 16
 190              		.cfi_offset 6, -16
 191 0005 4889E5   		movq	%rsp, %rbp
 192              	.LCFI7:
 193              		.cfi_def_cfa_register 6
 194 0008 4883EC30 		subq	$48, %rsp
 195 000c 48897DE8 		movq	%rdi, -24(%rbp)
 196 0010 488975E0 		movq	%rsi, -32(%rbp)
 197 0014 488955D8 		movq	%rdx, -40(%rbp)
GAS LISTING /tmp/ccL8LWq1.s 			page 7


 198 0018 48894DD0 		movq	%rcx, -48(%rbp)
 199              		.loc 1 130 1
 200 001c 64488B04 		movq	%fs:40, %rax
 200      25280000 
 200      00
 201 0025 488945F8 		movq	%rax, -8(%rbp)
 202 0029 31C0     		xorl	%eax, %eax
 131:/home/xingli/share/LiteOS_Lab/network/dtls/mbedtls/mbedtls-2.16.2/library/x509.c ****     int ret;
 132:/home/xingli/share/LiteOS_Lab/network/dtls/mbedtls/mbedtls-2.16.2/library/x509.c **** 
 133:/home/xingli/share/LiteOS_Lab/network/dtls/mbedtls/mbedtls-2.16.2/library/x509.c ****     if( ( ret = mbedtls_asn1_get_alg( p, end, alg, params ) ) != 0 )
 203              		.loc 1 133 17
 204 002b 488B4DD0 		movq	-48(%rbp), %rcx
 205 002f 488B55D8 		movq	-40(%rbp), %rdx
 206 0033 488B75E0 		movq	-32(%rbp), %rsi
 207 0037 488B45E8 		movq	-24(%rbp), %rax
 208 003b 4889C7   		movq	%rax, %rdi
 209 003e E8000000 		call	mbedtls_asn1_get_alg@PLT
 209      00
 210 0043 8945F4   		movl	%eax, -12(%rbp)
 211              		.loc 1 133 7
 212 0046 837DF400 		cmpl	$0, -12(%rbp)
 213 004a 740A     		je	.L12
 134:/home/xingli/share/LiteOS_Lab/network/dtls/mbedtls/mbedtls-2.16.2/library/x509.c ****         return( MBEDTLS_ERR_X509_INVALID_ALG + ret );
 214              		.loc 1 134 46
 215 004c 8B45F4   		movl	-12(%rbp), %eax
 216 004f 2D002300 		subl	$8960, %eax
 216      00
 217 0054 EB05     		jmp	.L13
 218              	.L12:
 135:/home/xingli/share/LiteOS_Lab/network/dtls/mbedtls/mbedtls-2.16.2/library/x509.c **** 
 136:/home/xingli/share/LiteOS_Lab/network/dtls/mbedtls/mbedtls-2.16.2/library/x509.c ****     return( 0 );
 219              		.loc 1 136 11
 220 0056 B8000000 		movl	$0, %eax
 220      00
 221              	.L13:
 137:/home/xingli/share/LiteOS_Lab/network/dtls/mbedtls/mbedtls-2.16.2/library/x509.c **** }
 222              		.loc 1 137 1
 223 005b 488B7DF8 		movq	-8(%rbp), %rdi
 224 005f 6448333C 		xorq	%fs:40, %rdi
 224      25280000 
 224      00
 225 0068 7405     		je	.L14
 226 006a E8000000 		call	__stack_chk_fail@PLT
 226      00
 227              	.L14:
 228 006f C9       		leave
 229              	.LCFI8:
 230              		.cfi_def_cfa 7, 8
 231 0070 C3       		ret
 232              		.cfi_endproc
 233              	.LFE18:
 235              		.section	.text.x509_get_hash_alg,"ax",@progbits
 237              	x509_get_hash_alg:
 238              	.LFB19:
 138:/home/xingli/share/LiteOS_Lab/network/dtls/mbedtls/mbedtls-2.16.2/library/x509.c **** 
 139:/home/xingli/share/LiteOS_Lab/network/dtls/mbedtls/mbedtls-2.16.2/library/x509.c **** #if defined(MBEDTLS_X509_RSASSA_PSS_SUPPORT)
 140:/home/xingli/share/LiteOS_Lab/network/dtls/mbedtls/mbedtls-2.16.2/library/x509.c **** /*
GAS LISTING /tmp/ccL8LWq1.s 			page 8


 141:/home/xingli/share/LiteOS_Lab/network/dtls/mbedtls/mbedtls-2.16.2/library/x509.c ****  * HashAlgorithm ::= AlgorithmIdentifier
 142:/home/xingli/share/LiteOS_Lab/network/dtls/mbedtls/mbedtls-2.16.2/library/x509.c ****  *
 143:/home/xingli/share/LiteOS_Lab/network/dtls/mbedtls/mbedtls-2.16.2/library/x509.c ****  * AlgorithmIdentifier  ::=  SEQUENCE  {
 144:/home/xingli/share/LiteOS_Lab/network/dtls/mbedtls/mbedtls-2.16.2/library/x509.c ****  *      algorithm               OBJECT IDENTIFIER,
 145:/home/xingli/share/LiteOS_Lab/network/dtls/mbedtls/mbedtls-2.16.2/library/x509.c ****  *      parameters              ANY DEFINED BY algorithm OPTIONAL  }
 146:/home/xingli/share/LiteOS_Lab/network/dtls/mbedtls/mbedtls-2.16.2/library/x509.c ****  *
 147:/home/xingli/share/LiteOS_Lab/network/dtls/mbedtls/mbedtls-2.16.2/library/x509.c ****  * For HashAlgorithm, parameters MUST be NULL or absent.
 148:/home/xingli/share/LiteOS_Lab/network/dtls/mbedtls/mbedtls-2.16.2/library/x509.c ****  */
 149:/home/xingli/share/LiteOS_Lab/network/dtls/mbedtls/mbedtls-2.16.2/library/x509.c **** static int x509_get_hash_alg( const mbedtls_x509_buf *alg, mbedtls_md_type_t *md_alg )
 150:/home/xingli/share/LiteOS_Lab/network/dtls/mbedtls/mbedtls-2.16.2/library/x509.c **** {
 239              		.loc 1 150 1
 240              		.cfi_startproc
 241 0000 F30F1EFA 		endbr64
 242 0004 55       		pushq	%rbp
 243              	.LCFI9:
 244              		.cfi_def_cfa_offset 16
 245              		.cfi_offset 6, -16
 246 0005 4889E5   		movq	%rsp, %rbp
 247              	.LCFI10:
 248              		.cfi_def_cfa_register 6
 249 0008 4883EC50 		subq	$80, %rsp
 250 000c 48897DB8 		movq	%rdi, -72(%rbp)
 251 0010 488975B0 		movq	%rsi, -80(%rbp)
 252              		.loc 1 150 1
 253 0014 64488B04 		movq	%fs:40, %rax
 253      25280000 
 253      00
 254 001d 488945F8 		movq	%rax, -8(%rbp)
 255 0021 31C0     		xorl	%eax, %eax
 151:/home/xingli/share/LiteOS_Lab/network/dtls/mbedtls/mbedtls-2.16.2/library/x509.c ****     int ret;
 152:/home/xingli/share/LiteOS_Lab/network/dtls/mbedtls/mbedtls-2.16.2/library/x509.c ****     unsigned char *p;
 153:/home/xingli/share/LiteOS_Lab/network/dtls/mbedtls/mbedtls-2.16.2/library/x509.c ****     const unsigned char *end;
 154:/home/xingli/share/LiteOS_Lab/network/dtls/mbedtls/mbedtls-2.16.2/library/x509.c ****     mbedtls_x509_buf md_oid;
 155:/home/xingli/share/LiteOS_Lab/network/dtls/mbedtls/mbedtls-2.16.2/library/x509.c ****     size_t len;
 156:/home/xingli/share/LiteOS_Lab/network/dtls/mbedtls/mbedtls-2.16.2/library/x509.c **** 
 157:/home/xingli/share/LiteOS_Lab/network/dtls/mbedtls/mbedtls-2.16.2/library/x509.c ****     /* Make sure we got a SEQUENCE and setup bounds */
 158:/home/xingli/share/LiteOS_Lab/network/dtls/mbedtls/mbedtls-2.16.2/library/x509.c ****     if( alg->tag != ( MBEDTLS_ASN1_CONSTRUCTED | MBEDTLS_ASN1_SEQUENCE ) )
 256              		.loc 1 158 12
 257 0023 488B45B8 		movq	-72(%rbp), %rax
 258 0027 8B00     		movl	(%rax), %eax
 259              		.loc 1 158 7
 260 0029 83F830   		cmpl	$48, %eax
 261 002c 740A     		je	.L16
 159:/home/xingli/share/LiteOS_Lab/network/dtls/mbedtls/mbedtls-2.16.2/library/x509.c ****         return( MBEDTLS_ERR_X509_INVALID_ALG +
 262              		.loc 1 159 15
 263 002e B89EDCFF 		movl	$-9058, %eax
 263      FF
 264 0033 E90C0100 		jmp	.L25
 264      00
 265              	.L16:
 160:/home/xingli/share/LiteOS_Lab/network/dtls/mbedtls/mbedtls-2.16.2/library/x509.c ****                 MBEDTLS_ERR_ASN1_UNEXPECTED_TAG );
 161:/home/xingli/share/LiteOS_Lab/network/dtls/mbedtls/mbedtls-2.16.2/library/x509.c **** 
 162:/home/xingli/share/LiteOS_Lab/network/dtls/mbedtls/mbedtls-2.16.2/library/x509.c ****     p = (unsigned char *) alg->p;
 266              		.loc 1 162 30
 267 0038 488B45B8 		movq	-72(%rbp), %rax
 268 003c 488B4010 		movq	16(%rax), %rax
 269              		.loc 1 162 7
GAS LISTING /tmp/ccL8LWq1.s 			page 9


 270 0040 488945C8 		movq	%rax, -56(%rbp)
 163:/home/xingli/share/LiteOS_Lab/network/dtls/mbedtls/mbedtls-2.16.2/library/x509.c ****     end = p + alg->len;
 271              		.loc 1 163 13
 272 0044 488B55C8 		movq	-56(%rbp), %rdx
 273              		.loc 1 163 18
 274 0048 488B45B8 		movq	-72(%rbp), %rax
 275 004c 488B4008 		movq	8(%rax), %rax
 276              		.loc 1 163 9
 277 0050 4801D0   		addq	%rdx, %rax
 278 0053 488945D8 		movq	%rax, -40(%rbp)
 164:/home/xingli/share/LiteOS_Lab/network/dtls/mbedtls/mbedtls-2.16.2/library/x509.c **** 
 165:/home/xingli/share/LiteOS_Lab/network/dtls/mbedtls/mbedtls-2.16.2/library/x509.c ****     if( p >= end )
 279              		.loc 1 165 11
 280 0057 488B45C8 		movq	-56(%rbp), %rax
 281              		.loc 1 165 7
 282 005b 483945D8 		cmpq	%rax, -40(%rbp)
 283 005f 770A     		ja	.L18
 166:/home/xingli/share/LiteOS_Lab/network/dtls/mbedtls/mbedtls-2.16.2/library/x509.c ****         return( MBEDTLS_ERR_X509_INVALID_ALG +
 284              		.loc 1 166 15
 285 0061 B8A0DCFF 		movl	$-9056, %eax
 285      FF
 286 0066 E9D90000 		jmp	.L25
 286      00
 287              	.L18:
 167:/home/xingli/share/LiteOS_Lab/network/dtls/mbedtls/mbedtls-2.16.2/library/x509.c ****                 MBEDTLS_ERR_ASN1_OUT_OF_DATA );
 168:/home/xingli/share/LiteOS_Lab/network/dtls/mbedtls/mbedtls-2.16.2/library/x509.c **** 
 169:/home/xingli/share/LiteOS_Lab/network/dtls/mbedtls/mbedtls-2.16.2/library/x509.c ****     /* Parse md_oid */
 170:/home/xingli/share/LiteOS_Lab/network/dtls/mbedtls/mbedtls-2.16.2/library/x509.c ****     md_oid.tag = *p;
 288              		.loc 1 170 18
 289 006b 488B45C8 		movq	-56(%rbp), %rax
 290 006f 0FB600   		movzbl	(%rax), %eax
 291 0072 0FB6C0   		movzbl	%al, %eax
 292              		.loc 1 170 16
 293 0075 8945E0   		movl	%eax, -32(%rbp)
 171:/home/xingli/share/LiteOS_Lab/network/dtls/mbedtls/mbedtls-2.16.2/library/x509.c **** 
 172:/home/xingli/share/LiteOS_Lab/network/dtls/mbedtls/mbedtls-2.16.2/library/x509.c ****     if( ( ret = mbedtls_asn1_get_tag( &p, end, &md_oid.len, MBEDTLS_ASN1_OID ) ) != 0 )
 294              		.loc 1 172 17
 295 0078 488D45E0 		leaq	-32(%rbp), %rax
 296 007c 488D5008 		leaq	8(%rax), %rdx
 297 0080 488B75D8 		movq	-40(%rbp), %rsi
 298 0084 488D45C8 		leaq	-56(%rbp), %rax
 299 0088 B9060000 		movl	$6, %ecx
 299      00
 300 008d 4889C7   		movq	%rax, %rdi
 301 0090 E8000000 		call	mbedtls_asn1_get_tag@PLT
 301      00
 302 0095 8945C4   		movl	%eax, -60(%rbp)
 303              		.loc 1 172 7
 304 0098 837DC400 		cmpl	$0, -60(%rbp)
 305 009c 740D     		je	.L19
 173:/home/xingli/share/LiteOS_Lab/network/dtls/mbedtls/mbedtls-2.16.2/library/x509.c ****         return( MBEDTLS_ERR_X509_INVALID_ALG + ret );
 306              		.loc 1 173 46
 307 009e 8B45C4   		movl	-60(%rbp), %eax
 308 00a1 2D002300 		subl	$8960, %eax
 308      00
 309 00a6 E9990000 		jmp	.L25
 309      00
GAS LISTING /tmp/ccL8LWq1.s 			page 10


 310              	.L19:
 174:/home/xingli/share/LiteOS_Lab/network/dtls/mbedtls/mbedtls-2.16.2/library/x509.c **** 
 175:/home/xingli/share/LiteOS_Lab/network/dtls/mbedtls/mbedtls-2.16.2/library/x509.c ****     md_oid.p = p;
 311              		.loc 1 175 14
 312 00ab 488B45C8 		movq	-56(%rbp), %rax
 313 00af 488945F0 		movq	%rax, -16(%rbp)
 176:/home/xingli/share/LiteOS_Lab/network/dtls/mbedtls/mbedtls-2.16.2/library/x509.c ****     p += md_oid.len;
 314              		.loc 1 176 7
 315 00b3 488B55C8 		movq	-56(%rbp), %rdx
 316              		.loc 1 176 16
 317 00b7 488B45E8 		movq	-24(%rbp), %rax
 318              		.loc 1 176 7
 319 00bb 4801D0   		addq	%rdx, %rax
 320 00be 488945C8 		movq	%rax, -56(%rbp)
 177:/home/xingli/share/LiteOS_Lab/network/dtls/mbedtls/mbedtls-2.16.2/library/x509.c **** 
 178:/home/xingli/share/LiteOS_Lab/network/dtls/mbedtls/mbedtls-2.16.2/library/x509.c ****     /* Get md_alg from md_oid */
 179:/home/xingli/share/LiteOS_Lab/network/dtls/mbedtls/mbedtls-2.16.2/library/x509.c ****     if( ( ret = mbedtls_oid_get_md_alg( &md_oid, md_alg ) ) != 0 )
 321              		.loc 1 179 17
 322 00c2 488B55B0 		movq	-80(%rbp), %rdx
 323 00c6 488D45E0 		leaq	-32(%rbp), %rax
 324 00ca 4889D6   		movq	%rdx, %rsi
 325 00cd 4889C7   		movq	%rax, %rdi
 326 00d0 E8000000 		call	mbedtls_oid_get_md_alg@PLT
 326      00
 327 00d5 8945C4   		movl	%eax, -60(%rbp)
 328              		.loc 1 179 7
 329 00d8 837DC400 		cmpl	$0, -60(%rbp)
 330 00dc 740A     		je	.L20
 180:/home/xingli/share/LiteOS_Lab/network/dtls/mbedtls/mbedtls-2.16.2/library/x509.c ****         return( MBEDTLS_ERR_X509_INVALID_ALG + ret );
 331              		.loc 1 180 46
 332 00de 8B45C4   		movl	-60(%rbp), %eax
 333 00e1 2D002300 		subl	$8960, %eax
 333      00
 334 00e6 EB5C     		jmp	.L25
 335              	.L20:
 181:/home/xingli/share/LiteOS_Lab/network/dtls/mbedtls/mbedtls-2.16.2/library/x509.c **** 
 182:/home/xingli/share/LiteOS_Lab/network/dtls/mbedtls/mbedtls-2.16.2/library/x509.c ****     /* Make sure params is absent of NULL */
 183:/home/xingli/share/LiteOS_Lab/network/dtls/mbedtls/mbedtls-2.16.2/library/x509.c ****     if( p == end )
 336              		.loc 1 183 11
 337 00e8 488B45C8 		movq	-56(%rbp), %rax
 338              		.loc 1 183 7
 339 00ec 483945D8 		cmpq	%rax, -40(%rbp)
 340 00f0 7507     		jne	.L21
 184:/home/xingli/share/LiteOS_Lab/network/dtls/mbedtls/mbedtls-2.16.2/library/x509.c ****         return( 0 );
 341              		.loc 1 184 15
 342 00f2 B8000000 		movl	$0, %eax
 342      00
 343 00f7 EB4B     		jmp	.L25
 344              	.L21:
 185:/home/xingli/share/LiteOS_Lab/network/dtls/mbedtls/mbedtls-2.16.2/library/x509.c **** 
 186:/home/xingli/share/LiteOS_Lab/network/dtls/mbedtls/mbedtls-2.16.2/library/x509.c ****     if( ( ret = mbedtls_asn1_get_tag( &p, end, &len, MBEDTLS_ASN1_NULL ) ) != 0 || len != 0 )
 345              		.loc 1 186 17
 346 00f9 488D55D0 		leaq	-48(%rbp), %rdx
 347 00fd 488B75D8 		movq	-40(%rbp), %rsi
 348 0101 488D45C8 		leaq	-56(%rbp), %rax
 349 0105 B9050000 		movl	$5, %ecx
 349      00
GAS LISTING /tmp/ccL8LWq1.s 			page 11


 350 010a 4889C7   		movq	%rax, %rdi
 351 010d E8000000 		call	mbedtls_asn1_get_tag@PLT
 351      00
 352 0112 8945C4   		movl	%eax, -60(%rbp)
 353              		.loc 1 186 7
 354 0115 837DC400 		cmpl	$0, -60(%rbp)
 355 0119 7509     		jne	.L22
 356              		.loc 1 186 88 discriminator 1
 357 011b 488B45D0 		movq	-48(%rbp), %rax
 358              		.loc 1 186 81 discriminator 1
 359 011f 4885C0   		testq	%rax, %rax
 360 0122 740A     		je	.L23
 361              	.L22:
 187:/home/xingli/share/LiteOS_Lab/network/dtls/mbedtls/mbedtls-2.16.2/library/x509.c ****         return( MBEDTLS_ERR_X509_INVALID_ALG + ret );
 362              		.loc 1 187 46
 363 0124 8B45C4   		movl	-60(%rbp), %eax
 364 0127 2D002300 		subl	$8960, %eax
 364      00
 365 012c EB16     		jmp	.L25
 366              	.L23:
 188:/home/xingli/share/LiteOS_Lab/network/dtls/mbedtls/mbedtls-2.16.2/library/x509.c **** 
 189:/home/xingli/share/LiteOS_Lab/network/dtls/mbedtls/mbedtls-2.16.2/library/x509.c ****     if( p != end )
 367              		.loc 1 189 11
 368 012e 488B45C8 		movq	-56(%rbp), %rax
 369              		.loc 1 189 7
 370 0132 483945D8 		cmpq	%rax, -40(%rbp)
 371 0136 7407     		je	.L24
 190:/home/xingli/share/LiteOS_Lab/network/dtls/mbedtls/mbedtls-2.16.2/library/x509.c ****         return( MBEDTLS_ERR_X509_INVALID_ALG +
 372              		.loc 1 190 15
 373 0138 B89ADCFF 		movl	$-9062, %eax
 373      FF
 374 013d EB05     		jmp	.L25
 375              	.L24:
 191:/home/xingli/share/LiteOS_Lab/network/dtls/mbedtls/mbedtls-2.16.2/library/x509.c ****                 MBEDTLS_ERR_ASN1_LENGTH_MISMATCH );
 192:/home/xingli/share/LiteOS_Lab/network/dtls/mbedtls/mbedtls-2.16.2/library/x509.c **** 
 193:/home/xingli/share/LiteOS_Lab/network/dtls/mbedtls/mbedtls-2.16.2/library/x509.c ****     return( 0 );
 376              		.loc 1 193 11
 377 013f B8000000 		movl	$0, %eax
 377      00
 378              	.L25:
 194:/home/xingli/share/LiteOS_Lab/network/dtls/mbedtls/mbedtls-2.16.2/library/x509.c **** }
 379              		.loc 1 194 1 discriminator 1
 380 0144 488B4DF8 		movq	-8(%rbp), %rcx
 381 0148 6448330C 		xorq	%fs:40, %rcx
 381      25280000 
 381      00
 382 0151 7405     		je	.L26
 383              		.loc 1 194 1 is_stmt 0
 384 0153 E8000000 		call	__stack_chk_fail@PLT
 384      00
 385              	.L26:
 386 0158 C9       		leave
 387              	.LCFI11:
 388              		.cfi_def_cfa 7, 8
 389 0159 C3       		ret
 390              		.cfi_endproc
 391              	.LFE19:
GAS LISTING /tmp/ccL8LWq1.s 			page 12


 393              		.section	.rodata
 394              	.LC0:
 395 0000 2A864886 		.string	"*\206H\206\367\r\001\001\b"
 395      F70D0101 
 395      0800
 396              		.section	.text.mbedtls_x509_get_rsassa_pss_params,"ax",@progbits
 397              		.globl	mbedtls_x509_get_rsassa_pss_params
 399              	mbedtls_x509_get_rsassa_pss_params:
 400              	.LFB20:
 195:/home/xingli/share/LiteOS_Lab/network/dtls/mbedtls/mbedtls-2.16.2/library/x509.c **** 
 196:/home/xingli/share/LiteOS_Lab/network/dtls/mbedtls/mbedtls-2.16.2/library/x509.c **** /*
 197:/home/xingli/share/LiteOS_Lab/network/dtls/mbedtls/mbedtls-2.16.2/library/x509.c ****  *    RSASSA-PSS-params  ::=  SEQUENCE  {
 198:/home/xingli/share/LiteOS_Lab/network/dtls/mbedtls/mbedtls-2.16.2/library/x509.c ****  *       hashAlgorithm     [0] HashAlgorithm DEFAULT sha1Identifier,
 199:/home/xingli/share/LiteOS_Lab/network/dtls/mbedtls/mbedtls-2.16.2/library/x509.c ****  *       maskGenAlgorithm  [1] MaskGenAlgorithm DEFAULT mgf1SHA1Identifier,
 200:/home/xingli/share/LiteOS_Lab/network/dtls/mbedtls/mbedtls-2.16.2/library/x509.c ****  *       saltLength        [2] INTEGER DEFAULT 20,
 201:/home/xingli/share/LiteOS_Lab/network/dtls/mbedtls/mbedtls-2.16.2/library/x509.c ****  *       trailerField      [3] INTEGER DEFAULT 1  }
 202:/home/xingli/share/LiteOS_Lab/network/dtls/mbedtls/mbedtls-2.16.2/library/x509.c ****  *    -- Note that the tags in this Sequence are explicit.
 203:/home/xingli/share/LiteOS_Lab/network/dtls/mbedtls/mbedtls-2.16.2/library/x509.c ****  *
 204:/home/xingli/share/LiteOS_Lab/network/dtls/mbedtls/mbedtls-2.16.2/library/x509.c ****  * RFC 4055 (which defines use of RSASSA-PSS in PKIX) states that the value
 205:/home/xingli/share/LiteOS_Lab/network/dtls/mbedtls/mbedtls-2.16.2/library/x509.c ****  * of trailerField MUST be 1, and PKCS#1 v2.2 doesn't even define any other
 206:/home/xingli/share/LiteOS_Lab/network/dtls/mbedtls/mbedtls-2.16.2/library/x509.c ****  * option. Enfore this at parsing time.
 207:/home/xingli/share/LiteOS_Lab/network/dtls/mbedtls/mbedtls-2.16.2/library/x509.c ****  */
 208:/home/xingli/share/LiteOS_Lab/network/dtls/mbedtls/mbedtls-2.16.2/library/x509.c **** int mbedtls_x509_get_rsassa_pss_params( const mbedtls_x509_buf *params,
 209:/home/xingli/share/LiteOS_Lab/network/dtls/mbedtls/mbedtls-2.16.2/library/x509.c ****                                 mbedtls_md_type_t *md_alg, mbedtls_md_type_t *mgf_md,
 210:/home/xingli/share/LiteOS_Lab/network/dtls/mbedtls/mbedtls-2.16.2/library/x509.c ****                                 int *salt_len )
 211:/home/xingli/share/LiteOS_Lab/network/dtls/mbedtls/mbedtls-2.16.2/library/x509.c **** {
 401              		.loc 1 211 1 is_stmt 1
 402              		.cfi_startproc
 403 0000 F30F1EFA 		endbr64
 404 0004 55       		pushq	%rbp
 405              	.LCFI12:
 406              		.cfi_def_cfa_offset 16
 407              		.cfi_offset 6, -16
 408 0005 4889E5   		movq	%rsp, %rbp
 409              	.LCFI13:
 410              		.cfi_def_cfa_register 6
 411 0008 4881EC90 		subq	$144, %rsp
 411      000000
 412 000f 48897D88 		movq	%rdi, -120(%rbp)
 413 0013 48897580 		movq	%rsi, -128(%rbp)
 414 0017 48899578 		movq	%rdx, -136(%rbp)
 414      FFFFFF
 415 001e 48898D70 		movq	%rcx, -144(%rbp)
 415      FFFFFF
 416              		.loc 1 211 1
 417 0025 64488B04 		movq	%fs:40, %rax
 417      25280000 
 417      00
 418 002e 488945F8 		movq	%rax, -8(%rbp)
 419 0032 31C0     		xorl	%eax, %eax
 212:/home/xingli/share/LiteOS_Lab/network/dtls/mbedtls/mbedtls-2.16.2/library/x509.c ****     int ret;
 213:/home/xingli/share/LiteOS_Lab/network/dtls/mbedtls/mbedtls-2.16.2/library/x509.c ****     unsigned char *p;
 214:/home/xingli/share/LiteOS_Lab/network/dtls/mbedtls/mbedtls-2.16.2/library/x509.c ****     const unsigned char *end, *end2;
 215:/home/xingli/share/LiteOS_Lab/network/dtls/mbedtls/mbedtls-2.16.2/library/x509.c ****     size_t len;
 216:/home/xingli/share/LiteOS_Lab/network/dtls/mbedtls/mbedtls-2.16.2/library/x509.c ****     mbedtls_x509_buf alg_id, alg_params;
 217:/home/xingli/share/LiteOS_Lab/network/dtls/mbedtls/mbedtls-2.16.2/library/x509.c **** 
 218:/home/xingli/share/LiteOS_Lab/network/dtls/mbedtls/mbedtls-2.16.2/library/x509.c ****     /* First set everything to defaults */
GAS LISTING /tmp/ccL8LWq1.s 			page 13


 219:/home/xingli/share/LiteOS_Lab/network/dtls/mbedtls/mbedtls-2.16.2/library/x509.c ****     *md_alg = MBEDTLS_MD_SHA1;
 420              		.loc 1 219 13
 421 0034 488B4580 		movq	-128(%rbp), %rax
 422 0038 C7000400 		movl	$4, (%rax)
 422      0000
 220:/home/xingli/share/LiteOS_Lab/network/dtls/mbedtls/mbedtls-2.16.2/library/x509.c ****     *mgf_md = MBEDTLS_MD_SHA1;
 423              		.loc 1 220 13
 424 003e 488B8578 		movq	-136(%rbp), %rax
 424      FFFFFF
 425 0045 C7000400 		movl	$4, (%rax)
 425      0000
 221:/home/xingli/share/LiteOS_Lab/network/dtls/mbedtls/mbedtls-2.16.2/library/x509.c ****     *salt_len = 20;
 426              		.loc 1 221 15
 427 004b 488B8570 		movq	-144(%rbp), %rax
 427      FFFFFF
 428 0052 C7001400 		movl	$20, (%rax)
 428      0000
 222:/home/xingli/share/LiteOS_Lab/network/dtls/mbedtls/mbedtls-2.16.2/library/x509.c **** 
 223:/home/xingli/share/LiteOS_Lab/network/dtls/mbedtls/mbedtls-2.16.2/library/x509.c ****     /* Make sure params is a SEQUENCE and setup bounds */
 224:/home/xingli/share/LiteOS_Lab/network/dtls/mbedtls/mbedtls-2.16.2/library/x509.c ****     if( params->tag != ( MBEDTLS_ASN1_CONSTRUCTED | MBEDTLS_ASN1_SEQUENCE ) )
 429              		.loc 1 224 15
 430 0058 488B4588 		movq	-120(%rbp), %rax
 431 005c 8B00     		movl	(%rax), %eax
 432              		.loc 1 224 7
 433 005e 83F830   		cmpl	$48, %eax
 434 0061 740A     		je	.L28
 225:/home/xingli/share/LiteOS_Lab/network/dtls/mbedtls/mbedtls-2.16.2/library/x509.c ****         return( MBEDTLS_ERR_X509_INVALID_ALG +
 435              		.loc 1 225 15
 436 0063 B89EDCFF 		movl	$-9058, %eax
 436      FF
 437 0068 E92C0300 		jmp	.L56
 437      00
 438              	.L28:
 226:/home/xingli/share/LiteOS_Lab/network/dtls/mbedtls/mbedtls-2.16.2/library/x509.c ****                 MBEDTLS_ERR_ASN1_UNEXPECTED_TAG );
 227:/home/xingli/share/LiteOS_Lab/network/dtls/mbedtls/mbedtls-2.16.2/library/x509.c **** 
 228:/home/xingli/share/LiteOS_Lab/network/dtls/mbedtls/mbedtls-2.16.2/library/x509.c ****     p = (unsigned char *) params->p;
 439              		.loc 1 228 33
 440 006d 488B4588 		movq	-120(%rbp), %rax
 441 0071 488B4010 		movq	16(%rax), %rax
 442              		.loc 1 228 7
 443 0075 488945A0 		movq	%rax, -96(%rbp)
 229:/home/xingli/share/LiteOS_Lab/network/dtls/mbedtls/mbedtls-2.16.2/library/x509.c ****     end = p + params->len;
 444              		.loc 1 229 13
 445 0079 488B55A0 		movq	-96(%rbp), %rdx
 446              		.loc 1 229 21
 447 007d 488B4588 		movq	-120(%rbp), %rax
 448 0081 488B4008 		movq	8(%rax), %rax
 449              		.loc 1 229 9
 450 0085 4801D0   		addq	%rdx, %rax
 451 0088 488945B0 		movq	%rax, -80(%rbp)
 230:/home/xingli/share/LiteOS_Lab/network/dtls/mbedtls/mbedtls-2.16.2/library/x509.c **** 
 231:/home/xingli/share/LiteOS_Lab/network/dtls/mbedtls/mbedtls-2.16.2/library/x509.c ****     if( p == end )
 452              		.loc 1 231 11
 453 008c 488B45A0 		movq	-96(%rbp), %rax
 454              		.loc 1 231 7
 455 0090 483945B0 		cmpq	%rax, -80(%rbp)
 456 0094 750A     		jne	.L30
GAS LISTING /tmp/ccL8LWq1.s 			page 14


 232:/home/xingli/share/LiteOS_Lab/network/dtls/mbedtls/mbedtls-2.16.2/library/x509.c ****         return( 0 );
 457              		.loc 1 232 15
 458 0096 B8000000 		movl	$0, %eax
 458      00
 459 009b E9F90200 		jmp	.L56
 459      00
 460              	.L30:
 233:/home/xingli/share/LiteOS_Lab/network/dtls/mbedtls/mbedtls-2.16.2/library/x509.c **** 
 234:/home/xingli/share/LiteOS_Lab/network/dtls/mbedtls/mbedtls-2.16.2/library/x509.c ****     /*
 235:/home/xingli/share/LiteOS_Lab/network/dtls/mbedtls/mbedtls-2.16.2/library/x509.c ****      * HashAlgorithm
 236:/home/xingli/share/LiteOS_Lab/network/dtls/mbedtls/mbedtls-2.16.2/library/x509.c ****      */
 237:/home/xingli/share/LiteOS_Lab/network/dtls/mbedtls/mbedtls-2.16.2/library/x509.c ****     if( ( ret = mbedtls_asn1_get_tag( &p, end, &len,
 461              		.loc 1 237 17
 462 00a0 488D55A8 		leaq	-88(%rbp), %rdx
 463 00a4 488B75B0 		movq	-80(%rbp), %rsi
 464 00a8 488D45A0 		leaq	-96(%rbp), %rax
 465 00ac B9A00000 		movl	$160, %ecx
 465      00
 466 00b1 4889C7   		movq	%rax, %rdi
 467 00b4 E8000000 		call	mbedtls_asn1_get_tag@PLT
 467      00
 468 00b9 89459C   		movl	%eax, -100(%rbp)
 469              		.loc 1 237 7
 470 00bc 837D9C00 		cmpl	$0, -100(%rbp)
 471 00c0 7574     		jne	.L31
 238:/home/xingli/share/LiteOS_Lab/network/dtls/mbedtls/mbedtls-2.16.2/library/x509.c ****                     MBEDTLS_ASN1_CONTEXT_SPECIFIC | MBEDTLS_ASN1_CONSTRUCTED | 0 ) ) == 0 )
 239:/home/xingli/share/LiteOS_Lab/network/dtls/mbedtls/mbedtls-2.16.2/library/x509.c ****     {
 240:/home/xingli/share/LiteOS_Lab/network/dtls/mbedtls/mbedtls-2.16.2/library/x509.c ****         end2 = p + len;
 472              		.loc 1 240 18
 473 00c2 488B55A0 		movq	-96(%rbp), %rdx
 474 00c6 488B45A8 		movq	-88(%rbp), %rax
 475              		.loc 1 240 14
 476 00ca 4801D0   		addq	%rdx, %rax
 477 00cd 488945B8 		movq	%rax, -72(%rbp)
 241:/home/xingli/share/LiteOS_Lab/network/dtls/mbedtls/mbedtls-2.16.2/library/x509.c **** 
 242:/home/xingli/share/LiteOS_Lab/network/dtls/mbedtls/mbedtls-2.16.2/library/x509.c ****         /* HashAlgorithm ::= AlgorithmIdentifier (without parameters) */
 243:/home/xingli/share/LiteOS_Lab/network/dtls/mbedtls/mbedtls-2.16.2/library/x509.c ****         if( ( ret = mbedtls_x509_get_alg_null( &p, end2, &alg_id ) ) != 0 )
 478              		.loc 1 243 21
 479 00d1 488D55C0 		leaq	-64(%rbp), %rdx
 480 00d5 488B4DB8 		movq	-72(%rbp), %rcx
 481 00d9 488D45A0 		leaq	-96(%rbp), %rax
 482 00dd 4889CE   		movq	%rcx, %rsi
 483 00e0 4889C7   		movq	%rax, %rdi
 484 00e3 E8000000 		call	mbedtls_x509_get_alg_null
 484      00
 485 00e8 89459C   		movl	%eax, -100(%rbp)
 486              		.loc 1 243 11
 487 00eb 837D9C00 		cmpl	$0, -100(%rbp)
 488 00ef 7408     		je	.L32
 244:/home/xingli/share/LiteOS_Lab/network/dtls/mbedtls/mbedtls-2.16.2/library/x509.c ****             return( ret );
 489              		.loc 1 244 19
 490 00f1 8B459C   		movl	-100(%rbp), %eax
 491 00f4 E9A00200 		jmp	.L56
 491      00
 492              	.L32:
 245:/home/xingli/share/LiteOS_Lab/network/dtls/mbedtls/mbedtls-2.16.2/library/x509.c **** 
 246:/home/xingli/share/LiteOS_Lab/network/dtls/mbedtls/mbedtls-2.16.2/library/x509.c ****         if( ( ret = mbedtls_oid_get_md_alg( &alg_id, md_alg ) ) != 0 )
GAS LISTING /tmp/ccL8LWq1.s 			page 15


 493              		.loc 1 246 21
 494 00f9 488B5580 		movq	-128(%rbp), %rdx
 495 00fd 488D45C0 		leaq	-64(%rbp), %rax
 496 0101 4889D6   		movq	%rdx, %rsi
 497 0104 4889C7   		movq	%rax, %rdi
 498 0107 E8000000 		call	mbedtls_oid_get_md_alg@PLT
 498      00
 499 010c 89459C   		movl	%eax, -100(%rbp)
 500              		.loc 1 246 11
 501 010f 837D9C00 		cmpl	$0, -100(%rbp)
 502 0113 740D     		je	.L33
 247:/home/xingli/share/LiteOS_Lab/network/dtls/mbedtls/mbedtls-2.16.2/library/x509.c ****             return( MBEDTLS_ERR_X509_INVALID_ALG + ret );
 503              		.loc 1 247 50
 504 0115 8B459C   		movl	-100(%rbp), %eax
 505 0118 2D002300 		subl	$8960, %eax
 505      00
 506 011d E9770200 		jmp	.L56
 506      00
 507              	.L33:
 248:/home/xingli/share/LiteOS_Lab/network/dtls/mbedtls/mbedtls-2.16.2/library/x509.c **** 
 249:/home/xingli/share/LiteOS_Lab/network/dtls/mbedtls/mbedtls-2.16.2/library/x509.c ****         if( p != end2 )
 508              		.loc 1 249 15
 509 0122 488B45A0 		movq	-96(%rbp), %rax
 510              		.loc 1 249 11
 511 0126 483945B8 		cmpq	%rax, -72(%rbp)
 512 012a 741D     		je	.L34
 250:/home/xingli/share/LiteOS_Lab/network/dtls/mbedtls/mbedtls-2.16.2/library/x509.c ****             return( MBEDTLS_ERR_X509_INVALID_ALG +
 513              		.loc 1 250 19
 514 012c B89ADCFF 		movl	$-9062, %eax
 514      FF
 515 0131 E9630200 		jmp	.L56
 515      00
 516              	.L31:
 251:/home/xingli/share/LiteOS_Lab/network/dtls/mbedtls/mbedtls-2.16.2/library/x509.c ****                     MBEDTLS_ERR_ASN1_LENGTH_MISMATCH );
 252:/home/xingli/share/LiteOS_Lab/network/dtls/mbedtls/mbedtls-2.16.2/library/x509.c ****     }
 253:/home/xingli/share/LiteOS_Lab/network/dtls/mbedtls/mbedtls-2.16.2/library/x509.c ****     else if( ret != MBEDTLS_ERR_ASN1_UNEXPECTED_TAG )
 517              		.loc 1 253 12
 518 0136 837D9C9E 		cmpl	$-98, -100(%rbp)
 519 013a 740D     		je	.L34
 254:/home/xingli/share/LiteOS_Lab/network/dtls/mbedtls/mbedtls-2.16.2/library/x509.c ****         return( MBEDTLS_ERR_X509_INVALID_ALG + ret );
 520              		.loc 1 254 46
 521 013c 8B459C   		movl	-100(%rbp), %eax
 522 013f 2D002300 		subl	$8960, %eax
 522      00
 523 0144 E9500200 		jmp	.L56
 523      00
 524              	.L34:
 255:/home/xingli/share/LiteOS_Lab/network/dtls/mbedtls/mbedtls-2.16.2/library/x509.c **** 
 256:/home/xingli/share/LiteOS_Lab/network/dtls/mbedtls/mbedtls-2.16.2/library/x509.c ****     if( p == end )
 525              		.loc 1 256 11
 526 0149 488B45A0 		movq	-96(%rbp), %rax
 527              		.loc 1 256 7
 528 014d 483945B0 		cmpq	%rax, -80(%rbp)
 529 0151 750A     		jne	.L35
 257:/home/xingli/share/LiteOS_Lab/network/dtls/mbedtls/mbedtls-2.16.2/library/x509.c ****         return( 0 );
 530              		.loc 1 257 15
 531 0153 B8000000 		movl	$0, %eax
GAS LISTING /tmp/ccL8LWq1.s 			page 16


 531      00
 532 0158 E93C0200 		jmp	.L56
 532      00
 533              	.L35:
 258:/home/xingli/share/LiteOS_Lab/network/dtls/mbedtls/mbedtls-2.16.2/library/x509.c **** 
 259:/home/xingli/share/LiteOS_Lab/network/dtls/mbedtls/mbedtls-2.16.2/library/x509.c ****     /*
 260:/home/xingli/share/LiteOS_Lab/network/dtls/mbedtls/mbedtls-2.16.2/library/x509.c ****      * MaskGenAlgorithm
 261:/home/xingli/share/LiteOS_Lab/network/dtls/mbedtls/mbedtls-2.16.2/library/x509.c ****      */
 262:/home/xingli/share/LiteOS_Lab/network/dtls/mbedtls/mbedtls-2.16.2/library/x509.c ****     if( ( ret = mbedtls_asn1_get_tag( &p, end, &len,
 534              		.loc 1 262 17
 535 015d 488D55A8 		leaq	-88(%rbp), %rdx
 536 0161 488B75B0 		movq	-80(%rbp), %rsi
 537 0165 488D45A0 		leaq	-96(%rbp), %rax
 538 0169 B9A10000 		movl	$161, %ecx
 538      00
 539 016e 4889C7   		movq	%rax, %rdi
 540 0171 E8000000 		call	mbedtls_asn1_get_tag@PLT
 540      00
 541 0176 89459C   		movl	%eax, -100(%rbp)
 542              		.loc 1 262 7
 543 0179 837D9C00 		cmpl	$0, -100(%rbp)
 544 017d 0F85B200 		jne	.L36
 544      0000
 263:/home/xingli/share/LiteOS_Lab/network/dtls/mbedtls/mbedtls-2.16.2/library/x509.c ****                     MBEDTLS_ASN1_CONTEXT_SPECIFIC | MBEDTLS_ASN1_CONSTRUCTED | 1 ) ) == 0 )
 264:/home/xingli/share/LiteOS_Lab/network/dtls/mbedtls/mbedtls-2.16.2/library/x509.c ****     {
 265:/home/xingli/share/LiteOS_Lab/network/dtls/mbedtls/mbedtls-2.16.2/library/x509.c ****         end2 = p + len;
 545              		.loc 1 265 18
 546 0183 488B55A0 		movq	-96(%rbp), %rdx
 547 0187 488B45A8 		movq	-88(%rbp), %rax
 548              		.loc 1 265 14
 549 018b 4801D0   		addq	%rdx, %rax
 550 018e 488945B8 		movq	%rax, -72(%rbp)
 266:/home/xingli/share/LiteOS_Lab/network/dtls/mbedtls/mbedtls-2.16.2/library/x509.c **** 
 267:/home/xingli/share/LiteOS_Lab/network/dtls/mbedtls/mbedtls-2.16.2/library/x509.c ****         /* MaskGenAlgorithm ::= AlgorithmIdentifier (params = HashAlgorithm) */
 268:/home/xingli/share/LiteOS_Lab/network/dtls/mbedtls/mbedtls-2.16.2/library/x509.c ****         if( ( ret = mbedtls_x509_get_alg( &p, end2, &alg_id, &alg_params ) ) != 0 )
 551              		.loc 1 268 21
 552 0192 488D4DE0 		leaq	-32(%rbp), %rcx
 553 0196 488D55C0 		leaq	-64(%rbp), %rdx
 554 019a 488B75B8 		movq	-72(%rbp), %rsi
 555 019e 488D45A0 		leaq	-96(%rbp), %rax
 556 01a2 4889C7   		movq	%rax, %rdi
 557 01a5 E8000000 		call	mbedtls_x509_get_alg
 557      00
 558 01aa 89459C   		movl	%eax, -100(%rbp)
 559              		.loc 1 268 11
 560 01ad 837D9C00 		cmpl	$0, -100(%rbp)
 561 01b1 7408     		je	.L37
 269:/home/xingli/share/LiteOS_Lab/network/dtls/mbedtls/mbedtls-2.16.2/library/x509.c ****             return( ret );
 562              		.loc 1 269 19
 563 01b3 8B459C   		movl	-100(%rbp), %eax
 564 01b6 E9DE0100 		jmp	.L56
 564      00
 565              	.L37:
 270:/home/xingli/share/LiteOS_Lab/network/dtls/mbedtls/mbedtls-2.16.2/library/x509.c **** 
 271:/home/xingli/share/LiteOS_Lab/network/dtls/mbedtls/mbedtls-2.16.2/library/x509.c ****         /* Only MFG1 is recognised for now */
 272:/home/xingli/share/LiteOS_Lab/network/dtls/mbedtls/mbedtls-2.16.2/library/x509.c ****         if( MBEDTLS_OID_CMP( MBEDTLS_OID_MGF1, &alg_id ) != 0 )
 566              		.loc 1 272 13
GAS LISTING /tmp/ccL8LWq1.s 			page 17


 567 01bb 488B45C8 		movq	-56(%rbp), %rax
 568 01bf 4883F809 		cmpq	$9, %rax
 569 01c3 751B     		jne	.L38
 570              		.loc 1 272 13 is_stmt 0 discriminator 2
 571 01c5 488B55C8 		movq	-56(%rbp), %rdx
 572 01c9 488B45D0 		movq	-48(%rbp), %rax
 573 01cd 4889C6   		movq	%rax, %rsi
 574 01d0 488D3D00 		leaq	.LC0(%rip), %rdi
 574      000000
 575 01d7 E8000000 		call	memcmp@PLT
 575      00
 576 01dc 85C0     		testl	%eax, %eax
 577 01de 7407     		je	.L39
 578              	.L38:
 579              		.loc 1 272 13 discriminator 3
 580 01e0 B8010000 		movl	$1, %eax
 580      00
 581 01e5 EB05     		jmp	.L40
 582              	.L39:
 583              		.loc 1 272 13 discriminator 4
 584 01e7 B8000000 		movl	$0, %eax
 584      00
 585              	.L40:
 586              		.loc 1 272 11 is_stmt 1 discriminator 6
 587 01ec 85C0     		testl	%eax, %eax
 588 01ee 740A     		je	.L41
 273:/home/xingli/share/LiteOS_Lab/network/dtls/mbedtls/mbedtls-2.16.2/library/x509.c ****             return( MBEDTLS_ERR_X509_FEATURE_UNAVAILABLE +
 589              		.loc 1 273 19
 590 01f0 B852DFFF 		movl	$-8366, %eax
 590      FF
 591 01f5 E99F0100 		jmp	.L56
 591      00
 592              	.L41:
 274:/home/xingli/share/LiteOS_Lab/network/dtls/mbedtls/mbedtls-2.16.2/library/x509.c ****                     MBEDTLS_ERR_OID_NOT_FOUND );
 275:/home/xingli/share/LiteOS_Lab/network/dtls/mbedtls/mbedtls-2.16.2/library/x509.c **** 
 276:/home/xingli/share/LiteOS_Lab/network/dtls/mbedtls/mbedtls-2.16.2/library/x509.c ****         /* Parse HashAlgorithm */
 277:/home/xingli/share/LiteOS_Lab/network/dtls/mbedtls/mbedtls-2.16.2/library/x509.c ****         if( ( ret = x509_get_hash_alg( &alg_params, mgf_md ) ) != 0 )
 593              		.loc 1 277 21
 594 01fa 488B9578 		movq	-136(%rbp), %rdx
 594      FFFFFF
 595 0201 488D45E0 		leaq	-32(%rbp), %rax
 596 0205 4889D6   		movq	%rdx, %rsi
 597 0208 4889C7   		movq	%rax, %rdi
 598 020b E8000000 		call	x509_get_hash_alg
 598      00
 599 0210 89459C   		movl	%eax, -100(%rbp)
 600              		.loc 1 277 11
 601 0213 837D9C00 		cmpl	$0, -100(%rbp)
 602 0217 7408     		je	.L42
 278:/home/xingli/share/LiteOS_Lab/network/dtls/mbedtls/mbedtls-2.16.2/library/x509.c ****             return( ret );
 603              		.loc 1 278 19
 604 0219 8B459C   		movl	-100(%rbp), %eax
 605 021c E9780100 		jmp	.L56
 605      00
 606              	.L42:
 279:/home/xingli/share/LiteOS_Lab/network/dtls/mbedtls/mbedtls-2.16.2/library/x509.c **** 
 280:/home/xingli/share/LiteOS_Lab/network/dtls/mbedtls/mbedtls-2.16.2/library/x509.c ****         if( p != end2 )
GAS LISTING /tmp/ccL8LWq1.s 			page 18


 607              		.loc 1 280 15
 608 0221 488B45A0 		movq	-96(%rbp), %rax
 609              		.loc 1 280 11
 610 0225 483945B8 		cmpq	%rax, -72(%rbp)
 611 0229 741D     		je	.L43
 281:/home/xingli/share/LiteOS_Lab/network/dtls/mbedtls/mbedtls-2.16.2/library/x509.c ****             return( MBEDTLS_ERR_X509_INVALID_ALG +
 612              		.loc 1 281 19
 613 022b B89ADCFF 		movl	$-9062, %eax
 613      FF
 614 0230 E9640100 		jmp	.L56
 614      00
 615              	.L36:
 282:/home/xingli/share/LiteOS_Lab/network/dtls/mbedtls/mbedtls-2.16.2/library/x509.c ****                     MBEDTLS_ERR_ASN1_LENGTH_MISMATCH );
 283:/home/xingli/share/LiteOS_Lab/network/dtls/mbedtls/mbedtls-2.16.2/library/x509.c ****     }
 284:/home/xingli/share/LiteOS_Lab/network/dtls/mbedtls/mbedtls-2.16.2/library/x509.c ****     else if( ret != MBEDTLS_ERR_ASN1_UNEXPECTED_TAG )
 616              		.loc 1 284 12
 617 0235 837D9C9E 		cmpl	$-98, -100(%rbp)
 618 0239 740D     		je	.L43
 285:/home/xingli/share/LiteOS_Lab/network/dtls/mbedtls/mbedtls-2.16.2/library/x509.c ****         return( MBEDTLS_ERR_X509_INVALID_ALG + ret );
 619              		.loc 1 285 46
 620 023b 8B459C   		movl	-100(%rbp), %eax
 621 023e 2D002300 		subl	$8960, %eax
 621      00
 622 0243 E9510100 		jmp	.L56
 622      00
 623              	.L43:
 286:/home/xingli/share/LiteOS_Lab/network/dtls/mbedtls/mbedtls-2.16.2/library/x509.c **** 
 287:/home/xingli/share/LiteOS_Lab/network/dtls/mbedtls/mbedtls-2.16.2/library/x509.c ****     if( p == end )
 624              		.loc 1 287 11
 625 0248 488B45A0 		movq	-96(%rbp), %rax
 626              		.loc 1 287 7
 627 024c 483945B0 		cmpq	%rax, -80(%rbp)
 628 0250 750A     		jne	.L44
 288:/home/xingli/share/LiteOS_Lab/network/dtls/mbedtls/mbedtls-2.16.2/library/x509.c ****         return( 0 );
 629              		.loc 1 288 15
 630 0252 B8000000 		movl	$0, %eax
 630      00
 631 0257 E93D0100 		jmp	.L56
 631      00
 632              	.L44:
 289:/home/xingli/share/LiteOS_Lab/network/dtls/mbedtls/mbedtls-2.16.2/library/x509.c **** 
 290:/home/xingli/share/LiteOS_Lab/network/dtls/mbedtls/mbedtls-2.16.2/library/x509.c ****     /*
 291:/home/xingli/share/LiteOS_Lab/network/dtls/mbedtls/mbedtls-2.16.2/library/x509.c ****      * salt_len
 292:/home/xingli/share/LiteOS_Lab/network/dtls/mbedtls/mbedtls-2.16.2/library/x509.c ****      */
 293:/home/xingli/share/LiteOS_Lab/network/dtls/mbedtls/mbedtls-2.16.2/library/x509.c ****     if( ( ret = mbedtls_asn1_get_tag( &p, end, &len,
 633              		.loc 1 293 17
 634 025c 488D55A8 		leaq	-88(%rbp), %rdx
 635 0260 488B75B0 		movq	-80(%rbp), %rsi
 636 0264 488D45A0 		leaq	-96(%rbp), %rax
 637 0268 B9A20000 		movl	$162, %ecx
 637      00
 638 026d 4889C7   		movq	%rax, %rdi
 639 0270 E8000000 		call	mbedtls_asn1_get_tag@PLT
 639      00
 640 0275 89459C   		movl	%eax, -100(%rbp)
 641              		.loc 1 293 7
 642 0278 837D9C00 		cmpl	$0, -100(%rbp)
GAS LISTING /tmp/ccL8LWq1.s 			page 19


 643 027c 7553     		jne	.L45
 294:/home/xingli/share/LiteOS_Lab/network/dtls/mbedtls/mbedtls-2.16.2/library/x509.c ****                     MBEDTLS_ASN1_CONTEXT_SPECIFIC | MBEDTLS_ASN1_CONSTRUCTED | 2 ) ) == 0 )
 295:/home/xingli/share/LiteOS_Lab/network/dtls/mbedtls/mbedtls-2.16.2/library/x509.c ****     {
 296:/home/xingli/share/LiteOS_Lab/network/dtls/mbedtls/mbedtls-2.16.2/library/x509.c ****         end2 = p + len;
 644              		.loc 1 296 18
 645 027e 488B55A0 		movq	-96(%rbp), %rdx
 646 0282 488B45A8 		movq	-88(%rbp), %rax
 647              		.loc 1 296 14
 648 0286 4801D0   		addq	%rdx, %rax
 649 0289 488945B8 		movq	%rax, -72(%rbp)
 297:/home/xingli/share/LiteOS_Lab/network/dtls/mbedtls/mbedtls-2.16.2/library/x509.c **** 
 298:/home/xingli/share/LiteOS_Lab/network/dtls/mbedtls/mbedtls-2.16.2/library/x509.c ****         if( ( ret = mbedtls_asn1_get_int( &p, end2, salt_len ) ) != 0 )
 650              		.loc 1 298 21
 651 028d 488B9570 		movq	-144(%rbp), %rdx
 651      FFFFFF
 652 0294 488B4DB8 		movq	-72(%rbp), %rcx
 653 0298 488D45A0 		leaq	-96(%rbp), %rax
 654 029c 4889CE   		movq	%rcx, %rsi
 655 029f 4889C7   		movq	%rax, %rdi
 656 02a2 E8000000 		call	mbedtls_asn1_get_int@PLT
 656      00
 657 02a7 89459C   		movl	%eax, -100(%rbp)
 658              		.loc 1 298 11
 659 02aa 837D9C00 		cmpl	$0, -100(%rbp)
 660 02ae 740D     		je	.L46
 299:/home/xingli/share/LiteOS_Lab/network/dtls/mbedtls/mbedtls-2.16.2/library/x509.c ****             return( MBEDTLS_ERR_X509_INVALID_ALG + ret );
 661              		.loc 1 299 50
 662 02b0 8B459C   		movl	-100(%rbp), %eax
 663 02b3 2D002300 		subl	$8960, %eax
 663      00
 664 02b8 E9DC0000 		jmp	.L56
 664      00
 665              	.L46:
 300:/home/xingli/share/LiteOS_Lab/network/dtls/mbedtls/mbedtls-2.16.2/library/x509.c **** 
 301:/home/xingli/share/LiteOS_Lab/network/dtls/mbedtls/mbedtls-2.16.2/library/x509.c ****         if( p != end2 )
 666              		.loc 1 301 15
 667 02bd 488B45A0 		movq	-96(%rbp), %rax
 668              		.loc 1 301 11
 669 02c1 483945B8 		cmpq	%rax, -72(%rbp)
 670 02c5 741D     		je	.L47
 302:/home/xingli/share/LiteOS_Lab/network/dtls/mbedtls/mbedtls-2.16.2/library/x509.c ****             return( MBEDTLS_ERR_X509_INVALID_ALG +
 671              		.loc 1 302 19
 672 02c7 B89ADCFF 		movl	$-9062, %eax
 672      FF
 673 02cc E9C80000 		jmp	.L56
 673      00
 674              	.L45:
 303:/home/xingli/share/LiteOS_Lab/network/dtls/mbedtls/mbedtls-2.16.2/library/x509.c ****                     MBEDTLS_ERR_ASN1_LENGTH_MISMATCH );
 304:/home/xingli/share/LiteOS_Lab/network/dtls/mbedtls/mbedtls-2.16.2/library/x509.c ****     }
 305:/home/xingli/share/LiteOS_Lab/network/dtls/mbedtls/mbedtls-2.16.2/library/x509.c ****     else if( ret != MBEDTLS_ERR_ASN1_UNEXPECTED_TAG )
 675              		.loc 1 305 12
 676 02d1 837D9C9E 		cmpl	$-98, -100(%rbp)
 677 02d5 740D     		je	.L47
 306:/home/xingli/share/LiteOS_Lab/network/dtls/mbedtls/mbedtls-2.16.2/library/x509.c ****         return( MBEDTLS_ERR_X509_INVALID_ALG + ret );
 678              		.loc 1 306 46
 679 02d7 8B459C   		movl	-100(%rbp), %eax
 680 02da 2D002300 		subl	$8960, %eax
GAS LISTING /tmp/ccL8LWq1.s 			page 20


 680      00
 681 02df E9B50000 		jmp	.L56
 681      00
 682              	.L47:
 307:/home/xingli/share/LiteOS_Lab/network/dtls/mbedtls/mbedtls-2.16.2/library/x509.c **** 
 308:/home/xingli/share/LiteOS_Lab/network/dtls/mbedtls/mbedtls-2.16.2/library/x509.c ****     if( p == end )
 683              		.loc 1 308 11
 684 02e4 488B45A0 		movq	-96(%rbp), %rax
 685              		.loc 1 308 7
 686 02e8 483945B0 		cmpq	%rax, -80(%rbp)
 687 02ec 750A     		jne	.L48
 309:/home/xingli/share/LiteOS_Lab/network/dtls/mbedtls/mbedtls-2.16.2/library/x509.c ****         return( 0 );
 688              		.loc 1 309 15
 689 02ee B8000000 		movl	$0, %eax
 689      00
 690 02f3 E9A10000 		jmp	.L56
 690      00
 691              	.L48:
 310:/home/xingli/share/LiteOS_Lab/network/dtls/mbedtls/mbedtls-2.16.2/library/x509.c **** 
 311:/home/xingli/share/LiteOS_Lab/network/dtls/mbedtls/mbedtls-2.16.2/library/x509.c ****     /*
 312:/home/xingli/share/LiteOS_Lab/network/dtls/mbedtls/mbedtls-2.16.2/library/x509.c ****      * trailer_field (if present, must be 1)
 313:/home/xingli/share/LiteOS_Lab/network/dtls/mbedtls/mbedtls-2.16.2/library/x509.c ****      */
 314:/home/xingli/share/LiteOS_Lab/network/dtls/mbedtls/mbedtls-2.16.2/library/x509.c ****     if( ( ret = mbedtls_asn1_get_tag( &p, end, &len,
 692              		.loc 1 314 17
 693 02f8 488D55A8 		leaq	-88(%rbp), %rdx
 694 02fc 488B75B0 		movq	-80(%rbp), %rsi
 695 0300 488D45A0 		leaq	-96(%rbp), %rax
 696 0304 B9A30000 		movl	$163, %ecx
 696      00
 697 0309 4889C7   		movq	%rax, %rdi
 698 030c E8000000 		call	mbedtls_asn1_get_tag@PLT
 698      00
 699 0311 89459C   		movl	%eax, -100(%rbp)
 700              		.loc 1 314 7
 701 0314 837D9C00 		cmpl	$0, -100(%rbp)
 702 0318 7559     		jne	.L49
 703              	.LBB2:
 315:/home/xingli/share/LiteOS_Lab/network/dtls/mbedtls/mbedtls-2.16.2/library/x509.c ****                     MBEDTLS_ASN1_CONTEXT_SPECIFIC | MBEDTLS_ASN1_CONSTRUCTED | 3 ) ) == 0 )
 316:/home/xingli/share/LiteOS_Lab/network/dtls/mbedtls/mbedtls-2.16.2/library/x509.c ****     {
 317:/home/xingli/share/LiteOS_Lab/network/dtls/mbedtls/mbedtls-2.16.2/library/x509.c ****         int trailer_field;
 318:/home/xingli/share/LiteOS_Lab/network/dtls/mbedtls/mbedtls-2.16.2/library/x509.c **** 
 319:/home/xingli/share/LiteOS_Lab/network/dtls/mbedtls/mbedtls-2.16.2/library/x509.c ****         end2 = p + len;
 704              		.loc 1 319 18
 705 031a 488B55A0 		movq	-96(%rbp), %rdx
 706 031e 488B45A8 		movq	-88(%rbp), %rax
 707              		.loc 1 319 14
 708 0322 4801D0   		addq	%rdx, %rax
 709 0325 488945B8 		movq	%rax, -72(%rbp)
 320:/home/xingli/share/LiteOS_Lab/network/dtls/mbedtls/mbedtls-2.16.2/library/x509.c **** 
 321:/home/xingli/share/LiteOS_Lab/network/dtls/mbedtls/mbedtls-2.16.2/library/x509.c ****         if( ( ret = mbedtls_asn1_get_int( &p, end2, &trailer_field ) ) != 0 )
 710              		.loc 1 321 21
 711 0329 488D5598 		leaq	-104(%rbp), %rdx
 712 032d 488B4DB8 		movq	-72(%rbp), %rcx
 713 0331 488D45A0 		leaq	-96(%rbp), %rax
 714 0335 4889CE   		movq	%rcx, %rsi
 715 0338 4889C7   		movq	%rax, %rdi
 716 033b E8000000 		call	mbedtls_asn1_get_int@PLT
GAS LISTING /tmp/ccL8LWq1.s 			page 21


 716      00
 717 0340 89459C   		movl	%eax, -100(%rbp)
 718              		.loc 1 321 11
 719 0343 837D9C00 		cmpl	$0, -100(%rbp)
 720 0347 740A     		je	.L50
 322:/home/xingli/share/LiteOS_Lab/network/dtls/mbedtls/mbedtls-2.16.2/library/x509.c ****             return( MBEDTLS_ERR_X509_INVALID_ALG + ret );
 721              		.loc 1 322 50
 722 0349 8B459C   		movl	-100(%rbp), %eax
 723 034c 2D002300 		subl	$8960, %eax
 723      00
 724 0351 EB46     		jmp	.L56
 725              	.L50:
 323:/home/xingli/share/LiteOS_Lab/network/dtls/mbedtls/mbedtls-2.16.2/library/x509.c **** 
 324:/home/xingli/share/LiteOS_Lab/network/dtls/mbedtls/mbedtls-2.16.2/library/x509.c ****         if( p != end2 )
 726              		.loc 1 324 15
 727 0353 488B45A0 		movq	-96(%rbp), %rax
 728              		.loc 1 324 11
 729 0357 483945B8 		cmpq	%rax, -72(%rbp)
 730 035b 7407     		je	.L52
 325:/home/xingli/share/LiteOS_Lab/network/dtls/mbedtls/mbedtls-2.16.2/library/x509.c ****             return( MBEDTLS_ERR_X509_INVALID_ALG +
 731              		.loc 1 325 19
 732 035d B89ADCFF 		movl	$-9062, %eax
 732      FF
 733 0362 EB35     		jmp	.L56
 734              	.L52:
 326:/home/xingli/share/LiteOS_Lab/network/dtls/mbedtls/mbedtls-2.16.2/library/x509.c ****                     MBEDTLS_ERR_ASN1_LENGTH_MISMATCH );
 327:/home/xingli/share/LiteOS_Lab/network/dtls/mbedtls/mbedtls-2.16.2/library/x509.c **** 
 328:/home/xingli/share/LiteOS_Lab/network/dtls/mbedtls/mbedtls-2.16.2/library/x509.c ****         if( trailer_field != 1 )
 735              		.loc 1 328 27
 736 0364 8B4598   		movl	-104(%rbp), %eax
 737              		.loc 1 328 11
 738 0367 83F801   		cmpl	$1, %eax
 739 036a 7417     		je	.L54
 329:/home/xingli/share/LiteOS_Lab/network/dtls/mbedtls/mbedtls-2.16.2/library/x509.c ****             return( MBEDTLS_ERR_X509_INVALID_ALG );
 740              		.loc 1 329 19
 741 036c B800DDFF 		movl	$-8960, %eax
 741      FF
 742 0371 EB26     		jmp	.L56
 743              	.L49:
 744              	.LBE2:
 330:/home/xingli/share/LiteOS_Lab/network/dtls/mbedtls/mbedtls-2.16.2/library/x509.c ****     }
 331:/home/xingli/share/LiteOS_Lab/network/dtls/mbedtls/mbedtls-2.16.2/library/x509.c ****     else if( ret != MBEDTLS_ERR_ASN1_UNEXPECTED_TAG )
 745              		.loc 1 331 12
 746 0373 837D9C9E 		cmpl	$-98, -100(%rbp)
 747 0377 740A     		je	.L54
 332:/home/xingli/share/LiteOS_Lab/network/dtls/mbedtls/mbedtls-2.16.2/library/x509.c ****         return( MBEDTLS_ERR_X509_INVALID_ALG + ret );
 748              		.loc 1 332 46
 749 0379 8B459C   		movl	-100(%rbp), %eax
 750 037c 2D002300 		subl	$8960, %eax
 750      00
 751 0381 EB16     		jmp	.L56
 752              	.L54:
 333:/home/xingli/share/LiteOS_Lab/network/dtls/mbedtls/mbedtls-2.16.2/library/x509.c **** 
 334:/home/xingli/share/LiteOS_Lab/network/dtls/mbedtls/mbedtls-2.16.2/library/x509.c ****     if( p != end )
 753              		.loc 1 334 11
 754 0383 488B45A0 		movq	-96(%rbp), %rax
 755              		.loc 1 334 7
GAS LISTING /tmp/ccL8LWq1.s 			page 22


 756 0387 483945B0 		cmpq	%rax, -80(%rbp)
 757 038b 7407     		je	.L55
 335:/home/xingli/share/LiteOS_Lab/network/dtls/mbedtls/mbedtls-2.16.2/library/x509.c ****         return( MBEDTLS_ERR_X509_INVALID_ALG +
 758              		.loc 1 335 15
 759 038d B89ADCFF 		movl	$-9062, %eax
 759      FF
 760 0392 EB05     		jmp	.L56
 761              	.L55:
 336:/home/xingli/share/LiteOS_Lab/network/dtls/mbedtls/mbedtls-2.16.2/library/x509.c ****                 MBEDTLS_ERR_ASN1_LENGTH_MISMATCH );
 337:/home/xingli/share/LiteOS_Lab/network/dtls/mbedtls/mbedtls-2.16.2/library/x509.c **** 
 338:/home/xingli/share/LiteOS_Lab/network/dtls/mbedtls/mbedtls-2.16.2/library/x509.c ****     return( 0 );
 762              		.loc 1 338 11
 763 0394 B8000000 		movl	$0, %eax
 763      00
 764              	.L56:
 339:/home/xingli/share/LiteOS_Lab/network/dtls/mbedtls/mbedtls-2.16.2/library/x509.c **** }
 765              		.loc 1 339 1 discriminator 2
 766 0399 488B7DF8 		movq	-8(%rbp), %rdi
 767 039d 6448333C 		xorq	%fs:40, %rdi
 767      25280000 
 767      00
 768 03a6 7405     		je	.L57
 769              		.loc 1 339 1 is_stmt 0
 770 03a8 E8000000 		call	__stack_chk_fail@PLT
 770      00
 771              	.L57:
 772 03ad C9       		leave
 773              	.LCFI14:
 774              		.cfi_def_cfa 7, 8
 775 03ae C3       		ret
 776              		.cfi_endproc
 777              	.LFE20:
 779              		.section	.text.x509_get_attr_type_value,"ax",@progbits
 781              	x509_get_attr_type_value:
 782              	.LFB21:
 340:/home/xingli/share/LiteOS_Lab/network/dtls/mbedtls/mbedtls-2.16.2/library/x509.c **** #endif /* MBEDTLS_X509_RSASSA_PSS_SUPPORT */
 341:/home/xingli/share/LiteOS_Lab/network/dtls/mbedtls/mbedtls-2.16.2/library/x509.c **** 
 342:/home/xingli/share/LiteOS_Lab/network/dtls/mbedtls/mbedtls-2.16.2/library/x509.c **** /*
 343:/home/xingli/share/LiteOS_Lab/network/dtls/mbedtls/mbedtls-2.16.2/library/x509.c ****  *  AttributeTypeAndValue ::= SEQUENCE {
 344:/home/xingli/share/LiteOS_Lab/network/dtls/mbedtls/mbedtls-2.16.2/library/x509.c ****  *    type     AttributeType,
 345:/home/xingli/share/LiteOS_Lab/network/dtls/mbedtls/mbedtls-2.16.2/library/x509.c ****  *    value    AttributeValue }
 346:/home/xingli/share/LiteOS_Lab/network/dtls/mbedtls/mbedtls-2.16.2/library/x509.c ****  *
 347:/home/xingli/share/LiteOS_Lab/network/dtls/mbedtls/mbedtls-2.16.2/library/x509.c ****  *  AttributeType ::= OBJECT IDENTIFIER
 348:/home/xingli/share/LiteOS_Lab/network/dtls/mbedtls/mbedtls-2.16.2/library/x509.c ****  *
 349:/home/xingli/share/LiteOS_Lab/network/dtls/mbedtls/mbedtls-2.16.2/library/x509.c ****  *  AttributeValue ::= ANY DEFINED BY AttributeType
 350:/home/xingli/share/LiteOS_Lab/network/dtls/mbedtls/mbedtls-2.16.2/library/x509.c ****  */
 351:/home/xingli/share/LiteOS_Lab/network/dtls/mbedtls/mbedtls-2.16.2/library/x509.c **** static int x509_get_attr_type_value( unsigned char **p,
 352:/home/xingli/share/LiteOS_Lab/network/dtls/mbedtls/mbedtls-2.16.2/library/x509.c ****                                      const unsigned char *end,
 353:/home/xingli/share/LiteOS_Lab/network/dtls/mbedtls/mbedtls-2.16.2/library/x509.c ****                                      mbedtls_x509_name *cur )
 354:/home/xingli/share/LiteOS_Lab/network/dtls/mbedtls/mbedtls-2.16.2/library/x509.c **** {
 783              		.loc 1 354 1 is_stmt 1
 784              		.cfi_startproc
 785 0000 F30F1EFA 		endbr64
 786 0004 55       		pushq	%rbp
 787              	.LCFI15:
 788              		.cfi_def_cfa_offset 16
 789              		.cfi_offset 6, -16
GAS LISTING /tmp/ccL8LWq1.s 			page 23


 790 0005 4889E5   		movq	%rsp, %rbp
 791              	.LCFI16:
 792              		.cfi_def_cfa_register 6
 793 0008 4883EC50 		subq	$80, %rsp
 794 000c 48897DC8 		movq	%rdi, -56(%rbp)
 795 0010 488975C0 		movq	%rsi, -64(%rbp)
 796 0014 488955B8 		movq	%rdx, -72(%rbp)
 797              		.loc 1 354 1
 798 0018 64488B04 		movq	%fs:40, %rax
 798      25280000 
 798      00
 799 0021 488945F8 		movq	%rax, -8(%rbp)
 800 0025 31C0     		xorl	%eax, %eax
 355:/home/xingli/share/LiteOS_Lab/network/dtls/mbedtls/mbedtls-2.16.2/library/x509.c ****     int ret;
 356:/home/xingli/share/LiteOS_Lab/network/dtls/mbedtls/mbedtls-2.16.2/library/x509.c ****     size_t len;
 357:/home/xingli/share/LiteOS_Lab/network/dtls/mbedtls/mbedtls-2.16.2/library/x509.c ****     mbedtls_x509_buf *oid;
 358:/home/xingli/share/LiteOS_Lab/network/dtls/mbedtls/mbedtls-2.16.2/library/x509.c ****     mbedtls_x509_buf *val;
 359:/home/xingli/share/LiteOS_Lab/network/dtls/mbedtls/mbedtls-2.16.2/library/x509.c **** 
 360:/home/xingli/share/LiteOS_Lab/network/dtls/mbedtls/mbedtls-2.16.2/library/x509.c ****     if( ( ret = mbedtls_asn1_get_tag( p, end, &len,
 801              		.loc 1 360 17
 802 0027 488D55E0 		leaq	-32(%rbp), %rdx
 803 002b 488B75C0 		movq	-64(%rbp), %rsi
 804 002f 488B45C8 		movq	-56(%rbp), %rax
 805 0033 B9300000 		movl	$48, %ecx
 805      00
 806 0038 4889C7   		movq	%rax, %rdi
 807 003b E8000000 		call	mbedtls_asn1_get_tag@PLT
 807      00
 808 0040 8945DC   		movl	%eax, -36(%rbp)
 809              		.loc 1 360 7
 810 0043 837DDC00 		cmpl	$0, -36(%rbp)
 811 0047 740D     		je	.L59
 361:/home/xingli/share/LiteOS_Lab/network/dtls/mbedtls/mbedtls-2.16.2/library/x509.c ****             MBEDTLS_ASN1_CONSTRUCTED | MBEDTLS_ASN1_SEQUENCE ) ) != 0 )
 362:/home/xingli/share/LiteOS_Lab/network/dtls/mbedtls/mbedtls-2.16.2/library/x509.c ****         return( MBEDTLS_ERR_X509_INVALID_NAME + ret );
 812              		.loc 1 362 47
 813 0049 8B45DC   		movl	-36(%rbp), %eax
 814 004c 2D802300 		subl	$9088, %eax
 814      00
 815 0051 E9D90100 		jmp	.L67
 815      00
 816              	.L59:
 363:/home/xingli/share/LiteOS_Lab/network/dtls/mbedtls/mbedtls-2.16.2/library/x509.c **** 
 364:/home/xingli/share/LiteOS_Lab/network/dtls/mbedtls/mbedtls-2.16.2/library/x509.c ****     end = *p + len;
 817              		.loc 1 364 11
 818 0056 488B45C8 		movq	-56(%rbp), %rax
 819 005a 488B10   		movq	(%rax), %rdx
 820              		.loc 1 364 14
 821 005d 488B45E0 		movq	-32(%rbp), %rax
 822              		.loc 1 364 9
 823 0061 4801D0   		addq	%rdx, %rax
 824 0064 488945C0 		movq	%rax, -64(%rbp)
 365:/home/xingli/share/LiteOS_Lab/network/dtls/mbedtls/mbedtls-2.16.2/library/x509.c **** 
 366:/home/xingli/share/LiteOS_Lab/network/dtls/mbedtls/mbedtls-2.16.2/library/x509.c ****     if( ( end - *p ) < 1 )
 825              		.loc 1 366 17
 826 0068 488B45C8 		movq	-56(%rbp), %rax
 827 006c 488B00   		movq	(%rax), %rax
 828              		.loc 1 366 15
GAS LISTING /tmp/ccL8LWq1.s 			page 24


 829 006f 488B55C0 		movq	-64(%rbp), %rdx
 830 0073 4829C2   		subq	%rax, %rdx
 831 0076 4889D0   		movq	%rdx, %rax
 832              		.loc 1 366 7
 833 0079 4885C0   		testq	%rax, %rax
 834 007c 7F0A     		jg	.L61
 367:/home/xingli/share/LiteOS_Lab/network/dtls/mbedtls/mbedtls-2.16.2/library/x509.c ****         return( MBEDTLS_ERR_X509_INVALID_NAME +
 835              		.loc 1 367 15
 836 007e B820DCFF 		movl	$-9184, %eax
 836      FF
 837 0083 E9A70100 		jmp	.L67
 837      00
 838              	.L61:
 368:/home/xingli/share/LiteOS_Lab/network/dtls/mbedtls/mbedtls-2.16.2/library/x509.c ****                 MBEDTLS_ERR_ASN1_OUT_OF_DATA );
 369:/home/xingli/share/LiteOS_Lab/network/dtls/mbedtls/mbedtls-2.16.2/library/x509.c **** 
 370:/home/xingli/share/LiteOS_Lab/network/dtls/mbedtls/mbedtls-2.16.2/library/x509.c ****     oid = &cur->oid;
 839              		.loc 1 370 9
 840 0088 488B45B8 		movq	-72(%rbp), %rax
 841 008c 488945E8 		movq	%rax, -24(%rbp)
 371:/home/xingli/share/LiteOS_Lab/network/dtls/mbedtls/mbedtls-2.16.2/library/x509.c ****     oid->tag = **p;
 842              		.loc 1 371 17
 843 0090 488B45C8 		movq	-56(%rbp), %rax
 844 0094 488B00   		movq	(%rax), %rax
 845              		.loc 1 371 16
 846 0097 0FB600   		movzbl	(%rax), %eax
 847 009a 0FB6D0   		movzbl	%al, %edx
 848              		.loc 1 371 14
 849 009d 488B45E8 		movq	-24(%rbp), %rax
 850 00a1 8910     		movl	%edx, (%rax)
 372:/home/xingli/share/LiteOS_Lab/network/dtls/mbedtls/mbedtls-2.16.2/library/x509.c **** 
 373:/home/xingli/share/LiteOS_Lab/network/dtls/mbedtls/mbedtls-2.16.2/library/x509.c ****     if( ( ret = mbedtls_asn1_get_tag( p, end, &oid->len, MBEDTLS_ASN1_OID ) ) != 0 )
 851              		.loc 1 373 17
 852 00a3 488B45E8 		movq	-24(%rbp), %rax
 853 00a7 488D5008 		leaq	8(%rax), %rdx
 854 00ab 488B75C0 		movq	-64(%rbp), %rsi
 855 00af 488B45C8 		movq	-56(%rbp), %rax
 856 00b3 B9060000 		movl	$6, %ecx
 856      00
 857 00b8 4889C7   		movq	%rax, %rdi
 858 00bb E8000000 		call	mbedtls_asn1_get_tag@PLT
 858      00
 859 00c0 8945DC   		movl	%eax, -36(%rbp)
 860              		.loc 1 373 7
 861 00c3 837DDC00 		cmpl	$0, -36(%rbp)
 862 00c7 740D     		je	.L62
 374:/home/xingli/share/LiteOS_Lab/network/dtls/mbedtls/mbedtls-2.16.2/library/x509.c ****         return( MBEDTLS_ERR_X509_INVALID_NAME + ret );
 863              		.loc 1 374 47
 864 00c9 8B45DC   		movl	-36(%rbp), %eax
 865 00cc 2D802300 		subl	$9088, %eax
 865      00
 866 00d1 E9590100 		jmp	.L67
 866      00
 867              	.L62:
 375:/home/xingli/share/LiteOS_Lab/network/dtls/mbedtls/mbedtls-2.16.2/library/x509.c **** 
 376:/home/xingli/share/LiteOS_Lab/network/dtls/mbedtls/mbedtls-2.16.2/library/x509.c ****     oid->p = *p;
 868              		.loc 1 376 14
 869 00d6 488B45C8 		movq	-56(%rbp), %rax
GAS LISTING /tmp/ccL8LWq1.s 			page 25


 870 00da 488B10   		movq	(%rax), %rdx
 871              		.loc 1 376 12
 872 00dd 488B45E8 		movq	-24(%rbp), %rax
 873 00e1 48895010 		movq	%rdx, 16(%rax)
 377:/home/xingli/share/LiteOS_Lab/network/dtls/mbedtls/mbedtls-2.16.2/library/x509.c ****     *p += oid->len;
 874              		.loc 1 377 8
 875 00e5 488B45C8 		movq	-56(%rbp), %rax
 876 00e9 488B10   		movq	(%rax), %rdx
 877              		.loc 1 377 14
 878 00ec 488B45E8 		movq	-24(%rbp), %rax
 879 00f0 488B4008 		movq	8(%rax), %rax
 880              		.loc 1 377 8
 881 00f4 4801C2   		addq	%rax, %rdx
 882 00f7 488B45C8 		movq	-56(%rbp), %rax
 883 00fb 488910   		movq	%rdx, (%rax)
 378:/home/xingli/share/LiteOS_Lab/network/dtls/mbedtls/mbedtls-2.16.2/library/x509.c **** 
 379:/home/xingli/share/LiteOS_Lab/network/dtls/mbedtls/mbedtls-2.16.2/library/x509.c ****     if( ( end - *p ) < 1 )
 884              		.loc 1 379 17
 885 00fe 488B45C8 		movq	-56(%rbp), %rax
 886 0102 488B00   		movq	(%rax), %rax
 887              		.loc 1 379 15
 888 0105 488B55C0 		movq	-64(%rbp), %rdx
 889 0109 4829C2   		subq	%rax, %rdx
 890 010c 4889D0   		movq	%rdx, %rax
 891              		.loc 1 379 7
 892 010f 4885C0   		testq	%rax, %rax
 893 0112 7F0A     		jg	.L63
 380:/home/xingli/share/LiteOS_Lab/network/dtls/mbedtls/mbedtls-2.16.2/library/x509.c ****         return( MBEDTLS_ERR_X509_INVALID_NAME +
 894              		.loc 1 380 15
 895 0114 B820DCFF 		movl	$-9184, %eax
 895      FF
 896 0119 E9110100 		jmp	.L67
 896      00
 897              	.L63:
 381:/home/xingli/share/LiteOS_Lab/network/dtls/mbedtls/mbedtls-2.16.2/library/x509.c ****                 MBEDTLS_ERR_ASN1_OUT_OF_DATA );
 382:/home/xingli/share/LiteOS_Lab/network/dtls/mbedtls/mbedtls-2.16.2/library/x509.c **** 
 383:/home/xingli/share/LiteOS_Lab/network/dtls/mbedtls/mbedtls-2.16.2/library/x509.c ****     if( **p != MBEDTLS_ASN1_BMP_STRING && **p != MBEDTLS_ASN1_UTF8_STRING      &&
 898              		.loc 1 383 10
 899 011e 488B45C8 		movq	-56(%rbp), %rax
 900 0122 488B00   		movq	(%rax), %rax
 901              		.loc 1 383 9
 902 0125 0FB600   		movzbl	(%rax), %eax
 903              		.loc 1 383 7
 904 0128 3C1E     		cmpb	$30, %al
 905 012a 745E     		je	.L64
 906              		.loc 1 383 44 discriminator 1
 907 012c 488B45C8 		movq	-56(%rbp), %rax
 908 0130 488B00   		movq	(%rax), %rax
 909              		.loc 1 383 43 discriminator 1
 910 0133 0FB600   		movzbl	(%rax), %eax
 911              		.loc 1 383 40 discriminator 1
 912 0136 3C0C     		cmpb	$12, %al
 913 0138 7450     		je	.L64
 384:/home/xingli/share/LiteOS_Lab/network/dtls/mbedtls/mbedtls-2.16.2/library/x509.c ****         **p != MBEDTLS_ASN1_T61_STRING && **p != MBEDTLS_ASN1_PRINTABLE_STRING &&
 914              		.loc 1 384 10 discriminator 2
 915 013a 488B45C8 		movq	-56(%rbp), %rax
 916 013e 488B00   		movq	(%rax), %rax
GAS LISTING /tmp/ccL8LWq1.s 			page 26


 917              		.loc 1 384 9 discriminator 2
 918 0141 0FB600   		movzbl	(%rax), %eax
 383:/home/xingli/share/LiteOS_Lab/network/dtls/mbedtls/mbedtls-2.16.2/library/x509.c ****         **p != MBEDTLS_ASN1_T61_STRING && **p != MBEDTLS_ASN1_PRINTABLE_STRING &&
 919              		.loc 1 383 80 discriminator 2
 920 0144 3C14     		cmpb	$20, %al
 921 0146 7442     		je	.L64
 922              		.loc 1 384 44
 923 0148 488B45C8 		movq	-56(%rbp), %rax
 924 014c 488B00   		movq	(%rax), %rax
 925              		.loc 1 384 43
 926 014f 0FB600   		movzbl	(%rax), %eax
 927              		.loc 1 384 40
 928 0152 3C13     		cmpb	$19, %al
 929 0154 7434     		je	.L64
 385:/home/xingli/share/LiteOS_Lab/network/dtls/mbedtls/mbedtls-2.16.2/library/x509.c ****         **p != MBEDTLS_ASN1_IA5_STRING && **p != MBEDTLS_ASN1_UNIVERSAL_STRING &&
 930              		.loc 1 385 10 discriminator 1
 931 0156 488B45C8 		movq	-56(%rbp), %rax
 932 015a 488B00   		movq	(%rax), %rax
 933              		.loc 1 385 9 discriminator 1
 934 015d 0FB600   		movzbl	(%rax), %eax
 384:/home/xingli/share/LiteOS_Lab/network/dtls/mbedtls/mbedtls-2.16.2/library/x509.c ****         **p != MBEDTLS_ASN1_T61_STRING && **p != MBEDTLS_ASN1_PRINTABLE_STRING &&
 935              		.loc 1 384 80 discriminator 1
 936 0160 3C16     		cmpb	$22, %al
 937 0162 7426     		je	.L64
 938              		.loc 1 385 44
 939 0164 488B45C8 		movq	-56(%rbp), %rax
 940 0168 488B00   		movq	(%rax), %rax
 941              		.loc 1 385 43
 942 016b 0FB600   		movzbl	(%rax), %eax
 943              		.loc 1 385 40
 944 016e 3C1C     		cmpb	$28, %al
 945 0170 7418     		je	.L64
 386:/home/xingli/share/LiteOS_Lab/network/dtls/mbedtls/mbedtls-2.16.2/library/x509.c ****         **p != MBEDTLS_ASN1_BIT_STRING )
 946              		.loc 1 386 10 discriminator 1
 947 0172 488B45C8 		movq	-56(%rbp), %rax
 948 0176 488B00   		movq	(%rax), %rax
 949              		.loc 1 386 9 discriminator 1
 950 0179 0FB600   		movzbl	(%rax), %eax
 385:/home/xingli/share/LiteOS_Lab/network/dtls/mbedtls/mbedtls-2.16.2/library/x509.c ****         **p != MBEDTLS_ASN1_IA5_STRING && **p != MBEDTLS_ASN1_UNIVERSAL_STRING &&
 951              		.loc 1 385 80 discriminator 1
 952 017c 3C03     		cmpb	$3, %al
 953 017e 740A     		je	.L64
 387:/home/xingli/share/LiteOS_Lab/network/dtls/mbedtls/mbedtls-2.16.2/library/x509.c ****         return( MBEDTLS_ERR_X509_INVALID_NAME +
 954              		.loc 1 387 15
 955 0180 B81EDCFF 		movl	$-9186, %eax
 955      FF
 956 0185 E9A50000 		jmp	.L67
 956      00
 957              	.L64:
 388:/home/xingli/share/LiteOS_Lab/network/dtls/mbedtls/mbedtls-2.16.2/library/x509.c ****                 MBEDTLS_ERR_ASN1_UNEXPECTED_TAG );
 389:/home/xingli/share/LiteOS_Lab/network/dtls/mbedtls/mbedtls-2.16.2/library/x509.c **** 
 390:/home/xingli/share/LiteOS_Lab/network/dtls/mbedtls/mbedtls-2.16.2/library/x509.c ****     val = &cur->val;
 958              		.loc 1 390 9
 959 018a 488B45B8 		movq	-72(%rbp), %rax
 960 018e 4883C018 		addq	$24, %rax
 961 0192 488945F0 		movq	%rax, -16(%rbp)
 391:/home/xingli/share/LiteOS_Lab/network/dtls/mbedtls/mbedtls-2.16.2/library/x509.c ****     val->tag = *(*p)++;
GAS LISTING /tmp/ccL8LWq1.s 			page 27


 962              		.loc 1 391 18
 963 0196 488B45C8 		movq	-56(%rbp), %rax
 964 019a 488B00   		movq	(%rax), %rax
 965              		.loc 1 391 21
 966 019d 488D4801 		leaq	1(%rax), %rcx
 967 01a1 488B55C8 		movq	-56(%rbp), %rdx
 968 01a5 48890A   		movq	%rcx, (%rdx)
 969              		.loc 1 391 16
 970 01a8 0FB600   		movzbl	(%rax), %eax
 971 01ab 0FB6D0   		movzbl	%al, %edx
 972              		.loc 1 391 14
 973 01ae 488B45F0 		movq	-16(%rbp), %rax
 974 01b2 8910     		movl	%edx, (%rax)
 392:/home/xingli/share/LiteOS_Lab/network/dtls/mbedtls/mbedtls-2.16.2/library/x509.c **** 
 393:/home/xingli/share/LiteOS_Lab/network/dtls/mbedtls/mbedtls-2.16.2/library/x509.c ****     if( ( ret = mbedtls_asn1_get_len( p, end, &val->len ) ) != 0 )
 975              		.loc 1 393 17
 976 01b4 488B45F0 		movq	-16(%rbp), %rax
 977 01b8 488D5008 		leaq	8(%rax), %rdx
 978 01bc 488B4DC0 		movq	-64(%rbp), %rcx
 979 01c0 488B45C8 		movq	-56(%rbp), %rax
 980 01c4 4889CE   		movq	%rcx, %rsi
 981 01c7 4889C7   		movq	%rax, %rdi
 982 01ca E8000000 		call	mbedtls_asn1_get_len@PLT
 982      00
 983 01cf 8945DC   		movl	%eax, -36(%rbp)
 984              		.loc 1 393 7
 985 01d2 837DDC00 		cmpl	$0, -36(%rbp)
 986 01d6 740A     		je	.L65
 394:/home/xingli/share/LiteOS_Lab/network/dtls/mbedtls/mbedtls-2.16.2/library/x509.c ****         return( MBEDTLS_ERR_X509_INVALID_NAME + ret );
 987              		.loc 1 394 47
 988 01d8 8B45DC   		movl	-36(%rbp), %eax
 989 01db 2D802300 		subl	$9088, %eax
 989      00
 990 01e0 EB4D     		jmp	.L67
 991              	.L65:
 395:/home/xingli/share/LiteOS_Lab/network/dtls/mbedtls/mbedtls-2.16.2/library/x509.c **** 
 396:/home/xingli/share/LiteOS_Lab/network/dtls/mbedtls/mbedtls-2.16.2/library/x509.c ****     val->p = *p;
 992              		.loc 1 396 14
 993 01e2 488B45C8 		movq	-56(%rbp), %rax
 994 01e6 488B10   		movq	(%rax), %rdx
 995              		.loc 1 396 12
 996 01e9 488B45F0 		movq	-16(%rbp), %rax
 997 01ed 48895010 		movq	%rdx, 16(%rax)
 397:/home/xingli/share/LiteOS_Lab/network/dtls/mbedtls/mbedtls-2.16.2/library/x509.c ****     *p += val->len;
 998              		.loc 1 397 8
 999 01f1 488B45C8 		movq	-56(%rbp), %rax
 1000 01f5 488B10   		movq	(%rax), %rdx
 1001              		.loc 1 397 14
 1002 01f8 488B45F0 		movq	-16(%rbp), %rax
 1003 01fc 488B4008 		movq	8(%rax), %rax
 1004              		.loc 1 397 8
 1005 0200 4801C2   		addq	%rax, %rdx
 1006 0203 488B45C8 		movq	-56(%rbp), %rax
 1007 0207 488910   		movq	%rdx, (%rax)
 398:/home/xingli/share/LiteOS_Lab/network/dtls/mbedtls/mbedtls-2.16.2/library/x509.c **** 
 399:/home/xingli/share/LiteOS_Lab/network/dtls/mbedtls/mbedtls-2.16.2/library/x509.c ****     if( *p != end )
 1008              		.loc 1 399 9
GAS LISTING /tmp/ccL8LWq1.s 			page 28


 1009 020a 488B45C8 		movq	-56(%rbp), %rax
 1010 020e 488B00   		movq	(%rax), %rax
 1011              		.loc 1 399 7
 1012 0211 483945C0 		cmpq	%rax, -64(%rbp)
 1013 0215 7407     		je	.L66
 400:/home/xingli/share/LiteOS_Lab/network/dtls/mbedtls/mbedtls-2.16.2/library/x509.c ****     {
 401:/home/xingli/share/LiteOS_Lab/network/dtls/mbedtls/mbedtls-2.16.2/library/x509.c ****         return( MBEDTLS_ERR_X509_INVALID_NAME +
 1014              		.loc 1 401 15
 1015 0217 B81ADCFF 		movl	$-9190, %eax
 1015      FF
 1016 021c EB11     		jmp	.L67
 1017              	.L66:
 402:/home/xingli/share/LiteOS_Lab/network/dtls/mbedtls/mbedtls-2.16.2/library/x509.c ****                 MBEDTLS_ERR_ASN1_LENGTH_MISMATCH );
 403:/home/xingli/share/LiteOS_Lab/network/dtls/mbedtls/mbedtls-2.16.2/library/x509.c ****     }
 404:/home/xingli/share/LiteOS_Lab/network/dtls/mbedtls/mbedtls-2.16.2/library/x509.c **** 
 405:/home/xingli/share/LiteOS_Lab/network/dtls/mbedtls/mbedtls-2.16.2/library/x509.c ****     cur->next = NULL;
 1018              		.loc 1 405 15
 1019 021e 488B45B8 		movq	-72(%rbp), %rax
 1020 0222 48C74030 		movq	$0, 48(%rax)
 1020      00000000 
 406:/home/xingli/share/LiteOS_Lab/network/dtls/mbedtls/mbedtls-2.16.2/library/x509.c **** 
 407:/home/xingli/share/LiteOS_Lab/network/dtls/mbedtls/mbedtls-2.16.2/library/x509.c ****     return( 0 );
 1021              		.loc 1 407 11
 1022 022a B8000000 		movl	$0, %eax
 1022      00
 1023              	.L67:
 408:/home/xingli/share/LiteOS_Lab/network/dtls/mbedtls/mbedtls-2.16.2/library/x509.c **** }
 1024              		.loc 1 408 1 discriminator 1
 1025 022f 488B7DF8 		movq	-8(%rbp), %rdi
 1026 0233 6448333C 		xorq	%fs:40, %rdi
 1026      25280000 
 1026      00
 1027 023c 7405     		je	.L68
 1028              		.loc 1 408 1 is_stmt 0
 1029 023e E8000000 		call	__stack_chk_fail@PLT
 1029      00
 1030              	.L68:
 1031 0243 C9       		leave
 1032              	.LCFI17:
 1033              		.cfi_def_cfa 7, 8
 1034 0244 C3       		ret
 1035              		.cfi_endproc
 1036              	.LFE21:
 1038              		.section	.text.mbedtls_x509_get_name,"ax",@progbits
 1039              		.globl	mbedtls_x509_get_name
 1041              	mbedtls_x509_get_name:
 1042              	.LFB22:
 409:/home/xingli/share/LiteOS_Lab/network/dtls/mbedtls/mbedtls-2.16.2/library/x509.c **** 
 410:/home/xingli/share/LiteOS_Lab/network/dtls/mbedtls/mbedtls-2.16.2/library/x509.c **** /*
 411:/home/xingli/share/LiteOS_Lab/network/dtls/mbedtls/mbedtls-2.16.2/library/x509.c ****  *  Name ::= CHOICE { -- only one possibility for now --
 412:/home/xingli/share/LiteOS_Lab/network/dtls/mbedtls/mbedtls-2.16.2/library/x509.c ****  *       rdnSequence  RDNSequence }
 413:/home/xingli/share/LiteOS_Lab/network/dtls/mbedtls/mbedtls-2.16.2/library/x509.c ****  *
 414:/home/xingli/share/LiteOS_Lab/network/dtls/mbedtls/mbedtls-2.16.2/library/x509.c ****  *  RDNSequence ::= SEQUENCE OF RelativeDistinguishedName
 415:/home/xingli/share/LiteOS_Lab/network/dtls/mbedtls/mbedtls-2.16.2/library/x509.c ****  *
 416:/home/xingli/share/LiteOS_Lab/network/dtls/mbedtls/mbedtls-2.16.2/library/x509.c ****  *  RelativeDistinguishedName ::=
 417:/home/xingli/share/LiteOS_Lab/network/dtls/mbedtls/mbedtls-2.16.2/library/x509.c ****  *    SET OF AttributeTypeAndValue
 418:/home/xingli/share/LiteOS_Lab/network/dtls/mbedtls/mbedtls-2.16.2/library/x509.c ****  *
GAS LISTING /tmp/ccL8LWq1.s 			page 29


 419:/home/xingli/share/LiteOS_Lab/network/dtls/mbedtls/mbedtls-2.16.2/library/x509.c ****  *  AttributeTypeAndValue ::= SEQUENCE {
 420:/home/xingli/share/LiteOS_Lab/network/dtls/mbedtls/mbedtls-2.16.2/library/x509.c ****  *    type     AttributeType,
 421:/home/xingli/share/LiteOS_Lab/network/dtls/mbedtls/mbedtls-2.16.2/library/x509.c ****  *    value    AttributeValue }
 422:/home/xingli/share/LiteOS_Lab/network/dtls/mbedtls/mbedtls-2.16.2/library/x509.c ****  *
 423:/home/xingli/share/LiteOS_Lab/network/dtls/mbedtls/mbedtls-2.16.2/library/x509.c ****  *  AttributeType ::= OBJECT IDENTIFIER
 424:/home/xingli/share/LiteOS_Lab/network/dtls/mbedtls/mbedtls-2.16.2/library/x509.c ****  *
 425:/home/xingli/share/LiteOS_Lab/network/dtls/mbedtls/mbedtls-2.16.2/library/x509.c ****  *  AttributeValue ::= ANY DEFINED BY AttributeType
 426:/home/xingli/share/LiteOS_Lab/network/dtls/mbedtls/mbedtls-2.16.2/library/x509.c ****  *
 427:/home/xingli/share/LiteOS_Lab/network/dtls/mbedtls/mbedtls-2.16.2/library/x509.c ****  * The data structure is optimized for the common case where each RDN has only
 428:/home/xingli/share/LiteOS_Lab/network/dtls/mbedtls/mbedtls-2.16.2/library/x509.c ****  * one element, which is represented as a list of AttributeTypeAndValue.
 429:/home/xingli/share/LiteOS_Lab/network/dtls/mbedtls/mbedtls-2.16.2/library/x509.c ****  * For the general case we still use a flat list, but we mark elements of the
 430:/home/xingli/share/LiteOS_Lab/network/dtls/mbedtls/mbedtls-2.16.2/library/x509.c ****  * same set so that they are "merged" together in the functions that consume
 431:/home/xingli/share/LiteOS_Lab/network/dtls/mbedtls/mbedtls-2.16.2/library/x509.c ****  * this list, eg mbedtls_x509_dn_gets().
 432:/home/xingli/share/LiteOS_Lab/network/dtls/mbedtls/mbedtls-2.16.2/library/x509.c ****  */
 433:/home/xingli/share/LiteOS_Lab/network/dtls/mbedtls/mbedtls-2.16.2/library/x509.c **** int mbedtls_x509_get_name( unsigned char **p, const unsigned char *end,
 434:/home/xingli/share/LiteOS_Lab/network/dtls/mbedtls/mbedtls-2.16.2/library/x509.c ****                    mbedtls_x509_name *cur )
 435:/home/xingli/share/LiteOS_Lab/network/dtls/mbedtls/mbedtls-2.16.2/library/x509.c **** {
 1043              		.loc 1 435 1 is_stmt 1
 1044              		.cfi_startproc
 1045 0000 F30F1EFA 		endbr64
 1046 0004 55       		pushq	%rbp
 1047              	.LCFI18:
 1048              		.cfi_def_cfa_offset 16
 1049              		.cfi_offset 6, -16
 1050 0005 4889E5   		movq	%rsp, %rbp
 1051              	.LCFI19:
 1052              		.cfi_def_cfa_register 6
 1053 0008 4883EC40 		subq	$64, %rsp
 1054 000c 48897DD8 		movq	%rdi, -40(%rbp)
 1055 0010 488975D0 		movq	%rsi, -48(%rbp)
 1056 0014 488955C8 		movq	%rdx, -56(%rbp)
 1057              		.loc 1 435 1
 1058 0018 64488B04 		movq	%fs:40, %rax
 1058      25280000 
 1058      00
 1059 0021 488945F8 		movq	%rax, -8(%rbp)
 1060 0025 31C0     		xorl	%eax, %eax
 1061              	.L79:
 436:/home/xingli/share/LiteOS_Lab/network/dtls/mbedtls/mbedtls-2.16.2/library/x509.c ****     int ret;
 437:/home/xingli/share/LiteOS_Lab/network/dtls/mbedtls/mbedtls-2.16.2/library/x509.c ****     size_t set_len;
 438:/home/xingli/share/LiteOS_Lab/network/dtls/mbedtls/mbedtls-2.16.2/library/x509.c ****     const unsigned char *end_set;
 439:/home/xingli/share/LiteOS_Lab/network/dtls/mbedtls/mbedtls-2.16.2/library/x509.c **** 
 440:/home/xingli/share/LiteOS_Lab/network/dtls/mbedtls/mbedtls-2.16.2/library/x509.c ****     /* don't use recursion, we'd risk stack overflow if not optimized */
 441:/home/xingli/share/LiteOS_Lab/network/dtls/mbedtls/mbedtls-2.16.2/library/x509.c ****     while( 1 )
 442:/home/xingli/share/LiteOS_Lab/network/dtls/mbedtls/mbedtls-2.16.2/library/x509.c ****     {
 443:/home/xingli/share/LiteOS_Lab/network/dtls/mbedtls/mbedtls-2.16.2/library/x509.c ****         /*
 444:/home/xingli/share/LiteOS_Lab/network/dtls/mbedtls/mbedtls-2.16.2/library/x509.c ****          * parse SET
 445:/home/xingli/share/LiteOS_Lab/network/dtls/mbedtls/mbedtls-2.16.2/library/x509.c ****          */
 446:/home/xingli/share/LiteOS_Lab/network/dtls/mbedtls/mbedtls-2.16.2/library/x509.c ****         if( ( ret = mbedtls_asn1_get_tag( p, end, &set_len,
 1062              		.loc 1 446 21
 1063 0027 488D55E8 		leaq	-24(%rbp), %rdx
 1064 002b 488B75D0 		movq	-48(%rbp), %rsi
 1065 002f 488B45D8 		movq	-40(%rbp), %rax
 1066 0033 B9310000 		movl	$49, %ecx
 1066      00
 1067 0038 4889C7   		movq	%rax, %rdi
 1068 003b E8000000 		call	mbedtls_asn1_get_tag@PLT
GAS LISTING /tmp/ccL8LWq1.s 			page 30


 1068      00
 1069 0040 8945E4   		movl	%eax, -28(%rbp)
 1070              		.loc 1 446 11
 1071 0043 837DE400 		cmpl	$0, -28(%rbp)
 1072 0047 740D     		je	.L70
 447:/home/xingli/share/LiteOS_Lab/network/dtls/mbedtls/mbedtls-2.16.2/library/x509.c ****                 MBEDTLS_ASN1_CONSTRUCTED | MBEDTLS_ASN1_SET ) ) != 0 )
 448:/home/xingli/share/LiteOS_Lab/network/dtls/mbedtls/mbedtls-2.16.2/library/x509.c ****             return( MBEDTLS_ERR_X509_INVALID_NAME + ret );
 1073              		.loc 1 448 51
 1074 0049 8B45E4   		movl	-28(%rbp), %eax
 1075 004c 2D802300 		subl	$9088, %eax
 1075      00
 1076 0051 E9D90000 		jmp	.L80
 1076      00
 1077              	.L70:
 449:/home/xingli/share/LiteOS_Lab/network/dtls/mbedtls/mbedtls-2.16.2/library/x509.c **** 
 450:/home/xingli/share/LiteOS_Lab/network/dtls/mbedtls/mbedtls-2.16.2/library/x509.c ****         end_set  = *p + set_len;
 1078              		.loc 1 450 20
 1079 0056 488B45D8 		movq	-40(%rbp), %rax
 1080 005a 488B10   		movq	(%rax), %rdx
 1081              		.loc 1 450 23
 1082 005d 488B45E8 		movq	-24(%rbp), %rax
 1083              		.loc 1 450 18
 1084 0061 4801D0   		addq	%rdx, %rax
 1085 0064 488945F0 		movq	%rax, -16(%rbp)
 1086              	.L76:
 451:/home/xingli/share/LiteOS_Lab/network/dtls/mbedtls/mbedtls-2.16.2/library/x509.c **** 
 452:/home/xingli/share/LiteOS_Lab/network/dtls/mbedtls/mbedtls-2.16.2/library/x509.c ****         while( 1 )
 453:/home/xingli/share/LiteOS_Lab/network/dtls/mbedtls/mbedtls-2.16.2/library/x509.c ****         {
 454:/home/xingli/share/LiteOS_Lab/network/dtls/mbedtls/mbedtls-2.16.2/library/x509.c ****             if( ( ret = x509_get_attr_type_value( p, end_set, cur ) ) != 0 )
 1087              		.loc 1 454 25
 1088 0068 488B55C8 		movq	-56(%rbp), %rdx
 1089 006c 488B4DF0 		movq	-16(%rbp), %rcx
 1090 0070 488B45D8 		movq	-40(%rbp), %rax
 1091 0074 4889CE   		movq	%rcx, %rsi
 1092 0077 4889C7   		movq	%rax, %rdi
 1093 007a E8000000 		call	x509_get_attr_type_value
 1093      00
 1094 007f 8945E4   		movl	%eax, -28(%rbp)
 1095              		.loc 1 454 15
 1096 0082 837DE400 		cmpl	$0, -28(%rbp)
 1097 0086 7408     		je	.L72
 455:/home/xingli/share/LiteOS_Lab/network/dtls/mbedtls/mbedtls-2.16.2/library/x509.c ****                 return( ret );
 1098              		.loc 1 455 23
 1099 0088 8B45E4   		movl	-28(%rbp), %eax
 1100 008b E99F0000 		jmp	.L80
 1100      00
 1101              	.L72:
 456:/home/xingli/share/LiteOS_Lab/network/dtls/mbedtls/mbedtls-2.16.2/library/x509.c **** 
 457:/home/xingli/share/LiteOS_Lab/network/dtls/mbedtls/mbedtls-2.16.2/library/x509.c ****             if( *p == end_set )
 1102              		.loc 1 457 17
 1103 0090 488B45D8 		movq	-40(%rbp), %rax
 1104 0094 488B00   		movq	(%rax), %rax
 1105              		.loc 1 457 15
 1106 0097 483945F0 		cmpq	%rax, -16(%rbp)
 1107 009b 7441     		je	.L83
 458:/home/xingli/share/LiteOS_Lab/network/dtls/mbedtls/mbedtls-2.16.2/library/x509.c ****                 break;
 459:/home/xingli/share/LiteOS_Lab/network/dtls/mbedtls/mbedtls-2.16.2/library/x509.c **** 
GAS LISTING /tmp/ccL8LWq1.s 			page 31


 460:/home/xingli/share/LiteOS_Lab/network/dtls/mbedtls/mbedtls-2.16.2/library/x509.c ****             /* Mark this item as being no the only one in a set */
 461:/home/xingli/share/LiteOS_Lab/network/dtls/mbedtls/mbedtls-2.16.2/library/x509.c ****             cur->next_merged = 1;
 1108              		.loc 1 461 30
 1109 009d 488B45C8 		movq	-56(%rbp), %rax
 1110 00a1 C6403801 		movb	$1, 56(%rax)
 462:/home/xingli/share/LiteOS_Lab/network/dtls/mbedtls/mbedtls-2.16.2/library/x509.c **** 
 463:/home/xingli/share/LiteOS_Lab/network/dtls/mbedtls/mbedtls-2.16.2/library/x509.c ****             cur->next = mbedtls_calloc( 1, sizeof( mbedtls_x509_name ) );
 1111              		.loc 1 463 25
 1112 00a5 BE400000 		movl	$64, %esi
 1112      00
 1113 00aa BF010000 		movl	$1, %edi
 1113      00
 1114 00af E8000000 		call	mbedtls_calloc@PLT
 1114      00
 1115              		.loc 1 463 23
 1116 00b4 488B55C8 		movq	-56(%rbp), %rdx
 1117 00b8 48894230 		movq	%rax, 48(%rdx)
 464:/home/xingli/share/LiteOS_Lab/network/dtls/mbedtls/mbedtls-2.16.2/library/x509.c **** 
 465:/home/xingli/share/LiteOS_Lab/network/dtls/mbedtls/mbedtls-2.16.2/library/x509.c ****             if( cur->next == NULL )
 1118              		.loc 1 465 20
 1119 00bc 488B45C8 		movq	-56(%rbp), %rax
 1120 00c0 488B4030 		movq	48(%rax), %rax
 1121              		.loc 1 465 15
 1122 00c4 4885C0   		testq	%rax, %rax
 1123 00c7 7507     		jne	.L75
 466:/home/xingli/share/LiteOS_Lab/network/dtls/mbedtls/mbedtls-2.16.2/library/x509.c ****                 return( MBEDTLS_ERR_X509_ALLOC_FAILED );
 1124              		.loc 1 466 23
 1125 00c9 B880D7FF 		movl	$-10368, %eax
 1125      FF
 1126 00ce EB5F     		jmp	.L80
 1127              	.L75:
 467:/home/xingli/share/LiteOS_Lab/network/dtls/mbedtls/mbedtls-2.16.2/library/x509.c **** 
 468:/home/xingli/share/LiteOS_Lab/network/dtls/mbedtls/mbedtls-2.16.2/library/x509.c ****             cur = cur->next;
 1128              		.loc 1 468 17
 1129 00d0 488B45C8 		movq	-56(%rbp), %rax
 1130 00d4 488B4030 		movq	48(%rax), %rax
 1131 00d8 488945C8 		movq	%rax, -56(%rbp)
 454:/home/xingli/share/LiteOS_Lab/network/dtls/mbedtls/mbedtls-2.16.2/library/x509.c ****                 return( ret );
 1132              		.loc 1 454 15
 1133 00dc EB8A     		jmp	.L76
 1134              	.L83:
 458:/home/xingli/share/LiteOS_Lab/network/dtls/mbedtls/mbedtls-2.16.2/library/x509.c **** 
 1135              		.loc 1 458 17
 1136 00de 90       		nop
 469:/home/xingli/share/LiteOS_Lab/network/dtls/mbedtls/mbedtls-2.16.2/library/x509.c ****         }
 470:/home/xingli/share/LiteOS_Lab/network/dtls/mbedtls/mbedtls-2.16.2/library/x509.c **** 
 471:/home/xingli/share/LiteOS_Lab/network/dtls/mbedtls/mbedtls-2.16.2/library/x509.c ****         /*
 472:/home/xingli/share/LiteOS_Lab/network/dtls/mbedtls/mbedtls-2.16.2/library/x509.c ****          * continue until end of SEQUENCE is reached
 473:/home/xingli/share/LiteOS_Lab/network/dtls/mbedtls/mbedtls-2.16.2/library/x509.c ****          */
 474:/home/xingli/share/LiteOS_Lab/network/dtls/mbedtls/mbedtls-2.16.2/library/x509.c ****         if( *p == end )
 1137              		.loc 1 474 13
 1138 00df 488B45D8 		movq	-40(%rbp), %rax
 1139 00e3 488B00   		movq	(%rax), %rax
 1140              		.loc 1 474 11
 1141 00e6 483945D0 		cmpq	%rax, -48(%rbp)
 1142 00ea 7507     		jne	.L77
 475:/home/xingli/share/LiteOS_Lab/network/dtls/mbedtls/mbedtls-2.16.2/library/x509.c ****             return( 0 );
GAS LISTING /tmp/ccL8LWq1.s 			page 32


 1143              		.loc 1 475 19
 1144 00ec B8000000 		movl	$0, %eax
 1144      00
 1145 00f1 EB3C     		jmp	.L80
 1146              	.L77:
 476:/home/xingli/share/LiteOS_Lab/network/dtls/mbedtls/mbedtls-2.16.2/library/x509.c **** 
 477:/home/xingli/share/LiteOS_Lab/network/dtls/mbedtls/mbedtls-2.16.2/library/x509.c ****         cur->next = mbedtls_calloc( 1, sizeof( mbedtls_x509_name ) );
 1147              		.loc 1 477 21
 1148 00f3 BE400000 		movl	$64, %esi
 1148      00
 1149 00f8 BF010000 		movl	$1, %edi
 1149      00
 1150 00fd E8000000 		call	mbedtls_calloc@PLT
 1150      00
 1151              		.loc 1 477 19
 1152 0102 488B55C8 		movq	-56(%rbp), %rdx
 1153 0106 48894230 		movq	%rax, 48(%rdx)
 478:/home/xingli/share/LiteOS_Lab/network/dtls/mbedtls/mbedtls-2.16.2/library/x509.c **** 
 479:/home/xingli/share/LiteOS_Lab/network/dtls/mbedtls/mbedtls-2.16.2/library/x509.c ****         if( cur->next == NULL )
 1154              		.loc 1 479 16
 1155 010a 488B45C8 		movq	-56(%rbp), %rax
 1156 010e 488B4030 		movq	48(%rax), %rax
 1157              		.loc 1 479 11
 1158 0112 4885C0   		testq	%rax, %rax
 1159 0115 7507     		jne	.L78
 480:/home/xingli/share/LiteOS_Lab/network/dtls/mbedtls/mbedtls-2.16.2/library/x509.c ****             return( MBEDTLS_ERR_X509_ALLOC_FAILED );
 1160              		.loc 1 480 19
 1161 0117 B880D7FF 		movl	$-10368, %eax
 1161      FF
 1162 011c EB11     		jmp	.L80
 1163              	.L78:
 481:/home/xingli/share/LiteOS_Lab/network/dtls/mbedtls/mbedtls-2.16.2/library/x509.c **** 
 482:/home/xingli/share/LiteOS_Lab/network/dtls/mbedtls/mbedtls-2.16.2/library/x509.c ****         cur = cur->next;
 1164              		.loc 1 482 13
 1165 011e 488B45C8 		movq	-56(%rbp), %rax
 1166 0122 488B4030 		movq	48(%rax), %rax
 1167 0126 488945C8 		movq	%rax, -56(%rbp)
 446:/home/xingli/share/LiteOS_Lab/network/dtls/mbedtls/mbedtls-2.16.2/library/x509.c ****                 MBEDTLS_ASN1_CONSTRUCTED | MBEDTLS_ASN1_SET ) ) != 0 )
 1168              		.loc 1 446 11
 1169 012a E9F8FEFF 		jmp	.L79
 1169      FF
 1170              	.L80:
 483:/home/xingli/share/LiteOS_Lab/network/dtls/mbedtls/mbedtls-2.16.2/library/x509.c ****     }
 484:/home/xingli/share/LiteOS_Lab/network/dtls/mbedtls/mbedtls-2.16.2/library/x509.c **** }
 1171              		.loc 1 484 1 discriminator 1
 1172 012f 488B4DF8 		movq	-8(%rbp), %rcx
 1173 0133 6448330C 		xorq	%fs:40, %rcx
 1173      25280000 
 1173      00
 1174 013c 7405     		je	.L81
 1175              		.loc 1 484 1 is_stmt 0
 1176 013e E8000000 		call	__stack_chk_fail@PLT
 1176      00
 1177              	.L81:
 1178 0143 C9       		leave
 1179              	.LCFI20:
 1180              		.cfi_def_cfa 7, 8
GAS LISTING /tmp/ccL8LWq1.s 			page 33


 1181 0144 C3       		ret
 1182              		.cfi_endproc
 1183              	.LFE22:
 1185              		.section	.text.x509_parse_int,"ax",@progbits
 1187              	x509_parse_int:
 1188              	.LFB23:
 485:/home/xingli/share/LiteOS_Lab/network/dtls/mbedtls/mbedtls-2.16.2/library/x509.c **** 
 486:/home/xingli/share/LiteOS_Lab/network/dtls/mbedtls/mbedtls-2.16.2/library/x509.c **** static int x509_parse_int( unsigned char **p, size_t n, int *res )
 487:/home/xingli/share/LiteOS_Lab/network/dtls/mbedtls/mbedtls-2.16.2/library/x509.c **** {
 1189              		.loc 1 487 1 is_stmt 1
 1190              		.cfi_startproc
 1191 0000 F30F1EFA 		endbr64
 1192 0004 55       		pushq	%rbp
 1193              	.LCFI21:
 1194              		.cfi_def_cfa_offset 16
 1195              		.cfi_offset 6, -16
 1196 0005 4889E5   		movq	%rsp, %rbp
 1197              	.LCFI22:
 1198              		.cfi_def_cfa_register 6
 1199 0008 4883EC30 		subq	$48, %rsp
 1200 000c 48897DE8 		movq	%rdi, -24(%rbp)
 1201 0010 488975E0 		movq	%rsi, -32(%rbp)
 1202 0014 488955D8 		movq	%rdx, -40(%rbp)
 1203              		.loc 1 487 1
 1204 0018 64488B04 		movq	%fs:40, %rax
 1204      25280000 
 1204      00
 1205 0021 488945F8 		movq	%rax, -8(%rbp)
 1206 0025 31C0     		xorl	%eax, %eax
 488:/home/xingli/share/LiteOS_Lab/network/dtls/mbedtls/mbedtls-2.16.2/library/x509.c ****     *res = 0;
 1207              		.loc 1 488 10
 1208 0027 488B45D8 		movq	-40(%rbp), %rax
 1209 002b C7000000 		movl	$0, (%rax)
 1209      0000
 489:/home/xingli/share/LiteOS_Lab/network/dtls/mbedtls/mbedtls-2.16.2/library/x509.c **** 
 490:/home/xingli/share/LiteOS_Lab/network/dtls/mbedtls/mbedtls-2.16.2/library/x509.c ****     for( ; n > 0; --n )
 1210              		.loc 1 490 5
 1211 0031 EB68     		jmp	.L85
 1212              	.L89:
 491:/home/xingli/share/LiteOS_Lab/network/dtls/mbedtls/mbedtls-2.16.2/library/x509.c ****     {
 492:/home/xingli/share/LiteOS_Lab/network/dtls/mbedtls/mbedtls-2.16.2/library/x509.c ****         if( ( **p < '0') || ( **p > '9' ) )
 1213              		.loc 1 492 16
 1214 0033 488B45E8 		movq	-24(%rbp), %rax
 1215 0037 488B00   		movq	(%rax), %rax
 1216              		.loc 1 492 15
 1217 003a 0FB600   		movzbl	(%rax), %eax
 1218              		.loc 1 492 11
 1219 003d 3C2F     		cmpb	$47, %al
 1220 003f 760E     		jbe	.L86
 1221              		.loc 1 492 32 discriminator 1
 1222 0041 488B45E8 		movq	-24(%rbp), %rax
 1223 0045 488B00   		movq	(%rax), %rax
 1224              		.loc 1 492 31 discriminator 1
 1225 0048 0FB600   		movzbl	(%rax), %eax
 1226              		.loc 1 492 26 discriminator 1
 1227 004b 3C39     		cmpb	$57, %al
 1228 004d 7607     		jbe	.L87
GAS LISTING /tmp/ccL8LWq1.s 			page 34


 1229              	.L86:
 493:/home/xingli/share/LiteOS_Lab/network/dtls/mbedtls/mbedtls-2.16.2/library/x509.c ****             return ( MBEDTLS_ERR_X509_INVALID_DATE );
 1230              		.loc 1 493 20
 1231 004f B800DCFF 		movl	$-9216, %eax
 1231      FF
 1232 0054 EB51     		jmp	.L88
 1233              	.L87:
 494:/home/xingli/share/LiteOS_Lab/network/dtls/mbedtls/mbedtls-2.16.2/library/x509.c **** 
 495:/home/xingli/share/LiteOS_Lab/network/dtls/mbedtls/mbedtls-2.16.2/library/x509.c ****         *res *= 10;
 1234              		.loc 1 495 14
 1235 0056 488B45D8 		movq	-40(%rbp), %rax
 1236 005a 8B10     		movl	(%rax), %edx
 1237 005c 89D0     		movl	%edx, %eax
 1238 005e C1E002   		sall	$2, %eax
 1239 0061 01D0     		addl	%edx, %eax
 1240 0063 01C0     		addl	%eax, %eax
 1241 0065 89C2     		movl	%eax, %edx
 1242 0067 488B45D8 		movq	-40(%rbp), %rax
 1243 006b 8910     		movl	%edx, (%rax)
 496:/home/xingli/share/LiteOS_Lab/network/dtls/mbedtls/mbedtls-2.16.2/library/x509.c ****         *res += ( *(*p)++ - '0' );
 1244              		.loc 1 496 21
 1245 006d 488B45E8 		movq	-24(%rbp), %rax
 1246 0071 488B00   		movq	(%rax), %rax
 1247              		.loc 1 496 24
 1248 0074 488D4801 		leaq	1(%rax), %rcx
 1249 0078 488B55E8 		movq	-24(%rbp), %rdx
 1250 007c 48890A   		movq	%rcx, (%rdx)
 1251              		.loc 1 496 19
 1252 007f 0FB600   		movzbl	(%rax), %eax
 1253 0082 0FB6C0   		movzbl	%al, %eax
 1254              		.loc 1 496 27
 1255 0085 8D50D0   		leal	-48(%rax), %edx
 1256              		.loc 1 496 14
 1257 0088 488B45D8 		movq	-40(%rbp), %rax
 1258 008c 8B00     		movl	(%rax), %eax
 1259 008e 01C2     		addl	%eax, %edx
 1260 0090 488B45D8 		movq	-40(%rbp), %rax
 1261 0094 8910     		movl	%edx, (%rax)
 490:/home/xingli/share/LiteOS_Lab/network/dtls/mbedtls/mbedtls-2.16.2/library/x509.c ****     {
 1262              		.loc 1 490 19
 1263 0096 48836DE0 		subq	$1, -32(%rbp)
 1263      01
 1264              	.L85:
 490:/home/xingli/share/LiteOS_Lab/network/dtls/mbedtls/mbedtls-2.16.2/library/x509.c ****     {
 1265              		.loc 1 490 5 discriminator 1
 1266 009b 48837DE0 		cmpq	$0, -32(%rbp)
 1266      00
 1267 00a0 7591     		jne	.L89
 497:/home/xingli/share/LiteOS_Lab/network/dtls/mbedtls/mbedtls-2.16.2/library/x509.c ****     }
 498:/home/xingli/share/LiteOS_Lab/network/dtls/mbedtls/mbedtls-2.16.2/library/x509.c **** 
 499:/home/xingli/share/LiteOS_Lab/network/dtls/mbedtls/mbedtls-2.16.2/library/x509.c ****     return( 0 );
 1268              		.loc 1 499 11
 1269 00a2 B8000000 		movl	$0, %eax
 1269      00
 1270              	.L88:
 500:/home/xingli/share/LiteOS_Lab/network/dtls/mbedtls/mbedtls-2.16.2/library/x509.c **** }
 1271              		.loc 1 500 1
GAS LISTING /tmp/ccL8LWq1.s 			page 35


 1272 00a7 488B75F8 		movq	-8(%rbp), %rsi
 1273 00ab 64483334 		xorq	%fs:40, %rsi
 1273      25280000 
 1273      00
 1274 00b4 7405     		je	.L90
 1275 00b6 E8000000 		call	__stack_chk_fail@PLT
 1275      00
 1276              	.L90:
 1277 00bb C9       		leave
 1278              	.LCFI23:
 1279              		.cfi_def_cfa 7, 8
 1280 00bc C3       		ret
 1281              		.cfi_endproc
 1282              	.LFE23:
 1284              		.section	.text.x509_date_is_valid,"ax",@progbits
 1286              	x509_date_is_valid:
 1287              	.LFB24:
 501:/home/xingli/share/LiteOS_Lab/network/dtls/mbedtls/mbedtls-2.16.2/library/x509.c **** 
 502:/home/xingli/share/LiteOS_Lab/network/dtls/mbedtls/mbedtls-2.16.2/library/x509.c **** static int x509_date_is_valid(const mbedtls_x509_time *t )
 503:/home/xingli/share/LiteOS_Lab/network/dtls/mbedtls/mbedtls-2.16.2/library/x509.c **** {
 1288              		.loc 1 503 1
 1289              		.cfi_startproc
 1290 0000 F30F1EFA 		endbr64
 1291 0004 55       		pushq	%rbp
 1292              	.LCFI24:
 1293              		.cfi_def_cfa_offset 16
 1294              		.cfi_offset 6, -16
 1295 0005 4889E5   		movq	%rsp, %rbp
 1296              	.LCFI25:
 1297              		.cfi_def_cfa_register 6
 1298 0008 4883EC20 		subq	$32, %rsp
 1299 000c 48897DE8 		movq	%rdi, -24(%rbp)
 1300              		.loc 1 503 1
 1301 0010 64488B04 		movq	%fs:40, %rax
 1301      25280000 
 1301      00
 1302 0019 488945F8 		movq	%rax, -8(%rbp)
 1303 001d 31C0     		xorl	%eax, %eax
 504:/home/xingli/share/LiteOS_Lab/network/dtls/mbedtls/mbedtls-2.16.2/library/x509.c ****     int ret = MBEDTLS_ERR_X509_INVALID_DATE;
 1304              		.loc 1 504 9
 1305 001f C745F400 		movl	$-9216, -12(%rbp)
 1305      DCFFFF
 505:/home/xingli/share/LiteOS_Lab/network/dtls/mbedtls/mbedtls-2.16.2/library/x509.c ****     int month_len;
 506:/home/xingli/share/LiteOS_Lab/network/dtls/mbedtls/mbedtls-2.16.2/library/x509.c **** 
 507:/home/xingli/share/LiteOS_Lab/network/dtls/mbedtls/mbedtls-2.16.2/library/x509.c ****     CHECK_RANGE( 0, 9999, t->year );
 1306              		.loc 1 507 5
 1307 0026 488B45E8 		movq	-24(%rbp), %rax
 1308 002a 8B00     		movl	(%rax), %eax
 1309 002c 85C0     		testl	%eax, %eax
 1310 002e 780D     		js	.L92
 1311              		.loc 1 507 5 is_stmt 0 discriminator 2
 1312 0030 488B45E8 		movq	-24(%rbp), %rax
 1313 0034 8B00     		movl	(%rax), %eax
 1314 0036 3D0F2700 		cmpl	$9999, %eax
 1314      00
 1315 003b 7E08     		jle	.L93
 1316              	.L92:
GAS LISTING /tmp/ccL8LWq1.s 			page 36


 1317              		.loc 1 507 5 discriminator 3
 1318 003d 8B45F4   		movl	-12(%rbp), %eax
 1319 0040 E94A0100 		jmp	.L94
 1319      00
 1320              	.L93:
 508:/home/xingli/share/LiteOS_Lab/network/dtls/mbedtls/mbedtls-2.16.2/library/x509.c ****     CHECK_RANGE( 0, 23,   t->hour );
 1321              		.loc 1 508 5 is_stmt 1
 1322 0045 488B45E8 		movq	-24(%rbp), %rax
 1323 0049 8B400C   		movl	12(%rax), %eax
 1324 004c 85C0     		testl	%eax, %eax
 1325 004e 780C     		js	.L95
 1326              		.loc 1 508 5 is_stmt 0 discriminator 2
 1327 0050 488B45E8 		movq	-24(%rbp), %rax
 1328 0054 8B400C   		movl	12(%rax), %eax
 1329 0057 83F817   		cmpl	$23, %eax
 1330 005a 7E08     		jle	.L96
 1331              	.L95:
 1332              		.loc 1 508 5 discriminator 3
 1333 005c 8B45F4   		movl	-12(%rbp), %eax
 1334 005f E92B0100 		jmp	.L94
 1334      00
 1335              	.L96:
 509:/home/xingli/share/LiteOS_Lab/network/dtls/mbedtls/mbedtls-2.16.2/library/x509.c ****     CHECK_RANGE( 0, 59,   t->min  );
 1336              		.loc 1 509 5 is_stmt 1
 1337 0064 488B45E8 		movq	-24(%rbp), %rax
 1338 0068 8B4010   		movl	16(%rax), %eax
 1339 006b 85C0     		testl	%eax, %eax
 1340 006d 780C     		js	.L97
 1341              		.loc 1 509 5 is_stmt 0 discriminator 2
 1342 006f 488B45E8 		movq	-24(%rbp), %rax
 1343 0073 8B4010   		movl	16(%rax), %eax
 1344 0076 83F83B   		cmpl	$59, %eax
 1345 0079 7E08     		jle	.L98
 1346              	.L97:
 1347              		.loc 1 509 5 discriminator 3
 1348 007b 8B45F4   		movl	-12(%rbp), %eax
 1349 007e E90C0100 		jmp	.L94
 1349      00
 1350              	.L98:
 510:/home/xingli/share/LiteOS_Lab/network/dtls/mbedtls/mbedtls-2.16.2/library/x509.c ****     CHECK_RANGE( 0, 59,   t->sec  );
 1351              		.loc 1 510 5 is_stmt 1
 1352 0083 488B45E8 		movq	-24(%rbp), %rax
 1353 0087 8B4014   		movl	20(%rax), %eax
 1354 008a 85C0     		testl	%eax, %eax
 1355 008c 780C     		js	.L99
 1356              		.loc 1 510 5 is_stmt 0 discriminator 2
 1357 008e 488B45E8 		movq	-24(%rbp), %rax
 1358 0092 8B4014   		movl	20(%rax), %eax
 1359 0095 83F83B   		cmpl	$59, %eax
 1360 0098 7E08     		jle	.L100
 1361              	.L99:
 1362              		.loc 1 510 5 discriminator 3
 1363 009a 8B45F4   		movl	-12(%rbp), %eax
 1364 009d E9ED0000 		jmp	.L94
 1364      00
 1365              	.L100:
 511:/home/xingli/share/LiteOS_Lab/network/dtls/mbedtls/mbedtls-2.16.2/library/x509.c **** 
GAS LISTING /tmp/ccL8LWq1.s 			page 37


 512:/home/xingli/share/LiteOS_Lab/network/dtls/mbedtls/mbedtls-2.16.2/library/x509.c ****     switch( t->mon )
 1366              		.loc 1 512 14 is_stmt 1
 1367 00a2 488B45E8 		movq	-24(%rbp), %rax
 1368 00a6 8B4004   		movl	4(%rax), %eax
 1369 00a9 83F80C   		cmpl	$12, %eax
 1370 00ac 0F87B700 		ja	.L101
 1370      0000
 1371 00b2 89C0     		movl	%eax, %eax
 1372 00b4 488D1485 		leaq	0(,%rax,4), %rdx
 1372      00000000 
 1373 00bc 488D0500 		leaq	.L103(%rip), %rax
 1373      000000
 1374 00c3 8B0402   		movl	(%rdx,%rax), %eax
 1375 00c6 4898     		cltq
 1376 00c8 488D1500 		leaq	.L103(%rip), %rdx
 1376      000000
 1377 00cf 4801D0   		addq	%rdx, %rax
 1378 00d2 3EFFE0   		notrack jmp	*%rax
 1379              		.section	.rodata.x509_date_is_valid,"a",@progbits
 1380              		.align 4
 1381              		.align 4
 1382              	.L103:
 1383 0000 00000000 		.long	.L101-.L103
 1384 0004 00000000 		.long	.L102-.L103
 1385 0008 00000000 		.long	.L105-.L103
 1386 000c 00000000 		.long	.L102-.L103
 1387 0010 00000000 		.long	.L104-.L103
 1388 0014 00000000 		.long	.L102-.L103
 1389 0018 00000000 		.long	.L104-.L103
 1390 001c 00000000 		.long	.L102-.L103
 1391 0020 00000000 		.long	.L102-.L103
 1392 0024 00000000 		.long	.L104-.L103
 1393 0028 00000000 		.long	.L102-.L103
 1394 002c 00000000 		.long	.L104-.L103
 1395 0030 00000000 		.long	.L102-.L103
 1396              		.section	.text.x509_date_is_valid
 1397              	.L102:
 513:/home/xingli/share/LiteOS_Lab/network/dtls/mbedtls/mbedtls-2.16.2/library/x509.c ****     {
 514:/home/xingli/share/LiteOS_Lab/network/dtls/mbedtls/mbedtls-2.16.2/library/x509.c ****         case 1: case 3: case 5: case 7: case 8: case 10: case 12:
 515:/home/xingli/share/LiteOS_Lab/network/dtls/mbedtls/mbedtls-2.16.2/library/x509.c ****             month_len = 31;
 1398              		.loc 1 515 23
 1399 00d5 C745F01F 		movl	$31, -16(%rbp)
 1399      000000
 516:/home/xingli/share/LiteOS_Lab/network/dtls/mbedtls/mbedtls-2.16.2/library/x509.c ****             break;
 1400              		.loc 1 516 13
 1401 00dc E98D0000 		jmp	.L106
 1401      00
 1402              	.L104:
 517:/home/xingli/share/LiteOS_Lab/network/dtls/mbedtls/mbedtls-2.16.2/library/x509.c ****         case 4: case 6: case 9: case 11:
 518:/home/xingli/share/LiteOS_Lab/network/dtls/mbedtls/mbedtls-2.16.2/library/x509.c ****             month_len = 30;
 1403              		.loc 1 518 23
 1404 00e1 C745F01E 		movl	$30, -16(%rbp)
 1404      000000
 519:/home/xingli/share/LiteOS_Lab/network/dtls/mbedtls/mbedtls-2.16.2/library/x509.c ****             break;
 1405              		.loc 1 519 13
 1406 00e8 E9810000 		jmp	.L106
 1406      00
GAS LISTING /tmp/ccL8LWq1.s 			page 38


 1407              	.L105:
 520:/home/xingli/share/LiteOS_Lab/network/dtls/mbedtls/mbedtls-2.16.2/library/x509.c ****         case 2:
 521:/home/xingli/share/LiteOS_Lab/network/dtls/mbedtls/mbedtls-2.16.2/library/x509.c ****             if( ( !( t->year % 4 ) && t->year % 100 ) ||
 1408              		.loc 1 521 23
 1409 00ed 488B45E8 		movq	-24(%rbp), %rax
 1410 00f1 8B00     		movl	(%rax), %eax
 1411              		.loc 1 521 19
 1412 00f3 83E003   		andl	$3, %eax
 1413              		.loc 1 521 15
 1414 00f6 85C0     		testl	%eax, %eax
 1415 00f8 752D     		jne	.L107
 1416              		.loc 1 521 40 discriminator 1
 1417 00fa 488B45E8 		movq	-24(%rbp), %rax
 1418 00fe 8B10     		movl	(%rax), %edx
 1419              		.loc 1 521 47 discriminator 1
 1420 0100 4863C2   		movslq	%edx, %rax
 1421 0103 4869C01F 		imulq	$1374389535, %rax, %rax
 1421      85EB51
 1422 010a 48C1E820 		shrq	$32, %rax
 1423 010e 89C1     		movl	%eax, %ecx
 1424 0110 C1F905   		sarl	$5, %ecx
 1425 0113 89D0     		movl	%edx, %eax
 1426 0115 C1F81F   		sarl	$31, %eax
 1427 0118 29C1     		subl	%eax, %ecx
 1428 011a 89C8     		movl	%ecx, %eax
 1429 011c 6BC064   		imull	$100, %eax, %eax
 1430 011f 29C2     		subl	%eax, %edx
 1431 0121 89D0     		movl	%edx, %eax
 1432              		.loc 1 521 36 discriminator 1
 1433 0123 85C0     		testl	%eax, %eax
 1434 0125 7530     		jne	.L108
 1435              	.L107:
 522:/home/xingli/share/LiteOS_Lab/network/dtls/mbedtls/mbedtls-2.16.2/library/x509.c ****                 !( t->year % 400 ) )
 1436              		.loc 1 522 21 discriminator 3
 1437 0127 488B45E8 		movq	-24(%rbp), %rax
 1438 012b 8B10     		movl	(%rax), %edx
 1439              		.loc 1 522 28 discriminator 3
 1440 012d 4863C2   		movslq	%edx, %rax
 1441 0130 4869C01F 		imulq	$1374389535, %rax, %rax
 1441      85EB51
 1442 0137 48C1E820 		shrq	$32, %rax
 1443 013b 89C1     		movl	%eax, %ecx
 1444 013d C1F907   		sarl	$7, %ecx
 1445 0140 89D0     		movl	%edx, %eax
 1446 0142 C1F81F   		sarl	$31, %eax
 1447 0145 29C1     		subl	%eax, %ecx
 1448 0147 89C8     		movl	%ecx, %eax
 1449 0149 69C09001 		imull	$400, %eax, %eax
 1449      0000
 1450 014f 29C2     		subl	%eax, %edx
 1451 0151 89D0     		movl	%edx, %eax
 521:/home/xingli/share/LiteOS_Lab/network/dtls/mbedtls/mbedtls-2.16.2/library/x509.c ****                 !( t->year % 400 ) )
 1452              		.loc 1 521 55 discriminator 3
 1453 0153 85C0     		testl	%eax, %eax
 1454 0155 7509     		jne	.L109
 1455              	.L108:
 523:/home/xingli/share/LiteOS_Lab/network/dtls/mbedtls/mbedtls-2.16.2/library/x509.c ****                 month_len = 29;
GAS LISTING /tmp/ccL8LWq1.s 			page 39


 1456              		.loc 1 523 27
 1457 0157 C745F01D 		movl	$29, -16(%rbp)
 1457      000000
 524:/home/xingli/share/LiteOS_Lab/network/dtls/mbedtls/mbedtls-2.16.2/library/x509.c ****             else
 525:/home/xingli/share/LiteOS_Lab/network/dtls/mbedtls/mbedtls-2.16.2/library/x509.c ****                 month_len = 28;
 526:/home/xingli/share/LiteOS_Lab/network/dtls/mbedtls/mbedtls-2.16.2/library/x509.c ****             break;
 1458              		.loc 1 526 13
 1459 015e EB0E     		jmp	.L106
 1460              	.L109:
 525:/home/xingli/share/LiteOS_Lab/network/dtls/mbedtls/mbedtls-2.16.2/library/x509.c ****             break;
 1461              		.loc 1 525 27
 1462 0160 C745F01C 		movl	$28, -16(%rbp)
 1462      000000
 1463              		.loc 1 526 13
 1464 0167 EB05     		jmp	.L106
 1465              	.L101:
 527:/home/xingli/share/LiteOS_Lab/network/dtls/mbedtls/mbedtls-2.16.2/library/x509.c ****         default:
 528:/home/xingli/share/LiteOS_Lab/network/dtls/mbedtls/mbedtls-2.16.2/library/x509.c ****             return( ret );
 1466              		.loc 1 528 19
 1467 0169 8B45F4   		movl	-12(%rbp), %eax
 1468 016c EB21     		jmp	.L94
 1469              	.L106:
 529:/home/xingli/share/LiteOS_Lab/network/dtls/mbedtls/mbedtls-2.16.2/library/x509.c ****     }
 530:/home/xingli/share/LiteOS_Lab/network/dtls/mbedtls/mbedtls-2.16.2/library/x509.c ****     CHECK_RANGE( 1, month_len, t->day );
 1470              		.loc 1 530 5
 1471 016e 488B45E8 		movq	-24(%rbp), %rax
 1472 0172 8B4008   		movl	8(%rax), %eax
 1473 0175 85C0     		testl	%eax, %eax
 1474 0177 7E0C     		jle	.L111
 1475              		.loc 1 530 5 is_stmt 0 discriminator 2
 1476 0179 488B45E8 		movq	-24(%rbp), %rax
 1477 017d 8B4008   		movl	8(%rax), %eax
 1478 0180 3945F0   		cmpl	%eax, -16(%rbp)
 1479 0183 7D05     		jge	.L112
 1480              	.L111:
 1481              		.loc 1 530 5 discriminator 3
 1482 0185 8B45F4   		movl	-12(%rbp), %eax
 1483 0188 EB05     		jmp	.L94
 1484              	.L112:
 531:/home/xingli/share/LiteOS_Lab/network/dtls/mbedtls/mbedtls-2.16.2/library/x509.c **** 
 532:/home/xingli/share/LiteOS_Lab/network/dtls/mbedtls/mbedtls-2.16.2/library/x509.c ****     return( 0 );
 1485              		.loc 1 532 11 is_stmt 1
 1486 018a B8000000 		movl	$0, %eax
 1486      00
 1487              	.L94:
 533:/home/xingli/share/LiteOS_Lab/network/dtls/mbedtls/mbedtls-2.16.2/library/x509.c **** }
 1488              		.loc 1 533 1
 1489 018f 488B75F8 		movq	-8(%rbp), %rsi
 1490 0193 64483334 		xorq	%fs:40, %rsi
 1490      25280000 
 1490      00
 1491 019c 7405     		je	.L113
 1492 019e E8000000 		call	__stack_chk_fail@PLT
 1492      00
 1493              	.L113:
 1494 01a3 C9       		leave
 1495              	.LCFI26:
GAS LISTING /tmp/ccL8LWq1.s 			page 40


 1496              		.cfi_def_cfa 7, 8
 1497 01a4 C3       		ret
 1498              		.cfi_endproc
 1499              	.LFE24:
 1501              		.section	.text.x509_parse_time,"ax",@progbits
 1503              	x509_parse_time:
 1504              	.LFB25:
 534:/home/xingli/share/LiteOS_Lab/network/dtls/mbedtls/mbedtls-2.16.2/library/x509.c **** 
 535:/home/xingli/share/LiteOS_Lab/network/dtls/mbedtls/mbedtls-2.16.2/library/x509.c **** /*
 536:/home/xingli/share/LiteOS_Lab/network/dtls/mbedtls/mbedtls-2.16.2/library/x509.c ****  * Parse an ASN1_UTC_TIME (yearlen=2) or ASN1_GENERALIZED_TIME (yearlen=4)
 537:/home/xingli/share/LiteOS_Lab/network/dtls/mbedtls/mbedtls-2.16.2/library/x509.c ****  * field.
 538:/home/xingli/share/LiteOS_Lab/network/dtls/mbedtls/mbedtls-2.16.2/library/x509.c ****  */
 539:/home/xingli/share/LiteOS_Lab/network/dtls/mbedtls/mbedtls-2.16.2/library/x509.c **** static int x509_parse_time( unsigned char **p, size_t len, size_t yearlen,
 540:/home/xingli/share/LiteOS_Lab/network/dtls/mbedtls/mbedtls-2.16.2/library/x509.c ****                             mbedtls_x509_time *tm )
 541:/home/xingli/share/LiteOS_Lab/network/dtls/mbedtls/mbedtls-2.16.2/library/x509.c **** {
 1505              		.loc 1 541 1
 1506              		.cfi_startproc
 1507 0000 F30F1EFA 		endbr64
 1508 0004 55       		pushq	%rbp
 1509              	.LCFI27:
 1510              		.cfi_def_cfa_offset 16
 1511              		.cfi_offset 6, -16
 1512 0005 4889E5   		movq	%rsp, %rbp
 1513              	.LCFI28:
 1514              		.cfi_def_cfa_register 6
 1515 0008 4883EC30 		subq	$48, %rsp
 1516 000c 48897DE8 		movq	%rdi, -24(%rbp)
 1517 0010 488975E0 		movq	%rsi, -32(%rbp)
 1518 0014 488955D8 		movq	%rdx, -40(%rbp)
 1519 0018 48894DD0 		movq	%rcx, -48(%rbp)
 1520              		.loc 1 541 1
 1521 001c 64488B04 		movq	%fs:40, %rax
 1521      25280000 
 1521      00
 1522 0025 488945F8 		movq	%rax, -8(%rbp)
 1523 0029 31C0     		xorl	%eax, %eax
 542:/home/xingli/share/LiteOS_Lab/network/dtls/mbedtls/mbedtls-2.16.2/library/x509.c ****     int ret;
 543:/home/xingli/share/LiteOS_Lab/network/dtls/mbedtls/mbedtls-2.16.2/library/x509.c **** 
 544:/home/xingli/share/LiteOS_Lab/network/dtls/mbedtls/mbedtls-2.16.2/library/x509.c ****     /*
 545:/home/xingli/share/LiteOS_Lab/network/dtls/mbedtls/mbedtls-2.16.2/library/x509.c ****      * Minimum length is 10 or 12 depending on yearlen
 546:/home/xingli/share/LiteOS_Lab/network/dtls/mbedtls/mbedtls-2.16.2/library/x509.c ****      */
 547:/home/xingli/share/LiteOS_Lab/network/dtls/mbedtls/mbedtls-2.16.2/library/x509.c ****     if ( len < yearlen + 8 )
 1524              		.loc 1 547 24
 1525 002b 488B45D8 		movq	-40(%rbp), %rax
 1526 002f 4883C008 		addq	$8, %rax
 1527              		.loc 1 547 8
 1528 0033 483945E0 		cmpq	%rax, -32(%rbp)
 1529 0037 730A     		jnb	.L115
 548:/home/xingli/share/LiteOS_Lab/network/dtls/mbedtls/mbedtls-2.16.2/library/x509.c ****         return ( MBEDTLS_ERR_X509_INVALID_DATE );
 1530              		.loc 1 548 16
 1531 0039 B800DCFF 		movl	$-9216, %eax
 1531      FF
 1532 003e E9A80100 		jmp	.L116
 1532      00
 1533              	.L115:
 549:/home/xingli/share/LiteOS_Lab/network/dtls/mbedtls/mbedtls-2.16.2/library/x509.c ****     len -= yearlen + 8;
 1534              		.loc 1 549 9
GAS LISTING /tmp/ccL8LWq1.s 			page 41


 1535 0043 488B45E0 		movq	-32(%rbp), %rax
 1536 0047 482B45D8 		subq	-40(%rbp), %rax
 1537 004b 4883E808 		subq	$8, %rax
 1538 004f 488945E0 		movq	%rax, -32(%rbp)
 550:/home/xingli/share/LiteOS_Lab/network/dtls/mbedtls/mbedtls-2.16.2/library/x509.c **** 
 551:/home/xingli/share/LiteOS_Lab/network/dtls/mbedtls/mbedtls-2.16.2/library/x509.c ****     /*
 552:/home/xingli/share/LiteOS_Lab/network/dtls/mbedtls/mbedtls-2.16.2/library/x509.c ****      * Parse year, month, day, hour, minute
 553:/home/xingli/share/LiteOS_Lab/network/dtls/mbedtls/mbedtls-2.16.2/library/x509.c ****      */
 554:/home/xingli/share/LiteOS_Lab/network/dtls/mbedtls/mbedtls-2.16.2/library/x509.c ****     CHECK( x509_parse_int( p, yearlen, &tm->year ) );
 1539              		.loc 1 554 5
 1540 0053 488B55D0 		movq	-48(%rbp), %rdx
 1541 0057 488B4DD8 		movq	-40(%rbp), %rcx
 1542 005b 488B45E8 		movq	-24(%rbp), %rax
 1543 005f 4889CE   		movq	%rcx, %rsi
 1544 0062 4889C7   		movq	%rax, %rdi
 1545 0065 E8000000 		call	x509_parse_int
 1545      00
 1546 006a 8945F4   		movl	%eax, -12(%rbp)
 1547 006d 837DF400 		cmpl	$0, -12(%rbp)
 1548 0071 7408     		je	.L117
 1549              		.loc 1 554 5 is_stmt 0 discriminator 1
 1550 0073 8B45F4   		movl	-12(%rbp), %eax
 1551 0076 E9700100 		jmp	.L116
 1551      00
 1552              	.L117:
 555:/home/xingli/share/LiteOS_Lab/network/dtls/mbedtls/mbedtls-2.16.2/library/x509.c ****     if ( 2 == yearlen )
 1553              		.loc 1 555 8 is_stmt 1
 1554 007b 48837DD8 		cmpq	$2, -40(%rbp)
 1554      02
 1555 0080 752C     		jne	.L118
 556:/home/xingli/share/LiteOS_Lab/network/dtls/mbedtls/mbedtls-2.16.2/library/x509.c ****     {
 557:/home/xingli/share/LiteOS_Lab/network/dtls/mbedtls/mbedtls-2.16.2/library/x509.c ****         if ( tm->year < 50 )
 1556              		.loc 1 557 16
 1557 0082 488B45D0 		movq	-48(%rbp), %rax
 1558 0086 8B00     		movl	(%rax), %eax
 1559              		.loc 1 557 12
 1560 0088 83F831   		cmpl	$49, %eax
 1561 008b 7F0F     		jg	.L119
 558:/home/xingli/share/LiteOS_Lab/network/dtls/mbedtls/mbedtls-2.16.2/library/x509.c ****             tm->year += 100;
 1562              		.loc 1 558 22
 1563 008d 488B45D0 		movq	-48(%rbp), %rax
 1564 0091 8B00     		movl	(%rax), %eax
 1565 0093 8D5064   		leal	100(%rax), %edx
 1566 0096 488B45D0 		movq	-48(%rbp), %rax
 1567 009a 8910     		movl	%edx, (%rax)
 1568              	.L119:
 559:/home/xingli/share/LiteOS_Lab/network/dtls/mbedtls/mbedtls-2.16.2/library/x509.c **** 
 560:/home/xingli/share/LiteOS_Lab/network/dtls/mbedtls/mbedtls-2.16.2/library/x509.c ****         tm->year += 1900;
 1569              		.loc 1 560 18
 1570 009c 488B45D0 		movq	-48(%rbp), %rax
 1571 00a0 8B00     		movl	(%rax), %eax
 1572 00a2 8D906C07 		leal	1900(%rax), %edx
 1572      0000
 1573 00a8 488B45D0 		movq	-48(%rbp), %rax
 1574 00ac 8910     		movl	%edx, (%rax)
 1575              	.L118:
 561:/home/xingli/share/LiteOS_Lab/network/dtls/mbedtls/mbedtls-2.16.2/library/x509.c ****     }
GAS LISTING /tmp/ccL8LWq1.s 			page 42


 562:/home/xingli/share/LiteOS_Lab/network/dtls/mbedtls/mbedtls-2.16.2/library/x509.c **** 
 563:/home/xingli/share/LiteOS_Lab/network/dtls/mbedtls/mbedtls-2.16.2/library/x509.c ****     CHECK( x509_parse_int( p, 2, &tm->mon ) );
 1576              		.loc 1 563 5
 1577 00ae 488B45D0 		movq	-48(%rbp), %rax
 1578 00b2 488D5004 		leaq	4(%rax), %rdx
 1579 00b6 488B45E8 		movq	-24(%rbp), %rax
 1580 00ba BE020000 		movl	$2, %esi
 1580      00
 1581 00bf 4889C7   		movq	%rax, %rdi
 1582 00c2 E8000000 		call	x509_parse_int
 1582      00
 1583 00c7 8945F4   		movl	%eax, -12(%rbp)
 1584 00ca 837DF400 		cmpl	$0, -12(%rbp)
 1585 00ce 7408     		je	.L120
 1586              		.loc 1 563 5 is_stmt 0 discriminator 1
 1587 00d0 8B45F4   		movl	-12(%rbp), %eax
 1588 00d3 E9130100 		jmp	.L116
 1588      00
 1589              	.L120:
 564:/home/xingli/share/LiteOS_Lab/network/dtls/mbedtls/mbedtls-2.16.2/library/x509.c ****     CHECK( x509_parse_int( p, 2, &tm->day ) );
 1590              		.loc 1 564 5 is_stmt 1
 1591 00d8 488B45D0 		movq	-48(%rbp), %rax
 1592 00dc 488D5008 		leaq	8(%rax), %rdx
 1593 00e0 488B45E8 		movq	-24(%rbp), %rax
 1594 00e4 BE020000 		movl	$2, %esi
 1594      00
 1595 00e9 4889C7   		movq	%rax, %rdi
 1596 00ec E8000000 		call	x509_parse_int
 1596      00
 1597 00f1 8945F4   		movl	%eax, -12(%rbp)
 1598 00f4 837DF400 		cmpl	$0, -12(%rbp)
 1599 00f8 7408     		je	.L121
 1600              		.loc 1 564 5 is_stmt 0 discriminator 1
 1601 00fa 8B45F4   		movl	-12(%rbp), %eax
 1602 00fd E9E90000 		jmp	.L116
 1602      00
 1603              	.L121:
 565:/home/xingli/share/LiteOS_Lab/network/dtls/mbedtls/mbedtls-2.16.2/library/x509.c ****     CHECK( x509_parse_int( p, 2, &tm->hour ) );
 1604              		.loc 1 565 5 is_stmt 1
 1605 0102 488B45D0 		movq	-48(%rbp), %rax
 1606 0106 488D500C 		leaq	12(%rax), %rdx
 1607 010a 488B45E8 		movq	-24(%rbp), %rax
 1608 010e BE020000 		movl	$2, %esi
 1608      00
 1609 0113 4889C7   		movq	%rax, %rdi
 1610 0116 E8000000 		call	x509_parse_int
 1610      00
 1611 011b 8945F4   		movl	%eax, -12(%rbp)
 1612 011e 837DF400 		cmpl	$0, -12(%rbp)
 1613 0122 7408     		je	.L122
 1614              		.loc 1 565 5 is_stmt 0 discriminator 1
 1615 0124 8B45F4   		movl	-12(%rbp), %eax
 1616 0127 E9BF0000 		jmp	.L116
 1616      00
 1617              	.L122:
 566:/home/xingli/share/LiteOS_Lab/network/dtls/mbedtls/mbedtls-2.16.2/library/x509.c ****     CHECK( x509_parse_int( p, 2, &tm->min ) );
 1618              		.loc 1 566 5 is_stmt 1
GAS LISTING /tmp/ccL8LWq1.s 			page 43


 1619 012c 488B45D0 		movq	-48(%rbp), %rax
 1620 0130 488D5010 		leaq	16(%rax), %rdx
 1621 0134 488B45E8 		movq	-24(%rbp), %rax
 1622 0138 BE020000 		movl	$2, %esi
 1622      00
 1623 013d 4889C7   		movq	%rax, %rdi
 1624 0140 E8000000 		call	x509_parse_int
 1624      00
 1625 0145 8945F4   		movl	%eax, -12(%rbp)
 1626 0148 837DF400 		cmpl	$0, -12(%rbp)
 1627 014c 7408     		je	.L123
 1628              		.loc 1 566 5 is_stmt 0 discriminator 1
 1629 014e 8B45F4   		movl	-12(%rbp), %eax
 1630 0151 E9950000 		jmp	.L116
 1630      00
 1631              	.L123:
 567:/home/xingli/share/LiteOS_Lab/network/dtls/mbedtls/mbedtls-2.16.2/library/x509.c **** 
 568:/home/xingli/share/LiteOS_Lab/network/dtls/mbedtls/mbedtls-2.16.2/library/x509.c ****     /*
 569:/home/xingli/share/LiteOS_Lab/network/dtls/mbedtls/mbedtls-2.16.2/library/x509.c ****      * Parse seconds if present
 570:/home/xingli/share/LiteOS_Lab/network/dtls/mbedtls/mbedtls-2.16.2/library/x509.c ****      */
 571:/home/xingli/share/LiteOS_Lab/network/dtls/mbedtls/mbedtls-2.16.2/library/x509.c ****     if ( len >= 2 )
 1632              		.loc 1 571 8 is_stmt 1
 1633 0156 48837DE0 		cmpq	$1, -32(%rbp)
 1633      01
 1634 015b 7635     		jbe	.L124
 572:/home/xingli/share/LiteOS_Lab/network/dtls/mbedtls/mbedtls-2.16.2/library/x509.c ****     {
 573:/home/xingli/share/LiteOS_Lab/network/dtls/mbedtls/mbedtls-2.16.2/library/x509.c ****         CHECK( x509_parse_int( p, 2, &tm->sec ) );
 1635              		.loc 1 573 9
 1636 015d 488B45D0 		movq	-48(%rbp), %rax
 1637 0161 488D5014 		leaq	20(%rax), %rdx
 1638 0165 488B45E8 		movq	-24(%rbp), %rax
 1639 0169 BE020000 		movl	$2, %esi
 1639      00
 1640 016e 4889C7   		movq	%rax, %rdi
 1641 0171 E8000000 		call	x509_parse_int
 1641      00
 1642 0176 8945F4   		movl	%eax, -12(%rbp)
 1643 0179 837DF400 		cmpl	$0, -12(%rbp)
 1644 017d 7405     		je	.L125
 1645              		.loc 1 573 9 is_stmt 0 discriminator 1
 1646 017f 8B45F4   		movl	-12(%rbp), %eax
 1647 0182 EB67     		jmp	.L116
 1648              	.L125:
 574:/home/xingli/share/LiteOS_Lab/network/dtls/mbedtls/mbedtls-2.16.2/library/x509.c ****         len -= 2;
 1649              		.loc 1 574 13 is_stmt 1
 1650 0184 48836DE0 		subq	$2, -32(%rbp)
 1650      02
 575:/home/xingli/share/LiteOS_Lab/network/dtls/mbedtls/mbedtls-2.16.2/library/x509.c ****     }
 576:/home/xingli/share/LiteOS_Lab/network/dtls/mbedtls/mbedtls-2.16.2/library/x509.c ****     else
 577:/home/xingli/share/LiteOS_Lab/network/dtls/mbedtls/mbedtls-2.16.2/library/x509.c ****         return ( MBEDTLS_ERR_X509_INVALID_DATE );
 578:/home/xingli/share/LiteOS_Lab/network/dtls/mbedtls/mbedtls-2.16.2/library/x509.c **** 
 579:/home/xingli/share/LiteOS_Lab/network/dtls/mbedtls/mbedtls-2.16.2/library/x509.c ****     /*
 580:/home/xingli/share/LiteOS_Lab/network/dtls/mbedtls/mbedtls-2.16.2/library/x509.c ****      * Parse trailing 'Z' if present
 581:/home/xingli/share/LiteOS_Lab/network/dtls/mbedtls/mbedtls-2.16.2/library/x509.c ****      */
 582:/home/xingli/share/LiteOS_Lab/network/dtls/mbedtls/mbedtls-2.16.2/library/x509.c ****     if ( 1 == len && 'Z' == **p )
 1651              		.loc 1 582 8
 1652 0189 48837DE0 		cmpq	$1, -32(%rbp)
GAS LISTING /tmp/ccL8LWq1.s 			page 44


 1652      01
 1653 018e 752E     		jne	.L127
 1654 0190 EB07     		jmp	.L131
 1655              	.L124:
 577:/home/xingli/share/LiteOS_Lab/network/dtls/mbedtls/mbedtls-2.16.2/library/x509.c **** 
 1656              		.loc 1 577 16
 1657 0192 B800DCFF 		movl	$-9216, %eax
 1657      FF
 1658 0197 EB52     		jmp	.L116
 1659              	.L131:
 1660              		.loc 1 582 30 discriminator 1
 1661 0199 488B45E8 		movq	-24(%rbp), %rax
 1662 019d 488B00   		movq	(%rax), %rax
 1663              		.loc 1 582 29 discriminator 1
 1664 01a0 0FB600   		movzbl	(%rax), %eax
 1665              		.loc 1 582 19 discriminator 1
 1666 01a3 3C5A     		cmpb	$90, %al
 1667 01a5 7517     		jne	.L127
 583:/home/xingli/share/LiteOS_Lab/network/dtls/mbedtls/mbedtls-2.16.2/library/x509.c ****     {
 584:/home/xingli/share/LiteOS_Lab/network/dtls/mbedtls/mbedtls-2.16.2/library/x509.c ****         (*p)++;
 1668              		.loc 1 584 10
 1669 01a7 488B45E8 		movq	-24(%rbp), %rax
 1670 01ab 488B00   		movq	(%rax), %rax
 1671              		.loc 1 584 13
 1672 01ae 488D5001 		leaq	1(%rax), %rdx
 1673 01b2 488B45E8 		movq	-24(%rbp), %rax
 1674 01b6 488910   		movq	%rdx, (%rax)
 585:/home/xingli/share/LiteOS_Lab/network/dtls/mbedtls/mbedtls-2.16.2/library/x509.c ****         len--;
 1675              		.loc 1 585 12
 1676 01b9 48836DE0 		subq	$1, -32(%rbp)
 1676      01
 1677              	.L127:
 586:/home/xingli/share/LiteOS_Lab/network/dtls/mbedtls/mbedtls-2.16.2/library/x509.c ****     }
 587:/home/xingli/share/LiteOS_Lab/network/dtls/mbedtls/mbedtls-2.16.2/library/x509.c **** 
 588:/home/xingli/share/LiteOS_Lab/network/dtls/mbedtls/mbedtls-2.16.2/library/x509.c ****     /*
 589:/home/xingli/share/LiteOS_Lab/network/dtls/mbedtls/mbedtls-2.16.2/library/x509.c ****      * We should have parsed all characters at this point
 590:/home/xingli/share/LiteOS_Lab/network/dtls/mbedtls/mbedtls-2.16.2/library/x509.c ****      */
 591:/home/xingli/share/LiteOS_Lab/network/dtls/mbedtls/mbedtls-2.16.2/library/x509.c ****     if ( 0 != len )
 1678              		.loc 1 591 8
 1679 01be 48837DE0 		cmpq	$0, -32(%rbp)
 1679      00
 1680 01c3 7407     		je	.L128
 592:/home/xingli/share/LiteOS_Lab/network/dtls/mbedtls/mbedtls-2.16.2/library/x509.c ****         return ( MBEDTLS_ERR_X509_INVALID_DATE );
 1681              		.loc 1 592 16
 1682 01c5 B800DCFF 		movl	$-9216, %eax
 1682      FF
 1683 01ca EB1F     		jmp	.L116
 1684              	.L128:
 593:/home/xingli/share/LiteOS_Lab/network/dtls/mbedtls/mbedtls-2.16.2/library/x509.c **** 
 594:/home/xingli/share/LiteOS_Lab/network/dtls/mbedtls/mbedtls-2.16.2/library/x509.c ****     CHECK( x509_date_is_valid( tm ) );
 1685              		.loc 1 594 5
 1686 01cc 488B45D0 		movq	-48(%rbp), %rax
 1687 01d0 4889C7   		movq	%rax, %rdi
 1688 01d3 E8000000 		call	x509_date_is_valid
 1688      00
 1689 01d8 8945F4   		movl	%eax, -12(%rbp)
 1690 01db 837DF400 		cmpl	$0, -12(%rbp)
GAS LISTING /tmp/ccL8LWq1.s 			page 45


 1691 01df 7405     		je	.L129
 1692              		.loc 1 594 5 is_stmt 0 discriminator 1
 1693 01e1 8B45F4   		movl	-12(%rbp), %eax
 1694 01e4 EB05     		jmp	.L116
 1695              	.L129:
 595:/home/xingli/share/LiteOS_Lab/network/dtls/mbedtls/mbedtls-2.16.2/library/x509.c **** 
 596:/home/xingli/share/LiteOS_Lab/network/dtls/mbedtls/mbedtls-2.16.2/library/x509.c ****     return ( 0 );
 1696              		.loc 1 596 12 is_stmt 1
 1697 01e6 B8000000 		movl	$0, %eax
 1697      00
 1698              	.L116:
 597:/home/xingli/share/LiteOS_Lab/network/dtls/mbedtls/mbedtls-2.16.2/library/x509.c **** }
 1699              		.loc 1 597 1
 1700 01eb 488B4DF8 		movq	-8(%rbp), %rcx
 1701 01ef 6448330C 		xorq	%fs:40, %rcx
 1701      25280000 
 1701      00
 1702 01f8 7405     		je	.L130
 1703 01fa E8000000 		call	__stack_chk_fail@PLT
 1703      00
 1704              	.L130:
 1705 01ff C9       		leave
 1706              	.LCFI29:
 1707              		.cfi_def_cfa 7, 8
 1708 0200 C3       		ret
 1709              		.cfi_endproc
 1710              	.LFE25:
 1712              		.section	.text.mbedtls_x509_get_time,"ax",@progbits
 1713              		.globl	mbedtls_x509_get_time
 1715              	mbedtls_x509_get_time:
 1716              	.LFB26:
 598:/home/xingli/share/LiteOS_Lab/network/dtls/mbedtls/mbedtls-2.16.2/library/x509.c **** 
 599:/home/xingli/share/LiteOS_Lab/network/dtls/mbedtls/mbedtls-2.16.2/library/x509.c **** /*
 600:/home/xingli/share/LiteOS_Lab/network/dtls/mbedtls/mbedtls-2.16.2/library/x509.c ****  *  Time ::= CHOICE {
 601:/home/xingli/share/LiteOS_Lab/network/dtls/mbedtls/mbedtls-2.16.2/library/x509.c ****  *       utcTime        UTCTime,
 602:/home/xingli/share/LiteOS_Lab/network/dtls/mbedtls/mbedtls-2.16.2/library/x509.c ****  *       generalTime    GeneralizedTime }
 603:/home/xingli/share/LiteOS_Lab/network/dtls/mbedtls/mbedtls-2.16.2/library/x509.c ****  */
 604:/home/xingli/share/LiteOS_Lab/network/dtls/mbedtls/mbedtls-2.16.2/library/x509.c **** int mbedtls_x509_get_time( unsigned char **p, const unsigned char *end,
 605:/home/xingli/share/LiteOS_Lab/network/dtls/mbedtls/mbedtls-2.16.2/library/x509.c ****                            mbedtls_x509_time *tm )
 606:/home/xingli/share/LiteOS_Lab/network/dtls/mbedtls/mbedtls-2.16.2/library/x509.c **** {
 1717              		.loc 1 606 1
 1718              		.cfi_startproc
 1719 0000 F30F1EFA 		endbr64
 1720 0004 55       		pushq	%rbp
 1721              	.LCFI30:
 1722              		.cfi_def_cfa_offset 16
 1723              		.cfi_offset 6, -16
 1724 0005 4889E5   		movq	%rsp, %rbp
 1725              	.LCFI31:
 1726              		.cfi_def_cfa_register 6
 1727 0008 4883EC40 		subq	$64, %rsp
 1728 000c 48897DD8 		movq	%rdi, -40(%rbp)
 1729 0010 488975D0 		movq	%rsi, -48(%rbp)
 1730 0014 488955C8 		movq	%rdx, -56(%rbp)
 1731              		.loc 1 606 1
 1732 0018 64488B04 		movq	%fs:40, %rax
 1732      25280000 
GAS LISTING /tmp/ccL8LWq1.s 			page 46


 1732      00
 1733 0021 488945F8 		movq	%rax, -8(%rbp)
 1734 0025 31C0     		xorl	%eax, %eax
 607:/home/xingli/share/LiteOS_Lab/network/dtls/mbedtls/mbedtls-2.16.2/library/x509.c ****     int ret;
 608:/home/xingli/share/LiteOS_Lab/network/dtls/mbedtls/mbedtls-2.16.2/library/x509.c ****     size_t len, year_len;
 609:/home/xingli/share/LiteOS_Lab/network/dtls/mbedtls/mbedtls-2.16.2/library/x509.c ****     unsigned char tag;
 610:/home/xingli/share/LiteOS_Lab/network/dtls/mbedtls/mbedtls-2.16.2/library/x509.c **** 
 611:/home/xingli/share/LiteOS_Lab/network/dtls/mbedtls/mbedtls-2.16.2/library/x509.c ****     if( ( end - *p ) < 1 )
 1735              		.loc 1 611 17
 1736 0027 488B45D8 		movq	-40(%rbp), %rax
 1737 002b 488B00   		movq	(%rax), %rax
 1738              		.loc 1 611 15
 1739 002e 488B55D0 		movq	-48(%rbp), %rdx
 1740 0032 4829C2   		subq	%rax, %rdx
 1741 0035 4889D0   		movq	%rdx, %rax
 1742              		.loc 1 611 7
 1743 0038 4885C0   		testq	%rax, %rax
 1744 003b 7F0A     		jg	.L133
 612:/home/xingli/share/LiteOS_Lab/network/dtls/mbedtls/mbedtls-2.16.2/library/x509.c ****         return( MBEDTLS_ERR_X509_INVALID_DATE +
 1745              		.loc 1 612 15
 1746 003d B8A0DBFF 		movl	$-9312, %eax
 1746      FF
 1747 0042 E9880000 		jmp	.L139
 1747      00
 1748              	.L133:
 613:/home/xingli/share/LiteOS_Lab/network/dtls/mbedtls/mbedtls-2.16.2/library/x509.c ****                 MBEDTLS_ERR_ASN1_OUT_OF_DATA );
 614:/home/xingli/share/LiteOS_Lab/network/dtls/mbedtls/mbedtls-2.16.2/library/x509.c **** 
 615:/home/xingli/share/LiteOS_Lab/network/dtls/mbedtls/mbedtls-2.16.2/library/x509.c ****     tag = **p;
 1749              		.loc 1 615 12
 1750 0047 488B45D8 		movq	-40(%rbp), %rax
 1751 004b 488B00   		movq	(%rax), %rax
 1752              		.loc 1 615 9
 1753 004e 0FB600   		movzbl	(%rax), %eax
 1754 0051 8845E3   		movb	%al, -29(%rbp)
 616:/home/xingli/share/LiteOS_Lab/network/dtls/mbedtls/mbedtls-2.16.2/library/x509.c **** 
 617:/home/xingli/share/LiteOS_Lab/network/dtls/mbedtls/mbedtls-2.16.2/library/x509.c ****     if( tag == MBEDTLS_ASN1_UTC_TIME )
 1755              		.loc 1 617 7
 1756 0054 807DE317 		cmpb	$23, -29(%rbp)
 1757 0058 750A     		jne	.L135
 618:/home/xingli/share/LiteOS_Lab/network/dtls/mbedtls/mbedtls-2.16.2/library/x509.c ****         year_len = 2;
 1758              		.loc 1 618 18
 1759 005a 48C745F0 		movq	$2, -16(%rbp)
 1759      02000000 
 1760 0062 EB17     		jmp	.L136
 1761              	.L135:
 619:/home/xingli/share/LiteOS_Lab/network/dtls/mbedtls/mbedtls-2.16.2/library/x509.c ****     else if( tag == MBEDTLS_ASN1_GENERALIZED_TIME )
 1762              		.loc 1 619 12
 1763 0064 807DE318 		cmpb	$24, -29(%rbp)
 1764 0068 750A     		jne	.L137
 620:/home/xingli/share/LiteOS_Lab/network/dtls/mbedtls/mbedtls-2.16.2/library/x509.c ****         year_len = 4;
 1765              		.loc 1 620 18
 1766 006a 48C745F0 		movq	$4, -16(%rbp)
 1766      04000000 
 1767 0072 EB07     		jmp	.L136
 1768              	.L137:
 621:/home/xingli/share/LiteOS_Lab/network/dtls/mbedtls/mbedtls-2.16.2/library/x509.c ****     else
 622:/home/xingli/share/LiteOS_Lab/network/dtls/mbedtls/mbedtls-2.16.2/library/x509.c ****         return( MBEDTLS_ERR_X509_INVALID_DATE +
GAS LISTING /tmp/ccL8LWq1.s 			page 47


 1769              		.loc 1 622 15
 1770 0074 B89EDBFF 		movl	$-9314, %eax
 1770      FF
 1771 0079 EB54     		jmp	.L139
 1772              	.L136:
 623:/home/xingli/share/LiteOS_Lab/network/dtls/mbedtls/mbedtls-2.16.2/library/x509.c ****                 MBEDTLS_ERR_ASN1_UNEXPECTED_TAG );
 624:/home/xingli/share/LiteOS_Lab/network/dtls/mbedtls/mbedtls-2.16.2/library/x509.c **** 
 625:/home/xingli/share/LiteOS_Lab/network/dtls/mbedtls/mbedtls-2.16.2/library/x509.c ****     (*p)++;
 1773              		.loc 1 625 6
 1774 007b 488B45D8 		movq	-40(%rbp), %rax
 1775 007f 488B00   		movq	(%rax), %rax
 1776              		.loc 1 625 9
 1777 0082 488D5001 		leaq	1(%rax), %rdx
 1778 0086 488B45D8 		movq	-40(%rbp), %rax
 1779 008a 488910   		movq	%rdx, (%rax)
 626:/home/xingli/share/LiteOS_Lab/network/dtls/mbedtls/mbedtls-2.16.2/library/x509.c ****     ret = mbedtls_asn1_get_len( p, end, &len );
 1780              		.loc 1 626 11
 1781 008d 488D55E8 		leaq	-24(%rbp), %rdx
 1782 0091 488B4DD0 		movq	-48(%rbp), %rcx
 1783 0095 488B45D8 		movq	-40(%rbp), %rax
 1784 0099 4889CE   		movq	%rcx, %rsi
 1785 009c 4889C7   		movq	%rax, %rdi
 1786 009f E8000000 		call	mbedtls_asn1_get_len@PLT
 1786      00
 1787 00a4 8945E4   		movl	%eax, -28(%rbp)
 627:/home/xingli/share/LiteOS_Lab/network/dtls/mbedtls/mbedtls-2.16.2/library/x509.c **** 
 628:/home/xingli/share/LiteOS_Lab/network/dtls/mbedtls/mbedtls-2.16.2/library/x509.c ****     if( ret != 0 )
 1788              		.loc 1 628 7
 1789 00a7 837DE400 		cmpl	$0, -28(%rbp)
 1790 00ab 740A     		je	.L138
 629:/home/xingli/share/LiteOS_Lab/network/dtls/mbedtls/mbedtls-2.16.2/library/x509.c ****         return( MBEDTLS_ERR_X509_INVALID_DATE + ret );
 1791              		.loc 1 629 47
 1792 00ad 8B45E4   		movl	-28(%rbp), %eax
 1793 00b0 2D002400 		subl	$9216, %eax
 1793      00
 1794 00b5 EB18     		jmp	.L139
 1795              	.L138:
 630:/home/xingli/share/LiteOS_Lab/network/dtls/mbedtls/mbedtls-2.16.2/library/x509.c **** 
 631:/home/xingli/share/LiteOS_Lab/network/dtls/mbedtls/mbedtls-2.16.2/library/x509.c ****     return x509_parse_time( p, len, year_len, tm );
 1796              		.loc 1 631 12
 1797 00b7 488B75E8 		movq	-24(%rbp), %rsi
 1798 00bb 488B4DC8 		movq	-56(%rbp), %rcx
 1799 00bf 488B55F0 		movq	-16(%rbp), %rdx
 1800 00c3 488B45D8 		movq	-40(%rbp), %rax
 1801 00c7 4889C7   		movq	%rax, %rdi
 1802 00ca E8000000 		call	x509_parse_time
 1802      00
 1803              	.L139:
 632:/home/xingli/share/LiteOS_Lab/network/dtls/mbedtls/mbedtls-2.16.2/library/x509.c **** }
 1804              		.loc 1 632 1 discriminator 1
 1805 00cf 488B7DF8 		movq	-8(%rbp), %rdi
 1806 00d3 6448333C 		xorq	%fs:40, %rdi
 1806      25280000 
 1806      00
 1807 00dc 7405     		je	.L140
 1808              		.loc 1 632 1 is_stmt 0
 1809 00de E8000000 		call	__stack_chk_fail@PLT
GAS LISTING /tmp/ccL8LWq1.s 			page 48


 1809      00
 1810              	.L140:
 1811 00e3 C9       		leave
 1812              	.LCFI32:
 1813              		.cfi_def_cfa 7, 8
 1814 00e4 C3       		ret
 1815              		.cfi_endproc
 1816              	.LFE26:
 1818              		.section	.text.mbedtls_x509_get_sig,"ax",@progbits
 1819              		.globl	mbedtls_x509_get_sig
 1821              	mbedtls_x509_get_sig:
 1822              	.LFB27:
 633:/home/xingli/share/LiteOS_Lab/network/dtls/mbedtls/mbedtls-2.16.2/library/x509.c **** 
 634:/home/xingli/share/LiteOS_Lab/network/dtls/mbedtls/mbedtls-2.16.2/library/x509.c **** int mbedtls_x509_get_sig( unsigned char **p, const unsigned char *end, mbedtls_x509_buf *sig )
 635:/home/xingli/share/LiteOS_Lab/network/dtls/mbedtls/mbedtls-2.16.2/library/x509.c **** {
 1823              		.loc 1 635 1 is_stmt 1
 1824              		.cfi_startproc
 1825 0000 F30F1EFA 		endbr64
 1826 0004 55       		pushq	%rbp
 1827              	.LCFI33:
 1828              		.cfi_def_cfa_offset 16
 1829              		.cfi_offset 6, -16
 1830 0005 4889E5   		movq	%rsp, %rbp
 1831              	.LCFI34:
 1832              		.cfi_def_cfa_register 6
 1833 0008 4883EC40 		subq	$64, %rsp
 1834 000c 48897DD8 		movq	%rdi, -40(%rbp)
 1835 0010 488975D0 		movq	%rsi, -48(%rbp)
 1836 0014 488955C8 		movq	%rdx, -56(%rbp)
 1837              		.loc 1 635 1
 1838 0018 64488B04 		movq	%fs:40, %rax
 1838      25280000 
 1838      00
 1839 0021 488945F8 		movq	%rax, -8(%rbp)
 1840 0025 31C0     		xorl	%eax, %eax
 636:/home/xingli/share/LiteOS_Lab/network/dtls/mbedtls/mbedtls-2.16.2/library/x509.c ****     int ret;
 637:/home/xingli/share/LiteOS_Lab/network/dtls/mbedtls/mbedtls-2.16.2/library/x509.c ****     size_t len;
 638:/home/xingli/share/LiteOS_Lab/network/dtls/mbedtls/mbedtls-2.16.2/library/x509.c ****     int tag_type;
 639:/home/xingli/share/LiteOS_Lab/network/dtls/mbedtls/mbedtls-2.16.2/library/x509.c **** 
 640:/home/xingli/share/LiteOS_Lab/network/dtls/mbedtls/mbedtls-2.16.2/library/x509.c ****     if( ( end - *p ) < 1 )
 1841              		.loc 1 640 17
 1842 0027 488B45D8 		movq	-40(%rbp), %rax
 1843 002b 488B00   		movq	(%rax), %rax
 1844              		.loc 1 640 15
 1845 002e 488B55D0 		movq	-48(%rbp), %rdx
 1846 0032 4829C2   		subq	%rax, %rdx
 1847 0035 4889D0   		movq	%rdx, %rax
 1848              		.loc 1 640 7
 1849 0038 4885C0   		testq	%rax, %rax
 1850 003b 7F07     		jg	.L142
 641:/home/xingli/share/LiteOS_Lab/network/dtls/mbedtls/mbedtls-2.16.2/library/x509.c ****         return( MBEDTLS_ERR_X509_INVALID_SIGNATURE +
 1851              		.loc 1 641 15
 1852 003d B820DBFF 		movl	$-9440, %eax
 1852      FF
 1853 0042 EB78     		jmp	.L145
 1854              	.L142:
 642:/home/xingli/share/LiteOS_Lab/network/dtls/mbedtls/mbedtls-2.16.2/library/x509.c ****                 MBEDTLS_ERR_ASN1_OUT_OF_DATA );
GAS LISTING /tmp/ccL8LWq1.s 			page 49


 643:/home/xingli/share/LiteOS_Lab/network/dtls/mbedtls/mbedtls-2.16.2/library/x509.c **** 
 644:/home/xingli/share/LiteOS_Lab/network/dtls/mbedtls/mbedtls-2.16.2/library/x509.c ****     tag_type = **p;
 1855              		.loc 1 644 17
 1856 0044 488B45D8 		movq	-40(%rbp), %rax
 1857 0048 488B00   		movq	(%rax), %rax
 1858              		.loc 1 644 16
 1859 004b 0FB600   		movzbl	(%rax), %eax
 1860              		.loc 1 644 14
 1861 004e 0FB6C0   		movzbl	%al, %eax
 1862 0051 8945E8   		movl	%eax, -24(%rbp)
 645:/home/xingli/share/LiteOS_Lab/network/dtls/mbedtls/mbedtls-2.16.2/library/x509.c **** 
 646:/home/xingli/share/LiteOS_Lab/network/dtls/mbedtls/mbedtls-2.16.2/library/x509.c ****     if( ( ret = mbedtls_asn1_get_bitstring_null( p, end, &len ) ) != 0 )
 1863              		.loc 1 646 17
 1864 0054 488D55F0 		leaq	-16(%rbp), %rdx
 1865 0058 488B4DD0 		movq	-48(%rbp), %rcx
 1866 005c 488B45D8 		movq	-40(%rbp), %rax
 1867 0060 4889CE   		movq	%rcx, %rsi
 1868 0063 4889C7   		movq	%rax, %rdi
 1869 0066 E8000000 		call	mbedtls_asn1_get_bitstring_null@PLT
 1869      00
 1870 006b 8945EC   		movl	%eax, -20(%rbp)
 1871              		.loc 1 646 7
 1872 006e 837DEC00 		cmpl	$0, -20(%rbp)
 1873 0072 740A     		je	.L144
 647:/home/xingli/share/LiteOS_Lab/network/dtls/mbedtls/mbedtls-2.16.2/library/x509.c ****         return( MBEDTLS_ERR_X509_INVALID_SIGNATURE + ret );
 1874              		.loc 1 647 52
 1875 0074 8B45EC   		movl	-20(%rbp), %eax
 1876 0077 2D802400 		subl	$9344, %eax
 1876      00
 1877 007c EB3E     		jmp	.L145
 1878              	.L144:
 648:/home/xingli/share/LiteOS_Lab/network/dtls/mbedtls/mbedtls-2.16.2/library/x509.c **** 
 649:/home/xingli/share/LiteOS_Lab/network/dtls/mbedtls/mbedtls-2.16.2/library/x509.c ****     sig->tag = tag_type;
 1879              		.loc 1 649 14
 1880 007e 488B45C8 		movq	-56(%rbp), %rax
 1881 0082 8B55E8   		movl	-24(%rbp), %edx
 1882 0085 8910     		movl	%edx, (%rax)
 650:/home/xingli/share/LiteOS_Lab/network/dtls/mbedtls/mbedtls-2.16.2/library/x509.c ****     sig->len = len;
 1883              		.loc 1 650 14
 1884 0087 488B55F0 		movq	-16(%rbp), %rdx
 1885 008b 488B45C8 		movq	-56(%rbp), %rax
 1886 008f 48895008 		movq	%rdx, 8(%rax)
 651:/home/xingli/share/LiteOS_Lab/network/dtls/mbedtls/mbedtls-2.16.2/library/x509.c ****     sig->p = *p;
 1887              		.loc 1 651 14
 1888 0093 488B45D8 		movq	-40(%rbp), %rax
 1889 0097 488B10   		movq	(%rax), %rdx
 1890              		.loc 1 651 12
 1891 009a 488B45C8 		movq	-56(%rbp), %rax
 1892 009e 48895010 		movq	%rdx, 16(%rax)
 652:/home/xingli/share/LiteOS_Lab/network/dtls/mbedtls/mbedtls-2.16.2/library/x509.c **** 
 653:/home/xingli/share/LiteOS_Lab/network/dtls/mbedtls/mbedtls-2.16.2/library/x509.c ****     *p += len;
 1893              		.loc 1 653 8
 1894 00a2 488B45D8 		movq	-40(%rbp), %rax
 1895 00a6 488B10   		movq	(%rax), %rdx
 1896 00a9 488B45F0 		movq	-16(%rbp), %rax
 1897 00ad 4801C2   		addq	%rax, %rdx
 1898 00b0 488B45D8 		movq	-40(%rbp), %rax
GAS LISTING /tmp/ccL8LWq1.s 			page 50


 1899 00b4 488910   		movq	%rdx, (%rax)
 654:/home/xingli/share/LiteOS_Lab/network/dtls/mbedtls/mbedtls-2.16.2/library/x509.c **** 
 655:/home/xingli/share/LiteOS_Lab/network/dtls/mbedtls/mbedtls-2.16.2/library/x509.c ****     return( 0 );
 1900              		.loc 1 655 11
 1901 00b7 B8000000 		movl	$0, %eax
 1901      00
 1902              	.L145:
 656:/home/xingli/share/LiteOS_Lab/network/dtls/mbedtls/mbedtls-2.16.2/library/x509.c **** }
 1903              		.loc 1 656 1 discriminator 1
 1904 00bc 488B4DF8 		movq	-8(%rbp), %rcx
 1905 00c0 6448330C 		xorq	%fs:40, %rcx
 1905      25280000 
 1905      00
 1906 00c9 7405     		je	.L146
 1907              		.loc 1 656 1 is_stmt 0
 1908 00cb E8000000 		call	__stack_chk_fail@PLT
 1908      00
 1909              	.L146:
 1910 00d0 C9       		leave
 1911              	.LCFI35:
 1912              		.cfi_def_cfa 7, 8
 1913 00d1 C3       		ret
 1914              		.cfi_endproc
 1915              	.LFE27:
 1917              		.section	.text.mbedtls_x509_get_sig_alg,"ax",@progbits
 1918              		.globl	mbedtls_x509_get_sig_alg
 1920              	mbedtls_x509_get_sig_alg:
 1921              	.LFB28:
 657:/home/xingli/share/LiteOS_Lab/network/dtls/mbedtls/mbedtls-2.16.2/library/x509.c **** 
 658:/home/xingli/share/LiteOS_Lab/network/dtls/mbedtls/mbedtls-2.16.2/library/x509.c **** /*
 659:/home/xingli/share/LiteOS_Lab/network/dtls/mbedtls/mbedtls-2.16.2/library/x509.c ****  * Get signature algorithm from alg OID and optional parameters
 660:/home/xingli/share/LiteOS_Lab/network/dtls/mbedtls/mbedtls-2.16.2/library/x509.c ****  */
 661:/home/xingli/share/LiteOS_Lab/network/dtls/mbedtls/mbedtls-2.16.2/library/x509.c **** int mbedtls_x509_get_sig_alg( const mbedtls_x509_buf *sig_oid, const mbedtls_x509_buf *sig_params,
 662:/home/xingli/share/LiteOS_Lab/network/dtls/mbedtls/mbedtls-2.16.2/library/x509.c ****                       mbedtls_md_type_t *md_alg, mbedtls_pk_type_t *pk_alg,
 663:/home/xingli/share/LiteOS_Lab/network/dtls/mbedtls/mbedtls-2.16.2/library/x509.c ****                       void **sig_opts )
 664:/home/xingli/share/LiteOS_Lab/network/dtls/mbedtls/mbedtls-2.16.2/library/x509.c **** {
 1922              		.loc 1 664 1 is_stmt 1
 1923              		.cfi_startproc
 1924 0000 F30F1EFA 		endbr64
 1925 0004 55       		pushq	%rbp
 1926              	.LCFI36:
 1927              		.cfi_def_cfa_offset 16
 1928              		.cfi_offset 6, -16
 1929 0005 4889E5   		movq	%rsp, %rbp
 1930              	.LCFI37:
 1931              		.cfi_def_cfa_register 6
 1932 0008 4883EC50 		subq	$80, %rsp
 1933 000c 48897DD8 		movq	%rdi, -40(%rbp)
 1934 0010 488975D0 		movq	%rsi, -48(%rbp)
 1935 0014 488955C8 		movq	%rdx, -56(%rbp)
 1936 0018 48894DC0 		movq	%rcx, -64(%rbp)
 1937 001c 4C8945B8 		movq	%r8, -72(%rbp)
 1938              		.loc 1 664 1
 1939 0020 64488B04 		movq	%fs:40, %rax
 1939      25280000 
 1939      00
 1940 0029 488945F8 		movq	%rax, -8(%rbp)
GAS LISTING /tmp/ccL8LWq1.s 			page 51


 1941 002d 31C0     		xorl	%eax, %eax
 665:/home/xingli/share/LiteOS_Lab/network/dtls/mbedtls/mbedtls-2.16.2/library/x509.c ****     int ret;
 666:/home/xingli/share/LiteOS_Lab/network/dtls/mbedtls/mbedtls-2.16.2/library/x509.c **** 
 667:/home/xingli/share/LiteOS_Lab/network/dtls/mbedtls/mbedtls-2.16.2/library/x509.c ****     if( *sig_opts != NULL )
 1942              		.loc 1 667 9
 1943 002f 488B45B8 		movq	-72(%rbp), %rax
 1944 0033 488B00   		movq	(%rax), %rax
 1945              		.loc 1 667 7
 1946 0036 4885C0   		testq	%rax, %rax
 1947 0039 740A     		je	.L148
 668:/home/xingli/share/LiteOS_Lab/network/dtls/mbedtls/mbedtls-2.16.2/library/x509.c ****         return( MBEDTLS_ERR_X509_BAD_INPUT_DATA );
 1948              		.loc 1 668 15
 1949 003b B800D8FF 		movl	$-10240, %eax
 1949      FF
 1950 0040 E9CA0000 		jmp	.L149
 1950      00
 1951              	.L148:
 669:/home/xingli/share/LiteOS_Lab/network/dtls/mbedtls/mbedtls-2.16.2/library/x509.c **** 
 670:/home/xingli/share/LiteOS_Lab/network/dtls/mbedtls/mbedtls-2.16.2/library/x509.c ****     if( ( ret = mbedtls_oid_get_sig_alg( sig_oid, md_alg, pk_alg ) ) != 0 )
 1952              		.loc 1 670 17
 1953 0045 488B55C0 		movq	-64(%rbp), %rdx
 1954 0049 488B4DC8 		movq	-56(%rbp), %rcx
 1955 004d 488B45D8 		movq	-40(%rbp), %rax
 1956 0051 4889CE   		movq	%rcx, %rsi
 1957 0054 4889C7   		movq	%rax, %rdi
 1958 0057 E8000000 		call	mbedtls_oid_get_sig_alg@PLT
 1958      00
 1959 005c 8945EC   		movl	%eax, -20(%rbp)
 1960              		.loc 1 670 7
 1961 005f 837DEC00 		cmpl	$0, -20(%rbp)
 1962 0063 740D     		je	.L150
 671:/home/xingli/share/LiteOS_Lab/network/dtls/mbedtls/mbedtls-2.16.2/library/x509.c ****         return( MBEDTLS_ERR_X509_UNKNOWN_SIG_ALG + ret );
 1963              		.loc 1 671 50
 1964 0065 8B45EC   		movl	-20(%rbp), %eax
 1965 0068 2D002600 		subl	$9728, %eax
 1965      00
 1966 006d E99D0000 		jmp	.L149
 1966      00
 1967              	.L150:
 672:/home/xingli/share/LiteOS_Lab/network/dtls/mbedtls/mbedtls-2.16.2/library/x509.c **** 
 673:/home/xingli/share/LiteOS_Lab/network/dtls/mbedtls/mbedtls-2.16.2/library/x509.c **** #if defined(MBEDTLS_X509_RSASSA_PSS_SUPPORT)
 674:/home/xingli/share/LiteOS_Lab/network/dtls/mbedtls/mbedtls-2.16.2/library/x509.c ****     if( *pk_alg == MBEDTLS_PK_RSASSA_PSS )
 1968              		.loc 1 674 9
 1969 0072 488B45C0 		movq	-64(%rbp), %rax
 1970 0076 8B00     		movl	(%rax), %eax
 1971              		.loc 1 674 7
 1972 0078 83F806   		cmpl	$6, %eax
 1973 007b 7564     		jne	.L151
 1974              	.LBB3:
 675:/home/xingli/share/LiteOS_Lab/network/dtls/mbedtls/mbedtls-2.16.2/library/x509.c ****     {
 676:/home/xingli/share/LiteOS_Lab/network/dtls/mbedtls/mbedtls-2.16.2/library/x509.c ****         mbedtls_pk_rsassa_pss_options *pss_opts;
 677:/home/xingli/share/LiteOS_Lab/network/dtls/mbedtls/mbedtls-2.16.2/library/x509.c **** 
 678:/home/xingli/share/LiteOS_Lab/network/dtls/mbedtls/mbedtls-2.16.2/library/x509.c ****         pss_opts = mbedtls_calloc( 1, sizeof( mbedtls_pk_rsassa_pss_options ) );
 1975              		.loc 1 678 20
 1976 007d BE080000 		movl	$8, %esi
 1976      00
 1977 0082 BF010000 		movl	$1, %edi
GAS LISTING /tmp/ccL8LWq1.s 			page 52


 1977      00
 1978 0087 E8000000 		call	mbedtls_calloc@PLT
 1978      00
 1979 008c 488945F0 		movq	%rax, -16(%rbp)
 679:/home/xingli/share/LiteOS_Lab/network/dtls/mbedtls/mbedtls-2.16.2/library/x509.c ****         if( pss_opts == NULL )
 1980              		.loc 1 679 11
 1981 0090 48837DF0 		cmpq	$0, -16(%rbp)
 1981      00
 1982 0095 7507     		jne	.L152
 680:/home/xingli/share/LiteOS_Lab/network/dtls/mbedtls/mbedtls-2.16.2/library/x509.c ****             return( MBEDTLS_ERR_X509_ALLOC_FAILED );
 1983              		.loc 1 680 19
 1984 0097 B880D7FF 		movl	$-10368, %eax
 1984      FF
 1985 009c EB71     		jmp	.L149
 1986              	.L152:
 681:/home/xingli/share/LiteOS_Lab/network/dtls/mbedtls/mbedtls-2.16.2/library/x509.c **** 
 682:/home/xingli/share/LiteOS_Lab/network/dtls/mbedtls/mbedtls-2.16.2/library/x509.c ****         ret = mbedtls_x509_get_rsassa_pss_params( sig_params,
 1987              		.loc 1 682 15
 1988 009e 488B45F0 		movq	-16(%rbp), %rax
 1989 00a2 488D4804 		leaq	4(%rax), %rcx
 1990 00a6 488B55F0 		movq	-16(%rbp), %rdx
 1991 00aa 488B75C8 		movq	-56(%rbp), %rsi
 1992 00ae 488B45D0 		movq	-48(%rbp), %rax
 1993 00b2 4889C7   		movq	%rax, %rdi
 1994 00b5 E8000000 		call	mbedtls_x509_get_rsassa_pss_params
 1994      00
 1995 00ba 8945EC   		movl	%eax, -20(%rbp)
 683:/home/xingli/share/LiteOS_Lab/network/dtls/mbedtls/mbedtls-2.16.2/library/x509.c ****                                           md_alg,
 684:/home/xingli/share/LiteOS_Lab/network/dtls/mbedtls/mbedtls-2.16.2/library/x509.c ****                                           &pss_opts->mgf1_hash_id,
 685:/home/xingli/share/LiteOS_Lab/network/dtls/mbedtls/mbedtls-2.16.2/library/x509.c ****                                           &pss_opts->expected_salt_len );
 686:/home/xingli/share/LiteOS_Lab/network/dtls/mbedtls/mbedtls-2.16.2/library/x509.c ****         if( ret != 0 )
 1996              		.loc 1 686 11
 1997 00bd 837DEC00 		cmpl	$0, -20(%rbp)
 1998 00c1 7411     		je	.L153
 687:/home/xingli/share/LiteOS_Lab/network/dtls/mbedtls/mbedtls-2.16.2/library/x509.c ****         {
 688:/home/xingli/share/LiteOS_Lab/network/dtls/mbedtls/mbedtls-2.16.2/library/x509.c ****             mbedtls_free( pss_opts );
 1999              		.loc 1 688 13
 2000 00c3 488B45F0 		movq	-16(%rbp), %rax
 2001 00c7 4889C7   		movq	%rax, %rdi
 2002 00ca E8000000 		call	mbedtls_free@PLT
 2002      00
 689:/home/xingli/share/LiteOS_Lab/network/dtls/mbedtls/mbedtls-2.16.2/library/x509.c ****             return( ret );
 2003              		.loc 1 689 19
 2004 00cf 8B45EC   		movl	-20(%rbp), %eax
 2005 00d2 EB3B     		jmp	.L149
 2006              	.L153:
 690:/home/xingli/share/LiteOS_Lab/network/dtls/mbedtls/mbedtls-2.16.2/library/x509.c ****         }
 691:/home/xingli/share/LiteOS_Lab/network/dtls/mbedtls/mbedtls-2.16.2/library/x509.c **** 
 692:/home/xingli/share/LiteOS_Lab/network/dtls/mbedtls/mbedtls-2.16.2/library/x509.c ****         *sig_opts = (void *) pss_opts;
 2007              		.loc 1 692 19
 2008 00d4 488B45B8 		movq	-72(%rbp), %rax
 2009 00d8 488B55F0 		movq	-16(%rbp), %rdx
 2010 00dc 488910   		movq	%rdx, (%rax)
 2011              	.LBE3:
 2012 00df EB29     		jmp	.L154
 2013              	.L151:
 693:/home/xingli/share/LiteOS_Lab/network/dtls/mbedtls/mbedtls-2.16.2/library/x509.c ****     }
GAS LISTING /tmp/ccL8LWq1.s 			page 53


 694:/home/xingli/share/LiteOS_Lab/network/dtls/mbedtls/mbedtls-2.16.2/library/x509.c ****     else
 695:/home/xingli/share/LiteOS_Lab/network/dtls/mbedtls/mbedtls-2.16.2/library/x509.c **** #endif /* MBEDTLS_X509_RSASSA_PSS_SUPPORT */
 696:/home/xingli/share/LiteOS_Lab/network/dtls/mbedtls/mbedtls-2.16.2/library/x509.c ****     {
 697:/home/xingli/share/LiteOS_Lab/network/dtls/mbedtls/mbedtls-2.16.2/library/x509.c ****         /* Make sure parameters are absent or NULL */
 698:/home/xingli/share/LiteOS_Lab/network/dtls/mbedtls/mbedtls-2.16.2/library/x509.c ****         if( ( sig_params->tag != MBEDTLS_ASN1_NULL && sig_params->tag != 0 ) ||
 2014              		.loc 1 698 25
 2015 00e1 488B45D0 		movq	-48(%rbp), %rax
 2016 00e5 8B00     		movl	(%rax), %eax
 2017              		.loc 1 698 11
 2018 00e7 83F805   		cmpl	$5, %eax
 2019 00ea 740A     		je	.L155
 2020              		.loc 1 698 65 discriminator 1
 2021 00ec 488B45D0 		movq	-48(%rbp), %rax
 2022 00f0 8B00     		movl	(%rax), %eax
 2023              		.loc 1 698 52 discriminator 1
 2024 00f2 85C0     		testl	%eax, %eax
 2025 00f4 750D     		jne	.L156
 2026              	.L155:
 699:/home/xingli/share/LiteOS_Lab/network/dtls/mbedtls/mbedtls-2.16.2/library/x509.c ****               sig_params->len != 0 )
 2027              		.loc 1 699 25 discriminator 3
 2028 00f6 488B45D0 		movq	-48(%rbp), %rax
 2029 00fa 488B4008 		movq	8(%rax), %rax
 698:/home/xingli/share/LiteOS_Lab/network/dtls/mbedtls/mbedtls-2.16.2/library/x509.c ****               sig_params->len != 0 )
 2030              		.loc 1 698 78 discriminator 3
 2031 00fe 4885C0   		testq	%rax, %rax
 2032 0101 7407     		je	.L154
 2033              	.L156:
 700:/home/xingli/share/LiteOS_Lab/network/dtls/mbedtls/mbedtls-2.16.2/library/x509.c ****         return( MBEDTLS_ERR_X509_INVALID_ALG );
 2034              		.loc 1 700 15
 2035 0103 B800DDFF 		movl	$-8960, %eax
 2035      FF
 2036 0108 EB05     		jmp	.L149
 2037              	.L154:
 701:/home/xingli/share/LiteOS_Lab/network/dtls/mbedtls/mbedtls-2.16.2/library/x509.c ****     }
 702:/home/xingli/share/LiteOS_Lab/network/dtls/mbedtls/mbedtls-2.16.2/library/x509.c **** 
 703:/home/xingli/share/LiteOS_Lab/network/dtls/mbedtls/mbedtls-2.16.2/library/x509.c ****     return( 0 );
 2038              		.loc 1 703 11
 2039 010a B8000000 		movl	$0, %eax
 2039      00
 2040              	.L149:
 704:/home/xingli/share/LiteOS_Lab/network/dtls/mbedtls/mbedtls-2.16.2/library/x509.c **** }
 2041              		.loc 1 704 1
 2042 010f 488B7DF8 		movq	-8(%rbp), %rdi
 2043 0113 6448333C 		xorq	%fs:40, %rdi
 2043      25280000 
 2043      00
 2044 011c 7405     		je	.L157
 2045 011e E8000000 		call	__stack_chk_fail@PLT
 2045      00
 2046              	.L157:
 2047 0123 C9       		leave
 2048              	.LCFI38:
 2049              		.cfi_def_cfa 7, 8
 2050 0124 C3       		ret
 2051              		.cfi_endproc
 2052              	.LFE28:
 2054              		.section	.text.mbedtls_x509_get_ext,"ax",@progbits
GAS LISTING /tmp/ccL8LWq1.s 			page 54


 2055              		.globl	mbedtls_x509_get_ext
 2057              	mbedtls_x509_get_ext:
 2058              	.LFB29:
 705:/home/xingli/share/LiteOS_Lab/network/dtls/mbedtls/mbedtls-2.16.2/library/x509.c **** 
 706:/home/xingli/share/LiteOS_Lab/network/dtls/mbedtls/mbedtls-2.16.2/library/x509.c **** /*
 707:/home/xingli/share/LiteOS_Lab/network/dtls/mbedtls/mbedtls-2.16.2/library/x509.c ****  * X.509 Extensions (No parsing of extensions, pointer should
 708:/home/xingli/share/LiteOS_Lab/network/dtls/mbedtls/mbedtls-2.16.2/library/x509.c ****  * be either manually updated or extensions should be parsed!)
 709:/home/xingli/share/LiteOS_Lab/network/dtls/mbedtls/mbedtls-2.16.2/library/x509.c ****  */
 710:/home/xingli/share/LiteOS_Lab/network/dtls/mbedtls/mbedtls-2.16.2/library/x509.c **** int mbedtls_x509_get_ext( unsigned char **p, const unsigned char *end,
 711:/home/xingli/share/LiteOS_Lab/network/dtls/mbedtls/mbedtls-2.16.2/library/x509.c ****                           mbedtls_x509_buf *ext, int tag )
 712:/home/xingli/share/LiteOS_Lab/network/dtls/mbedtls/mbedtls-2.16.2/library/x509.c **** {
 2059              		.loc 1 712 1
 2060              		.cfi_startproc
 2061 0000 F30F1EFA 		endbr64
 2062 0004 55       		pushq	%rbp
 2063              	.LCFI39:
 2064              		.cfi_def_cfa_offset 16
 2065              		.cfi_offset 6, -16
 2066 0005 4889E5   		movq	%rsp, %rbp
 2067              	.LCFI40:
 2068              		.cfi_def_cfa_register 6
 2069 0008 4883EC40 		subq	$64, %rsp
 2070 000c 48897DD8 		movq	%rdi, -40(%rbp)
 2071 0010 488975D0 		movq	%rsi, -48(%rbp)
 2072 0014 488955C8 		movq	%rdx, -56(%rbp)
 2073 0018 894DC4   		movl	%ecx, -60(%rbp)
 2074              		.loc 1 712 1
 2075 001b 64488B04 		movq	%fs:40, %rax
 2075      25280000 
 2075      00
 2076 0024 488945F8 		movq	%rax, -8(%rbp)
 2077 0028 31C0     		xorl	%eax, %eax
 713:/home/xingli/share/LiteOS_Lab/network/dtls/mbedtls/mbedtls-2.16.2/library/x509.c ****     int ret;
 714:/home/xingli/share/LiteOS_Lab/network/dtls/mbedtls/mbedtls-2.16.2/library/x509.c ****     size_t len;
 715:/home/xingli/share/LiteOS_Lab/network/dtls/mbedtls/mbedtls-2.16.2/library/x509.c **** 
 716:/home/xingli/share/LiteOS_Lab/network/dtls/mbedtls/mbedtls-2.16.2/library/x509.c ****     /* Extension structure use EXPLICIT tagging. That is, the actual
 717:/home/xingli/share/LiteOS_Lab/network/dtls/mbedtls/mbedtls-2.16.2/library/x509.c ****      * `Extensions` structure is wrapped by a tag-length pair using
 718:/home/xingli/share/LiteOS_Lab/network/dtls/mbedtls/mbedtls-2.16.2/library/x509.c ****      * the respective context-specific tag. */
 719:/home/xingli/share/LiteOS_Lab/network/dtls/mbedtls/mbedtls-2.16.2/library/x509.c ****     ret = mbedtls_asn1_get_tag( p, end, &ext->len,
 2078              		.loc 1 719 11
 2079 002a 8B45C4   		movl	-60(%rbp), %eax
 2080 002d 0CA0     		orb	$-96, %al
 2081 002f 89C1     		movl	%eax, %ecx
 2082 0031 488B45C8 		movq	-56(%rbp), %rax
 2083 0035 488D5008 		leaq	8(%rax), %rdx
 2084 0039 488B75D0 		movq	-48(%rbp), %rsi
 2085 003d 488B45D8 		movq	-40(%rbp), %rax
 2086 0041 4889C7   		movq	%rax, %rdi
 2087 0044 E8000000 		call	mbedtls_asn1_get_tag@PLT
 2087      00
 2088 0049 8945EC   		movl	%eax, -20(%rbp)
 720:/home/xingli/share/LiteOS_Lab/network/dtls/mbedtls/mbedtls-2.16.2/library/x509.c ****               MBEDTLS_ASN1_CONTEXT_SPECIFIC | MBEDTLS_ASN1_CONSTRUCTED | tag );
 721:/home/xingli/share/LiteOS_Lab/network/dtls/mbedtls/mbedtls-2.16.2/library/x509.c ****     if( ret != 0 )
 2089              		.loc 1 721 7
 2090 004c 837DEC00 		cmpl	$0, -20(%rbp)
 2091 0050 740A     		je	.L159
 722:/home/xingli/share/LiteOS_Lab/network/dtls/mbedtls/mbedtls-2.16.2/library/x509.c ****         return( MBEDTLS_ERR_X509_INVALID_EXTENSIONS + ret );
GAS LISTING /tmp/ccL8LWq1.s 			page 55


 2092              		.loc 1 722 53
 2093 0052 8B45EC   		movl	-20(%rbp), %eax
 2094 0055 2D002500 		subl	$9472, %eax
 2094      00
 2095 005a EB7E     		jmp	.L163
 2096              	.L159:
 723:/home/xingli/share/LiteOS_Lab/network/dtls/mbedtls/mbedtls-2.16.2/library/x509.c **** 
 724:/home/xingli/share/LiteOS_Lab/network/dtls/mbedtls/mbedtls-2.16.2/library/x509.c ****     ext->tag = MBEDTLS_ASN1_CONTEXT_SPECIFIC | MBEDTLS_ASN1_CONSTRUCTED | tag;
 2097              		.loc 1 724 73
 2098 005c 8B45C4   		movl	-60(%rbp), %eax
 2099 005f 0CA0     		orb	$-96, %al
 2100 0061 89C2     		movl	%eax, %edx
 2101              		.loc 1 724 14
 2102 0063 488B45C8 		movq	-56(%rbp), %rax
 2103 0067 8910     		movl	%edx, (%rax)
 725:/home/xingli/share/LiteOS_Lab/network/dtls/mbedtls/mbedtls-2.16.2/library/x509.c ****     ext->p   = *p;
 2104              		.loc 1 725 16
 2105 0069 488B45D8 		movq	-40(%rbp), %rax
 2106 006d 488B10   		movq	(%rax), %rdx
 2107              		.loc 1 725 14
 2108 0070 488B45C8 		movq	-56(%rbp), %rax
 2109 0074 48895010 		movq	%rdx, 16(%rax)
 726:/home/xingli/share/LiteOS_Lab/network/dtls/mbedtls/mbedtls-2.16.2/library/x509.c ****     end      = *p + ext->len;
 2110              		.loc 1 726 16
 2111 0078 488B45D8 		movq	-40(%rbp), %rax
 2112 007c 488B10   		movq	(%rax), %rdx
 2113              		.loc 1 726 24
 2114 007f 488B45C8 		movq	-56(%rbp), %rax
 2115 0083 488B4008 		movq	8(%rax), %rax
 2116              		.loc 1 726 14
 2117 0087 4801D0   		addq	%rdx, %rax
 2118 008a 488945D0 		movq	%rax, -48(%rbp)
 727:/home/xingli/share/LiteOS_Lab/network/dtls/mbedtls/mbedtls-2.16.2/library/x509.c **** 
 728:/home/xingli/share/LiteOS_Lab/network/dtls/mbedtls/mbedtls-2.16.2/library/x509.c ****     /*
 729:/home/xingli/share/LiteOS_Lab/network/dtls/mbedtls/mbedtls-2.16.2/library/x509.c ****      * Extensions  ::=  SEQUENCE SIZE (1..MAX) OF Extension
 730:/home/xingli/share/LiteOS_Lab/network/dtls/mbedtls/mbedtls-2.16.2/library/x509.c ****      */
 731:/home/xingli/share/LiteOS_Lab/network/dtls/mbedtls/mbedtls-2.16.2/library/x509.c ****     if( ( ret = mbedtls_asn1_get_tag( p, end, &len,
 2119              		.loc 1 731 17
 2120 008e 488D55F0 		leaq	-16(%rbp), %rdx
 2121 0092 488B75D0 		movq	-48(%rbp), %rsi
 2122 0096 488B45D8 		movq	-40(%rbp), %rax
 2123 009a B9300000 		movl	$48, %ecx
 2123      00
 2124 009f 4889C7   		movq	%rax, %rdi
 2125 00a2 E8000000 		call	mbedtls_asn1_get_tag@PLT
 2125      00
 2126 00a7 8945EC   		movl	%eax, -20(%rbp)
 2127              		.loc 1 731 7
 2128 00aa 837DEC00 		cmpl	$0, -20(%rbp)
 2129 00ae 740A     		je	.L161
 732:/home/xingli/share/LiteOS_Lab/network/dtls/mbedtls/mbedtls-2.16.2/library/x509.c ****             MBEDTLS_ASN1_CONSTRUCTED | MBEDTLS_ASN1_SEQUENCE ) ) != 0 )
 733:/home/xingli/share/LiteOS_Lab/network/dtls/mbedtls/mbedtls-2.16.2/library/x509.c ****         return( MBEDTLS_ERR_X509_INVALID_EXTENSIONS + ret );
 2130              		.loc 1 733 53
 2131 00b0 8B45EC   		movl	-20(%rbp), %eax
 2132 00b3 2D002500 		subl	$9472, %eax
 2132      00
 2133 00b8 EB20     		jmp	.L163
GAS LISTING /tmp/ccL8LWq1.s 			page 56


 2134              	.L161:
 734:/home/xingli/share/LiteOS_Lab/network/dtls/mbedtls/mbedtls-2.16.2/library/x509.c **** 
 735:/home/xingli/share/LiteOS_Lab/network/dtls/mbedtls/mbedtls-2.16.2/library/x509.c ****     if( end != *p + len )
 2135              		.loc 1 735 16
 2136 00ba 488B45D8 		movq	-40(%rbp), %rax
 2137 00be 488B10   		movq	(%rax), %rdx
 2138              		.loc 1 735 19
 2139 00c1 488B45F0 		movq	-16(%rbp), %rax
 2140 00c5 4801D0   		addq	%rdx, %rax
 2141              		.loc 1 735 7
 2142 00c8 483945D0 		cmpq	%rax, -48(%rbp)
 2143 00cc 7407     		je	.L162
 736:/home/xingli/share/LiteOS_Lab/network/dtls/mbedtls/mbedtls-2.16.2/library/x509.c ****         return( MBEDTLS_ERR_X509_INVALID_EXTENSIONS +
 2144              		.loc 1 736 15
 2145 00ce B89ADAFF 		movl	$-9574, %eax
 2145      FF
 2146 00d3 EB05     		jmp	.L163
 2147              	.L162:
 737:/home/xingli/share/LiteOS_Lab/network/dtls/mbedtls/mbedtls-2.16.2/library/x509.c ****                 MBEDTLS_ERR_ASN1_LENGTH_MISMATCH );
 738:/home/xingli/share/LiteOS_Lab/network/dtls/mbedtls/mbedtls-2.16.2/library/x509.c **** 
 739:/home/xingli/share/LiteOS_Lab/network/dtls/mbedtls/mbedtls-2.16.2/library/x509.c ****     return( 0 );
 2148              		.loc 1 739 11
 2149 00d5 B8000000 		movl	$0, %eax
 2149      00
 2150              	.L163:
 740:/home/xingli/share/LiteOS_Lab/network/dtls/mbedtls/mbedtls-2.16.2/library/x509.c **** }
 2151              		.loc 1 740 1 discriminator 1
 2152 00da 488B7DF8 		movq	-8(%rbp), %rdi
 2153 00de 6448333C 		xorq	%fs:40, %rdi
 2153      25280000 
 2153      00
 2154 00e7 7405     		je	.L164
 2155              		.loc 1 740 1 is_stmt 0
 2156 00e9 E8000000 		call	__stack_chk_fail@PLT
 2156      00
 2157              	.L164:
 2158 00ee C9       		leave
 2159              	.LCFI41:
 2160              		.cfi_def_cfa 7, 8
 2161 00ef C3       		ret
 2162              		.cfi_endproc
 2163              	.LFE29:
 2165              		.section	.rodata
 2166              	.LC1:
 2167 000a 202B2000 		.string	" + "
 2168              	.LC2:
 2169 000e 2C2000   		.string	", "
 2170              	.LC3:
 2171 0011 25733D00 		.string	"%s="
 2172              	.LC4:
 2173 0015 3F3F3D00 		.string	"??="
 2174              	.LC5:
 2175 0019 257300   		.string	"%s"
 2176              		.section	.text.mbedtls_x509_dn_gets,"ax",@progbits
 2177              		.globl	mbedtls_x509_dn_gets
 2179              	mbedtls_x509_dn_gets:
 2180              	.LFB30:
GAS LISTING /tmp/ccL8LWq1.s 			page 57


 741:/home/xingli/share/LiteOS_Lab/network/dtls/mbedtls/mbedtls-2.16.2/library/x509.c **** 
 742:/home/xingli/share/LiteOS_Lab/network/dtls/mbedtls/mbedtls-2.16.2/library/x509.c **** /*
 743:/home/xingli/share/LiteOS_Lab/network/dtls/mbedtls/mbedtls-2.16.2/library/x509.c ****  * Store the name in printable form into buf; no more
 744:/home/xingli/share/LiteOS_Lab/network/dtls/mbedtls/mbedtls-2.16.2/library/x509.c ****  * than size characters will be written
 745:/home/xingli/share/LiteOS_Lab/network/dtls/mbedtls/mbedtls-2.16.2/library/x509.c ****  */
 746:/home/xingli/share/LiteOS_Lab/network/dtls/mbedtls/mbedtls-2.16.2/library/x509.c **** int mbedtls_x509_dn_gets( char *buf, size_t size, const mbedtls_x509_name *dn )
 747:/home/xingli/share/LiteOS_Lab/network/dtls/mbedtls/mbedtls-2.16.2/library/x509.c **** {
 2181              		.loc 1 747 1 is_stmt 1
 2182              		.cfi_startproc
 2183 0000 F30F1EFA 		endbr64
 2184 0004 55       		pushq	%rbp
 2185              	.LCFI42:
 2186              		.cfi_def_cfa_offset 16
 2187              		.cfi_offset 6, -16
 2188 0005 4889E5   		movq	%rsp, %rbp
 2189              	.LCFI43:
 2190              		.cfi_def_cfa_register 6
 2191 0008 4881EC60 		subq	$352, %rsp
 2191      010000
 2192 000f 4889BDB8 		movq	%rdi, -328(%rbp)
 2192      FEFFFF
 2193 0016 4889B5B0 		movq	%rsi, -336(%rbp)
 2193      FEFFFF
 2194 001d 488995A8 		movq	%rdx, -344(%rbp)
 2194      FEFFFF
 2195              		.loc 1 747 1
 2196 0024 64488B04 		movq	%fs:40, %rax
 2196      25280000 
 2196      00
 2197 002d 488945F8 		movq	%rax, -8(%rbp)
 2198 0031 31C0     		xorl	%eax, %eax
 748:/home/xingli/share/LiteOS_Lab/network/dtls/mbedtls/mbedtls-2.16.2/library/x509.c ****     int ret;
 749:/home/xingli/share/LiteOS_Lab/network/dtls/mbedtls/mbedtls-2.16.2/library/x509.c ****     size_t i, n;
 750:/home/xingli/share/LiteOS_Lab/network/dtls/mbedtls/mbedtls-2.16.2/library/x509.c ****     unsigned char c, merge = 0;
 2199              		.loc 1 750 22
 2200 0033 C685C2FE 		movb	$0, -318(%rbp)
 2200      FFFF00
 751:/home/xingli/share/LiteOS_Lab/network/dtls/mbedtls/mbedtls-2.16.2/library/x509.c ****     const mbedtls_x509_name *name;
 752:/home/xingli/share/LiteOS_Lab/network/dtls/mbedtls/mbedtls-2.16.2/library/x509.c ****     const char *short_name = NULL;
 2201              		.loc 1 752 17
 2202 003a 48C785C8 		movq	$0, -312(%rbp)
 2202      FEFFFF00 
 2202      000000
 753:/home/xingli/share/LiteOS_Lab/network/dtls/mbedtls/mbedtls-2.16.2/library/x509.c ****     char s[MBEDTLS_X509_MAX_DN_NAME_SIZE], *p;
 754:/home/xingli/share/LiteOS_Lab/network/dtls/mbedtls/mbedtls-2.16.2/library/x509.c **** 
 755:/home/xingli/share/LiteOS_Lab/network/dtls/mbedtls/mbedtls-2.16.2/library/x509.c ****     memset( s, 0, sizeof( s ) );
 2203              		.loc 1 755 5
 2204 0045 488D85F0 		leaq	-272(%rbp), %rax
 2204      FEFFFF
 2205 004c BA000100 		movl	$256, %edx
 2205      00
 2206 0051 BE000000 		movl	$0, %esi
 2206      00
 2207 0056 4889C7   		movq	%rax, %rdi
 2208 0059 E8000000 		call	memset@PLT
 2208      00
 756:/home/xingli/share/LiteOS_Lab/network/dtls/mbedtls/mbedtls-2.16.2/library/x509.c **** 
GAS LISTING /tmp/ccL8LWq1.s 			page 58


 757:/home/xingli/share/LiteOS_Lab/network/dtls/mbedtls/mbedtls-2.16.2/library/x509.c ****     name = dn;
 2209              		.loc 1 757 10
 2210 005e 488B85A8 		movq	-344(%rbp), %rax
 2210      FEFFFF
 2211 0065 488985E0 		movq	%rax, -288(%rbp)
 2211      FEFFFF
 758:/home/xingli/share/LiteOS_Lab/network/dtls/mbedtls/mbedtls-2.16.2/library/x509.c ****     p = buf;
 2212              		.loc 1 758 7
 2213 006c 488B85B8 		movq	-328(%rbp), %rax
 2213      FEFFFF
 2214 0073 488985E8 		movq	%rax, -280(%rbp)
 2214      FEFFFF
 759:/home/xingli/share/LiteOS_Lab/network/dtls/mbedtls/mbedtls-2.16.2/library/x509.c ****     n = size;
 2215              		.loc 1 759 7
 2216 007a 488B85B0 		movq	-336(%rbp), %rax
 2216      FEFFFF
 2217 0081 488985D8 		movq	%rax, -296(%rbp)
 2217      FEFFFF
 760:/home/xingli/share/LiteOS_Lab/network/dtls/mbedtls/mbedtls-2.16.2/library/x509.c **** 
 761:/home/xingli/share/LiteOS_Lab/network/dtls/mbedtls/mbedtls-2.16.2/library/x509.c ****     while( name != NULL )
 2218              		.loc 1 761 10
 2219 0088 E9F50200 		jmp	.L166
 2219      00
 2220              	.L187:
 762:/home/xingli/share/LiteOS_Lab/network/dtls/mbedtls/mbedtls-2.16.2/library/x509.c ****     {
 763:/home/xingli/share/LiteOS_Lab/network/dtls/mbedtls/mbedtls-2.16.2/library/x509.c ****         if( !name->oid.p )
 2221              		.loc 1 763 23
 2222 008d 488B85E0 		movq	-288(%rbp), %rax
 2222      FEFFFF
 2223 0094 488B4010 		movq	16(%rax), %rax
 2224              		.loc 1 763 11
 2225 0098 4885C0   		testq	%rax, %rax
 2226 009b 7517     		jne	.L167
 764:/home/xingli/share/LiteOS_Lab/network/dtls/mbedtls/mbedtls-2.16.2/library/x509.c ****         {
 765:/home/xingli/share/LiteOS_Lab/network/dtls/mbedtls/mbedtls-2.16.2/library/x509.c ****             name = name->next;
 2227              		.loc 1 765 18
 2228 009d 488B85E0 		movq	-288(%rbp), %rax
 2228      FEFFFF
 2229 00a4 488B4030 		movq	48(%rax), %rax
 2230 00a8 488985E0 		movq	%rax, -288(%rbp)
 2230      FEFFFF
 766:/home/xingli/share/LiteOS_Lab/network/dtls/mbedtls/mbedtls-2.16.2/library/x509.c ****             continue;
 2231              		.loc 1 766 13
 2232 00af E9CE0200 		jmp	.L166
 2232      00
 2233              	.L167:
 767:/home/xingli/share/LiteOS_Lab/network/dtls/mbedtls/mbedtls-2.16.2/library/x509.c ****         }
 768:/home/xingli/share/LiteOS_Lab/network/dtls/mbedtls/mbedtls-2.16.2/library/x509.c **** 
 769:/home/xingli/share/LiteOS_Lab/network/dtls/mbedtls/mbedtls-2.16.2/library/x509.c ****         if( name != dn )
 2234              		.loc 1 769 11
 2235 00b4 488B85E0 		movq	-288(%rbp), %rax
 2235      FEFFFF
 2236 00bb 483B85A8 		cmpq	-344(%rbp), %rax
 2236      FEFFFF
 2237 00c2 0F848400 		je	.L168
 2237      0000
 770:/home/xingli/share/LiteOS_Lab/network/dtls/mbedtls/mbedtls-2.16.2/library/x509.c ****         {
GAS LISTING /tmp/ccL8LWq1.s 			page 59


 771:/home/xingli/share/LiteOS_Lab/network/dtls/mbedtls/mbedtls-2.16.2/library/x509.c ****             ret = mbedtls_snprintf( p, n, merge ? " + " : ", " );
 2238              		.loc 1 771 19
 2239 00c8 4C8B0500 		movq	mbedtls_snprintf(%rip), %r8
 2239      000000
 2240 00cf 80BDC2FE 		cmpb	$0, -318(%rbp)
 2240      FFFF00
 2241 00d6 7409     		je	.L169
 2242              		.loc 1 771 19 is_stmt 0 discriminator 1
 2243 00d8 488D0500 		leaq	.LC1(%rip), %rax
 2243      000000
 2244 00df EB07     		jmp	.L170
 2245              	.L169:
 2246              		.loc 1 771 19 discriminator 2
 2247 00e1 488D0500 		leaq	.LC2(%rip), %rax
 2247      000000
 2248              	.L170:
 2249              		.loc 1 771 19 discriminator 4
 2250 00e8 488BB5D8 		movq	-296(%rbp), %rsi
 2250      FEFFFF
 2251 00ef 488B8DE8 		movq	-280(%rbp), %rcx
 2251      FEFFFF
 2252 00f6 4889C2   		movq	%rax, %rdx
 2253 00f9 4889CF   		movq	%rcx, %rdi
 2254 00fc B8000000 		movl	$0, %eax
 2254      00
 2255 0101 41FFD0   		call	*%r8
 2256              	.LVL0:
 2257 0104 8985C4FE 		movl	%eax, -316(%rbp)
 2257      FFFF
 772:/home/xingli/share/LiteOS_Lab/network/dtls/mbedtls/mbedtls-2.16.2/library/x509.c ****             MBEDTLS_X509_SAFE_SNPRINTF;
 2258              		.loc 1 772 13 is_stmt 1 discriminator 4
 2259 010a 83BDC4FE 		cmpl	$0, -316(%rbp)
 2259      FFFF00
 2260 0111 7811     		js	.L171
 2261              		.loc 1 772 13 is_stmt 0 discriminator 2
 2262 0113 8B85C4FE 		movl	-316(%rbp), %eax
 2262      FFFF
 2263 0119 4898     		cltq
 2264 011b 483985D8 		cmpq	%rax, -296(%rbp)
 2264      FEFFFF
 2265 0122 770A     		ja	.L172
 2266              	.L171:
 2267              		.loc 1 772 13 discriminator 3
 2268 0124 B880D6FF 		movl	$-10624, %eax
 2268      FF
 2269 0129 E9760200 		jmp	.L188
 2269      00
 2270              	.L172:
 2271              		.loc 1 772 13 discriminator 4
 2272 012e 8B85C4FE 		movl	-316(%rbp), %eax
 2272      FFFF
 2273 0134 4898     		cltq
 2274 0136 482985D8 		subq	%rax, -296(%rbp)
 2274      FEFFFF
 2275 013d 8B85C4FE 		movl	-316(%rbp), %eax
 2275      FFFF
 2276 0143 4898     		cltq
GAS LISTING /tmp/ccL8LWq1.s 			page 60


 2277 0145 480185E8 		addq	%rax, -280(%rbp)
 2277      FEFFFF
 2278              	.L168:
 773:/home/xingli/share/LiteOS_Lab/network/dtls/mbedtls/mbedtls-2.16.2/library/x509.c ****         }
 774:/home/xingli/share/LiteOS_Lab/network/dtls/mbedtls/mbedtls-2.16.2/library/x509.c **** 
 775:/home/xingli/share/LiteOS_Lab/network/dtls/mbedtls/mbedtls-2.16.2/library/x509.c ****         ret = mbedtls_oid_get_attr_short_name( &name->oid, &short_name );
 2279              		.loc 1 775 15 is_stmt 1
 2280 014c 488B85E0 		movq	-288(%rbp), %rax
 2280      FEFFFF
 2281 0153 488D95C8 		leaq	-312(%rbp), %rdx
 2281      FEFFFF
 2282 015a 4889D6   		movq	%rdx, %rsi
 2283 015d 4889C7   		movq	%rax, %rdi
 2284 0160 E8000000 		call	mbedtls_oid_get_attr_short_name@PLT
 2284      00
 2285 0165 8985C4FE 		movl	%eax, -316(%rbp)
 2285      FFFF
 776:/home/xingli/share/LiteOS_Lab/network/dtls/mbedtls/mbedtls-2.16.2/library/x509.c **** 
 777:/home/xingli/share/LiteOS_Lab/network/dtls/mbedtls/mbedtls-2.16.2/library/x509.c ****         if( ret == 0 )
 2286              		.loc 1 777 11
 2287 016b 83BDC4FE 		cmpl	$0, -316(%rbp)
 2287      FFFF00
 2288 0172 7539     		jne	.L174
 778:/home/xingli/share/LiteOS_Lab/network/dtls/mbedtls/mbedtls-2.16.2/library/x509.c ****             ret = mbedtls_snprintf( p, n, "%s=", short_name );
 2289              		.loc 1 778 19
 2290 0174 4C8B0500 		movq	mbedtls_snprintf(%rip), %r8
 2290      000000
 2291 017b 488B95C8 		movq	-312(%rbp), %rdx
 2291      FEFFFF
 2292 0182 488BB5D8 		movq	-296(%rbp), %rsi
 2292      FEFFFF
 2293 0189 488B85E8 		movq	-280(%rbp), %rax
 2293      FEFFFF
 2294 0190 4889D1   		movq	%rdx, %rcx
 2295 0193 488D1500 		leaq	.LC3(%rip), %rdx
 2295      000000
 2296 019a 4889C7   		movq	%rax, %rdi
 2297 019d B8000000 		movl	$0, %eax
 2297      00
 2298 01a2 41FFD0   		call	*%r8
 2299              	.LVL1:
 2300 01a5 8985C4FE 		movl	%eax, -316(%rbp)
 2300      FFFF
 2301 01ab EB30     		jmp	.L175
 2302              	.L174:
 779:/home/xingli/share/LiteOS_Lab/network/dtls/mbedtls/mbedtls-2.16.2/library/x509.c ****         else
 780:/home/xingli/share/LiteOS_Lab/network/dtls/mbedtls/mbedtls-2.16.2/library/x509.c ****             ret = mbedtls_snprintf( p, n, "\?\?=" );
 2303              		.loc 1 780 19
 2304 01ad 4C8B0500 		movq	mbedtls_snprintf(%rip), %r8
 2304      000000
 2305 01b4 488B8DD8 		movq	-296(%rbp), %rcx
 2305      FEFFFF
 2306 01bb 488B85E8 		movq	-280(%rbp), %rax
 2306      FEFFFF
 2307 01c2 488D1500 		leaq	.LC4(%rip), %rdx
 2307      000000
 2308 01c9 4889CE   		movq	%rcx, %rsi
GAS LISTING /tmp/ccL8LWq1.s 			page 61


 2309 01cc 4889C7   		movq	%rax, %rdi
 2310 01cf B8000000 		movl	$0, %eax
 2310      00
 2311 01d4 41FFD0   		call	*%r8
 2312              	.LVL2:
 2313 01d7 8985C4FE 		movl	%eax, -316(%rbp)
 2313      FFFF
 2314              	.L175:
 781:/home/xingli/share/LiteOS_Lab/network/dtls/mbedtls/mbedtls-2.16.2/library/x509.c ****         MBEDTLS_X509_SAFE_SNPRINTF;
 2315              		.loc 1 781 9
 2316 01dd 83BDC4FE 		cmpl	$0, -316(%rbp)
 2316      FFFF00
 2317 01e4 7811     		js	.L176
 2318              		.loc 1 781 9 is_stmt 0 discriminator 2
 2319 01e6 8B85C4FE 		movl	-316(%rbp), %eax
 2319      FFFF
 2320 01ec 4898     		cltq
 2321 01ee 483985D8 		cmpq	%rax, -296(%rbp)
 2321      FEFFFF
 2322 01f5 770A     		ja	.L177
 2323              	.L176:
 2324              		.loc 1 781 9 discriminator 3
 2325 01f7 B880D6FF 		movl	$-10624, %eax
 2325      FF
 2326 01fc E9A30100 		jmp	.L188
 2326      00
 2327              	.L177:
 2328              		.loc 1 781 9 discriminator 4
 2329 0201 8B85C4FE 		movl	-316(%rbp), %eax
 2329      FFFF
 2330 0207 4898     		cltq
 2331 0209 482985D8 		subq	%rax, -296(%rbp)
 2331      FEFFFF
 2332 0210 8B85C4FE 		movl	-316(%rbp), %eax
 2332      FFFF
 2333 0216 4898     		cltq
 2334 0218 480185E8 		addq	%rax, -280(%rbp)
 2334      FEFFFF
 782:/home/xingli/share/LiteOS_Lab/network/dtls/mbedtls/mbedtls-2.16.2/library/x509.c **** 
 783:/home/xingli/share/LiteOS_Lab/network/dtls/mbedtls/mbedtls-2.16.2/library/x509.c ****         for( i = 0; i < name->val.len; i++ )
 2335              		.loc 1 783 16 is_stmt 1 discriminator 4
 2336 021f 48C785D0 		movq	$0, -304(%rbp)
 2336      FEFFFF00 
 2336      000000
 2337              		.loc 1 783 9 discriminator 4
 2338 022a E98B0000 		jmp	.L178
 2338      00
 2339              	.L184:
 784:/home/xingli/share/LiteOS_Lab/network/dtls/mbedtls/mbedtls-2.16.2/library/x509.c ****         {
 785:/home/xingli/share/LiteOS_Lab/network/dtls/mbedtls/mbedtls-2.16.2/library/x509.c ****             if( i >= sizeof( s ) - 1 )
 2340              		.loc 1 785 15
 2341 022f 4881BDD0 		cmpq	$254, -304(%rbp)
 2341      FEFFFFFE 
 2341      000000
 2342 023a 0F879400 		ja	.L190
 2342      0000
 786:/home/xingli/share/LiteOS_Lab/network/dtls/mbedtls/mbedtls-2.16.2/library/x509.c ****                 break;
GAS LISTING /tmp/ccL8LWq1.s 			page 62


 787:/home/xingli/share/LiteOS_Lab/network/dtls/mbedtls/mbedtls-2.16.2/library/x509.c **** 
 788:/home/xingli/share/LiteOS_Lab/network/dtls/mbedtls/mbedtls-2.16.2/library/x509.c ****             c = name->val.p[i];
 2343              		.loc 1 788 26
 2344 0240 488B85E0 		movq	-288(%rbp), %rax
 2344      FEFFFF
 2345 0247 488B5028 		movq	40(%rax), %rdx
 2346              		.loc 1 788 28
 2347 024b 488B85D0 		movq	-304(%rbp), %rax
 2347      FEFFFF
 2348 0252 4801D0   		addq	%rdx, %rax
 2349              		.loc 1 788 15
 2350 0255 0FB600   		movzbl	(%rax), %eax
 2351 0258 8885C3FE 		movb	%al, -317(%rbp)
 2351      FFFF
 789:/home/xingli/share/LiteOS_Lab/network/dtls/mbedtls/mbedtls-2.16.2/library/x509.c ****             if( c < 32 || c == 127 || ( c > 128 && c < 160 ) )
 2352              		.loc 1 789 15
 2353 025e 80BDC3FE 		cmpb	$31, -317(%rbp)
 2353      FFFF1F
 2354 0265 761B     		jbe	.L181
 2355              		.loc 1 789 24 discriminator 1
 2356 0267 80BDC3FE 		cmpb	$127, -317(%rbp)
 2356      FFFF7F
 2357 026e 7412     		je	.L181
 2358              		.loc 1 789 36 discriminator 2
 2359 0270 80BDC3FE 		cmpb	$-128, -317(%rbp)
 2359      FFFF80
 2360 0277 761F     		jbe	.L182
 2361              		.loc 1 789 49 discriminator 3
 2362 0279 80BDC3FE 		cmpb	$-97, -317(%rbp)
 2362      FFFF9F
 2363 0280 7716     		ja	.L182
 2364              	.L181:
 790:/home/xingli/share/LiteOS_Lab/network/dtls/mbedtls/mbedtls-2.16.2/library/x509.c ****                  s[i] = '?';
 2365              		.loc 1 790 23
 2366 0282 488D95F0 		leaq	-272(%rbp), %rdx
 2366      FEFFFF
 2367 0289 488B85D0 		movq	-304(%rbp), %rax
 2367      FEFFFF
 2368 0290 4801D0   		addq	%rdx, %rax
 2369 0293 C6003F   		movb	$63, (%rax)
 2370 0296 EB1A     		jmp	.L183
 2371              	.L182:
 791:/home/xingli/share/LiteOS_Lab/network/dtls/mbedtls/mbedtls-2.16.2/library/x509.c ****             else s[i] = c;
 2372              		.loc 1 791 23
 2373 0298 0FB685C3 		movzbl	-317(%rbp), %eax
 2373      FEFFFF
 2374 029f 488D8DF0 		leaq	-272(%rbp), %rcx
 2374      FEFFFF
 2375 02a6 488B95D0 		movq	-304(%rbp), %rdx
 2375      FEFFFF
 2376 02ad 4801CA   		addq	%rcx, %rdx
 2377 02b0 8802     		movb	%al, (%rdx)
 2378              	.L183:
 783:/home/xingli/share/LiteOS_Lab/network/dtls/mbedtls/mbedtls-2.16.2/library/x509.c ****         {
 2379              		.loc 1 783 41 discriminator 2
 2380 02b2 488385D0 		addq	$1, -304(%rbp)
 2380      FEFFFF01 
GAS LISTING /tmp/ccL8LWq1.s 			page 63


 2381              	.L178:
 783:/home/xingli/share/LiteOS_Lab/network/dtls/mbedtls/mbedtls-2.16.2/library/x509.c ****         {
 2382              		.loc 1 783 34 discriminator 1
 2383 02ba 488B85E0 		movq	-288(%rbp), %rax
 2383      FEFFFF
 2384 02c1 488B4020 		movq	32(%rax), %rax
 783:/home/xingli/share/LiteOS_Lab/network/dtls/mbedtls/mbedtls-2.16.2/library/x509.c ****         {
 2385              		.loc 1 783 9 discriminator 1
 2386 02c5 483985D0 		cmpq	%rax, -304(%rbp)
 2386      FEFFFF
 2387 02cc 0F825DFF 		jb	.L184
 2387      FFFF
 2388 02d2 EB01     		jmp	.L180
 2389              	.L190:
 786:/home/xingli/share/LiteOS_Lab/network/dtls/mbedtls/mbedtls-2.16.2/library/x509.c **** 
 2390              		.loc 1 786 17
 2391 02d4 90       		nop
 2392              	.L180:
 792:/home/xingli/share/LiteOS_Lab/network/dtls/mbedtls/mbedtls-2.16.2/library/x509.c ****         }
 793:/home/xingli/share/LiteOS_Lab/network/dtls/mbedtls/mbedtls-2.16.2/library/x509.c ****         s[i] = '\0';
 2393              		.loc 1 793 14
 2394 02d5 488D95F0 		leaq	-272(%rbp), %rdx
 2394      FEFFFF
 2395 02dc 488B85D0 		movq	-304(%rbp), %rax
 2395      FEFFFF
 2396 02e3 4801D0   		addq	%rdx, %rax
 2397 02e6 C60000   		movb	$0, (%rax)
 794:/home/xingli/share/LiteOS_Lab/network/dtls/mbedtls/mbedtls-2.16.2/library/x509.c ****         ret = mbedtls_snprintf( p, n, "%s", s );
 2398              		.loc 1 794 15
 2399 02e9 4C8B0500 		movq	mbedtls_snprintf(%rip), %r8
 2399      000000
 2400 02f0 488D95F0 		leaq	-272(%rbp), %rdx
 2400      FEFFFF
 2401 02f7 488BB5D8 		movq	-296(%rbp), %rsi
 2401      FEFFFF
 2402 02fe 488B85E8 		movq	-280(%rbp), %rax
 2402      FEFFFF
 2403 0305 4889D1   		movq	%rdx, %rcx
 2404 0308 488D1500 		leaq	.LC5(%rip), %rdx
 2404      000000
 2405 030f 4889C7   		movq	%rax, %rdi
 2406 0312 B8000000 		movl	$0, %eax
 2406      00
 2407 0317 41FFD0   		call	*%r8
 2408              	.LVL3:
 2409 031a 8985C4FE 		movl	%eax, -316(%rbp)
 2409      FFFF
 795:/home/xingli/share/LiteOS_Lab/network/dtls/mbedtls/mbedtls-2.16.2/library/x509.c ****         MBEDTLS_X509_SAFE_SNPRINTF;
 2410              		.loc 1 795 9
 2411 0320 83BDC4FE 		cmpl	$0, -316(%rbp)
 2411      FFFF00
 2412 0327 7811     		js	.L185
 2413              		.loc 1 795 9 is_stmt 0 discriminator 2
 2414 0329 8B85C4FE 		movl	-316(%rbp), %eax
 2414      FFFF
 2415 032f 4898     		cltq
 2416 0331 483985D8 		cmpq	%rax, -296(%rbp)
GAS LISTING /tmp/ccL8LWq1.s 			page 64


 2416      FEFFFF
 2417 0338 7707     		ja	.L186
 2418              	.L185:
 2419              		.loc 1 795 9 discriminator 3
 2420 033a B880D6FF 		movl	$-10624, %eax
 2420      FF
 2421 033f EB63     		jmp	.L188
 2422              	.L186:
 2423              		.loc 1 795 9 discriminator 4
 2424 0341 8B85C4FE 		movl	-316(%rbp), %eax
 2424      FFFF
 2425 0347 4898     		cltq
 2426 0349 482985D8 		subq	%rax, -296(%rbp)
 2426      FEFFFF
 2427 0350 8B85C4FE 		movl	-316(%rbp), %eax
 2427      FFFF
 2428 0356 4898     		cltq
 2429 0358 480185E8 		addq	%rax, -280(%rbp)
 2429      FEFFFF
 796:/home/xingli/share/LiteOS_Lab/network/dtls/mbedtls/mbedtls-2.16.2/library/x509.c **** 
 797:/home/xingli/share/LiteOS_Lab/network/dtls/mbedtls/mbedtls-2.16.2/library/x509.c ****         merge = name->next_merged;
 2430              		.loc 1 797 15 is_stmt 1 discriminator 4
 2431 035f 488B85E0 		movq	-288(%rbp), %rax
 2431      FEFFFF
 2432 0366 0FB64038 		movzbl	56(%rax), %eax
 2433 036a 8885C2FE 		movb	%al, -318(%rbp)
 2433      FFFF
 798:/home/xingli/share/LiteOS_Lab/network/dtls/mbedtls/mbedtls-2.16.2/library/x509.c ****         name = name->next;
 2434              		.loc 1 798 14 discriminator 4
 2435 0370 488B85E0 		movq	-288(%rbp), %rax
 2435      FEFFFF
 2436 0377 488B4030 		movq	48(%rax), %rax
 2437 037b 488985E0 		movq	%rax, -288(%rbp)
 2437      FEFFFF
 2438              	.L166:
 761:/home/xingli/share/LiteOS_Lab/network/dtls/mbedtls/mbedtls-2.16.2/library/x509.c ****     {
 2439              		.loc 1 761 10
 2440 0382 4883BDE0 		cmpq	$0, -288(%rbp)
 2440      FEFFFF00 
 2441 038a 0F85FDFC 		jne	.L187
 2441      FFFF
 799:/home/xingli/share/LiteOS_Lab/network/dtls/mbedtls/mbedtls-2.16.2/library/x509.c ****     }
 800:/home/xingli/share/LiteOS_Lab/network/dtls/mbedtls/mbedtls-2.16.2/library/x509.c **** 
 801:/home/xingli/share/LiteOS_Lab/network/dtls/mbedtls/mbedtls-2.16.2/library/x509.c ****     return( (int) ( size - n ) );
 2442              		.loc 1 801 26
 2443 0390 488B85B0 		movq	-336(%rbp), %rax
 2443      FEFFFF
 2444 0397 89C2     		movl	%eax, %edx
 2445 0399 488B85D8 		movq	-296(%rbp), %rax
 2445      FEFFFF
 2446 03a0 29C2     		subl	%eax, %edx
 2447 03a2 89D0     		movl	%edx, %eax
 2448              	.L188:
 802:/home/xingli/share/LiteOS_Lab/network/dtls/mbedtls/mbedtls-2.16.2/library/x509.c **** }
 2449              		.loc 1 802 1 discriminator 1
 2450 03a4 488B7DF8 		movq	-8(%rbp), %rdi
 2451 03a8 6448333C 		xorq	%fs:40, %rdi
GAS LISTING /tmp/ccL8LWq1.s 			page 65


 2451      25280000 
 2451      00
 2452 03b1 7405     		je	.L189
 2453              		.loc 1 802 1 is_stmt 0
 2454 03b3 E8000000 		call	__stack_chk_fail@PLT
 2454      00
 2455              	.L189:
 2456 03b8 C9       		leave
 2457              	.LCFI44:
 2458              		.cfi_def_cfa 7, 8
 2459 03b9 C3       		ret
 2460              		.cfi_endproc
 2461              	.LFE30:
 2463              		.section	.rodata
 2464              	.LC6:
 2465 001c 3A00     		.string	":"
 2466              	.LC7:
 2467 001e 00       		.string	""
 2468              	.LC8:
 2469 001f 25303258 		.string	"%02X%s"
 2469      257300
 2470              	.LC9:
 2471 0026 2E2E2E2E 		.string	"...."
 2471      00
 2472              		.section	.text.mbedtls_x509_serial_gets,"ax",@progbits
 2473              		.globl	mbedtls_x509_serial_gets
 2475              	mbedtls_x509_serial_gets:
 2476              	.LFB31:
 803:/home/xingli/share/LiteOS_Lab/network/dtls/mbedtls/mbedtls-2.16.2/library/x509.c **** 
 804:/home/xingli/share/LiteOS_Lab/network/dtls/mbedtls/mbedtls-2.16.2/library/x509.c **** /*
 805:/home/xingli/share/LiteOS_Lab/network/dtls/mbedtls/mbedtls-2.16.2/library/x509.c ****  * Store the serial in printable form into buf; no more
 806:/home/xingli/share/LiteOS_Lab/network/dtls/mbedtls/mbedtls-2.16.2/library/x509.c ****  * than size characters will be written
 807:/home/xingli/share/LiteOS_Lab/network/dtls/mbedtls/mbedtls-2.16.2/library/x509.c ****  */
 808:/home/xingli/share/LiteOS_Lab/network/dtls/mbedtls/mbedtls-2.16.2/library/x509.c **** int mbedtls_x509_serial_gets( char *buf, size_t size, const mbedtls_x509_buf *serial )
 809:/home/xingli/share/LiteOS_Lab/network/dtls/mbedtls/mbedtls-2.16.2/library/x509.c **** {
 2477              		.loc 1 809 1 is_stmt 1
 2478              		.cfi_startproc
 2479 0000 F30F1EFA 		endbr64
 2480 0004 55       		pushq	%rbp
 2481              	.LCFI45:
 2482              		.cfi_def_cfa_offset 16
 2483              		.cfi_offset 6, -16
 2484 0005 4889E5   		movq	%rsp, %rbp
 2485              	.LCFI46:
 2486              		.cfi_def_cfa_register 6
 2487 0008 4883EC50 		subq	$80, %rsp
 2488 000c 48897DC8 		movq	%rdi, -56(%rbp)
 2489 0010 488975C0 		movq	%rsi, -64(%rbp)
 2490 0014 488955B8 		movq	%rdx, -72(%rbp)
 2491              		.loc 1 809 1
 2492 0018 64488B04 		movq	%fs:40, %rax
 2492      25280000 
 2492      00
 2493 0021 488945F8 		movq	%rax, -8(%rbp)
 2494 0025 31C0     		xorl	%eax, %eax
 810:/home/xingli/share/LiteOS_Lab/network/dtls/mbedtls/mbedtls-2.16.2/library/x509.c ****     int ret;
 811:/home/xingli/share/LiteOS_Lab/network/dtls/mbedtls/mbedtls-2.16.2/library/x509.c ****     size_t i, n, nr;
GAS LISTING /tmp/ccL8LWq1.s 			page 66


 812:/home/xingli/share/LiteOS_Lab/network/dtls/mbedtls/mbedtls-2.16.2/library/x509.c ****     char *p;
 813:/home/xingli/share/LiteOS_Lab/network/dtls/mbedtls/mbedtls-2.16.2/library/x509.c **** 
 814:/home/xingli/share/LiteOS_Lab/network/dtls/mbedtls/mbedtls-2.16.2/library/x509.c ****     p = buf;
 2495              		.loc 1 814 7
 2496 0027 488B45C8 		movq	-56(%rbp), %rax
 2497 002b 488945E8 		movq	%rax, -24(%rbp)
 815:/home/xingli/share/LiteOS_Lab/network/dtls/mbedtls/mbedtls-2.16.2/library/x509.c ****     n = size;
 2498              		.loc 1 815 7
 2499 002f 488B45C0 		movq	-64(%rbp), %rax
 2500 0033 488945E0 		movq	%rax, -32(%rbp)
 816:/home/xingli/share/LiteOS_Lab/network/dtls/mbedtls/mbedtls-2.16.2/library/x509.c **** 
 817:/home/xingli/share/LiteOS_Lab/network/dtls/mbedtls/mbedtls-2.16.2/library/x509.c ****     nr = ( serial->len <= 32 )
 2501              		.loc 1 817 18
 2502 0037 488B45B8 		movq	-72(%rbp), %rax
 2503 003b 488B4008 		movq	8(%rax), %rax
 818:/home/xingli/share/LiteOS_Lab/network/dtls/mbedtls/mbedtls-2.16.2/library/x509.c ****         ? serial->len  : 28;
 2504              		.loc 1 818 24
 2505 003f 4883F820 		cmpq	$32, %rax
 2506 0043 770A     		ja	.L192
 2507              		.loc 1 818 24 is_stmt 0 discriminator 1
 2508 0045 488B45B8 		movq	-72(%rbp), %rax
 2509 0049 488B4008 		movq	8(%rax), %rax
 2510 004d EB05     		jmp	.L193
 2511              	.L192:
 2512              		.loc 1 818 24 discriminator 2
 2513 004f B81C0000 		movl	$28, %eax
 2513      00
 2514              	.L193:
 817:/home/xingli/share/LiteOS_Lab/network/dtls/mbedtls/mbedtls-2.16.2/library/x509.c ****         ? serial->len  : 28;
 2515              		.loc 1 817 8 is_stmt 1
 2516 0054 488945F0 		movq	%rax, -16(%rbp)
 819:/home/xingli/share/LiteOS_Lab/network/dtls/mbedtls/mbedtls-2.16.2/library/x509.c **** 
 820:/home/xingli/share/LiteOS_Lab/network/dtls/mbedtls/mbedtls-2.16.2/library/x509.c ****     for( i = 0; i < nr; i++ )
 2517              		.loc 1 820 12
 2518 0058 48C745D8 		movq	$0, -40(%rbp)
 2518      00000000 
 2519              		.loc 1 820 5
 2520 0060 E9B60000 		jmp	.L194
 2520      00
 2521              	.L202:
 821:/home/xingli/share/LiteOS_Lab/network/dtls/mbedtls/mbedtls-2.16.2/library/x509.c ****     {
 822:/home/xingli/share/LiteOS_Lab/network/dtls/mbedtls/mbedtls-2.16.2/library/x509.c ****         if( i == 0 && nr > 1 && serial->p[i] == 0x0 )
 2522              		.loc 1 822 11
 2523 0065 48837DD8 		cmpq	$0, -40(%rbp)
 2523      00
 2524 006a 7521     		jne	.L195
 2525              		.loc 1 822 20 discriminator 1
 2526 006c 48837DF0 		cmpq	$1, -16(%rbp)
 2526      01
 2527 0071 761A     		jbe	.L195
 2528              		.loc 1 822 39 discriminator 2
 2529 0073 488B45B8 		movq	-72(%rbp), %rax
 2530 0077 488B5010 		movq	16(%rax), %rdx
 2531              		.loc 1 822 42 discriminator 2
 2532 007b 488B45D8 		movq	-40(%rbp), %rax
 2533 007f 4801D0   		addq	%rdx, %rax
 2534 0082 0FB600   		movzbl	(%rax), %eax
GAS LISTING /tmp/ccL8LWq1.s 			page 67


 2535              		.loc 1 822 30 discriminator 2
 2536 0085 84C0     		testb	%al, %al
 2537 0087 0F848800 		je	.L207
 2537      0000
 2538              	.L195:
 823:/home/xingli/share/LiteOS_Lab/network/dtls/mbedtls/mbedtls-2.16.2/library/x509.c ****             continue;
 824:/home/xingli/share/LiteOS_Lab/network/dtls/mbedtls/mbedtls-2.16.2/library/x509.c **** 
 825:/home/xingli/share/LiteOS_Lab/network/dtls/mbedtls/mbedtls-2.16.2/library/x509.c ****         ret = mbedtls_snprintf( p, n, "%02X%s",
 2539              		.loc 1 825 15
 2540 008d 4C8B0D00 		movq	mbedtls_snprintf(%rip), %r9
 2540      000000
 826:/home/xingli/share/LiteOS_Lab/network/dtls/mbedtls/mbedtls-2.16.2/library/x509.c ****                 serial->p[i], ( i < nr - 1 ) ? ":" : "" );
 2541              		.loc 1 826 40
 2542 0094 488B45F0 		movq	-16(%rbp), %rax
 2543 0098 4883E801 		subq	$1, %rax
 825:/home/xingli/share/LiteOS_Lab/network/dtls/mbedtls/mbedtls-2.16.2/library/x509.c ****                 serial->p[i], ( i < nr - 1 ) ? ":" : "" );
 2544              		.loc 1 825 15
 2545 009c 483945D8 		cmpq	%rax, -40(%rbp)
 2546 00a0 7309     		jnb	.L197
 825:/home/xingli/share/LiteOS_Lab/network/dtls/mbedtls/mbedtls-2.16.2/library/x509.c ****                 serial->p[i], ( i < nr - 1 ) ? ":" : "" );
 2547              		.loc 1 825 15 is_stmt 0 discriminator 1
 2548 00a2 488D0500 		leaq	.LC6(%rip), %rax
 2548      000000
 2549 00a9 EB07     		jmp	.L198
 2550              	.L197:
 825:/home/xingli/share/LiteOS_Lab/network/dtls/mbedtls/mbedtls-2.16.2/library/x509.c ****                 serial->p[i], ( i < nr - 1 ) ? ":" : "" );
 2551              		.loc 1 825 15 discriminator 2
 2552 00ab 488D0500 		leaq	.LC7(%rip), %rax
 2552      000000
 2553              	.L198:
 2554              		.loc 1 826 23 is_stmt 1
 2555 00b2 488B55B8 		movq	-72(%rbp), %rdx
 2556 00b6 488B4A10 		movq	16(%rdx), %rcx
 2557              		.loc 1 826 26
 2558 00ba 488B55D8 		movq	-40(%rbp), %rdx
 2559 00be 4801CA   		addq	%rcx, %rdx
 2560 00c1 0FB612   		movzbl	(%rdx), %edx
 825:/home/xingli/share/LiteOS_Lab/network/dtls/mbedtls/mbedtls-2.16.2/library/x509.c ****                 serial->p[i], ( i < nr - 1 ) ? ":" : "" );
 2561              		.loc 1 825 15
 2562 00c4 0FB6D2   		movzbl	%dl, %edx
 2563 00c7 488B75E0 		movq	-32(%rbp), %rsi
 2564 00cb 488B7DE8 		movq	-24(%rbp), %rdi
 2565 00cf 4989C0   		movq	%rax, %r8
 2566 00d2 89D1     		movl	%edx, %ecx
 2567 00d4 488D1500 		leaq	.LC8(%rip), %rdx
 2567      000000
 2568 00db B8000000 		movl	$0, %eax
 2568      00
 2569 00e0 41FFD1   		call	*%r9
 2570              	.LVL4:
 2571 00e3 8945D4   		movl	%eax, -44(%rbp)
 827:/home/xingli/share/LiteOS_Lab/network/dtls/mbedtls/mbedtls-2.16.2/library/x509.c ****         MBEDTLS_X509_SAFE_SNPRINTF;
 2572              		.loc 1 827 9
 2573 00e6 837DD400 		cmpl	$0, -44(%rbp)
 2574 00ea 780B     		js	.L199
 2575              		.loc 1 827 9 is_stmt 0 discriminator 2
 2576 00ec 8B45D4   		movl	-44(%rbp), %eax
GAS LISTING /tmp/ccL8LWq1.s 			page 68


 2577 00ef 4898     		cltq
 2578 00f1 483945E0 		cmpq	%rax, -32(%rbp)
 2579 00f5 770A     		ja	.L200
 2580              	.L199:
 2581              		.loc 1 827 9 discriminator 3
 2582 00f7 B880D6FF 		movl	$-10624, %eax
 2582      FF
 2583 00fc E9950000 		jmp	.L201
 2583      00
 2584              	.L200:
 2585              		.loc 1 827 9 discriminator 4
 2586 0101 8B45D4   		movl	-44(%rbp), %eax
 2587 0104 4898     		cltq
 2588 0106 482945E0 		subq	%rax, -32(%rbp)
 2589 010a 8B45D4   		movl	-44(%rbp), %eax
 2590 010d 4898     		cltq
 2591 010f 480145E8 		addq	%rax, -24(%rbp)
 2592 0113 EB01     		jmp	.L196
 2593              	.L207:
 823:/home/xingli/share/LiteOS_Lab/network/dtls/mbedtls/mbedtls-2.16.2/library/x509.c **** 
 2594              		.loc 1 823 13 is_stmt 1
 2595 0115 90       		nop
 2596              	.L196:
 820:/home/xingli/share/LiteOS_Lab/network/dtls/mbedtls/mbedtls-2.16.2/library/x509.c ****     {
 2597              		.loc 1 820 26 discriminator 2
 2598 0116 488345D8 		addq	$1, -40(%rbp)
 2598      01
 2599              	.L194:
 820:/home/xingli/share/LiteOS_Lab/network/dtls/mbedtls/mbedtls-2.16.2/library/x509.c ****     {
 2600              		.loc 1 820 5 discriminator 1
 2601 011b 488B45D8 		movq	-40(%rbp), %rax
 2602 011f 483B45F0 		cmpq	-16(%rbp), %rax
 2603 0123 0F823CFF 		jb	.L202
 2603      FFFF
 828:/home/xingli/share/LiteOS_Lab/network/dtls/mbedtls/mbedtls-2.16.2/library/x509.c ****     }
 829:/home/xingli/share/LiteOS_Lab/network/dtls/mbedtls/mbedtls-2.16.2/library/x509.c **** 
 830:/home/xingli/share/LiteOS_Lab/network/dtls/mbedtls/mbedtls-2.16.2/library/x509.c ****     if( nr != serial->len )
 2604              		.loc 1 830 21
 2605 0129 488B45B8 		movq	-72(%rbp), %rax
 2606 012d 488B4008 		movq	8(%rax), %rax
 2607              		.loc 1 830 7
 2608 0131 483945F0 		cmpq	%rax, -16(%rbp)
 2609 0135 7451     		je	.L203
 831:/home/xingli/share/LiteOS_Lab/network/dtls/mbedtls/mbedtls-2.16.2/library/x509.c ****     {
 832:/home/xingli/share/LiteOS_Lab/network/dtls/mbedtls/mbedtls-2.16.2/library/x509.c ****         ret = mbedtls_snprintf( p, n, "...." );
 2610              		.loc 1 832 15
 2611 0137 4C8B0500 		movq	mbedtls_snprintf(%rip), %r8
 2611      000000
 2612 013e 488B4DE0 		movq	-32(%rbp), %rcx
 2613 0142 488B45E8 		movq	-24(%rbp), %rax
 2614 0146 488D1500 		leaq	.LC9(%rip), %rdx
 2614      000000
 2615 014d 4889CE   		movq	%rcx, %rsi
 2616 0150 4889C7   		movq	%rax, %rdi
 2617 0153 B8000000 		movl	$0, %eax
 2617      00
 2618 0158 41FFD0   		call	*%r8
GAS LISTING /tmp/ccL8LWq1.s 			page 69


 2619              	.LVL5:
 2620 015b 8945D4   		movl	%eax, -44(%rbp)
 833:/home/xingli/share/LiteOS_Lab/network/dtls/mbedtls/mbedtls-2.16.2/library/x509.c ****         MBEDTLS_X509_SAFE_SNPRINTF;
 2621              		.loc 1 833 9
 2622 015e 837DD400 		cmpl	$0, -44(%rbp)
 2623 0162 780B     		js	.L204
 2624              		.loc 1 833 9 is_stmt 0 discriminator 2
 2625 0164 8B45D4   		movl	-44(%rbp), %eax
 2626 0167 4898     		cltq
 2627 0169 483945E0 		cmpq	%rax, -32(%rbp)
 2628 016d 7707     		ja	.L205
 2629              	.L204:
 2630              		.loc 1 833 9 discriminator 3
 2631 016f B880D6FF 		movl	$-10624, %eax
 2631      FF
 2632 0174 EB20     		jmp	.L201
 2633              	.L205:
 2634              		.loc 1 833 9 discriminator 4
 2635 0176 8B45D4   		movl	-44(%rbp), %eax
 2636 0179 4898     		cltq
 2637 017b 482945E0 		subq	%rax, -32(%rbp)
 2638 017f 8B45D4   		movl	-44(%rbp), %eax
 2639 0182 4898     		cltq
 2640 0184 480145E8 		addq	%rax, -24(%rbp)
 2641              	.L203:
 834:/home/xingli/share/LiteOS_Lab/network/dtls/mbedtls/mbedtls-2.16.2/library/x509.c ****     }
 835:/home/xingli/share/LiteOS_Lab/network/dtls/mbedtls/mbedtls-2.16.2/library/x509.c **** 
 836:/home/xingli/share/LiteOS_Lab/network/dtls/mbedtls/mbedtls-2.16.2/library/x509.c ****     return( (int) ( size - n ) );
 2642              		.loc 1 836 26 is_stmt 1
 2643 0188 488B45C0 		movq	-64(%rbp), %rax
 2644 018c 89C2     		movl	%eax, %edx
 2645 018e 488B45E0 		movq	-32(%rbp), %rax
 2646 0192 29C2     		subl	%eax, %edx
 2647 0194 89D0     		movl	%edx, %eax
 2648              	.L201:
 837:/home/xingli/share/LiteOS_Lab/network/dtls/mbedtls/mbedtls-2.16.2/library/x509.c **** }
 2649              		.loc 1 837 1
 2650 0196 488B4DF8 		movq	-8(%rbp), %rcx
 2651 019a 6448330C 		xorq	%fs:40, %rcx
 2651      25280000 
 2651      00
 2652 01a3 7405     		je	.L206
 2653 01a5 E8000000 		call	__stack_chk_fail@PLT
 2653      00
 2654              	.L206:
 2655 01aa C9       		leave
 2656              	.LCFI47:
 2657              		.cfi_def_cfa 7, 8
 2658 01ab C3       		ret
 2659              		.cfi_endproc
 2660              	.LFE31:
 2662              		.section	.rodata
 2663              	.LC10:
 2664 002b 3F3F3F00 		.string	"???"
 2665              	.LC11:
 2666 002f 20282573 		.string	" (%s, MGF1-%s, 0x%02X)"
 2666      2C204D47 
GAS LISTING /tmp/ccL8LWq1.s 			page 70


 2666      46312D25 
 2666      732C2030 
 2666      78253032 
 2667              		.section	.text.mbedtls_x509_sig_alg_gets,"ax",@progbits
 2668              		.globl	mbedtls_x509_sig_alg_gets
 2670              	mbedtls_x509_sig_alg_gets:
 2671              	.LFB32:
 838:/home/xingli/share/LiteOS_Lab/network/dtls/mbedtls/mbedtls-2.16.2/library/x509.c **** 
 839:/home/xingli/share/LiteOS_Lab/network/dtls/mbedtls/mbedtls-2.16.2/library/x509.c **** /*
 840:/home/xingli/share/LiteOS_Lab/network/dtls/mbedtls/mbedtls-2.16.2/library/x509.c ****  * Helper for writing signature algorithms
 841:/home/xingli/share/LiteOS_Lab/network/dtls/mbedtls/mbedtls-2.16.2/library/x509.c ****  */
 842:/home/xingli/share/LiteOS_Lab/network/dtls/mbedtls/mbedtls-2.16.2/library/x509.c **** int mbedtls_x509_sig_alg_gets( char *buf, size_t size, const mbedtls_x509_buf *sig_oid,
 843:/home/xingli/share/LiteOS_Lab/network/dtls/mbedtls/mbedtls-2.16.2/library/x509.c ****                        mbedtls_pk_type_t pk_alg, mbedtls_md_type_t md_alg,
 844:/home/xingli/share/LiteOS_Lab/network/dtls/mbedtls/mbedtls-2.16.2/library/x509.c ****                        const void *sig_opts )
 845:/home/xingli/share/LiteOS_Lab/network/dtls/mbedtls/mbedtls-2.16.2/library/x509.c **** {
 2672              		.loc 1 845 1
 2673              		.cfi_startproc
 2674 0000 F30F1EFA 		endbr64
 2675 0004 55       		pushq	%rbp
 2676              	.LCFI48:
 2677              		.cfi_def_cfa_offset 16
 2678              		.cfi_offset 6, -16
 2679 0005 4889E5   		movq	%rsp, %rbp
 2680              	.LCFI49:
 2681              		.cfi_def_cfa_register 6
 2682 0008 4155     		pushq	%r13
 2683 000a 4154     		pushq	%r12
 2684 000c 53       		pushq	%rbx
 2685 000d 4883EC78 		subq	$120, %rsp
 2686              		.cfi_offset 13, -24
 2687              		.cfi_offset 12, -32
 2688              		.cfi_offset 3, -40
 2689 0011 48897D98 		movq	%rdi, -104(%rbp)
 2690 0015 48897590 		movq	%rsi, -112(%rbp)
 2691 0019 48895588 		movq	%rdx, -120(%rbp)
 2692 001d 894D84   		movl	%ecx, -124(%rbp)
 2693 0020 44894580 		movl	%r8d, -128(%rbp)
 2694 0024 4C898D78 		movq	%r9, -136(%rbp)
 2694      FFFFFF
 2695              		.loc 1 845 1
 2696 002b 64488B04 		movq	%fs:40, %rax
 2696      25280000 
 2696      00
 2697 0034 488945D8 		movq	%rax, -40(%rbp)
 2698 0038 31C0     		xorl	%eax, %eax
 846:/home/xingli/share/LiteOS_Lab/network/dtls/mbedtls/mbedtls-2.16.2/library/x509.c ****     int ret;
 847:/home/xingli/share/LiteOS_Lab/network/dtls/mbedtls/mbedtls-2.16.2/library/x509.c ****     char *p = buf;
 2699              		.loc 1 847 11
 2700 003a 488B4598 		movq	-104(%rbp), %rax
 2701 003e 488945B8 		movq	%rax, -72(%rbp)
 848:/home/xingli/share/LiteOS_Lab/network/dtls/mbedtls/mbedtls-2.16.2/library/x509.c ****     size_t n = size;
 2702              		.loc 1 848 12
 2703 0042 488B4590 		movq	-112(%rbp), %rax
 2704 0046 488945B0 		movq	%rax, -80(%rbp)
 849:/home/xingli/share/LiteOS_Lab/network/dtls/mbedtls/mbedtls-2.16.2/library/x509.c ****     const char *desc = NULL;
 2705              		.loc 1 849 17
 2706 004a 48C745A8 		movq	$0, -88(%rbp)
GAS LISTING /tmp/ccL8LWq1.s 			page 71


 2706      00000000 
 850:/home/xingli/share/LiteOS_Lab/network/dtls/mbedtls/mbedtls-2.16.2/library/x509.c **** 
 851:/home/xingli/share/LiteOS_Lab/network/dtls/mbedtls/mbedtls-2.16.2/library/x509.c ****     ret = mbedtls_oid_get_sig_alg_desc( sig_oid, &desc );
 2707              		.loc 1 851 11
 2708 0052 488D55A8 		leaq	-88(%rbp), %rdx
 2709 0056 488B4588 		movq	-120(%rbp), %rax
 2710 005a 4889D6   		movq	%rdx, %rsi
 2711 005d 4889C7   		movq	%rax, %rdi
 2712 0060 E8000000 		call	mbedtls_oid_get_sig_alg_desc@PLT
 2712      00
 2713 0065 8945A4   		movl	%eax, -92(%rbp)
 852:/home/xingli/share/LiteOS_Lab/network/dtls/mbedtls/mbedtls-2.16.2/library/x509.c ****     if( ret != 0 )
 2714              		.loc 1 852 7
 2715 0068 837DA400 		cmpl	$0, -92(%rbp)
 2716 006c 7429     		je	.L209
 853:/home/xingli/share/LiteOS_Lab/network/dtls/mbedtls/mbedtls-2.16.2/library/x509.c ****         ret = mbedtls_snprintf( p, n, "???"  );
 2717              		.loc 1 853 15
 2718 006e 4C8B0500 		movq	mbedtls_snprintf(%rip), %r8
 2718      000000
 2719 0075 488B4DB0 		movq	-80(%rbp), %rcx
 2720 0079 488B45B8 		movq	-72(%rbp), %rax
 2721 007d 488D1500 		leaq	.LC10(%rip), %rdx
 2721      000000
 2722 0084 4889CE   		movq	%rcx, %rsi
 2723 0087 4889C7   		movq	%rax, %rdi
 2724 008a B8000000 		movl	$0, %eax
 2724      00
 2725 008f 41FFD0   		call	*%r8
 2726              	.LVL6:
 2727 0092 8945A4   		movl	%eax, -92(%rbp)
 2728 0095 EB2B     		jmp	.L210
 2729              	.L209:
 854:/home/xingli/share/LiteOS_Lab/network/dtls/mbedtls/mbedtls-2.16.2/library/x509.c ****     else
 855:/home/xingli/share/LiteOS_Lab/network/dtls/mbedtls/mbedtls-2.16.2/library/x509.c ****         ret = mbedtls_snprintf( p, n, "%s", desc );
 2730              		.loc 1 855 15
 2731 0097 4C8B0500 		movq	mbedtls_snprintf(%rip), %r8
 2731      000000
 2732 009e 488B55A8 		movq	-88(%rbp), %rdx
 2733 00a2 488B75B0 		movq	-80(%rbp), %rsi
 2734 00a6 488B45B8 		movq	-72(%rbp), %rax
 2735 00aa 4889D1   		movq	%rdx, %rcx
 2736 00ad 488D1500 		leaq	.LC5(%rip), %rdx
 2736      000000
 2737 00b4 4889C7   		movq	%rax, %rdi
 2738 00b7 B8000000 		movl	$0, %eax
 2738      00
 2739 00bc 41FFD0   		call	*%r8
 2740              	.LVL7:
 2741 00bf 8945A4   		movl	%eax, -92(%rbp)
 2742              	.L210:
 856:/home/xingli/share/LiteOS_Lab/network/dtls/mbedtls/mbedtls-2.16.2/library/x509.c ****     MBEDTLS_X509_SAFE_SNPRINTF;
 2743              		.loc 1 856 5
 2744 00c2 837DA400 		cmpl	$0, -92(%rbp)
 2745 00c6 780B     		js	.L211
 2746              		.loc 1 856 5 is_stmt 0 discriminator 2
 2747 00c8 8B45A4   		movl	-92(%rbp), %eax
 2748 00cb 4898     		cltq
GAS LISTING /tmp/ccL8LWq1.s 			page 72


 2749 00cd 483945B0 		cmpq	%rax, -80(%rbp)
 2750 00d1 770A     		ja	.L212
 2751              	.L211:
 2752              		.loc 1 856 5 discriminator 3
 2753 00d3 B880D6FF 		movl	$-10624, %eax
 2753      FF
 2754 00d8 E9EB0000 		jmp	.L221
 2754      00
 2755              	.L212:
 2756              		.loc 1 856 5 discriminator 4
 2757 00dd 8B45A4   		movl	-92(%rbp), %eax
 2758 00e0 4898     		cltq
 2759 00e2 482945B0 		subq	%rax, -80(%rbp)
 2760 00e6 8B45A4   		movl	-92(%rbp), %eax
 2761 00e9 4898     		cltq
 2762 00eb 480145B8 		addq	%rax, -72(%rbp)
 857:/home/xingli/share/LiteOS_Lab/network/dtls/mbedtls/mbedtls-2.16.2/library/x509.c **** 
 858:/home/xingli/share/LiteOS_Lab/network/dtls/mbedtls/mbedtls-2.16.2/library/x509.c **** #if defined(MBEDTLS_X509_RSASSA_PSS_SUPPORT)
 859:/home/xingli/share/LiteOS_Lab/network/dtls/mbedtls/mbedtls-2.16.2/library/x509.c ****     if( pk_alg == MBEDTLS_PK_RSASSA_PSS )
 2763              		.loc 1 859 7 is_stmt 1 discriminator 4
 2764 00ef 837D8406 		cmpl	$6, -124(%rbp)
 2765 00f3 0F85C100 		jne	.L214
 2765      0000
 2766              	.LBB4:
 860:/home/xingli/share/LiteOS_Lab/network/dtls/mbedtls/mbedtls-2.16.2/library/x509.c ****     {
 861:/home/xingli/share/LiteOS_Lab/network/dtls/mbedtls/mbedtls-2.16.2/library/x509.c ****         const mbedtls_pk_rsassa_pss_options *pss_opts;
 862:/home/xingli/share/LiteOS_Lab/network/dtls/mbedtls/mbedtls-2.16.2/library/x509.c ****         const mbedtls_md_info_t *md_info, *mgf_md_info;
 863:/home/xingli/share/LiteOS_Lab/network/dtls/mbedtls/mbedtls-2.16.2/library/x509.c **** 
 864:/home/xingli/share/LiteOS_Lab/network/dtls/mbedtls/mbedtls-2.16.2/library/x509.c ****         pss_opts = (const mbedtls_pk_rsassa_pss_options *) sig_opts;
 2767              		.loc 1 864 18
 2768 00f9 488B8578 		movq	-136(%rbp), %rax
 2768      FFFFFF
 2769 0100 488945C0 		movq	%rax, -64(%rbp)
 865:/home/xingli/share/LiteOS_Lab/network/dtls/mbedtls/mbedtls-2.16.2/library/x509.c **** 
 866:/home/xingli/share/LiteOS_Lab/network/dtls/mbedtls/mbedtls-2.16.2/library/x509.c ****         md_info = mbedtls_md_info_from_type( md_alg );
 2770              		.loc 1 866 19
 2771 0104 8B4580   		movl	-128(%rbp), %eax
 2772 0107 89C7     		movl	%eax, %edi
 2773 0109 E8000000 		call	mbedtls_md_info_from_type@PLT
 2773      00
 2774 010e 488945C8 		movq	%rax, -56(%rbp)
 867:/home/xingli/share/LiteOS_Lab/network/dtls/mbedtls/mbedtls-2.16.2/library/x509.c ****         mgf_md_info = mbedtls_md_info_from_type( pss_opts->mgf1_hash_id );
 2775              		.loc 1 867 23
 2776 0112 488B45C0 		movq	-64(%rbp), %rax
 2777 0116 8B00     		movl	(%rax), %eax
 2778 0118 89C7     		movl	%eax, %edi
 2779 011a E8000000 		call	mbedtls_md_info_from_type@PLT
 2779      00
 2780 011f 488945D0 		movq	%rax, -48(%rbp)
 868:/home/xingli/share/LiteOS_Lab/network/dtls/mbedtls/mbedtls-2.16.2/library/x509.c **** 
 869:/home/xingli/share/LiteOS_Lab/network/dtls/mbedtls/mbedtls-2.16.2/library/x509.c ****         ret = mbedtls_snprintf( p, n, " (%s, MGF1-%s, 0x%02X)",
 2781              		.loc 1 869 15
 2782 0123 4C8B2500 		movq	mbedtls_snprintf(%rip), %r12
 2782      000000
 2783 012a 488B45C0 		movq	-64(%rbp), %rax
 2784 012e 448B6804 		movl	4(%rax), %r13d
 2785 0132 48837DD0 		cmpq	$0, -48(%rbp)
GAS LISTING /tmp/ccL8LWq1.s 			page 73


 2785      00
 2786 0137 7411     		je	.L215
 870:/home/xingli/share/LiteOS_Lab/network/dtls/mbedtls/mbedtls-2.16.2/library/x509.c ****                               md_info ? mbedtls_md_get_name( md_info ) : "???",
 871:/home/xingli/share/LiteOS_Lab/network/dtls/mbedtls/mbedtls-2.16.2/library/x509.c ****                               mgf_md_info ? mbedtls_md_get_name( mgf_md_info ) : "???",
 2787              		.loc 1 871 45
 2788 0139 488B45D0 		movq	-48(%rbp), %rax
 2789 013d 4889C7   		movq	%rax, %rdi
 2790 0140 E8000000 		call	mbedtls_md_get_name@PLT
 2790      00
 2791 0145 4889C3   		movq	%rax, %rbx
 2792 0148 EB07     		jmp	.L216
 2793              	.L215:
 869:/home/xingli/share/LiteOS_Lab/network/dtls/mbedtls/mbedtls-2.16.2/library/x509.c ****                               md_info ? mbedtls_md_get_name( md_info ) : "???",
 2794              		.loc 1 869 15 discriminator 1
 2795 014a 488D1D00 		leaq	.LC10(%rip), %rbx
 2795      000000
 2796              	.L216:
 869:/home/xingli/share/LiteOS_Lab/network/dtls/mbedtls/mbedtls-2.16.2/library/x509.c ****                               md_info ? mbedtls_md_get_name( md_info ) : "???",
 2797              		.loc 1 869 15 is_stmt 0 discriminator 2
 2798 0151 48837DC8 		cmpq	$0, -56(%rbp)
 2798      00
 2799 0156 740E     		je	.L217
 870:/home/xingli/share/LiteOS_Lab/network/dtls/mbedtls/mbedtls-2.16.2/library/x509.c ****                               md_info ? mbedtls_md_get_name( md_info ) : "???",
 2800              		.loc 1 870 41 is_stmt 1
 2801 0158 488B45C8 		movq	-56(%rbp), %rax
 2802 015c 4889C7   		movq	%rax, %rdi
 2803 015f E8000000 		call	mbedtls_md_get_name@PLT
 2803      00
 2804 0164 EB07     		jmp	.L218
 2805              	.L217:
 869:/home/xingli/share/LiteOS_Lab/network/dtls/mbedtls/mbedtls-2.16.2/library/x509.c ****                               md_info ? mbedtls_md_get_name( md_info ) : "???",
 2806              		.loc 1 869 15 discriminator 3
 2807 0166 488D0500 		leaq	.LC10(%rip), %rax
 2807      000000
 2808              	.L218:
 869:/home/xingli/share/LiteOS_Lab/network/dtls/mbedtls/mbedtls-2.16.2/library/x509.c ****                               md_info ? mbedtls_md_get_name( md_info ) : "???",
 2809              		.loc 1 869 15 is_stmt 0 discriminator 4
 2810 016d 488B75B0 		movq	-80(%rbp), %rsi
 2811 0171 488B7DB8 		movq	-72(%rbp), %rdi
 2812 0175 4589E9   		movl	%r13d, %r9d
 2813 0178 4989D8   		movq	%rbx, %r8
 2814 017b 4889C1   		movq	%rax, %rcx
 2815 017e 488D1500 		leaq	.LC11(%rip), %rdx
 2815      000000
 2816 0185 B8000000 		movl	$0, %eax
 2816      00
 2817 018a 41FFD4   		call	*%r12
 2818              	.LVL8:
 2819 018d 8945A4   		movl	%eax, -92(%rbp)
 872:/home/xingli/share/LiteOS_Lab/network/dtls/mbedtls/mbedtls-2.16.2/library/x509.c ****                               pss_opts->expected_salt_len );
 873:/home/xingli/share/LiteOS_Lab/network/dtls/mbedtls/mbedtls-2.16.2/library/x509.c ****         MBEDTLS_X509_SAFE_SNPRINTF;
 2820              		.loc 1 873 9 is_stmt 1 discriminator 4
 2821 0190 837DA400 		cmpl	$0, -92(%rbp)
 2822 0194 780B     		js	.L219
 2823              		.loc 1 873 9 is_stmt 0 discriminator 2
 2824 0196 8B45A4   		movl	-92(%rbp), %eax
 2825 0199 4898     		cltq
GAS LISTING /tmp/ccL8LWq1.s 			page 74


 2826 019b 483945B0 		cmpq	%rax, -80(%rbp)
 2827 019f 7707     		ja	.L220
 2828              	.L219:
 2829              		.loc 1 873 9 discriminator 3
 2830 01a1 B880D6FF 		movl	$-10624, %eax
 2830      FF
 2831 01a6 EB20     		jmp	.L221
 2832              	.L220:
 2833              		.loc 1 873 9 discriminator 4
 2834 01a8 8B45A4   		movl	-92(%rbp), %eax
 2835 01ab 4898     		cltq
 2836 01ad 482945B0 		subq	%rax, -80(%rbp)
 2837 01b1 8B45A4   		movl	-92(%rbp), %eax
 2838 01b4 4898     		cltq
 2839 01b6 480145B8 		addq	%rax, -72(%rbp)
 2840              	.L214:
 2841              	.LBE4:
 874:/home/xingli/share/LiteOS_Lab/network/dtls/mbedtls/mbedtls-2.16.2/library/x509.c ****     }
 875:/home/xingli/share/LiteOS_Lab/network/dtls/mbedtls/mbedtls-2.16.2/library/x509.c **** #else
 876:/home/xingli/share/LiteOS_Lab/network/dtls/mbedtls/mbedtls-2.16.2/library/x509.c ****     ((void) pk_alg);
 877:/home/xingli/share/LiteOS_Lab/network/dtls/mbedtls/mbedtls-2.16.2/library/x509.c ****     ((void) md_alg);
 878:/home/xingli/share/LiteOS_Lab/network/dtls/mbedtls/mbedtls-2.16.2/library/x509.c ****     ((void) sig_opts);
 879:/home/xingli/share/LiteOS_Lab/network/dtls/mbedtls/mbedtls-2.16.2/library/x509.c **** #endif /* MBEDTLS_X509_RSASSA_PSS_SUPPORT */
 880:/home/xingli/share/LiteOS_Lab/network/dtls/mbedtls/mbedtls-2.16.2/library/x509.c **** 
 881:/home/xingli/share/LiteOS_Lab/network/dtls/mbedtls/mbedtls-2.16.2/library/x509.c ****     return( (int)( size - n ) );
 2842              		.loc 1 881 25 is_stmt 1
 2843 01ba 488B4590 		movq	-112(%rbp), %rax
 2844 01be 89C2     		movl	%eax, %edx
 2845 01c0 488B45B0 		movq	-80(%rbp), %rax
 2846 01c4 29C2     		subl	%eax, %edx
 2847 01c6 89D0     		movl	%edx, %eax
 2848              	.L221:
 882:/home/xingli/share/LiteOS_Lab/network/dtls/mbedtls/mbedtls-2.16.2/library/x509.c **** }
 2849              		.loc 1 882 1 discriminator 1
 2850 01c8 488B5DD8 		movq	-40(%rbp), %rbx
 2851 01cc 6448331C 		xorq	%fs:40, %rbx
 2851      25280000 
 2851      00
 2852 01d5 7405     		je	.L222
 2853              		.loc 1 882 1 is_stmt 0
 2854 01d7 E8000000 		call	__stack_chk_fail@PLT
 2854      00
 2855              	.L222:
 2856 01dc 4883C478 		addq	$120, %rsp
 2857 01e0 5B       		popq	%rbx
 2858 01e1 415C     		popq	%r12
 2859 01e3 415D     		popq	%r13
 2860 01e5 5D       		popq	%rbp
 2861              	.LCFI50:
 2862              		.cfi_def_cfa 7, 8
 2863 01e6 C3       		ret
 2864              		.cfi_endproc
 2865              	.LFE32:
 2867              		.section	.rodata
 2868              	.LC12:
 2869 0046 2573206B 		.string	"%s key size"
 2869      65792073 
GAS LISTING /tmp/ccL8LWq1.s 			page 75


 2869      697A6500 
 2870              		.section	.text.mbedtls_x509_key_size_helper,"ax",@progbits
 2871              		.globl	mbedtls_x509_key_size_helper
 2873              	mbedtls_x509_key_size_helper:
 2874              	.LFB33:
 883:/home/xingli/share/LiteOS_Lab/network/dtls/mbedtls/mbedtls-2.16.2/library/x509.c **** 
 884:/home/xingli/share/LiteOS_Lab/network/dtls/mbedtls/mbedtls-2.16.2/library/x509.c **** /*
 885:/home/xingli/share/LiteOS_Lab/network/dtls/mbedtls/mbedtls-2.16.2/library/x509.c ****  * Helper for writing "RSA key size", "EC key size", etc
 886:/home/xingli/share/LiteOS_Lab/network/dtls/mbedtls/mbedtls-2.16.2/library/x509.c ****  */
 887:/home/xingli/share/LiteOS_Lab/network/dtls/mbedtls/mbedtls-2.16.2/library/x509.c **** int mbedtls_x509_key_size_helper( char *buf, size_t buf_size, const char *name )
 888:/home/xingli/share/LiteOS_Lab/network/dtls/mbedtls/mbedtls-2.16.2/library/x509.c **** {
 2875              		.loc 1 888 1 is_stmt 1
 2876              		.cfi_startproc
 2877 0000 F30F1EFA 		endbr64
 2878 0004 55       		pushq	%rbp
 2879              	.LCFI51:
 2880              		.cfi_def_cfa_offset 16
 2881              		.cfi_offset 6, -16
 2882 0005 4889E5   		movq	%rsp, %rbp
 2883              	.LCFI52:
 2884              		.cfi_def_cfa_register 6
 2885 0008 4883EC40 		subq	$64, %rsp
 2886 000c 48897DD8 		movq	%rdi, -40(%rbp)
 2887 0010 488975D0 		movq	%rsi, -48(%rbp)
 2888 0014 488955C8 		movq	%rdx, -56(%rbp)
 2889              		.loc 1 888 1
 2890 0018 64488B04 		movq	%fs:40, %rax
 2890      25280000 
 2890      00
 2891 0021 488945F8 		movq	%rax, -8(%rbp)
 2892 0025 31C0     		xorl	%eax, %eax
 889:/home/xingli/share/LiteOS_Lab/network/dtls/mbedtls/mbedtls-2.16.2/library/x509.c ****     char *p = buf;
 2893              		.loc 1 889 11
 2894 0027 488B45D8 		movq	-40(%rbp), %rax
 2895 002b 488945E8 		movq	%rax, -24(%rbp)
 890:/home/xingli/share/LiteOS_Lab/network/dtls/mbedtls/mbedtls-2.16.2/library/x509.c ****     size_t n = buf_size;
 2896              		.loc 1 890 12
 2897 002f 488B45D0 		movq	-48(%rbp), %rax
 2898 0033 488945F0 		movq	%rax, -16(%rbp)
 891:/home/xingli/share/LiteOS_Lab/network/dtls/mbedtls/mbedtls-2.16.2/library/x509.c ****     int ret;
 892:/home/xingli/share/LiteOS_Lab/network/dtls/mbedtls/mbedtls-2.16.2/library/x509.c **** 
 893:/home/xingli/share/LiteOS_Lab/network/dtls/mbedtls/mbedtls-2.16.2/library/x509.c ****     ret = mbedtls_snprintf( p, n, "%s key size", name );
 2899              		.loc 1 893 11
 2900 0037 4C8B0500 		movq	mbedtls_snprintf(%rip), %r8
 2900      000000
 2901 003e 488B55C8 		movq	-56(%rbp), %rdx
 2902 0042 488B75F0 		movq	-16(%rbp), %rsi
 2903 0046 488B45E8 		movq	-24(%rbp), %rax
 2904 004a 4889D1   		movq	%rdx, %rcx
 2905 004d 488D1500 		leaq	.LC12(%rip), %rdx
 2905      000000
 2906 0054 4889C7   		movq	%rax, %rdi
 2907 0057 B8000000 		movl	$0, %eax
 2907      00
 2908 005c 41FFD0   		call	*%r8
 2909              	.LVL9:
 2910 005f 8945E4   		movl	%eax, -28(%rbp)
GAS LISTING /tmp/ccL8LWq1.s 			page 76


 894:/home/xingli/share/LiteOS_Lab/network/dtls/mbedtls/mbedtls-2.16.2/library/x509.c ****     MBEDTLS_X509_SAFE_SNPRINTF;
 2911              		.loc 1 894 5
 2912 0062 837DE400 		cmpl	$0, -28(%rbp)
 2913 0066 780B     		js	.L224
 2914              		.loc 1 894 5 is_stmt 0 discriminator 2
 2915 0068 8B45E4   		movl	-28(%rbp), %eax
 2916 006b 4898     		cltq
 2917 006d 483945F0 		cmpq	%rax, -16(%rbp)
 2918 0071 7707     		ja	.L225
 2919              	.L224:
 2920              		.loc 1 894 5 discriminator 3
 2921 0073 B880D6FF 		movl	$-10624, %eax
 2921      FF
 2922 0078 EB17     		jmp	.L226
 2923              	.L225:
 2924              		.loc 1 894 5 discriminator 4
 2925 007a 8B45E4   		movl	-28(%rbp), %eax
 2926 007d 4898     		cltq
 2927 007f 482945F0 		subq	%rax, -16(%rbp)
 2928 0083 8B45E4   		movl	-28(%rbp), %eax
 2929 0086 4898     		cltq
 2930 0088 480145E8 		addq	%rax, -24(%rbp)
 895:/home/xingli/share/LiteOS_Lab/network/dtls/mbedtls/mbedtls-2.16.2/library/x509.c **** 
 896:/home/xingli/share/LiteOS_Lab/network/dtls/mbedtls/mbedtls-2.16.2/library/x509.c ****     return( 0 );
 2931              		.loc 1 896 11 is_stmt 1 discriminator 4
 2932 008c B8000000 		movl	$0, %eax
 2932      00
 2933              	.L226:
 897:/home/xingli/share/LiteOS_Lab/network/dtls/mbedtls/mbedtls-2.16.2/library/x509.c **** }
 2934              		.loc 1 897 1
 2935 0091 488B4DF8 		movq	-8(%rbp), %rcx
 2936 0095 6448330C 		xorq	%fs:40, %rcx
 2936      25280000 
 2936      00
 2937 009e 7405     		je	.L227
 2938 00a0 E8000000 		call	__stack_chk_fail@PLT
 2938      00
 2939              	.L227:
 2940 00a5 C9       		leave
 2941              	.LCFI53:
 2942              		.cfi_def_cfa 7, 8
 2943 00a6 C3       		ret
 2944              		.cfi_endproc
 2945              	.LFE33:
 2947              		.section	.text.mbedtls_x509_time_is_past,"ax",@progbits
 2948              		.globl	mbedtls_x509_time_is_past
 2950              	mbedtls_x509_time_is_past:
 2951              	.LFB34:
 898:/home/xingli/share/LiteOS_Lab/network/dtls/mbedtls/mbedtls-2.16.2/library/x509.c **** 
 899:/home/xingli/share/LiteOS_Lab/network/dtls/mbedtls/mbedtls-2.16.2/library/x509.c **** #if defined(MBEDTLS_HAVE_TIME_DATE)
 900:/home/xingli/share/LiteOS_Lab/network/dtls/mbedtls/mbedtls-2.16.2/library/x509.c **** /*
 901:/home/xingli/share/LiteOS_Lab/network/dtls/mbedtls/mbedtls-2.16.2/library/x509.c ****  * Set the time structure to the current time.
 902:/home/xingli/share/LiteOS_Lab/network/dtls/mbedtls/mbedtls-2.16.2/library/x509.c ****  * Return 0 on success, non-zero on failure.
 903:/home/xingli/share/LiteOS_Lab/network/dtls/mbedtls/mbedtls-2.16.2/library/x509.c ****  */
 904:/home/xingli/share/LiteOS_Lab/network/dtls/mbedtls/mbedtls-2.16.2/library/x509.c **** static int x509_get_current_time( mbedtls_x509_time *now )
 905:/home/xingli/share/LiteOS_Lab/network/dtls/mbedtls/mbedtls-2.16.2/library/x509.c **** {
 906:/home/xingli/share/LiteOS_Lab/network/dtls/mbedtls/mbedtls-2.16.2/library/x509.c ****     struct tm *lt, tm_buf;
GAS LISTING /tmp/ccL8LWq1.s 			page 77


 907:/home/xingli/share/LiteOS_Lab/network/dtls/mbedtls/mbedtls-2.16.2/library/x509.c ****     mbedtls_time_t tt;
 908:/home/xingli/share/LiteOS_Lab/network/dtls/mbedtls/mbedtls-2.16.2/library/x509.c ****     int ret = 0;
 909:/home/xingli/share/LiteOS_Lab/network/dtls/mbedtls/mbedtls-2.16.2/library/x509.c **** 
 910:/home/xingli/share/LiteOS_Lab/network/dtls/mbedtls/mbedtls-2.16.2/library/x509.c ****     tt = mbedtls_time( NULL );
 911:/home/xingli/share/LiteOS_Lab/network/dtls/mbedtls/mbedtls-2.16.2/library/x509.c ****     lt = mbedtls_platform_gmtime_r( &tt, &tm_buf );
 912:/home/xingli/share/LiteOS_Lab/network/dtls/mbedtls/mbedtls-2.16.2/library/x509.c **** 
 913:/home/xingli/share/LiteOS_Lab/network/dtls/mbedtls/mbedtls-2.16.2/library/x509.c ****     if( lt == NULL )
 914:/home/xingli/share/LiteOS_Lab/network/dtls/mbedtls/mbedtls-2.16.2/library/x509.c ****         ret = -1;
 915:/home/xingli/share/LiteOS_Lab/network/dtls/mbedtls/mbedtls-2.16.2/library/x509.c ****     else
 916:/home/xingli/share/LiteOS_Lab/network/dtls/mbedtls/mbedtls-2.16.2/library/x509.c ****     {
 917:/home/xingli/share/LiteOS_Lab/network/dtls/mbedtls/mbedtls-2.16.2/library/x509.c ****         now->year = lt->tm_year + 1900;
 918:/home/xingli/share/LiteOS_Lab/network/dtls/mbedtls/mbedtls-2.16.2/library/x509.c ****         now->mon  = lt->tm_mon  + 1;
 919:/home/xingli/share/LiteOS_Lab/network/dtls/mbedtls/mbedtls-2.16.2/library/x509.c ****         now->day  = lt->tm_mday;
 920:/home/xingli/share/LiteOS_Lab/network/dtls/mbedtls/mbedtls-2.16.2/library/x509.c ****         now->hour = lt->tm_hour;
 921:/home/xingli/share/LiteOS_Lab/network/dtls/mbedtls/mbedtls-2.16.2/library/x509.c ****         now->min  = lt->tm_min;
 922:/home/xingli/share/LiteOS_Lab/network/dtls/mbedtls/mbedtls-2.16.2/library/x509.c ****         now->sec  = lt->tm_sec;
 923:/home/xingli/share/LiteOS_Lab/network/dtls/mbedtls/mbedtls-2.16.2/library/x509.c ****     }
 924:/home/xingli/share/LiteOS_Lab/network/dtls/mbedtls/mbedtls-2.16.2/library/x509.c **** 
 925:/home/xingli/share/LiteOS_Lab/network/dtls/mbedtls/mbedtls-2.16.2/library/x509.c ****     return( ret );
 926:/home/xingli/share/LiteOS_Lab/network/dtls/mbedtls/mbedtls-2.16.2/library/x509.c **** }
 927:/home/xingli/share/LiteOS_Lab/network/dtls/mbedtls/mbedtls-2.16.2/library/x509.c **** 
 928:/home/xingli/share/LiteOS_Lab/network/dtls/mbedtls/mbedtls-2.16.2/library/x509.c **** /*
 929:/home/xingli/share/LiteOS_Lab/network/dtls/mbedtls/mbedtls-2.16.2/library/x509.c ****  * Return 0 if before <= after, 1 otherwise
 930:/home/xingli/share/LiteOS_Lab/network/dtls/mbedtls/mbedtls-2.16.2/library/x509.c ****  */
 931:/home/xingli/share/LiteOS_Lab/network/dtls/mbedtls/mbedtls-2.16.2/library/x509.c **** static int x509_check_time( const mbedtls_x509_time *before, const mbedtls_x509_time *after )
 932:/home/xingli/share/LiteOS_Lab/network/dtls/mbedtls/mbedtls-2.16.2/library/x509.c **** {
 933:/home/xingli/share/LiteOS_Lab/network/dtls/mbedtls/mbedtls-2.16.2/library/x509.c ****     if( before->year  > after->year )
 934:/home/xingli/share/LiteOS_Lab/network/dtls/mbedtls/mbedtls-2.16.2/library/x509.c ****         return( 1 );
 935:/home/xingli/share/LiteOS_Lab/network/dtls/mbedtls/mbedtls-2.16.2/library/x509.c **** 
 936:/home/xingli/share/LiteOS_Lab/network/dtls/mbedtls/mbedtls-2.16.2/library/x509.c ****     if( before->year == after->year &&
 937:/home/xingli/share/LiteOS_Lab/network/dtls/mbedtls/mbedtls-2.16.2/library/x509.c ****         before->mon   > after->mon )
 938:/home/xingli/share/LiteOS_Lab/network/dtls/mbedtls/mbedtls-2.16.2/library/x509.c ****         return( 1 );
 939:/home/xingli/share/LiteOS_Lab/network/dtls/mbedtls/mbedtls-2.16.2/library/x509.c **** 
 940:/home/xingli/share/LiteOS_Lab/network/dtls/mbedtls/mbedtls-2.16.2/library/x509.c ****     if( before->year == after->year &&
 941:/home/xingli/share/LiteOS_Lab/network/dtls/mbedtls/mbedtls-2.16.2/library/x509.c ****         before->mon  == after->mon  &&
 942:/home/xingli/share/LiteOS_Lab/network/dtls/mbedtls/mbedtls-2.16.2/library/x509.c ****         before->day   > after->day )
 943:/home/xingli/share/LiteOS_Lab/network/dtls/mbedtls/mbedtls-2.16.2/library/x509.c ****         return( 1 );
 944:/home/xingli/share/LiteOS_Lab/network/dtls/mbedtls/mbedtls-2.16.2/library/x509.c **** 
 945:/home/xingli/share/LiteOS_Lab/network/dtls/mbedtls/mbedtls-2.16.2/library/x509.c ****     if( before->year == after->year &&
 946:/home/xingli/share/LiteOS_Lab/network/dtls/mbedtls/mbedtls-2.16.2/library/x509.c ****         before->mon  == after->mon  &&
 947:/home/xingli/share/LiteOS_Lab/network/dtls/mbedtls/mbedtls-2.16.2/library/x509.c ****         before->day  == after->day  &&
 948:/home/xingli/share/LiteOS_Lab/network/dtls/mbedtls/mbedtls-2.16.2/library/x509.c ****         before->hour  > after->hour )
 949:/home/xingli/share/LiteOS_Lab/network/dtls/mbedtls/mbedtls-2.16.2/library/x509.c ****         return( 1 );
 950:/home/xingli/share/LiteOS_Lab/network/dtls/mbedtls/mbedtls-2.16.2/library/x509.c **** 
 951:/home/xingli/share/LiteOS_Lab/network/dtls/mbedtls/mbedtls-2.16.2/library/x509.c ****     if( before->year == after->year &&
 952:/home/xingli/share/LiteOS_Lab/network/dtls/mbedtls/mbedtls-2.16.2/library/x509.c ****         before->mon  == after->mon  &&
 953:/home/xingli/share/LiteOS_Lab/network/dtls/mbedtls/mbedtls-2.16.2/library/x509.c ****         before->day  == after->day  &&
 954:/home/xingli/share/LiteOS_Lab/network/dtls/mbedtls/mbedtls-2.16.2/library/x509.c ****         before->hour == after->hour &&
 955:/home/xingli/share/LiteOS_Lab/network/dtls/mbedtls/mbedtls-2.16.2/library/x509.c ****         before->min   > after->min  )
 956:/home/xingli/share/LiteOS_Lab/network/dtls/mbedtls/mbedtls-2.16.2/library/x509.c ****         return( 1 );
 957:/home/xingli/share/LiteOS_Lab/network/dtls/mbedtls/mbedtls-2.16.2/library/x509.c **** 
 958:/home/xingli/share/LiteOS_Lab/network/dtls/mbedtls/mbedtls-2.16.2/library/x509.c ****     if( before->year == after->year &&
 959:/home/xingli/share/LiteOS_Lab/network/dtls/mbedtls/mbedtls-2.16.2/library/x509.c ****         before->mon  == after->mon  &&
 960:/home/xingli/share/LiteOS_Lab/network/dtls/mbedtls/mbedtls-2.16.2/library/x509.c ****         before->day  == after->day  &&
 961:/home/xingli/share/LiteOS_Lab/network/dtls/mbedtls/mbedtls-2.16.2/library/x509.c ****         before->hour == after->hour &&
 962:/home/xingli/share/LiteOS_Lab/network/dtls/mbedtls/mbedtls-2.16.2/library/x509.c ****         before->min  == after->min  &&
 963:/home/xingli/share/LiteOS_Lab/network/dtls/mbedtls/mbedtls-2.16.2/library/x509.c ****         before->sec   > after->sec  )
GAS LISTING /tmp/ccL8LWq1.s 			page 78


 964:/home/xingli/share/LiteOS_Lab/network/dtls/mbedtls/mbedtls-2.16.2/library/x509.c ****         return( 1 );
 965:/home/xingli/share/LiteOS_Lab/network/dtls/mbedtls/mbedtls-2.16.2/library/x509.c **** 
 966:/home/xingli/share/LiteOS_Lab/network/dtls/mbedtls/mbedtls-2.16.2/library/x509.c ****     return( 0 );
 967:/home/xingli/share/LiteOS_Lab/network/dtls/mbedtls/mbedtls-2.16.2/library/x509.c **** }
 968:/home/xingli/share/LiteOS_Lab/network/dtls/mbedtls/mbedtls-2.16.2/library/x509.c **** 
 969:/home/xingli/share/LiteOS_Lab/network/dtls/mbedtls/mbedtls-2.16.2/library/x509.c **** int mbedtls_x509_time_is_past( const mbedtls_x509_time *to )
 970:/home/xingli/share/LiteOS_Lab/network/dtls/mbedtls/mbedtls-2.16.2/library/x509.c **** {
 971:/home/xingli/share/LiteOS_Lab/network/dtls/mbedtls/mbedtls-2.16.2/library/x509.c ****     mbedtls_x509_time now;
 972:/home/xingli/share/LiteOS_Lab/network/dtls/mbedtls/mbedtls-2.16.2/library/x509.c **** 
 973:/home/xingli/share/LiteOS_Lab/network/dtls/mbedtls/mbedtls-2.16.2/library/x509.c ****     if( x509_get_current_time( &now ) != 0 )
 974:/home/xingli/share/LiteOS_Lab/network/dtls/mbedtls/mbedtls-2.16.2/library/x509.c ****         return( 1 );
 975:/home/xingli/share/LiteOS_Lab/network/dtls/mbedtls/mbedtls-2.16.2/library/x509.c **** 
 976:/home/xingli/share/LiteOS_Lab/network/dtls/mbedtls/mbedtls-2.16.2/library/x509.c ****     return( x509_check_time( &now, to ) );
 977:/home/xingli/share/LiteOS_Lab/network/dtls/mbedtls/mbedtls-2.16.2/library/x509.c **** }
 978:/home/xingli/share/LiteOS_Lab/network/dtls/mbedtls/mbedtls-2.16.2/library/x509.c **** 
 979:/home/xingli/share/LiteOS_Lab/network/dtls/mbedtls/mbedtls-2.16.2/library/x509.c **** int mbedtls_x509_time_is_future( const mbedtls_x509_time *from )
 980:/home/xingli/share/LiteOS_Lab/network/dtls/mbedtls/mbedtls-2.16.2/library/x509.c **** {
 981:/home/xingli/share/LiteOS_Lab/network/dtls/mbedtls/mbedtls-2.16.2/library/x509.c ****     mbedtls_x509_time now;
 982:/home/xingli/share/LiteOS_Lab/network/dtls/mbedtls/mbedtls-2.16.2/library/x509.c **** 
 983:/home/xingli/share/LiteOS_Lab/network/dtls/mbedtls/mbedtls-2.16.2/library/x509.c ****     if( x509_get_current_time( &now ) != 0 )
 984:/home/xingli/share/LiteOS_Lab/network/dtls/mbedtls/mbedtls-2.16.2/library/x509.c ****         return( 1 );
 985:/home/xingli/share/LiteOS_Lab/network/dtls/mbedtls/mbedtls-2.16.2/library/x509.c **** 
 986:/home/xingli/share/LiteOS_Lab/network/dtls/mbedtls/mbedtls-2.16.2/library/x509.c ****     return( x509_check_time( from, &now ) );
 987:/home/xingli/share/LiteOS_Lab/network/dtls/mbedtls/mbedtls-2.16.2/library/x509.c **** }
 988:/home/xingli/share/LiteOS_Lab/network/dtls/mbedtls/mbedtls-2.16.2/library/x509.c **** 
 989:/home/xingli/share/LiteOS_Lab/network/dtls/mbedtls/mbedtls-2.16.2/library/x509.c **** #else  /* MBEDTLS_HAVE_TIME_DATE */
 990:/home/xingli/share/LiteOS_Lab/network/dtls/mbedtls/mbedtls-2.16.2/library/x509.c **** 
 991:/home/xingli/share/LiteOS_Lab/network/dtls/mbedtls/mbedtls-2.16.2/library/x509.c **** int mbedtls_x509_time_is_past( const mbedtls_x509_time *to )
 992:/home/xingli/share/LiteOS_Lab/network/dtls/mbedtls/mbedtls-2.16.2/library/x509.c **** {
 2952              		.loc 1 992 1
 2953              		.cfi_startproc
 2954 0000 F30F1EFA 		endbr64
 2955 0004 55       		pushq	%rbp
 2956              	.LCFI54:
 2957              		.cfi_def_cfa_offset 16
 2958              		.cfi_offset 6, -16
 2959 0005 4889E5   		movq	%rsp, %rbp
 2960              	.LCFI55:
 2961              		.cfi_def_cfa_register 6
 2962 0008 4883EC20 		subq	$32, %rsp
 2963 000c 48897DE8 		movq	%rdi, -24(%rbp)
 2964              		.loc 1 992 1
 2965 0010 64488B04 		movq	%fs:40, %rax
 2965      25280000 
 2965      00
 2966 0019 488945F8 		movq	%rax, -8(%rbp)
 2967 001d 31C0     		xorl	%eax, %eax
 993:/home/xingli/share/LiteOS_Lab/network/dtls/mbedtls/mbedtls-2.16.2/library/x509.c ****     ((void) to);
 994:/home/xingli/share/LiteOS_Lab/network/dtls/mbedtls/mbedtls-2.16.2/library/x509.c ****     return( 0 );
 2968              		.loc 1 994 11
 2969 001f B8000000 		movl	$0, %eax
 2969      00
 995:/home/xingli/share/LiteOS_Lab/network/dtls/mbedtls/mbedtls-2.16.2/library/x509.c **** }
 2970              		.loc 1 995 1
 2971 0024 488B55F8 		movq	-8(%rbp), %rdx
 2972 0028 64483314 		xorq	%fs:40, %rdx
 2972      25280000 
GAS LISTING /tmp/ccL8LWq1.s 			page 79


 2972      00
 2973 0031 7405     		je	.L230
 2974 0033 E8000000 		call	__stack_chk_fail@PLT
 2974      00
 2975              	.L230:
 2976 0038 C9       		leave
 2977              	.LCFI56:
 2978              		.cfi_def_cfa 7, 8
 2979 0039 C3       		ret
 2980              		.cfi_endproc
 2981              	.LFE34:
 2983              		.section	.text.mbedtls_x509_time_is_future,"ax",@progbits
 2984              		.globl	mbedtls_x509_time_is_future
 2986              	mbedtls_x509_time_is_future:
 2987              	.LFB35:
 996:/home/xingli/share/LiteOS_Lab/network/dtls/mbedtls/mbedtls-2.16.2/library/x509.c **** 
 997:/home/xingli/share/LiteOS_Lab/network/dtls/mbedtls/mbedtls-2.16.2/library/x509.c **** int mbedtls_x509_time_is_future( const mbedtls_x509_time *from )
 998:/home/xingli/share/LiteOS_Lab/network/dtls/mbedtls/mbedtls-2.16.2/library/x509.c **** {
 2988              		.loc 1 998 1
 2989              		.cfi_startproc
 2990 0000 F30F1EFA 		endbr64
 2991 0004 55       		pushq	%rbp
 2992              	.LCFI57:
 2993              		.cfi_def_cfa_offset 16
 2994              		.cfi_offset 6, -16
 2995 0005 4889E5   		movq	%rsp, %rbp
 2996              	.LCFI58:
 2997              		.cfi_def_cfa_register 6
 2998 0008 4883EC20 		subq	$32, %rsp
 2999 000c 48897DE8 		movq	%rdi, -24(%rbp)
 3000              		.loc 1 998 1
 3001 0010 64488B04 		movq	%fs:40, %rax
 3001      25280000 
 3001      00
 3002 0019 488945F8 		movq	%rax, -8(%rbp)
 3003 001d 31C0     		xorl	%eax, %eax
 999:/home/xingli/share/LiteOS_Lab/network/dtls/mbedtls/mbedtls-2.16.2/library/x509.c ****     ((void) from);
1000:/home/xingli/share/LiteOS_Lab/network/dtls/mbedtls/mbedtls-2.16.2/library/x509.c ****     return( 0 );
 3004              		.loc 1 1000 11
 3005 001f B8000000 		movl	$0, %eax
 3005      00
1001:/home/xingli/share/LiteOS_Lab/network/dtls/mbedtls/mbedtls-2.16.2/library/x509.c **** }
 3006              		.loc 1 1001 1
 3007 0024 488B55F8 		movq	-8(%rbp), %rdx
 3008 0028 64483314 		xorq	%fs:40, %rdx
 3008      25280000 
 3008      00
 3009 0031 7405     		je	.L233
 3010 0033 E8000000 		call	__stack_chk_fail@PLT
 3010      00
 3011              	.L233:
 3012 0038 C9       		leave
 3013              	.LCFI59:
 3014              		.cfi_def_cfa 7, 8
 3015 0039 C3       		ret
 3016              		.cfi_endproc
 3017              	.LFE35:
GAS LISTING /tmp/ccL8LWq1.s 			page 80


 3019              		.text
 3020              	.Letext0:
 3021              		.file 2 "/usr/lib/gcc/x86_64-linux-gnu/9/include/stddef.h"
 3022              		.file 3 "/usr/include/x86_64-linux-gnu/bits/types.h"
 3023              		.file 4 "/home/xingli/share/LiteOS_Lab/network/dtls/mbedtls/mbedtls-2.16.2/include/mbedtls/asn1.h"
 3024              		.file 5 "/home/xingli/share/LiteOS_Lab/network/dtls/mbedtls/mbedtls-2.16.2/include/mbedtls/md.h"
 3025              		.file 6 "/home/xingli/share/LiteOS_Lab/network/dtls/mbedtls/mbedtls-2.16.2/include/mbedtls/pk.h"
 3026              		.file 7 "/home/xingli/share/LiteOS_Lab/network/dtls/mbedtls/mbedtls-2.16.2/include/mbedtls/x509.h"
 3027              		.file 8 "/usr/include/x86_64-linux-gnu/bits/types/struct_FILE.h"
 3028              		.file 9 "/usr/include/x86_64-linux-gnu/bits/types/FILE.h"
 3029              		.file 10 "/usr/include/stdio.h"
 3030              		.file 11 "/usr/include/x86_64-linux-gnu/bits/sys_errlist.h"
 3031              		.file 12 "/usr/include/time.h"
 3032              		.file 13 "/home/xingli/share/LiteOS_Lab/network/dtls/mbedtls/mbedtls-2.16.2/include/mbedtls/platfo
 6752              		.section	.note.gnu.property,"a"
 6753              		.align 8
 6754 0000 04000000 		.long	 1f - 0f
 6755 0004 10000000 		.long	 4f - 1f
 6756 0008 05000000 		.long	 5
 6757              	0:
 6758 000c 474E5500 		.string	 "GNU"
 6759              	1:
 6760              		.align 8
 6761 0010 020000C0 		.long	 0xc0000002
 6762 0014 04000000 		.long	 3f - 2f
 6763              	2:
 6764 0018 03000000 		.long	 0x3
 6765              	3:
 6766 001c 00000000 		.align 8
 6767              	4:
GAS LISTING /tmp/ccL8LWq1.s 			page 81

